ARM GAS  /tmp/ccyCEcZE.s 			page 1


   1              		.syntax unified
   2              		.cpu cortex-m4
   3              		.fpu softvfp
   4              		.eabi_attribute 20, 1
   5              		.eabi_attribute 21, 1
   6              		.eabi_attribute 23, 3
   7              		.eabi_attribute 24, 1
   8              		.eabi_attribute 25, 1
   9              		.eabi_attribute 26, 1
  10              		.eabi_attribute 30, 6
  11              		.eabi_attribute 34, 1
  12              		.eabi_attribute 18, 4
  13              		.thumb
  14              		.file	"chcore_v7m.c"
  15              		.text
  16              	.Ltext0:
  17              		.section	.gnu.lto_.inline.f0ce06e69fa75b42,"",%progbits
  18 0000 789C6362 		.ascii	"x\234cb`b\300\006z\2414\033\003\003\0133\003\003\023"
  18      6062C006 
  18      7AA1341B 
  18      03030B33 
  18      030313
  19 0013 CB073D06 		.ascii	"\313\007=\006\026\210ZF\014\021&\006\026\036 \311\264"
  19      16885A46 
  19      0C112606 
  19      161E20C9 
  19      B4
  20 0024 401EAE86 		.ascii	"@\036\256\206\013H0c\027fa\340\024\004\012\363l\310"
  20      0B483063 
  20      176661E0 
  20      14040AF3 
  20      6CC8
  21 0036 45116665 		.ascii	"E\021fe\020\325\007\012\3135\374bD\021g\342\206\261"
  21      10D5070A 
  21      CB35FC62 
  21      441167E2 
  21      86B1
  22 0048 18008EE0 		.ascii	"\030\000\216\340\010/"
  22      082F
  23              		.text
  24              		.section	.gnu.lto_port_lock.f0ce06e69fa75b42,"",%progbits
  25 0000 789C6362 		.ascii	"x\234cb`b@\007\"@,\310\310\300\320\000\342030\002U0"
  25      60624007 
  25      22402CC8 
  25      C8C0D000 
  25      E2303330 
  26 0017 32310205 		.ascii	"21\002\005\030\030\031\352\231\030\353#AL\006F%\206"
  26      181819EA 
  26      9918EB23 
  26      414C0646 
  26      2586
  27 0029 850D0D93 		.ascii	"\205\015\015\223\036\264>{\3144\263\341@\313\202\206"
  27      1EB43E7B 
  27      CC34B3E1 
  27      40CB8286 
  28 0039 3FFFFF33 		.ascii	"?\377\37732f2\002M\324gdHfd\210\000r\030\025\300\024"
  28      32663202 
ARM GAS  /tmp/ccyCEcZE.s 			page 2


  28      4DD46764 
  28      48666488 
  28      00721815 
  29 004f 130BAA15 		.ascii	"\023\013\252\025\353\231\016<\370\377\377D\347\363\275"
  29      EB990E3C 
  29      F8FFFF44 
  29      E7F3BD
  30 005e 40931912 		.ascii	"@\223\031\022\031\027\002M\003\002V\206\226\206\206"
  30      1917024D 
  30      03025686 
  30      968686
  31 006d 090A0C20 		.ascii	"\011\012\014 \335@\020\002&CA\016`>\313\320\264\003"
  31      DD401002 
  31      2643410E 
  31      603ECBD0 
  31      B403
  32 007f 48A73332 		.ascii	"H\24732\202\314c\000\252a8\307\320\364\361\355\214\307"
  32      82CC6300 
  32      AA6138C7 
  32      D0F4F1ED 
  32      8CC7
  33 0091 12705D60 		.ascii	"\022p]`F\303\201\356+\355\2540#\023\031\0273\262\002"
  33      46C381EE 
  33      2BEDAC30 
  33      23131917 
  33      33B202
  34 00a4 8D833819 		.ascii	"\215\2038\031\010S\231A>f\206x[\216\241ln\303\014\207"
  34      08539941 
  34      3E668678 
  34      5B8EA16C 
  34      6EC30C87 
  35 00b8 4C466610 		.ascii	"LFf\020/\035\254\012.U\011\221\202\272\374\"C\343\203"
  35      2F1DAC0A 
  35      2E550991 
  35      82BAFC22 
  35      43E383
  36 00cb 9DFA10E3 		.ascii	"\235\372\020\343` \004\244\001\244ZGOO\037\216\362\213"
  36      602004A4 
  36      01A45A47 
  36      4F4F1F8E 
  36      F28B
  37 00dd F58B4AF4 		.ascii	"\365\213J\364\013\362\213J\212\365\035\203|\235}+\364"
  37      0BF28B4A 
  37      8AF51D83 
  37      7C9D7D2B 
  37      F4
  38 00ee 933392F3 		.ascii	"\2233\222\363\213R\343\313\314s\3652\030X\313\022sJ"
  38      8B52E3CB 
  38      CC73F532 
  38      1858CB12 
  38      734A
  39 0100 53F5D1B4 		.ascii	"S\365\321\264\244V\224\350;\373\006{\006\353g\346%\347"
  39      A45694E8 
  39      3BFB067B 
  39      06EB67E6 
  39      25E7
  40 0112 94A6A4EA 		.ascii	"\224\246\244\352\203\265$\347\272\225\346%\003u\011"
ARM GAS  /tmp/ccyCEcZE.s 			page 3


  40      83B524E7 
  40      BA95E625 
  40      037509
  41 0121 F8060729 		.ascii	"\370\006\007)$%\026\247\026\024e\352(\250\03200\025"
  41      242516A7 
  41      161465EA 
  41      28A81A30 
  41      3015
  42 0133 31B0E7A6 		.ascii	"1\260\347\246\346\346\027U2\000\000%\366_c"
  42      E6E61755 
  42      32000025 
  42      F65F63
  43              		.text
  44              		.section	.gnu.lto_port_unlock.f0ce06e69fa75b42,"",%progbits
  45 0000 789C6362 		.ascii	"x\234cb`b@\007\"@,\310\310\300\320\000\342030\002U0"
  45      60624007 
  45      22402CC8 
  45      C8C0D000 
  45      E2303330 
  46 0017 32310205 		.ascii	"21\002\005\030\030\031\352\231\030\353#AL\006F%\206"
  46      181819EA 
  46      9918EB23 
  46      414C0646 
  46      2586
  47 0029 850D0D93 		.ascii	"\205\015\015\223\036\264~z\3144\263\341@\313\202\206"
  47      1EB47E7A 
  47      CC34B3E1 
  47      40CB8286 
  48 0039 3FFFFF33 		.ascii	"?\377\37732f2\002M\324gdHfd\210\000r\030\025\300\024"
  48      32663202 
  48      4DD46764 
  48      48666488 
  48      00721815 
  49 004f 130BAA15 		.ascii	"\023\013\252\025\353\231\016<\370\377\377E\347\376}"
  49      EB990E3C 
  49      F8FFFF45 
  49      E7FE7D
  50 005e 40931912 		.ascii	"@\223\031\022\031\027\002M\003\002V\206\226\206\206"
  50      1917024D 
  50      03025686 
  50      968686
  51 006d 090A0C20 		.ascii	"\011\012\014 \335@\020\002&CA\016`>\313\320\264\003"
  51      DD401002 
  51      2643410E 
  51      603ECBD0 
  51      B403
  52 007f 48A73332 		.ascii	"H\24732\202\314\003\033r\216\241\351\343\333\031\217"
  52      82CC031B 
  52      728EA1E9 
  52      E3DB198F 
  53 008f 25E0BAC0 		.ascii	"%\340\272\300\214\206\003\247\237\266\263\302\214Ld"
  53      8C8603A7 
  53      9FB6B3C2 
  53      8C4C64
  54 009e 5CCCC80A 		.ascii	"\\\314\310\0124\016\342d Le\006\371\230\031\342m9\206"
  54      340EE264 
  54      204C6506 
ARM GAS  /tmp/ccyCEcZE.s 			page 4


  54      F99819E2 
  54      6D3986
  55 00b1 B2B90D33 		.ascii	"\262\271\0153\0342\031\231A\274t\260*\270T%D\012\352"
  55      1C321999 
  55      41BC74B0 
  55      2AB85425 
  55      440AEA
  56 00c4 F28B0C8D 		.ascii	"\362\213\014\215\017\316\353C\214\203\201\020\220\006"
  56      0FCEEB43 
  56      8C838110 
  56      9006
  57 00d2 906A1D3D 		.ascii	"\220j\035==}8\312/\326/*\321/\310/*)\326w\014\362u\366"
  57      3D7D38CA 
  57      2FD62F2A 
  57      D12FC82F 
  57      2A29D677 
  58 00ea ADD04FCE 		.ascii	"\255\320O\316H\316/J\215/3\317\325\313``-K\314)M\325"
  58      48CE2F4A 
  58      8D2F33CF 
  58      D5CB6060 
  58      2D4BCC29 
  59 0100 47D3925A 		.ascii	"G\323\222ZQ\242\357\354\033\354\031\254\237\231\227"
  59      51A2EFEC 
  59      1BEC19AC 
  59      9F9997
  60 010f 9C539A92 		.ascii	"\234S\232\222\252\017\326\222\234\353V\232\227\014\324"
  60      AA0FD692 
  60      9CEB569A 
  60      970CD4
  61 011e 25E01B1C 		.ascii	"%\340\033\034\244\220\224X\234ZP\224\251\243\240j\300"
  61      A4909458 
  61      9C5A5094 
  61      A9A3A06A 
  61      C0
  62 012f C054C4C0 		.ascii	"\300T\304\300\236\233\232\233_T\311\000\000g\003_\257"
  62      9E9B9A9B 
  62      5F54C900 
  62      0067035F 
  62      AF
  63              		.text
  64              		.section	.gnu.lto_port_lock_from_isr.f0ce06e69fa75b42,"",%progbits
  65 0000 789C6362 		.ascii	"x\234cb`b@\007\"@\\\006\304z \0163\003#P\005#\023##"
  65      60624007 
  65      22405C06 
  65      C47A200E 
  65      33032350 
  66 0019 90C3C850 		.ascii	"\220\303\310P\317\304X\037\311\010V\266\236\351\300"
  66      CFC4581F 
  66      C90856B6 
  66      9EE9C0
  67 0028 83FFFFD7 		.ascii	"\203\377\377\327\355\273\277n\015\343?&\220\030+CKC"
  67      EDBBBF6E 
  67      0DE33F26 
  67      90182B43 
  67      4B43
  68 003a C3040506 		.ascii	"\303\004\005\006\206d\260\212\0200\031\012\322\317|"
  68      8664B08A 
ARM GAS  /tmp/ccyCEcZE.s 			page 5


  68      1030190A 
  68      D2CF7C
  69 0049 9EA1F9C1 		.ascii	"\236\241\371\301\313~\366D\306\205\214\254@\301j\206"
  69      CB7EF644 
  69      C6858CAC 
  69      40C16A86 
  70 0059 5F0D1D0D 		.ascii	"_\015\035\015\002\231\214@\245\020\3232A\364E\206\306"
  70      02998C40 
  70      A510D332 
  70      41F44586 
  70      C6
  71 006a 07AFF461 		.ascii	"\007\257\364a\212  \004$\001r\244\216\236\236>\034\345"
  71      8A202004 
  71      240172A4 
  71      8E9E9E3E 
  71      1CE5
  72 007c 17EB1795 		.ascii	"\027\353\027\225\350\027\344\027\225\024\353;\006\371"
  72      E817E417 
  72      9514EB3B 
  72      06F9
  73 008a 3AFB56E8 		.ascii	":\373V\350'g$\347\027\245\306\227\231\347\352e0\000"
  73      276724E7 
  73      17A5C697 
  73      99E7EA65 
  73      3000
  74 009c 00577E29 		.ascii	"\000W~)\223"
  74      93
  75              		.text
  76              		.section	.gnu.lto_port_unlock_from_isr.f0ce06e69fa75b42,"",%progbits
  77 0000 789C6362 		.ascii	"x\234cb`b@\007\"@\\\006\304z \0163\003#P\005#\023##"
  77      60624007 
  77      22405C06 
  77      C47A200E 
  77      33032350 
  78 0019 90C3C850 		.ascii	"\220\303\310P\317\304X\037\311\010V\266\236\351\300"
  78      CFC4581F 
  78      C90856B6 
  78      9EE9C0
  79 0028 83FFFFD7 		.ascii	"\203\377\377\327}\271\277\376\016\343\177&\220\030+"
  79      7DB9BFFE 
  79      0EE37F26 
  79      90182B
  80 0037 434B43C3 		.ascii	"CKC\303\004\005\006\206d\260\212\0200\031\012\322\317"
  80      04050686 
  80      64B08A10 
  80      30190AD2 
  80      CF
  81 0048 7C9EA1F9 		.ascii	"|\236\241\371\301\237\363\354\211\214\013\031Y\201\202"
  81      C19FF3EC 
  81      898C0B19 
  81      598182
  82 0057 D50CBF1A 		.ascii	"\325\014\277\032:\032\0042\031\201J!\246e\202\350\213"
  82      3A1A0432 
  82      19814A21 
  82      A66582E8 
  82      8B
  83 0068 0C8D0FFE 		.ascii	"\014\215\017\376\352\303\024A@\010H\002\344H\035==}"
ARM GAS  /tmp/ccyCEcZE.s 			page 6


  83      EAC31441 
  83      40084802 
  83      E4481D3D 
  83      3D7D
  84 007a 38CA2FD6 		.ascii	"8\312/\326/*\321/\310/*)\326w\014\362u\366\255\320O"
  84      2F2AD12F 
  84      C82F2A29 
  84      D6770CF2 
  84      75F6ADD0 
  85 008f CE48CE2F 		.ascii	"\316H\316/J\215/3\317\325\313`\000\000\273\315*a"
  85      4A8D2F33 
  85      CFD5CB60 
  85      0000BBCD 
  85      2A61
  86              		.text
  87              		.section	.gnu.lto_SVC_Handler.f0ce06e69fa75b42,"",%progbits
  88 0000 789C8D52 		.ascii	"x\234\215RMh\023Q\020\236y\273MjJ\325kQ$Tz\253\331\236"
  88      4D681351 
  88      109E79BB 
  88      4D6A4AD5 
  88      6B512454 
  89 0018 EA49500A 		.ascii	"\352IP\012\202\207\2404\025\354I\3426nC\177\0226[)x"
  89      8287A034 
  89      15EC49E2 
  89      366E437F 
  89      12365B29 
  90 002d C8CB8F1A 		.ascii	"\310\313\217\032l\324\264\012ZAm\244X\250Joz\021\032"
  90      6CD4B40A 
  90      5A416DA4 
  90      58A84A6F 
  90      7A111A
  91 0040 0F8AA5B6 		.ascii	"\017\212\245\266\305\243TJ@\360\"\250AP\260\325u\336"
  91      C5A3544A 
  91      40F022A8 
  91      4150B0D5 
  91      75DE
  92 0052 BE6E1A73 		.ascii	"\276n\032s1\303\356~o~\276\2317\263\303\200A\275\354"
  92      31C3EE7E 
  92      6F7EBE99 
  92      37B3C380 
  92      41BDEC
  93 0065 A3F7B902 		.ascii	"\243\367\271\0020'\024\025\220\"\220!\031PA$\023B\222"
  93      30271415 
  93      90229021 
  93      19504124 
  93      134292
  94 0078 2998EC17 		.ascii	")\230\354\027g\360\266C\221\363\251\362\245Oo\232\246"
  94      67F0B643 
  94      91F3A9F2 
  94      A54F6F9A 
  94      A6
  95 0089 6F95B233 		.ascii	"o\225\2623|\313\266\021\243\302\251#\234\241\023\372"
  95      7CCBB611 
  95      A3C2A923 
  95      9CA113FA 
  96 0099 1D60EABF 		.ascii	"\035`\352\277e$\261\264x\371z\333\325\231t\201\377!"
  96      6524B1B4 
ARM GAS  /tmp/ccyCEcZE.s 			page 7


  96      78F97ADB 
  96      D5997481 
  96      FF21
  97 00ab 1ED11868 		.ascii	"\036\321\030h\330\030s\362\365\3556\276\303T\030t7\304"
  97      D81873F2 
  97      F5ED36BE 
  97      C3541874 
  97      37C4
  98 00bd BC5BFAFD 		.ascii	"\274[\372\375>\357+\244r\334\266\223QT\033\273h\371"
  98      3EEF2BA4 
  98      72DCB693 
  98      51541BBB 
  98      68F9
  99 00cf 67E5D9A1 		.ascii	"g\345\331\241i^\312\026\335\016U\006C\015\026\\\\_*"
  99      695ECA16 
  99      DD0E5506 
  99      430D165C 
  99      5C5F2A
 100 00e2 229FE2A9 		.ascii	"\"\237\342\251o\266\275\247\361\222\257\036,\327\262"
 100      6FB6BDA7 
 100      F192AF1E 
 100      2CD7B2
 101 00f1 1898FFAB 		.ascii	"\030\230\377\253\267\300Je\333\316]Y\270\206\273\020"
 101      B7C04A65 
 101      DBCE5D59 
 101      B886BB10 
 102 0101 9C718671 		.ascii	"\234q\206q\026\333A\331F\225\360!a\023\341\034\241\207"
 102      16DB41D9 
 102      4695F021 
 102      6113E11C 
 102      A187
 103 0113 82542F29 		.ascii	"\202T/)\363\2444\023>\"$i\202,\347\005\277$9\327%\351"
 103      F3A43413 
 103      3E222469 
 103      822CE705 
 103      BF2439D7 
 104 0129 73BEA7C5 		.ascii	"s\276\247\305F(\253\220\252l\276X\307j\340\234\023\350"
 104      4628AB90 
 104      AA6CBE58 
 104      C76AE09C 
 104      13E8
 105 013b A8BC34F1 		.ascii	"\250\2744\361v\262\305\315\025\306'\024\245;\273#\266"
 105      76B2C5CD 
 105      15C62714 
 105      A53BBB23 
 105      B6
 106 014c 0752B44C 		.ascii	"\007R\264L\"\205\334\275\003p\003\357\361;G\243\024"
 106      2285DCBD 
 106      037003EF 
 106      F13B47A3 
 106      14
 107 015d 44624880 		.ascii	"DbH\200\025H/mm|\355\016\343S\262\030\350q\035T\237"
 107      15482F6D 
 107      6D7CED0E 
 107      E353B218 
 107      E8711D54 
 108 0172 76515986 		.ascii	"vQY\206T3\300\000\312\320\373\035\202\331La\222\371"
ARM GAS  /tmp/ccyCEcZE.s 			page 8


 108      5433C000 
 108      CAD0FB1D 
 108      82D94C61 
 108      92F9
 109 0184 A19CEF97 		.ascii	"\241\234\357\227u\015Dr8\326\317\231s\256\215\031\342"
 109      750D4472 
 109      38D6CF99 
 109      73AE8D19 
 109      E2
 110 0195 3A2B9099 		.ascii	":+\220\231\310|\317{]\253B\016g\252~\231\365K\306\316"
 110      C87CCF7B 
 110      5DAB420E 
 110      67AA7E99 
 110      F54BC6CE 
 111 01a9 EF779DAA 		.ascii	"\357w\235\252!\352Vky\015\361\033W!]\331\374Q\235B\265"
 111      21EA566B 
 111      790DF11B 
 111      57215DD9 
 111      FC519D42 
 112 01be FFE5B597 		.ascii	"\377\345\265\227\212\234\351N\377L\266\217p\263\256"
 112      8A9CE94E 
 112      FF4CB68F 
 112      70B3AE
 113 01cd FFE276FF 		.ascii	"\377\342v\377\036\331\277\027j|\263\265\263\001X\203"
 113      1ED9BF17 
 113      6A7CB3B5 
 113      B3015883 
 114 01dd 4C79FE63 		.ascii	"Ly\376c\213L\011p\021~\361\034\337\033E\257..G\022\025"
 114      8B4C0970 
 114      117EF11C 
 114      DF1B45AF 
 114      2E2E4712 
 115 01f2 BDBE8354 		.ascii	"\275\276\203T\371\361A7HJ\237hX$\355\014\004\264\352"
 115      F9F14137 
 115      484A9F68 
 115      5824ED0C 
 115      04B4EA
 116 0205 134B68A6 		.ascii	"\023Kh\246\245\305c\246\225\320\216\365\006{\202\343"
 116      A5C563A6 
 116      95D08EF5 
 116      067B82E3 
 117 0215 9A3EA8C7 		.ascii	"\232>\250\307\314\310\331\013\207G\002:xtk<\036\350"
 117      CCC8D90B 
 117      8747023A 
 117      78746B3C 
 117      1EE8
 118 0227 52056875 		.ascii	"R\005hu\304\310\270\245\365\004C'BZtT\037\036\033\210"
 118      C4C8B8A5 
 118      F5044327 
 118      425A7454 
 118      1F1E1B88 
 119 023b 680E511F 		.ascii	"h\016Q\0379>6\252\007\006\301cF\022c\303\326n+\026?"
 119      393E36AA 
 119      0706C163 
 119      461263C3 
 119      D66E2B16 
 120 0250 79FE9419 		.ascii	"y\376\224\031\323CVX\037j\015\366\206\374\035]\235\376"
ARM GAS  /tmp/ccyCEcZE.s 			page 9


 120      D3435658 
 120      1F6A0DF6 
 120      86FC1D5D 
 120      9DFE
 121 0262 7822EE03 		.ascii	"x\"\356\003\345\210\011\255\301P\257\320:\311\354\003"
 121      E58809AD 
 121      C150AFD0 
 121      3AC9EC03 
 122 0272 66829288 		.ascii	"f\202\222\210\303_*\002\006\223"
 122      C35F2A02 
 122      0693
 123              		.text
 124              		.section	.gnu.lto__port_irq_epilogue.f0ce06e69fa75b42,"",%progbits
 125 0000 789CA554 		.ascii	"x\234\245T]hSI\024>\347\316\2757\177M[}\221\276H\021"
 125      5D685349 
 125      143EE7CE 
 125      BD377F4D 
 125      5B7D91BE 
 126 0016 8405BBB9 		.ascii	"\204\005\273\271\212\240O\242\"\010>\004\265\261\320"
 126      8AA04FA2 
 126      22083E04 
 126      B5B1D0
 127 0025 5D1F247B 		.ascii	"]\037${\355\246\321\326\204$\225\212\017N\232@\245>"
 127      EDA6D1D6 
 127      8424958A 
 127      0F4E9A40 
 127      A53E
 128 0037 285A45DD 		.ascii	"(ZE\335u\261\354\026Ke\267\245,Rp\227\315\012\245j\251"
 128      75B1EC16 
 128      4B65B7A5 
 128      2C527097 
 128      CD0AA56A 
 129 004c CB3E88CB 		.ascii	"\313>\210\313*nX\024\037\024\265\017\376`k\257g\356"
 129      2A6E5814 
 129      1F14B50F 
 129      FE606BAF 
 129      67EE
 130 005e E4DEA445 		.ascii	"\344\336\244E1\350$\231\311\371\371\3169\363\315\231"
 130      31E82499 
 130      C9F9F9CE 
 130      39F3CD99 
 131 006e 514081C5 		.ascii	"Q@\201\305c'\375~\327\001.\011\301\017H\036\250(\014"
 131      6327FD7E 
 131      D7012E09 
 131      C10F481E 
 131      A8280C
 132 0081 802B5E9A 		.ascii	"\200+^\232T\206*iTE\023\032]h4\364\220F\267g\017\372"
 132      54862A69 
 132      5445131A 
 132      5D6834F4 
 132      9046B767 
 133 0097 68F6DAB3 		.ascii	"h\366\332\263\017\221B \034Q\230\252\351\036\257\017"
 133      0F914220 
 133      1C5198AA 
 133      E91EAF0F 
 134 00a7 8F7C2534 		.ascii	"\217|%4\020X\001\003\234\237,\016Z\377\340\271\376B"
 134      10580103 
ARM GAS  /tmp/ccyCEcZE.s 			page 10


 134      9C9F2C0E 
 134      5AFFE0B9 
 134      FE42
 135 00b9 FE229FB3 		.ascii	"\376\"\237\263,\304\2700\232\010\255\364\017\033\355"
 135      2CC4B830 
 135      9A08ADF4 
 135      0F1BED
 136 00c8 45511716 		.ascii	"EQ\027\026'\201|l\210\373l\020\213#\253\022s\373\301"
 136      27817C6C 
 136      88FB6C10 
 136      8B23AB12 
 136      73FBC1
 137 00db 8EEB3C5F 		.ascii	"\216\353<_\260\254\215Uc\012\027n\376\334\320w\261\347"
 137      B0AC8D55 
 137      630A176E 
 137      FEDCD077 
 137      B1E7
 138 00ed 049FA7FA 		.ascii	"\004\237\247\372\252\207\335\351;\276\000\246\200\201"
 138      AA87DDE9 
 138      3BBE00A6 
 138      8081
 139 00fb D521FFEB 		.ascii	"\325!\377\353\033\\\326W\344\016R-'\364J\030\276\027"
 139      1B5CD657 
 139      E40E522D 
 139      27F44A18 
 139      BE17
 140 010d F676F2FB 		.ascii	"\366v\362\373\006^N\250)\260\256\252\204\347\013/z\247"
 140      065E4EA8 
 140      29B0AEAA 
 140      84E70B2F 
 140      7AA7
 141 011f 0690D8C9 		.ascii	"\006\220\330\311>\267\254\2728\352\325\355\260\370j"
 141      3EB7ACBA 
 141      38EAD5ED 
 141      B0F86A
 142 012e E6CA97E7 		.ascii	"\346\312\227\347x!?\340\234\234\256\300\376*S\376q\367"
 142      78213FE0 
 142      9C9CAEC0 
 142      FE2A53FE 
 142      71F7
 143 0140 C6A7A49C 		.ascii	"\306\247\244\234\230\037\255\334#%L},\341\210R(Z\326"
 143      981FADDC 
 143      23254C7D 
 143      2CE18852 
 143      285AD6
 144 0153 EBDEAB67 		.ascii	"\353\336\253g0\210@\355\245\320\304\230\230T1i\020\305"
 144      308840ED 
 144      A5D0C498 
 144      98543169 
 144      10C5
 145 0165 215C017A 		.ascii	"!\\\001zi\365\320:H\253\227\214\252\217\204\313$\370"
 145      69F5D03A 
 145      48AB978C 
 145      AA8F84CB 
 145      24F8
 146 0177 49D00324 		.ascii	"I\320\003$\374BB\015\255\303\264\322\320 \317\371\211"
 146      FC42420D 
ARM GAS  /tmp/ccyCEcZE.s 			page 11


 146      ADC3B4D2 
 146      D020CFF9 
 146      89
 147 0188 46BB7A1A 		.ascii	"F\273z\032\273\354\271E\\\027\366\027\344\212s?\006"
 147      BBECB945 
 147      5C17F617 
 147      E48A733F 
 147      06
 148 0199 A2388A74 		.ascii	"\2428\212tK\3400\274\341Gy}\034=&\312\363\213\323q\302"
 148      4BE030BC 
 148      E147797D 
 148      1C3D26CA 
 148      F38BD371 
 149 01ae 34F48C8F 		.ascii	"4\364\214\217\323\015\220n1D\261\005\340\377\346x-\010"
 149      D30D906E 
 149      3144B105 
 149      E0FFE678 
 149      2D08
 150 01c0 EBB5AF1D 		.ascii	"\353\265\257\035\213\262\012\206y\236\254\276\357\340"
 150      8BB20A86 
 150      799EACBE 
 150      EFE0
 151 01ce 3C2D7EC7 		.ascii	"<-~\307\331\036\337\270=1\015\271\253\271a7 #\244pc"
 151      D91EDFB8 
 151      3D310DB9 
 151      ABB96137 
 151      2023A470 
 152 01e3 BC9E8CD7 		.ascii	"\274\236\214\327!\377$\033tm\255\262\237\313\243E\210"
 152      21FF241B 
 152      746DADB2 
 152      9FCBA345 
 152      88
 153 01f4 EC166467 		.ascii	"\354\026dgf\177\273\213\245\335I\012J\233\345\205c\223"
 153      667FBB8B 
 153      A5DD490A 
 153      4A9BE585 
 153      6393
 154 0206 63018700 		.ascii	"c\001\207\000\327c\310\026\235\315\022\035\362M\241"
 154      D763C816 
 154      9DCD121D 
 154      F24DA1
 155 0215 AAB21452 		.ascii	"\252\262\024R\360!_\231\345p\034/\360\263\233\342\030"
 155      F0215F99 
 155      E5701C2F 
 155      F0B39BE2 
 155      18
 156 0226 10624CBC 		.ascii	"\020bL\274\021v\321=7\346\356?[\027\305_\355\312\374"
 156      1176D13D 
 156      37E6EE3F 
 156      5B17C55F 
 156      EDCAFC
 157 0239 8E812AA2 		.ascii	"\216\201*\242\363dS\220%\262\366\242t\375a\245@\326"
 157      F3645390 
 157      25B2F6A2 
 157      74FD61A5 
 157      40D6
 158 024b 909B44DE 		.ascii	"\220\233D\336\033\357\337\035\305+6R%\203\255}\234\333"
ARM GAS  /tmp/ccyCEcZE.s 			page 12


 158      1BEFDF1D 
 158      C52B3652 
 158      2583AD7D 
 158      9CDB
 159 025d E7E8B498 		.ascii	"\347\350\264\230\010B\304\034\313=\356op\264:\031\354"
 159      0842C41C 
 159      CB3DEE6F 
 159      70B43A19 
 159      EC
 160 026e 86A1F6B0 		.ascii	"\206\241\366\260\352\240t\026\227\376T\244\203\240\233"
 160      EAA07416 
 160      97FE54A4 
 160      83A09B
 161 027d C6DA38D6 		.ascii	"\306\3328\326H\302\203\004\021\376Z\211p\311\270\320"
 161      48C28304 
 161      11FE5A89 
 161      70C9B8D0 
 162 028d D4929F57 		.ascii	"\324\222\237W\006x\232\0339\275\334\311\340\211\211"
 162      06789A1B 
 162      39BDDCC9 
 162      E08989
 163 029c C6760B0E 		.ascii	"\306v\013\016\304\304\353x\013zff_\272\344\272\264N"
 163      C4C4EB78 
 163      0B7A6666 
 163      5FBAE4BA 
 163      B44E
 164 02ae DDFE9FC9 		.ascii	"\335\376\237\311\376\022<\212\000\246<\033\244\317\251"
 164      FE123C8A 
 164      00A63C1B 
 164      A4CFA9
 165 02bd 45240E94 		.ascii	"E$\016\224H\254\223$\012.]\333O\225\004\003\210>\034"
 165      48AC9324 
 165      0A2E5DDB 
 165      4F950403 
 165      883E1C
 166 02d0 9958EAD4 		.ascii	"\231X\352\324\344u\033\261\336D\265\324\210KJ\235\261"
 166      E4751BB1 
 166      DE44B5D4 
 166      884B4A9D 
 166      B1
 167 02e1 C6F56A95 		.ascii	"\306\365j\225\017Oeg\320\276\031\355\345M\356\321\351"
 167      0F4F6567 
 167      D0BE19ED 
 167      E54DEED1 
 167      E9
 168 02f2 2F1650B4 		.ascii	"/\026P\264\376\203\024\311&\220\031\371!\273\367\265"
 168      FE8314C9 
 168      269019F9 
 168      21BBF7B5 
 169 0302 8A88BA13 		.ascii	"\212\210\272\023q\366s\"\352n\304]\202_\326\"\356\225"
 169      71F67322 
 169      EA6EC45D 
 169      825FD622 
 169      EE95
 170 0314 7DFDA61F 		.ascii	"}\375\246\037\276\367\372y\312\327O\326\341\253\350"
 170      BEF7FA79 
 170      CAD74FD6 
ARM GAS  /tmp/ccyCEcZE.s 			page 13


 170      E1ABE8
 171 0323 303AD5BF 		.ascii	"0:\325\277![\234\032DYQ96YD\366\246P\310p\277\211\264"
 171      215B9C1A 
 171      44595139 
 171      365944F6 
 171      A650C870 
 172 033a 91CA18C9 		.ascii	"\221\312\030\311D*\223667\207\267\204\273\015\263\335"
 172      442A9336 
 172      363787B7 
 172      84BB0DB3 
 172      DD
 173 034b 4CA4DAF6 		.ascii	"L\244\332\366\034\\\337\0312A73\335\311\320\032U,\306"
 173      1C5CDF19 
 173      32413733 
 173      DDC9D01A 
 173      552CC6
 174 035e 22605B77 		.ascii	"\"`[w\306\330\022\216l\213\030\361\003fG\327\3366\303"
 174      C6D8128E 
 174      6C8B18F1 
 174      036647D7 
 174      DE36C3
 175 0371 069A9D5B 		.ascii	"\006\232\235[\273\016\230\241v\320Sm\351\256\216Lm&"
 175      BB0E98A1 
 175      76D0536D 
 175      E9AE8E4C 
 175      6D26
 176 0383 91DCFEED 		.ascii	"\221\334\376\355\216T\302\214d\242\346\376`\2709\322"
 176      8E54C28C 
 176      64A2E6FE 
 176      60B839D2 
 177 0393 B8727553 		.ascii	"\270ruSc2\235\364\003\333\220\202`8\322,\244&R\373A"
 177      63329DF4 
 177      03DB9082 
 177      6038D22C 
 177      A42652FB 
 178 03a8 49014B27 		.ascii	"I\001K'\341\035\004+\263\203"
 178      E11D042B 
 178      B383
 179              		.text
 180              		.section	.gnu.lto_.symbol_nodes.f0ce06e69fa75b42,"",%progbits
 181 0000 789C4DC7 		.ascii	"x\234M\307\261\015\3020\024E\321\367\376\217![d6&y\216"
 181      B10DC230 
 181      1445D1F7 
 181      FE8F215B 
 181      64362679 
 182 0015 9150040D 		.ascii	"\221P\004\015\015\2530\000\003PR3@\032 i\001E\266\024"
 182      0DAB3000 
 182      03505233 
 182      401A2069 
 182      0145B614 
 183 0029 DFE6EA18 		.ascii	"\337\346\352\030\014W\224\354\007\001\347; ]\206\235"
 183      0C5794EC 
 183      0701E73B 
 183      205D869D 
 184 0039 458A157B 		.ascii	"E\212\025{\312*&\312+\276\250\246\3601\320\336TX\311"
 184      CA2A26CA 
 184      2BBEA8A6 
ARM GAS  /tmp/ccyCEcZE.s 			page 14


 184      F031D0DE 
 184      5458C9
 185 004c 89DA64C6 		.ascii	"\211\332d\306\236\234\251\355\252\017\325\026E\272\001"
 185      9E9CA9ED 
 185      AA0FD516 
 185      45BA01
 186 005b E9F9A53B 		.ascii	"\351\371\245;\363\033\307\3550v\036,;\264\330\037\027"
 186      F31BC7ED 
 186      30761E2C 
 186      3BB4D81F 
 186      17
 187 006c 3BD269EC 		.ascii	";\322i\354\360\007\212\251:\011"
 187      F0078AA9 
 187      3A09
 188              		.text
 189              		.section	.gnu.lto_.refs.f0ce06e69fa75b42,"",%progbits
 190 0000 789C6362 		.ascii	"x\234cb`b`g\200\000&V&6&v\006\000\001&\000$"
 190      60626067 
 190      80002656 
 190      26362676 
 190      06000126 
 191              		.text
 192              		.section	.gnu.lto_.decls.f0ce06e69fa75b42,"",%progbits
 193 0000 789C9D58 		.ascii	"x\234\235Xop\023\307\025\337=I\266U;.q\010c>\264\210"
 193      6F7013C7 
 193      15DF3D49 
 193      B6553B2E 
 193      7108633E 
 194 0016 69D3C9A4 		.ascii	"i\323\311\244)\"\2443\245_\002F\206\3323u\242\221\002"
 194      2922A433 
 194      A55F0246 
 194      86DA3375 
 194      A29102
 195 0029 D30F1D8E 		.ascii	"\323\017\035\216\253,\260&\262eN\347`\372%\353\177\205"
 195      AB2CB026 
 195      B2654EE7 
 195      60FA25EB 
 195      7F85
 196 003b A469A210 		.ascii	"\244i\242\020C\015\244`Cp\342\306\014\004\010\341\277"
 196      430DA460 
 196      4370E2C6 
 196      0C0408E1 
 196      BF
 197 004c 85334E49 		.ascii	"\2053NIBKh\213I\343\014h\246M2m\207\2224\356L\2320u"
 197      424B688B 
 197      49E30C68 
 197      A64D326D 
 197      879234EE 
 198 0064 DFEEFDD1 		.ascii	"\337\356\375\321\335\351\026\337\345\306\373\264\322"
 198      DDE916DF 
 198      E5C6FBB4 
 198      D2
 199 0071 BDF77BBF 		.ascii	"\275\367{\277\367\366\355\273=\013H@s\005\204f\340\372"
 199      F7F6EDBB 
 199      3D0B4840 
 199      73058466 
 199      E0FA
ARM GAS  /tmp/ccyCEcZE.s 			page 15


 200 0083 E97C84E6 		.ascii	"\351|\204\346\373\020*G\010=\204\212W\020\306\020\214"
 200      FB102A47 
 200      083D848A 
 200      5710C610 
 200      8C
 201 0094 61182330 		.ascii	"a\030#0Fa\034\202q\004\306k0^\207q\022\225^\324&\000"
 201      46611C82 
 201      7104C66B 
 201      305E8771 
 201      12955ED4 
 202 00aa 630C4635 		.ascii	"c\014F5\214*\030\0230\336\326\356\013\232\316E\007\333"
 202      8C2A1813 
 202      30DED6EE 
 202      0B9ACE45 
 202      07DB
 203 00bc 6117B6C3 		.ascii	"a\027\266\303\034\333\021\355\376\025\030\373L\372#"
 203      1CDB11ED 
 203      FE1518FB 
 203      4CFA23
 204 00cb 9A3FFB35 		.ascii	"\232?\3735\312\321\037\325|\330/\032;\315I\271\211\333"
 204      CAD11FD5 
 204      7CD82F1A 
 204      3BCD49B9 
 204      89DB
 205 00dd A4C6F586 		.ascii	"\244\306\365\206\306\323\214\345\327ln\302\230\326p"
 205      C6D38CE5 
 205      D76C6EC2 
 205      98D670
 206 00ec 318C2F6C 		.ascii	"1\214/l\2704\23750\2764\341R\037\247M\370:n\000\000"
 206      B8349F35 
 206      30BE34E1 
 206      521FA74D 
 206      F83A6E00 
 207 0101 6E69FEA6 		.ascii	"ni\376\246`\\\205\261L\363\275\014\356\235\202O\037"
 207      605C85B1 
 207      4CF3BD0C 
 207      EE9D824F 
 207      1F
 208 0112 F50DF37F 		.ascii	"\365\015\363\177\302\347\337aTh>FL\\\350\272\351k\250"
 208      C2E7DF61 
 208      54683E46 
 208      4C5CE8BA 
 208      E96BA8
 209 0125 E76139D8 		.ascii	"\347a9\330\324a+\267\005h\017\311\277[\350\373\350\257"
 209      D4612BB7 
 209      05680FC9 
 209      BF5BE8FB 
 209      E8AF
 210 0137 C24E92EF 		.ascii	"\302N\222\357%P.\004\207\346\241\355\004\256\301_\020"
 210      25502E04 
 210      87E6A1ED 
 210      04AEC15F 
 210      10
 211 0148 8215093F 		.ascii	"\202\025\011?t7\372\011\226pu\020\205\330\244*\310b"
 211      7437FA09 
 211      96707510 
 211      85D8A42A 
ARM GAS  /tmp/ccyCEcZE.s 			page 16


 211      C862
 212 015a 4748C2FB 		.ascii	"GH\302\373\360<m\266\332\247g8\214\321}h\004\354s\204"
 212      F03C6DB6 
 212      DAA76738 
 212      8CD17D68 
 212      04EC7384 
 213 016e ECFBA643 		.ascii	"\354\373\246C\242\021\372\016:@\035\220\227\211\217"
 213      A211FA0E 
 213      3A401D90 
 213      97898F
 214 017d C1538021 		.ascii	"\301S\200!\274\300\254\"\341\375X(\245\232\317]\257"
 214      BCC0AC22 
 214      E1FD5828 
 214      A59ACF5D 
 214      AF
 215 018e CA751566 		.ascii	"\312u\025ff\366\016\316Q\335\01340\011\277\210\357\273"
 215      66F60ECE 
 215      51DD0B34 
 215      3009BF88 
 215      EFBB
 216 01a0 2DFCB01D 		.ascii	"-\374\260\035\376%G\370s\245\360?v\003?b\207\377\255"
 216      FE2547F8 
 216      73A5F03F 
 216      76033F62 
 216      87FFAD
 217 01b3 23FC7429 		.ascii	"#\374t)\274\350\006~\324\016\177\260\024~0_\370\313"
 217      BCE8067E 
 217      D40E7FB0 
 217      147E305F 
 217      F8CB
 218 01c5 96B1B2E2 		.ascii	"\226\261\262\342:\"\335\305\020v\343\343\220\335\307"
 218      3A22DDC5 
 218      1076E3E3 
 218      90DDC7
 219 01d4 61271FF9 		.ascii	"a'\037\371\351\337i!\204t\370\203\256\340\217\330\341"
 219      E9DF6921 
 219      8474F883 
 219      AEE08FD8 
 219      E1
 220 01e5 8F96C217 		.ascii	"\217\226\302\027r\205\211/\306\361N2NCx\302\010 _\342"
 220      7285892F 
 220      C6F14E32 
 220      4E4378C2 
 220      08205FE2 
 221 01f9 418538EE 		.ascii	"A\2058\356\004\221\237\274\3724\301\214\343\002\035"
 221      04919FBC 
 221      FA34C18C 
 221      E3021D
 222 0208 60920370 		.ascii	"`\222\003p\302\221\303\261g?\25058X6C\005\332BH7)\364"
 222      C291C3B1 
 222      673FA835 
 222      38583643 
 222      05DA4248 
 223 021f 912EBC11 		.ascii	"\221.\274\021\351\333\242B\337\026tw\335\203^Tk_\220"
 223      E9DBA242 
 223      DF167477 
 223      DD835E54 
ARM GAS  /tmp/ccyCEcZE.s 			page 17


 223      6B5F90
 224 0232 F0695C01 		.ascii	"\360i\\\001\316\237\021l\273\256\350\237*\320\213\332"
 224      CE9F116C 
 224      BBAEE89F 
 224      2AD08BDA 
 225 0242 AB737D86 		.ascii	"\253s}\206\021w\323\235r\330t\375\202s\200\347\254\001"
 225      1177D39D 
 225      72D874FD 
 225      827380E7 
 225      AC01
 226 0254 06D156CA 		.ascii	"\006\321V\312\037\202i\270P\355\354\201\361\317\025"
 226      1F8269B8 
 226      50EDEC81 
 226      F1CF15
 227 0263 CE3E3F71 		.ascii	"\316>?q\036wC\314\022\036\303A\360p\321\346\301=\324"
 227      1E7743CC 
 227      121EC341 
 227      F070D1E6 
 227      C13DD4
 228 0276 D48E333F 		.ascii	"\324\2163?$\244B\302\343\014\250\307g\005\222py\320"
 228      24A442C2 
 228      E30CA8C7 
 228      67059270 
 228      79D0
 229 0288 4A1ABEEB 		.ascii	"J\032\276\353\012\024\215\335\326&\364\201\366u\344"
 229      0A148DDD 
 229      D626F481 
 229      F675E4
 230 0297 55FD4E94 		.ascii	"U\375N\224ck\270|\240Z\243]8@jkg_\3007\031\343g|\334"
 230      636BB87C 
 230      A05AA35D 
 230      38406A6B 
 230      675FC037 
 231 02b0 05A40AFA 		.ascii	"\005\244\012\372\002\252s}6S\\\3019:\274\240YM\340;"
 231      02AA737D 
 231      36535CC1 
 231      393ABCA0 
 231      594DE03B 
 232 02c4 8B39245A 		.ascii	"\2139$Z\016\231\006o\315\3372\371\251\012\026':1-\302"
 232      0E99066F 
 232      CDDF32F9 
 232      A90A1627 
 232      3A312DC2 
 233 02d8 D040B5EA 		.ascii	"\320@\265\352]\303Y\252\353\225k8o{\366\374\016\307"
 233      5DC359AA 
 233      EB956B38 
 233      6F7BF6FC 
 233      0EC7
 234 02ea 7399E659 		.ascii	"s\231\346Y{\204\\\335\365a\355\177\217\020\362$\371"
 234      7B845CDD 
 234      F561ED7F 
 234      8F10F224 
 234      F9
 235 02fb DFCC135D 		.ascii	"\337\314\023]\275\013\335?C~\257\225\263OM\217Zo\305"
 235      BD0BDD3F 
 235      437EAF95 
 235      B34F4D8F 
ARM GAS  /tmp/ccyCEcZE.s 			page 18


 235      5A6FC5
 236 030e DA46B4BC 		.ascii	"\332F\264\274\337\260\324\014\323\024\320e}Y\276\215"
 236      DFB0D40C 
 236      D314D065 
 236      7D59BE8D 
 237 031e F613B28D 		.ascii	"\366\023\262\215\\~\263*g\224\353ufq\021\232\216\223"
 237      5C7EB32A 
 237      6794EB75 
 237      6671119A 
 237      8E93
 238 0330 5F550B19 		.ascii	"_U\013\031\235\352\263\256h\255\321\251.\332;\325%\353"
 238      9DEAB3AE 
 238      68ADD1A9 
 238      2EDA3BD5 
 238      25EB
 239 0342 26AA444F 		.ascii	"&\252DO\025+_\3550\274\330\256\340JG\253\032\364\034"
 239      152B5FED 
 239      30BCD8AE 
 239      E04A47AB 
 239      1AF41C
 240 0355 5B2ED3CE 		.ascii	"[.\323\316!\202n\034b!\177\310\002\270\212k\264\300"
 240      21826E1C 
 240      62217FC8 
 240      02B88A6B 
 240      B4C0
 241 0367 D5B22C4C 		.ascii	"\325\262,L\334<\217\331f\242w\220\303\236\327\256\205"
 241      DC3C8FD9 
 241      66A27790 
 241      C39ED7AE 
 241      85
 242 0378 6810DCE5 		.ascii	"h\020\334\345g\376\320?\237\014\216c\033g\316rh\033"
 242      67FED03F 
 242      9F0C8E63 
 242      1B67CE72 
 242      681B
 243 038a F64FD73F 		.ascii	"\366O\327?\372\024w\261\275?\005\226\002\332\345\267"
 243      FA1477B1 
 243      BD3F0596 
 243      02DAE5B7 
 244 039a 6FD96595 		.ascii	"o\331e\225fg\354\273IA@\373\375:{'?F-\351\205U\035\264"
 244      6667ECBB 
 244      494140FB 
 244      FD3A7B27 
 244      3F462DE9 
 245 03b2 F22EF4FD 		.ascii	"\362.\364\375\373-v\"\361\351\024\206=\003\206,\211"
 245      FB2D7622 
 245      F1E91486 
 245      3D03862C 
 245      89
 246 03c3 D876A92A 		.ascii	"\330v\251*'\351`#n\300*\270\354\362\375f\260Q\317`V"
 246      27E96023 
 246      6EC02AB8 
 246      ECF2FD66 
 246      B051CF60 
 247 03d8 663BCC60 		.ascii	"f;\314`\207\334\200\315\3413\0330\203\035\365\014fe"
 247      87DC80CD 
 247      E1331B30 
ARM GAS  /tmp/ccyCEcZE.s 			page 19


 247      831DF50C 
 247      6665
 248 03ea B6CB0C76 		.ascii	"\266\313\014v\312\015X-\237\331\013f\260\263\236\301"
 248      CA0D582D 
 248      9FD90B66 
 248      B0B39EC1 
 249 03fa 42B6FAE6 		.ascii	"B\266\372\346\355\270\311\342\216\343\364\304Z\335\304"
 249      EDB8C9E2 
 249      8EE3F4C4 
 249      5ADDC4
 250 0409 A799DCF0 		.ascii	"\247\231\334\360\334\023\377\305\351\211z\2330z\342"
 250      DC13FFC5 
 250      E9897A9B 
 250      307AE2
 251 0418 8D49FCEB 		.ascii	"\215I\374\353\036r\201|\002\217\241\301\255\202\255"
 251      1E72817C 
 251      028FA1C1 
 251      AD82AD
 252 0427 298E61BE 		.ascii	")\216a\276\213O\034\036\362\343\376\222.(\341\313\305"
 252      8B4F1C1E 
 252      F2E3FE92 
 252      2E28E1CB 
 252      C5
 253 0438 E6C49A59 		.ascii	"\346\304\232Y79\3622\011\352\015N\30279-PC\377\324\361"
 253      3739F232 
 253      09EA0D4E 
 253      C237392D 
 253      5043FFD4 
 254 044d 9CFAD9D4 		.ascii	"\234\372\331\324\031h\033\320>f\306\310B\277\332\243"
 254      19681BD0 
 254      3E66C6C8 
 254      42BFDAA3 
 255 045d E108705B 		.ascii	"\341\010p[\377Z\027>i\356\302\223\314b\372\253t\341"
 255      FF5A173E 
 255      69EEC293 
 255      CC62FAAB 
 255      74E1
 256 046f 697B17FE 		.ascii	"i{\027\376\217\225i\010\355\205^\225\277<EB!\3473\354"
 256      8F956908 
 256      ED855E95 
 256      BF3C4542 
 256      21E733EC 
 257 0483 6C1DB760 		.ascii	"l\035\267`<\366\2376\236\373\271\302\356\217?\377y\017"
 257      3CF69F36 
 257      9EFBB9C2 
 257      EE8F3FFF 
 257      790F
 258 0495 EB7DB7A0 		.ascii	"\353}\267\240<\005\264-`\355}\263\003Q\"3\266\276\235"
 258      3C05B42D 
 258      60ED7DB3 
 258      03512233 
 258      B6BE9D
 259 04a8 7FEE5A15 		.ascii	"\177\356Z\025\361\253\277\317\322\265\373{\362\333\257"
 259      F1ABBFCF 
 259      D2B5FB7B 
 259      F2DBAF
 260 04b7 A95D9B55 		.ascii	"\251]\233Ud\017D\220\347\236\261$\234\307\367\270:\004"
ARM GAS  /tmp/ccyCEcZE.s 			page 20


 260      640F4490 
 260      E79EB124 
 260      9CC7F7B8 
 260      3A04
 261 04c9 0968370B 		.ascii	"\011h7\013e\346\2535\345\336\236\374\216k\260\205\015"
 261      65E6AB35 
 261      E5DE9EFC 
 261      8E6BB085 
 261      0D
 262 04da 4EFC739F 		.ascii	"N\374s\237\027NC\2369\205,\234\006\256\261\266\322'"
 262      174E439E 
 262      39852C9C 
 262      06AEB1B6 
 262      D227
 263 04ec D0721B76 		.ascii	"\320r\033v\003\306\353\353\000\266\313\014\366\212g"
 263      03C6EBEB 
 263      00B6CB0C 
 263      F68A67
 264 04fb 302BB317 		.ascii	"0+\263\027\314`\257\272\001\343\365u\000\333c\006{\315"
 264      CC60AFBA 
 264      01E3F575 
 264      00DB6306 
 264      7BCD
 265 050d 33989959 		.ascii	"3\230\231YW\376\360\332\303\353\212\315Q[Pz\"\036(."
 265      57FEF0DA 
 265      C3EB8ACD 
 265      515B507A 
 265      221E282E 
 266 0521 68E99198 		.ascii	"h\351\221\230\276\023\034\374.\234=LGh\236\201\204\267"
 266      BE131CFC 
 266      2E9C3D4C 
 266      47689E81 
 266      84B7
 267 0533 09B402B0 		.ascii	"\011\264\002\260\265\002\214\003\262v>\026\320\311\200"
 267      B5028C03 
 267      B2763E16 
 267      D0C980
 268 0542 E35B850B 		.ascii	"\343[\205\0132S;\366,e\007\241\355,'\347\003\366#\012"
 268      32533BF6 
 268      2C6507A1 
 268      ED2C27E7 
 268      03F6230A 
 269 0556 B6BD55CC 		.ascii	"\266\275U\314\302\305\213\256Fk\235N\253\212\231\231"
 269      C2C58BAE 
 269      466B9D4E 
 269      AB8A9999 
 270 0566 9F37CF0B 		.ascii	"\2377\317\013A\216\226\204\007\004\257\317\233\235\202"
 270      418E9684 
 270      0704AFCF 
 270      9B9D82
 271 0575 F3F3A6D2 		.ascii	"\363\363\246\322BZ\327\202l\274c\257\020\013\211Y\036"
 271      425AD782 
 271      6CBC63AF 
 271      100B8959 
 271      1E
 272 0586 D6BD3DD0 		.ascii	"\326\275=\320\004/l\036\241\247\3712\275\346.\271\251"
 272      042F6C1E 
ARM GAS  /tmp/ccyCEcZE.s 			page 21


 272      A1A7F932 
 272      BDE62EB9 
 272      A9
 273 0597 B9107F37 		.ascii	"\271\020\1777\0343\027\360\0257`\367\362w\303q3\330"
 273      1C3317F0 
 273      153760F7 
 273      F277C371 
 273      33D8
 274 05a9 FB9EC1AC 		.ascii	"\373\236\301\254\314N\230\301\256\273\001[\314gv\312"
 274      CC4E98C1 
 274      AEBB015B 
 274      CC6776CA 
 275 05b9 0CF637CF 		.ascii	"\014\3667\317`Vfg\314`\377p\003\266\224\317\354\234"
 275      60566667 
 275      CC60FF70 
 275      03B694CF 
 275      EC9C
 276 05cb 19ECA667 		.ascii	"\031\354\246g0\023\263\376\256\374\273ks\222\361RM\213"
 276      3013B3FE 
 276      AEFCBB6B 
 276      7392F152 
 276      4D8B
 277 05dd B7BB58EF 		.ascii	"\267\273X\357\313\255\275\321\242f:\361\330\324$\374"
 277      CBADBDD1 
 277      A2663AF1 
 277      D8D424FC 
 278 05ed 8AB62D8A 		.ascii	"\212\266-\212/\273\366\257\002\232\266\363\266\240h"
 278      2FBBF6AF 
 278      029AB6F3 
 278      B6A068
 279 05fc D3E59C24 		.ascii	"\323\345\234$\300\203\365\217j\022\272Y\022>w\223\204"
 279      C083F58F 
 279      6A12BA59 
 279      123E7793 
 279      84
 280 060d 063ED89F 		.ascii	"\006>\330\237\315`\267<\203Y3:Y\314h\310\226P\202\255"
 280      CD60B73C 
 280      8359333A 
 280      59CC68C8 
 280      965082AD 
 281 0621 3DDDAC66 		.ascii	"=\335\254fJ\250]M\302G=7\232c\234FS|\0277kA\330\244"
 281      4AA85D4D 
 281      C2473D37 
 281      9A639C46 
 281      537C1737 
 282 0639 CC16B695 		.ascii	"\314\026\266\225\2056\215\362\222\330\225\177\217\037"
 282      85368DF2 
 282      92D8957F 
 282      8F1F
 283 0647 F7A00135 		.ascii	"\367\240\0015\367vq\333\325$|\302s\334'9q\033\007e\213"
 283      F77671DB 
 283      D5247CC2 
 283      73DC2739 
 283      711B0765 
 284 065c 16C4DD67 		.ascii	"\026\304\335g\217\333\312B\233\256\343\304\015\347\301"
 284      8FDBCA42 
 284      9BAEE3C4 
ARM GAS  /tmp/ccyCEcZE.s 			page 22


 284      0DE7C1
 285 066b F7D7D2DA 		.ascii	"\367\327\322\332\241L\005\364\224+\260vN\361\300\336"
 285      A14C05F4 
 285      942BB076 
 285      4EF1C0DE 
 286 067b FEC0BCB7 		.ascii	"\376\300\274\267\373\355hN\225\270\025;Ps\272\314GY"
 286      FBED684E 
 286      95B8153B 
 286      5073BACC 
 286      4759
 287 068d 0913F654 		.ascii	"\011\023\366T\357\022\026\202\354er\013\223O2\371K&"
 287      EF121682 
 287      EC65720B 
 287      934F32F9 
 287      4B26
 288 069f 7FC5E4B3 		.ascii	"\177\305\344\263L\356f\3627L\356er\210\311\375L\036"
 288      4CEE66F2 
 288      374CEE65 
 288      7288C9FD 
 288      4C1E
 289 06b1 60F22526 		.ascii	"`\362%&G\230<\310\344!&_e\3628\223\247\231<\013\322"
 289      47983CC8 
 289      E421265F 
 289      65F23893 
 289      A7993C0B 
 290 06c6 B8784BF9 		.ascii	"\270xK\371%\347_.\352\377MyVc\202a\245\276X\300\313"
 290      25E75F2E 
 290      EAFF4D79 
 290      56638261 
 290      A5BE58C0 
 291 06db DBF43CD2 		.ascii	"\333\364<\322[\341\374\377k\246C\012\357m\371X\340\352"
 291      5BE1FCFF 
 291      6BA6430A 
 291      EF6DF958 
 291      E0EA
 292 06ed A0FB172D 		.ascii	"\240\373\027-\012\033\177\231lXV\302\355\031Y\311\206"
 292      0A1B7F99 
 292      6C5856C2 
 292      ED1959C9 
 292      86
 293 06fe EB624D91 		.ascii	"\353bM\221\246\316p\242%\221\221\223\342\343?h]\324"
 293      A6CE70A2 
 293      25919193 
 293      E2E33F68 
 293      5DD4
 294 0710 8282F496 		.ascii	"\202\202\364\226\230\316$\036+\373\321\303\253C\021"
 294      98CE241E 
 294      2BFBD1C3 
 294      AB4311
 295 071f 54C97EE8 		.ascii	"T\311~\350h\243?\325\0307\305\365r\246ULe\345\271\246"
 295      68A33FD5 
 295      1837C5F5 
 295      72A6554C 
 295      65E5B9A6 
 296 0733 DBC68F1E 		.ascii	"\333\306\217\036<&Pe|MDl\220\332\232\323I\271Fdp)y\243"
 296      3C265065 
 296      7C4D446C 
ARM GAS  /tmp/ccyCEcZE.s 			page 23


 296      90DA9AD3 
 296      49B94664 
 297 074b 986C4FA5 		.ascii	"\230lO\2453\033:\222w\253?e7\245\224D\213\341\341.\365"
 297      331B3A92 
 297      77AB3F65 
 297      37A59444 
 297      8BE1E12E 
 298 0760 D764674A 		.ascii	"\327dgJ1~\373V\251\327T[\"\335\321\234\004\207\331D"
 298      317EFB56 
 298      A9D7545B 
 298      22DDD19C 
 298      0487D944 
 299 0774 4B338417 		.ascii	"K3\204\027\020Wd2\351\371\211\226x\242\2451\033\225"
 299      10576432 
 299      E9F98996 
 299      78A2A531 
 299      1B95
 300 0786 93C9D676 		.ascii	"\223\311\326v%\225i\213%7v\244\344d\3637\302\035Y\331"
 300      2595698B 
 300      253776A4 
 300      E464F337 
 300      C21D59D9 
 301 079a 306B4B6E 		.ascii	"0kKnJ\247~\026\316*\315\2516\005\254+:\340\363\301%"
 301      4AA77E16 
 301      CE2ACDA9 
 301      3605AC2B 
 301      3AE0F3C1 
 302 07af A2F23D27 		.ascii	"\242\362='\265V)\321\222jK\206\305\346\344z\251#\255"
 302      B55629D1 
 302      926A4B86 
 302      C5E6E47A 
 302      A923AD
 303 07c2 88CAE6F6 		.ascii	"\210\312\346\366d\026\314\276&\212\272\241?\321"
 303      6416CCBE 
 303      268ABAA1 
 303      3FD1
 304 07d0 22C9611B 		.ascii	"\"\311a\033\321d\247\022\2164\305\033\343E\2764=\211"
 304      D164A712 
 304      8E34C51B 
 304      E345BE34 
 304      3D89
 305 07e2 D6551D6D 		.ascii	"\326U\035m\011\260\277C\024\263IE\\Q\027_\031\2155\336"
 305      09B0BF43 
 305      14B34945 
 305      5C51175F 
 305      198D35DE 
 306 07f6 21A53749 		.ascii	"!\2457I\233\263b\252-\015\336\002\217K\351\216d\245"
 306      9BB362AA 
 306      2D0DDE02 
 306      8F4BE98E 
 306      64A5
 307 0808 960D25A1 		.ascii	"\226\015%\241t\336\353*\3714\0329\271A\222[EE\220\027"
 307      74DEEB2A 
 307      F9341A39 
 307      B941925B 
 307      45459017 
 308 081c 0BF20382 		.ascii	"\013\362\003\202\274D\220\037\364\311\017,)K\313\242"
ARM GAS  /tmp/ccyCEcZE.s 			page 24


 308      BC44901F 
 308      F4C90F2C 
 308      294BCBA2 
 309 082c D2D22CB4 		.ascii	"\322\322,\264'\374\235\355Y9(\212\033\300}4\036\015"
 309      27FC9DED 
 309      5939288A 
 309      1BC07D34 
 309      1E0D
 310 083e AA446056 		.ascii	"\252D`V\255d\332\037Y\037\2253\211\270\"%\036\263/8"
 310      AD64DA1F 
 310      591F9533 
 310      89B82225 
 310      1EB32F38 
 311 0852 37A2EF53 		.ascii	"7\242\357S\277\361\310\012\361Q\310M \022]\335X\357"
 311      BFF1C80A 
 311      F151C84D 
 311      20125DDD 
 311      58EF
 312 0864 6F8CC463 		.ascii	"o\214\304c\3765\217>\022\013\3245\306\"1_\034F$\022"
 312      FE358F3E 
 312      120BD435 
 312      C622315F 
 312      1C462412 
 313 0878 2BA7395B 		.ascii	"+\2479[**A5{0\363\305\033\242\201x\003U\217\254\002"
 313      2A2A4135 
 313      7B30F3C5 
 313      1BA28178 
 313      03558FAC 
 314 088d D140453D 		.ascii	"\321@E=\210@S\323\252\272\230\177\005\025u\360\335\027"
 314      884053D3 
 314      AABA987F 
 314      051575F0 
 314      DD17
 315 089f 5D15F3D5 		.ascii	"]\025\363\325\303\250\253\217\371\341^\314\337\030\257"
 315      C3A8AB8F 
 315      F9E15ECC 
 315      DF18AF
 316 08ae 8B05632B 		.ascii	"\213\005c+\343+ckV\326/\006\307u\221\330\377\001\246"
 316      E32B636B 
 316      56D62F06 
 316      C77591D8 
 316      FF01A6
 317 08c1 3DBAE7   		.ascii	"=\272\347"
 318              		.text
 319              		.section	.gnu.lto_.symtab.f0ce06e69fa75b42,"",%progbits
 320 0000 5356435F 		.ascii	"SVC_Handler\000\000\000\000\000\000\000\000\000\000"
 320      48616E64 
 320      6C657200 
 320      00000000 
 320      00000000 
 321 0015 0000AF00 		.ascii	"\000\000\257\000\000\000_port_irq_epilogue\000\000\000"
 321      00005F70 
 321      6F72745F 
 321      6972715F 
 321      6570696C 
 322 0030 00000000 		.ascii	"\000\000\000\000\000\000\000\000\000\262\000\000\000"
 322      00000000 
ARM GAS  /tmp/ccyCEcZE.s 			page 25


 322      00B20000 
 322      00
 323 003d 5F706F72 		.ascii	"_port_switch_from_isr\000\000\002\000\000\000\000\000"
 323      745F7377 
 323      69746368 
 323      5F66726F 
 323      6D5F6973 
 324 005a 00000000 		.ascii	"\000\000\000\000\265\000\000\000_port_exit_from_isr"
 324      B5000000 
 324      5F706F72 
 324      745F6578 
 324      69745F66 
 325 0075 00000200 		.ascii	"\000\000\002\000\000\000\000\000\000\000\000\000\267"
 325      00000000 
 325      00000000 
 325      B7
 326 0082 00000063 		.ascii	"\000\000\000chSchIsPreemptionRequired\000\000\002\000"
 326      68536368 
 326      49735072 
 326      65656D70 
 326      74696F6E 
 327 00a2 00000000 		.ascii	"\000\000\000\000\000\000\000\000\271\000\000\000"
 327      00000000 
 327      B9000000 
 328              		.text
 329              		.section	.gnu.lto_.opts,"",%progbits
 330 0000 272D6D63 		.ascii	"'-mcpu=cortex-m4' '-mno-thumb-interwork' '-mthumb' "
 330      70753D63 
 330      6F727465 
 330      782D6D34 
 330      2720272D 
 331 0033 272D6767 		.ascii	"'-ggdb' '-O0' '-fomit-frame-pointer' '-falign-funct"
 331      64622720 
 331      272D4F30 
 331      2720272D 
 331      666F6D69 
 332 0066 696F6E73 		.ascii	"ions=16' '-ffunction-sections' '-fdata-sections' '-"
 332      3D313627 
 332      20272D66 
 332      66756E63 
 332      74696F6E 
 333 0099 666E6F2D 		.ascii	"fno-common' '-flto'\000"
 333      636F6D6D 
 333      6F6E2720 
 333      272D666C 
 333      746F2700 
 334              		.text
 335              		.cfi_sections	.debug_frame
 336              		.section	.text.port_lock,"ax",%progbits
 337              		.align	2
 338              		.p2align 4,,15
 339              		.thumb
 340              		.thumb_func
 341              		.type	port_lock, %function
 342              	port_lock:
 343              	.LFB127:
 344              		.file 1 "../../../../os/rt/ports/ARMCMx/chcore_v7m.h"
ARM GAS  /tmp/ccyCEcZE.s 			page 26


 345              		.loc 1 456 0
 346              		.cfi_startproc
 347              		@ args = 0, pretend = 0, frame = 8
 348              		@ frame_needed = 0, uses_anonymous_args = 0
 349              		@ link register save eliminated.
 350 0000 82B0     		sub	sp, sp, #8
 351              		.cfi_def_cfa_offset 8
 352 0002 2023     		movs	r3, #32
 353 0004 0193     		str	r3, [sp, #4]
 354              	.LBB15:
 355              	.LBB16:
 356              		.file 2 "../../../../os/ext/CMSIS/include/core_cmFunc.h"
 357              		.loc 2 548 0
 358 0006 019B     		ldr	r3, [sp, #4]
 359              	@ 548 "../../../../os/ext/CMSIS/include/core_cmFunc.h" 1
 360 0008 83F31188 		MSR basepri, r3
 361              	@ 0 "" 2
 362              		.thumb
 363              	.LBE16:
 364              	.LBE15:
 365              		.loc 1 473 0
 366 000c 02B0     		add	sp, sp, #8
 367              		@ sp needed
 368 000e 7047     		bx	lr
 369              		.cfi_endproc
 370              	.LFE127:
 371              		.size	port_lock, .-port_lock
 372              		.section	.text.port_unlock,"ax",%progbits
 373              		.align	2
 374              		.p2align 4,,15
 375              		.thumb
 376              		.thumb_func
 377              		.type	port_unlock, %function
 378              	port_unlock:
 379              	.LFB128:
 380              		.loc 1 480 0
 381              		.cfi_startproc
 382              		@ args = 0, pretend = 0, frame = 8
 383              		@ frame_needed = 0, uses_anonymous_args = 0
 384              		@ link register save eliminated.
 385 0000 82B0     		sub	sp, sp, #8
 386              		.cfi_def_cfa_offset 8
 387 0002 0023     		movs	r3, #0
 388 0004 0193     		str	r3, [sp, #4]
 389              	.LBB17:
 390              	.LBB18:
 391              		.loc 2 548 0
 392 0006 019B     		ldr	r3, [sp, #4]
 393              	@ 548 "../../../../os/ext/CMSIS/include/core_cmFunc.h" 1
 394 0008 83F31188 		MSR basepri, r3
 395              	@ 0 "" 2
 396              		.thumb
 397              	.LBE18:
 398              	.LBE17:
 399              		.loc 1 487 0
 400 000c 02B0     		add	sp, sp, #8
 401              		@ sp needed
ARM GAS  /tmp/ccyCEcZE.s 			page 27


 402 000e 7047     		bx	lr
 403              		.cfi_endproc
 404              	.LFE128:
 405              		.size	port_unlock, .-port_unlock
 406              		.section	.text.port_lock_from_isr,"ax",%progbits
 407              		.align	2
 408              		.p2align 4,,15
 409              		.thumb
 410              		.thumb_func
 411              		.type	port_lock_from_isr, %function
 412              	port_lock_from_isr:
 413              	.LFB129:
 414              		.loc 1 495 0
 415              		.cfi_startproc
 416              		@ args = 0, pretend = 0, frame = 0
 417              		@ frame_needed = 0, uses_anonymous_args = 0
 418 0000 08B5     		push	{r3, lr}
 419              		.cfi_def_cfa_offset 8
 420              		.cfi_offset 3, -8
 421              		.cfi_offset 14, -4
 422              		.loc 1 497 0
 423 0002 FFF7FEFF 		bl	port_lock
 424              		.loc 1 498 0
 425 0006 08BD     		pop	{r3, pc}
 426              		.cfi_endproc
 427              	.LFE129:
 428              		.size	port_lock_from_isr, .-port_lock_from_isr
 429 0008 AFF30080 		.section	.text.port_unlock_from_isr,"ax",%progbits
 429      AFF30080 
 430              		.align	2
 431              		.p2align 4,,15
 432              		.thumb
 433              		.thumb_func
 434              		.type	port_unlock_from_isr, %function
 435              	port_unlock_from_isr:
 436              	.LFB130:
 437              		.loc 1 506 0
 438              		.cfi_startproc
 439              		@ args = 0, pretend = 0, frame = 0
 440              		@ frame_needed = 0, uses_anonymous_args = 0
 441 0000 08B5     		push	{r3, lr}
 442              		.cfi_def_cfa_offset 8
 443              		.cfi_offset 3, -8
 444              		.cfi_offset 14, -4
 445              		.loc 1 508 0
 446 0002 FFF7FEFF 		bl	port_unlock
 447              		.loc 1 509 0
 448 0006 08BD     		pop	{r3, pc}
 449              		.cfi_endproc
 450              	.LFE130:
 451              		.size	port_unlock_from_isr, .-port_unlock_from_isr
 452 0008 AFF30080 		.section	.text.SVC_Handler,"ax",%progbits
 452      AFF30080 
 453              		.align	2
 454              		.p2align 4,,15
 455              		.global	SVC_Handler
 456              		.thumb
ARM GAS  /tmp/ccyCEcZE.s 			page 28


 457              		.thumb_func
 458              		.type	SVC_Handler, %function
 459              	SVC_Handler:
 460              	.LFB241:
 461              		.file 3 "../../../../os/rt/ports/ARMCMx/chcore_v7m.c"
 462              		.loc 3 62 0
 463              		.cfi_startproc
 464              		@ args = 0, pretend = 0, frame = 8
 465              		@ frame_needed = 0, uses_anonymous_args = 0
 466 0000 10B5     		push	{r4, lr}
 467              		.cfi_def_cfa_offset 8
 468              		.cfi_offset 4, -8
 469              		.cfi_offset 14, -4
 470 0002 82B0     		sub	sp, sp, #8
 471              		.cfi_def_cfa_offset 16
 472              	.LBB19:
 473              	.LBB20:
 474              		.loc 2 430 0
 475              	@ 430 "../../../../os/ext/CMSIS/include/core_cmFunc.h" 1
 476 0004 EFF30983 		MRS r3, psp
 477              	
 478              	@ 0 "" 2
 479              		.thumb
 480 0008 1C46     		mov	r4, r3
 481              		.loc 2 431 0
 482 000a 2346     		mov	r3, r4
 483              	.LBE20:
 484              	.LBE19:
 485              		.loc 3 72 0
 486 000c 0193     		str	r3, [sp, #4]
 487              		.loc 3 76 0
 488 000e 019B     		ldr	r3, [sp, #4]
 489 0010 2033     		adds	r3, r3, #32
 490 0012 0193     		str	r3, [sp, #4]
 491              		.loc 3 79 0
 492 0014 019B     		ldr	r3, [sp, #4]
 493 0016 0093     		str	r3, [sp]
 494              	.LBB21:
 495              	.LBB22:
 496              		.loc 2 443 0
 497 0018 009B     		ldr	r3, [sp]
 498              	@ 443 "../../../../os/ext/CMSIS/include/core_cmFunc.h" 1
 499 001a 83F30988 		MSR psp, r3
 500              	
 501              	@ 0 "" 2
 502              		.thumb
 503              	.LBE22:
 504              	.LBE21:
 505              		.loc 3 82 0
 506 001e FFF7FEFF 		bl	port_unlock_from_isr
 507              		.loc 3 83 0
 508 0022 02B0     		add	sp, sp, #8
 509              		@ sp needed
 510 0024 10BD     		pop	{r4, pc}
 511              		.cfi_endproc
 512              	.LFE241:
 513              		.size	SVC_Handler, .-SVC_Handler
ARM GAS  /tmp/ccyCEcZE.s 			page 29


 514              		.section	.text._port_irq_epilogue,"ax",%progbits
 515              		.align	2
 516              		.p2align 4,,15
 517              		.global	_port_irq_epilogue
 518              		.thumb
 519              		.thumb_func
 520              		.type	_port_irq_epilogue, %function
 521              	_port_irq_epilogue:
 522              	.LFB242:
 523              		.loc 3 122 0
 524              		.cfi_startproc
 525              		@ args = 0, pretend = 0, frame = 8
 526              		@ frame_needed = 0, uses_anonymous_args = 0
 527 0000 10B5     		push	{r4, lr}
 528              		.cfi_def_cfa_offset 8
 529              		.cfi_offset 4, -8
 530              		.cfi_offset 14, -4
 531 0002 82B0     		sub	sp, sp, #8
 532              		.cfi_def_cfa_offset 16
 533              		.loc 3 124 0
 534 0004 FFF7FEFF 		bl	port_lock_from_isr
 535              		.loc 3 125 0
 536 0008 4FF46D43 		mov	r3, #60672
 537 000c CEF20003 		movt	r3, 57344
 538 0010 5B68     		ldr	r3, [r3, #4]
 539 0012 03F40063 		and	r3, r3, #2048
 540 0016 002B     		cmp	r3, #0
 541 0018 23D0     		beq	.L8
 542              	.LBB23:
 543              	.LBB24:
 544              	.LBB25:
 545              		.loc 2 430 0
 546              	@ 430 "../../../../os/ext/CMSIS/include/core_cmFunc.h" 1
 547 001a EFF30983 		MRS r3, psp
 548              	
 549              	@ 0 "" 2
 550              		.thumb
 551 001e 1C46     		mov	r4, r3
 552              		.loc 2 431 0
 553 0020 2346     		mov	r3, r4
 554              	.LBE25:
 555              	.LBE24:
 556              		.loc 3 134 0
 557 0022 0193     		str	r3, [sp, #4]
 558              		.loc 3 138 0
 559 0024 019B     		ldr	r3, [sp, #4]
 560 0026 203B     		subs	r3, r3, #32
 561 0028 0193     		str	r3, [sp, #4]
 562              		.loc 3 141 0
 563 002a 019B     		ldr	r3, [sp, #4]
 564 002c 4FF08072 		mov	r2, #16777216
 565 0030 DA61     		str	r2, [r3, #28]
 566              		.loc 3 147 0
 567 0032 019B     		ldr	r3, [sp, #4]
 568 0034 0093     		str	r3, [sp]
 569              	.LBB26:
 570              	.LBB27:
ARM GAS  /tmp/ccyCEcZE.s 			page 30


 571              		.loc 2 443 0
 572 0036 009B     		ldr	r3, [sp]
 573              	@ 443 "../../../../os/ext/CMSIS/include/core_cmFunc.h" 1
 574 0038 83F30988 		MSR psp, r3
 575              	
 576              	@ 0 "" 2
 577              		.thumb
 578              	.LBE27:
 579              	.LBE26:
 580              		.loc 3 151 0
 581 003c FFF7FEFF 		bl	chSchIsPreemptionRequired
 582 0040 0346     		mov	r3, r0
 583 0042 002B     		cmp	r3, #0
 584 0044 06D0     		beq	.L10
 585              		.loc 3 153 0
 586 0046 019A     		ldr	r2, [sp, #4]
 587 0048 40F20003 		movw	r3, #:lower16:_port_switch_from_isr
 588 004c C0F20003 		movt	r3, #:upper16:_port_switch_from_isr
 589 0050 9361     		str	r3, [r2, #24]
 590              		.loc 3 163 0
 591 0052 08E0     		b	.L7
 592              	.L10:
 593              		.loc 3 158 0
 594 0054 019A     		ldr	r2, [sp, #4]
 595 0056 40F20003 		movw	r3, #:lower16:_port_exit_from_isr
 596 005a C0F20003 		movt	r3, #:upper16:_port_exit_from_isr
 597 005e 9361     		str	r3, [r2, #24]
 598              		.loc 3 163 0
 599 0060 01E0     		b	.L7
 600              	.L8:
 601              	.LBE23:
 602              		.loc 3 165 0
 603 0062 FFF7FEFF 		bl	port_unlock_from_isr
 604              	.L7:
 605              		.loc 3 166 0
 606 0066 02B0     		add	sp, sp, #8
 607              		@ sp needed
 608 0068 10BD     		pop	{r4, pc}
 609              		.cfi_endproc
 610              	.LFE242:
 611              		.size	_port_irq_epilogue, .-_port_irq_epilogue
 612 006a 00BFAFF3 		.text
 612      0080
 613              	.Letext0:
 614              		.file 4 "/usr/include/newlib/machine/_default_types.h"
 615              		.file 5 "/usr/include/newlib/stdint.h"
 616              		.file 6 "../../../../os/rt/ports/ARMCMx/compilers/GCC/chtypes.h"
 617              		.file 7 "../../../../os/rt/include/chsystypes.h"
 618              		.file 8 "../../../../os/rt/include/chschd.h"
 619              		.file 9 "../../../../os/ext/CMSIS/include/core_cm4.h"
 620              		.file 10 "../../../../os/rt/ports/ARMCMx/chcore.h"
 621              		.file 11 "../../../../os/rt/include/chdebug.h"
 622              		.file 12 "../../../../os/rt/include/chtm.h"
 623              		.file 13 "../../../../os/rt/include/chstats.h"
 624              		.file 14 "../../../../os/rt/include/chsem.h"
 625              		.file 15 "../../../../os/rt/include/chmtx.h"