ARM GAS  /tmp/ccyCEcZE.s 			page 1


   1              		.syntax unified
   2              		.cpu cortex-m4
   3              		.fpu softvfp
   4              		.eabi_attribute 20, 1
   5              		.eabi_attribute 21, 1
   6              		.eabi_attribute 23, 3
   7              		.eabi_attribute 24, 1
   8              		.eabi_attribute 25, 1
   9              		.eabi_attribute 26, 1
  10              		.eabi_attribute 30, 6
  11              		.eabi_attribute 34, 1
  12              		.eabi_attribute 18, 4
  13              		.thumb
  14              		.file	"chcore_v7m.c"
  15              		.text
  16              	.Ltext0:
  17              		.section	.gnu.lto_.inline.f0ce06e69fa75b42,"",%progbits
  18 0000 789C6362 		.ascii	"x\234cb`b\300\006z\2414\033\003\003\0133\003\003\023"
  18      6062C006 
  18      7AA1341B 
  18      03030B33 
  18      030313
  19 0013 CB073D06 		.ascii	"\313\007=\006\026\210ZF\014\021&\006\026\036 \311\264"
  19      16885A46 
  19      0C112606 
  19      161E20C9 
  19      B4
  20 0024 401EAE86 		.ascii	"@\036\256\206\013H0c\027fa\340\024\004\012\363l\310"
  20      0B483063 
  20      176661E0 
  20      14040AF3 
  20      6CC8
  21 0036 45116665 		.ascii	"E\021fe\020\325\007\012\3135\374bD\021g\342\206\261"
  21      10D5070A 
  21      CB35FC62 
  21      441167E2 
  21      86B1
  22 0048 18008EE0 		.ascii	"\030\000\216\340\010/"
  22      082F
  23              		.text
  24              		.section	.gnu.lto_port_lock.f0ce06e69fa75b42,"",%progbits
  25 0000 789C6362 		.ascii	"x\234cb`b@\007\"@,\310\310\300\320\000\342030\002U0"
  25      60624007 
  25      22402CC8 
  25      C8C0D000 
  25      E2303330 
  26 0017 32310205 		.ascii	"21\002\005\030\030\031\352\231\030\353#AL\006F%\206"
  26      181819EA 
  26      9918EB23 
  26      414C0646 
  26      2586
  27 0029 850D0D93 		.ascii	"\205\015\015\223\036\264>{\3144\263\341@\313\202\206"
  27      1EB43E7B 
  27      CC34B3E1 
  27      40CB8286 
  28 0039 3FFFFF33 		.ascii	"?\377\37732f2\002M\324gdHfd\210\000r\030\025\300\024"
  28      32663202 
ARM GAS  /tmp/ccyCEcZE.s 			page 2


  28      4DD46764 
  28      48666488 
  28      00721815 
  29 004f 130BAA15 		.ascii	"\023\013\252\025\353\231\016<\370\377\377D\347\363\275"
  29      EB990E3C 
  29      F8FFFF44 
  29      E7F3BD
  30 005e 40931912 		.ascii	"@\223\031\022\031\027\002M\003\002V\206\226\206\206"
  30      1917024D 
  30      03025686 
  30      968686
  31 006d 090A0C20 		.ascii	"\011\012\014 \335@\020\002&CA\016`>\313\320\264\003"
  31      DD401002 
  31      2643410E 
  31      603ECBD0 
  31      B403
  32 007f 48A73332 		.ascii	"H\24732\202\314c\000\252a8\307\320\364\361\355\214\307"
  32      82CC6300 
  32      AA6138C7 
  32      D0F4F1ED 
  32      8CC7
  33 0091 12705D60 		.ascii	"\022p]`F\303\201\356+\355\2540#\023\031\0273\262\002"
  33      46C381EE 
  33      2BEDAC30 
  33      23131917 
  33      33B202
  34 00a4 8D833819 		.ascii	"\215\2038\031\010S\231A>f\206x[\216\241ln\303\014\207"
  34      08539941 
  34      3E668678 
  34      5B8EA16C 
  34      6EC30C87 
  35 00b8 4C466610 		.ascii	"LFf\020/\035\254\012.U\011\221\202\272\374\"C\343\203"
  35      2F1DAC0A 
  35      2E550991 
  35      82BAFC22 
  35      43E383
  36 00cb 9DFA10E3 		.ascii	"\235\372\020\343` \004\244\001\244ZGOO\037\216\362\213"
  36      602004A4 
  36      01A45A47 
  36      4F4F1F8E 
  36      F28B
  37 00dd F58B4AF4 		.ascii	"\365\213J\364\013\362\213J\212\365\035\203|\235}+\364"
  37      0BF28B4A 
  37      8AF51D83 
  37      7C9D7D2B 
  37      F4
  38 00ee 933392F3 		.ascii	"\2233\222\363\213R\343\313\314s\3652\030X\313\022sJ"
  38      8B52E3CB 
  38      CC73F532 
  38      1858CB12 
  38      734A
  39 0100 53F5D1B4 		.ascii	"S\365\321\264\244V\224\350;\373\006{\006\353g\346%\347"
  39      A45694E8 
  39      3BFB067B 
  39      06EB67E6 
  39      25E7
  40 0112 94A6A4EA 		.ascii	"\224\246\244\352\203\265$\347\272\225\346%\003u\011"
ARM GAS  /tmp/ccyCEcZE.s 			page 3


  40      83B524E7 
  40      BA95E625 
  40      037509
  41 0121 F8060729 		.ascii	"\370\006\007)$%\026\247\026\024e\352(\250\03200\025"
  41      242516A7 
  41      161465EA 
  41      28A81A30 
  41      3015
  42 0133 31B0E7A6 		.ascii	"1\260\347\246\346\346\027U2\000\000%\366_c"
  42      E6E61755 
  42      32000025 
  42      F65F63
  43              		.text
  44              		.section	.gnu.lto_port_unlock.f0ce06e69fa75b42,"",%progbits
  45 0000 789C6362 		.ascii	"x\234cb`b@\007\"@,\310\310\300\320\000\342030\002U0"
  45      60624007 
  45      22402CC8 
  45      C8C0D000 
  45      E2303330 
  46 0017 32310205 		.ascii	"21\002\005\030\030\031\352\231\030\353#AL\006F%\206"
  46      181819EA 
  46      9918EB23 
  46      414C0646 
  46      2586
  47 0029 850D0D93 		.ascii	"\205\015\015\223\036\264~z\3144\263\341@\313\202\206"
  47      1EB47E7A 
  47      CC34B3E1 
  47      40CB8286 
  48 0039 3FFFFF33 		.ascii	"?\377\37732f2\002M\324gdHfd\210\000r\030\025\300\024"
  48      32663202 
  48      4DD46764 
  48      48666488 
  48      00721815 
  49 004f 130BAA15 		.ascii	"\023\013\252\025\353\231\016<\370\377\377E\347\376}"
  49      EB990E3C 
  49      F8FFFF45 
  49      E7FE7D
  50 005e 40931912 		.ascii	"@\223\031\022\031\027\002M\003\002V\206\226\206\206"
  50      1917024D 
  50      03025686 
  50      968686
  51 006d 090A0C20 		.ascii	"\011\012\014 \335@\020\002&CA\016`>\313\320\264\003"
  51      DD401002 
  51      2643410E 
  51      603ECBD0 
  51      B403
  52 007f 48A73332 		.ascii	"H\24732\202\314\003\033r\216\241\351\343\333\031\217"
  52      82CC031B 
  52      728EA1E9 
  52      E3DB198F 
  53 008f 25E0BAC0 		.ascii	"%\340\272\300\214\206\003\247\237\266\263\302\214Ld"
  53      8C8603A7 
  53      9FB6B3C2 
  53      8C4C64
  54 009e 5CCCC80A 		.ascii	"\\\314\310\0124\016\342d Le\006\371\230\031\342m9\206"
  54      340EE264 
  54      204C6506 
ARM GAS  /tmp/ccyCEcZE.s 			page 4


  54      F99819E2 
  54      6D3986
  55 00b1 B2B90D33 		.ascii	"\262\271\0153\0342\031\231A\274t\260*\270T%D\012\352"
  55      1C321999 
  55      41BC74B0 
  55      2AB85425 
  55      440AEA
  56 00c4 F28B0C8D 		.ascii	"\362\213\014\215\017\316\353C\214\203\201\020\220\006"
  56      0FCEEB43 
  56      8C838110 
  56      9006
  57 00d2 906A1D3D 		.ascii	"\220j\035==}8\312/\326/*\321/\310/*)\326w\014\362u\366"
  57      3D7D38CA 
  57      2FD62F2A 
  57      D12FC82F 
  57      2A29D677 
  58 00ea ADD04FCE 		.ascii	"\255\320O\316H\316/J\215/3\317\325\313``-K\314)M\325"
  58      48CE2F4A 
  58      8D2F33CF 
  58      D5CB6060 
  58      2D4BCC29 
  59 0100 47D3925A 		.ascii	"G\323\222ZQ\242\357\354\033\354\031\254\237\231\227"
  59      51A2EFEC 
  59      1BEC19AC 
  59      9F9997
  60 010f 9C539A92 		.ascii	"\234S\232\222\252\017\326\222\234\353V\232\227\014\324"
  60      AA0FD692 
  60      9CEB569A 
  60      970CD4
  61 011e 25E01B1C 		.ascii	"%\340\033\034\244\220\224X\234ZP\224\251\243\240j\300"
  61      A4909458 
  61      9C5A5094 
  61      A9A3A06A 
  61      C0
  62 012f C054C4C0 		.ascii	"\300T\304\300\236\233\232\233_T\311\000\000g\003_\257"
  62      9E9B9A9B 
  62      5F54C900 
  62      0067035F 
  62      AF
  63              		.text
  64              		.section	.gnu.lto_port_lock_from_isr.f0ce06e69fa75b42,"",%progbits
  65 0000 789C6362 		.ascii	"x\234cb`b@\007\"@\\\006\304z \0163\003#P\005#\023##"
  65      60624007 
  65      22405C06 
  65      C47A200E 
  65      33032350 
  66 0019 90C3C850 		.ascii	"\220\303\310P\317\304X\037\311\010V\266\236\351\300"
  66      CFC4581F 
  66      C90856B6 
  66      9EE9C0
  67 0028 83FFFFD7 		.ascii	"\203\377\377\327\355\273\277n\015\343?&\220\030+CKC"
  67      EDBBBF6E 
  67      0DE33F26 
  67      90182B43 
  67      4B43
  68 003a C3040506 		.ascii	"\303\004\005\006\206d\260\212\0200\031\012\322\317|"
  68      8664B08A 
ARM GAS  /tmp/ccyCEcZE.s 			page 5


  68      1030190A 
  68      D2CF7C
  69 0049 9EA1F9C1 		.ascii	"\236\241\371\301\313~\366D\306\205\214\254@\301j\206"
  69      CB7EF644 
  69      C6858CAC 
  69      40C16A86 
  70 0059 5F0D1D0D 		.ascii	"_\015\035\015\002\231\214@\245\020\3232A\364E\206\306"
  70      02998C40 
  70      A510D332 
  70      41F44586 
  70      C6
  71 006a 07AFF461 		.ascii	"\007\257\364a\212  \004$\001r\244\216\236\236>\034\345"
  71      8A202004 
  71      240172A4 
  71      8E9E9E3E 
  71      1CE5
  72 007c 17EB1795 		.ascii	"\027\353\027\225\350\027\344\027\225\024\353;\006\371"
  72      E817E417 
  72      9514EB3B 
  72      06F9
  73 008a 3AFB56E8 		.ascii	":\373V\350'g$\347\027\245\306\227\231\347\352e0\000"
  73      276724E7 
  73      17A5C697 
  73      99E7EA65 
  73      3000
  74 009c 00577E29 		.ascii	"\000W~)\223"
  74      93
  75              		.text
  76              		.section	.gnu.lto_port_unlock_from_isr.f0ce06e69fa75b42,"",%progbits
  77 0000 789C6362 		.ascii	"x\234cb`b@\007\"@\\\006\304z \0163\003#P\005#\023##"
  77      60624007 
  77      22405C06 
  77      C47A200E 
  77      33032350 
  78 0019 90C3C850 		.ascii	"\220\303\310P\317\304X\037\311\010V\266\236\351\300"
  78      CFC4581F 
  78      C90856B6 
  78      9EE9C0
  79 0028 83FFFFD7 		.ascii	"\203\377\377\327}\271\277\376\016\343\177&\220\030+"
  79      7DB9BFFE 
  79      0EE37F26 
  79      90182B
  80 0037 434B43C3 		.ascii	"CKC\303\004\005\006\206d\260\212\0200\031\012\322\317"
  80      04050686 
  80      64B08A10 
  80      30190AD2 
  80      CF
  81 0048 7C9EA1F9 		.ascii	"|\236\241\371\301\237\363\354\211\214\013\031Y\201\202"
  81      C19FF3EC 
  81      898C0B19 
  81      598182
  82 0057 D50CBF1A 		.ascii	"\325\014\277\032:\032\0042\031\201J!\246e\202\350\213"
  82      3A1A0432 
  82      19814A21 
  82      A66582E8 
  82      8B
  83 0068 0C8D0FFE 		.ascii	"\014\215\017\376\352\303\024A@\010H\002\344H\035==}"
ARM GAS  /tmp/ccyCEcZE.s 			page 6


  83      EAC31441 
  83      40084802 
  83      E4481D3D 
  83      3D7D
  84 007a 38CA2FD6 		.ascii	"8\312/\326/*\321/\310/*)\326w\014\362u\366\255\320O"
  84      2F2AD12F 
  84      C82F2A29 
  84      D6770CF2 
  84      75F6ADD0 
  85 008f CE48CE2F 		.ascii	"\316H\316/J\215/3\317\325\313`\000\000\273\315*a"
  85      4A8D2F33 
  85      CFD5CB60 
  85      0000BBCD 
  85      2A61
  86              		.text
  87              		.section	.gnu.lto_SVC_Handler.f0ce06e69fa75b42,"",%progbits
  88 0000 789C8D52 		.ascii	"x\234\215RMh\023Q\020\236y\273MjJ\325kQ$Tz\253\331\236"
  88      4D681351 
  88      109E79BB 
  88      4D6A4AD5 
  88      6B512454 
  89 0018 EA49500A 		.ascii	"\352IP\012\202\207\2404\025\354I\3426nC\177\0226[)x"
  89      8287A034 
  89      15EC49E2 
  89      366E437F 
  89      12365B29 
  90 002d C8CB8F1A 		.ascii	"\310\313\217\032l\324\264\012ZAm\244X\250Joz\021\032"
  90      6CD4B40A 
  90      5A416DA4 
  90      58A84A6F 
  90      7A111A
  91 0040 0F8AA5B6 		.ascii	"\017\212\245\266\305\243TJ@\360\"\250AP\260\325u\336"
  91      C5A3544A 
  91      40F022A8 
  91      4150B0D5 
  91      75DE
  92 0052 BE6E1A73 		.ascii	"\276n\032s1\303\356~o~\276\2317\263\303\200A\275\354"
  92      31C3EE7E 
  92      6F7EBE99 
  92      37B3C380 
  92      41BDEC
  93 0065 A3F7B902 		.ascii	"\243\367\271\0020'\024\025\220\"\220!\031PA$\023B\222"
  93      30271415 
  93      90229021 
  93      19504124 
  93      134292
  94 0078 2998EC17 		.ascii	")\230\354\027g\360\266C\221\363\251\362\245Oo\232\246"
  94      67F0B643 
  94      91F3A9F2 
  94      A54F6F9A 
  94      A6
  95 0089 6F95B233 		.ascii	"o\225\2623|\313\266\021\243\302\251#\234\241\023\372"
  95      7CCBB611 
  95      A3C2A923 
  95      9CA113FA 
  96 0099 1D60EABF 		.ascii	"\035`\352\277e$\261\264x\371z\333\325\231t\201\377!"
  96      6524B1B4 
ARM GAS  /tmp/ccyCEcZE.s 			page 7


  96      78F97ADB 
  96      D5997481 
  96      FF21
  97 00ab 1ED11868 		.ascii	"\036\321\030h\330\030s\362\365\3556\276\303T\030t7\304"
  97      D81873F2 
  97      F5ED36BE 
  97      C3541874 
  97      37C4
  98 00bd BC5BFAFD 		.ascii	"\274[\372\375>\357+\244r\334\266\223QT\033\273h\371"
  98      3EEF2BA4 
  98      72DCB693 
  98      51541BBB 
  98      68F9
  99 00cf 67E5D9A1 		.ascii	"g\345\331\241i^\312\026\335\016U\006C\015\026\\\\_*"
  99      695ECA16 
  99      DD0E5506 
  99      430D165C 
  99      5C5F2A
 100 00e2 229FE2A9 		.ascii	"\"\237\342\251o\266\275\247\361\222\257\036,\327\262"
 100      6FB6BDA7 
 100      F192AF1E 
 100      2CD7B2
 101 00f1 1898FFAB 		.ascii	"\030\230\377\253\267\300Je\333\316]Y\270\206\273\020"
 101      B7C04A65 
 101      DBCE5D59 
 101      B886BB10 
 102 0101 9C718671 		.ascii	"\234q\206q\026\333A\331F\225\360!a\023\341\034\241\207"
 102      16DB41D9 
 102      4695F021 
 102      6113E11C 
 102      A187
 103 0113 82542F29 		.ascii	"\202T/)\363\2444\023>\"$i\202,\347\005\277$9\327%\351"
 103      F3A43413 
 103      3E222469 
 103      822CE705 
 103      BF2439D7 
 104 0129 73BEA7C5 		.ascii	"s\276\247\305F(\253\220\252l\276X\307j\340\234\023\350"
 104      4628AB90 
 104      AA6CBE58 
 104      C76AE09C 
 104      13E8
 105 013b A8BC34F1 		.ascii	"\250\2744\361v\262\305\315\025\306'\024\245;\273#\266"
 105      76B2C5CD 
 105      15C62714 
 105      A53BBB23 
 105      B6
 106 014c 0752B44C 		.ascii	"\007R\264L\"\205\334\275\003p\003\357\361;G\243\024"
 106      2285DCBD 
 106      037003EF 
 106      F13B47A3 
 106      14
 107 015d 44624880 		.ascii	"DbH\200\025H/mm|\355\016\343S\262\030\350q\035T\237"
 107      15482F6D 
 107      6D7CED0E 
 107      E353B218 
 107      E8711D54 
 108 0172 76515986 		.ascii	"vQY\206T3\300\000\312\320\373\035\202\331La\222\371"
ARM GAS  /tmp/ccyCEcZE.s 			page 8


 108      5433C000 
 108      CAD0FB1D 
 108      82D94C61 
 108      92F9
 109 0184 A19CEF97 		.ascii	"\241\234\357\227u\015Dr8\326\317\231s\256\215\031\342"
 109      750D4472 
 109      38D6CF99 
 109      73AE8D19 
 109      E2
 110 0195 3A2B9099 		.ascii	":+\220\231\310|\317{]\253B\016g\252~\231\365K\306\316"
 110      C87CCF7B 
 110      5DAB420E 
 110      67AA7E99 
 110      F54BC6CE 
 111 01a9 EF779DAA 		.ascii	"\357w\235\252!\352Vky\015\361\033W!]\331\374Q\235B\265"
 111      21EA566B 
 111      790DF11B 
 111      57215DD9 
 111      FC519D42 
 112 01be FFE5B597 		.ascii	"\377\345\265\227\212\234\351N\377L\266\217p\263\256"
 112      8A9CE94E 
 112      FF4CB68F 
 112      70B3AE
 113 01cd FFE276FF 		.ascii	"\377\342v\377\036\331\277\027j|\263\265\263\001X\203"
 113      1ED9BF17 
 113      6A7CB3B5 
 113      B3015883 
 114 01dd 4C79FE63 		.ascii	"Ly\376c\213L\011p\021~\361\034\337\033E\257..G\022\025"
 114      8B4C0970 
 114      117EF11C 
 114      DF1B45AF 
 114      2E2E4712 
 115 01f2 BDBE8354 		.ascii	"\275\276\203T\371\361A7HJ\237hX$\355\014\004\264\352"
 115      F9F14137 
 115      484A9F68 
 115      5824ED0C 
 115      04B4EA
 116 0205 134B68A6 		.ascii	"\023Kh\246\245\305c\246\225\320\216\365\006{\202\343"
 116      A5C563A6 
 116      95D08EF5 
 116      067B82E3 
 117 0215 9A3EA8C7 		.ascii	"\232>\250\307\314\310\331\013\207G\002:xtk<\036\350"
 117      CCC8D90B 
 117      8747023A 
 117      78746B3C 
 117      1EE8
 118 0227 52056875 		.ascii	"R\005hu\304\310\270\245\365\004C'BZtT\037\036\033\210"
 118      C4C8B8A5 
 118      F5044327 
 118      425A7454 
 118      1F1E1B88 
 119 023b 680E511F 		.ascii	"h\016Q\0379>6\252\007\006\301cF\022c\303\326n+\026?"
 119      393E36AA 
 119      0706C163 
 119      461263C3 
 119      D66E2B16 
 120 0250 79FE9419 		.ascii	"y\376\224\031\323CVX\037j\015\366\206\374\035]\235\376"
ARM GAS  /tmp/ccyCEcZE.s 			page 9


 120      D3435658 
 120      1F6A0DF6 
 120      86FC1D5D 
 120      9DFE
 121 0262 7822EE03 		.ascii	"x\"\356\003\345\210\011\255\301P\257\320:\311\354\003"
 121      E58809AD 
 121      C150AFD0 
 121      3AC9EC03 
 122 0272 66829288 		.ascii	"f\202\222\210\303_*\002\006\223"
 122      C35F2A02 
 122      0693
 123              		.text
 124              		.section	.gnu.lto__port_irq_epilogue.f0ce06e69fa75b42,"",%progbits
 125 0000 789CA554 		.ascii	"x\234\245T]hSI\024>\347\316\2757\177M[}\221\276H\021"
 125      5D685349 
 125      143EE7CE 
 125      BD377F4D 
 125      5B7D91BE 
 126 0016 8405BBB9 		.ascii	"\204\005\273\271\212\240O\242\"\010>\004\265\261\320"
 126      8AA04FA2 
 126      22083E04 
 126      B5B1D0
 127 0025 5D1F247B 		.ascii	"]\037${\355\246\321\326\204$\225\212\017N\232@\245>"
 127      EDA6D1D6 
 127      8424958A 
 127      0F4E9A40 
 127      A53E
 128 0037 285A45DD 		.ascii	"(ZE\335u\261\354\026Ke\267\245,Rp\227\315\012\245j\251"
 128      75B1EC16 
 128      4B65B7A5 
 128      2C527097 
 128      CD0AA56A 
 129 004c CB3E88CB 		.ascii	"\313>\210\313*nX\024\037\024\265\017\376`k\257g\356"
 129      2A6E5814 
 129      1F14B50F 
 129      FE606BAF 
 129      67EE
 130 005e E4DEA445 		.ascii	"\344\336\244E1\350$\231\311\371\371\3169\363\315\231"
 130      31E82499 
 130      C9F9F9CE 
 130      39F3CD99 
 131 006e 514081C5 		.ascii	"Q@\201\305c'\375~\327\001.\011\301\017H\036\250(\014"
 131      6327FD7E 
 131      D7012E09 
 131      C10F481E 
 131      A8280C
 132 0081 802B5E9A 		.ascii	"\200+^\232T\206*iTE\023\032]h4\364\220F\267g\017\372"
 132      54862A69 
 132      5445131A 
 132      5D6834F4 
 132      9046B767 
 133 0097 68F6DAB3 		.ascii	"h\366\332\263\017\221B \034Q\230\252\351\036\257\017"
 133      0F914220 
 133      1C5198AA 
 133      E91EAF0F 
 134 00a7 8F7C2534 		.ascii	"\217|%4\020X\001\003\234\237,\016Z\377\340\271\376B"
 134      10580103 
ARM GAS  /tmp/ccyCEcZE.s 			page 10


 134      9C9F2C0E 
 134      5AFFE0B9 
 134      FE42
 135 00b9 FE229FB3 		.ascii	"\376\"\237\263,\304\2700\232\010\255\364\017\033\355"
 135      2CC4B830 
 135      9A08ADF4 
 135      0F1BED
 136 00c8 45511716 		.ascii	"EQ\027\026'\201|l\210\373l\020\213#\253\022s\373\301"
 136      27817C6C 
 136      88FB6C10 
 136      8B23AB12 
 136      73FBC1
 137 00db 8EEB3C5F 		.ascii	"\216\353<_\260\254\215Uc\012\027n\376\334\320w\261\347"
 137      B0AC8D55 
 137      630A176E 
 137      FEDCD077 
 137      B1E7
 138 00ed 049FA7FA 		.ascii	"\004\237\247\372\252\207\335\351;\276\000\246\200\201"
 138      AA87DDE9 
 138      3BBE00A6 
 138      8081
 139 00fb D521FFEB 		.ascii	"\325!\377\353\033\\\326W\344\016R-'\364J\030\276\027"
 139      1B5CD657 
 139      E40E522D 
 139      27F44A18 
 139      BE17
 140 010d F676F2FB 		.ascii	"\366v\362\373\006^N\250)\260\256\252\204\347\013/z\247"
 140      065E4EA8 
 140      29B0AEAA 
 140      84E70B2F 
 140      7AA7
 141 011f 0690D8C9 		.ascii	"\006\220\330\311>\267\254\2728\352\325\355\260\370j"
 141      3EB7ACBA 
 141      38EAD5ED 
 141      B0F86A
 142 012e E6CA97E7 		.ascii	"\346\312\227\347x!?\340\234\234\256\300\376*S\376q\367"
 142      78213FE0 
 142      9C9CAEC0 
 142      FE2A53FE 
 142      71F7
 143 0140 C6A7A49C 		.ascii	"\306\247\244\234\230\037\255\334#%L},\341\210R(Z\326"
 143      981FADDC 
 143      23254C7D 
 143      2CE18852 
 143      285AD6
 144 0153 EBDEAB67 		.ascii	"\353\336\253g0\210@\355\245\320\304\230\230T1i\020\305"
 144      308840ED 
 144      A5D0C498 
 144      98543169 
 144      10C5
 145 0165 215C017A 		.ascii	"!\\\001zi\365\320:H\253\227\214\252\217\204\313$\370"
 145      69F5D03A 
 145      48AB978C 
 145      AA8F84CB 
 145      24F8
 146 0177 49D00324 		.ascii	"I\320\003$\374BB\015\255\303\264\322\320 \317\371\211"
 146      FC42420D 
ARM GAS  /tmp/ccyCEcZE.s 			page 11


 146      ADC3B4D2 
 146      D020CFF9 
 146      89
 147 0188 46BB7A1A 		.ascii	"F\273z\032\273\354\271E\\\027\366\027\344\212s?\006"
 147      BBECB945 
 147      5C17F617 
 147      E48A733F 
 147      06
 148 0199 A2388A74 		.ascii	"\2428\212tK\3400\274\341Gy}\034=&\312\363\213\323q\302"
 148      4BE030BC 
 148      E147797D 
 148      1C3D26CA 
 148      F38BD371 
 149 01ae 34F48C8F 		.ascii	"4\364\214\217\323\015\220n1D\261\005\340\377\346x-\010"
 149      D30D906E 
 149      3144B105 
 149      E0FFE678 
 149      2D08
 150 01c0 EBB5AF1D 		.ascii	"\353\265\257\035\213\262\012\206y\236\254\276\357\340"
 150      8BB20A86 
 150      799EACBE 
 150      EFE0
 151 01ce 3C2D7EC7 		.ascii	"<-~\307\331\036\337\270=1\015\271\253\271a7 #\244pc"
 151      D91EDFB8 
 151      3D310DB9 
 151      ABB96137 
 151      2023A470 
 152 01e3 BC9E8CD7 		.ascii	"\274\236\214\327!\377$\033tm\255\262\237\313\243E\210"
 152      21FF241B 
 152      746DADB2 
 152      9FCBA345 
 152      88
 153 01f4 EC166467 		.ascii	"\354\026dgf\177\273\213\245\335I\012J\233\345\205c\223"
 153      667FBB8B 
 153      A5DD490A 
 153      4A9BE585 
 153      6393
 154 0206 63018700 		.ascii	"c\001\207\000\327c\310\026\235\315\022\035\362M\241"
 154      D763C816 
 154      9DCD121D 
 154      F24DA1
 155 0215 AAB21452 		.ascii	"\252\262\024R\360!_\231\345p\034/\360\263\233\342\030"
 155      F0215F99 
 155      E5701C2F 
 155      F0B39BE2 
 155      18
 156 0226 10624CBC 		.ascii	"\020bL\274\021v\321=7\346\356?[\027\305_\355\312\374"
 156      1176D13D 
 156      37E6EE3F 
 156      5B17C55F 
 156      EDCAFC
 157 0239 8E812AA2 		.ascii	"\216\201*\242\363dS\220%\262\366\242t\375a\245@\326"
 157      F3645390 
 157      25B2F6A2 
 157      74FD61A5 
 157      40D6
 158 024b 909B44DE 		.ascii	"\220\233D\336\033\357\337\035\305+6R%\203\255}\234\333"
ARM GAS  /tmp/ccyCEcZE.s 			page 12


 158      1BEFDF1D 
 158      C52B3652 
 158      2583AD7D 
 158      9CDB
 159 025d E7E8B498 		.ascii	"\347\350\264\230\010B\304\034\313=\356op\264:\031\354"
 159      0842C41C 
 159      CB3DEE6F 
 159      70B43A19 
 159      EC
 160 026e 86A1F6B0 		.ascii	"\206\241\366\260\352\240t\026\227\376T\244\203\240\233"
 160      EAA07416 
 160      97FE54A4 
 160      83A09B
 161 027d C6DA38D6 		.ascii	"\306\3328\326H\302\203\004\021\376Z\211p\311\270\320"
 161      48C28304 
 161      11FE5A89 
 161      70C9B8D0 
 162 028d D4929F57 		.ascii	"\324\222\237W\006x\232\0339\275\334\311\340\211\211"
 162      06789A1B 
 162      39BDDCC9 
 162      E08989
 163 029c C6760B0E 		.ascii	"\306v\013\016\304\304\353x\013zff_\272\344\272\264N"
 163      C4C4EB78 
 163      0B7A6666 
 163      5FBAE4BA 
 163      B44E
 164 02ae DDFE9FC9 		.ascii	"\335\376\237\311\376\022<\212\000\246<\033\244\317\251"
 164      FE123C8A 
 164      00A63C1B 
 164      A4CFA9
 165 02bd 45240E94 		.ascii	"E$\016\224H\254\223$\012.]\333O\225\004\003\210>\034"
 165      48AC9324 
 165      0A2E5DDB 
 165      4F950403 
 165      883E1C
 166 02d0 9958EAD4 		.ascii	"\231X\352\324\344u\033\261\336D\265\324\210KJ\235\261"
 166      E4751BB1 
 166      DE44B5D4 
 166      884B4A9D 
 166      B1
 167 02e1 C6F56A95 		.ascii	"\306\365j\225\017Oeg\320\276\031\355\345M\356\321\351"
 167      0F4F6567 
 167      D0BE19ED 
 167      E54DEED1 
 167      E9
 168 02f2 2F1650B4 		.ascii	"/\026P\264\376\203\024\311&\220\031\371!\273\367\265"
 168      FE8314C9 
 168      269019F9 
 168      21BBF7B5 
 169 0302 8A88BA13 		.ascii	"\212\210\272\023q\366s\"\352n\304]\202_\326\"\356\225"
 169      71F67322 
 169      EA6EC45D 
 169      825FD622 
 169      EE95
 170 0314 7DFDA61F 		.ascii	"}\375\246\037\276\367\372y\312\327O\326\341\253\350"
 170      BEF7FA79 
 170      CAD74FD6 
ARM GAS  /tmp/ccyCEcZE.s 			page 13


 170      E1ABE8
 171 0323 303AD5BF 		.ascii	"0:\325\277![\234\032DYQ96YD\366\246P\310p\277\211\264"
 171      215B9C1A 
 171      44595139 
 171      365944F6 
 171      A650C870 
 172 033a 91CA18C9 		.ascii	"\221\312\030\311D*\223667\207\267\204\273\015\263\335"
 172      442A9336 
 172      363787B7 
 172      84BB0DB3 
 172      DD
 173 034b 4CA4DAF6 		.ascii	"L\244\332\366\034\\\337\0312A73\335\311\320\032U,\306"
 173      1C5CDF19 
 173      32413733 
 173      DDC9D01A 
 173      552CC6
 174 035e 22605B77 		.ascii	"\"`[w\306\330\022\216l\213\030\361\003fG\327\3366\303"
 174      C6D8128E 
 174      6C8B18F1 
 174      036647D7 
 174      DE36C3
 175 0371 069A9D5B 		.ascii	"\006\232\235[\273\016\230\241v\320Sm\351\256\216Lm&"
 175      BB0E98A1 
 175      76D0536D 
 175      E9AE8E4C 
 175      6D26
 176 0383 91DCFEED 		.ascii	"\221\334\376\355\216T\302\214d\242\346\376`\2709\322"
 176      8E54C28C 
 176      64A2E6FE 
 176      60B839D2 
 177 0393 B8727553 		.ascii	"\270ruSc2\235\364\003\333\220\202`8\322,\244&R\373A"
 177      63329DF4 
 177      03DB9082 
 177      6038D22C 
 177      A42652FB 
 178 03a8 49014B27 		.ascii	"I\001K'\341\035\004+\263\203"
 178      E11D042B 
 178      B383
 179              		.text
 180              		.section	.gnu.lto_.symbol_nodes.f0ce06e69fa75b42,"",%progbits
 181 0000 789C4DC7 		.ascii	"x\234M\307\261\015\3020\024E\321\367\376\217![d6&y\216"
 181      B10DC230 
 181      1445D1F7 
 181      FE8F215B 
 181      64362679 
 182 0015 9150040D 		.ascii	"\221P\004\015\015\2530\000\003PR3@\032 i\001E\266\024"
 182      0DAB3000 
 182      03505233 
 182      401A2069 
 182      0145B614 
 183 0029 DFE6EA18 		.ascii	"\337\346\352\030\014W\224\354\007\001\347; ]\206\235"
 183      0C5794EC 
 183      0701E73B 
 183      205D869D 
 184 0039 458A157B 		.ascii	"E\212\025{\312*&\312+\276\250\246\3601\320\336TX\311"
 184      CA2A26CA 
 184      2BBEA8A6 
ARM GAS  /tmp/ccyCEcZE.s 			page 14


 184      F031D0DE 
 184      5458C9
 185 004c 89DA64C6 		.ascii	"\211\332d\306\236\234\251\355\252\017\325\026E\272\001"
 185      9E9CA9ED 
 185      AA0FD516 
 185      45BA01
 186 005b E9F9A53B 		.ascii	"\351\371\245;\363\033\307\3550v\036,;\264\330\037\027"
 186      F31BC7ED 
 186      30761E2C 
 186      3BB4D81F 
 186      17
 187 006c 3BD269EC 		.ascii	";\322i\354\360\007\212\251:\011"
 187      F0078AA9 
 187      3A09
 188              		.text
 189              		.section	.gnu.lto_.refs.f0ce06e69fa75b42,"",%progbits
 190 0000 789C6362 		.ascii	"x\234cb`b`g\200\000&V&6&v\006\000\001&\000$"
 190      60626067 
 190      80002656 
 190      26362676 
 190      06000126 
 191              		.text
 192              		.section	.gnu.lto_.decls.f0ce06e69fa75b42,"",%progbits
 193 0000 789C9D58 		.ascii	"x\234\235Xop\023\307\025\337=I\266U;.q\010c>\264\210"
 193      6F7013C7 
 193      15DF3D49 
 193      B6553B2E 
 193      7108633E 
 194 0016 69D3C9A4 		.ascii	"i\323\311\244)\"\2443\245_\002F\206\3323u\242\221\002"
 194      2922A433 
 194      A55F0246 
 194      86DA3375 
 194      A29102
 195 0029 D30F1D8E 		.ascii	"\323\017\035\216\253,\260&\262eN\347`\372%\353\177\205"
 195      AB2CB026 
 195      B2654EE7 
 195      60FA25EB 
 195      7F85
 196 003b A469A210 		.ascii	"\244i\242\020C\015\244`Cp\342\306\014\004\010\341\277"
 196      430DA460 
 196      4370E2C6 
 196      0C0408E1 
 196      BF
 197 004c 85334E49 		.ascii	"\2053NIBKh\213I\343\014h\246M2m\207\2224\356L\2320u"
 197      424B688B 
 197      49E30C68 
 197      A64D326D 
 197      879234EE 
 198 0064 DFEEFDD1 		.ascii	"\337\356\375\321\335\351\026\337\345\306\373\264\322"
 198      DDE916DF 
 198      E5C6FBB4 
 198      D2
 199 0071 BDF77BBF 		.ascii	"\275\367{\277\367\366\355\273=\013H@s\005\204f\340\372"
 199      F7F6EDBB 
 199      3D0B4840 
 199      73058466 
 199      E0FA
ARM GAS  /tmp/ccyCEcZE.s 			page 15


 200 0083 E97C84E6 		.ascii	"\351|\204\346\373\020*G\010=\204\212W\020\306\020\214"
 200      FB102A47 
 200      083D848A 
 200      5710C610 
 200      8C
 201 0094 61182330 		.ascii	"a\030#0Fa\034\202q\004\306k0^\207q\022\225^\324&\000"
 201      46611C82 
 201      7104C66B 
 201      305E8771 
 201      12955ED4 
 202 00aa 630C4635 		.ascii	"c\014F5\214*\030\0230\336\326\356\013\232\316E\007\333"
 202      8C2A1813 
 202      30DED6EE 
 202      0B9ACE45 
 202      07DB
 203 00bc 6117B6C3 		.ascii	"a\027\266\303\034\333\021\355\376\025\030\373L\372#"
 203      1CDB11ED 
 203      FE1518FB 
 203      4CFA23
 204 00cb 9A3FFB35 		.ascii	"\232?\3735\312\321\037\325|\330/\032;\315I\271\211\333"
 204      CAD11FD5 
 204      7CD82F1A 
 204      3BCD49B9 
 204      89DB
 205 00dd A4C6F586 		.ascii	"\244\306\365\206\306\323\214\345\327ln\302\230\326p"
 205      C6D38CE5 
 205      D76C6EC2 
 205      98D670
 206 00ec 318C2F6C 		.ascii	"1\214/l\2704\23750\2764\341R\037\247M\370:n\000\000"
 206      B8349F35 
 206      30BE34E1 
 206      521FA74D 
 206      F83A6E00 
 207 0101 6E69FEA6 		.ascii	"ni\376\246`\\\205\261L\363\275\014\356\235\202O\037"
 207      605C85B1 
 207      4CF3BD0C 
 207      EE9D824F 
 207      1F
 208 0112 F50DF37F 		.ascii	"\365\015\363\177\302\347\337aTh>FL\\\350\272\351k\250"
 208      C2E7DF61 
 208      54683E46 
 208      4C5CE8BA 
 208      E96BA8
 209 0125 E76139D8 		.ascii	"\347a9\330\324a+\267\005h\017\311\277[\350\373\350\257"
 209      D4612BB7 
 209      05680FC9 
 209      BF5BE8FB 
 209      E8AF
 210 0137 C24E92EF 		.ascii	"\302N\222\357%P.\004\207\346\241\355\004\256\301_\020"
 210      25502E04 
 210      87E6A1ED 
 210      04AEC15F 
 210      10
 211 0148 8215093F 		.ascii	"\202\025\011?t7\372\011\226pu\020\205\330\244*\310b"
 211      7437FA09 
 211      96707510 
 211      85D8A42A 
ARM GAS  /tmp/ccyCEcZE.s 			page 16


 211      C862
 212 015a 4748C2FB 		.ascii	"GH\302\373\360<m\266\332\247g8\214\321}h\004\354s\204"
 212      F03C6DB6 
 212      DAA76738 
 212      8CD17D68 
 212      04EC7384 
 213 016e ECFBA643 		.ascii	"\354\373\246C\242\021\372\016:@\035\220\227\211\217"
 213      A211FA0E 
 213      3A401D90 
 213      97898F
 214 017d C1538021 		.ascii	"\301S\200!\274\300\254\"\341\375X(\245\232\317]\257"
 214      BCC0AC22 
 214      E1FD5828 
 214      A59ACF5D 
 214      AF
 215 018e CA751566 		.ascii	"\312u\025ff\366\016\316Q\335\01340\011\277\210\357\273"
 215      66F60ECE 
 215      51DD0B34 
 215      3009BF88 
 215      EFBB
 216 01a0 2DFCB01D 		.ascii	"-\374\260\035\376%G\370s\245\360?v\003?b\207\377\255"
 216      FE2547F8 
 216      73A5F03F 
 216      76033F62 
 216      87FFAD
 217 01b3 23FC7429 		.ascii	"#\374t)\274\350\006~\324\016\177\260\024~0_\370\313"
 217      BCE8067E 
 217      D40E7FB0 
 217      147E305F 
 217      F8CB
 218 01c5 96B1B2E2 		.ascii	"\226\261\262\342:\"\335\305\020v\343\343\220\335\307"
 218      3A22DDC5 
 218      1076E3E3 
 218      90DDC7
 219 01d4 61271FF9 		.ascii	"a'\037\371\351\337i!\204t\370\203\256\340\217\330\341"
 219      E9DF6921 
 219      8474F883 
 219      AEE08FD8 
 219      E1
 220 01e5 8F96C217 		.ascii	"\217\226\302\027r\205\211/\306\361N2NCx\302\010 _\342"
 220      7285892F 
 220      C6F14E32 
 220      4E4378C2 
 220      08205FE2 
 221 01f9 418538EE 		.ascii	"A\2058\356\004\221\237\274\3724\301\214\343\002\035"
 221      04919FBC 
 221      FA34C18C 
 221      E3021D
 222 0208 60920370 		.ascii	"`\222\003p\302\221\303\261g?\25058X6C\005\332BH7)\364"
 222      C291C3B1 
 222      673FA835 
 222      38583643 
 222      05DA4248 
 223 021f 912EBC11 		.ascii	"\221.\274\021\351\333\242B\337\026tw\335\203^Tk_\220"
 223      E9DBA242 
 223      DF167477 
 223      DD835E54 
ARM GAS  /tmp/ccyCEcZE.s 			page 17


 223      6B5F90
 224 0232 F0695C01 		.ascii	"\360i\\\001\316\237\021l\273\256\350\237*\320\213\332"
 224      CE9F116C 
 224      BBAEE89F 
 224      2AD08BDA 
 225 0242 AB737D86 		.ascii	"\253s}\206\021w\323\235r\330t\375\202s\200\347\254\001"
 225      1177D39D 
 225      72D874FD 
 225      827380E7 
 225      AC01
 226 0254 06D156CA 		.ascii	"\006\321V\312\037\202i\270P\355\354\201\361\317\025"
 226      1F8269B8 
 226      50EDEC81 
 226      F1CF15
 227 0263 CE3E3F71 		.ascii	"\316>?q\036wC\314\022\036\303A\360p\321\346\301=\324"
 227      1E7743CC 
 227      121EC341 
 227      F070D1E6 
 227      C13DD4
 228 0276 D48E333F 		.ascii	"\324\2163?$\244B\302\343\014\250\307g\005\222py\320"
 228      24A442C2 
 228      E30CA8C7 
 228      67059270 
 228      79D0
 229 0288 4A1ABEEB 		.ascii	"J\032\276\353\012\024\215\335\326&\364\201\366u\344"
 229      0A148DDD 
 229      D626F481 
 229      F675E4
 230 0297 55FD4E94 		.ascii	"U\375N\224ck\270|\240Z\243]8@jkg_\3007\031\343g|\334"
 230      636BB87C 
 230      A05AA35D 
 230      38406A6B 
 230      675FC037 
 231 02b0 05A40AFA 		.ascii	"\005\244\012\372\002\252s}6S\\\3019:\274\240YM\340;"
 231      02AA737D 
 231      36535CC1 
 231      393ABCA0 
 231      594DE03B 
 232 02c4 8B39245A 		.ascii	"\2139$Z\016\231\006o\315\3372\371\251\012\026':1-\302"
 232      0E99066F 
 232      CDDF32F9 
 232      A90A1627 
 232      3A312DC2 
 233 02d8 D040B5EA 		.ascii	"\320@\265\352]\303Y\252\353\225k8o{\366\374\016\307"
 233      5DC359AA 
 233      EB956B38 
 233      6F7BF6FC 
 233      0EC7
 234 02ea 7399E659 		.ascii	"s\231\346Y{\204\\\335\365a\355\177\217\020\362$\371"
 234      7B845CDD 
 234      F561ED7F 
 234      8F10F224 
 234      F9
 235 02fb DFCC135D 		.ascii	"\337\314\023]\275\013\335?C~\257\225\263OM\217Zo\305"
 235      BD0BDD3F 
 235      437EAF95 
 235      B34F4D8F 
ARM GAS  /tmp/ccyCEcZE.s 			page 18


 235      5A6FC5
 236 030e DA46B4BC 		.ascii	"\332F\264\274\337\260\324\014\323\024\320e}Y\276\215"
 236      DFB0D40C 
 236      D314D065 
 236      7D59BE8D 
 237 031e F613B28D 		.ascii	"\366\023\262\215\\~\263*g\224\353ufq\021\232\216\223"
 237      5C7EB32A 
 237      6794EB75 
 237      6671119A 
 237      8E93
 238 0330 5F550B19 		.ascii	"_U\013\031\235\352\263\256h\255\321\251.\332;\325%\353"
 238      9DEAB3AE 
 238      68ADD1A9 
 238      2EDA3BD5 
 238      25EB
 239 0342 26AA444F 		.ascii	"&\252DO\025+_\3550\274\330\256\340JG\253\032\364\034"
 239      152B5FED 
 239      30BCD8AE 
 239      E04A47AB 
 239      1AF41C
 240 0355 5B2ED3CE 		.ascii	"[.\323\316!\202n\034b!\177\310\002\270\212k\264\300"
 240      21826E1C 
 240      62217FC8 
 240      02B88A6B 
 240      B4C0
 241 0367 D5B22C4C 		.ascii	"\325\262,L\334<\217\331f\242w\220\303\236\327\256\205"
 241      DC3C8FD9 
 241      66A27790 
 241      C39ED7AE 
 241      85
 242 0378 6810DCE5 		.ascii	"h\020\334\345g\376\320?\237\014\216c\033g\316rh\033"
 242      67FED03F 
 242      9F0C8E63 
 242      1B67CE72 
 242      681B
 243 038a F64FD73F 		.ascii	"\366O\327?\372\024w\261\275?\005\226\002\332\345\267"
 243      FA1477B1 
 243      BD3F0596 
 243      02DAE5B7 
 244 039a 6FD96595 		.ascii	"o\331e\225fg\354\273IA@\373\375:{'?F-\351\205U\035\264"
 244      6667ECBB 
 244      494140FB 
 244      FD3A7B27 
 244      3F462DE9 
 245 03b2 F22EF4FD 		.ascii	"\362.\364\375\373-v\"\361\351\024\206=\003\206,\211"
 245      FB2D7622 
 245      F1E91486 
 245      3D03862C 
 245      89
 246 03c3 D876A92A 		.ascii	"\330v\251*'\351`#n\300*\270\354\362\375f\260Q\317`V"
 246      27E96023 
 246      6EC02AB8 
 246      ECF2FD66 
 246      B051CF60 
 247 03d8 663BCC60 		.ascii	"f;\314`\207\334\200\315\3413\0330\203\035\365\014fe"
 247      87DC80CD 
 247      E1331B30 
ARM GAS  /tmp/ccyCEcZE.s 			page 19


 247      831DF50C 
 247      6665
 248 03ea B6CB0C76 		.ascii	"\266\313\014v\312\015X-\237\331\013f\260\263\236\301"
 248      CA0D582D 
 248      9FD90B66 
 248      B0B39EC1 
 249 03fa 42B6FAE6 		.ascii	"B\266\372\346\355\270\311\342\216\343\364\304Z\335\304"
 249      EDB8C9E2 
 249      8EE3F4C4 
 249      5ADDC4
 250 0409 A799DCF0 		.ascii	"\247\231\334\360\334\023\377\305\351\211z\2330z\342"
 250      DC13FFC5 
 250      E9897A9B 
 250      307AE2
 251 0418 8D49FCEB 		.ascii	"\215I\374\353\036r\201|\002\217\241\301\255\202\255"
 251      1E72817C 
 251      028FA1C1 
 251      AD82AD
 252 0427 298E61BE 		.ascii	")\216a\276\213O\034\036\362\343\376\222.(\341\313\305"
 252      8B4F1C1E 
 252      F2E3FE92 
 252      2E28E1CB 
 252      C5
 253 0438 E6C49A59 		.ascii	"\346\304\232Y79\3622\011\352\015N\30279-PC\377\324\361"
 253      3739F232 
 253      09EA0D4E 
 253      C237392D 
 253      5043FFD4 
 254 044d 9CFAD9D4 		.ascii	"\234\372\331\324\031h\033\320>f\306\310B\277\332\243"
 254      19681BD0 
 254      3E66C6C8 
 254      42BFDAA3 
 255 045d E108705B 		.ascii	"\341\010p[\377Z\027>i\356\302\223\314b\372\253t\341"
 255      FF5A173E 
 255      69EEC293 
 255      CC62FAAB 
 255      74E1
 256 046f 697B17FE 		.ascii	"i{\027\376\217\225i\010\355\205^\225\277<EB!\3473\354"
 256      8F956908 
 256      ED855E95 
 256      BF3C4542 
 256      21E733EC 
 257 0483 6C1DB760 		.ascii	"l\035\267`<\366\2376\236\373\271\302\356\217?\377y\017"
 257      3CF69F36 
 257      9EFBB9C2 
 257      EE8F3FFF 
 257      790F
 258 0495 EB7DB7A0 		.ascii	"\353}\267\240<\005\264-`\355}\263\003Q\"3\266\276\235"
 258      3C05B42D 
 258      60ED7DB3 
 258      03512233 
 258      B6BE9D
 259 04a8 7FEE5A15 		.ascii	"\177\356Z\025\361\253\277\317\322\265\373{\362\333\257"
 259      F1ABBFCF 
 259      D2B5FB7B 
 259      F2DBAF
 260 04b7 A95D9B55 		.ascii	"\251]\233Ud\017D\220\347\236\261$\234\307\367\270:\004"
ARM GAS  /tmp/ccyCEcZE.s 			page 20


 260      640F4490 
 260      E79EB124 
 260      9CC7F7B8 
 260      3A04
 261 04c9 0968370B 		.ascii	"\011h7\013e\346\2535\345\336\236\374\216k\260\205\015"
 261      65E6AB35 
 261      E5DE9EFC 
 261      8E6BB085 
 261      0D
 262 04da 4EFC739F 		.ascii	"N\374s\237\027NC\2369\205,\234\006\256\261\266\322'"
 262      174E439E 
 262      39852C9C 
 262      06AEB1B6 
 262      D227
 263 04ec D0721B76 		.ascii	"\320r\033v\003\306\353\353\000\266\313\014\366\212g"
 263      03C6EBEB 
 263      00B6CB0C 
 263      F68A67
 264 04fb 302BB317 		.ascii	"0+\263\027\314`\257\272\001\343\365u\000\333c\006{\315"
 264      CC60AFBA 
 264      01E3F575 
 264      00DB6306 
 264      7BCD
 265 050d 33989959 		.ascii	"3\230\231YW\376\360\332\303\353\212\315Q[Pz\"\036(."
 265      57FEF0DA 
 265      C3EB8ACD 
 265      515B507A 
 265      221E282E 
 266 0521 68E99198 		.ascii	"h\351\221\230\276\023\034\374.\234=LGh\236\201\204\267"
 266      BE131CFC 
 266      2E9C3D4C 
 266      47689E81 
 266      84B7
 267 0533 09B402B0 		.ascii	"\011\264\002\260\265\002\214\003\262v>\026\320\311\200"
 267      B5028C03 
 267      B2763E16 
 267      D0C980
 268 0542 E35B850B 		.ascii	"\343[\205\0132S;\366,e\007\241\355,'\347\003\366#\012"
 268      32533BF6 
 268      2C6507A1 
 268      ED2C27E7 
 268      03F6230A 
 269 0556 B6BD55CC 		.ascii	"\266\275U\314\302\305\213\256Fk\235N\253\212\231\231"
 269      C2C58BAE 
 269      466B9D4E 
 269      AB8A9999 
 270 0566 9F37CF0B 		.ascii	"\2377\317\013A\216\226\204\007\004\257\317\233\235\202"
 270      418E9684 
 270      0704AFCF 
 270      9B9D82
 271 0575 F3F3A6D2 		.ascii	"\363\363\246\322BZ\327\202l\274c\257\020\013\211Y\036"
 271      425AD782 
 271      6CBC63AF 
 271      100B8959 
 271      1E
 272 0586 D6BD3DD0 		.ascii	"\326\275=\320\004/l\036\241\247\3712\275\346.\271\251"
 272      042F6C1E 
ARM GAS  /tmp/ccyCEcZE.s 			page 21


 272      A1A7F932 
 272      BDE62EB9 
 272      A9
 273 0597 B9107F37 		.ascii	"\271\020\1777\0343\027\360\0257`\367\362w\303q3\330"
 273      1C3317F0 
 273      153760F7 
 273      F277C371 
 273      33D8
 274 05a9 FB9EC1AC 		.ascii	"\373\236\301\254\314N\230\301\256\273\001[\314gv\312"
 274      CC4E98C1 
 274      AEBB015B 
 274      CC6776CA 
 275 05b9 0CF637CF 		.ascii	"\014\3667\317`Vfg\314`\377p\003\266\224\317\354\234"
 275      60566667 
 275      CC60FF70 
 275      03B694CF 
 275      EC9C
 276 05cb 19ECA667 		.ascii	"\031\354\246g0\023\263\376\256\374\273ks\222\361RM\213"
 276      3013B3FE 
 276      AEFCBB6B 
 276      7392F152 
 276      4D8B
 277 05dd B7BB58EF 		.ascii	"\267\273X\357\313\255\275\321\242f:\361\330\324$\374"
 277      CBADBDD1 
 277      A2663AF1 
 277      D8D424FC 
 278 05ed 8AB62D8A 		.ascii	"\212\266-\212/\273\366\257\002\232\266\363\266\240h"
 278      2FBBF6AF 
 278      029AB6F3 
 278      B6A068
 279 05fc D3E59C24 		.ascii	"\323\345\234$\300\203\365\217j\022\272Y\022>w\223\204"
 279      C083F58F 
 279      6A12BA59 
 279      123E7793 
 279      84
 280 060d 063ED89F 		.ascii	"\006>\330\237\315`\267<\203Y3:Y\314h\310\226P\202\255"
 280      CD60B73C 
 280      8359333A 
 280      59CC68C8 
 280      965082AD 
 281 0621 3DDDAC66 		.ascii	"=\335\254fJ\250]M\302G=7\232c\234FS|\0277kA\330\244"
 281      4AA85D4D 
 281      C2473D37 
 281      9A639C46 
 281      537C1737 
 282 0639 CC16B695 		.ascii	"\314\026\266\225\2056\215\362\222\330\225\177\217\037"
 282      85368DF2 
 282      92D8957F 
 282      8F1F
 283 0647 F7A00135 		.ascii	"\367\240\0015\367vq\333\325$|\302s\334'9q\033\007e\213"
 283      F77671DB 
 283      D5247CC2 
 283      73DC2739 
 283      711B0765 
 284 065c 16C4DD67 		.ascii	"\026\304\335g\217\333\312B\233\256\343\304\015\347\301"
 284      8FDBCA42 
 284      9BAEE3C4 
ARM GAS  /tmp/ccyCEcZE.s 			page 22


 284      0DE7C1
 285 066b F7D7D2DA 		.ascii	"\367\327\322\332\241L\005\364\224+\260vN\361\300\336"
 285      A14C05F4 
 285      942BB076 
 285      4EF1C0DE 
 286 067b FEC0BCB7 		.ascii	"\376\300\274\267\373\355hN\225\270\025;Ps\272\314GY"
 286      FBED684E 
 286      95B8153B 
 286      5073BACC 
 286      4759
 287 068d 0913F654 		.ascii	"\011\023\366T\357\022\026\202\354er\013\223O2\371K&"
 287      EF121682 
 287      EC65720B 
 287      934F32F9 
 287      4B26
 288 069f 7FC5E4B3 		.ascii	"\177\305\344\263L\356f\3627L\356er\210\311\375L\036"
 288      4CEE66F2 
 288      374CEE65 
 288      7288C9FD 
 288      4C1E
 289 06b1 60F22526 		.ascii	"`\362%&G\230<\310\344!&_e\3628\223\247\231<\013\322"
 289      47983CC8 
 289      E421265F 
 289      65F23893 
 289      A7993C0B 
 290 06c6 B8784BF9 		.ascii	"\270xK\371%\347_.\352\377MyVc\202a\245\276X\300\313"
 290      25E75F2E 
 290      EAFF4D79 
 290      56638261 
 290      A5BE58C0 
 291 06db DBF43CD2 		.ascii	"\333\364<\322[\341\374\377k\246C\012\357m\371X\340\352"
 291      5BE1FCFF 
 291      6BA6430A 
 291      EF6DF958 
 291      E0EA
 292 06ed A0FB172D 		.ascii	"\240\373\027-\012\033\177\231lXV\302\355\031Y\311\206"
 292      0A1B7F99 
 292      6C5856C2 
 292      ED1959C9 
 292      86
 293 06fe EB624D91 		.ascii	"\353bM\221\246\316p\242%\221\221\223\342\343?h]\324"
 293      A6CE70A2 
 293      25919193 
 293      E2E33F68 
 293      5DD4
 294 0710 8282F496 		.ascii	"\202\202\364\226\230\316$\036+\373\321\303\253C\021"
 294      98CE241E 
 294      2BFBD1C3 
 294      AB4311
 295 071f 54C97EE8 		.ascii	"T\311~\350h\243?\325\0307\305\365r\246ULe\345\271\246"
 295      68A33FD5 
 295      1837C5F5 
 295      72A6554C 
 295      65E5B9A6 
 296 0733 DBC68F1E 		.ascii	"\333\306\217\036<&Pe|MDl\220\332\232\323I\271Fdp)y\243"
 296      3C265065 
 296      7C4D446C 
ARM GAS  /tmp/ccyCEcZE.s 			page 23


 296      90DA9AD3 
 296      49B94664 
 297 074b 986C4FA5 		.ascii	"\230lO\2453\033:\222w\253?e7\245\224D\213\341\341.\365"
 297      331B3A92 
 297      77AB3F65 
 297      37A59444 
 297      8BE1E12E 
 298 0760 D764674A 		.ascii	"\327dgJ1~\373V\251\327T[\"\335\321\234\004\207\331D"
 298      317EFB56 
 298      A9D7545B 
 298      22DDD19C 
 298      0487D944 
 299 0774 4B338417 		.ascii	"K3\204\027\020Wd2\351\371\211\226x\242\2451\033\225"
 299      10576432 
 299      E9F98996 
 299      78A2A531 
 299      1B95
 300 0786 93C9D676 		.ascii	"\223\311\326v%\225i\213%7v\244\344d\3637\302\035Y\331"
 300      2595698B 
 300      253776A4 
 300      E464F337 
 300      C21D59D9 
 301 079a 306B4B6E 		.ascii	"0kKnJ\247~\026\316*\315\2516\005\254+:\340\363\301%"
 301      4AA77E16 
 301      CE2ACDA9 
 301      3605AC2B 
 301      3AE0F3C1 
 302 07af A2F23D27 		.ascii	"\242\362='\265V)\321\222jK\206\305\346\344z\251#\255"
 302      B55629D1 
 302      926A4B86 
 302      C5E6E47A 
 302      A923AD
 303 07c2 88CAE6F6 		.ascii	"\210\312\346\366d\026\314\276&\212\272\241?\321"
 303      6416CCBE 
 303      268ABAA1 
 303      3FD1
 304 07d0 22C9611B 		.ascii	"\"\311a\033\321d\247\022\2164\305\033\343E\2764=\211"
 304      D164A712 
 304      8E34C51B 
 304      E345BE34 
 304      3D89
 305 07e2 D6551D6D 		.ascii	"\326U\035m\011\260\277C\024\263IE\\Q\027_\031\2155\336"
 305      09B0BF43 
 305      14B34945 
 305      5C51175F 
 305      198D35DE 
 306 07f6 21A53749 		.ascii	"!\2457I\233\263b\252-\015\336\002\217K\351\216d\245"
 306      9BB362AA 
 306      2D0DDE02 
 306      8F4BE98E 
 306      64A5
 307 0808 960D25A1 		.ascii	"\226\015%\241t\336\353*\3714\0329\271A\222[EE\220\027"
 307      74DEEB2A 
 307      F9341A39 
 307      B941925B 
 307      45459017 
 308 081c 0BF20382 		.ascii	"\013\362\003\202\274D\220\037\364\311\017,)K\313\242"
ARM GAS  /tmp/ccyCEcZE.s 			page 24


 308      BC44901F 
 308      F4C90F2C 
 308      294BCBA2 
 309 082c D2D22CB4 		.ascii	"\322\322,\264'\374\235\355Y9(\212\033\300}4\036\015"
 309      27FC9DED 
 309      5939288A 
 309      1BC07D34 
 309      1E0D
 310 083e AA446056 		.ascii	"\252D`V\255d\332\037Y\037\2253\211\270\"%\036\263/8"
 310      AD64DA1F 
 310      591F9533 
 310      89B82225 
 310      1EB32F38 
 311 0852 37A2EF53 		.ascii	"7\242\357S\277\361\310\012\361Q\310M \022]\335X\357"
 311      BFF1C80A 
 311      F151C84D 
 311      20125DDD 
 311      58EF
 312 0864 6F8CC463 		.ascii	"o\214\304c\3765\217>\022\013\3245\306\"1_\034F$\022"
 312      FE358F3E 
 312      120BD435 
 312      C622315F 
 312      1C462412 
 313 0878 2BA7395B 		.ascii	"+\2479[**A5{0\363\305\033\242\201x\003U\217\254\002"
 313      2A2A4135 
 313      7B30F3C5 
 313      1BA28178 
 313      03558FAC 
 314 088d D140453D 		.ascii	"\321@E=\210@S\323\252\272\230\177\005\025u\360\335\027"
 314      884053D3 
 314      AABA987F 
 314      051575F0 
 314      DD17
 315 089f 5D15F3D5 		.ascii	"]\025\363\325\303\250\253\217\371\341^\314\337\030\257"
 315      C3A8AB8F 
 315      F9E15ECC 
 315      DF18AF
 316 08ae 8B05632B 		.ascii	"\213\005c+\343+ckV\326/\006\307u\221\330\377\001\246"
 316      E32B636B 
 316      56D62F06 
 316      C77591D8 
 316      FF01A6
 317 08c1 3DBAE7   		.ascii	"=\272\347"
 318              		.text
 319              		.section	.gnu.lto_.symtab.f0ce06e69fa75b42,"",%progbits
 320 0000 5356435F 		.ascii	"SVC_Handler\000\000\000\000\000\000\000\000\000\000"
 320      48616E64 
 320      6C657200 
 320      00000000 
 320      00000000 
 321 0015 0000AF00 		.ascii	"\000\000\257\000\000\000_port_irq_epilogue\000\000\000"
 321      00005F70 
 321      6F72745F 
 321      6972715F 
 321      6570696C 
 322 0030 00000000 		.ascii	"\000\000\000\000\000\000\000\000\000\262\000\000\000"
 322      00000000 
ARM GAS  /tmp/ccyCEcZE.s 			page 25


 322      00B20000 
 322      00
 323 003d 5F706F72 		.ascii	"_port_switch_from_isr\000\000\002\000\000\000\000\000"
 323      745F7377 
 323      69746368 
 323      5F66726F 
 323      6D5F6973 
 324 005a 00000000 		.ascii	"\000\000\000\000\265\000\000\000_port_exit_from_isr"
 324      B5000000 
 324      5F706F72 
 324      745F6578 
 324      69745F66 
 325 0075 00000200 		.ascii	"\000\000\002\000\000\000\000\000\000\000\000\000\267"
 325      00000000 
 325      00000000 
 325      B7
 326 0082 00000063 		.ascii	"\000\000\000chSchIsPreemptionRequired\000\000\002\000"
 326      68536368 
 326      49735072 
 326      65656D70 
 326      74696F6E 
 327 00a2 00000000 		.ascii	"\000\000\000\000\000\000\000\000\271\000\000\000"
 327      00000000 
 327      B9000000 
 328              		.text
 329              		.section	.gnu.lto_.opts,"",%progbits
 330 0000 272D6D63 		.ascii	"'-mcpu=cortex-m4' '-mno-thumb-interwork' '-mthumb' "
 330      70753D63 
 330      6F727465 
 330      782D6D34 
 330      2720272D 
 331 0033 272D6767 		.ascii	"'-ggdb' '-O0' '-fomit-frame-pointer' '-falign-funct"
 331      64622720 
 331      272D4F30 
 331      2720272D 
 331      666F6D69 
 332 0066 696F6E73 		.ascii	"ions=16' '-ffunction-sections' '-fdata-sections' '-"
 332      3D313627 
 332      20272D66 
 332      66756E63 
 332      74696F6E 
 333 0099 666E6F2D 		.ascii	"fno-common' '-flto'\000"
 333      636F6D6D 
 333      6F6E2720 
 333      272D666C 
 333      746F2700 
 334              		.text
 335              		.cfi_sections	.debug_frame
 336              		.section	.text.port_lock,"ax",%progbits
 337              		.align	2
 338              		.p2align 4,,15
 339              		.thumb
 340              		.thumb_func
 341              		.type	port_lock, %function
 342              	port_lock:
 343              	.LFB127:
 344              		.file 1 "../../../../os/rt/ports/ARMCMx/chcore_v7m.h"
ARM GAS  /tmp/ccyCEcZE.s 			page 26


 345              		.loc 1 456 0
 346              		.cfi_startproc
 347              		@ args = 0, pretend = 0, frame = 8
 348              		@ frame_needed = 0, uses_anonymous_args = 0
 349              		@ link register save eliminated.
 350 0000 82B0     		sub	sp, sp, #8
 351              		.cfi_def_cfa_offset 8
 352 0002 2023     		movs	r3, #32
 353 0004 0193     		str	r3, [sp, #4]
 354              	.LBB15:
 355              	.LBB16:
 356              		.file 2 "../../../../os/ext/CMSIS/include/core_cmFunc.h"
 357              		.loc 2 548 0
 358 0006 019B     		ldr	r3, [sp, #4]
 359              	@ 548 "../../../../os/ext/CMSIS/include/core_cmFunc.h" 1
 360 0008 83F31188 		MSR basepri, r3
 361              	@ 0 "" 2
 362              		.thumb
 363              	.LBE16:
 364              	.LBE15:
 365              		.loc 1 473 0
 366 000c 02B0     		add	sp, sp, #8
 367              		@ sp needed
 368 000e 7047     		bx	lr
 369              		.cfi_endproc
 370              	.LFE127:
 371              		.size	port_lock, .-port_lock
 372              		.section	.text.port_unlock,"ax",%progbits
 373              		.align	2
 374              		.p2align 4,,15
 375              		.thumb
 376              		.thumb_func
 377              		.type	port_unlock, %function
 378              	port_unlock:
 379              	.LFB128:
 380              		.loc 1 480 0
 381              		.cfi_startproc
 382              		@ args = 0, pretend = 0, frame = 8
 383              		@ frame_needed = 0, uses_anonymous_args = 0
 384              		@ link register save eliminated.
 385 0000 82B0     		sub	sp, sp, #8
 386              		.cfi_def_cfa_offset 8
 387 0002 0023     		movs	r3, #0
 388 0004 0193     		str	r3, [sp, #4]
 389              	.LBB17:
 390              	.LBB18:
 391              		.loc 2 548 0
 392 0006 019B     		ldr	r3, [sp, #4]
 393              	@ 548 "../../../../os/ext/CMSIS/include/core_cmFunc.h" 1
 394 0008 83F31188 		MSR basepri, r3
 395              	@ 0 "" 2
 396              		.thumb
 397              	.LBE18:
 398              	.LBE17:
 399              		.loc 1 487 0
 400 000c 02B0     		add	sp, sp, #8
 401              		@ sp needed
ARM GAS  /tmp/ccyCEcZE.s 			page 27


 402 000e 7047     		bx	lr
 403              		.cfi_endproc
 404              	.LFE128:
 405              		.size	port_unlock, .-port_unlock
 406              		.section	.text.port_lock_from_isr,"ax",%progbits
 407              		.align	2
 408              		.p2align 4,,15
 409              		.thumb
 410              		.thumb_func
 411              		.type	port_lock_from_isr, %function
 412              	port_lock_from_isr:
 413              	.LFB129:
 414              		.loc 1 495 0
 415              		.cfi_startproc
 416              		@ args = 0, pretend = 0, frame = 0
 417              		@ frame_needed = 0, uses_anonymous_args = 0
 418 0000 08B5     		push	{r3, lr}
 419              		.cfi_def_cfa_offset 8
 420              		.cfi_offset 3, -8
 421              		.cfi_offset 14, -4
 422              		.loc 1 497 0
 423 0002 FFF7FEFF 		bl	port_lock
 424              		.loc 1 498 0
 425 0006 08BD     		pop	{r3, pc}
 426              		.cfi_endproc
 427              	.LFE129:
 428              		.size	port_lock_from_isr, .-port_lock_from_isr
 429 0008 AFF30080 		.section	.text.port_unlock_from_isr,"ax",%progbits
 429      AFF30080 
 430              		.align	2
 431              		.p2align 4,,15
 432              		.thumb
 433              		.thumb_func
 434              		.type	port_unlock_from_isr, %function
 435              	port_unlock_from_isr:
 436              	.LFB130:
 437              		.loc 1 506 0
 438              		.cfi_startproc
 439              		@ args = 0, pretend = 0, frame = 0
 440              		@ frame_needed = 0, uses_anonymous_args = 0
 441 0000 08B5     		push	{r3, lr}
 442              		.cfi_def_cfa_offset 8
 443              		.cfi_offset 3, -8
 444              		.cfi_offset 14, -4
 445              		.loc 1 508 0
 446 0002 FFF7FEFF 		bl	port_unlock
 447              		.loc 1 509 0
 448 0006 08BD     		pop	{r3, pc}
 449              		.cfi_endproc
 450              	.LFE130:
 451              		.size	port_unlock_from_isr, .-port_unlock_from_isr
 452 0008 AFF30080 		.section	.text.SVC_Handler,"ax",%progbits
 452      AFF30080 
 453              		.align	2
 454              		.p2align 4,,15
 455              		.global	SVC_Handler
 456              		.thumb
ARM GAS  /tmp/ccyCEcZE.s 			page 28


 457              		.thumb_func
 458              		.type	SVC_Handler, %function
 459              	SVC_Handler:
 460              	.LFB241:
 461              		.file 3 "../../../../os/rt/ports/ARMCMx/chcore_v7m.c"
 462              		.loc 3 62 0
 463              		.cfi_startproc
 464              		@ args = 0, pretend = 0, frame = 8
 465              		@ frame_needed = 0, uses_anonymous_args = 0
 466 0000 10B5     		push	{r4, lr}
 467              		.cfi_def_cfa_offset 8
 468              		.cfi_offset 4, -8
 469              		.cfi_offset 14, -4
 470 0002 82B0     		sub	sp, sp, #8
 471              		.cfi_def_cfa_offset 16
 472              	.LBB19:
 473              	.LBB20:
 474              		.loc 2 430 0
 475              	@ 430 "../../../../os/ext/CMSIS/include/core_cmFunc.h" 1
 476 0004 EFF30983 		MRS r3, psp
 477              	
 478              	@ 0 "" 2
 479              		.thumb
 480 0008 1C46     		mov	r4, r3
 481              		.loc 2 431 0
 482 000a 2346     		mov	r3, r4
 483              	.LBE20:
 484              	.LBE19:
 485              		.loc 3 72 0
 486 000c 0193     		str	r3, [sp, #4]
 487              		.loc 3 76 0
 488 000e 019B     		ldr	r3, [sp, #4]
 489 0010 2033     		adds	r3, r3, #32
 490 0012 0193     		str	r3, [sp, #4]
 491              		.loc 3 79 0
 492 0014 019B     		ldr	r3, [sp, #4]
 493 0016 0093     		str	r3, [sp]
 494              	.LBB21:
 495              	.LBB22:
 496              		.loc 2 443 0
 497 0018 009B     		ldr	r3, [sp]
 498              	@ 443 "../../../../os/ext/CMSIS/include/core_cmFunc.h" 1
 499 001a 83F30988 		MSR psp, r3
 500              	
 501              	@ 0 "" 2
 502              		.thumb
 503              	.LBE22:
 504              	.LBE21:
 505              		.loc 3 82 0
 506 001e FFF7FEFF 		bl	port_unlock_from_isr
 507              		.loc 3 83 0
 508 0022 02B0     		add	sp, sp, #8
 509              		@ sp needed
 510 0024 10BD     		pop	{r4, pc}
 511              		.cfi_endproc
 512              	.LFE241:
 513              		.size	SVC_Handler, .-SVC_Handler
ARM GAS  /tmp/ccyCEcZE.s 			page 29


 514              		.section	.text._port_irq_epilogue,"ax",%progbits
 515              		.align	2
 516              		.p2align 4,,15
 517              		.global	_port_irq_epilogue
 518              		.thumb
 519              		.thumb_func
 520              		.type	_port_irq_epilogue, %function
 521              	_port_irq_epilogue:
 522              	.LFB242:
 523              		.loc 3 122 0
 524              		.cfi_startproc
 525              		@ args = 0, pretend = 0, frame = 8
 526              		@ frame_needed = 0, uses_anonymous_args = 0
 527 0000 10B5     		push	{r4, lr}
 528              		.cfi_def_cfa_offset 8
 529              		.cfi_offset 4, -8
 530              		.cfi_offset 14, -4
 531 0002 82B0     		sub	sp, sp, #8
 532              		.cfi_def_cfa_offset 16
 533              		.loc 3 124 0
 534 0004 FFF7FEFF 		bl	port_lock_from_isr
 535              		.loc 3 125 0
 536 0008 4FF46D43 		mov	r3, #60672
 537 000c CEF20003 		movt	r3, 57344
 538 0010 5B68     		ldr	r3, [r3, #4]
 539 0012 03F40063 		and	r3, r3, #2048
 540 0016 002B     		cmp	r3, #0
 541 0018 23D0     		beq	.L8
 542              	.LBB23:
 543              	.LBB24:
 544              	.LBB25:
 545              		.loc 2 430 0
 546              	@ 430 "../../../../os/ext/CMSIS/include/core_cmFunc.h" 1
 547 001a EFF30983 		MRS r3, psp
 548              	
 549              	@ 0 "" 2
 550              		.thumb
 551 001e 1C46     		mov	r4, r3
 552              		.loc 2 431 0
 553 0020 2346     		mov	r3, r4
 554              	.LBE25:
 555              	.LBE24:
 556              		.loc 3 134 0
 557 0022 0193     		str	r3, [sp, #4]
 558              		.loc 3 138 0
 559 0024 019B     		ldr	r3, [sp, #4]
 560 0026 203B     		subs	r3, r3, #32
 561 0028 0193     		str	r3, [sp, #4]
 562              		.loc 3 141 0
 563 002a 019B     		ldr	r3, [sp, #4]
 564 002c 4FF08072 		mov	r2, #16777216
 565 0030 DA61     		str	r2, [r3, #28]
 566              		.loc 3 147 0
 567 0032 019B     		ldr	r3, [sp, #4]
 568 0034 0093     		str	r3, [sp]
 569              	.LBB26:
 570              	.LBB27:
ARM GAS  /tmp/ccyCEcZE.s 			page 30


 571              		.loc 2 443 0
 572 0036 009B     		ldr	r3, [sp]
 573              	@ 443 "../../../../os/ext/CMSIS/include/core_cmFunc.h" 1
 574 0038 83F30988 		MSR psp, r3
 575              	
 576              	@ 0 "" 2
 577              		.thumb
 578              	.LBE27:
 579              	.LBE26:
 580              		.loc 3 151 0
 581 003c FFF7FEFF 		bl	chSchIsPreemptionRequired
 582 0040 0346     		mov	r3, r0
 583 0042 002B     		cmp	r3, #0
 584 0044 06D0     		beq	.L10
 585              		.loc 3 153 0
 586 0046 019A     		ldr	r2, [sp, #4]
 587 0048 40F20003 		movw	r3, #:lower16:_port_switch_from_isr
 588 004c C0F20003 		movt	r3, #:upper16:_port_switch_from_isr
 589 0050 9361     		str	r3, [r2, #24]
 590              		.loc 3 163 0
 591 0052 08E0     		b	.L7
 592              	.L10:
 593              		.loc 3 158 0
 594 0054 019A     		ldr	r2, [sp, #4]
 595 0056 40F20003 		movw	r3, #:lower16:_port_exit_from_isr
 596 005a C0F20003 		movt	r3, #:upper16:_port_exit_from_isr
 597 005e 9361     		str	r3, [r2, #24]
 598              		.loc 3 163 0
 599 0060 01E0     		b	.L7
 600              	.L8:
 601              	.LBE23:
 602              		.loc 3 165 0
 603 0062 FFF7FEFF 		bl	port_unlock_from_isr
 604              	.L7:
 605              		.loc 3 166 0
 606 0066 02B0     		add	sp, sp, #8
 607              		@ sp needed
 608 0068 10BD     		pop	{r4, pc}
 609              		.cfi_endproc
 610              	.LFE242:
 611              		.size	_port_irq_epilogue, .-_port_irq_epilogue
 612 006a 00BFAFF3 		.text
 612      0080
 613              	.Letext0:
 614              		.file 4 "/usr/include/newlib/machine/_default_types.h"
 615              		.file 5 "/usr/include/newlib/stdint.h"
 616              		.file 6 "../../../../os/rt/ports/ARMCMx/compilers/GCC/chtypes.h"
 617              		.file 7 "../../../../os/rt/include/chsystypes.h"
 618              		.file 8 "../../../../os/rt/include/chschd.h"
 619              		.file 9 "../../../../os/ext/CMSIS/include/core_cm4.h"
 620              		.file 10 "../../../../os/rt/ports/ARMCMx/chcore.h"
 621              		.file 11 "../../../../os/rt/include/chdebug.h"
 622              		.file 12 "../../../../os/rt/include/chtm.h"
 623              		.file 13 "../../../../os/rt/include/chstats.h"
 624              		.file 14 "../../../../os/rt/include/chsem.h"
 625              		.file 15 "../../../../os/rt/include/chmtx.h"
 626              		.section	.debug_info,"",%progbits
ARM GAS  /tmp/ccyCEcZE.s 			page 31


 627              	.Ldebug_info0:
 628 0000 660B0000 		.4byte	0xb66
 629 0004 0400     		.2byte	0x4
 630 0006 00000000 		.4byte	.Ldebug_abbrev0
 631 000a 04       		.byte	0x4
 632 000b 01       		.uleb128 0x1
 633 000c F8020000 		.4byte	.LASF159
 634 0010 01       		.byte	0x1
 635 0011 66010000 		.4byte	.LASF160
 636 0015 65020000 		.4byte	.LASF161
 637 0019 00000000 		.4byte	.Ldebug_ranges0+0
 638 001d 00000000 		.4byte	0
 639 0021 00000000 		.4byte	.Ldebug_line0
 640 0025 02       		.uleb128 0x2
 641 0026 04       		.byte	0x4
 642 0027 05       		.byte	0x5
 643 0028 696E7400 		.ascii	"int\000"
 644 002c 03       		.uleb128 0x3
 645 002d 04       		.byte	0x4
 646 002e 07       		.byte	0x7
 647 002f 23020000 		.4byte	.LASF0
 648 0033 03       		.uleb128 0x3
 649 0034 01       		.byte	0x1
 650 0035 06       		.byte	0x6
 651 0036 16010000 		.4byte	.LASF1
 652 003a 04       		.uleb128 0x4
 653 003b 38000000 		.4byte	.LASF5
 654 003f 04       		.byte	0x4
 655 0040 1C       		.byte	0x1c
 656 0041 45000000 		.4byte	0x45
 657 0045 03       		.uleb128 0x3
 658 0046 01       		.byte	0x1
 659 0047 08       		.byte	0x8
 660 0048 FB040000 		.4byte	.LASF2
 661 004c 03       		.uleb128 0x3
 662 004d 02       		.byte	0x2
 663 004e 05       		.byte	0x5
 664 004f 26050000 		.4byte	.LASF3
 665 0053 03       		.uleb128 0x3
 666 0054 02       		.byte	0x2
 667 0055 07       		.byte	0x7
 668 0056 6A050000 		.4byte	.LASF4
 669 005a 04       		.uleb128 0x4
 670 005b D9030000 		.4byte	.LASF6
 671 005f 04       		.byte	0x4
 672 0060 37       		.byte	0x37
 673 0061 65000000 		.4byte	0x65
 674 0065 03       		.uleb128 0x3
 675 0066 04       		.byte	0x4
 676 0067 05       		.byte	0x5
 677 0068 54010000 		.4byte	.LASF7
 678 006c 04       		.uleb128 0x4
 679 006d 49060000 		.4byte	.LASF8
 680 0071 04       		.byte	0x4
 681 0072 38       		.byte	0x38
 682 0073 77000000 		.4byte	0x77
 683 0077 03       		.uleb128 0x3
ARM GAS  /tmp/ccyCEcZE.s 			page 32


 684 0078 04       		.byte	0x4
 685 0079 07       		.byte	0x7
 686 007a EA050000 		.4byte	.LASF9
 687 007e 03       		.uleb128 0x3
 688 007f 08       		.byte	0x8
 689 0080 05       		.byte	0x5
 690 0081 08010000 		.4byte	.LASF10
 691 0085 04       		.uleb128 0x4
 692 0086 9E040000 		.4byte	.LASF11
 693 008a 04       		.byte	0x4
 694 008b 4E       		.byte	0x4e
 695 008c 90000000 		.4byte	0x90
 696 0090 03       		.uleb128 0x3
 697 0091 08       		.byte	0x8
 698 0092 07       		.byte	0x7
 699 0093 91000000 		.4byte	.LASF12
 700 0097 04       		.uleb128 0x4
 701 0098 E6060000 		.4byte	.LASF13
 702 009c 05       		.byte	0x5
 703 009d 2A       		.byte	0x2a
 704 009e 3A000000 		.4byte	0x3a
 705 00a2 04       		.uleb128 0x4
 706 00a3 F3040000 		.4byte	.LASF14
 707 00a7 05       		.byte	0x5
 708 00a8 41       		.byte	0x41
 709 00a9 5A000000 		.4byte	0x5a
 710 00ad 04       		.uleb128 0x4
 711 00ae B9050000 		.4byte	.LASF15
 712 00b2 05       		.byte	0x5
 713 00b3 42       		.byte	0x42
 714 00b4 6C000000 		.4byte	0x6c
 715 00b8 04       		.uleb128 0x4
 716 00b9 22000000 		.4byte	.LASF16
 717 00bd 05       		.byte	0x5
 718 00be 4E       		.byte	0x4e
 719 00bf 85000000 		.4byte	0x85
 720 00c3 04       		.uleb128 0x4
 721 00c4 87060000 		.4byte	.LASF17
 722 00c8 06       		.byte	0x6
 723 00c9 39       		.byte	0x39
 724 00ca AD000000 		.4byte	0xad
 725 00ce 04       		.uleb128 0x4
 726 00cf F3000000 		.4byte	.LASF18
 727 00d3 06       		.byte	0x6
 728 00d4 3A       		.byte	0x3a
 729 00d5 B8000000 		.4byte	0xb8
 730 00d9 04       		.uleb128 0x4
 731 00da 52050000 		.4byte	.LASF19
 732 00de 06       		.byte	0x6
 733 00df 3C       		.byte	0x3c
 734 00e0 97000000 		.4byte	0x97
 735 00e4 04       		.uleb128 0x4
 736 00e5 5D010000 		.4byte	.LASF20
 737 00e9 06       		.byte	0x6
 738 00ea 3D       		.byte	0x3d
 739 00eb 97000000 		.4byte	0x97
 740 00ef 04       		.uleb128 0x4
ARM GAS  /tmp/ccyCEcZE.s 			page 33


 741 00f0 B4040000 		.4byte	.LASF21
 742 00f4 06       		.byte	0x6
 743 00f5 3E       		.byte	0x3e
 744 00f6 97000000 		.4byte	0x97
 745 00fa 04       		.uleb128 0x4
 746 00fb E2040000 		.4byte	.LASF22
 747 00ff 06       		.byte	0x6
 748 0100 40       		.byte	0x40
 749 0101 AD000000 		.4byte	0xad
 750 0105 04       		.uleb128 0x4
 751 0106 C7020000 		.4byte	.LASF23
 752 010a 06       		.byte	0x6
 753 010b 41       		.byte	0x41
 754 010c A2000000 		.4byte	0xa2
 755 0110 04       		.uleb128 0x4
 756 0111 BE030000 		.4byte	.LASF24
 757 0115 06       		.byte	0x6
 758 0116 43       		.byte	0x43
 759 0117 AD000000 		.4byte	0xad
 760 011b 04       		.uleb128 0x4
 761 011c 12020000 		.4byte	.LASF25
 762 0120 06       		.byte	0x6
 763 0121 45       		.byte	0x45
 764 0122 A2000000 		.4byte	0xa2
 765 0126 04       		.uleb128 0x4
 766 0127 D8020000 		.4byte	.LASF26
 767 012b 06       		.byte	0x6
 768 012c 46       		.byte	0x46
 769 012d AD000000 		.4byte	0xad
 770 0131 04       		.uleb128 0x4
 771 0132 2B060000 		.4byte	.LASF27
 772 0136 07       		.byte	0x7
 773 0137 33       		.byte	0x33
 774 0138 AD000000 		.4byte	0xad
 775 013c 04       		.uleb128 0x4
 776 013d 16060000 		.4byte	.LASF28
 777 0141 07       		.byte	0x7
 778 0142 3F       		.byte	0x3f
 779 0143 47010000 		.4byte	0x147
 780 0147 05       		.uleb128 0x5
 781 0148 B8020000 		.4byte	.LASF50
 782 014c 60       		.byte	0x60
 783 014d 08       		.byte	0x8
 784 014e C2       		.byte	0xc2
 785 014f 4D020000 		.4byte	0x24d
 786 0153 06       		.uleb128 0x6
 787 0154 4B050000 		.4byte	.LASF29
 788 0158 08       		.byte	0x8
 789 0159 C3       		.byte	0xc3
 790 015a 58020000 		.4byte	0x258
 791 015e 00       		.byte	0
 792 015f 06       		.uleb128 0x6
 793 0160 DB040000 		.4byte	.LASF30
 794 0164 08       		.byte	0x8
 795 0165 C5       		.byte	0xc5
 796 0166 58020000 		.4byte	0x258
 797 016a 04       		.byte	0x4
ARM GAS  /tmp/ccyCEcZE.s 			page 34


 798 016b 06       		.uleb128 0x6
 799 016c FC000000 		.4byte	.LASF31
 800 0170 08       		.byte	0x8
 801 0171 C7       		.byte	0xc7
 802 0172 FA000000 		.4byte	0xfa
 803 0176 08       		.byte	0x8
 804 0177 06       		.uleb128 0x6
 805 0178 3E070000 		.4byte	.LASF32
 806 017c 08       		.byte	0x8
 807 017d C8       		.byte	0xc8
 808 017e 55060000 		.4byte	0x655
 809 0182 0C       		.byte	0xc
 810 0183 06       		.uleb128 0x6
 811 0184 98010000 		.4byte	.LASF33
 812 0188 08       		.byte	0x8
 813 0189 CA       		.byte	0xca
 814 018a 58020000 		.4byte	0x258
 815 018e 10       		.byte	0x10
 816 018f 06       		.uleb128 0x6
 817 0190 61040000 		.4byte	.LASF34
 818 0194 08       		.byte	0x8
 819 0195 CB       		.byte	0xcb
 820 0196 58020000 		.4byte	0x258
 821 019a 14       		.byte	0x14
 822 019b 06       		.uleb128 0x6
 823 019c F5060000 		.4byte	.LASF35
 824 01a0 08       		.byte	0x8
 825 01a1 D2       		.byte	0xd2
 826 01a2 61090000 		.4byte	0x961
 827 01a6 18       		.byte	0x18
 828 01a7 06       		.uleb128 0x6
 829 01a8 18020000 		.4byte	.LASF36
 830 01ac 08       		.byte	0x8
 831 01ad D8       		.byte	0xd8
 832 01ae 73090000 		.4byte	0x973
 833 01b2 1C       		.byte	0x1c
 834 01b3 06       		.uleb128 0x6
 835 01b4 30050000 		.4byte	.LASF37
 836 01b8 08       		.byte	0x8
 837 01b9 DD       		.byte	0xdd
 838 01ba E4000000 		.4byte	0xe4
 839 01be 20       		.byte	0x20
 840 01bf 06       		.uleb128 0x6
 841 01c0 5A050000 		.4byte	.LASF38
 842 01c4 08       		.byte	0x8
 843 01c5 E1       		.byte	0xe1
 844 01c6 D9000000 		.4byte	0xd9
 845 01ca 21       		.byte	0x21
 846 01cb 06       		.uleb128 0x6
 847 01cc CC060000 		.4byte	.LASF39
 848 01d0 08       		.byte	0x8
 849 01d1 E6       		.byte	0xe6
 850 01d2 EF000000 		.4byte	0xef
 851 01d6 22       		.byte	0x22
 852 01d7 07       		.uleb128 0x7
 853 01d8 705F7500 		.ascii	"p_u\000"
 854 01dc 08       		.byte	0x8
ARM GAS  /tmp/ccyCEcZE.s 			page 35


 855 01dd 3101     		.2byte	0x131
 856 01df 9C080000 		.4byte	0x89c
 857 01e3 24       		.byte	0x24
 858 01e4 08       		.uleb128 0x8
 859 01e5 FD030000 		.4byte	.LASF40
 860 01e9 08       		.byte	0x8
 861 01ea 3601     		.2byte	0x136
 862 01ec 5E020000 		.4byte	0x25e
 863 01f0 28       		.byte	0x28
 864 01f1 08       		.uleb128 0x8
 865 01f2 49020000 		.4byte	.LASF41
 866 01f6 08       		.byte	0x8
 867 01f7 3C01     		.2byte	0x13c
 868 01f9 82020000 		.4byte	0x282
 869 01fd 2C       		.byte	0x2c
 870 01fe 08       		.uleb128 0x8
 871 01ff 09070000 		.4byte	.LASF42
 872 0203 08       		.byte	0x8
 873 0204 4001     		.2byte	0x140
 874 0206 05010000 		.4byte	0x105
 875 020a 34       		.byte	0x34
 876 020b 08       		.uleb128 0x8
 877 020c AE050000 		.4byte	.LASF43
 878 0210 08       		.byte	0x8
 879 0211 4601     		.2byte	0x146
 880 0213 10010000 		.4byte	0x110
 881 0217 38       		.byte	0x38
 882 0218 08       		.uleb128 0x8
 883 0219 1C050000 		.4byte	.LASF44
 884 021d 08       		.byte	0x8
 885 021e 4D01     		.2byte	0x14d
 886 0220 5B090000 		.4byte	0x95b
 887 0224 3C       		.byte	0x3c
 888 0225 08       		.uleb128 0x8
 889 0226 35060000 		.4byte	.LASF45
 890 022a 08       		.byte	0x8
 891 022b 5101     		.2byte	0x151
 892 022d FA000000 		.4byte	0xfa
 893 0231 40       		.byte	0x40
 894 0232 08       		.uleb128 0x8
 895 0233 22010000 		.4byte	.LASF46
 896 0237 08       		.byte	0x8
 897 0238 5801     		.2byte	0x158
 898 023a 35030000 		.4byte	0x335
 899 023e 44       		.byte	0x44
 900 023f 08       		.uleb128 0x8
 901 0240 62050000 		.4byte	.LASF47
 902 0244 08       		.byte	0x8
 903 0245 5E01     		.2byte	0x15e
 904 0247 4D080000 		.4byte	0x84d
 905 024b 48       		.byte	0x48
 906 024c 00       		.byte	0
 907 024d 04       		.uleb128 0x4
 908 024e 10040000 		.4byte	.LASF48
 909 0252 07       		.byte	0x7
 910 0253 44       		.byte	0x44
 911 0254 58020000 		.4byte	0x258
ARM GAS  /tmp/ccyCEcZE.s 			page 36


 912 0258 09       		.uleb128 0x9
 913 0259 04       		.byte	0x4
 914 025a 3C010000 		.4byte	0x13c
 915 025e 04       		.uleb128 0x4
 916 025f EE030000 		.4byte	.LASF49
 917 0263 07       		.byte	0x7
 918 0264 49       		.byte	0x49
 919 0265 69020000 		.4byte	0x269
 920 0269 05       		.uleb128 0x5
 921 026a DA050000 		.4byte	.LASF51
 922 026e 04       		.byte	0x4
 923 026f 08       		.byte	0x8
 924 0270 B0       		.byte	0xb0
 925 0271 82020000 		.4byte	0x282
 926 0275 06       		.uleb128 0x6
 927 0276 4B050000 		.4byte	.LASF29
 928 027a 08       		.byte	0x8
 929 027b B1       		.byte	0xb1
 930 027c 58020000 		.4byte	0x258
 931 0280 00       		.byte	0
 932 0281 00       		.byte	0
 933 0282 04       		.uleb128 0x4
 934 0283 B3060000 		.4byte	.LASF52
 935 0287 07       		.byte	0x7
 936 0288 50       		.byte	0x50
 937 0289 8D020000 		.4byte	0x28d
 938 028d 05       		.uleb128 0x5
 939 028e 4E000000 		.4byte	.LASF53
 940 0292 08       		.byte	0x8
 941 0293 08       		.byte	0x8
 942 0294 B7       		.byte	0xb7
 943 0295 B2020000 		.4byte	0x2b2
 944 0299 06       		.uleb128 0x6
 945 029a 4B050000 		.4byte	.LASF29
 946 029e 08       		.byte	0x8
 947 029f B8       		.byte	0xb8
 948 02a0 58020000 		.4byte	0x258
 949 02a4 00       		.byte	0
 950 02a5 06       		.uleb128 0x6
 951 02a6 DB040000 		.4byte	.LASF30
 952 02aa 08       		.byte	0x8
 953 02ab B9       		.byte	0xb9
 954 02ac 58020000 		.4byte	0x258
 955 02b0 04       		.byte	0x4
 956 02b1 00       		.byte	0
 957 02b2 04       		.uleb128 0x4
 958 02b3 00000000 		.4byte	.LASF54
 959 02b7 07       		.byte	0x7
 960 02b8 57       		.byte	0x57
 961 02b9 BD020000 		.4byte	0x2bd
 962 02bd 0A       		.uleb128 0xa
 963 02be B0030000 		.4byte	.LASF55
 964 02c2 1C       		.byte	0x1c
 965 02c3 08       		.byte	0x8
 966 02c4 9001     		.2byte	0x190
 967 02c6 19030000 		.4byte	0x319
 968 02ca 08       		.uleb128 0x8
ARM GAS  /tmp/ccyCEcZE.s 			page 37


 969 02cb C9050000 		.4byte	.LASF56
 970 02cf 08       		.byte	0x8
 971 02d0 9101     		.2byte	0x191
 972 02d2 82020000 		.4byte	0x282
 973 02d6 00       		.byte	0
 974 02d7 08       		.uleb128 0x8
 975 02d8 3D050000 		.4byte	.LASF57
 976 02dc 08       		.byte	0x8
 977 02dd 9201     		.2byte	0x192
 978 02df FA000000 		.4byte	0xfa
 979 02e3 08       		.byte	0x8
 980 02e4 08       		.uleb128 0x8
 981 02e5 69040000 		.4byte	.LASF58
 982 02e9 08       		.byte	0x8
 983 02ea 9401     		.2byte	0x194
 984 02ec 55060000 		.4byte	0x655
 985 02f0 0C       		.byte	0xc
 986 02f1 08       		.uleb128 0x8
 987 02f2 BA010000 		.4byte	.LASF59
 988 02f6 08       		.byte	0x8
 989 02f7 9701     		.2byte	0x197
 990 02f9 58020000 		.4byte	0x258
 991 02fd 10       		.byte	0x10
 992 02fe 08       		.uleb128 0x8
 993 02ff 96040000 		.4byte	.LASF60
 994 0303 08       		.byte	0x8
 995 0304 9801     		.2byte	0x198
 996 0306 58020000 		.4byte	0x258
 997 030a 14       		.byte	0x14
 998 030b 08       		.uleb128 0x8
 999 030c 8C040000 		.4byte	.LASF61
 1000 0310 08       		.byte	0x8
 1001 0311 9B01     		.2byte	0x19b
 1002 0313 58020000 		.4byte	0x258
 1003 0317 18       		.byte	0x18
 1004 0318 00       		.byte	0
 1005 0319 04       		.uleb128 0x4
 1006 031a 40060000 		.4byte	.LASF62
 1007 031e 07       		.byte	0x7
 1008 031f 5C       		.byte	0x5c
 1009 0320 24030000 		.4byte	0x324
 1010 0324 09       		.uleb128 0x9
 1011 0325 04       		.byte	0x4
 1012 0326 2A030000 		.4byte	0x32a
 1013 032a 0B       		.uleb128 0xb
 1014 032b 35030000 		.4byte	0x335
 1015 032f 0C       		.uleb128 0xc
 1016 0330 35030000 		.4byte	0x335
 1017 0334 00       		.byte	0
 1018 0335 0D       		.uleb128 0xd
 1019 0336 04       		.byte	0x4
 1020 0337 04       		.uleb128 0x4
 1021 0338 CB040000 		.4byte	.LASF63
 1022 033c 07       		.byte	0x7
 1023 033d 61       		.byte	0x61
 1024 033e 42030000 		.4byte	0x342
 1025 0342 0A       		.uleb128 0xa
ARM GAS  /tmp/ccyCEcZE.s 			page 38


 1026 0343 90050000 		.4byte	.LASF64
 1027 0347 14       		.byte	0x14
 1028 0348 08       		.byte	0x8
 1029 0349 6B01     		.2byte	0x16b
 1030 034b 91030000 		.4byte	0x391
 1031 034f 08       		.uleb128 0x8
 1032 0350 3A020000 		.4byte	.LASF65
 1033 0354 08       		.byte	0x8
 1034 0355 6C01     		.2byte	0x16c
 1035 0357 79090000 		.4byte	0x979
 1036 035b 00       		.byte	0
 1037 035c 08       		.uleb128 0x8
 1038 035d CB010000 		.4byte	.LASF66
 1039 0361 08       		.byte	0x8
 1040 0362 6D01     		.2byte	0x16d
 1041 0364 79090000 		.4byte	0x979
 1042 0368 04       		.byte	0x4
 1043 0369 08       		.uleb128 0x8
 1044 036a D1050000 		.4byte	.LASF67
 1045 036e 08       		.byte	0x8
 1046 036f 6E01     		.2byte	0x16e
 1047 0371 31010000 		.4byte	0x131
 1048 0375 08       		.byte	0x8
 1049 0376 08       		.uleb128 0x8
 1050 0377 44070000 		.4byte	.LASF68
 1051 037b 08       		.byte	0x8
 1052 037c 6F01     		.2byte	0x16f
 1053 037e 19030000 		.4byte	0x319
 1054 0382 0C       		.byte	0xc
 1055 0383 08       		.uleb128 0x8
 1056 0384 AC060000 		.4byte	.LASF69
 1057 0388 08       		.byte	0x8
 1058 0389 7101     		.2byte	0x171
 1059 038b 35030000 		.4byte	0x335
 1060 038f 10       		.byte	0x10
 1061 0390 00       		.byte	0
 1062 0391 04       		.uleb128 0x4
 1063 0392 D7000000 		.4byte	.LASF70
 1064 0396 07       		.byte	0x7
 1065 0397 66       		.byte	0x66
 1066 0398 9C030000 		.4byte	0x39c
 1067 039c 0A       		.uleb128 0xa
 1068 039d 23040000 		.4byte	.LASF71
 1069 03a1 10       		.byte	0x10
 1070 03a2 08       		.byte	0x8
 1071 03a3 7B01     		.2byte	0x17b
 1072 03a5 DE030000 		.4byte	0x3de
 1073 03a9 08       		.uleb128 0x8
 1074 03aa 3A020000 		.4byte	.LASF65
 1075 03ae 08       		.byte	0x8
 1076 03af 7C01     		.2byte	0x17c
 1077 03b1 79090000 		.4byte	0x979
 1078 03b5 00       		.byte	0
 1079 03b6 08       		.uleb128 0x8
 1080 03b7 CB010000 		.4byte	.LASF66
 1081 03bb 08       		.byte	0x8
 1082 03bc 7E01     		.2byte	0x17e
ARM GAS  /tmp/ccyCEcZE.s 			page 39


 1083 03be 79090000 		.4byte	0x979
 1084 03c2 04       		.byte	0x4
 1085 03c3 08       		.uleb128 0x8
 1086 03c4 D1050000 		.4byte	.LASF67
 1087 03c8 08       		.byte	0x8
 1088 03c9 8001     		.2byte	0x180
 1089 03cb 31010000 		.4byte	0x131
 1090 03cf 08       		.byte	0x8
 1091 03d0 08       		.uleb128 0x8
 1092 03d1 55040000 		.4byte	.LASF72
 1093 03d5 08       		.byte	0x8
 1094 03d6 8801     		.2byte	0x188
 1095 03d8 31010000 		.4byte	0x131
 1096 03dc 0C       		.byte	0xc
 1097 03dd 00       		.byte	0
 1098 03de 04       		.uleb128 0x4
 1099 03df 5F000000 		.4byte	.LASF73
 1100 03e3 07       		.byte	0x7
 1101 03e4 6B       		.byte	0x6b
 1102 03e5 E9030000 		.4byte	0x3e9
 1103 03e9 0E       		.uleb128 0xe
 1104 03ea DC010000 		.4byte	.LASF74
 1105 03ee 1404     		.2byte	0x414
 1106 03f0 08       		.byte	0x8
 1107 03f1 A201     		.2byte	0x1a2
 1108 03f3 2C040000 		.4byte	0x42c
 1109 03f7 08       		.uleb128 0x8
 1110 03f8 62060000 		.4byte	.LASF75
 1111 03fc 08       		.byte	0x8
 1112 03fd AA01     		.2byte	0x1aa
 1113 03ff 7F090000 		.4byte	0x97f
 1114 0403 00       		.byte	0
 1115 0404 08       		.uleb128 0x8
 1116 0405 D3060000 		.4byte	.LASF76
 1117 0409 08       		.byte	0x8
 1118 040a AF01     		.2byte	0x1af
 1119 040c 1B010000 		.4byte	0x11b
 1120 0410 04       		.byte	0x4
 1121 0411 08       		.uleb128 0x8
 1122 0412 FA010000 		.4byte	.LASF77
 1123 0416 08       		.byte	0x8
 1124 0417 B301     		.2byte	0x1b3
 1125 0419 1B010000 		.4byte	0x11b
 1126 041d 08       		.byte	0x8
 1127 041e 08       		.uleb128 0x8
 1128 041f FC060000 		.4byte	.LASF78
 1129 0423 08       		.byte	0x8
 1130 0424 B901     		.2byte	0x1b9
 1131 0426 DF070000 		.4byte	0x7df
 1132 042a 0C       		.byte	0xc
 1133 042b 00       		.byte	0
 1134 042c 04       		.uleb128 0x4
 1135 042d 7B060000 		.4byte	.LASF79
 1136 0431 07       		.byte	0x7
 1137 0432 70       		.byte	0x70
 1138 0433 37040000 		.4byte	0x437
 1139 0437 0E       		.uleb128 0xe
ARM GAS  /tmp/ccyCEcZE.s 			page 40


 1140 0438 4A010000 		.4byte	.LASF80
 1141 043c D805     		.2byte	0x5d8
 1142 043e 08       		.byte	0x8
 1143 043f C201     		.2byte	0x1c2
 1144 0441 A4040000 		.4byte	0x4a4
 1145 0445 08       		.uleb128 0x8
 1146 0446 E0060000 		.4byte	.LASF81
 1147 044a 08       		.byte	0x8
 1148 044b C601     		.2byte	0x1c6
 1149 044d B2020000 		.4byte	0x2b2
 1150 0451 00       		.byte	0
 1151 0452 08       		.uleb128 0x8
 1152 0453 32010000 		.4byte	.LASF82
 1153 0457 08       		.byte	0x8
 1154 0458 CA01     		.2byte	0x1ca
 1155 045a 91030000 		.4byte	0x391
 1156 045e 1C       		.byte	0x1c
 1157 045f 07       		.uleb128 0x7
 1158 0460 64626700 		.ascii	"dbg\000"
 1159 0464 08       		.byte	0x8
 1160 0465 CE01     		.2byte	0x1ce
 1161 0467 DE030000 		.4byte	0x3de
 1162 046b 2C       		.byte	0x2c
 1163 046c 0F       		.uleb128 0xf
 1164 046d CC000000 		.4byte	.LASF83
 1165 0471 08       		.byte	0x8
 1166 0472 D201     		.2byte	0x1d2
 1167 0474 3C010000 		.4byte	0x13c
 1168 0478 4004     		.2byte	0x440
 1169 047a 10       		.uleb128 0x10
 1170 047b 746D00   		.ascii	"tm\000"
 1171 047e 08       		.byte	0x8
 1172 047f D701     		.2byte	0x1d7
 1173 0481 FF070000 		.4byte	0x7ff
 1174 0485 A004     		.2byte	0x4a0
 1175 0487 0F       		.uleb128 0xf
 1176 0488 2B000000 		.4byte	.LASF84
 1177 048c 08       		.byte	0x8
 1178 048d DD01     		.2byte	0x1dd
 1179 048f 91080000 		.4byte	0x891
 1180 0493 A804     		.2byte	0x4a8
 1181 0495 0F       		.uleb128 0xf
 1182 0496 03020000 		.4byte	.LASF85
 1183 049a 08       		.byte	0x8
 1184 049b E301     		.2byte	0x1e3
 1185 049d 84090000 		.4byte	0x984
 1186 04a1 E004     		.2byte	0x4e0
 1187 04a3 00       		.byte	0
 1188 04a4 03       		.uleb128 0x3
 1189 04a5 04       		.byte	0x4
 1190 04a6 07       		.byte	0x7
 1191 04a7 07040000 		.4byte	.LASF86
 1192 04ab 11       		.uleb128 0x11
 1193 04ac AD000000 		.4byte	0xad
 1194 04b0 12       		.uleb128 0x12
 1195 04b1 8C       		.byte	0x8c
 1196 04b2 09       		.byte	0x9
ARM GAS  /tmp/ccyCEcZE.s 			page 41


 1197 04b3 C001     		.2byte	0x1c0
 1198 04b5 CB050000 		.4byte	0x5cb
 1199 04b9 08       		.uleb128 0x8
 1200 04ba ED000000 		.4byte	.LASF87
 1201 04be 09       		.byte	0x9
 1202 04bf C201     		.2byte	0x1c2
 1203 04c1 CB050000 		.4byte	0x5cb
 1204 04c5 00       		.byte	0
 1205 04c6 08       		.uleb128 0x8
 1206 04c7 C2020000 		.4byte	.LASF88
 1207 04cb 09       		.byte	0x9
 1208 04cc C301     		.2byte	0x1c3
 1209 04ce AB040000 		.4byte	0x4ab
 1210 04d2 04       		.byte	0x4
 1211 04d3 08       		.uleb128 0x8
 1212 04d4 5A020000 		.4byte	.LASF89
 1213 04d8 09       		.byte	0x9
 1214 04d9 C401     		.2byte	0x1c4
 1215 04db AB040000 		.4byte	0x4ab
 1216 04df 08       		.byte	0x8
 1217 04e0 08       		.uleb128 0x8
 1218 04e1 CD020000 		.4byte	.LASF90
 1219 04e5 09       		.byte	0x9
 1220 04e6 C501     		.2byte	0x1c5
 1221 04e8 AB040000 		.4byte	0x4ab
 1222 04ec 0C       		.byte	0xc
 1223 04ed 07       		.uleb128 0x7
 1224 04ee 53435200 		.ascii	"SCR\000"
 1225 04f2 09       		.byte	0x9
 1226 04f3 C601     		.2byte	0x1c6
 1227 04f5 AB040000 		.4byte	0x4ab
 1228 04f9 10       		.byte	0x10
 1229 04fa 07       		.uleb128 0x7
 1230 04fb 43435200 		.ascii	"CCR\000"
 1231 04ff 09       		.byte	0x9
 1232 0500 C701     		.2byte	0x1c7
 1233 0502 AB040000 		.4byte	0x4ab
 1234 0506 14       		.byte	0x14
 1235 0507 07       		.uleb128 0x7
 1236 0508 53485000 		.ascii	"SHP\000"
 1237 050c 09       		.byte	0x9
 1238 050d C801     		.2byte	0x1c8
 1239 050f E0050000 		.4byte	0x5e0
 1240 0513 18       		.byte	0x18
 1241 0514 08       		.uleb128 0x8
 1242 0515 09050000 		.4byte	.LASF91
 1243 0519 09       		.byte	0x9
 1244 051a C901     		.2byte	0x1c9
 1245 051c AB040000 		.4byte	0x4ab
 1246 0520 24       		.byte	0x24
 1247 0521 08       		.uleb128 0x8
 1248 0522 3A040000 		.4byte	.LASF92
 1249 0526 09       		.byte	0x9
 1250 0527 CA01     		.2byte	0x1ca
 1251 0529 AB040000 		.4byte	0x4ab
 1252 052d 28       		.byte	0x28
 1253 052e 08       		.uleb128 0x8
ARM GAS  /tmp/ccyCEcZE.s 			page 42


 1254 052f 15070000 		.4byte	.LASF93
 1255 0533 09       		.byte	0x9
 1256 0534 CB01     		.2byte	0x1cb
 1257 0536 AB040000 		.4byte	0x4ab
 1258 053a 2C       		.byte	0x2c
 1259 053b 08       		.uleb128 0x8
 1260 053c D3020000 		.4byte	.LASF94
 1261 0540 09       		.byte	0x9
 1262 0541 CC01     		.2byte	0x1cc
 1263 0543 AB040000 		.4byte	0x4ab
 1264 0547 30       		.byte	0x30
 1265 0548 08       		.uleb128 0x8
 1266 0549 DF020000 		.4byte	.LASF95
 1267 054d 09       		.byte	0x9
 1268 054e CD01     		.2byte	0x1cd
 1269 0550 AB040000 		.4byte	0x4ab
 1270 0554 34       		.byte	0x34
 1271 0555 08       		.uleb128 0x8
 1272 0556 A8010000 		.4byte	.LASF96
 1273 055a 09       		.byte	0x9
 1274 055b CE01     		.2byte	0x1ce
 1275 055d AB040000 		.4byte	0x4ab
 1276 0561 38       		.byte	0x38
 1277 0562 08       		.uleb128 0x8
 1278 0563 B5010000 		.4byte	.LASF97
 1279 0567 09       		.byte	0x9
 1280 0568 CF01     		.2byte	0x1cf
 1281 056a AB040000 		.4byte	0x4ab
 1282 056e 3C       		.byte	0x3c
 1283 056f 07       		.uleb128 0x7
 1284 0570 50465200 		.ascii	"PFR\000"
 1285 0574 09       		.byte	0x9
 1286 0575 D001     		.2byte	0x1d0
 1287 0577 F5050000 		.4byte	0x5f5
 1288 057b 40       		.byte	0x40
 1289 057c 07       		.uleb128 0x7
 1290 057d 44465200 		.ascii	"DFR\000"
 1291 0581 09       		.byte	0x9
 1292 0582 D101     		.2byte	0x1d1
 1293 0584 CB050000 		.4byte	0x5cb
 1294 0588 48       		.byte	0x48
 1295 0589 07       		.uleb128 0x7
 1296 058a 41445200 		.ascii	"ADR\000"
 1297 058e 09       		.byte	0x9
 1298 058f D201     		.2byte	0x1d2
 1299 0591 CB050000 		.4byte	0x5cb
 1300 0595 4C       		.byte	0x4c
 1301 0596 08       		.uleb128 0x8
 1302 0597 DB060000 		.4byte	.LASF98
 1303 059b 09       		.byte	0x9
 1304 059c D301     		.2byte	0x1d3
 1305 059e 0F060000 		.4byte	0x60f
 1306 05a2 50       		.byte	0x50
 1307 05a3 08       		.uleb128 0x8
 1308 05a4 03010000 		.4byte	.LASF99
 1309 05a8 09       		.byte	0x9
 1310 05a9 D401     		.2byte	0x1d4
ARM GAS  /tmp/ccyCEcZE.s 			page 43


 1311 05ab 29060000 		.4byte	0x629
 1312 05af 60       		.byte	0x60
 1313 05b0 08       		.uleb128 0x8
 1314 05b1 BC040000 		.4byte	.LASF100
 1315 05b5 09       		.byte	0x9
 1316 05b6 D501     		.2byte	0x1d5
 1317 05b8 19060000 		.4byte	0x619
 1318 05bc 74       		.byte	0x74
 1319 05bd 08       		.uleb128 0x8
 1320 05be 0F070000 		.4byte	.LASF101
 1321 05c2 09       		.byte	0x9
 1322 05c3 D601     		.2byte	0x1d6
 1323 05c5 AB040000 		.4byte	0x4ab
 1324 05c9 88       		.byte	0x88
 1325 05ca 00       		.byte	0
 1326 05cb 13       		.uleb128 0x13
 1327 05cc AB040000 		.4byte	0x4ab
 1328 05d0 14       		.uleb128 0x14
 1329 05d1 97000000 		.4byte	0x97
 1330 05d5 E0050000 		.4byte	0x5e0
 1331 05d9 15       		.uleb128 0x15
 1332 05da A4040000 		.4byte	0x4a4
 1333 05de 0B       		.byte	0xb
 1334 05df 00       		.byte	0
 1335 05e0 11       		.uleb128 0x11
 1336 05e1 D0050000 		.4byte	0x5d0
 1337 05e5 14       		.uleb128 0x14
 1338 05e6 AD000000 		.4byte	0xad
 1339 05ea F5050000 		.4byte	0x5f5
 1340 05ee 15       		.uleb128 0x15
 1341 05ef A4040000 		.4byte	0x4a4
 1342 05f3 01       		.byte	0x1
 1343 05f4 00       		.byte	0
 1344 05f5 13       		.uleb128 0x13
 1345 05f6 FA050000 		.4byte	0x5fa
 1346 05fa 11       		.uleb128 0x11
 1347 05fb E5050000 		.4byte	0x5e5
 1348 05ff 14       		.uleb128 0x14
 1349 0600 AD000000 		.4byte	0xad
 1350 0604 0F060000 		.4byte	0x60f
 1351 0608 15       		.uleb128 0x15
 1352 0609 A4040000 		.4byte	0x4a4
 1353 060d 03       		.byte	0x3
 1354 060e 00       		.byte	0
 1355 060f 13       		.uleb128 0x13
 1356 0610 14060000 		.4byte	0x614
 1357 0614 11       		.uleb128 0x11
 1358 0615 FF050000 		.4byte	0x5ff
 1359 0619 14       		.uleb128 0x14
 1360 061a AD000000 		.4byte	0xad
 1361 061e 29060000 		.4byte	0x629
 1362 0622 15       		.uleb128 0x15
 1363 0623 A4040000 		.4byte	0x4a4
 1364 0627 04       		.byte	0x4
 1365 0628 00       		.byte	0
 1366 0629 13       		.uleb128 0x13
 1367 062a 2E060000 		.4byte	0x62e
ARM GAS  /tmp/ccyCEcZE.s 			page 44


 1368 062e 11       		.uleb128 0x11
 1369 062f 19060000 		.4byte	0x619
 1370 0633 16       		.uleb128 0x16
 1371 0634 D3010000 		.4byte	.LASF102
 1372 0638 09       		.byte	0x9
 1373 0639 D701     		.2byte	0x1d7
 1374 063b B0040000 		.4byte	0x4b0
 1375 063f 04       		.uleb128 0x4
 1376 0640 C2010000 		.4byte	.LASF103
 1377 0644 0A       		.byte	0xa
 1378 0645 65       		.byte	0x65
 1379 0646 35030000 		.4byte	0x335
 1380 064a 04       		.uleb128 0x4
 1381 064b E3030000 		.4byte	.LASF104
 1382 064f 0A       		.byte	0xa
 1383 0650 6D       		.byte	0x6d
 1384 0651 B8000000 		.4byte	0xb8
 1385 0655 05       		.uleb128 0x5
 1386 0656 73060000 		.4byte	.LASF105
 1387 065a 04       		.byte	0x4
 1388 065b 0A       		.byte	0xa
 1389 065c 89       		.byte	0x89
 1390 065d 6E060000 		.4byte	0x66e
 1391 0661 17       		.uleb128 0x17
 1392 0662 72313300 		.ascii	"r13\000"
 1393 0666 0A       		.byte	0xa
 1394 0667 8A       		.byte	0x8a
 1395 0668 E9060000 		.4byte	0x6e9
 1396 066c 00       		.byte	0
 1397 066d 00       		.byte	0
 1398 066e 05       		.uleb128 0x5
 1399 066f 42000000 		.4byte	.LASF106
 1400 0673 24       		.byte	0x24
 1401 0674 01       		.byte	0x1
 1402 0675 FD       		.byte	0xfd
 1403 0676 E9060000 		.4byte	0x6e9
 1404 067a 07       		.uleb128 0x7
 1405 067b 723400   		.ascii	"r4\000"
 1406 067e 01       		.byte	0x1
 1407 067f 1001     		.2byte	0x110
 1408 0681 3F060000 		.4byte	0x63f
 1409 0685 00       		.byte	0
 1410 0686 07       		.uleb128 0x7
 1411 0687 723500   		.ascii	"r5\000"
 1412 068a 01       		.byte	0x1
 1413 068b 1101     		.2byte	0x111
 1414 068d 3F060000 		.4byte	0x63f
 1415 0691 04       		.byte	0x4
 1416 0692 07       		.uleb128 0x7
 1417 0693 723600   		.ascii	"r6\000"
 1418 0696 01       		.byte	0x1
 1419 0697 1201     		.2byte	0x112
 1420 0699 3F060000 		.4byte	0x63f
 1421 069d 08       		.byte	0x8
 1422 069e 07       		.uleb128 0x7
 1423 069f 723700   		.ascii	"r7\000"
 1424 06a2 01       		.byte	0x1
ARM GAS  /tmp/ccyCEcZE.s 			page 45


 1425 06a3 1301     		.2byte	0x113
 1426 06a5 3F060000 		.4byte	0x63f
 1427 06a9 0C       		.byte	0xc
 1428 06aa 07       		.uleb128 0x7
 1429 06ab 723800   		.ascii	"r8\000"
 1430 06ae 01       		.byte	0x1
 1431 06af 1401     		.2byte	0x114
 1432 06b1 3F060000 		.4byte	0x63f
 1433 06b5 10       		.byte	0x10
 1434 06b6 07       		.uleb128 0x7
 1435 06b7 723900   		.ascii	"r9\000"
 1436 06ba 01       		.byte	0x1
 1437 06bb 1501     		.2byte	0x115
 1438 06bd 3F060000 		.4byte	0x63f
 1439 06c1 14       		.byte	0x14
 1440 06c2 07       		.uleb128 0x7
 1441 06c3 72313000 		.ascii	"r10\000"
 1442 06c7 01       		.byte	0x1
 1443 06c8 1601     		.2byte	0x116
 1444 06ca 3F060000 		.4byte	0x63f
 1445 06ce 18       		.byte	0x18
 1446 06cf 07       		.uleb128 0x7
 1447 06d0 72313100 		.ascii	"r11\000"
 1448 06d4 01       		.byte	0x1
 1449 06d5 1701     		.2byte	0x117
 1450 06d7 3F060000 		.4byte	0x63f
 1451 06db 1C       		.byte	0x1c
 1452 06dc 07       		.uleb128 0x7
 1453 06dd 6C7200   		.ascii	"lr\000"
 1454 06e0 01       		.byte	0x1
 1455 06e1 1801     		.2byte	0x118
 1456 06e3 3F060000 		.4byte	0x63f
 1457 06e7 20       		.byte	0x20
 1458 06e8 00       		.byte	0
 1459 06e9 09       		.uleb128 0x9
 1460 06ea 04       		.byte	0x4
 1461 06eb 6E060000 		.4byte	0x66e
 1462 06ef 05       		.uleb128 0x5
 1463 06f0 6F040000 		.4byte	.LASF107
 1464 06f4 20       		.byte	0x20
 1465 06f5 01       		.byte	0x1
 1466 06f6 DE       		.byte	0xde
 1467 06f7 57070000 		.4byte	0x757
 1468 06fb 17       		.uleb128 0x17
 1469 06fc 723000   		.ascii	"r0\000"
 1470 06ff 01       		.byte	0x1
 1471 0700 DF       		.byte	0xdf
 1472 0701 3F060000 		.4byte	0x63f
 1473 0705 00       		.byte	0
 1474 0706 17       		.uleb128 0x17
 1475 0707 723100   		.ascii	"r1\000"
 1476 070a 01       		.byte	0x1
 1477 070b E0       		.byte	0xe0
 1478 070c 3F060000 		.4byte	0x63f
 1479 0710 04       		.byte	0x4
 1480 0711 17       		.uleb128 0x17
 1481 0712 723200   		.ascii	"r2\000"
ARM GAS  /tmp/ccyCEcZE.s 			page 46


 1482 0715 01       		.byte	0x1
 1483 0716 E1       		.byte	0xe1
 1484 0717 3F060000 		.4byte	0x63f
 1485 071b 08       		.byte	0x8
 1486 071c 17       		.uleb128 0x17
 1487 071d 723300   		.ascii	"r3\000"
 1488 0720 01       		.byte	0x1
 1489 0721 E2       		.byte	0xe2
 1490 0722 3F060000 		.4byte	0x63f
 1491 0726 0C       		.byte	0xc
 1492 0727 17       		.uleb128 0x17
 1493 0728 72313200 		.ascii	"r12\000"
 1494 072c 01       		.byte	0x1
 1495 072d E3       		.byte	0xe3
 1496 072e 3F060000 		.4byte	0x63f
 1497 0732 10       		.byte	0x10
 1498 0733 06       		.uleb128 0x6
 1499 0734 7D050000 		.4byte	.LASF108
 1500 0738 01       		.byte	0x1
 1501 0739 E4       		.byte	0xe4
 1502 073a 3F060000 		.4byte	0x63f
 1503 073e 14       		.byte	0x14
 1504 073f 17       		.uleb128 0x17
 1505 0740 706300   		.ascii	"pc\000"
 1506 0743 01       		.byte	0x1
 1507 0744 E5       		.byte	0xe5
 1508 0745 3F060000 		.4byte	0x63f
 1509 0749 18       		.byte	0x18
 1510 074a 06       		.uleb128 0x6
 1511 074b 38050000 		.4byte	.LASF109
 1512 074f 01       		.byte	0x1
 1513 0750 E6       		.byte	0xe6
 1514 0751 3F060000 		.4byte	0x63f
 1515 0755 1C       		.byte	0x1c
 1516 0756 00       		.byte	0
 1517 0757 18       		.uleb128 0x18
 1518 0758 10       		.byte	0x10
 1519 0759 0B       		.byte	0xb
 1520 075a 51       		.byte	0x51
 1521 075b 90070000 		.4byte	0x790
 1522 075f 06       		.uleb128 0x6
 1523 0760 0D000000 		.4byte	.LASF110
 1524 0764 0B       		.byte	0xb
 1525 0765 55       		.byte	0x55
 1526 0766 31010000 		.4byte	0x131
 1527 076a 00       		.byte	0
 1528 076b 06       		.uleb128 0x6
 1529 076c 92010000 		.4byte	.LASF111
 1530 0770 0B       		.byte	0xb
 1531 0771 59       		.byte	0x59
 1532 0772 58020000 		.4byte	0x258
 1533 0776 04       		.byte	0x4
 1534 0777 06       		.uleb128 0x6
 1535 0778 34070000 		.4byte	.LASF112
 1536 077c 0B       		.byte	0xb
 1537 077d 5D       		.byte	0x5d
 1538 077e 35030000 		.4byte	0x335
ARM GAS  /tmp/ccyCEcZE.s 			page 47


 1539 0782 08       		.byte	0x8
 1540 0783 06       		.uleb128 0x6
 1541 0784 BA000000 		.4byte	.LASF113
 1542 0788 0B       		.byte	0xb
 1543 0789 61       		.byte	0x61
 1544 078a 97000000 		.4byte	0x97
 1545 078e 0C       		.byte	0xc
 1546 078f 00       		.byte	0
 1547 0790 04       		.uleb128 0x4
 1548 0791 46040000 		.4byte	.LASF114
 1549 0795 0B       		.byte	0xb
 1550 0796 62       		.byte	0x62
 1551 0797 57070000 		.4byte	0x757
 1552 079b 19       		.uleb128 0x19
 1553 079c 0804     		.2byte	0x408
 1554 079e 0B       		.byte	0xb
 1555 079f 67       		.byte	0x67
 1556 07a0 C9070000 		.4byte	0x7c9
 1557 07a4 06       		.uleb128 0x6
 1558 07a5 AD010000 		.4byte	.LASF115
 1559 07a9 0B       		.byte	0xb
 1560 07aa 6B       		.byte	0x6b
 1561 07ab 2C000000 		.4byte	0x2c
 1562 07af 00       		.byte	0
 1563 07b0 06       		.uleb128 0x6
 1564 07b1 3F040000 		.4byte	.LASF116
 1565 07b5 0B       		.byte	0xb
 1566 07b6 6F       		.byte	0x6f
 1567 07b7 C9070000 		.4byte	0x7c9
 1568 07bb 04       		.byte	0x4
 1569 07bc 06       		.uleb128 0x6
 1570 07bd 9B030000 		.4byte	.LASF117
 1571 07c1 0B       		.byte	0xb
 1572 07c2 73       		.byte	0x73
 1573 07c3 CF070000 		.4byte	0x7cf
 1574 07c7 08       		.byte	0x8
 1575 07c8 00       		.byte	0
 1576 07c9 09       		.uleb128 0x9
 1577 07ca 04       		.byte	0x4
 1578 07cb 90070000 		.4byte	0x790
 1579 07cf 14       		.uleb128 0x14
 1580 07d0 90070000 		.4byte	0x790
 1581 07d4 DF070000 		.4byte	0x7df
 1582 07d8 15       		.uleb128 0x15
 1583 07d9 A4040000 		.4byte	0x4a4
 1584 07dd 3F       		.byte	0x3f
 1585 07de 00       		.byte	0
 1586 07df 04       		.uleb128 0x4
 1587 07e0 A8000000 		.4byte	.LASF118
 1588 07e4 0B       		.byte	0xb
 1589 07e5 74       		.byte	0x74
 1590 07e6 9B070000 		.4byte	0x79b
 1591 07ea 18       		.uleb128 0x18
 1592 07eb 04       		.byte	0x4
 1593 07ec 0C       		.byte	0xc
 1594 07ed 38       		.byte	0x38
 1595 07ee FF070000 		.4byte	0x7ff
ARM GAS  /tmp/ccyCEcZE.s 			page 48


 1596 07f2 06       		.uleb128 0x6
 1597 07f3 6C060000 		.4byte	.LASF119
 1598 07f7 0C       		.byte	0xc
 1599 07f8 3C       		.byte	0x3c
 1600 07f9 C3000000 		.4byte	0xc3
 1601 07fd 00       		.byte	0
 1602 07fe 00       		.byte	0
 1603 07ff 04       		.uleb128 0x4
 1604 0800 7B040000 		.4byte	.LASF120
 1605 0804 0C       		.byte	0xc
 1606 0805 3D       		.byte	0x3d
 1607 0806 EA070000 		.4byte	0x7ea
 1608 080a 18       		.uleb128 0x18
 1609 080b 18       		.byte	0x18
 1610 080c 0C       		.byte	0xc
 1611 080d 48       		.byte	0x48
 1612 080e 4D080000 		.4byte	0x84d
 1613 0812 06       		.uleb128 0x6
 1614 0813 1F060000 		.4byte	.LASF121
 1615 0817 0C       		.byte	0xc
 1616 0818 49       		.byte	0x49
 1617 0819 C3000000 		.4byte	0xc3
 1618 081d 00       		.byte	0
 1619 081e 06       		.uleb128 0x6
 1620 081f 78000000 		.4byte	.LASF122
 1621 0823 0C       		.byte	0xc
 1622 0824 4A       		.byte	0x4a
 1623 0825 C3000000 		.4byte	0xc3
 1624 0829 04       		.byte	0x4
 1625 082a 06       		.uleb128 0x6
 1626 082b 45010000 		.4byte	.LASF123
 1627 082f 0C       		.byte	0xc
 1628 0830 4B       		.byte	0x4b
 1629 0831 C3000000 		.4byte	0xc3
 1630 0835 08       		.byte	0x8
 1631 0836 17       		.uleb128 0x17
 1632 0837 6E00     		.ascii	"n\000"
 1633 0839 0C       		.byte	0xc
 1634 083a 4C       		.byte	0x4c
 1635 083b 26010000 		.4byte	0x126
 1636 083f 0C       		.byte	0xc
 1637 0840 06       		.uleb128 0x6
 1638 0841 A9040000 		.4byte	.LASF124
 1639 0845 0C       		.byte	0xc
 1640 0846 4D       		.byte	0x4d
 1641 0847 CE000000 		.4byte	0xce
 1642 084b 10       		.byte	0x10
 1643 084c 00       		.byte	0
 1644 084d 04       		.uleb128 0x4
 1645 084e 7E000000 		.4byte	.LASF125
 1646 0852 0C       		.byte	0xc
 1647 0853 4E       		.byte	0x4e
 1648 0854 0A080000 		.4byte	0x80a
 1649 0858 18       		.uleb128 0x18
 1650 0859 38       		.byte	0x38
 1651 085a 0D       		.byte	0xd
 1652 085b 38       		.byte	0x38
ARM GAS  /tmp/ccyCEcZE.s 			page 49


 1653 085c 91080000 		.4byte	0x891
 1654 0860 06       		.uleb128 0x6
 1655 0861 54020000 		.4byte	.LASF126
 1656 0865 0D       		.byte	0xd
 1657 0866 39       		.byte	0x39
 1658 0867 26010000 		.4byte	0x126
 1659 086b 00       		.byte	0
 1660 086c 06       		.uleb128 0x6
 1661 086d EA040000 		.4byte	.LASF127
 1662 0871 0D       		.byte	0xd
 1663 0872 3A       		.byte	0x3a
 1664 0873 26010000 		.4byte	0x126
 1665 0877 04       		.byte	0x4
 1666 0878 06       		.uleb128 0x6
 1667 0879 1A070000 		.4byte	.LASF128
 1668 087d 0D       		.byte	0xd
 1669 087e 3B       		.byte	0x3b
 1670 087f 4D080000 		.4byte	0x84d
 1671 0883 08       		.byte	0x8
 1672 0884 06       		.uleb128 0x6
 1673 0885 A5030000 		.4byte	.LASF129
 1674 0889 0D       		.byte	0xd
 1675 088a 3D       		.byte	0x3d
 1676 088b 4D080000 		.4byte	0x84d
 1677 088f 20       		.byte	0x20
 1678 0890 00       		.byte	0
 1679 0891 04       		.uleb128 0x4
 1680 0892 A9020000 		.4byte	.LASF130
 1681 0896 0D       		.byte	0xd
 1682 0897 3F       		.byte	0x3f
 1683 0898 58080000 		.4byte	0x858
 1684 089c 1A       		.uleb128 0x1a
 1685 089d 04       		.byte	0x4
 1686 089e 08       		.byte	0x8
 1687 089f FA       		.byte	0xfa
 1688 08a0 F9080000 		.4byte	0x8f9
 1689 08a4 1B       		.uleb128 0x1b
 1690 08a5 1B000000 		.4byte	.LASF131
 1691 08a9 08       		.byte	0x8
 1692 08aa 0101     		.2byte	0x101
 1693 08ac 05010000 		.4byte	0x105
 1694 08b0 1B       		.uleb128 0x1b
 1695 08b1 C3000000 		.4byte	.LASF132
 1696 08b5 08       		.byte	0x8
 1697 08b6 0801     		.2byte	0x108
 1698 08b8 05010000 		.4byte	0x105
 1699 08bc 1B       		.uleb128 0x1b
 1700 08bd EE060000 		.4byte	.LASF133
 1701 08c1 08       		.byte	0x8
 1702 08c2 0F01     		.2byte	0x10f
 1703 08c4 35030000 		.4byte	0x335
 1704 08c8 1B       		.uleb128 0x1b
 1705 08c9 15000000 		.4byte	.LASF134
 1706 08cd 08       		.byte	0x8
 1707 08ce 1601     		.2byte	0x116
 1708 08d0 F9080000 		.4byte	0x8f9
 1709 08d4 1B       		.uleb128 0x1b
ARM GAS  /tmp/ccyCEcZE.s 			page 50


 1710 08d5 42020000 		.4byte	.LASF135
 1711 08d9 08       		.byte	0x8
 1712 08da 1E01     		.2byte	0x11e
 1713 08dc 24090000 		.4byte	0x924
 1714 08e0 1B       		.uleb128 0x1b
 1715 08e1 C2050000 		.4byte	.LASF136
 1716 08e5 08       		.byte	0x8
 1717 08e6 2701     		.2byte	0x127
 1718 08e8 5B090000 		.4byte	0x95b
 1719 08ec 1B       		.uleb128 0x1b
 1720 08ed 44050000 		.4byte	.LASF137
 1721 08f1 08       		.byte	0x8
 1722 08f2 2F01     		.2byte	0x12f
 1723 08f4 10010000 		.4byte	0x110
 1724 08f8 00       		.byte	0
 1725 08f9 09       		.uleb128 0x9
 1726 08fa 04       		.byte	0x4
 1727 08fb 4D020000 		.4byte	0x24d
 1728 08ff 05       		.uleb128 0x5
 1729 0900 A1050000 		.4byte	.LASF138
 1730 0904 0C       		.byte	0xc
 1731 0905 0E       		.byte	0xe
 1732 0906 34       		.byte	0x34
 1733 0907 24090000 		.4byte	0x924
 1734 090b 06       		.uleb128 0x6
 1735 090c A0010000 		.4byte	.LASF139
 1736 0910 0E       		.byte	0xe
 1737 0911 35       		.byte	0x35
 1738 0912 82020000 		.4byte	0x282
 1739 0916 00       		.byte	0
 1740 0917 06       		.uleb128 0x6
 1741 0918 5F020000 		.4byte	.LASF140
 1742 091c 0E       		.byte	0xe
 1743 091d 37       		.byte	0x37
 1744 091e 1B010000 		.4byte	0x11b
 1745 0922 08       		.byte	0x8
 1746 0923 00       		.byte	0
 1747 0924 09       		.uleb128 0x9
 1748 0925 04       		.byte	0x4
 1749 0926 FF080000 		.4byte	0x8ff
 1750 092a 05       		.uleb128 0x5
 1751 092b C3060000 		.4byte	.LASF141
 1752 092f 10       		.byte	0x10
 1753 0930 0F       		.byte	0xf
 1754 0931 39       		.byte	0x39
 1755 0932 5B090000 		.4byte	0x95b
 1756 0936 06       		.uleb128 0x6
 1757 0937 2A010000 		.4byte	.LASF142
 1758 093b 0F       		.byte	0xf
 1759 093c 3A       		.byte	0x3a
 1760 093d 82020000 		.4byte	0x282
 1761 0941 00       		.byte	0
 1762 0942 06       		.uleb128 0x6
 1763 0943 25070000 		.4byte	.LASF143
 1764 0947 0F       		.byte	0xf
 1765 0948 3C       		.byte	0x3c
 1766 0949 58020000 		.4byte	0x258
ARM GAS  /tmp/ccyCEcZE.s 			page 51


 1767 094d 08       		.byte	0x8
 1768 094e 06       		.uleb128 0x6
 1769 094f 24060000 		.4byte	.LASF144
 1770 0953 0F       		.byte	0xf
 1771 0954 3E       		.byte	0x3e
 1772 0955 9F090000 		.4byte	0x99f
 1773 0959 0C       		.byte	0xc
 1774 095a 00       		.byte	0
 1775 095b 09       		.uleb128 0x9
 1776 095c 04       		.byte	0x4
 1777 095d 2A090000 		.4byte	0x92a
 1778 0961 09       		.uleb128 0x9
 1779 0962 04       		.byte	0x4
 1780 0963 67090000 		.4byte	0x967
 1781 0967 13       		.uleb128 0x13
 1782 0968 6C090000 		.4byte	0x96c
 1783 096c 03       		.uleb128 0x3
 1784 096d 01       		.byte	0x1
 1785 096e 08       		.byte	0x8
 1786 096f FC050000 		.4byte	.LASF145
 1787 0973 09       		.uleb128 0x9
 1788 0974 04       		.byte	0x4
 1789 0975 4A060000 		.4byte	0x64a
 1790 0979 09       		.uleb128 0x9
 1791 097a 04       		.byte	0x4
 1792 097b 37030000 		.4byte	0x337
 1793 097f 11       		.uleb128 0x11
 1794 0980 61090000 		.4byte	0x961
 1795 0984 14       		.uleb128 0x14
 1796 0985 4A060000 		.4byte	0x64a
 1797 0989 94090000 		.4byte	0x994
 1798 098d 15       		.uleb128 0x15
 1799 098e A4040000 		.4byte	0x4a4
 1800 0992 1E       		.byte	0x1e
 1801 0993 00       		.byte	0
 1802 0994 04       		.uleb128 0x4
 1803 0995 EC010000 		.4byte	.LASF146
 1804 0999 0F       		.byte	0xf
 1805 099a 34       		.byte	0x34
 1806 099b 2A090000 		.4byte	0x92a
 1807 099f 09       		.uleb128 0x9
 1808 09a0 04       		.byte	0x4
 1809 09a1 94090000 		.4byte	0x994
 1810 09a5 1C       		.uleb128 0x1c
 1811 09a6 54060000 		.4byte	.LASF147
 1812 09aa 02       		.byte	0x2
 1813 09ab 2202     		.2byte	0x222
 1814 09ad 03       		.byte	0x3
 1815 09ae BF090000 		.4byte	0x9bf
 1816 09b2 1D       		.uleb128 0x1d
 1817 09b3 F4010000 		.4byte	.LASF149
 1818 09b7 02       		.byte	0x2
 1819 09b8 2202     		.2byte	0x222
 1820 09ba AD000000 		.4byte	0xad
 1821 09be 00       		.byte	0
 1822 09bf 1E       		.uleb128 0x1e
 1823 09c0 A2060000 		.4byte	.LASF162
ARM GAS  /tmp/ccyCEcZE.s 			page 52


 1824 09c4 02       		.byte	0x2
 1825 09c5 AA01     		.2byte	0x1aa
 1826 09c7 AD000000 		.4byte	0xad
 1827 09cb 03       		.byte	0x3
 1828 09cc DD090000 		.4byte	0x9dd
 1829 09d0 1F       		.uleb128 0x1f
 1830 09d1 2D070000 		.4byte	.LASF163
 1831 09d5 02       		.byte	0x2
 1832 09d6 AC01     		.2byte	0x1ac
 1833 09d8 AD000000 		.4byte	0xad
 1834 09dc 00       		.byte	0
 1835 09dd 1C       		.uleb128 0x1c
 1836 09de 30020000 		.4byte	.LASF148
 1837 09e2 02       		.byte	0x2
 1838 09e3 B901     		.2byte	0x1b9
 1839 09e5 03       		.byte	0x3
 1840 09e6 F7090000 		.4byte	0x9f7
 1841 09ea 1D       		.uleb128 0x1d
 1842 09eb CA030000 		.4byte	.LASF150
 1843 09ef 02       		.byte	0x2
 1844 09f0 B901     		.2byte	0x1b9
 1845 09f2 AD000000 		.4byte	0xad
 1846 09f6 00       		.byte	0
 1847 09f7 20       		.uleb128 0x20
 1848 09f8 6E000000 		.4byte	.LASF151
 1849 09fc 01       		.byte	0x1
 1850 09fd C801     		.2byte	0x1c8
 1851 09ff 00000000 		.4byte	.LFB127
 1852 0a03 10000000 		.4byte	.LFE127-.LFB127
 1853 0a07 01       		.uleb128 0x1
 1854 0a08 9C       		.byte	0x9c
 1855 0a09 270A0000 		.4byte	0xa27
 1856 0a0d 21       		.uleb128 0x21
 1857 0a0e A5090000 		.4byte	0x9a5
 1858 0a12 06000000 		.4byte	.LBB15
 1859 0a16 06000000 		.4byte	.LBE15-.LBB15
 1860 0a1a 01       		.byte	0x1
 1861 0a1b D001     		.2byte	0x1d0
 1862 0a1d 22       		.uleb128 0x22
 1863 0a1e B2090000 		.4byte	0x9b2
 1864 0a22 02       		.uleb128 0x2
 1865 0a23 91       		.byte	0x91
 1866 0a24 7C       		.sleb128 -4
 1867 0a25 00       		.byte	0
 1868 0a26 00       		.byte	0
 1869 0a27 20       		.uleb128 0x20
 1870 0a28 39010000 		.4byte	.LASF152
 1871 0a2c 01       		.byte	0x1
 1872 0a2d E001     		.2byte	0x1e0
 1873 0a2f 00000000 		.4byte	.LFB128
 1874 0a33 10000000 		.4byte	.LFE128-.LFB128
 1875 0a37 01       		.uleb128 0x1
 1876 0a38 9C       		.byte	0x9c
 1877 0a39 570A0000 		.4byte	0xa57
 1878 0a3d 21       		.uleb128 0x21
 1879 0a3e A5090000 		.4byte	0x9a5
 1880 0a42 06000000 		.4byte	.LBB17
ARM GAS  /tmp/ccyCEcZE.s 			page 53


 1881 0a46 06000000 		.4byte	.LBE17-.LBB17
 1882 0a4a 01       		.byte	0x1
 1883 0a4b E301     		.2byte	0x1e3
 1884 0a4d 22       		.uleb128 0x22
 1885 0a4e B2090000 		.4byte	0x9b2
 1886 0a52 02       		.uleb128 0x2
 1887 0a53 91       		.byte	0x91
 1888 0a54 7C       		.sleb128 -4
 1889 0a55 00       		.byte	0
 1890 0a56 00       		.byte	0
 1891 0a57 23       		.uleb128 0x23
 1892 0a58 8F060000 		.4byte	.LASF153
 1893 0a5c 01       		.byte	0x1
 1894 0a5d EF01     		.2byte	0x1ef
 1895 0a5f 00000000 		.4byte	.LFB129
 1896 0a63 08000000 		.4byte	.LFE129-.LFB129
 1897 0a67 01       		.uleb128 0x1
 1898 0a68 9C       		.byte	0x9c
 1899 0a69 23       		.uleb128 0x23
 1900 0a6a 01060000 		.4byte	.LASF154
 1901 0a6e 01       		.byte	0x1
 1902 0a6f FA01     		.2byte	0x1fa
 1903 0a71 00000000 		.4byte	.LFB130
 1904 0a75 08000000 		.4byte	.LFE130-.LFB130
 1905 0a79 01       		.uleb128 0x1
 1906 0a7a 9C       		.byte	0x9c
 1907 0a7b 24       		.uleb128 0x24
 1908 0a7c 84050000 		.4byte	.LASF155
 1909 0a80 03       		.byte	0x3
 1910 0a81 3E       		.byte	0x3e
 1911 0a82 00000000 		.4byte	.LFB241
 1912 0a86 26000000 		.4byte	.LFE241-.LFB241
 1913 0a8a 01       		.uleb128 0x1
 1914 0a8b 9C       		.byte	0x9c
 1915 0a8c DC0A0000 		.4byte	0xadc
 1916 0a90 25       		.uleb128 0x25
 1917 0a91 C6040000 		.4byte	.LASF157
 1918 0a95 03       		.byte	0x3
 1919 0a96 40       		.byte	0x40
 1920 0a97 DC0A0000 		.4byte	0xadc
 1921 0a9b 02       		.uleb128 0x2
 1922 0a9c 91       		.byte	0x91
 1923 0a9d 74       		.sleb128 -12
 1924 0a9e 26       		.uleb128 0x26
 1925 0a9f BF090000 		.4byte	0x9bf
 1926 0aa3 04000000 		.4byte	.LBB19
 1927 0aa7 08000000 		.4byte	.LBE19-.LBB19
 1928 0aab 03       		.byte	0x3
 1929 0aac 48       		.byte	0x48
 1930 0aad C30A0000 		.4byte	0xac3
 1931 0ab1 27       		.uleb128 0x27
 1932 0ab2 04000000 		.4byte	.LBB20
 1933 0ab6 08000000 		.4byte	.LBE20-.LBB20
 1934 0aba 28       		.uleb128 0x28
 1935 0abb D0090000 		.4byte	0x9d0
 1936 0abf 01       		.uleb128 0x1
 1937 0ac0 54       		.byte	0x54
ARM GAS  /tmp/ccyCEcZE.s 			page 54


 1938 0ac1 00       		.byte	0
 1939 0ac2 00       		.byte	0
 1940 0ac3 29       		.uleb128 0x29
 1941 0ac4 DD090000 		.4byte	0x9dd
 1942 0ac8 18000000 		.4byte	.LBB21
 1943 0acc 06000000 		.4byte	.LBE21-.LBB21
 1944 0ad0 03       		.byte	0x3
 1945 0ad1 4F       		.byte	0x4f
 1946 0ad2 22       		.uleb128 0x22
 1947 0ad3 EA090000 		.4byte	0x9ea
 1948 0ad7 02       		.uleb128 0x2
 1949 0ad8 91       		.byte	0x91
 1950 0ad9 70       		.sleb128 -16
 1951 0ada 00       		.byte	0
 1952 0adb 00       		.byte	0
 1953 0adc 09       		.uleb128 0x9
 1954 0add 04       		.byte	0x4
 1955 0ade EF060000 		.4byte	0x6ef
 1956 0ae2 24       		.uleb128 0x24
 1957 0ae3 E5020000 		.4byte	.LASF156
 1958 0ae7 03       		.byte	0x3
 1959 0ae8 7A       		.byte	0x7a
 1960 0ae9 00000000 		.4byte	.LFB242
 1961 0aed 6A000000 		.4byte	.LFE242-.LFB242
 1962 0af1 01       		.uleb128 0x1
 1963 0af2 9C       		.byte	0x9c
 1964 0af3 4D0B0000 		.4byte	0xb4d
 1965 0af7 27       		.uleb128 0x27
 1966 0af8 1A000000 		.4byte	.LBB23
 1967 0afc 48000000 		.4byte	.LBE23-.LBB23
 1968 0b00 25       		.uleb128 0x25
 1969 0b01 C6040000 		.4byte	.LASF157
 1970 0b05 03       		.byte	0x3
 1971 0b06 7E       		.byte	0x7e
 1972 0b07 DC0A0000 		.4byte	0xadc
 1973 0b0b 02       		.uleb128 0x2
 1974 0b0c 91       		.byte	0x91
 1975 0b0d 74       		.sleb128 -12
 1976 0b0e 26       		.uleb128 0x26
 1977 0b0f BF090000 		.4byte	0x9bf
 1978 0b13 1A000000 		.4byte	.LBB24
 1979 0b17 08000000 		.4byte	.LBE24-.LBB24
 1980 0b1b 03       		.byte	0x3
 1981 0b1c 86       		.byte	0x86
 1982 0b1d 330B0000 		.4byte	0xb33
 1983 0b21 27       		.uleb128 0x27
 1984 0b22 1A000000 		.4byte	.LBB25
 1985 0b26 08000000 		.4byte	.LBE25-.LBB25
 1986 0b2a 28       		.uleb128 0x28
 1987 0b2b D0090000 		.4byte	0x9d0
 1988 0b2f 01       		.uleb128 0x1
 1989 0b30 54       		.byte	0x54
 1990 0b31 00       		.byte	0
 1991 0b32 00       		.byte	0
 1992 0b33 29       		.uleb128 0x29
 1993 0b34 DD090000 		.4byte	0x9dd
 1994 0b38 36000000 		.4byte	.LBB26
ARM GAS  /tmp/ccyCEcZE.s 			page 55


 1995 0b3c 06000000 		.4byte	.LBE26-.LBB26
 1996 0b40 03       		.byte	0x3
 1997 0b41 93       		.byte	0x93
 1998 0b42 22       		.uleb128 0x22
 1999 0b43 EA090000 		.4byte	0x9ea
 2000 0b47 02       		.uleb128 0x2
 2001 0b48 91       		.byte	0x91
 2002 0b49 70       		.sleb128 -16
 2003 0b4a 00       		.byte	0
 2004 0b4b 00       		.byte	0
 2005 0b4c 00       		.byte	0
 2006 0b4d 2A       		.uleb128 0x2a
 2007 0b4e 0F050000 		.4byte	.LASF158
 2008 0b52 09       		.byte	0x9
 2009 0b53 FA06     		.2byte	0x6fa
 2010 0b55 590B0000 		.4byte	0xb59
 2011 0b59 11       		.uleb128 0x11
 2012 0b5a A2000000 		.4byte	0xa2
 2013 0b5e 2B       		.uleb128 0x2b
 2014 0b5f 636800   		.ascii	"ch\000"
 2015 0b62 08       		.byte	0x8
 2016 0b63 0902     		.2byte	0x209
 2017 0b65 2C040000 		.4byte	0x42c
 2018 0b69 00       		.byte	0
 2019              		.section	.debug_abbrev,"",%progbits
 2020              	.Ldebug_abbrev0:
 2021 0000 01       		.uleb128 0x1
 2022 0001 11       		.uleb128 0x11
 2023 0002 01       		.byte	0x1
 2024 0003 25       		.uleb128 0x25
 2025 0004 0E       		.uleb128 0xe
 2026 0005 13       		.uleb128 0x13
 2027 0006 0B       		.uleb128 0xb
 2028 0007 03       		.uleb128 0x3
 2029 0008 0E       		.uleb128 0xe
 2030 0009 1B       		.uleb128 0x1b
 2031 000a 0E       		.uleb128 0xe
 2032 000b 55       		.uleb128 0x55
 2033 000c 17       		.uleb128 0x17
 2034 000d 11       		.uleb128 0x11
 2035 000e 01       		.uleb128 0x1
 2036 000f 10       		.uleb128 0x10
 2037 0010 17       		.uleb128 0x17
 2038 0011 00       		.byte	0
 2039 0012 00       		.byte	0
 2040 0013 02       		.uleb128 0x2
 2041 0014 24       		.uleb128 0x24
 2042 0015 00       		.byte	0
 2043 0016 0B       		.uleb128 0xb
 2044 0017 0B       		.uleb128 0xb
 2045 0018 3E       		.uleb128 0x3e
 2046 0019 0B       		.uleb128 0xb
 2047 001a 03       		.uleb128 0x3
 2048 001b 08       		.uleb128 0x8
 2049 001c 00       		.byte	0
 2050 001d 00       		.byte	0
 2051 001e 03       		.uleb128 0x3
ARM GAS  /tmp/ccyCEcZE.s 			page 56


 2052 001f 24       		.uleb128 0x24
 2053 0020 00       		.byte	0
 2054 0021 0B       		.uleb128 0xb
 2055 0022 0B       		.uleb128 0xb
 2056 0023 3E       		.uleb128 0x3e
 2057 0024 0B       		.uleb128 0xb
 2058 0025 03       		.uleb128 0x3
 2059 0026 0E       		.uleb128 0xe
 2060 0027 00       		.byte	0
 2061 0028 00       		.byte	0
 2062 0029 04       		.uleb128 0x4
 2063 002a 16       		.uleb128 0x16
 2064 002b 00       		.byte	0
 2065 002c 03       		.uleb128 0x3
 2066 002d 0E       		.uleb128 0xe
 2067 002e 3A       		.uleb128 0x3a
 2068 002f 0B       		.uleb128 0xb
 2069 0030 3B       		.uleb128 0x3b
 2070 0031 0B       		.uleb128 0xb
 2071 0032 49       		.uleb128 0x49
 2072 0033 13       		.uleb128 0x13
 2073 0034 00       		.byte	0
 2074 0035 00       		.byte	0
 2075 0036 05       		.uleb128 0x5
 2076 0037 13       		.uleb128 0x13
 2077 0038 01       		.byte	0x1
 2078 0039 03       		.uleb128 0x3
 2079 003a 0E       		.uleb128 0xe
 2080 003b 0B       		.uleb128 0xb
 2081 003c 0B       		.uleb128 0xb
 2082 003d 3A       		.uleb128 0x3a
 2083 003e 0B       		.uleb128 0xb
 2084 003f 3B       		.uleb128 0x3b
 2085 0040 0B       		.uleb128 0xb
 2086 0041 01       		.uleb128 0x1
 2087 0042 13       		.uleb128 0x13
 2088 0043 00       		.byte	0
 2089 0044 00       		.byte	0
 2090 0045 06       		.uleb128 0x6
 2091 0046 0D       		.uleb128 0xd
 2092 0047 00       		.byte	0
 2093 0048 03       		.uleb128 0x3
 2094 0049 0E       		.uleb128 0xe
 2095 004a 3A       		.uleb128 0x3a
 2096 004b 0B       		.uleb128 0xb
 2097 004c 3B       		.uleb128 0x3b
 2098 004d 0B       		.uleb128 0xb
 2099 004e 49       		.uleb128 0x49
 2100 004f 13       		.uleb128 0x13
 2101 0050 38       		.uleb128 0x38
 2102 0051 0B       		.uleb128 0xb
 2103 0052 00       		.byte	0
 2104 0053 00       		.byte	0
 2105 0054 07       		.uleb128 0x7
 2106 0055 0D       		.uleb128 0xd
 2107 0056 00       		.byte	0
 2108 0057 03       		.uleb128 0x3
ARM GAS  /tmp/ccyCEcZE.s 			page 57


 2109 0058 08       		.uleb128 0x8
 2110 0059 3A       		.uleb128 0x3a
 2111 005a 0B       		.uleb128 0xb
 2112 005b 3B       		.uleb128 0x3b
 2113 005c 05       		.uleb128 0x5
 2114 005d 49       		.uleb128 0x49
 2115 005e 13       		.uleb128 0x13
 2116 005f 38       		.uleb128 0x38
 2117 0060 0B       		.uleb128 0xb
 2118 0061 00       		.byte	0
 2119 0062 00       		.byte	0
 2120 0063 08       		.uleb128 0x8
 2121 0064 0D       		.uleb128 0xd
 2122 0065 00       		.byte	0
 2123 0066 03       		.uleb128 0x3
 2124 0067 0E       		.uleb128 0xe
 2125 0068 3A       		.uleb128 0x3a
 2126 0069 0B       		.uleb128 0xb
 2127 006a 3B       		.uleb128 0x3b
 2128 006b 05       		.uleb128 0x5
 2129 006c 49       		.uleb128 0x49
 2130 006d 13       		.uleb128 0x13
 2131 006e 38       		.uleb128 0x38
 2132 006f 0B       		.uleb128 0xb
 2133 0070 00       		.byte	0
 2134 0071 00       		.byte	0
 2135 0072 09       		.uleb128 0x9
 2136 0073 0F       		.uleb128 0xf
 2137 0074 00       		.byte	0
 2138 0075 0B       		.uleb128 0xb
 2139 0076 0B       		.uleb128 0xb
 2140 0077 49       		.uleb128 0x49
 2141 0078 13       		.uleb128 0x13
 2142 0079 00       		.byte	0
 2143 007a 00       		.byte	0
 2144 007b 0A       		.uleb128 0xa
 2145 007c 13       		.uleb128 0x13
 2146 007d 01       		.byte	0x1
 2147 007e 03       		.uleb128 0x3
 2148 007f 0E       		.uleb128 0xe
 2149 0080 0B       		.uleb128 0xb
 2150 0081 0B       		.uleb128 0xb
 2151 0082 3A       		.uleb128 0x3a
 2152 0083 0B       		.uleb128 0xb
 2153 0084 3B       		.uleb128 0x3b
 2154 0085 05       		.uleb128 0x5
 2155 0086 01       		.uleb128 0x1
 2156 0087 13       		.uleb128 0x13
 2157 0088 00       		.byte	0
 2158 0089 00       		.byte	0
 2159 008a 0B       		.uleb128 0xb
 2160 008b 15       		.uleb128 0x15
 2161 008c 01       		.byte	0x1
 2162 008d 27       		.uleb128 0x27
 2163 008e 19       		.uleb128 0x19
 2164 008f 01       		.uleb128 0x1
 2165 0090 13       		.uleb128 0x13
ARM GAS  /tmp/ccyCEcZE.s 			page 58


 2166 0091 00       		.byte	0
 2167 0092 00       		.byte	0
 2168 0093 0C       		.uleb128 0xc
 2169 0094 05       		.uleb128 0x5
 2170 0095 00       		.byte	0
 2171 0096 49       		.uleb128 0x49
 2172 0097 13       		.uleb128 0x13
 2173 0098 00       		.byte	0
 2174 0099 00       		.byte	0
 2175 009a 0D       		.uleb128 0xd
 2176 009b 0F       		.uleb128 0xf
 2177 009c 00       		.byte	0
 2178 009d 0B       		.uleb128 0xb
 2179 009e 0B       		.uleb128 0xb
 2180 009f 00       		.byte	0
 2181 00a0 00       		.byte	0
 2182 00a1 0E       		.uleb128 0xe
 2183 00a2 13       		.uleb128 0x13
 2184 00a3 01       		.byte	0x1
 2185 00a4 03       		.uleb128 0x3
 2186 00a5 0E       		.uleb128 0xe
 2187 00a6 0B       		.uleb128 0xb
 2188 00a7 05       		.uleb128 0x5
 2189 00a8 3A       		.uleb128 0x3a
 2190 00a9 0B       		.uleb128 0xb
 2191 00aa 3B       		.uleb128 0x3b
 2192 00ab 05       		.uleb128 0x5
 2193 00ac 01       		.uleb128 0x1
 2194 00ad 13       		.uleb128 0x13
 2195 00ae 00       		.byte	0
 2196 00af 00       		.byte	0
 2197 00b0 0F       		.uleb128 0xf
 2198 00b1 0D       		.uleb128 0xd
 2199 00b2 00       		.byte	0
 2200 00b3 03       		.uleb128 0x3
 2201 00b4 0E       		.uleb128 0xe
 2202 00b5 3A       		.uleb128 0x3a
 2203 00b6 0B       		.uleb128 0xb
 2204 00b7 3B       		.uleb128 0x3b
 2205 00b8 05       		.uleb128 0x5
 2206 00b9 49       		.uleb128 0x49
 2207 00ba 13       		.uleb128 0x13
 2208 00bb 38       		.uleb128 0x38
 2209 00bc 05       		.uleb128 0x5
 2210 00bd 00       		.byte	0
 2211 00be 00       		.byte	0
 2212 00bf 10       		.uleb128 0x10
 2213 00c0 0D       		.uleb128 0xd
 2214 00c1 00       		.byte	0
 2215 00c2 03       		.uleb128 0x3
 2216 00c3 08       		.uleb128 0x8
 2217 00c4 3A       		.uleb128 0x3a
 2218 00c5 0B       		.uleb128 0xb
 2219 00c6 3B       		.uleb128 0x3b
 2220 00c7 05       		.uleb128 0x5
 2221 00c8 49       		.uleb128 0x49
 2222 00c9 13       		.uleb128 0x13
ARM GAS  /tmp/ccyCEcZE.s 			page 59


 2223 00ca 38       		.uleb128 0x38
 2224 00cb 05       		.uleb128 0x5
 2225 00cc 00       		.byte	0
 2226 00cd 00       		.byte	0
 2227 00ce 11       		.uleb128 0x11
 2228 00cf 35       		.uleb128 0x35
 2229 00d0 00       		.byte	0
 2230 00d1 49       		.uleb128 0x49
 2231 00d2 13       		.uleb128 0x13
 2232 00d3 00       		.byte	0
 2233 00d4 00       		.byte	0
 2234 00d5 12       		.uleb128 0x12
 2235 00d6 13       		.uleb128 0x13
 2236 00d7 01       		.byte	0x1
 2237 00d8 0B       		.uleb128 0xb
 2238 00d9 0B       		.uleb128 0xb
 2239 00da 3A       		.uleb128 0x3a
 2240 00db 0B       		.uleb128 0xb
 2241 00dc 3B       		.uleb128 0x3b
 2242 00dd 05       		.uleb128 0x5
 2243 00de 01       		.uleb128 0x1
 2244 00df 13       		.uleb128 0x13
 2245 00e0 00       		.byte	0
 2246 00e1 00       		.byte	0
 2247 00e2 13       		.uleb128 0x13
 2248 00e3 26       		.uleb128 0x26
 2249 00e4 00       		.byte	0
 2250 00e5 49       		.uleb128 0x49
 2251 00e6 13       		.uleb128 0x13
 2252 00e7 00       		.byte	0
 2253 00e8 00       		.byte	0
 2254 00e9 14       		.uleb128 0x14
 2255 00ea 01       		.uleb128 0x1
 2256 00eb 01       		.byte	0x1
 2257 00ec 49       		.uleb128 0x49
 2258 00ed 13       		.uleb128 0x13
 2259 00ee 01       		.uleb128 0x1
 2260 00ef 13       		.uleb128 0x13
 2261 00f0 00       		.byte	0
 2262 00f1 00       		.byte	0
 2263 00f2 15       		.uleb128 0x15
 2264 00f3 21       		.uleb128 0x21
 2265 00f4 00       		.byte	0
 2266 00f5 49       		.uleb128 0x49
 2267 00f6 13       		.uleb128 0x13
 2268 00f7 2F       		.uleb128 0x2f
 2269 00f8 0B       		.uleb128 0xb
 2270 00f9 00       		.byte	0
 2271 00fa 00       		.byte	0
 2272 00fb 16       		.uleb128 0x16
 2273 00fc 16       		.uleb128 0x16
 2274 00fd 00       		.byte	0
 2275 00fe 03       		.uleb128 0x3
 2276 00ff 0E       		.uleb128 0xe
 2277 0100 3A       		.uleb128 0x3a
 2278 0101 0B       		.uleb128 0xb
 2279 0102 3B       		.uleb128 0x3b
ARM GAS  /tmp/ccyCEcZE.s 			page 60


 2280 0103 05       		.uleb128 0x5
 2281 0104 49       		.uleb128 0x49
 2282 0105 13       		.uleb128 0x13
 2283 0106 00       		.byte	0
 2284 0107 00       		.byte	0
 2285 0108 17       		.uleb128 0x17
 2286 0109 0D       		.uleb128 0xd
 2287 010a 00       		.byte	0
 2288 010b 03       		.uleb128 0x3
 2289 010c 08       		.uleb128 0x8
 2290 010d 3A       		.uleb128 0x3a
 2291 010e 0B       		.uleb128 0xb
 2292 010f 3B       		.uleb128 0x3b
 2293 0110 0B       		.uleb128 0xb
 2294 0111 49       		.uleb128 0x49
 2295 0112 13       		.uleb128 0x13
 2296 0113 38       		.uleb128 0x38
 2297 0114 0B       		.uleb128 0xb
 2298 0115 00       		.byte	0
 2299 0116 00       		.byte	0
 2300 0117 18       		.uleb128 0x18
 2301 0118 13       		.uleb128 0x13
 2302 0119 01       		.byte	0x1
 2303 011a 0B       		.uleb128 0xb
 2304 011b 0B       		.uleb128 0xb
 2305 011c 3A       		.uleb128 0x3a
 2306 011d 0B       		.uleb128 0xb
 2307 011e 3B       		.uleb128 0x3b
 2308 011f 0B       		.uleb128 0xb
 2309 0120 01       		.uleb128 0x1
 2310 0121 13       		.uleb128 0x13
 2311 0122 00       		.byte	0
 2312 0123 00       		.byte	0
 2313 0124 19       		.uleb128 0x19
 2314 0125 13       		.uleb128 0x13
 2315 0126 01       		.byte	0x1
 2316 0127 0B       		.uleb128 0xb
 2317 0128 05       		.uleb128 0x5
 2318 0129 3A       		.uleb128 0x3a
 2319 012a 0B       		.uleb128 0xb
 2320 012b 3B       		.uleb128 0x3b
 2321 012c 0B       		.uleb128 0xb
 2322 012d 01       		.uleb128 0x1
 2323 012e 13       		.uleb128 0x13
 2324 012f 00       		.byte	0
 2325 0130 00       		.byte	0
 2326 0131 1A       		.uleb128 0x1a
 2327 0132 17       		.uleb128 0x17
 2328 0133 01       		.byte	0x1
 2329 0134 0B       		.uleb128 0xb
 2330 0135 0B       		.uleb128 0xb
 2331 0136 3A       		.uleb128 0x3a
 2332 0137 0B       		.uleb128 0xb
 2333 0138 3B       		.uleb128 0x3b
 2334 0139 0B       		.uleb128 0xb
 2335 013a 01       		.uleb128 0x1
 2336 013b 13       		.uleb128 0x13
ARM GAS  /tmp/ccyCEcZE.s 			page 61


 2337 013c 00       		.byte	0
 2338 013d 00       		.byte	0
 2339 013e 1B       		.uleb128 0x1b
 2340 013f 0D       		.uleb128 0xd
 2341 0140 00       		.byte	0
 2342 0141 03       		.uleb128 0x3
 2343 0142 0E       		.uleb128 0xe
 2344 0143 3A       		.uleb128 0x3a
 2345 0144 0B       		.uleb128 0xb
 2346 0145 3B       		.uleb128 0x3b
 2347 0146 05       		.uleb128 0x5
 2348 0147 49       		.uleb128 0x49
 2349 0148 13       		.uleb128 0x13
 2350 0149 00       		.byte	0
 2351 014a 00       		.byte	0
 2352 014b 1C       		.uleb128 0x1c
 2353 014c 2E       		.uleb128 0x2e
 2354 014d 01       		.byte	0x1
 2355 014e 03       		.uleb128 0x3
 2356 014f 0E       		.uleb128 0xe
 2357 0150 3A       		.uleb128 0x3a
 2358 0151 0B       		.uleb128 0xb
 2359 0152 3B       		.uleb128 0x3b
 2360 0153 05       		.uleb128 0x5
 2361 0154 27       		.uleb128 0x27
 2362 0155 19       		.uleb128 0x19
 2363 0156 20       		.uleb128 0x20
 2364 0157 0B       		.uleb128 0xb
 2365 0158 01       		.uleb128 0x1
 2366 0159 13       		.uleb128 0x13
 2367 015a 00       		.byte	0
 2368 015b 00       		.byte	0
 2369 015c 1D       		.uleb128 0x1d
 2370 015d 05       		.uleb128 0x5
 2371 015e 00       		.byte	0
 2372 015f 03       		.uleb128 0x3
 2373 0160 0E       		.uleb128 0xe
 2374 0161 3A       		.uleb128 0x3a
 2375 0162 0B       		.uleb128 0xb
 2376 0163 3B       		.uleb128 0x3b
 2377 0164 05       		.uleb128 0x5
 2378 0165 49       		.uleb128 0x49
 2379 0166 13       		.uleb128 0x13
 2380 0167 00       		.byte	0
 2381 0168 00       		.byte	0
 2382 0169 1E       		.uleb128 0x1e
 2383 016a 2E       		.uleb128 0x2e
 2384 016b 01       		.byte	0x1
 2385 016c 03       		.uleb128 0x3
 2386 016d 0E       		.uleb128 0xe
 2387 016e 3A       		.uleb128 0x3a
 2388 016f 0B       		.uleb128 0xb
 2389 0170 3B       		.uleb128 0x3b
 2390 0171 05       		.uleb128 0x5
 2391 0172 27       		.uleb128 0x27
 2392 0173 19       		.uleb128 0x19
 2393 0174 49       		.uleb128 0x49
ARM GAS  /tmp/ccyCEcZE.s 			page 62


 2394 0175 13       		.uleb128 0x13
 2395 0176 20       		.uleb128 0x20
 2396 0177 0B       		.uleb128 0xb
 2397 0178 01       		.uleb128 0x1
 2398 0179 13       		.uleb128 0x13
 2399 017a 00       		.byte	0
 2400 017b 00       		.byte	0
 2401 017c 1F       		.uleb128 0x1f
 2402 017d 34       		.uleb128 0x34
 2403 017e 00       		.byte	0
 2404 017f 03       		.uleb128 0x3
 2405 0180 0E       		.uleb128 0xe
 2406 0181 3A       		.uleb128 0x3a
 2407 0182 0B       		.uleb128 0xb
 2408 0183 3B       		.uleb128 0x3b
 2409 0184 05       		.uleb128 0x5
 2410 0185 49       		.uleb128 0x49
 2411 0186 13       		.uleb128 0x13
 2412 0187 00       		.byte	0
 2413 0188 00       		.byte	0
 2414 0189 20       		.uleb128 0x20
 2415 018a 2E       		.uleb128 0x2e
 2416 018b 01       		.byte	0x1
 2417 018c 03       		.uleb128 0x3
 2418 018d 0E       		.uleb128 0xe
 2419 018e 3A       		.uleb128 0x3a
 2420 018f 0B       		.uleb128 0xb
 2421 0190 3B       		.uleb128 0x3b
 2422 0191 05       		.uleb128 0x5
 2423 0192 27       		.uleb128 0x27
 2424 0193 19       		.uleb128 0x19
 2425 0194 11       		.uleb128 0x11
 2426 0195 01       		.uleb128 0x1
 2427 0196 12       		.uleb128 0x12
 2428 0197 06       		.uleb128 0x6
 2429 0198 40       		.uleb128 0x40
 2430 0199 18       		.uleb128 0x18
 2431 019a 9742     		.uleb128 0x2117
 2432 019c 19       		.uleb128 0x19
 2433 019d 01       		.uleb128 0x1
 2434 019e 13       		.uleb128 0x13
 2435 019f 00       		.byte	0
 2436 01a0 00       		.byte	0
 2437 01a1 21       		.uleb128 0x21
 2438 01a2 1D       		.uleb128 0x1d
 2439 01a3 01       		.byte	0x1
 2440 01a4 31       		.uleb128 0x31
 2441 01a5 13       		.uleb128 0x13
 2442 01a6 11       		.uleb128 0x11
 2443 01a7 01       		.uleb128 0x1
 2444 01a8 12       		.uleb128 0x12
 2445 01a9 06       		.uleb128 0x6
 2446 01aa 58       		.uleb128 0x58
 2447 01ab 0B       		.uleb128 0xb
 2448 01ac 59       		.uleb128 0x59
 2449 01ad 05       		.uleb128 0x5
 2450 01ae 00       		.byte	0
ARM GAS  /tmp/ccyCEcZE.s 			page 63


 2451 01af 00       		.byte	0
 2452 01b0 22       		.uleb128 0x22
 2453 01b1 05       		.uleb128 0x5
 2454 01b2 00       		.byte	0
 2455 01b3 31       		.uleb128 0x31
 2456 01b4 13       		.uleb128 0x13
 2457 01b5 02       		.uleb128 0x2
 2458 01b6 18       		.uleb128 0x18
 2459 01b7 00       		.byte	0
 2460 01b8 00       		.byte	0
 2461 01b9 23       		.uleb128 0x23
 2462 01ba 2E       		.uleb128 0x2e
 2463 01bb 00       		.byte	0
 2464 01bc 03       		.uleb128 0x3
 2465 01bd 0E       		.uleb128 0xe
 2466 01be 3A       		.uleb128 0x3a
 2467 01bf 0B       		.uleb128 0xb
 2468 01c0 3B       		.uleb128 0x3b
 2469 01c1 05       		.uleb128 0x5
 2470 01c2 27       		.uleb128 0x27
 2471 01c3 19       		.uleb128 0x19
 2472 01c4 11       		.uleb128 0x11
 2473 01c5 01       		.uleb128 0x1
 2474 01c6 12       		.uleb128 0x12
 2475 01c7 06       		.uleb128 0x6
 2476 01c8 40       		.uleb128 0x40
 2477 01c9 18       		.uleb128 0x18
 2478 01ca 9642     		.uleb128 0x2116
 2479 01cc 19       		.uleb128 0x19
 2480 01cd 00       		.byte	0
 2481 01ce 00       		.byte	0
 2482 01cf 24       		.uleb128 0x24
 2483 01d0 2E       		.uleb128 0x2e
 2484 01d1 01       		.byte	0x1
 2485 01d2 3F       		.uleb128 0x3f
 2486 01d3 19       		.uleb128 0x19
 2487 01d4 03       		.uleb128 0x3
 2488 01d5 0E       		.uleb128 0xe
 2489 01d6 3A       		.uleb128 0x3a
 2490 01d7 0B       		.uleb128 0xb
 2491 01d8 3B       		.uleb128 0x3b
 2492 01d9 0B       		.uleb128 0xb
 2493 01da 27       		.uleb128 0x27
 2494 01db 19       		.uleb128 0x19
 2495 01dc 11       		.uleb128 0x11
 2496 01dd 01       		.uleb128 0x1
 2497 01de 12       		.uleb128 0x12
 2498 01df 06       		.uleb128 0x6
 2499 01e0 40       		.uleb128 0x40
 2500 01e1 18       		.uleb128 0x18
 2501 01e2 9642     		.uleb128 0x2116
 2502 01e4 19       		.uleb128 0x19
 2503 01e5 01       		.uleb128 0x1
 2504 01e6 13       		.uleb128 0x13
 2505 01e7 00       		.byte	0
 2506 01e8 00       		.byte	0
 2507 01e9 25       		.uleb128 0x25
ARM GAS  /tmp/ccyCEcZE.s 			page 64


 2508 01ea 34       		.uleb128 0x34
 2509 01eb 00       		.byte	0
 2510 01ec 03       		.uleb128 0x3
 2511 01ed 0E       		.uleb128 0xe
 2512 01ee 3A       		.uleb128 0x3a
 2513 01ef 0B       		.uleb128 0xb
 2514 01f0 3B       		.uleb128 0x3b
 2515 01f1 0B       		.uleb128 0xb
 2516 01f2 49       		.uleb128 0x49
 2517 01f3 13       		.uleb128 0x13
 2518 01f4 02       		.uleb128 0x2
 2519 01f5 18       		.uleb128 0x18
 2520 01f6 00       		.byte	0
 2521 01f7 00       		.byte	0
 2522 01f8 26       		.uleb128 0x26
 2523 01f9 1D       		.uleb128 0x1d
 2524 01fa 01       		.byte	0x1
 2525 01fb 31       		.uleb128 0x31
 2526 01fc 13       		.uleb128 0x13
 2527 01fd 11       		.uleb128 0x11
 2528 01fe 01       		.uleb128 0x1
 2529 01ff 12       		.uleb128 0x12
 2530 0200 06       		.uleb128 0x6
 2531 0201 58       		.uleb128 0x58
 2532 0202 0B       		.uleb128 0xb
 2533 0203 59       		.uleb128 0x59
 2534 0204 0B       		.uleb128 0xb
 2535 0205 01       		.uleb128 0x1
 2536 0206 13       		.uleb128 0x13
 2537 0207 00       		.byte	0
 2538 0208 00       		.byte	0
 2539 0209 27       		.uleb128 0x27
 2540 020a 0B       		.uleb128 0xb
 2541 020b 01       		.byte	0x1
 2542 020c 11       		.uleb128 0x11
 2543 020d 01       		.uleb128 0x1
 2544 020e 12       		.uleb128 0x12
 2545 020f 06       		.uleb128 0x6
 2546 0210 00       		.byte	0
 2547 0211 00       		.byte	0
 2548 0212 28       		.uleb128 0x28
 2549 0213 34       		.uleb128 0x34
 2550 0214 00       		.byte	0
 2551 0215 31       		.uleb128 0x31
 2552 0216 13       		.uleb128 0x13
 2553 0217 02       		.uleb128 0x2
 2554 0218 18       		.uleb128 0x18
 2555 0219 00       		.byte	0
 2556 021a 00       		.byte	0
 2557 021b 29       		.uleb128 0x29
 2558 021c 1D       		.uleb128 0x1d
 2559 021d 01       		.byte	0x1
 2560 021e 31       		.uleb128 0x31
 2561 021f 13       		.uleb128 0x13
 2562 0220 11       		.uleb128 0x11
 2563 0221 01       		.uleb128 0x1
 2564 0222 12       		.uleb128 0x12
ARM GAS  /tmp/ccyCEcZE.s 			page 65


 2565 0223 06       		.uleb128 0x6
 2566 0224 58       		.uleb128 0x58
 2567 0225 0B       		.uleb128 0xb
 2568 0226 59       		.uleb128 0x59
 2569 0227 0B       		.uleb128 0xb
 2570 0228 00       		.byte	0
 2571 0229 00       		.byte	0
 2572 022a 2A       		.uleb128 0x2a
 2573 022b 34       		.uleb128 0x34
 2574 022c 00       		.byte	0
 2575 022d 03       		.uleb128 0x3
 2576 022e 0E       		.uleb128 0xe
 2577 022f 3A       		.uleb128 0x3a
 2578 0230 0B       		.uleb128 0xb
 2579 0231 3B       		.uleb128 0x3b
 2580 0232 05       		.uleb128 0x5
 2581 0233 49       		.uleb128 0x49
 2582 0234 13       		.uleb128 0x13
 2583 0235 3F       		.uleb128 0x3f
 2584 0236 19       		.uleb128 0x19
 2585 0237 3C       		.uleb128 0x3c
 2586 0238 19       		.uleb128 0x19
 2587 0239 00       		.byte	0
 2588 023a 00       		.byte	0
 2589 023b 2B       		.uleb128 0x2b
 2590 023c 34       		.uleb128 0x34
 2591 023d 00       		.byte	0
 2592 023e 03       		.uleb128 0x3
 2593 023f 08       		.uleb128 0x8
 2594 0240 3A       		.uleb128 0x3a
 2595 0241 0B       		.uleb128 0xb
 2596 0242 3B       		.uleb128 0x3b
 2597 0243 05       		.uleb128 0x5
 2598 0244 49       		.uleb128 0x49
 2599 0245 13       		.uleb128 0x13
 2600 0246 3F       		.uleb128 0x3f
 2601 0247 19       		.uleb128 0x19
 2602 0248 3C       		.uleb128 0x3c
 2603 0249 19       		.uleb128 0x19
 2604 024a 00       		.byte	0
 2605 024b 00       		.byte	0
 2606 024c 00       		.byte	0
 2607              		.section	.debug_aranges,"",%progbits
 2608 0000 44000000 		.4byte	0x44
 2609 0004 0200     		.2byte	0x2
 2610 0006 00000000 		.4byte	.Ldebug_info0
 2611 000a 04       		.byte	0x4
 2612 000b 00       		.byte	0
 2613 000c 0000     		.2byte	0
 2614 000e 0000     		.2byte	0
 2615 0010 00000000 		.4byte	.LFB127
 2616 0014 10000000 		.4byte	.LFE127-.LFB127
 2617 0018 00000000 		.4byte	.LFB128
 2618 001c 10000000 		.4byte	.LFE128-.LFB128
 2619 0020 00000000 		.4byte	.LFB129
 2620 0024 08000000 		.4byte	.LFE129-.LFB129
 2621 0028 00000000 		.4byte	.LFB130
ARM GAS  /tmp/ccyCEcZE.s 			page 66


 2622 002c 08000000 		.4byte	.LFE130-.LFB130
 2623 0030 00000000 		.4byte	.LFB241
 2624 0034 26000000 		.4byte	.LFE241-.LFB241
 2625 0038 00000000 		.4byte	.LFB242
 2626 003c 6A000000 		.4byte	.LFE242-.LFB242
 2627 0040 00000000 		.4byte	0
 2628 0044 00000000 		.4byte	0
 2629              		.section	.debug_ranges,"",%progbits
 2630              	.Ldebug_ranges0:
 2631 0000 00000000 		.4byte	.LFB127
 2632 0004 10000000 		.4byte	.LFE127
 2633 0008 00000000 		.4byte	.LFB128
 2634 000c 10000000 		.4byte	.LFE128
 2635 0010 00000000 		.4byte	.LFB129
 2636 0014 08000000 		.4byte	.LFE129
 2637 0018 00000000 		.4byte	.LFB130
 2638 001c 08000000 		.4byte	.LFE130
 2639 0020 00000000 		.4byte	.LFB241
 2640 0024 26000000 		.4byte	.LFE241
 2641 0028 00000000 		.4byte	.LFB242
 2642 002c 6A000000 		.4byte	.LFE242
 2643 0030 00000000 		.4byte	0
 2644 0034 00000000 		.4byte	0
 2645              		.section	.debug_line,"",%progbits
 2646              	.Ldebug_line0:
 2647 0000 5E020000 		.section	.debug_str,"MS",%progbits,1
 2647      02009801 
 2647      00000201 
 2647      FB0E0D00 
 2647      01010101 
 2648              	.LASF54:
 2649 0000 72656164 		.ascii	"ready_list_t\000"
 2649      795F6C69 
 2649      73745F74 
 2649      00
 2650              	.LASF110:
 2651 000d 73655F74 		.ascii	"se_time\000"
 2651      696D6500 
 2652              	.LASF134:
 2653 0015 77747472 		.ascii	"wttrp\000"
 2653      7000
 2654              	.LASF131:
 2655 001b 7264796D 		.ascii	"rdymsg\000"
 2655      736700
 2656              	.LASF16:
 2657 0022 75696E74 		.ascii	"uint64_t\000"
 2657      36345F74 
 2657      00
 2658              	.LASF84:
 2659 002b 6B65726E 		.ascii	"kernel_stats\000"
 2659      656C5F73 
 2659      74617473 
 2659      00
 2660              	.LASF5:
 2661 0038 5F5F7569 		.ascii	"__uint8_t\000"
 2661      6E74385F 
 2661      7400
ARM GAS  /tmp/ccyCEcZE.s 			page 67


 2662              	.LASF106:
 2663 0042 706F7274 		.ascii	"port_intctx\000"
 2663      5F696E74 
 2663      63747800 
 2664              	.LASF53:
 2665 004e 63685F74 		.ascii	"ch_threads_queue\000"
 2665      68726561 
 2665      64735F71 
 2665      75657565 
 2665      00
 2666              	.LASF73:
 2667 005f 73797374 		.ascii	"system_debug_t\000"
 2667      656D5F64 
 2667      65627567 
 2667      5F7400
 2668              	.LASF151:
 2669 006e 706F7274 		.ascii	"port_lock\000"
 2669      5F6C6F63 
 2669      6B00
 2670              	.LASF122:
 2671 0078 776F7273 		.ascii	"worst\000"
 2671      7400
 2672              	.LASF125:
 2673 007e 74696D65 		.ascii	"time_measurement_t\000"
 2673      5F6D6561 
 2673      73757265 
 2673      6D656E74 
 2673      5F7400
 2674              	.LASF12:
 2675 0091 6C6F6E67 		.ascii	"long long unsigned int\000"
 2675      206C6F6E 
 2675      6720756E 
 2675      7369676E 
 2675      65642069 
 2676              	.LASF118:
 2677 00a8 63685F74 		.ascii	"ch_trace_buffer_t\000"
 2677      72616365 
 2677      5F627566 
 2677      6665725F 
 2677      7400
 2678              	.LASF113:
 2679 00ba 73655F73 		.ascii	"se_state\000"
 2679      74617465 
 2679      00
 2680              	.LASF132:
 2681 00c3 65786974 		.ascii	"exitcode\000"
 2681      636F6465 
 2681      00
 2682              	.LASF83:
 2683 00cc 6D61696E 		.ascii	"mainthread\000"
 2683      74687265 
 2683      616400
 2684              	.LASF70:
 2685 00d7 76697274 		.ascii	"virtual_timers_list_t\000"
 2685      75616C5F 
 2685      74696D65 
 2685      72735F6C 
ARM GAS  /tmp/ccyCEcZE.s 			page 68


 2685      6973745F 
 2686              	.LASF87:
 2687 00ed 43505549 		.ascii	"CPUID\000"
 2687      4400
 2688              	.LASF18:
 2689 00f3 72747469 		.ascii	"rttime_t\000"
 2689      6D655F74 
 2689      00
 2690              	.LASF31:
 2691 00fc 705F7072 		.ascii	"p_prio\000"
 2691      696F00
 2692              	.LASF99:
 2693 0103 49534152 		.ascii	"ISAR\000"
 2693      00
 2694              	.LASF10:
 2695 0108 6C6F6E67 		.ascii	"long long int\000"
 2695      206C6F6E 
 2695      6720696E 
 2695      7400
 2696              	.LASF1:
 2697 0116 7369676E 		.ascii	"signed char\000"
 2697      65642063 
 2697      68617200 
 2698              	.LASF46:
 2699 0122 705F6D70 		.ascii	"p_mpool\000"
 2699      6F6F6C00 
 2700              	.LASF142:
 2701 012a 6D5F7175 		.ascii	"m_queue\000"
 2701      65756500 
 2702              	.LASF82:
 2703 0132 76746C69 		.ascii	"vtlist\000"
 2703      737400
 2704              	.LASF152:
 2705 0139 706F7274 		.ascii	"port_unlock\000"
 2705      5F756E6C 
 2705      6F636B00 
 2706              	.LASF123:
 2707 0145 6C617374 		.ascii	"last\000"
 2707      00
 2708              	.LASF80:
 2709 014a 63685F73 		.ascii	"ch_system\000"
 2709      79737465 
 2709      6D00
 2710              	.LASF7:
 2711 0154 6C6F6E67 		.ascii	"long int\000"
 2711      20696E74 
 2711      00
 2712              	.LASF20:
 2713 015d 74737461 		.ascii	"tstate_t\000"
 2713      74655F74 
 2713      00
 2714              	.LASF160:
 2715 0166 2E2E2F2E 		.ascii	"../../../../os/rt/ports/ARMCMx/chcore_v7m.c\000"
 2715      2E2F2E2E 
 2715      2F2E2E2F 
 2715      6F732F72 
 2715      742F706F 
ARM GAS  /tmp/ccyCEcZE.s 			page 69


 2716              	.LASF111:
 2717 0192 73655F74 		.ascii	"se_tp\000"
 2717      7000
 2718              	.LASF33:
 2719 0198 705F6E65 		.ascii	"p_newer\000"
 2719      77657200 
 2720              	.LASF139:
 2721 01a0 735F7175 		.ascii	"s_queue\000"
 2721      65756500 
 2722              	.LASF96:
 2723 01a8 42464152 		.ascii	"BFAR\000"
 2723      00
 2724              	.LASF115:
 2725 01ad 74625F73 		.ascii	"tb_size\000"
 2725      697A6500 
 2726              	.LASF97:
 2727 01b5 41465352 		.ascii	"AFSR\000"
 2727      00
 2728              	.LASF59:
 2729 01ba 725F6E65 		.ascii	"r_newer\000"
 2729      77657200 
 2730              	.LASF103:
 2731 01c2 72656761 		.ascii	"regarm_t\000"
 2731      726D5F74 
 2731      00
 2732              	.LASF66:
 2733 01cb 76745F70 		.ascii	"vt_prev\000"
 2733      72657600 
 2734              	.LASF102:
 2735 01d3 5343425F 		.ascii	"SCB_Type\000"
 2735      54797065 
 2735      00
 2736              	.LASF74:
 2737 01dc 63685F73 		.ascii	"ch_system_debug\000"
 2737      79737465 
 2737      6D5F6465 
 2737      62756700 
 2738              	.LASF146:
 2739 01ec 6D757465 		.ascii	"mutex_t\000"
 2739      785F7400 
 2740              	.LASF149:
 2741 01f4 76616C75 		.ascii	"value\000"
 2741      6500
 2742              	.LASF77:
 2743 01fa 6C6F636B 		.ascii	"lock_cnt\000"
 2743      5F636E74 
 2743      00
 2744              	.LASF85:
 2745 0203 69646C65 		.ascii	"idle_thread_wa\000"
 2745      5F746872 
 2745      6561645F 
 2745      776100
 2746              	.LASF25:
 2747 0212 636E745F 		.ascii	"cnt_t\000"
 2747      7400
 2748              	.LASF36:
 2749 0218 705F7374 		.ascii	"p_stklimit\000"
ARM GAS  /tmp/ccyCEcZE.s 			page 70


 2749      6B6C696D 
 2749      697400
 2750              	.LASF0:
 2751 0223 756E7369 		.ascii	"unsigned int\000"
 2751      676E6564 
 2751      20696E74 
 2751      00
 2752              	.LASF148:
 2753 0230 5F5F7365 		.ascii	"__set_PSP\000"
 2753      745F5053 
 2753      5000
 2754              	.LASF65:
 2755 023a 76745F6E 		.ascii	"vt_next\000"
 2755      65787400 
 2756              	.LASF135:
 2757 0242 77747365 		.ascii	"wtsemp\000"
 2757      6D7000
 2758              	.LASF41:
 2759 0249 705F6D73 		.ascii	"p_msgqueue\000"
 2759      67717565 
 2759      756500
 2760              	.LASF126:
 2761 0254 6E5F6972 		.ascii	"n_irq\000"
 2761      7100
 2762              	.LASF89:
 2763 025a 56544F52 		.ascii	"VTOR\000"
 2763      00
 2764              	.LASF140:
 2765 025f 735F636E 		.ascii	"s_cnt\000"
 2765      7400
 2766              	.LASF161:
 2767 0265 2F686F6D 		.ascii	"/home/jerker/chibios/ChibiOS_16.1.4/testhal/STM32/S"
 2767      652F6A65 
 2767      726B6572 
 2767      2F636869 
 2767      62696F73 
 2768 0298 544D3332 		.ascii	"TM32F4xx/USB_CDC\000"
 2768      46347878 
 2768      2F555342 
 2768      5F434443 
 2768      00
 2769              	.LASF130:
 2770 02a9 6B65726E 		.ascii	"kernel_stats_t\000"
 2770      656C5F73 
 2770      74617473 
 2770      5F7400
 2771              	.LASF50:
 2772 02b8 63685F74 		.ascii	"ch_thread\000"
 2772      68726561 
 2772      6400
 2773              	.LASF88:
 2774 02c2 49435352 		.ascii	"ICSR\000"
 2774      00
 2775              	.LASF23:
 2776 02c7 6D73675F 		.ascii	"msg_t\000"
 2776      7400
 2777              	.LASF90:
ARM GAS  /tmp/ccyCEcZE.s 			page 71


 2778 02cd 41495243 		.ascii	"AIRCR\000"
 2778      5200
 2779              	.LASF94:
 2780 02d3 44465352 		.ascii	"DFSR\000"
 2780      00
 2781              	.LASF26:
 2782 02d8 75636E74 		.ascii	"ucnt_t\000"
 2782      5F7400
 2783              	.LASF95:
 2784 02df 4D4D4641 		.ascii	"MMFAR\000"
 2784      5200
 2785              	.LASF156:
 2786 02e5 5F706F72 		.ascii	"_port_irq_epilogue\000"
 2786      745F6972 
 2786      715F6570 
 2786      696C6F67 
 2786      756500
 2787              	.LASF159:
 2788 02f8 474E5520 		.ascii	"GNU C 4.8.2 -mcpu=cortex-m4 -mno-thumb-interwork -m"
 2788      4320342E 
 2788      382E3220 
 2788      2D6D6370 
 2788      753D636F 
 2789 032b 7468756D 		.ascii	"thumb -ggdb -O0 -fomit-frame-pointer -falign-functi"
 2789      62202D67 
 2789      67646220 
 2789      2D4F3020 
 2789      2D666F6D 
 2790 035e 6F6E733D 		.ascii	"ons=16 -ffunction-sections -fdata-sections -fno-com"
 2790      3136202D 
 2790      6666756E 
 2790      6374696F 
 2790      6E2D7365 
 2791 0391 6D6F6E20 		.ascii	"mon -flto\000"
 2791      2D666C74 
 2791      6F00
 2792              	.LASF117:
 2793 039b 74625F62 		.ascii	"tb_buffer\000"
 2793      75666665 
 2793      7200
 2794              	.LASF129:
 2795 03a5 6D5F6372 		.ascii	"m_crit_isr\000"
 2795      69745F69 
 2795      737200
 2796              	.LASF55:
 2797 03b0 63685F72 		.ascii	"ch_ready_list\000"
 2797      65616479 
 2797      5F6C6973 
 2797      7400
 2798              	.LASF24:
 2799 03be 6576656E 		.ascii	"eventmask_t\000"
 2799      746D6173 
 2799      6B5F7400 
 2800              	.LASF150:
 2801 03ca 746F704F 		.ascii	"topOfProcStack\000"
 2801      6650726F 
 2801      63537461 
ARM GAS  /tmp/ccyCEcZE.s 			page 72


 2801      636B00
 2802              	.LASF6:
 2803 03d9 5F5F696E 		.ascii	"__int32_t\000"
 2803      7433325F 
 2803      7400
 2804              	.LASF104:
 2805 03e3 73746B61 		.ascii	"stkalign_t\000"
 2805      6C69676E 
 2805      5F7400
 2806              	.LASF49:
 2807 03ee 74687265 		.ascii	"threads_list_t\000"
 2807      6164735F 
 2807      6C697374 
 2807      5F7400
 2808              	.LASF40:
 2809 03fd 705F7761 		.ascii	"p_waiting\000"
 2809      6974696E 
 2809      6700
 2810              	.LASF86:
 2811 0407 73697A65 		.ascii	"sizetype\000"
 2811      74797065 
 2811      00
 2812              	.LASF48:
 2813 0410 74687265 		.ascii	"thread_reference_t\000"
 2813      61645F72 
 2813      65666572 
 2813      656E6365 
 2813      5F7400
 2814              	.LASF71:
 2815 0423 63685F76 		.ascii	"ch_virtual_timers_list\000"
 2815      69727475 
 2815      616C5F74 
 2815      696D6572 
 2815      735F6C69 
 2816              	.LASF92:
 2817 043a 43465352 		.ascii	"CFSR\000"
 2817      00
 2818              	.LASF116:
 2819 043f 74625F70 		.ascii	"tb_ptr\000"
 2819      747200
 2820              	.LASF114:
 2821 0446 63685F73 		.ascii	"ch_swc_event_t\000"
 2821      77635F65 
 2821      76656E74 
 2821      5F7400
 2822              	.LASF72:
 2823 0455 76745F6C 		.ascii	"vt_lasttime\000"
 2823      61737474 
 2823      696D6500 
 2824              	.LASF34:
 2825 0461 705F6F6C 		.ascii	"p_older\000"
 2825      64657200 
 2826              	.LASF58:
 2827 0469 725F6374 		.ascii	"r_ctx\000"
 2827      7800
 2828              	.LASF107:
 2829 046f 706F7274 		.ascii	"port_extctx\000"
ARM GAS  /tmp/ccyCEcZE.s 			page 73


 2829      5F657874 
 2829      63747800 
 2830              	.LASF120:
 2831 047b 746D5F63 		.ascii	"tm_calibration_t\000"
 2831      616C6962 
 2831      72617469 
 2831      6F6E5F74 
 2831      00
 2832              	.LASF61:
 2833 048c 725F6375 		.ascii	"r_current\000"
 2833      7272656E 
 2833      7400
 2834              	.LASF60:
 2835 0496 725F6F6C 		.ascii	"r_older\000"
 2835      64657200 
 2836              	.LASF11:
 2837 049e 5F5F7569 		.ascii	"__uint64_t\000"
 2837      6E743634 
 2837      5F7400
 2838              	.LASF124:
 2839 04a9 63756D75 		.ascii	"cumulative\000"
 2839      6C617469 
 2839      766500
 2840              	.LASF21:
 2841 04b4 74726566 		.ascii	"trefs_t\000"
 2841      735F7400 
 2842              	.LASF100:
 2843 04bc 52455345 		.ascii	"RESERVED0\000"
 2843      52564544 
 2843      3000
 2844              	.LASF157:
 2845 04c6 63747870 		.ascii	"ctxp\000"
 2845      00
 2846              	.LASF63:
 2847 04cb 76697274 		.ascii	"virtual_timer_t\000"
 2847      75616C5F 
 2847      74696D65 
 2847      725F7400 
 2848              	.LASF30:
 2849 04db 705F7072 		.ascii	"p_prev\000"
 2849      657600
 2850              	.LASF22:
 2851 04e2 74707269 		.ascii	"tprio_t\000"
 2851      6F5F7400 
 2852              	.LASF127:
 2853 04ea 6E5F6374 		.ascii	"n_ctxswc\000"
 2853      78737763 
 2853      00
 2854              	.LASF14:
 2855 04f3 696E7433 		.ascii	"int32_t\000"
 2855      325F7400 
 2856              	.LASF2:
 2857 04fb 756E7369 		.ascii	"unsigned char\000"
 2857      676E6564 
 2857      20636861 
 2857      7200
 2858              	.LASF91:
ARM GAS  /tmp/ccyCEcZE.s 			page 74


 2859 0509 53484353 		.ascii	"SHCSR\000"
 2859      5200
 2860              	.LASF158:
 2861 050f 49544D5F 		.ascii	"ITM_RxBuffer\000"
 2861      52784275 
 2861      66666572 
 2861      00
 2862              	.LASF44:
 2863 051c 705F6D74 		.ascii	"p_mtxlist\000"
 2863      786C6973 
 2863      7400
 2864              	.LASF3:
 2865 0526 73686F72 		.ascii	"short int\000"
 2865      7420696E 
 2865      7400
 2866              	.LASF37:
 2867 0530 705F7374 		.ascii	"p_state\000"
 2867      61746500 
 2868              	.LASF109:
 2869 0538 78707372 		.ascii	"xpsr\000"
 2869      00
 2870              	.LASF57:
 2871 053d 725F7072 		.ascii	"r_prio\000"
 2871      696F00
 2872              	.LASF137:
 2873 0544 65776D61 		.ascii	"ewmask\000"
 2873      736B00
 2874              	.LASF29:
 2875 054b 705F6E65 		.ascii	"p_next\000"
 2875      787400
 2876              	.LASF19:
 2877 0552 746D6F64 		.ascii	"tmode_t\000"
 2877      655F7400 
 2878              	.LASF38:
 2879 055a 705F666C 		.ascii	"p_flags\000"
 2879      61677300 
 2880              	.LASF47:
 2881 0562 705F7374 		.ascii	"p_stats\000"
 2881      61747300 
 2882              	.LASF4:
 2883 056a 73686F72 		.ascii	"short unsigned int\000"
 2883      7420756E 
 2883      7369676E 
 2883      65642069 
 2883      6E7400
 2884              	.LASF108:
 2885 057d 6C725F74 		.ascii	"lr_thd\000"
 2885      686400
 2886              	.LASF155:
 2887 0584 5356435F 		.ascii	"SVC_Handler\000"
 2887      48616E64 
 2887      6C657200 
 2888              	.LASF64:
 2889 0590 63685F76 		.ascii	"ch_virtual_timer\000"
 2889      69727475 
 2889      616C5F74 
 2889      696D6572 
ARM GAS  /tmp/ccyCEcZE.s 			page 75


 2889      00
 2890              	.LASF138:
 2891 05a1 63685F73 		.ascii	"ch_semaphore\000"
 2891      656D6170 
 2891      686F7265 
 2891      00
 2892              	.LASF43:
 2893 05ae 705F6570 		.ascii	"p_epending\000"
 2893      656E6469 
 2893      6E6700
 2894              	.LASF15:
 2895 05b9 75696E74 		.ascii	"uint32_t\000"
 2895      33325F74 
 2895      00
 2896              	.LASF136:
 2897 05c2 77746D74 		.ascii	"wtmtxp\000"
 2897      787000
 2898              	.LASF56:
 2899 05c9 725F7175 		.ascii	"r_queue\000"
 2899      65756500 
 2900              	.LASF67:
 2901 05d1 76745F64 		.ascii	"vt_delta\000"
 2901      656C7461 
 2901      00
 2902              	.LASF51:
 2903 05da 63685F74 		.ascii	"ch_threads_list\000"
 2903      68726561 
 2903      64735F6C 
 2903      69737400 
 2904              	.LASF9:
 2905 05ea 6C6F6E67 		.ascii	"long unsigned int\000"
 2905      20756E73 
 2905      69676E65 
 2905      6420696E 
 2905      7400
 2906              	.LASF145:
 2907 05fc 63686172 		.ascii	"char\000"
 2907      00
 2908              	.LASF154:
 2909 0601 706F7274 		.ascii	"port_unlock_from_isr\000"
 2909      5F756E6C 
 2909      6F636B5F 
 2909      66726F6D 
 2909      5F697372 
 2910              	.LASF28:
 2911 0616 74687265 		.ascii	"thread_t\000"
 2911      61645F74 
 2911      00
 2912              	.LASF121:
 2913 061f 62657374 		.ascii	"best\000"
 2913      00
 2914              	.LASF144:
 2915 0624 6D5F6E65 		.ascii	"m_next\000"
 2915      787400
 2916              	.LASF27:
 2917 062b 73797374 		.ascii	"systime_t\000"
 2917      696D655F 
ARM GAS  /tmp/ccyCEcZE.s 			page 76


 2917      7400
 2918              	.LASF45:
 2919 0635 705F7265 		.ascii	"p_realprio\000"
 2919      616C7072 
 2919      696F00
 2920              	.LASF62:
 2921 0640 76746675 		.ascii	"vtfunc_t\000"
 2921      6E635F74 
 2921      00
 2922              	.LASF8:
 2923 0649 5F5F7569 		.ascii	"__uint32_t\000"
 2923      6E743332 
 2923      5F7400
 2924              	.LASF147:
 2925 0654 5F5F7365 		.ascii	"__set_BASEPRI\000"
 2925      745F4241 
 2925      53455052 
 2925      4900
 2926              	.LASF75:
 2927 0662 70616E69 		.ascii	"panic_msg\000"
 2927      635F6D73 
 2927      6700
 2928              	.LASF119:
 2929 066c 6F666673 		.ascii	"offset\000"
 2929      657400
 2930              	.LASF105:
 2931 0673 636F6E74 		.ascii	"context\000"
 2931      65787400 
 2932              	.LASF79:
 2933 067b 63685F73 		.ascii	"ch_system_t\000"
 2933      79737465 
 2933      6D5F7400 
 2934              	.LASF17:
 2935 0687 7274636E 		.ascii	"rtcnt_t\000"
 2935      745F7400 
 2936              	.LASF153:
 2937 068f 706F7274 		.ascii	"port_lock_from_isr\000"
 2937      5F6C6F63 
 2937      6B5F6672 
 2937      6F6D5F69 
 2937      737200
 2938              	.LASF162:
 2939 06a2 5F5F6765 		.ascii	"__get_PSP\000"
 2939      745F5053 
 2939      5000
 2940              	.LASF69:
 2941 06ac 76745F70 		.ascii	"vt_par\000"
 2941      617200
 2942              	.LASF52:
 2943 06b3 74687265 		.ascii	"threads_queue_t\000"
 2943      6164735F 
 2943      71756575 
 2943      655F7400 
 2944              	.LASF141:
 2945 06c3 63685F6D 		.ascii	"ch_mutex\000"
 2945      75746578 
 2945      00
ARM GAS  /tmp/ccyCEcZE.s 			page 77


 2946              	.LASF39:
 2947 06cc 705F7265 		.ascii	"p_refs\000"
 2947      667300
 2948              	.LASF76:
 2949 06d3 6973725F 		.ascii	"isr_cnt\000"
 2949      636E7400 
 2950              	.LASF98:
 2951 06db 4D4D4652 		.ascii	"MMFR\000"
 2951      00
 2952              	.LASF81:
 2953 06e0 726C6973 		.ascii	"rlist\000"
 2953      7400
 2954              	.LASF13:
 2955 06e6 75696E74 		.ascii	"uint8_t\000"
 2955      385F7400 
 2956              	.LASF133:
 2957 06ee 77746F62 		.ascii	"wtobjp\000"
 2957      6A7000
 2958              	.LASF35:
 2959 06f5 705F6E61 		.ascii	"p_name\000"
 2959      6D6500
 2960              	.LASF78:
 2961 06fc 74726163 		.ascii	"trace_buffer\000"
 2961      655F6275 
 2961      66666572 
 2961      00
 2962              	.LASF42:
 2963 0709 705F6D73 		.ascii	"p_msg\000"
 2963      6700
 2964              	.LASF101:
 2965 070f 43504143 		.ascii	"CPACR\000"
 2965      5200
 2966              	.LASF93:
 2967 0715 48465352 		.ascii	"HFSR\000"
 2967      00
 2968              	.LASF128:
 2969 071a 6D5F6372 		.ascii	"m_crit_thd\000"
 2969      69745F74 
 2969      686400
 2970              	.LASF143:
 2971 0725 6D5F6F77 		.ascii	"m_owner\000"
 2971      6E657200 
 2972              	.LASF163:
 2973 072d 72657375 		.ascii	"result\000"
 2973      6C7400
 2974              	.LASF112:
 2975 0734 73655F77 		.ascii	"se_wtobjp\000"
 2975      746F626A 
 2975      7000
 2976              	.LASF32:
 2977 073e 705F6374 		.ascii	"p_ctx\000"
 2977      7800
 2978              	.LASF68:
 2979 0744 76745F66 		.ascii	"vt_func\000"
 2979      756E6300 
 2980              		.comm	__gnu_lto_v1,1,1
 2981              		.ident	"GCC: (4.8.2-14ubuntu1+6) 4.8.2"
ARM GAS  /tmp/ccyCEcZE.s 			page 78


ARM GAS  /tmp/ccyCEcZE.s 			page 79


DEFINED SYMBOLS
                            *ABS*:0000000000000000 chcore_v7m.c
     /tmp/ccyCEcZE.s:337    .text.port_lock:0000000000000000 $t
     /tmp/ccyCEcZE.s:342    .text.port_lock:0000000000000000 port_lock
     /tmp/ccyCEcZE.s:373    .text.port_unlock:0000000000000000 $t
     /tmp/ccyCEcZE.s:378    .text.port_unlock:0000000000000000 port_unlock
     /tmp/ccyCEcZE.s:407    .text.port_lock_from_isr:0000000000000000 $t
     /tmp/ccyCEcZE.s:412    .text.port_lock_from_isr:0000000000000000 port_lock_from_isr
     /tmp/ccyCEcZE.s:430    .text.port_unlock_from_isr:0000000000000000 $t
     /tmp/ccyCEcZE.s:435    .text.port_unlock_from_isr:0000000000000000 port_unlock_from_isr
     /tmp/ccyCEcZE.s:453    .text.SVC_Handler:0000000000000000 $t
     /tmp/ccyCEcZE.s:459    .text.SVC_Handler:0000000000000000 SVC_Handler
     /tmp/ccyCEcZE.s:515    .text._port_irq_epilogue:0000000000000000 $t
     /tmp/ccyCEcZE.s:521    .text._port_irq_epilogue:0000000000000000 _port_irq_epilogue
                            *COM*:0000000000000001 __gnu_lto_v1
                     .debug_frame:0000000000000010 $d

UNDEFINED SYMBOLS
chSchIsPreemptionRequired
_port_switch_from_isr
_port_exit_from_isr
