ARM GAS  /tmp/ccQzDHmj.s 			page 1


   1              		.syntax unified
   2              		.cpu cortex-m4
   3              		.fpu softvfp
   4              		.eabi_attribute 20, 1
   5              		.eabi_attribute 21, 1
   6              		.eabi_attribute 23, 3
   7              		.eabi_attribute 24, 1
   8              		.eabi_attribute 25, 1
   9              		.eabi_attribute 26, 1
  10              		.eabi_attribute 30, 6
  11              		.eabi_attribute 34, 1
  12              		.eabi_attribute 18, 4
  13              		.thumb
  14              		.file	"chheap.c"
  15              		.text
  16              	.Ltext0:
  17              		.section	.gnu.lto_.inline.15584f10af2552f7,"",%progbits
  18 0000 789C6362 		.ascii	"x\234cb`b\300\006\026CiV\006\006\016\001\006\006&\216"
  18      6062C006 
  18      16436956 
  18      06060E01 
  18      0606268E 
  19 0014 097E0C2C 		.ascii	"\011~\014,\020\265L\334@\202\231AX\005\310\224zp\213"
  19      10B54CDC 
  19      40829941 
  19      5805C894 
  19      7A708B
  20 0027 11451C4C 		.ascii	"\021E\034L\2602\230\336\006\261\003.4\260b\312B\224"
  20      B03298DE 
  20      06B1032E 
  20      34B062CA 
  20      4294
  21 0039 08020936 		.ascii	"\010\002\0116\006\373G \201\254\007\247\331p\250\003"
  21      06FB4720 
  21      81AC07A7 
  21      D970A803 
  22 0049 131C0C22 		.ascii	"\023\034\014\"\252@\246\314\206WX,c\000\000lm\014\210"
  22      AA40A6CC 
  22      8657582C 
  22      6300006C 
  22      6D0C88
  23              		.text
  24              		.section	.gnu.lto__heap_init.15584f10af2552f7,"",%progbits
  25 0000 789C6362 		.ascii	"x\234cb`b@\007\"@\374\236\221\201A\021\304af`\004\252"
  25      60624007 
  25      2240FC9E 
  25      91814111 
  25      C4616660 
  26 0016 60646204 		.ascii	"`db\004\012002\32431\326G2\202\225\255g:\360\340\377"
  26      0A303032 
  26      D43331D6 
  26      47328295 
  26      AD673AF0 
  27 002c FF75DF8E 		.ascii	"\377u\337\216M\277\3038\207\011$\306\312\320\322\320"
  27      4DBFC338 
  27      870924C6 
  27      CAD0D2D0 
ARM GAS  /tmp/ccQzDHmj.s 			page 2


  28 003c 30418181 		.ascii	"0A\201\201!\031\254\"\004L\206\202\3643\237eh\372\325"
  28      2119AC22 
  28      044C8682 
  28      F4339F65 
  28      68FAD5
  29 004f FCBDD73A 		.ascii	"\374\275\327:\221q!#+\2036\303\252\006 \260\317dd\230"
  29      91712123 
  29      2B8336C3 
  29      AA0620B0 
  29      CF646498 
  30 0063 CD30ABB1 		.ascii	"\3150\253\261\241A \223\221\261\232\341WC\007\210\305"
  30      A1412093 
  30      91B19AE1 
  30      57430788 
  30      C5
  31 0074 940BD618 		.ascii	"\224\013\326\030\301\230\311\010q\\\022\304B\006\210"
  31      C198C908 
  31      715C12C4 
  31      420688
  32 0083 8A86EA4C 		.ascii	"\212\206\352LF\346dF\210\030\320\334\0357\336\037`A"
  32      46E66446 
  32      8818D0DC 
  32      1D37DE1F 
  32      6041
  33 0095 31B73493 		.ascii	"1\2674\223\221\005\312,\314dd\2052c3\031\331\020\026"
  33      9105CA2C 
  33      CC646485 
  33      32633319 
  33      D91016
  34 00a8 B3136731 		.ascii	"\263\023g1#\224\206\361\231\2414\013\003L%\013\314\031"
  34      239486F1 
  34      99A1340B 
  34      034C250B 
  34      CC19
  35 00ba 3FDE7F60 		.ascii	"?\336\177`Fq\006\320n\016j\332\315\012\267\223\003\304"
  35      467106D0 
  35      6E0E6ADA 
  35      CD0AB793 
  35      03C4
  36 00cc 38CFD0F2 		.ascii	"8\317\320\362\340\344a.\210\225\260\300\001\232\304"
  36      E0E4612E 
  36      8895B0C0 
  36      019AC4
  37 00db 990CD501 		.ascii	"\231\014\325\001\022\341\310d\344\202Z<\021\250\221"
  37      12E1C864 
  37      E4825A3C 
  37      11A891
  38 00ea 1B684B12 		.ascii	"\033hK\022#\033X\032\2521\223\221\207\201\341\"C\343"
  38      231B581A 
  38      AA319391 
  38      8781E122 
  38      43E3
  39 00fc 83B3CA30 		.ascii	"\203\263\3120\243  \004\344\000\220I\362zz\372p\224"
  39      A3202004 
  39      E4009049 
  39      F27A7AFA 
  39      7094
ARM GAS  /tmp/ccQzDHmj.s 			page 3


  40 010e 5FAC5F54 		.ascii	"_\254_T\242_\\\224\254\237\234\221\221\232X\240\227"
  40      A25F5C94 
  40      AC9F9C91 
  40      919A58A0 
  40      97
  41 011f CC0000D7 		.ascii	"\314\000\000\3272|\221"
  41      327C91
  42              		.text
  43              		.section	.gnu.lto_chHeapObjectInit.15584f10af2552f7,"",%progbits
  44 0000 789CB553 		.ascii	"x\234\265S\315k\023A\024\177ofg\223m\265\2557\353\305"
  44      CD6B1341 
  44      147F6F66 
  44      67936DB5 
  44      AD37EBC5 
  45 0014 12102462 		.ascii	"\022\020$bb\017\336\372O\010\015\264\307t\321d\017\301"
  45      620FDEFA 
  45      4F080DB4 
  45      C774D164 
  45      0FC1
  46 0026 D2E8C51E 		.ascii	"\322\350\305\036:6\201V\021R\012jQ\017\355A\254\"\010"
  46      3A368156 
  46      11520A6A 
  46      510FED41 
  46      AC2208
  47 0039 22181021 		.ascii	"\"\030\020!7\025)\255'=\346\350A\324[C\"Y\337\314\316"
  47      371529AD 
  47      273DE6E8 
  47      41D45B43 
  47      2259DFCC 
  48 004e EE266DD1 		.ascii	"\356&m\321\200\370H\346\275y\357\375\336\347,\003\006"
  48      80F848E6 
  48      BD79EFFD 
  48      DEE72C03 
  48      06
  49 005f 07698AFE 		.ascii	"\007i\212\376\247\004@Z]\022\200\344\201\0149\235\234"
  49      A704405A 
  49      5D1280E4 
  49      810C399D 
  49      9C
  50 0070 915A328B 		.ascii	"\221Z2\213\016\313\012d[\311\002\211\241\215H\000\204"
  50      0ECB0A64 
  50      5BC90289 
  50      A18D4800 
  50      84
  51 0081 25C62D61 		.ascii	"%\306-a\343\322,\352\000)\330\222r\275\371\270\2631"
  51      E3D22CEA 
  51      0029D892 
  51      72BDF9B8 
  51      B331
  52 0093 7E7B7379 		.ascii	"~{syMv}\037=\244\274)\004\027a\206.8\241\231\012\334"
  52      4D767D1F 
  52      3DA4BC29 
  52      04176186 
  52      2E38A199 
  53 00a9 4B0152BE 		.ascii	"K\001R\276\334\226\316\246\374\345\373\334S\021\377"
  53      DC96CEA6 
  53      FCE5FBDC 
ARM GAS  /tmp/ccQzDHmj.s 			page 4


  53      5311FF
  54 00b8 17A6B1FF 		.ascii	"\027\246\261\377\356^_\205\003\302:+w{a|@\330\347\225"
  54      EE5E5F85 
  54      03C23A2B 
  54      777B617C 
  54      40D8E795 
  55 00cc FBE33286 		.ascii	"\373\3432\206Y\014\316\376m\036%\204\027\254\321\364"
  55      590CCEFE 
  55      6D1E2584 
  55      17ACD1F4 
  56 00dc FDE76F5F 		.ascii	"\375\347o_\335y\204\333l\010\261\204\264\237<>\301\024"
  56      DD7984DB 
  56      6C08B184 
  56      B49F3C3E 
  56      C114
  57 00ee 70E25BC4 		.ascii	"p\342[\304-\240\342\005Yh9$%H\342I%9\240\313\003\001"
  57      2DA0E205 
  57      59683924 
  57      2548E249 
  57      2539A0CB 
  58 0104 5529D726 		.ascii	"U)\327&\002T\3114J4\255\317\234Z8\337\201\345\217\255"
  58      0254C934 
  58      4A34ADCF 
  58      9C5A38DF 
  58      81E58FAD 
  59 0118 F64F96C7 		.ascii	"\366O\226\307\247(\240\200\254\240\267\253\355<\260"
  59      A728A080 
  59      ACA0B7AB 
  59      ED3CB0
  60 0127 7FAFBCAE 		.ascii	"\177\257\274\256\361\320\316\265}\007*o\"\225EZ\325"
  60      F1D0CEB5 
  60      7D072A6F 
  60      2295455A 
  60      D5
  61 0138 06BD2180 		.ascii	"\006\275!\200\367P\375\206\221e&\230oL9\264t\320\036"
  61      F750FD86 
  61      91652698 
  61      6F4C39B4 
  61      74D01E
  62 014b B85D40A1 		.ascii	"\270]@\241\374\304!\270\255\325\375p\272\362]\260\002"
  62      FCC421B8 
  62      ADD5FD70 
  62      BAF25DB0 
  62      02
  63 015c 17804568 		.ascii	"\027\200Eh\313U9\346\241\355\232\272\225\346\244\207"
  63      CB5539E6 
  63      A1ED9ABA 
  63      95E6A487 
  64 016c 09EAD738 		.ascii	"\011\352\3278y\230\014\321v\320Q\275\325\371j:>\007"
  64      79980CD1 
  64      76D051BD 
  64      D5F96A3A 
  64      3E07
  65 017e CF24D1A4 		.ascii	"\317$\321\244\207\316Cx@\371\206\012\230Py\2075d\316"
  65      87CE4378 
  65      40F9860A 
  65      98507987 
ARM GAS  /tmp/ccQzDHmj.s 			page 5


  65      3564CE
  66 0191 94AF348E 		.ascii	"\224\2574\216\022\010\375a\243\273\307\373\320\263\264"
  66      1208FD61 
  66      A3BBC7FB 
  66      D0B3B4
  67 01a0 5723E63C 		.ascii	"W#\346<<f\304K\036\036\217\303\217\034\035\036\015g"
  67      3C66C44B 
  67      1E1E8FC3 
  67      8F1C1D1E 
  67      0D67
  68 01b2 8673C383 		.ascii	"\206s\303\203'QPzUp\275\333\350OIy\304\277\344\021Q"
  68      2751507A 
  68      5570BDDB 
  68      E84F4979 
  68      C4BFE411 
  69 01c7 5BC2B455 		.ascii	"[\302\264U\377\322m\364\017\345b\334\326d\334\3260\245"
  69      FFD26DF4 
  69      0FE562DC 
  69      D664DCD6 
  69      30A5
  70 01d9 0B728C50 		.ascii	"\013r\214Py*\202\365\307\036\"\017\332\372j\345G\355"
  70      792A82F5 
  70      C71E220F 
  70      DAFA6AE5 
  70      47ED
  71 01eb 7CB8DE64 		.ascii	"|\270\336d\270\370\226\357\373\243f\266{\211\203{\021"
  71      B8F896EF 
  71      FBA366B6 
  71      7B89837B 
  71      11
  72 01fc 03E71566 		.ascii	"\003\347\025ffI\035\252]\331\257\245\303\\\316\"\334"
  72      66491DAA 
  72      5DD9AFA5 
  72      C35CCE22 
  72      DC
  73 020d A08FC284 		.ascii	"\240\217\302\204*{8z\364\230\354\370\255\355B\265\221"
  73      2A7B387A 
  73      F498ECF8 
  73      ADED42B5 
  73      91
  74 021e 3EF4CEC6 		.ascii	">\364\316\306\\\223\216bzx\002\340\023\334l\336:\023"
  74      5C938E62 
  74      7A7802E0 
  74      13DC6CDE 
  74      3A13
  75 0230 FA0534AD 		.ascii	"\372\0054\255\306\255\334Ng2\331\350w\265\234]\270\226"
  75      C6ADDC4E 
  75      6732D9E8 
  75      77B59C5D 
  75      B896
  76 0242 2D2FB859 		.ascii	"-/\270Y\267X\274\234\237\317\270 \346\256_\311\\`\305"
  76      B758BC9C 
  76      9FCFB820 
  76      E6AE5FC9 
  76      5C60C5
  77 0255 F9DF7C77 		.ascii	"\371\337|w\037\326"
  77      1FD6
ARM GAS  /tmp/ccQzDHmj.s 			page 6


  78              		.text
  79              		.section	.gnu.lto_chHeapAlloc.15584f10af2552f7,"",%progbits
  80 0000 789CC556 		.ascii	"x\234\305V\333O\034U\030?\347\314\314\336o@\271,\367"
  80      DB4F1C55 
  80      183FE7CC 
  80      CCDE6F40 
  80      B92CF7
  81 0013 92989836 		.ascii	"\222\230\2306\2014\2151\244i\374\0274JR\337\244\264"
  81      81348D31 
  81      A469FC17 
  81      344A52DF 
  81      A4B4
  82 0025 2E9BD848 		.ascii	".\233\330HA_\344\201\331.\017\3106\226V\220J\215\266"
  82      415FE481 
  82      D92E0FC8 
  82      36965690 
  82      4A8DB6
  83 0038 6F46A324 		.ascii	"oF\243$4\004j\211,I\233@'\246\362@\004bc\351\305>\324"
  83      34046A89 
  83      2C499B40 
  83      27A6F240 
  83      046263E9 
  84 004f A88D31A5 		.ascii	"\250\2151\245X:~\337\2313ggq\225a\255\361\004\2769\373"
  84      583A7EDF 
  84      99336767 
  84      719561AD 
  84      F104BE39 
  85 0064 5D7EDFE5 		.ascii	"]~\337\345|\347\233a\204\221\255k\014\376\365(!{\360"
  85      7CE79B61 
  85      8491AD6B 
  85      0CFEF528 
  85      217BF0
  86 0077 4709A1A0 		.ascii	"G\011\241\240A\031S\200\311T \252B\341AU\032\004\252"
  86      41195380 
  86      C95420AA 
  86      42E14155 
  86      1A04AA
  87 008a 310FF203 		.ascii	"1\017\362\003\310\3670/\356}\270\367R?H}\234\372i\014"
  87      C8F7302F 
  87      EE7DB8F7 
  87      523F487D 
  87      9CFA690C 
  88 009e 6880EB07 		.ascii	"h\200\353\007\231\206:!\324\011\2610\356\243\270\017"
  88      99863A21 
  88      D409B130 
  88      EEA3B80F 
  89 00ae B388DC47 		.ascii	"\263\210\334G\270~\224\323\030\245\020\004%}LQ5\217"
  89      B87E94D3 
  89      18A51004 
  89      257D4C51 
  89      358F
  90 00c0 D7E70F04 		.ascii	"\327\347\017\004C\341H4F\373^E\001)o\"\027t\375\314"
  90      43E14834 
  90      46FB5E45 
  90      01296F22 
  90      1774FDCC 
  91 00d4 CDAB5F2E 		.ascii	"\315\253_.\322\017\207\263\375\347\365\307\246Ii\022"
ARM GAS  /tmp/ccQzDHmj.s 			page 7


  91      D20F87B3 
  91      FDE7F5C7 
  91      A6496912 
  92 00e4 851D941C 		.ascii	"\205\035\224\034\202\035m\344\017\214\335\271,\303\354"
  92      821D6DE4 
  92      0F8CDDB9 
  92      2CC3EC
  93 00f3 1FD7162E 		.ascii	"\037\327\026.P\375\214\236\372\3254\243I\252\2704;\235"
  93      50FD8C9E 
  93      FAD534A3 
  93      49AAB834 
  93      3B9D
  94 0105 39151F3C 		.ascii	"9\025\037<\177bH\177\002\356\334{{?3\\\204\231\276y"
  94      7F62487F 
  94      02EEDC7B 
  94      7B3F335C 
  94      8499BE79 
  95 0119 E7C579BD 		.ascii	"\347\305y\275?k\232/\270wu\316\370\304\351Jui6i\\\315"
  95      3F6B9A2F 
  95      B87775CE 
  95      F8C4E94A 
  95      75693669 
  96 012f 2F247369 		.ascii	"/$six\2518\177\2273\037\027S\021\363\356\216+\242O|"
  96      78A9387F 
  96      97331F17 
  96      5311F3EE 
  96      8E2BA24F 
  97 0144 AAFB795A 		.ascii	"\252\373yZ\212\373*.\031\306\316\333c,\273j\234\014"
  97      8AFB2A2E 
  97      19C6CEDB 
  97      632CBB6A 
  97      9C0C
  98 0156 0CA50674 		.ascii	"\014\245\006t\323\354KR\315\245\257\315k\303\305T\360"
  98      D3EC4B52 
  98      CDA5AFCD 
  98      6BC3C554 
  98      F0
  99 0167 77A3A80E 		.ascii	"w\243\250\016\336\314\274\347\364\346qif\032\247\212"
  99      DECCBCE7 
  99      F4E67169 
  99      661AA78A 
 100 0177 30D31F16 		.ascii	"0\323\037\026\321\301+\203\243q\335Q\017F\232\250Ko"
 100      D1C12B83 
 100      A371DD51 
 100      0F469AA8 
 100      4B6F
 101 0189 47A433B0 		.ascii	"G\2443\260z\306\245\325\351\243N\253g\267\263\032g\331"
 101      7AC6A5D5 
 101      E9A34EAB 
 101      67B7B31A 
 101      67D9
 102 019b 9BA639B3 		.ascii	"\233\2469\2634}\373#Z\006\221\035\2430K\333\351E\332"
 102      347DFB23 
 102      5A06911D 
 102      A3304BDB 
 102      E945DA
 103 01ae 441402A7 		.ascii	"D\024\002\247\256R\340h\310\366\300\216z\201G|\360\023"
ARM GAS  /tmp/ccQzDHmj.s 			page 8


 103      AE52E068 
 103      C8F6C08E 
 103      7A81477C 
 103      F013
 104 01c0 66A2A515 		.ascii	"f\242\245\025\000\216\022\004\242\206\2003\011\2340"
 104      008E1204 
 104      A2868033 
 104      099C30
 105 01cf EA449044 		.ascii	"\352D\220D\221\304PV\002\204\225\202\302\024(\224!g"
 105      91C45056 
 105      02849582 
 105      C2142894 
 105      2167
 106 01e1 17CACA91 		.ascii	"\027\312\312\221T \251D\230*\364\030\027\300\325\310"
 106      5420A944 
 106      982AF418 
 106      17C0D5C8 
 107 01f1 A901E2A9 		.ascii	"\251\001\342\251ER\207Z\365\302E\203x6\242\301n\302"
 107      4552875A 
 107      F5C24583 
 107      7836A2C1 
 107      6EC2
 108 0203 BB13A2EC 		.ascii	"\273\023\242\354\327\365\241F\313\332\222[\376\370I"
 108      D7F5A146 
 108      CBDA925B 
 108      FEF849
 109 0212 C17A85D3 		.ascii	"\301z\205\3236\034\006\312<\271ro\356\306\240\322N/"
 109      361C06CA 
 109      3CB9726F 
 109      EEC6A0D2 
 109      4E2F
 110 0224 817182AA 		.ascii	"\201q\202\252X\034\257\2632m\330\204\3127\344\304Fz"
 110      581CAFB3 
 110      326DD884 
 110      CA37E4C4 
 110      467A
 111 0236 76A4C6D6 		.ascii	"v\244\306\326\323z\311\206>\240\353\007@\373\030e\016"
 111      D37AC986 
 111      3EA0EB07 
 111      40FB1865 
 111      0E
 112 0247 6D956BA7 		.ascii	"m\225k\247\007\322\367G\252mmo\202z\020\330\207\310"
 112      07D2F747 
 112      AA6D6D6F 
 112      827A10D8 
 112      87C8
 113 0259 20BC9C3E 		.ascii	" \274\234>l\213| \345\242u\023:\236\213\301\323/#\036"
 113      6C8B7C20 
 113      E5A27513 
 113      3A9E8BC1 
 113      D32F231E 
 114 026d 5BC18F9E 		.ascii	"[\301\217\236`\355\203b\355%\237\341\366`\222\372\317"
 114      60ED8362 
 114      ED259FE1 
 114      F66092FA 
 114      CF
 115 027e 9131B00A 		.ascii	"\2211\260\012$(\315E|\230:\342\3468\017Gdf\201^\362"
ARM GAS  /tmp/ccQzDHmj.s 			page 9


 115      2428CD45 
 115      7C983AE2 
 115      E6380F47 
 115      6466815E 
 116 0293 0E54722F 		.ascii	"\016Tr/\331\223\244\301\302\326\016\363\353D\265\014"
 116      D993A4C1 
 116      C2D60EF3 
 116      EB44B50C 
 117 02a3 09B1328D 		.ascii	"\011\2612\215%i\250Ch\000X\222\206q\267B(\324\214\001"
 117      2569A843 
 117      68005892 
 117      8671B742 
 117      28D48C01 
 118 02b7 D194C74B 		.ascii	"\321\224\307Ko`\376\232U\255\325\365\3619j\373\016\211"
 118      6F60FE9A 
 118      55ADD5F5 
 118      F1396AFB 
 118      0E89
 119 02c9 C05FCEE5 		.ascii	"\300_\316\345\000}\031\021\333\326$\215Z\001\371\023"
 119      007D1911 
 119      DBD6248D 
 119      5A01F913 
 120 02d9 941DB2A6 		.ascii	"\224\035\262\246\005\017\210\211\247\"\236j.\267\325"
 120      050F8889 
 120      A7229E6A 
 120      2EB7D5
 121 02e8 B3130F24 		.ascii	"\263\023\017$~\230g\345\023x\317;\361B\205\3604\201"
 121      7E9867E5 
 121      1378CF3B 
 121      F14285F0 
 121      3481
 122 02fa 334FFAEF 		.ascii	"3O\372\357\245\366I\0248\015\347\271{D&\323\023s\314"
 122      A5F64914 
 122      380DE7B9 
 122      7B4426D3 
 122      1373CC
 123 030d D689E479 		.ascii	"\326\211\344y:\340\332\023\357\210\015\031p\024\\\361"
 123      3AE0DA13 
 123      EF880D19 
 123      70145CF1 
 124 031d 53F7F128 		.ascii	"S\367\361(\256\334M='=\200\324\031\205\327\216\342\342"
 124      AEDC4D3D 
 124      273D80D4 
 124      1985D78E 
 124      E2E2
 125 032f 23799631 		.ascii	"#y\2261\036\205]\312\336\\)\337\3366\240\002\245\\\370"
 125      1E855DCA 
 125      DE5C29DF 
 125      DE36A002 
 125      A55CF8
 126 0342 3668010B 		.ascii	"6h\001\013\220\227\362:-R\250\252.N)\201\237<V\012>"
 126      9097F23A 
 126      2D52A8AA 
 126      2E4E2981 
 126      9F3C560A 
 127 0357 79253EC8 		.ascii	"y%>\310\310\034JD\011\360\023\013\313\223Iw\333\242"
 127      C81C4A44 
ARM GAS  /tmp/ccQzDHmj.s 			page 10


 127      09F0130B 
 127      CB934977 
 127      DBA2
 128 0369 52881D14 		.ascii	"R\210\035\024\3049O\345\362.\373\277\363.u\223w\231"
 128      C4394FE5 
 128      F22EFBBF 
 128      F32E7593 
 128      7799
 129 037b 15F8F4D4 		.ascii	"\025\370\364\324\232\014|W^\333\364\354\244m\336M?\221"
 129      9A0C7C57 
 129      5EDBF4EC 
 129      A46DDE4D 
 129      3F91
 130 038d 30E580C4 		.ascii	"0\345\200\304\233\024\253)\271\025 \330:B\026\206\362"
 130      9B14AB29 
 130      B91520D8 
 130      3A421686 
 130      F2
 131 039e 733BF837 		.ascii	"s;\3707\327\243`B\232H\244\302\202Z\236z\300\376\223"
 131      D7A36042 
 131      9A48A4C2 
 131      825A9E7A 
 131      C0FE93
 132 03b1 0629E5F8 		.ascii	"\006)\345\370\306\372\324\032s\025\354?\224J^\3356\374"
 132      C6FAD41A 
 132      7315EC3F 
 132      944A5EDD 
 132      36FC
 133 03c3 4AC70B63 		.ascii	"J\307\013cL\177\365WXon\344\330a\357w\335:\036\341\211"
 133      4C7FF557 
 133      586F6EE4 
 133      D861EF77 
 133      DD3A1EE1 
 134 03d8 8AE1FAF9 		.ascii	"\212\341\372\371\250\327>\202\312\2471\\\231\300\257"
 134      A8D73E82 
 134      CAA7315C 
 134      99C0AF
 135 03e7 E4C3955F 		.ascii	"\344\303\225_\211\311J\333C\225\010\216\331#\252\215"
 135      89C94ADB 
 135      4395088E 
 135      D923AA8D 
 136 03f7 06AC4417 		.ascii	"\006\254D\027\316~\235\233\264qP\263\345A19\226\307"
 136      CE7E9D9B 
 136      B47150B3 
 136      E5413139 
 136      96C7
 137 0409 17E4FC0A 		.ascii	"\027\344\374\012\346\335\240\1775\204ax\376\224\332"
 137      E6DDA07F 
 137      35846178 
 137      FE94DA
 138 0418 2F817326 		.ascii	"/\201s&|\255\020\006\357.u\346;\010<\0368\371\303k\030"
 138      7CAD1006 
 138      EF2E75E6 
 138      3B083C1E 
 138      38F9C36B 
 139 042d 51C87E93 		.ascii	"Q\310~\223\336\037\225\335[\3754KW-J\007I\317\256\311"
 139      DE1F95DD 
ARM GAS  /tmp/ccQzDHmj.s 			page 11


 139      5BFD344B 
 139      572D4A07 
 139      49CFAEC9 
 140 0441 A2D470F0 		.ascii	"\242\324p\360Xap\2573\235\2604A\225\030q\2546D\266\336"
 140      586170AF 
 140      339DB034 
 140      41951871 
 140      AC3644B6 
 141 0456 6CB38F24 		.ascii	"l\263\217$t\255\033h>\373~\2266u\316\341\177\235\364"
 141      74AD1B68 
 141      3EFB7E96 
 141      3675CEE1 
 141      7F9DF4
 142 0469 67AB6C49 		.ascii	"g\253lI=\000b\032uI\234~\030\321\334PD\012\267T\030"
 142      3D00621A 
 142      75499C7E 
 142      18D1DC50 
 142      440AB754 
 143 047e 438AD8BD 		.ascii	"C\212\330\275~k\347\275^\357\276\327\215\345[\213\371"
 143      7E6BE7BD 
 143      5EEFBED7 
 143      8DE55B8B 
 143      F9
 144 048f F8ADB92B 		.ascii	"\370\255\271+\272=\250\343\212\362\256\376\242\326\316"
 144      BA3DA8E3 
 144      8AF2AEFE 
 144      A2D6CE
 145 049e A9415888 		.ascii	"\251AX\210\227\000\314\232\333\255\266\254\021\304v"
 145      9700CC9A 
 145      DBADB6AC 
 145      11C476
 146 04ad 9E512BCF 		.ascii	"\236Q+\317\351\365\037\343\266x7\332i\271R\300a)\006"
 146      E9F51FE3 
 146      B67837DA 
 146      69B952C0 
 146      612906
 147 04c0 4901D011 		.ascii	"I\001\320\021\314b\221o\023VB+D\201\033\344\377\376"
 147      CC62916F 
 147      1356422B 
 147      44811BE4 
 147      FFFE
 148 04d2 462DC046 		.ascii	"F-\300F\356\034\007\353\350\314o!\374\024\204\0041\314"
 148      EE1C07EB 
 148      E8CC6F21 
 148      FC148404 
 148      31CC
 149 04e4 86E6E616 		.ascii	"\206\346\346\026\371\367fOK\367[-=\335\035-\035\235"
 149      F9F7664F 
 149      4BF75B2D 
 149      3DDD1D2D 
 149      1D9D
 150 04f6 9D47DBBB 		.ascii	"\235G\333\273\232;\010;\336\305:\273\330\353]\177\002"
 150      9A3B083B 
 150      DEC53ABB 
 150      D8EB5D7F 
 150      02
 151 0507 B95358C4 		.ascii	"\271SX\304"
ARM GAS  /tmp/ccQzDHmj.s 			page 12


 152              		.text
 153              		.section	.gnu.lto_chHeapFree.15584f10af2552f7,"",%progbits
 154 0000 789CCD58 		.ascii	"x\234\315XMh\\U\024\276\347\276\371\377\237\314L~\333"
 154      4D685C55 
 154      14BEE7BE 
 154      F9FF9FCC 
 154      4C7EDB
 155 0013 663222A8 		.ascii	"f2\"\250\305\204\"\"E\244kw\026\033\250n4N%\231E0m\024"
 155      C5842222 
 155      45A46B77 
 155      161BA86E 
 155      344E2599 
 156 002b D12CFA32 		.ascii	"\321,\3722\223E\261\230\204j\2155\344\247\013Qt\241"
 156      9345B198 
 156      846A8D35 
 156      E4A70B51 
 156      74A1
 157 003d D6452B52 		.ascii	"\326E+R:A\027\215R\247A\304&(6P\033]Y\014&\3514\365"
 157      3A41178D 
 157      52A741C4 
 157      26283650 
 157      1B5D590C 
 158 0055 79CEBBEF 		.ascii	"y\316\273\357o\206i\363\3364H\037\311\271\177\357~\347"
 158      6F8669F3 
 158      DE34481F 
 158      C9B97FEF 
 158      7EE7
 159 0067 9CEF9C73 		.ascii	"\234\357\234s\337M8\343\254\372)\341\357\247\011\306"
 159      DF4D38E3 
 159      ACFA29E1 
 159      EFA709C6 
 160 0077 1EA54123 		.ascii	"\036\245A#\003|\0038H(%\356bL\346n\024.\027`\003n\360"
 160      037C0338 
 160      482825EE 
 160      624CE66E 
 160      142E1760 
 161 008e A0F48017 		.ascii	"\240\364\200\027\245\227\373h5@\253>\3567\372~\300\006"
 161      A597FB68 
 161      3540AB3E 
 161      EE37FA7E 
 161      C006
 162 00a0 023C4433 		.ascii	"\002<D3A\232\011\212~\202\372!\036\241~\230\372a\321"
 162      419A098A 
 162      7E82FA21 
 162      1EA17E98 
 162      FA61D1
 163 00b3 57E7233C 		.ascii	"W\347#<J\375\030\365\243\200\015\304x\234f\032h&\016"
 163      4AFD18F5 
 163      A3800DC4 
 163      789C661A 
 163      68260E
 164 00c6 D8400324 		.ascii	"\330@\003$Q&T\033\222\220B\231\002@\243\201\035\345"
 164      5126541B 
 164      92904299 
 164      0240A381 
 164      1DE5
 165 00d8 92CBEDF1 		.ascii	"\222\313\355\361\372\374\201`(\034\211\306\342\015\211"
ARM GAS  /tmp/ccQzDHmj.s 			page 13


 165      FAFC8160 
 165      281C89C6 
 165      E20D89
 166 00e7 640A8E3E 		.ascii	"d\012\216>G\253,\235a\247e\371\304\325\017\377>\325"
 166      47AB2C9D 
 166      61A765F9 
 166      C4D50FFF 
 166      3ED5
 167 00f9 F2D66C7E 		.ascii	"\362\326l~\\\376WQ GKY`\007\261\007i\265!o\255\217\330"
 167      5CFE5751 
 167      20474B59 
 167      6007B107 
 167      69B5216F 
 168 0110 569C287D 		.ascii	"V\234(}w\032\344\023\362\360\015E\211\346\210\030;\333"
 168      771AE413 
 168      F2F00D45 
 168      89E68818 
 168      3BDB
 169 0122 E4331FCB 		.ascii	"\3443\037\313\376YySQ\244\034Q\352x\217\313\246y\223"
 169      FE597953 
 169      51A41C51 
 169      EA788FCB 
 169      A67993
 170 0135 A577AD5E 		.ascii	"\245w\255^\331\33565v\262\216m\362\217\277?sQ\036)*"
 170      D9DD3635 
 170      76B28E6D 
 170      F28FBF3F 
 170      73511E29 
 171 014a CA3EFBAA 		.ascii	"\312>\373\252\276(M\327c\341\331\322\333\326m\367\031"
 171      BE284DD7 
 171      63E1D9D2 
 171      DBD66DF7 
 171      19
 172 015b EFB272CD 		.ascii	"\357\262r\3159\023_\217\275W\217K\267\235\253\222\247"
 172      39135F8F 
 172      BD578F4B 
 172      B79DAB92 
 172      A7
 173 016c 2C81B2AB 		.ascii	",\201\262\253g\361\232\363=V\352l\356)\236/\315\324"
 173      67F19AF3 
 173      3D56EA6C 
 173      EE299E2F 
 173      CDD4
 174 017e 937B5FD6 		.ascii	"\223{_\326\221{\013c\243\367q\022\025\177\252/!n\326"
 174      917B0B63 
 174      A3F77112 
 174      157FAA2F 
 174      216ED6
 175 0191 11A8FF2B 		.ascii	"\021\250\377+\270?\327\025\334\342ji\336z\3122\233\333"
 175      B83FD715 
 175      DCE26A69 
 175      DE7ACA32 
 175      9BDB
 176 01a3 7E1D9D68 		.ascii	"~\035\235h\221-\3328\313\200=\337\326\017\231\311\304"
 176      912DDA38 
 176      CB803DDF 
 176      D60F99C9 
ARM GAS  /tmp/ccQzDHmj.s 			page 14


 176      C4
 177 01b4 D983F676 		.ascii	"\331\203\366v\025\177\033=i\325\347\346\354\241\255"
 177      157F1B3D 
 177      69D5E7E6 
 177      ECA1AD
 178 01c3 76F603FB 		.ascii	"v\366\003\373\214\027\257*\312/\377\374\261\274\011"
 178      8C17AF2A 
 178      CA2FFFFC 
 178      B1BC09
 179 01d2 890780F5 		.ascii	"\211\007\200\365\300y\3100\016\375\200\264\366\300\005"
 179      C079C830 
 179      0EFD80B4 
 179      F6C005
 180 01e1 1CB8B09D 		.ascii	"\034\270\260\235\303\326\255-z\030\222\340E!\371P\340"
 180      C3D6AD2D 
 180      7A1892E0 
 180      4521F950 
 180      E0
 181 01f2 E715CD0C 		.ascii	"\347\025\315\014\220\010\222\010\221\010\223\210\320"
 181      90089208 
 181      91089388 
 181      D0
 182 01ff 2B517A25 		.ascii	"+Qz%F\3038\211\006\232KP/I\275\024\211F\022M4\327L\242"
 182      46C33889 
 182      069A4B50 
 182      2F49BD14 
 182      8946124D 
 183 0217 8586ADB4 		.ascii	"\205\206\255\264\255\215\206;h\270\223\304.\022\355"
 183      AD8D863B 
 183      68B893C4 
 183      2E12ED
 184 0226 24D2B4D0 		.ascii	"$\322\264\320Afd4\233\360q\263\021Y\036O\213\261\260"
 184      41666434 
 184      9BF071B3 
 184      11591E4F 
 184      8BB1B0
 185 0239 5CD8DDAF 		.ascii	"\\\330\335\257\205\014\237\003\232\304\302\221\272)"
 185      850C9F03 
 185      9AC4C291 
 185      BA29
 186 0247 6FA48BEC 		.ascii	"o\244\213\354\333\225\271\325\037\240\007\276\301kD"
 186      DB95B9D5 
 186      1FA007BE 
 186      C16B44
 187 0256 2F70E2C9 		.ascii	"/p\342\311c%\251\233\022E*1\227x\205\261!V\226\217\311"
 187      6325A99B 
 187      12452A31 
 187      977885B1 
 187      2156968F 
 188 026b B11C78B3 		.ascii	"\261\034x\263\3527^\3144\347\300\327O\374\251/\345\300"
 188      EA375ECC 
 188      34E7C0D7 
 188      4FFCA92F 
 188      E5C0
 189 027d AFEFC691 		.ascii	"\257\357\306\221t\211\025\216\027V\247<\272\026IS\304"
 189      7489158E 
 189      1756A73C 
ARM GAS  /tmp/ccQzDHmj.s 			page 15


 189      BA164953 
 189      C4
 190 028e 3714CC29 		.ascii	"7\024\314)|\355\022\313/]\371k\3360\303\265\233}\"\343"
 190      7CED12CB 
 190      2F5DF96B 
 190      DE30C3B5 
 190      9B7D22E3 
 191 02a2 D38D81D4 		.ascii	"\323\215\201\324\272\373s\020\320\272O\346 8\311>@\200"
 191      BAFB7310 
 191      D0BA4FE6 
 191      2038C93E 
 191      4080
 192 02b4 10621D14 		.ascii	"\020b\035\024\271\214\317K\302\034lAk\365;\025\342\227"
 192      B98CCF4B 
 192      C21C6C41 
 192      6BF53B15 
 192      E297
 193 02c6 0B8A6980 		.ascii	"\013\212i\200\233L\306gO\316P\365\024\242\011\3200\352"
 193      9B4CC667 
 193      4FCE50F5 
 193      14A209D0 
 193      30EA
 194 02d8 2750B706 		.ascii	"'P\267\006\"\231d\2508\037MK:\216g\210\275\211a\330"
 194      229964A8 
 194      381F4D4B 
 194      3A8E6788 
 194      BD8961D8 
 195 02ec CD1EC941 		.ascii	"\315\036\311A\244\366nK\316\325\"1\232\325\214D\260"
 195      A4F66E4B 
 195      CED52231 
 195      9AD58C44 
 195      B0
 196 02fd 1CDDAE04 		.ascii	"\034\335\256\004k\030\002T\273\310\000muo\2567\367B"
 196      6B180254 
 196      BBC8006D 
 196      756FAE37 
 196      F742
 197 030f 26B179FB 		.ascii	"&\261y\373EZ\362\252a\033Y\231\233(q\013\241`\015\231"
 197      455AF2AA 
 197      611B5999 
 197      9B28710B 
 197      A1600D99 
 198 0323 4F253DFF 		.ascii	"O%=\377\274\276\356U-\214\253\322\244\016jQ\3476\\-"
 198      BCBEEE55 
 198      2D8CABD2 
 198      A40E6A51 
 198      E7365C2D 
 199 0337 1C33FCF4 		.ascii	"\0343\374\364!\204\0320\237X9n\254\370\021\246\227\364"
 199      21841A30 
 199      9F58396E 
 199      ACF811A6 
 199      97F4
 200 0349 61265D07 		.ascii	"a&]\007\313\254d\265\307\177O)\024\020\336\224\013g"
 200      CBAC64B5 
 200      C77F4F29 
 200      1410DE94 
 200      0B67
ARM GAS  /tmp/ccQzDHmj.s 			page 16


 201 035b A71FD635 		.ascii	"\247\037\3265\004T\346\365\340\275`'x\224\353\303{\014"
 201      0454E6F5 
 201      E0BD6027 
 201      7894EBC3 
 201      7B0C
 202 036d 802ACA82 		.ascii	"\200*\312\202\242\032\256\017\277\003wb5$\354X\272\262"
 202      A21AAE0F 
 202      BF037762 
 202      3524EC58 
 202      BAB2
 203 037f BA60301F 		.ascii	"\272`0\037T9um\221\2445\231\326\223\324c\261on\262\324"
 203      5439756D 
 203      91A43599 
 203      D693D463 
 203      B16F6EB2 
 204 0394 65409B9B 		.ascii	"e@\233\233\014\023\302\206\011\363F2\207*L\270\000\246"
 204      0C13C286 
 204      09F34632 
 204      872A4CB8 
 204      00A6
 205 03a6 0D5F413D 		.ascii	"\015_A=FX)\010U\0052\242\351\177\177\355O#\005\302\025"
 205      46582908 
 205      550532A2 
 205      E97F7FED 
 205      4F2305C2 
 206 03bb FA5F37D5 		.ascii	"\372_7\325\037v\254\035\241\347\307\203\002\330\254"
 206      1F76AC1D 
 206      A1E7C783 
 206      02D8AC
 207 03ca 4B1D7AAF 		.ascii	"K\035z\257\011\375\230\355#@@\367\022s\204~nm\231;\305"
 207      09FD98ED 
 207      234040F7 
 207      1273847E 
 207      6E6D993B 
 208 03df B761BA4A 		.ascii	"\267a\272J\023\021\263\261\266h\220\027\251Yu5\255\255"
 208      1311B3B1 
 208      B6689017 
 208      A9597535 
 208      ADAD
 209 03f1 59755184 		.ascii	"YuQ\204\250]u159\243B\345\215\250>\035\257\210\304\220"
 209      A85D7531 
 209      3539A342 
 209      E58DA83E 
 209      1DAF88C4 
 210 0406 E9CE6B0E 		.ascii	"\351\316k\016\351\322\212\345q\213\276\2705\015\242"
 210      E9D28AE5 
 210      718BBEB8 
 210      350DA2
 211 0415 5A1A9C5B 		.ascii	"Z\032\234[_6*\241A\350\212\251\036k=\333^\347\227.\033"
 211      5F362AA1 
 211      41E88AA9 
 211      1E6B3DDB 
 211      5EE7972E 
 212 042a 5E242ABC 		.ascii	"^$*\274x\303\364b\320\261\027*pB\007N\352\361P\321&"
 212      78C3F462 
 212      D0B1172A 
 212      7042074E 
ARM GAS  /tmp/ccQzDHmj.s 			page 17


 212      EAF150D1 
 213 043f 2A8A23B1 		.ascii	"*\212#\261UT\012g\214\270\246\320\331^\372\213\267\""
 213      55540A67 
 213      8CB8A6D0 
 213      D95EFA8B 
 213      B722
 214 0451 5A8DB840 		.ascii	"Z\215\270@ q\021\255\374\323\3264s\316\012\002j\337"
 214      207111AD 
 214      FCD3D634 
 214      73CE0A02 
 214      6ADF
 215 0463 C5F59B86 		.ascii	"\305\365\233\206\216\246\355\0130A\177\336\250\0037"
 215      8EA6ED0B 
 215      30417FDE 
 215      A80337
 216 0472 5700CF58 		.ascii	"W\000\317X\316\220S\02545\331\255\342\313\225U\274\277"
 216      CE905315 
 216      3435D9AD 
 216      E2CB9555 
 216      BCBF
 217 0484 E243AB63 		.ascii	"\342C\253c?\341\270\212\233\365\014\214\351\007Qy\331"
 217      3FE1B88A 
 217      9BF50C8C 
 217      E9075179 
 217      D9
 218 0495 884BCB3D 		.ascii	"\210K\313=~\345Z\021\242v\275\265\251_\271\326\352\262"
 218      7EE55A11 
 218      A276BDB5 
 218      A95FB9D6 
 218      EAB2
 219 04a7 68AB3A1D 		.ascii	"h\253:\035\343\372\351\\6\313b\307]\023`\013\343\362"
 219      E3FAE95C 
 219      36CB62C7 
 219      5D13600B 
 219      E3F2
 220 04b9 4BE34659 		.ascii	"K\343FY\354\254\310\336\255k\341\016\311\273\013MB\260"
 220      ECACC8DE 
 220      AD6BE10E 
 220      C9BB0B4D 
 220      42B0
 221 04cb 2AD7DB71 		.ascii	"*\327\333q\301i\362\336\305v\004\324\216\303\262\231"
 221      C169F2DE 
 221      C57604D4 
 221      8EC3B299 
 222 04db BCE96D4D 		.ascii	"\274\351mM\336:2\314\3269\236\026\013\007\350\377Zx"
 222      DE3A32CC 
 222      D6399E16 
 222      0B07E8FF 
 222      5A78
 223 04ed 494E6821 		.ascii	"INh!\335\2705gP\230\321\300\2375U\3563U\356u\374\325"
 223      DDB83567 
 223      5098D1C0 
 223      9F3555EE 
 223      3355EE75 
 224 0503 13C993D4 		.ascii	"\023\311\223\324o9+3\006e\035\333q\277\2244\317:,\367"
 224      6F392B33 
 224      06651DDB 
ARM GAS  /tmp/ccQzDHmj.s 			page 18


 224      71BF9434 
 224      CF3A2CF7 
 225 0517 CB142AFB 		.ascii	"\313\024*\373\236\015c\264\017\321\375s\201\015\317"
 225      9E0D63B4 
 225      0FD1FD73 
 225      810DCF
 226 0526 DEF2EA9B 		.ascii	"\336\362\352\233u\006\320N\272\233\266wvv\031?\257\014"
 226      7506D04E 
 226      BA9BB677 
 226      7676193F 
 226      AF0C
 227 0538 761D79B5 		.ascii	"v\035y\265k\360H\266+\333\327\367r\317@g\226\361\303"
 227      6BF048B6 
 227      2BDBD7F7 
 227      72CF4067 
 227      96F1C3
 228 054b 03BC6FC0 		.ascii	"\003\274o\300M\243\201\377\000I\304\037\330"
 228      4DA381FF 
 228      0049C41F 
 228      D8
 229              		.text
 230              		.section	.gnu.lto_chHeapStatus.15584f10af2552f7,"",%progbits
 231 0000 789CAD55 		.ascii	"x\234\255U\313KTa\024?\347\273\217y\351\370l1\264H\204"
 231      CB4B5461 
 231      143FE7BB 
 231      8F79E9F8 
 231      6C31B448 
 232 0015 88141CAA 		.ascii	"\210\024\034\252UD\370/\0249`\233b\034c\274\013\313"
 232      5544F82F 
 232      1439609B 
 232      621C63BC 
 232      0BCB
 233 0027 B4952EBC 		.ascii	"\264\225.\274\343\314B\302@\246\206\021k\221\204TN)"
 233      E3CC42C2 
 233      40A68611 
 233      6B918454 
 233      4E29
 234 0039 B4320C1A 		.ascii	"\2642\014\032\303\205\032Q\331&#Hz \301,r\021\224\213"
 234      C3851A51 
 234      D9262348 
 234      7A20C12C 
 234      7211948B 
 235 004d 6EE7DCD7 		.ascii	"n\347\334\327\\Chz\\f\276\363\315w\316\371\375\276\363"
 235      5C43687A 
 235      5C66BEF3 
 235      CD77CEF9 
 235      FDBEF3
 236 0060 BBE73002 		.ascii	"\273\3470\002\004\374\372\234\241\357\226\012p\220\177"
 236      04FCFA9C 
 236      A1EF960A 
 236      70907F
 237 006f 84002902 		.ascii	"\204\000)\002\205\220\000t!\323\"KH\006e\244\020T\314"
 237      85900074 
 237      21D3224B 
 237      480665A4 
 237      1054CC
 238 0082 55150A7B 		.ascii	"U\025\012{}\354\365\011?\357\003\274\367#\031\014`\220"
ARM GAS  /tmp/ccQzDHmj.s 			page 19


 238      7DECF509 
 238      3FEF03BC 
 238      F723190C 
 238      6090
 239 0094 D62022C1 		.ascii	"\326 \"\301!\014\013IVT\237?\020\304\341\323|\004\201"
 239      210C0B49 
 239      56549F3F 
 239      10C4E1D3 
 239      7C0481
 240 00a7 6698D2F5 		.ascii	"f\230\322\365\354\306\247\231\311\310\345\233#\343\372"
 240      ECC6A799 
 240      C9C8E59B 
 240      23E3FA
 241 00b6 0FC3408D 		.ascii	"\017\303@\215]\011\204N\332a\223i\230\335\373Xi\305"
 241      5D09844E 
 241      DA619369 
 241      98DDFB58 
 241      69C5
 242 00c8 AD6CCE9B 		.ascii	"\255l\316\233&U\226\246\177\375xbY\317\024\015\243]"
 242      265596A6 
 242      7FFD7862 
 242      59CF140D 
 242      A35D
 243 00da E37A2AA2 		.ascii	"\343z*\242z\267v\355/\250\212\306\332\312\024\022e\352"
 243      7AB776ED 
 243      2FA88AC6 
 243      DACA1412 
 243      65EA
 244 00ec 8B61D454 		.ascii	"\213a\324TZ\330d1\373j,8\236\032\325\015cXC\245B\256"
 244      5AD86431 
 244      FB6A2C38 
 244      9E1AD50D 
 244      635843A5 
 245 0102 87D97C44 		.ascii	"\207\331|D\367\\Q@3V\226\271\220\275\342\315T\004\354"
 245      F75C5140 
 245      335696B9 
 245      90BDE2CD 
 245      5404EC
 246 0115 AF2C535F 		.ascii	"\257,S_\350v\225\244\254\003\277\313\232\023\305\015"
 246      E87695A4 
 246      AC03BFCB 
 246      9A13C50D 
 247 0125 C37874F5 		.ascii	"\303xt\365\363\207UllD\350Ej\3028\336\306f\220\310\336"
 247      F387556C 
 247      6C44E845 
 247      6AC238DE 
 247      C66690C8 
 248 013a 252B932D 		.ascii	"%+\223-\220U\220\234*G\370\200\204\363\333\307\001;"
 248      9055909C 
 248      2A47F880 
 248      84F3DBC7 
 248      013B
 249 014c 2C68A785 		.ascii	",h\247\205\310)U\361RM\213\034\266\303j\354\260Z;\254"
 249      C82955F1 
 249      524D8B1C 
 249      B6C36AEC 
 249      B05A3BAC 
ARM GAS  /tmp/ccQzDHmj.s 			page 20


 250 0160 8ED0B09E 		.ascii	"\216\320\260\236\201\032\300T\024\024\310\350\372x\223"
 250      811AC054 
 250      1414C8E8 
 250      FA7893
 251 016f E5B682AD 		.ascii	"\345\266\202\255TSmz:\3145\3063 -\303\322\346\342\343"
 251      54536D7A 
 251      3ACC35C6 
 251      33202DC3 
 251      D2E6E2E3 
 252 0183 AC14C7FB 		.ascii	"\254\024\307\373\224\234D\205\213S\275\225\305\270%"
 252      949C4485 
 252      8B53BD95 
 252      C5B825
 253 0192 A46730B2 		.ascii	"\244g0\262\235\2765\275\327\211S\207`[\037\325\365c"
 253      9DBE35BD 
 253      D7895387 
 253      605B1FD5 
 253      F563
 254 01a4 14DD8BC2 		.ascii	"\024\335\213\302\023-;\321s\323.\252o\010\006\351\206"
 254      132D3BD1 
 254      73D32EAA 
 254      6F0806E9 
 254      86
 255 01b5 ADD0A2A1 		.ascii	"\255\320\242\241\357:L\022\207?\211X\346\352B\017\343"
 255      EF3A4C12 
 255      873F8958 
 255      E6EA420F 
 255      E3
 256 01c6 7390AD44 		.ascii	"s\220\255D\000\213\245V\303@\002\255\020\002\323x\366"
 256      008BA556 
 256      C34002AD 
 256      1002D378 
 256      F6
 257 01d7 88627EA2 		.ascii	"\210b~\242p\330a\3603\026g\230\216\371B\213\343\010"
 257      70D861F0 
 257      33166798 
 257      8EF9428B 
 257      E308
 258 01e9 781DDBE9 		.ascii	"x\035\333\351\205i\325\361\004\031\234\236C$q+\314\360"
 258      8569D5F1 
 258      04199C9E 
 258      4324712B 
 258      CCF0
 259 01fb F6B886A1 		.ascii	"\366\270\206\241\335\257\347\275\037\254\003\222R\202"
 259      DDAFE7BD 
 259      1FAC0392 
 259      5282
 260 0209 16551ACB 		.ascii	"\026U\032\313\365r\325\212U\365\233\211\3315\341\020"
 260      F572D58A 
 260      55F59B89 
 260      D935E110 
 261 0219 5499F53A 		.ascii	"T\231\365:\330'5>0\267$Z\265E\023J\242\350\264\246\316"
 261      D827353E 
 261      30B7245A 
 261      B545134A 
 261      A2E8B4A6 
 262 022e A411B675 		.ascii	"\244\021\266u~;]\306\320/\302\016p\265\011\254\330h"
ARM GAS  /tmp/ccQzDHmj.s 			page 21


 262      7E3B5DC6 
 262      D02FC20E 
 262      70B509AC 
 262      D868
 263 0240 67BD6855 		.ascii	"g\275hU\273\241).Jz4\335\345\240\204\011(\311\014\346"
 263      BBA1292E 
 263      4A7A34DD 
 263      E5A08409 
 263      28C90CE6 
 264 0254 F1665998 		.ascii	"\361fY\230\232$J\246jh3\277\236}\202\216\263\326f=U"
 264      9A244AA6 
 264      6A6833BF 
 264      9E7D828E 
 264      B3D6663D 
 265 0269 AEACBD5C 		.ascii	"\256\254\275\\\331\321?\256\314j\032\325\226\357[a\325"
 265      D9D13FAE 
 265      CC6A1AD5 
 265      96EF5B61 
 265      D5
 266 027a 952FB443 		.ascii	"\225/\264C\276\177\"Y\206L)u\304\005.\247\330\257SP"
 266      BE7F2259 
 266      864C2975 
 266      C4052EA7 
 266      D8AF5350 
 267 028e 37C8A55C 		.ascii	"7\310\245\\\204\312S\356\345\343\353 Q\343\310os{H\014"
 267      84CA53EE 
 267      E5E3EB20 
 267      51E3C86F 
 267      737B480C 
 268 02a2 E5463EB2 		.ascii	"\345F>\262\0162\265\230\274\224\243W\036V\306\362q\276"
 268      0E32B598 
 268      BC94A357 
 268      1E56C6F2 
 268      71BE
 269 02b4 B3CF1C9F 		.ascii	"\263\317\034\237Li\361{y|\352\030:\274s|\374Vm+\363"
 269      4C69F17B 
 269      797CEA18 
 269      3ABC737C 
 269      FC566D2B 
 270 02c9 73EF6D15 		.ascii	"s\357m\025\351\362)\252#D\022\357HI:\027\216\361\177"
 270      E9F229AA 
 270      234412EF 
 270      48493A17 
 270      8EF17F
 271 02dc 8C354546 		.ascii	"\2145EFy\212\352\377\307\024\011\233\251\336\231\242"
 271      798AEAFF 
 271      C714099B 
 271      A9DE99A2 
 272 02ec 953B0F5C 		.ascii	"\225;\017\\\311\033\222\216.1\366JO!E\267\357\346\303"
 272      C91B928E 
 272      2E31F64A 
 272      4F2145B7 
 272      EFE6C3
 273 02ff 97E0B640 		.ascii	"\227\340\266@\203\025\322\301C\301p\373\332\332\242"
 273      8315D2C1 
 273      43C170FB 
 273      DADAA2
ARM GAS  /tmp/ccQzDHmj.s 			page 22


 274 030e EEE7C240 		.ascii	"\356\347\302@\264\377Rt\240?\021M\364\364\234\213\367"
 274      B4FF5274 
 274      A03F114D 
 274      F4F49C8B 
 274      F7
 275 031f B525405C 		.ascii	"\265%@\\\354\303\363b`\360'\261G}\300"
 275      ECC3F362 
 275      60F027B1 
 275      477DC0
 276              		.text
 277              		.section	.gnu.lto_.symbol_nodes.15584f10af2552f7,"",%progbits
 278 0000 789C4D8C 		.ascii	"x\234M\214\273\012\302@\024Dgv\263k^\340'\344So\304"
 278      BB0AC240 
 278      14446776 
 278      B36B5EE0 
 278      27E4536F 
 279 0015 42B110D1 		.ascii	"B\261\020\321\3166\237\222\336F\260V\322\246\361\375"
 279      CE369F92 
 279      DE46B056 
 279      D2A6F1FD 
 280 0025 16B324B8 		.ascii	"\026\263$\270\336f8\303\231\253\240\320'\332S\007\012"
 280      DE6638C3 
 280      99ABA0D0 
 280      27DA5307 
 280      0A
 281 0036 305B0122 		.ascii	"0[\001\"\2331\315\236\260\242y\245\260m\363\001\325"
 281      9B31CD9E 
 281      B0A279A5 
 281      B06DF301 
 281      D5
 282 0047 91A2FE9C 		.ascii	"\221\242\376\234\007\031\210V'\212\366\255:S\202?\351"
 282      07198856 
 282      278AF6AD 
 282      3A53823F 
 282      E9
 283 0058 4DE5A40B 		.ascii	"M\345\244\013\305\370\2267\212\355\376\346\344\235\322"
 283      C5F89637 
 283      8AEDFEE6 
 283      E49DD2
 284 0067 F3F4A284 		.ascii	"\363\364\242\204\236\236\224\350G\032\021\252\355\207"
 284      9E9E94E8 
 284      471A11AA 
 284      ED87
 285 0075 5AC72877 		.ascii	"Z\307(w.#\224\243:\323&m\331$\250\246\216\023\024\363"
 285      2E2394A3 
 285      3AD3266D 
 285      D924A8A6 
 285      8E1314F3 
 286 0089 3A0B0CD6 		.ascii	":\013\014\326\213\006m\214\302\315l\2475<t3\233\240"
 286      8B066D8C 
 286      C2CD6CA7 
 286      353C7433 
 286      9BA0
 287 009b 5C3619A6 		.ascii	"\\6\031\246\355\333\260\231M\352\014_3`U\223"
 287      EDDBB099 
 287      4DEA0C5F 
 287      33605593 
ARM GAS  /tmp/ccQzDHmj.s 			page 23


 288              		.text
 289              		.section	.gnu.lto_.refs.15584f10af2552f7,"",%progbits
 290 0000 789C25C4 		.ascii	"x\234%\304\311\021\000 \014\304\260\2659B\027\364\337"
 290      C9110020 
 290      0CC4B0B5 
 290      394217F4 
 290      DF
 291 0011 2599410F 		.ascii	"%\231A\017\031s\363\255\200\322\272\341d\211\333\262"
 291      1973F3AD 
 291      80D2BAE1 
 291      6489DBB2 
 292 0021 38920709 		.ascii	"8\222\007\011\215\000o"
 292      8D006F
 293              		.text
 294              		.section	.gnu.lto_.decls.15584f10af2552f7,"",%progbits
 295 0000 789CBD5A 		.ascii	"x\234\275Z{p\024E\032\357\231M\366\221DE,\025\256\274"
 295      7B701445 
 295      1AEF994D 
 295      F6914445 
 295      2C15AEBC 
 296 0014 63F5D4B3 		.ascii	"c\365\324\263\274\223(z<\252,\301\242\312CO\275\207"
 296      BC93287A 
 296      3CAA2CC1 
 296      A2CA434F 
 296      BD87
 297 0026 6595FFAD 		.ascii	"e\225\377\255\3032\220\325}\335\354\204\307\375\343"
 297      C33290D5 
 297      7DDDEC84 
 297      C7FDE3
 298 0035 2440C403 		.ascii	"$@\304\0031\022!r\240\004Q0\247\304\0048\236\002\003"
 298      31122172 
 298      A0045130 
 298      A7C40438 
 298      9E0203
 299 0048 7789299E 		.ascii	"w\211)\236\221@\010\317,\242\006\301\303\000'\"\212"
 299      914008CF 
 299      2CA206C1 
 299      C3002722 
 299      8A
 300 0059 B9AF7B7A 		.ascii	"\271\257{zvgzgvg\027\275\251\355\336\336\331\356_\377"
 300      76677A67 
 300      766717BD 
 300      A9EDDEDE 
 300      D9EE5FFF 
 301 006d BE477FFD 		.ascii	"\276G\177\375\230\341\021\217\036w!\324\017W\365\375"
 301      98E1118F 
 301      1E7721D4 
 301      0F57F5FD 
 302 007d 088D7223 		.ascii	"\010\215r#\004\037\364\020J_%\220\226BZ\016i%\244U\034"
 302      041FF410 
 302      4A5F2590 
 302      96425A0E 
 302      6925A455 
 303 0092 421B216D 		.ascii	"B\033!m\203\264\023\322^H\235\220\016@\002(t\020\276"
 303      83B413D2 
 303      5E489D90 
 303      0E400228 
ARM GAS  /tmp/ccQzDHmj.s 			page 24


 303      7410BE
 304 00a5 0F414A72 		.ascii	"\017AJr\310ta\214k \255\207\324\002\251\031\322&H\235"
 304      C874618C 
 304      6B20AD87 
 304      D402A919 
 304      D226489D 
 305 00b9 903A20ED 		.ascii	"\220: \355\206\264\005R#\244\317\241\355rH\307\240\274"
 305      86B40552 
 305      23A4CFA1 
 305      ED7248C7 
 305      A0BC
 306 00cb 0BBE3DF0 		.ascii	"\013\276=\360\275\016\322f\374\033\322^H\373 uC:\212"
 306      BD0ED266 
 306      FC1BD25E 
 306      48FB2075 
 306      433A8A
 307 00de B47E758E 		.ascii	"\264~u\216\230\023Gy\030/\314} \244bH\327B*CZ\037\235"
 307      98134779 
 307      182FCC7D 
 307      20A46248 
 307      D7422A43 
 308 00f5 B4CF5E28 		.ascii	"\264\317^(\237\202\324\301\2319\032\271\035\243\334"
 308      9F82D4C1 
 308      99391AB9 
 308      1DA3DC
 309 0104 9C72C27D 		.ascii	"\234r\302}\356\245z*B\232^\232 5Cz\237\341\207\365j"
 309      EEA57A2A 
 309      429A5E9A 
 309      2035437A 
 309      9FE187F5 
 310 0119 C76F34D5 		.ascii	"\307o4\325U3\345\272\205\3623\362\321yb\356+ y)\267"
 310      5533E5BA 
 310      85F233F2 
 310      D17962EE 
 310      2B207929 
 311 012e A316FC0E 		.ascii	"\243\026\374\016P\356.\332\357\001jC\314q\035\226\237"
 311      50EE2EDA 
 311      EF016A43 
 311      CC711D96 
 311      9F
 312 013f D3F4F705 		.ascii	"\323\364\367\005\303q#\345\210y\351\034\213\251\015"
 312      C37123E5 
 312      8879E91C 
 312      8BA90D
 313 014e 9B294FAC 		.ascii	"\233)O\254\307\323T\217F\335\261|\261\034\036\003\267"
 313      C7D3548F 
 313      46DDB17C 
 313      B11C1E03 
 313      B7
 314 015f 0306BEDD 		.ascii	"\003\006\276\335\224k\021\355s\257\201#\346\214}k\013"
 314      946B11ED 
 314      73AF8123 
 314      E68C7D6B 
 314      0B
 315 0170 A4330C3F 		.ascii	"\2443\014?\354\223\3271\374:)\307F\312\361\030\345\242"
 315      EC93D731 
 315      FC3A29C7 
ARM GAS  /tmp/ccQzDHmj.s 			page 25


 315      46CAF118 
 315      E5A2
 316 0182 F3D862B0 		.ascii	"\363\330b\260q+\247\371\377Q\033\273\272h\037F}}\004"
 316      712BA7F9 
 316      FF511BBB 
 316      BA681F46 
 316      7D7D04
 317 0195 DFED545F 		.ascii	"\337\355T__2|\206\2407\225\0065\371\331\331\346\301"
 317      5F327C86 
 317      A0379506 
 317      35F9D9D9 
 317      E6C1
 318 01a7 4A43B5DA 		.ascii	"JC\265\332\337\277u\014\272\011\315W\340j\250Q\024N"
 318      DFBF750C 
 318      BA09CD57 
 318      E06AA851 
 318      144E
 319 01b9 16B8876E 		.ascii	"\026\270\207nD\317p\002w\255\017\371I\241\314GP\021"
 319      44CF7002 
 319      77AD0FF9 
 319      49A1CC47 
 319      5011
 320 01cb 12B8B7B8 		.ascii	"\022\270\267\270\233h\351i\227\206\307\243\3338t7j\204"
 320      9B68E969 
 320      9786C7A3 
 320      DB387437 
 320      6A84
 321 01dd F6B58AF2 		.ascii	"\366\265\212\362\326\315\310\352\272\023\275\203;P\336"
 321      D6CDC8EA 
 321      BA13BD83 
 321      3B50DE
 322 01ec 555C041E 		.ascii	"U\\\004\036\003,\345\206\030\253\010\3342\216g\211&"
 322      032CE586 
 322      18AB08DC 
 322      328E6789 
 322      26
 323 01fd 6B938796 		.ascii	"k\223\207\226\316\035\274P\331>C\351\357\177\201%:\272"
 323      CE1DBC50 
 323      D93E43E9 
 323      EF7F8125 
 323      3ABA
 324 020f D496E80A 		.ascii	"\324\226\350\012J\324\205\010\250\017\315R\224j\334"
 324      4AD48508 
 324      A80FCD52 
 324      946ADC
 325 021e 705C3B58 		.ascii	"p\\;X\301\252\325\035\350m\020!\371MM\327\005\256\032"
 325      C1AAD51D 
 325      E86D1021 
 325      F94D4DD7 
 325      05AE1A
 326 0231 F005AE91 		.ascii	"\360\005\256\221\363A\353\271\034\007xosw\247\210\026"
 326      F341EBB9 
 326      1C07786F 
 326      7377A788 
 326      16
 327 0242 FBCCC4E1 		.ascii	"\373\314\304\341\267^\001\343\221\277i\001G\261\353"
 327      B75E01E3 
ARM GAS  /tmp/ccQzDHmj.s 			page 26


 327      91BF6901 
 327      47B1EB
 328 0251 8CEA221A 		.ascii	"\214\352\"\032\233\317@\352@\357gj\000L\325z\271 S5"
 328      9BCF40EA 
 328      40EF676A 
 328      004CD57A 
 328      B9205335 
 329 0265 9935508A 		.ascii	"\2315P\212\376\226\326\300@\364*F\361\317:\311\245\224"
 329      FE96D6C0 
 329      40F42A46 
 329      F1CF3AC9 
 329      A594
 330 0277 A1F03A82 		.ascii	"\241\360:\202?\255\215\272\331[\036T\024\257\300\265"
 330      3FAD8DBA 
 330      D95B1E54 
 330      14AFC0B5 
 331 0287 700301A7 		.ascii	"p\003\001\247\225!\236\033\207\007\247\304m\326@{\255"
 331      95219E1B 
 331      8707A7C4 
 331      6DD6407B 
 331      AD
 332 0298 254156D4 		.ascii	"%AV\324\2555eJ\221v\037Y(\203^\267\242\006`\255~\334"
 332      AD35654A 
 332      91761F59 
 332      28835EB7 
 332      A20660AD 
 333 02ae B61854B0 		.ascii	"\266\030T\260\2353\011\241\0319\213)\017\265\354\344"
 333      9D3309A1 
 333      19398B29 
 333      0FB5ECE4 
 334 02be 09F9F5D0 		.ascii	"\011\371\365\320\220G=\014y\207`\230\335&\000\260\346"
 334      90473D0C 
 334      79876098 
 334      DD2600B0 
 334      E6
 335 02cf 98F11F0F 		.ascii	"\230\361\037\017#N\027\330\012\216\026\265\213V0\012"
 335      234E17D8 
 335      0A8E16B5 
 335      8B56300A 
 336 02df AB80CE0F 		.ascii	"\253\200\316\017\274\312-\233\256\314\232\356\276\001"
 336      BCCA2D9B 
 336      AECC9AEE 
 336      BE01
 337 02ed CDC3FA55 		.ascii	"\315\303\372U\335F\005\217\3211\274\244\273oHw[\270"
 337      DD46058F 
 337      D131BCA4 
 337      BB6F4877 
 337      5BB8
 338 02ff 1BCCFAAD 		.ascii	"\033\314\372\255ks\371\265\333\271\325;\277\346\225"
 338      6B73F9B5 
 338      DBB9D53B 
 338      BFE695
 339 030e 9F290D73 		.ascii	"\237)\015s\006\321Q\242\326(\263\270\252\226[\254{\244"
 339      06D151A2 
 339      D628B3B8 
 339      AA965BAC 
 339      7BA4
ARM GAS  /tmp/ccQzDHmj.s 			page 27


 340 0320 CAADDF77 		.ascii	"\312\255\337wv)\035'\333\3118y\2377\2537\037\260\236"
 340      76291D27 
 340      DBC93879 
 340      9F37AB37 
 340      1FB09E
 341 0333 BABDDB28 		.ascii	"\272\275\333(X+\001;P8X\303\225\256[\260g\265\023\240"
 341      582B013B 
 341      503858C3 
 341      95AE5BB0 
 341      67B513A0 
 342 0347 392E76F4 		.ascii	"9.v\364\372\230\321\3533\217^\237/]\350\327/s\014\375"
 342      FA98D1EB 
 342      338F5E9F 
 342      2F5DE8D7 
 342      2F730CFD 
 343 035b 49DBF0A8 		.ascii	"I\333\360\250\336\245\033\324JH\007\376\263s\327\237"
 343      DEA51BD4 
 343      4A4807FE 
 343      B373D79F 
 344 036b AA147586 		.ascii	"\252\024u\206\213\216\316\2061\206\220g\302\302\264"
 344      8B8ECE86 
 344      31869067 
 344      C2C2B4
 345 037a 76B303B3 		.ascii	"v\263\003\263\276\215\363k\267s9\216\242.i\333\311)"
 345      BE8DF36B 
 345      B773398E 
 345      A22E69DB 
 345      C929
 346 038c F3CAA89B 		.ascii	"\363\312\250\2336\270\355b+F\352`=ta\033\357\327n\347"
 346      36B8ED62 
 346      2B46EA60 
 346      3D74611B 
 346      EFD76EE7 
 347 03a0 F6D04535 		.ascii	"\366\320E5oX\005\000\203\2222\372\353\204\312\364\342"
 347      6F580500 
 347      839232FA 
 347      EB84CAF4 
 347      E2
 348 03b1 D11B44A7 		.ascii	"\321\033D\247\0356\325s\351\264Z]\334VV+\010\\3\011"
 348      1D36D573 
 348      E9B45A5D 
 348      DC56562B 
 348      085C3309 
 349 03c5 246F150A 		.ascii	"$o\025\012\226\272x\264\202`\354.0HT\253-4\"\352\263"
 349      96BA78B4 
 349      8260EC2E 
 349      304854AB 
 349      2D3422EA 
 350 03da 5463DE78 		.ascii	"Tc\336x\376\014NM\205:\236\001\243\331\305\004?+\014"
 350      FE0C4E4D 
 350      853A9E01 
 350      A3D9C504 
 350      3F2B0C
 351 03ed AF9D5C8A 		.ascii	"\257\235\\\212\332\375H\255\240\317*\006oR8\275\355"
 351      DAFD48AD 
 351      A0CF2A06 
 351      6F5238BD 
ARM GAS  /tmp/ccQzDHmj.s 			page 28


 351      ED
 352 03fe 00948A1A 		.ascii	"\000\224\212\032\307\027\015\307\003\375\030\231\232"
 352      C7170DC7 
 352      03FD1899 
 352      9A
 353 040b 0EBBACA7 		.ascii	"\016\273\254\247&[\020\036}B\232$\331\001pA\360kws\373"
 353      265B101E 
 353      7D429A24 
 353      D9017041 
 353      F06B7773 
 354 0420 FFD79FF9 		.ascii	"\377\327\237\371\300\375-\272\262\012r\353\226\354\177"
 354      C0FD2DBA 
 354      B20A72EB 
 354      96EC7F
 355 042f 959B4182 		.ascii	"\225\233A\202\334\247\204r]\221%e\373\361\312\243e\244"
 355      DCA78472 
 355      5D912565 
 355      FBF1CAA3 
 355      65A4
 356 0441 492F4339 		.ascii	"I/C9y\350\344\245\241\257+\312\000\355\257\334\303\351"
 356      79E8E4A5 
 356      A1AF2BCA 
 356      00EDAFDC 
 356      C3E9
 357 0453 DC6C8BE1 		.ascii	"\334l\213\341d9\231\273\365\376\237M\013\262\266g4\326"
 357      643999BB 
 357      F5FE9F4D 
 357      0BB2B667 
 357      34D6
 358 0465 FB974488 		.ascii	"\373\227D\210nk!\262\240\360\350\004i\363U\246\024\035"
 358      6E6B21B2 
 358      A0F0E804 
 358      69F355A6 
 358      141D
 359 0477 233529BE 		.ascii	"#5)\276r$E\375\3347\350\0308C\306\345\231\024lac\352"
 359      722445FD 
 359      DC37E818 
 359      3843C6E5 
 359      99146C61 
 360 048d EF7BC820 		.ascii	"\357{\310 \327\300\316\347\015\3467\201-\331\243\015"
 360      D7C0CEE7 
 360      0DE63781 
 360      2DD9A30D 
 361 049d 50E72BCF 		.ascii	"P\347+\317\013\275\352\240\315D\374o\310\220n)\266\234"
 361      0BBDEAA0 
 361      CD44FC6F 
 361      C8906E29 
 361      B69C
 362 04af 031D20F5 		.ascii	"\003\035 \365\324\265\352\323\351e\002\265\241`\250"
 362      D4B5EAD3 
 362      E96502B5 
 362      A160A8
 363 04be 2B0B3E1C 		.ascii	"+\013>\034E\326PW\010\320\366bv:\3650\323\251\307<\315"
 363      45D65057 
 363      08D0F662 
 363      763AF530 
 363      D3A9C73C 
ARM GAS  /tmp/ccQzDHmj.s 			page 29


 364 04d3 797CE902 		.ascii	"y|\351\002]\014\377\264\325y\264\273\330\201\345\354"
 364      5D0CFFB4 
 364      D579B4BB 
 364      D881E5EC 
 365 04e3 4350B2FB 		.ascii	"CP\262\373\244:j\241q\376\264\235\326x\264\237\364U"
 365      A43A6AA1 
 365      71FEB49D 
 365      D678B49F 
 365      F455
 366 04f5 CD339E5C 		.ascii	"\3153\236\\\277oW5WE\014\200\377\313\355\312\377\334"
 366      BF6F5735 
 366      57450C80 
 366      FFCBEDCA 
 366      FFDC
 367 0507 516F3F20 		.ascii	"Qo? \015\3357\244\026\327\267\223\376\217\222\376_d"
 367      0DDD37A4 
 367      16D7B793 
 367      FE8F92FE 
 367      5F64
 368 0519 FB6FF9EA 		.ascii	"\373o\371\352\324hm$\275\350\250\373\217\367\275f5\275"
 368      D4686D24 
 368      BDE8A8FB 
 368      8FF7BD66 
 368      35BD
 369 052b DAEC2E52 		.ascii	"\332\354.R+\300\317\317Q!g\363x\310\314w\263\3161\272"
 369      2BC0CFCF 
 369      512167F3 
 369      78C8CC77 
 369      B3CE31BA 
 370 053f D4D819F9 		.ascii	"\324\330\031\371mZ*\277\351\326\351\0274bA\316\366\307"
 370      6D5A2ABF 
 370      E9D6E917 
 370      346241CE 
 370      F6C7
 371 0551 1A5729CA 		.ascii	"\032W)\312Kn\235\303\322\274\021\375&M\354\337Gb\200"
 371      4B6E9DC3 
 371      D2BC11FD 
 371      264DECDF 
 371      476280
 372 0564 06F6B613 		.ascii	"\006\366\266\0230[O\252V\273\214`+\362\00633\3536\202"
 372      305B4FAA 
 372      56BB8C60 
 372      2BF20633 
 372      33EB3682 
 373 0578 FDC309D8 		.ascii	"\375\303\011\330\000{f\207\215`+\363\00633;j\004kv\002"
 373      007B6687 
 373      8D602BF3 
 373      0633333B 
 373      6A046B76 
 374 058d 36C89ED9 		.ascii	"6\310\236\331q#\330\232\274\301\314\314\372\214`\353"
 374      7123D89A 
 374      BCC1CCCC 
 374      FA8C60EB 
 375 059d 9D80F92D 		.ascii	"\235\200\371-\230\245.\273\245f\015oXjnr\353!\241\360"
 375      98A52EBB 
 375      A5660D6F 
 375      586A6E72 
ARM GAS  /tmp/ccQzDHmj.s 			page 30


 375      EB21A1F0 
 376 05b1 D5E15677 		.ascii	"\325\341Vw\276!\314$7\236IGm\244\343B\233\316Z\235 "
 376      BE21CC24 
 376      379E4947 
 376      6DA4E342 
 376      9BCE5A9D 
 377 05c6 667198B5 		.ascii	"fq\230\265\306\271qw\336`f\263\354\307`\246XC'\244\344"
 377      C6B97177 
 377      DE6066B3 
 377      ECC760A6 
 377      584327A4 
 378 05db 3BEAA0D7 		.ascii	";\352\240\327\323\321\316\253c\341\275\224\026\332j"
 378      D3D1CEAB 
 378      63E1BD94 
 378      16DA6A
 379 05ea 15854F55 		.ascii	"\025\205OUV\006\015\262\256+p\357\362w@\336\310\373"
 379      56060DB2 
 379      AE2B70EF 
 379      F27740DE 
 379      C8FB
 380 05fc 522CB4B2 		.ascii	"R,\264\262^\322\266Z\007\334\314\351\230~\345jj\347"
 380      5ED2B65A 
 380      07DCCCE9 
 380      987EE56A 
 380      6AE7
 381 060e 09CB8D9E 		.ascii	"\011\313\215\236p\330\211\232\262\014\205\276\0145i"
 381      70D8899A 
 381      B20C85BE 
 381      0C3569
 382 061d 7B6DBBCE 		.ascii	"{m\273\316W\032;?\221w\347f\033}\267g\361\315JR\345"
 382      571A3B3F 
 382      9177E766 
 382      1B7DB767 
 382      F1CD4A52 
 383 0632 0CCACE6A 		.ascii	"\014\312\316j\031\274~9u\220\233N\346\203f\036/\026"
 383      19BC7E39 
 383      75909B4E 
 383      E683661E 
 383      2F16
 384 0644 BE745BAE 		.ascii	"\276t[\256:\034@\365\324\255\3745Yu\254&@_\027\014t"
 384      3A1C40F5 
 384      D4ADFC35 
 384      5975AC26 
 384      405F170C 
 385 0659 65C19B23 		.ascii	"e\301\233#\011\320Z\002t%c\206\342\230\345\013g^`p\276"
 385      09D05A02 
 385      74256386 
 385      E298E50B 
 385      675E6070 
 386 066e 74216347 		.ascii	"t!cG\377#\326\345\321\213\036\306^&q\262D\247\324\220"
 386      FF23D6E5 
 386      D18B1EC6 
 386      5E2671B2 
 386      44A7D490 
 387 0682 6F7F7043 		.ascii	"o\177pC\223\242Lw\347c\261\244n\261MD?\257xX\375\254"
 387      93A24C77 
 387      E763B1A4 
ARM GAS  /tmp/ccQzDHmj.s 			page 31


 387      6EB14D44 
 387      3FAF7858 
 388 0698 E6F35310 		.ascii	"\346\363S\020\217\352\363\026\304\313\010\322W\200 "
 388      8FEAF316 
 388      C4CB08D2 
 388      578020
 389 06a7 7DBA202A 		.ascii	"}\272 *\021d\311\217 \310\212\274\005\031`\020\004o"
 389      1164C98F 
 389      20C88ABC 
 389      05196010 
 389      046F
 390 06b9 67DA9FDC 		.ascii	"g\332\237\334@\202\260\243\363\221V\2369\037\371z/>"
 390      4082B0A3 
 390      F391569E 
 390      391FF97A 
 390      2F3E
 391 06cb 88C1B773 		.ascii	"\210\301\267soD\353\366\031v\033\212\263\335F;\335m"
 391      6F44EBF6 
 391      19761B8A 
 391      B3DD463B 
 391      DD6D
 392 06dd B4138D35 		.ascii	"\264\023\2155y,\306\230\023\244\206\236\316\033\361"
 392      792CC698 
 392      13A4869E 
 392      CE1BF1
 393 06ec 76702781 		.ascii	"vp'\201YS(L\362J\327:m\250\356!@\037fX\320\315\030\320"
 393      5953284C 
 393      F24AD73A 
 393      6DA8EE21 
 393      401F6658 
 394 0704 6D3620FC 		.ascii	"m6 \374\304=]\"\347h/\320;\370\207\007\375\337\333\361"
 394      C43D5D22 
 394      E7682FD0 
 394      3BF88707 
 394      FDDFDBF1 
 395 0718 A88DD0C7 		.ascii	"\250\215\320\307\306+de\213\235G}t\003\235\3015\003"
 395      C62B6465 
 395      8B9D477D 
 395      74039DC1 
 395      3503
 396 072a EDBE2AC4 		.ascii	"\355\276*\304ju\353<}\267<\032\317\341]W\011G\026}\246"
 396      6A75EB3C 
 396      7DB73C1A 
 396      CFE15D57 
 396      0947167D 
 397 073f C98999A9 		.ascii	"\311\211\231\251\276\264\231zR\247!m\372\036\265\233"
 397      BEB4997A 
 397      52A7216D 
 397      FA1EB59B 
 398 074f 2CCF8E65 		.ascii	",\317\216e\030\374\014\307l\037\316\230\217\332\355"
 398      18FC0CC7 
 398      6C1FCE98 
 398      8FDAED
 399 075e 46D241E3 		.ascii	"F\322A\343<\330wur\342p\364{m)\225ko\366\254\216VF:"
 399      3CD87775 
 399      72E270F4 
 399      7B6D2995 
ARM GAS  /tmp/ccQzDHmj.s 			page 32


 399      6B6FF6AC 
 400 0776 BE483A3E 		.ascii	"\276H:>\236\2615|\353D\015\225\373\270\203\275\231\242"
 400      9EB1357C 
 400      EB440D95 
 400      FBB883BD 
 400      99A2
 401 0788 1E21674C 		.ascii	"\036!gL\372\231\321r\257\216J{\035c\\\016\346\364+\365"
 401      FA99D172 
 401      AF8E4A7B 
 401      1D635C0E 
 401      E6F42BF5 
 402 079c B8D87E6F 		.ascii	"\270\330~o>A\342\024\015\022\237jA\302\313\332h'\033"
 402      3E41E214 
 402      0D129F6A 
 402      41C2CBDA 
 402      68271B
 403 07af 56F31A25 		.ascii	"V\363\032%kXi\234n\260R\227\235\017\0343\372\300F\357"
 403      6B58699C 
 403      6EB05297 
 403      9D0F1C33 
 403      FAC046EF 
 404 07c3 D5FAC0A5 		.ascii	"\325\372\300\245\307-|@;%\264cp"
 404      C72D7C40 
 404      3B25B463 
 404      70
 405 07d0 DAC860DB 		.ascii	"\332\310`\333\3251P\267v\346\177\232\324MM\367\037b"
 405      D53150B7 
 405      76E67F9A 
 405      D44D4DF7 
 405      1F62
 406 07e2 BAF60CD3 		.ascii	"\272\366\014\323]f\327>N\016W\366\027*H\352\342\321"
 406      5D66D73E 
 406      4E0E57F6 
 406      172A48EA 
 406      E2D1
 407 07f4 11AF83A5 		.ascii	"\021\257\203\245\251\337l^\203\017\343!I'\326\234'4"
 407      A9DF6C5E 
 407      830FE321 
 407      4927D69C 
 407      2734
 408 0806 7AB0E9D9 		.ascii	"z\260\351\331UE\217^/\360x\030\3650\332pp\324s\2264"
 408      55458F5E 
 408      2FF07818 
 408      F530DA70 
 408      70D47396 
 409 081b B9C88E67 		.ascii	"\271\310\216g\010\324\364\350\365\242\243\243\226\316"
 409      08D4F4E8 
 409      F5A2A3A3 
 409      96CE
 410 0829 D9C6434B 		.ascii	"\331\306CK\340\303\361\024\266P\205\232l\230\346'p\227"
 410      E0C3F114 
 410      B650859A 
 410      6C98E627 
 410      7097
 411 083b C81EE85B 		.ascii	"\310\036\350[\376V\243\362\177p\242\374\273\354<QQ\277"
 411      FE56A3F2 
 411      7F70A2FC 
ARM GAS  /tmp/ccQzDHmj.s 			page 33


 411      BBEC3C51 
 411      51BF
 412 084d ED5CCC69 		.ascii	"\355\\\314i\374\265\2004\313\307\340Y\005$\023\236\311"
 412      FCB58034 
 412      CBC7E059 
 412      0524139E 
 412      C9
 413 085e 986A6D17 		.ascii	"\230jm\027\331Xjs\\\035\013fE\356^;\260ju\261\006\246"
 413      D9586A73 
 413      5C1D0B66 
 413      45EE5E3B 
 413      B06A75B1 
 414 0874 79FC4227 		.ascii	"y\374B'`#\355$\255V7-\320-uZ;\015\312\033\317L\256\263"
 414      6023ED24 
 414      AD56372D 
 414      D02D755A 
 414      3B0DCA1B 
 415 088c 4B7F64A3 		.ascii	"K\177d\243\235\35769\301\033c\317\357\334\002\323\204"
 415      9DEF3639 
 415      C11B63CF 
 415      EFDC02D3 
 415      84
 416 089d BE216F38 		.ascii	"\276!o8\263!\256ta\303\316\031du\200\257\246\236\234"
 416      B321AE74 
 416      61C3CE19 
 416      647580AF 
 416      A69E9C
 417 08b0 E01DA3FE 		.ascii	"\340\035\243\376n@\323\271\301\332\232{\226\013{\302"
 417      6E40D3B9 
 417      C1DA9A7B 
 417      960B7BC2 
 418 08c0 495FEE27 		.ascii	"I_\356'\001f \354\260\263]\314\343\227\2266\362b\000"
 418      016620EC 
 418      B0B35DCC 
 418      E3979636 
 418      F26200
 419 08d3 BE9F7B34 		.ascii	"\276\237{4\255n\313?.\266\353[\205\271.l\206\213\276"
 419      AD6ECB3F 
 419      2EB6EB5B 
 419      85B92E6C 
 419      868BBE
 420 08e6 1F2530FE 		.ascii	"\037%0\376@`0\353\302\346\230\272\246\217\007\353\013"
 420      406030EB 
 420      C2E698BA 
 420      A68F07EB 
 420      0B
 421 08f7 3E8DD8F4 		.ascii	">\215\330\364\222|\021\315\376\266V{f\251\201\275\344"
 421      927C11CD 
 421      FEB6567B 
 421      66A981BD 
 421      E4
 422 0908 042CCB51 		.ascii	"\004,\313Q\346z\014\226\217\226\373\350\354SO\272\237"
 422      E67A0C96 
 422      8F96FBE8 
 422      EC534FBA 
 422      9F
 423 0919 5BF2A328 		.ascii	"[\362\243(y~\336R\230T\002J\376b\360\2065\212\322\362"
ARM GAS  /tmp/ccQzDHmj.s 			page 34


 423      797EDE52 
 423      9854024A 
 423      FE62F086 
 423      358AD2F2 
 424 092d 6C3E6F27 		.ascii	"l>o'\\\350\355\320]f1\221\246>C\232VV\032\307O\373\033"
 424      5CE8EDD0 
 424      5D663191 
 424      A63E439A 
 424      56561AC7 
 425 0944 5891ACE2 		.ascii	"X\221\254\342\247\325\301\234\325e\034N\0027\307\205"
 425      A7D5C19C 
 425      D5651C4E 
 425      0237C785 
 426 0954 E3FFCBAE 		.ascii	"\343\377\313\256[!\237G\362\327H\276\200\344\213\\\246"
 426      5B219F47 
 426      F2D748BE 
 426      80E48B5C 
 426      A6
 427 0965 79E1BD12 		.ascii	"y\341\275\022&|\230\207*-\216sL$\375tO\340\316q\230"
 427      267C9887 
 427      2A2D8E73 
 427      4C24FD74 
 427      4FE0CE71 
 428 097a C8790E77 		.ascii	"\310y\016w\373_\222_$y\025\217\363\245$_F\362wH\376"
 428      FB5F925F 
 428      2479158F 
 428      F3A5245F 
 428      46F27748 
 429 098f 3EC93F20 		.ascii	">\311? \371F\222o%\371\277I~\236\344\337\221\374\012"
 429      F946926F 
 429      25F9BF49 
 429      7E9EE4DF 
 429      91FC0A
 430 09a2 C9FB495E 		.ascii	"\311\373I^E\304\232N\362\231$\177\321(\242\335:\215"
 430      45C49A4E 
 430      F299247F 
 430      D128A2DD 
 430      3A8D
 431 09b4 D954E833 		.ascii	"\331T\3503ro\241\217\021\361\276\277\334x\370*p_\347"
 431      726FA18F 
 431      11F1BEBF 
 431      DC78F82A 
 431      705FE7
 432 09c7 8DE8CFA6 		.ascii	"\215\350\317\246\332^\203j\277 \252=M\324\271\324l\321"
 432      DA5E836A 
 432      BF20AA3D 
 432      4DD4B9D4 
 432      6CD1
 433 09d9 D525FAE3 		.ascii	"\325%\372\343\355B\266\012\325\311\343\213\266\230\036"
 433      ED42B60A 
 433      D5C9E38B 
 433      B6981E
 434 09e8 AF6E62F1 		.ascii	"\257nb\361\362\014!\337\303\326\203Y?\037\313\262~^"
 434      F20C21DF 
 434      C3D68359 
 434      3F1FCBB2 
 434      7E5E
ARM GAS  /tmp/ccQzDHmj.s 			page 35


 435 09fa EE32AC9F 		.ascii	"\3562\254\237\377\225w\337Y5\2304h\360\023\242\301\223"
 435      FF9577DF 
 435      59359834 
 435      68F013A2 
 435      C193
 436 0a0c 4483CB88 		.ascii	"D\203\313\210\333\274c\326\343\216\022\346\225\006\363"
 436      DBBC63D6 
 436      E38E12E6 
 436      9506F3
 437 0a1b 7B04790F 		.ascii	"{\004y\017\3215\206\316\327\222\316\327\221\3167\223"
 437      D13586CE 
 437      D792CED7 
 437      91CE3793 
 438 0a2b FC28E7C0 		.ascii	"\374(\347\300g\233\323;c\372z\237\376\254-\365\263Q"
 438      679BD33B 
 438      63FA7A9F 
 438      FEAC2DF5 
 438      B351
 439 0a3d 8B48CC9B 		.ascii	"\213H\314\233\207\035L\344\272\035-S\224y\311\326\313"
 439      871D4CE4 
 439      BA1D2D53 
 439      9479C9D6 
 439      CB
 440 0a4e 7D450B15 		.ascii	"}E\013\025\265H\177\303\345\004\251\266\222\033b\311"
 440      B5487FC3 
 440      E504A9B6 
 440      921B62C9 
 441 0a5e 80F6AFB5 		.ascii	"\200\366\257\265U\016\212\343\350\012\2447G\253\321"
 441      550E8AE3 
 441      E80AA437 
 441      47ABD1
 442 0a6d E946FDB8 		.ascii	"\351F\375\270Q#9\202;D\006\207}+*\010}\205\364ee\346"
 442      51233982 
 442      3B440687 
 442      7D2B2A08 
 442      7D85F465 
 443 0a83 002EF50E 		.ascii	"\000.\365\016\351J\366\035\322\367\\\026oP\252\007w"
 443      E94AF61D 
 443      D2F75C16 
 443      6F50AA07 
 443      77
 444 0a94 E0D79494 		.ascii	"\340\327\224\224\357\373\373\247\027\345\361\016\351"
 444      EFFBFBA7 
 444      17E5F10E 
 444      E9
 445 0aa1 6A97E90D 		.ascii	"j\227\351\015JM\354\034\012>c\251`e>\226\267\231\004"
 445      4A4DEC1C 
 445      0A3E63A9 
 445      60653E96 
 445      B79904
 446 0ab4 83952E2C 		.ascii	"\203\225.,\357*\227\023\335~\314\252\311\276\231QM\325"
 446      EF2A9713 
 446      DD7ECCAA 
 446      C9BE9951 
 446      4DD5
 447 0ac6 CA073533 		.ascii	"\312\00753\007\024Q\237\260oE\345\\k\251\264#s\355\225"
 447      0714519F 
ARM GAS  /tmp/ccQzDHmj.s 			page 36


 447      B06F45E5 
 447      5C6BA9B4 
 447      2373ED95 
 448 0ada 96E5B5D3 		.ascii	"\226\345\265\323M\254\322\3103_\223\216\276\261\326"
 448      4DACD2C8 
 448      335F938E 
 448      BEB1D6
 449 0ae9 51CF04DD 		.ascii	"Q\317\004\335\221\252Kq\205\215\266\262j\256n\351\021"
 449      91AA4B71 
 449      858DB6B2 
 449      6AAE6EE9 
 449      11
 450 0afa B891C923 		.ascii	"\270\221\311#6[\012\267n\336\034\333wj\033\263<b\331"
 450      365B0AB7 
 450      6EDE1CDB 
 450      776A1BB3 
 450      3C62D9
 451 0b0d 9EC52598 		.ascii	"\236\305%\230\330\226\015\246\325Uj\"iR\317\214RK\365"
 451      D8960DA6 
 451      D5556A22 
 451      6952CF8C 
 451      524BF5
 452 0b20 2C645D68 		.ascii	",d]h\233#\027\"\303\023\367\307\243W\011\260}3\312\212"
 452      9B231722 
 452      C313F7C7 
 452      A35709B0 
 452      7D33CA8A 
 453 0b34 BA50CBA7 		.ascii	"\272P\313\247\177\034\247\273\225}+*@[\246\226\223\265"
 453      7F1CA7BB 
 453      957D2B2A 
 453      405BA696 
 453      93B5
 454 0b46 C9E3477A 		.ascii	"\311\343Gz9\273w\267\263\270\320.V\311x*`\224T\317("
 454      39BB77B7 
 454      B3B8D02E 
 454      56C9782A 
 454      609454CF 
 455 0b5b 4927B2C7 		.ascii	"I'\262\307\222\310\233\233\316=V\000\221\216\014\"|"
 455      92C89B9B 
 455      CE3D5600 
 455      918E0C22 
 455      7C
 456 0b6c 06911D36 		.ascii	"\006\221\0356D\366Ykd\321\331\264F4Iy\264\337\006b\277"
 456      44F6596B 
 456      64D1D9B4 
 456      46344979 
 456      B4DF0662 
 457 0b81 1584DAFC 		.ascii	"\025\204\332\374\321\034\205\253\255J\366\367\017\321"
 457      D11C85AB 
 457      AD4AF6F7 
 457      0FD1
 458 0b8f 01923600 		.ascii	"\001\2226\000]f\200\333\320RE\355H\316\354\355\343\253"
 458      5D6680DB 
 458      D05245ED 
 458      48CEECED 
 458      E3AB
 459 0ba1 14F575D8 		.ascii	"\024\365u\330k\301\032t\210\376n\367\351\024\210>\315"
ARM GAS  /tmp/ccQzDHmj.s 			page 37


 459      6BC11A74 
 459      88FE6EF7 
 459      E914883E 
 459      CD
 460 0bb2 995EE4C6 		.ascii	"\231^\344\306x\335i<\214\325\321\241\036\371\350%\005"
 460      78DD693C 
 460      8CD5D1A1 
 460      1EF9E825 
 460      05
 461 0bc3 4789AA3E 		.ascii	"G\211\252>X\241_\217j\311\206\357u\37465\237\362\376"
 461      58A15F8F 
 461      6AC986EF 
 461      75FC3635 
 461      9FF2FE
 462 0bd6 59A9E9F2 		.ascii	"Y\251\351\362z\322\324X\255\321\276\232\300\035qi%\323"
 462      7AD2D458 
 462      ADD1BE9A 
 462      C01D7169 
 462      25D3
 463 0be8 7925A961 		.ascii	"y%\251ag\260\243\256\364C\3332\037b&g\304\324\302\241"
 463      67B0A3AE 
 463      F443DB32 
 463      1F622667 
 463      C4D4C2A1 
 464 0bfc A89499B2 		.ascii	"\250\224\231\262X\026<R\312\264gy\277@s\313\336\300"
 464      58163C52 
 464      CAB46779 
 464      BF4073CB 
 464      DEC0
 465 0c0e CF270E13 		.ascii	"\317'\016\023ZT\001\347\367(\336\332\252Y\330\2366\342"
 465      5A5401E7 
 465      F728DEDA 
 465      AA59D89E 
 465      36E2
 466 0c20 3FA30396 		.ascii	"?\243\003\226f\223\236\251\005\313\222\274\205?i#|\211"
 466      66939EA9 
 466      05CB92BC 
 466      853F6923 
 466      7C89
 467 0c32 4978BD16 		.ascii	"Ix\275\026\024\217\2210b\010\263\014\011\330\234\244"
 467      148F9130 
 467      6208B30C 
 467      09D89CA4 
 468 0c42 646FD264 		.ascii	"do\322d?AX1\221\016;\241\035\251\317\323\221\216i\325"
 468      3F415831 
 468      910E3BA1 
 468      1DA9CFD3 
 468      918E69D5 
 469 0c56 91A555AF 		.ascii	"\221\245U\257m+\254|\273V\247\322\255\374h\011>K\330"
 469      6D2BAC7C 
 469      BB56A7D2 
 469      ADFC6809 
 469      3E4BD8
 470 0c69 B047F1FB 		.ascii	"\260G\361\373Ss\303*\343\334\300\340\236\310\202{:\003"
 470      5373C32A 
 470      E3DCC0E0 
 470      9EC8827B 
ARM GAS  /tmp/ccQzDHmj.s 			page 38


 470      3A03
 471 0c7b F7D22B0A 		.ascii	"\367\322+\012\317[\3179\264\306ku\306\032\333L\263\322"
 471      CF5BCF39 
 471      B4C66B75 
 471      C61ADB4C 
 471      B3D2
 472 0c8d 90A143CB 		.ascii	"\220\241C\313S\237X\242\\\222\313\023R\260<XQ!\012\361"
 472      539F58A2 
 472      5C92CB13 
 472      52B03C58 
 472      51210AF1 
 473 0ca1 A1415412 		.ascii	"\241AT\022\300\205@(\032\222\335\277{\362i\377Xtgf\213"
 473      C0854028 
 473      1A92DDBF 
 473      7BF269FF 
 473      58746766 
 474 0cb6 503418AE 		.ascii	"P4\030\256\234 B\253\210\030\011\306$qh\005\032V^\231"
 474      9C2042AB 
 474      881809C6 
 474      24716805 
 474      1A565E99 
 475 0cca 90CAC3A1 		.ascii	"\220\312\303\241\361\345\223\202\301rA\212\334\023\215"
 475      F1E59382 
 475      C172418A 
 475      DC138D
 476 0cd9 45C57B44 		.ascii	"E\305{Da|\250\374\201\241#\207\016K\265J\310\023&\210"
 476      617CA8FC 
 476      81A12387 
 476      0E4BB54A 
 476      C8132688 
 477 0ced 13A1893B 		.ascii	"\023\241\211;\021\372\253\030\220K\203\025c\001\343"
 477      11FAAB18 
 477      904B8315 
 477      6301E3
 478 0cfc E1703816 		.ascii	"\341p8\026\374e\266\316\010\305\012t\015t\032\223\246"
 478      FC65B6CE 
 478      08C50A74 
 478      0D741A93 
 478      A6
 479 0d0d 6944E552 		.ascii	"iD\345R\303\2572(O\022\345\211\225\321`@.\251\010\304"
 479      C3AF3228 
 479      4F12E589 
 479      95D16040 
 479      2EA908C4 
 480 0d21 A5D8E4D0 		.ascii	"\245\330\344\320\004Q*%U!\203\362]\231=\304c\222\234"
 480      04512A25 
 480      552183F2 
 480      5D993DC4 
 480      63929C
 481 0d34 287FF8CF 		.ascii	"(\177\370\317O\214}b*tC\005*I\310\317\013\341\320\244"
 481      4F8C7D62 
 481      2A744305 
 481      2A49C8CF 
 481      0BE1D0A4 
 482 0d48 6840FE39 		.ascii	"h@\3769\221M'\022\025\247`1A\214PT\206\212\336J\370"
 482      914D2712 
 482      15A76031 
ARM GAS  /tmp/ccQzDHmj.s 			page 39


 482      418C5054 
 482      868ADE4A 
 483 0d5d 1EFE4040 		.ascii	"\036\376@@\276\307\252ZD\010V\204\242by\000d\026*\303"
 483      BEC7AA5A 
 483      44085684 
 483      A2627900 
 483      64162AC3 
 484 0d71 72409E16 		.ascii	"r@\236\026\027\023\030?\020\320\033\026\223~\212\242"
 484      1713183F 
 484      10D01B16 
 484      937E8AA2 
 485 0d81 E254B908 		.ascii	"\342T\271\010S\345*\213\260j\270\012wE`\242$\212\267"
 485      53E52A8B 
 485      B06AB80A 
 485      774560A2 
 485      248AB7
 486 0d94 6535813C 		.ascii	"e5\201<\025\320<\221JY\234\032\220\275\301\212\000)"
 486      15D03C91 
 486      4A599C1A 
 486      90BDC18A 
 486      0029
 487 0da6 FE2A5B9B 		.ascii	"\376*[\233\304\264\204N\343:\271B\002\305$\002\177\251"
 487      C4B4844E 
 487      E33AB942 
 487      02C52402 
 487      7FA9
 488 0db8 142BC11A 		.ascii	"\024+\301\032\003\000\300t+\253I\022\301\212\011X\005"
 488      0300C074 
 488      2BAB4912 
 488      C18A0958 
 488      05
 489 0dc9 5A8B80EC 		.ascii	"Z\213\200\354K\265v\307\003X\036\370\212K\342\344\021"
 489      4BB576C7 
 489      03581EF8 
 489      8A4BE2E4 
 489      11
 490 0dda B9B41E8B 		.ascii	"\271\264\036\213\304CaQJ\224\377n\354X\300\325\331y"
 490      C4436151 
 490      4A94FF6E 
 490      EC58C0D5 
 490      D979
 491 0dec E4B8148A 		.ascii	"\344\270\024\212\201XXU\367\017\003\253jZ\303E\002\035"
 491      81585855 
 491      F70F03AB 
 491      6A5AC345 
 491      021D
 492 0dfe 8A7982B1 		.ascii	"\212y\202\261(\310+\227b@p\\9(O\375\215##\007&\217\210"
 492      28C82B97 
 492      6240705C 
 492      39284FFD 
 492      8D232307 
 493 0e15 60F29238 		.ascii	"`\362\2228\011\3745 \363\322\003\274\364[^\032\316K"
 493      09FC3520 
 493      F3D203BC 
 493      F45B5E1A 
 493      CE4B
 494 0e27 23786924 		.ascii	"#xi$/\215rI\367\335\013\351>>,\301\327\375\305\361\000"
ARM GAS  /tmp/ccQzDHmj.s 			page 40


 494      2F8D7249 
 494      F7DD0BE9 
 494      3E3E2CC1 
 494      D7FDC5F1 
 495 0e3c 807BB064 		.ascii	"\200{\260dSD\011\276ca\360\250\242`\205 aq\205\210X"
 495      534409BE 
 495      6361F0A8 
 495      A2608520 
 495      61718588 
 496 0e51 120F80DB 		.ascii	"\022\017\200\333\204C\221\220\354\225\023\262 \203F"
 496      84439190 
 496      EC9513B2 
 496      208346
 497 0e60 3D98F048 		.ascii	"=\230\360H\320\215F\035J\036\\\013\376\363\310\221\330"
 497      D08D461D 
 497      4A1E5C0B 
 497      FEF3C891 
 497      D8
 498 0e71 0491FC9E 		.ascii	"\004\221\374\236\030\026&%<\262$NL\020\311p\2418\222"
 498      18162625 
 498      3CB2244E 
 498      4C10C970 
 498      A13892
 499 0e84 98047F52 		.ascii	"\230\004\177Rq\241\271.\2704a\032\374\345\025\247\206"
 499      71A1B92E 
 499      B834611A 
 499      FCE515A7 
 499      86
 500 0e95 E42000B8 		.ascii	"\344 \000\270\247\310\261\361\317\305\007R#@SQ\022\243"
 500      A7C8B1F1 
 500      CFC50752 
 500      23405351 
 500      12A3
 501 0ea7 41002E9E 		.ascii	"A\000.\236\"\313R\274\014\214\222\020#B\274\002\204"
 501      22CB52BC 
 501      0C8C9210 
 501      2342BC02 
 501      84
 502 0eb8 CEEA4B50 		.ascii	"\316\352KP\013+\235Z\2768\030\005w-N\004\340\033\372"
 502      0B2B9D5A 
 502      BE381805 
 502      772D4E04 
 502      E01BFA
 503 0ecb 803FE3F0 		.ascii	"\200?\343\360\005\376\026/\025'\213Q9\"$\236\0076\342"
 503      05FE162F 
 503      15278B51 
 503      3922249E 
 503      0736E2
 504 0ede 145C70C5 		.ascii	"\024\\p\305\003\225\327\352\216\023\016%\240\345u\006"
 504      0395D7EA 
 504      8E130E25 
 504      A0E57506 
 505 0eee 57C2777C 		.ascii	"W\302w|\361\300\024!$\207\242\223@M \200\326\011)\302"
 505      F1C01421 
 505      2487A293 
 505      404D2080 
 505      D60929C2 
ARM GAS  /tmp/ccQzDHmj.s 			page 41


 506 0f02 0D312E46 		.ascii	"\0151.FaDM\202Z\320\005\256_\202\325 \204\211\221\341"
 506      61444D82 
 506      5AD005AE 
 506      5F82D520 
 506      848991E1 
 507 0f16 663C160B 		.ascii	"f<\026\013\337\232\215\275\214\311\017\224C\0211\020"
 507      DF9A8DBD 
 507      8CC90F94 
 507      43113110 
 508 0f26 118544A5 		.ascii	"\021\205D\245$FD,\201G\222\211$E\343\305\004\250$&%"
 508      2446442C 
 508      81479289 
 508      2445E3C5 
 508      04A82426 
 509 0f3b E4A2B090 		.ascii	"\344\242\260\220\220\335\225\3446\027\365J2i%\227\004"
 509      90DD95E4 
 509      3617F54A 
 509      32692597 
 509      04
 510 0f4c 2B239561 		.ascii	"+#\225aA\016M\026\251\215\022\236\210\246\014\370\216"
 510      410E4D16 
 510      A98D129E 
 510      88A60CF8 
 510      8E
 511 0f5d 4D898A92 		.ascii	"M\211\212\222;B\374\272\270\002\263\204\3012\016\306"
 511      3B42FCBA 
 511      B802B384 
 511      C1320EC6 
 512 0f6d EB1FC63F 		.ascii	"\353\037\306?'\006\345G!f\026\343\341\033w\215\257\234"
 512      2706E547 
 512      216616E3 
 512      E11B778D 
 512      AF9C
 513 0f7f 58AAFD45 		.ascii	"X\252\375E\242Z\211V~\004\2062\207\255\201\177<\005"
 513      A25A8956 
 513      7E048632 
 513      87AD817F 
 513      3C05
 514 0f91 E0958962 		.ascii	"\340\225\211b<\316\343\240\250'\344\251i\224\354"
 514      3CCEE3A0 
 514      A827E4A9 
 514      6994EC
 515 0fa0 369A8607 		.ascii	"6\232\206\007\006\014\264\247\246%\306\011a\034>\241"
 515      060CB4A7 
 515      A625C609 
 515      611C3EA1 
 516 0fb0 F1D351E8 		.ascii	"\361\323Q\350\347y\037)?\016\2452=\334`B\336@\200\304"
 516      E7791F29 
 516      3F0EA532 
 516      3DDC6042 
 516      DE4080C4 
 517 0fc4 C4C0357A 		.ascii	"\304\3005za\350\360\341\303\356\275\236e\217\214\377"
 517      61E8F0E1 
 517      C3EEBD9E 
 517      658F8CFF 
 518 0fd4 DF3FA234 		.ascii	"\337?\2424M\033\375\017fa#L"
 518      4D1BFD0F 
ARM GAS  /tmp/ccQzDHmj.s 			page 42


 518      6661234C 
 519              		.text
 520              		.section	.gnu.lto_.symtab.15584f10af2552f7,"",%progbits
 521 0000 5F686561 		.ascii	"_heap_init\000\000\000\000\000\000\000\000\000\000\000"
 521      705F696E 
 521      69740000 
 521      00000000 
 521      00000000 
 522 0015 00A10000 		.ascii	"\000\241\000\000\000chHeapObjectInit\000\000\000\000"
 522      00636848 
 522      6561704F 
 522      626A6563 
 522      74496E69 
 523 002e 00000000 		.ascii	"\000\000\000\000\000\000\000\000\255\000\000\000chH"
 523      00000000 
 523      AD000000 
 523      636848
 524 003d 65617041 		.ascii	"eapAlloc\000\000\000\000\000\000\000\000\000\000\000"
 524      6C6C6F63 
 524      00000000 
 524      00000000 
 524      000000
 525 0050 00B20100 		.ascii	"\000\262\001\000\000chHeapFree\000\000\000\000\000\000"
 525      00636848 
 525      65617046 
 525      72656500 
 525      00000000 
 526 0065 00000000 		.ascii	"\000\000\000\000\000\000\272\001\000\000chHeapStatu"
 526      0000BA01 
 526      00006368 
 526      48656170 
 526      53746174 
 527 007a 73000000 		.ascii	"s\000\000\000\000\000\000\000\000\000\000\000\000\301"
 527      00000000 
 527      00000000 
 527      00C1
 528 0088 01000063 		.ascii	"\001\000\000chCoreAlloc\000\000\002\000\000\000\000"
 528      68436F72 
 528      65416C6C 
 528      6F630000 
 528      02000000 
 529 009d 00000000 		.ascii	"\000\000\000\000\000\246\000\000\000chMtxObjectInit"
 529      00A60000 
 529      0063684D 
 529      74784F62 
 529      6A656374 
 530 00b5 00000200 		.ascii	"\000\000\002\000\000\000\000\000\000\000\000\000\313"
 530      00000000 
 530      00000000 
 530      CB
 531 00c2 01000063 		.ascii	"\001\000\000chSysHalt\000\000\002\000\000\000\000\000"
 531      68537973 
 531      48616C74 
 531      00000200 
 531      00000000 
 532 00d6 00000000 		.ascii	"\000\000\000\000\317\001\000\000chMtxUnlock\000\000"
 532      CF010000 
ARM GAS  /tmp/ccQzDHmj.s 			page 43


 532      63684D74 
 532      78556E6C 
 532      6F636B00 
 533 00eb 02000000 		.ascii	"\002\000\000\000\000\000\000\000\000\000\323\001\000"
 533      00000000 
 533      0000D301 
 533      00
 534 00f8 0063684D 		.ascii	"\000chMtxLock\000\000\002\000\000\000\000\000\000\000"
 534      74784C6F 
 534      636B0000 
 534      02000000 
 534      00000000 
 535 010c 0000D501 		.ascii	"\000\000\325\001\000\000"
 535      0000
 536              		.text
 537              		.section	.gnu.lto_.opts,"",%progbits
 538 0000 272D6D63 		.ascii	"'-mcpu=cortex-m4' '-mno-thumb-interwork' '-mthumb' "
 538      70753D63 
 538      6F727465 
 538      782D6D34 
 538      2720272D 
 539 0033 272D6767 		.ascii	"'-ggdb' '-O0' '-fomit-frame-pointer' '-falign-funct"
 539      64622720 
 539      272D4F30 
 539      2720272D 
 539      666F6D69 
 540 0066 696F6E73 		.ascii	"ions=16' '-ffunction-sections' '-fdata-sections' '-"
 540      3D313627 
 540      20272D66 
 540      66756E63 
 540      74696F6E 
 541 0099 666E6F2D 		.ascii	"fno-common' '-flto'\000"
 541      636F6D6D 
 541      6F6E2720 
 541      272D666C 
 541      746F2700 
 542              		.text
 543              		.cfi_sections	.debug_frame
 544              		.section	.bss.default_heap,"aw",%nobits
 545              		.align	3
 546              		.type	default_heap, %object
 547              		.size	default_heap, 32
 548              	default_heap:
 549 0000 00000000 		.space	32
 549      00000000 
 549      00000000 
 549      00000000 
 549      00000000 
 550              		.section	.text._heap_init,"ax",%progbits
 551              		.align	2
 552              		.p2align 4,,15
 553              		.global	_heap_init
 554              		.thumb
 555              		.thumb_func
 556              		.type	_heap_init, %function
 557              	_heap_init:
 558              	.LFB241:
ARM GAS  /tmp/ccQzDHmj.s 			page 44


 559              		.file 1 "../../../../os/rt/src/chheap.c"
 560              		.loc 1 91 0
 561              		.cfi_startproc
 562              		@ args = 0, pretend = 0, frame = 0
 563              		@ frame_needed = 0, uses_anonymous_args = 0
 564 0000 08B5     		push	{r3, lr}
 565              		.cfi_def_cfa_offset 8
 566              		.cfi_offset 3, -8
 567              		.cfi_offset 14, -4
 568              		.loc 1 93 0
 569 0002 40F20003 		movw	r3, #:lower16:default_heap
 570 0006 C0F20003 		movt	r3, #:upper16:default_heap
 571 000a 40F20002 		movw	r2, #:lower16:chCoreAlloc
 572 000e C0F20002 		movt	r2, #:upper16:chCoreAlloc
 573 0012 1A60     		str	r2, [r3]
 574              		.loc 1 94 0
 575 0014 40F20003 		movw	r3, #:lower16:default_heap
 576 0018 C0F20003 		movt	r3, #:upper16:default_heap
 577 001c 0022     		movs	r2, #0
 578 001e 9A60     		str	r2, [r3, #8]
 579              		.loc 1 95 0
 580 0020 40F20003 		movw	r3, #:lower16:default_heap
 581 0024 C0F20003 		movt	r3, #:upper16:default_heap
 582 0028 0022     		movs	r2, #0
 583 002a DA60     		str	r2, [r3, #12]
 584              		.loc 1 97 0
 585 002c 0148     		ldr	r0, .L2
 586 002e FFF7FEFF 		bl	chMtxObjectInit
 587              		.loc 1 101 0
 588 0032 08BD     		pop	{r3, pc}
 589              	.L3:
 590              		.align	2
 591              	.L2:
 592 0034 10000000 		.word	default_heap+16
 593              		.cfi_endproc
 594              	.LFE241:
 595              		.size	_heap_init, .-_heap_init
 596 0038 AFF30080 		.section	.text.chHeapObjectInit,"ax",%progbits
 596      AFF30080 
 597              		.align	2
 598              		.p2align 4,,15
 599              		.global	chHeapObjectInit
 600              		.thumb
 601              		.thumb_func
 602              		.type	chHeapObjectInit, %function
 603              	chHeapObjectInit:
 604              	.LFB242:
 605              		.loc 1 114 0
 606              		.cfi_startproc
 607              		@ args = 0, pretend = 0, frame = 24
 608              		@ frame_needed = 0, uses_anonymous_args = 0
 609 0000 00B5     		push	{lr}
 610              		.cfi_def_cfa_offset 4
 611              		.cfi_offset 14, -4
 612 0002 87B0     		sub	sp, sp, #28
 613              		.cfi_def_cfa_offset 32
 614 0004 0390     		str	r0, [sp, #12]
ARM GAS  /tmp/ccQzDHmj.s 			page 45


 615 0006 0291     		str	r1, [sp, #8]
 616 0008 0192     		str	r2, [sp, #4]
 617              		.loc 1 115 0
 618 000a 029B     		ldr	r3, [sp, #8]
 619 000c 0593     		str	r3, [sp, #20]
 620              		.loc 1 117 0
 621 000e 029B     		ldr	r3, [sp, #8]
 622 0010 03F00703 		and	r3, r3, #7
 623 0014 002B     		cmp	r3, #0
 624 0016 04D1     		bne	.L5
 625              		.loc 1 117 0 is_stmt 0 discriminator 2
 626 0018 019B     		ldr	r3, [sp, #4]
 627 001a 03F00703 		and	r3, r3, #7
 628 001e 002B     		cmp	r3, #0
 629 0020 05D0     		beq	.L6
 630              	.L5:
 631              		.loc 1 117 0 discriminator 1
 632 0022 40F20000 		movw	r0, #:lower16:__func__.6620
 633 0026 C0F20000 		movt	r0, #:upper16:__func__.6620
 634 002a FFF7FEFF 		bl	chSysHalt
 635              	.L6:
 636              		.loc 1 119 0 is_stmt 1
 637 002e 039B     		ldr	r3, [sp, #12]
 638 0030 0022     		movs	r2, #0
 639 0032 1A60     		str	r2, [r3]
 640              		.loc 1 120 0
 641 0034 039B     		ldr	r3, [sp, #12]
 642 0036 059A     		ldr	r2, [sp, #20]
 643 0038 9A60     		str	r2, [r3, #8]
 644              		.loc 1 121 0
 645 003a 039B     		ldr	r3, [sp, #12]
 646 003c 0022     		movs	r2, #0
 647 003e DA60     		str	r2, [r3, #12]
 648              		.loc 1 122 0
 649 0040 059B     		ldr	r3, [sp, #20]
 650 0042 0022     		movs	r2, #0
 651 0044 1A60     		str	r2, [r3]
 652              		.loc 1 123 0
 653 0046 019B     		ldr	r3, [sp, #4]
 654 0048 A3F10802 		sub	r2, r3, #8
 655 004c 059B     		ldr	r3, [sp, #20]
 656 004e 5A60     		str	r2, [r3, #4]
 657              		.loc 1 125 0
 658 0050 039B     		ldr	r3, [sp, #12]
 659 0052 1033     		adds	r3, r3, #16
 660 0054 1846     		mov	r0, r3
 661 0056 FFF7FEFF 		bl	chMtxObjectInit
 662              		.loc 1 129 0
 663 005a 07B0     		add	sp, sp, #28
 664              		@ sp needed
 665 005c 5DF804FB 		ldr	pc, [sp], #4
 666              		.cfi_endproc
 667              	.LFE242:
 668              		.size	chHeapObjectInit, .-chHeapObjectInit
 669              		.section	.text.chHeapAlloc,"ax",%progbits
 670              		.align	2
 671              		.p2align 4,,15
ARM GAS  /tmp/ccQzDHmj.s 			page 46


 672              		.global	chHeapAlloc
 673              		.thumb
 674              		.thumb_func
 675              		.type	chHeapAlloc, %function
 676              	chHeapAlloc:
 677              	.LFB243:
 678              		.loc 1 147 0
 679              		.cfi_startproc
 680              		@ args = 0, pretend = 0, frame = 24
 681              		@ frame_needed = 0, uses_anonymous_args = 0
 682 0000 00B5     		push	{lr}
 683              		.cfi_def_cfa_offset 4
 684              		.cfi_offset 14, -4
 685 0002 87B0     		sub	sp, sp, #28
 686              		.cfi_def_cfa_offset 32
 687 0004 0190     		str	r0, [sp, #4]
 688 0006 0091     		str	r1, [sp]
 689              		.loc 1 150 0
 690 0008 019B     		ldr	r3, [sp, #4]
 691 000a 002B     		cmp	r3, #0
 692 000c 04D1     		bne	.L8
 693              		.loc 1 151 0
 694 000e 40F20003 		movw	r3, #:lower16:default_heap
 695 0012 C0F20003 		movt	r3, #:upper16:default_heap
 696 0016 0193     		str	r3, [sp, #4]
 697              	.L8:
 698              		.loc 1 154 0
 699 0018 009B     		ldr	r3, [sp]
 700 001a 0733     		adds	r3, r3, #7
 701 001c 23F00703 		bic	r3, r3, #7
 702 0020 0093     		str	r3, [sp]
 703              		.loc 1 155 0
 704 0022 019B     		ldr	r3, [sp, #4]
 705 0024 0833     		adds	r3, r3, #8
 706 0026 0593     		str	r3, [sp, #20]
 707              		.loc 1 157 0
 708 0028 019B     		ldr	r3, [sp, #4]
 709 002a 1033     		adds	r3, r3, #16
 710 002c 1846     		mov	r0, r3
 711 002e FFF7FEFF 		bl	chMtxLock
 712              		.loc 1 158 0
 713 0032 36E0     		b	.L9
 714              	.L14:
 715              		.loc 1 159 0
 716 0034 059B     		ldr	r3, [sp, #20]
 717 0036 1B68     		ldr	r3, [r3]
 718 0038 0493     		str	r3, [sp, #16]
 719              		.loc 1 160 0
 720 003a 049B     		ldr	r3, [sp, #16]
 721 003c 5A68     		ldr	r2, [r3, #4]
 722 003e 009B     		ldr	r3, [sp]
 723 0040 9A42     		cmp	r2, r3
 724 0042 2CD3     		bcc	.L10
 725              		.loc 1 161 0
 726 0044 049B     		ldr	r3, [sp, #16]
 727 0046 5A68     		ldr	r2, [r3, #4]
 728 0048 009B     		ldr	r3, [sp]
ARM GAS  /tmp/ccQzDHmj.s 			page 47


 729 004a 0833     		adds	r3, r3, #8
 730 004c 9A42     		cmp	r2, r3
 731 004e 04D2     		bcs	.L11
 732              		.loc 1 165 0
 733 0050 049B     		ldr	r3, [sp, #16]
 734 0052 1A68     		ldr	r2, [r3]
 735 0054 059B     		ldr	r3, [sp, #20]
 736 0056 1A60     		str	r2, [r3]
 737 0058 16E0     		b	.L12
 738              	.L11:
 739              		.loc 1 170 0
 740 005a 009B     		ldr	r3, [sp]
 741 005c 0833     		adds	r3, r3, #8
 742 005e 049A     		ldr	r2, [sp, #16]
 743 0060 1344     		add	r3, r3, r2
 744 0062 0393     		str	r3, [sp, #12]
 745              		.loc 1 172 0
 746 0064 049B     		ldr	r3, [sp, #16]
 747 0066 1A68     		ldr	r2, [r3]
 748 0068 039B     		ldr	r3, [sp, #12]
 749 006a 1A60     		str	r2, [r3]
 750              		.loc 1 173 0
 751 006c 049B     		ldr	r3, [sp, #16]
 752 006e 5A68     		ldr	r2, [r3, #4]
 753 0070 009B     		ldr	r3, [sp]
 754 0072 D31A     		subs	r3, r2, r3
 755 0074 A3F10802 		sub	r2, r3, #8
 756 0078 039B     		ldr	r3, [sp, #12]
 757 007a 5A60     		str	r2, [r3, #4]
 758              		.loc 1 174 0
 759 007c 059B     		ldr	r3, [sp, #20]
 760 007e 039A     		ldr	r2, [sp, #12]
 761 0080 1A60     		str	r2, [r3]
 762              		.loc 1 175 0
 763 0082 049B     		ldr	r3, [sp, #16]
 764 0084 009A     		ldr	r2, [sp]
 765 0086 5A60     		str	r2, [r3, #4]
 766              	.L12:
 767              		.loc 1 177 0
 768 0088 049B     		ldr	r3, [sp, #16]
 769 008a 019A     		ldr	r2, [sp, #4]
 770 008c 1A60     		str	r2, [r3]
 771              		.loc 1 178 0
 772 008e 019B     		ldr	r3, [sp, #4]
 773 0090 1033     		adds	r3, r3, #16
 774 0092 1846     		mov	r0, r3
 775 0094 FFF7FEFF 		bl	chMtxUnlock
 776              		.loc 1 181 0
 777 0098 049B     		ldr	r3, [sp, #16]
 778 009a 0833     		adds	r3, r3, #8
 779 009c 24E0     		b	.L13
 780              	.L10:
 781              		.loc 1 184 0
 782 009e 049B     		ldr	r3, [sp, #16]
 783 00a0 0593     		str	r3, [sp, #20]
 784              	.L9:
 785              		.loc 1 158 0 discriminator 1
ARM GAS  /tmp/ccQzDHmj.s 			page 48


 786 00a2 059B     		ldr	r3, [sp, #20]
 787 00a4 1B68     		ldr	r3, [r3]
 788 00a6 002B     		cmp	r3, #0
 789 00a8 C4D1     		bne	.L14
 790              		.loc 1 186 0
 791 00aa 019B     		ldr	r3, [sp, #4]
 792 00ac 1033     		adds	r3, r3, #16
 793 00ae 1846     		mov	r0, r3
 794 00b0 FFF7FEFF 		bl	chMtxUnlock
 795              		.loc 1 190 0
 796 00b4 019B     		ldr	r3, [sp, #4]
 797 00b6 1B68     		ldr	r3, [r3]
 798 00b8 002B     		cmp	r3, #0
 799 00ba 14D0     		beq	.L15
 800              		.loc 1 191 0
 801 00bc 019B     		ldr	r3, [sp, #4]
 802 00be 1B68     		ldr	r3, [r3]
 803 00c0 009A     		ldr	r2, [sp]
 804 00c2 0832     		adds	r2, r2, #8
 805 00c4 1046     		mov	r0, r2
 806 00c6 9847     		blx	r3
 807 00c8 0490     		str	r0, [sp, #16]
 808              		.loc 1 192 0
 809 00ca 049B     		ldr	r3, [sp, #16]
 810 00cc 002B     		cmp	r3, #0
 811 00ce 0AD0     		beq	.L15
 812              		.loc 1 193 0
 813 00d0 049B     		ldr	r3, [sp, #16]
 814 00d2 019A     		ldr	r2, [sp, #4]
 815 00d4 1A60     		str	r2, [r3]
 816              		.loc 1 194 0
 817 00d6 049B     		ldr	r3, [sp, #16]
 818 00d8 009A     		ldr	r2, [sp]
 819 00da 5A60     		str	r2, [r3, #4]
 820              		.loc 1 195 0
 821 00dc 049B     		ldr	r3, [sp, #16]
 822 00de 0833     		adds	r3, r3, #8
 823 00e0 0493     		str	r3, [sp, #16]
 824              		.loc 1 198 0
 825 00e2 049B     		ldr	r3, [sp, #16]
 826 00e4 00E0     		b	.L13
 827              	.L15:
 828              		.loc 1 203 0
 829 00e6 0023     		movs	r3, #0
 830              	.L13:
 831              		.loc 1 204 0
 832 00e8 1846     		mov	r0, r3
 833 00ea 07B0     		add	sp, sp, #28
 834              		@ sp needed
 835 00ec 5DF804FB 		ldr	pc, [sp], #4
 836              		.cfi_endproc
 837              	.LFE243:
 838              		.size	chHeapAlloc, .-chHeapAlloc
 839              		.section	.text.chHeapFree,"ax",%progbits
 840              		.align	2
 841              		.p2align 4,,15
 842              		.global	chHeapFree
ARM GAS  /tmp/ccQzDHmj.s 			page 49


 843              		.thumb
 844              		.thumb_func
 845              		.type	chHeapFree, %function
 846              	chHeapFree:
 847              	.LFB244:
 848              		.loc 1 213 0
 849              		.cfi_startproc
 850              		@ args = 0, pretend = 0, frame = 24
 851              		@ frame_needed = 0, uses_anonymous_args = 0
 852 0000 00B5     		push	{lr}
 853              		.cfi_def_cfa_offset 4
 854              		.cfi_offset 14, -4
 855 0002 87B0     		sub	sp, sp, #28
 856              		.cfi_def_cfa_offset 32
 857 0004 0190     		str	r0, [sp, #4]
 858              		.loc 1 217 0
 859 0006 019B     		ldr	r3, [sp, #4]
 860 0008 002B     		cmp	r3, #0
 861 000a 05D1     		bne	.L17
 862              		.loc 1 217 0 is_stmt 0 discriminator 1
 863 000c 40F20000 		movw	r0, #:lower16:__func__.6637
 864 0010 C0F20000 		movt	r0, #:upper16:__func__.6637
 865 0014 FFF7FEFF 		bl	chSysHalt
 866              	.L17:
 867              		.loc 1 220 0 is_stmt 1
 868 0018 019B     		ldr	r3, [sp, #4]
 869 001a 083B     		subs	r3, r3, #8
 870 001c 0493     		str	r3, [sp, #16]
 871              		.loc 1 222 0
 872 001e 049B     		ldr	r3, [sp, #16]
 873 0020 1B68     		ldr	r3, [r3]
 874 0022 0393     		str	r3, [sp, #12]
 875              		.loc 1 223 0
 876 0024 039B     		ldr	r3, [sp, #12]
 877 0026 0833     		adds	r3, r3, #8
 878 0028 0593     		str	r3, [sp, #20]
 879              		.loc 1 225 0
 880 002a 039B     		ldr	r3, [sp, #12]
 881 002c 1033     		adds	r3, r3, #16
 882 002e 1846     		mov	r0, r3
 883 0030 FFF7FEFF 		bl	chMtxLock
 884              	.L25:
 885              		.loc 1 227 0
 886 0034 049A     		ldr	r2, [sp, #16]
 887 0036 059B     		ldr	r3, [sp, #20]
 888 0038 9A42     		cmp	r2, r3
 889 003a 0DD3     		bcc	.L18
 890              		.loc 1 227 0 is_stmt 0 discriminator 1
 891 003c 059B     		ldr	r3, [sp, #20]
 892 003e 5B68     		ldr	r3, [r3, #4]
 893 0040 0833     		adds	r3, r3, #8
 894 0042 059A     		ldr	r2, [sp, #20]
 895 0044 1A44     		add	r2, r2, r3
 896 0046 049B     		ldr	r3, [sp, #16]
 897 0048 9A42     		cmp	r2, r3
 898 004a 05D9     		bls	.L18
 899 004c 40F20000 		movw	r0, #:lower16:__func__.6637
ARM GAS  /tmp/ccQzDHmj.s 			page 50


 900 0050 C0F20000 		movt	r0, #:upper16:__func__.6637
 901 0054 FFF7FEFF 		bl	chSysHalt
 902              	.L18:
 903              		.loc 1 229 0 is_stmt 1
 904 0058 039B     		ldr	r3, [sp, #12]
 905 005a 03F10802 		add	r2, r3, #8
 906 005e 059B     		ldr	r3, [sp, #20]
 907 0060 9A42     		cmp	r2, r3
 908 0062 03D0     		beq	.L19
 909              		.loc 1 229 0 is_stmt 0 discriminator 2
 910 0064 049A     		ldr	r2, [sp, #16]
 911 0066 059B     		ldr	r3, [sp, #20]
 912 0068 9A42     		cmp	r2, r3
 913 006a 3ED9     		bls	.L20
 914              	.L19:
 915              		.loc 1 230 0 is_stmt 1 discriminator 1
 916 006c 059B     		ldr	r3, [sp, #20]
 917 006e 1B68     		ldr	r3, [r3]
 918              		.loc 1 229 0 discriminator 1
 919 0070 002B     		cmp	r3, #0
 920 0072 04D0     		beq	.L21
 921              		.loc 1 230 0
 922 0074 059B     		ldr	r3, [sp, #20]
 923 0076 1A68     		ldr	r2, [r3]
 924 0078 049B     		ldr	r3, [sp, #16]
 925 007a 9A42     		cmp	r2, r3
 926 007c 35D9     		bls	.L20
 927              	.L21:
 928              		.loc 1 232 0
 929 007e 059B     		ldr	r3, [sp, #20]
 930 0080 1A68     		ldr	r2, [r3]
 931 0082 049B     		ldr	r3, [sp, #16]
 932 0084 1A60     		str	r2, [r3]
 933              		.loc 1 233 0
 934 0086 059B     		ldr	r3, [sp, #20]
 935 0088 049A     		ldr	r2, [sp, #16]
 936 008a 1A60     		str	r2, [r3]
 937              		.loc 1 235 0
 938 008c 049B     		ldr	r3, [sp, #16]
 939 008e 5B68     		ldr	r3, [r3, #4]
 940 0090 0833     		adds	r3, r3, #8
 941 0092 049A     		ldr	r2, [sp, #16]
 942 0094 1A44     		add	r2, r2, r3
 943 0096 049B     		ldr	r3, [sp, #16]
 944 0098 1B68     		ldr	r3, [r3]
 945 009a 9A42     		cmp	r2, r3
 946 009c 0ED1     		bne	.L22
 947              		.loc 1 237 0
 948 009e 049B     		ldr	r3, [sp, #16]
 949 00a0 5A68     		ldr	r2, [r3, #4]
 950 00a2 049B     		ldr	r3, [sp, #16]
 951 00a4 1B68     		ldr	r3, [r3]
 952 00a6 5B68     		ldr	r3, [r3, #4]
 953 00a8 1344     		add	r3, r3, r2
 954 00aa 03F10802 		add	r2, r3, #8
 955 00ae 049B     		ldr	r3, [sp, #16]
 956 00b0 5A60     		str	r2, [r3, #4]
ARM GAS  /tmp/ccQzDHmj.s 			page 51


 957              		.loc 1 238 0
 958 00b2 049B     		ldr	r3, [sp, #16]
 959 00b4 1B68     		ldr	r3, [r3]
 960 00b6 1A68     		ldr	r2, [r3]
 961 00b8 049B     		ldr	r3, [sp, #16]
 962 00ba 1A60     		str	r2, [r3]
 963              	.L22:
 964              		.loc 1 240 0
 965 00bc 059B     		ldr	r3, [sp, #20]
 966 00be 5B68     		ldr	r3, [r3, #4]
 967 00c0 0833     		adds	r3, r3, #8
 968 00c2 059A     		ldr	r2, [sp, #20]
 969 00c4 1A44     		add	r2, r2, r3
 970 00c6 049B     		ldr	r3, [sp, #16]
 971 00c8 9A42     		cmp	r2, r3
 972 00ca 0DD1     		bne	.L23
 973              		.loc 1 242 0
 974 00cc 059B     		ldr	r3, [sp, #20]
 975 00ce 5A68     		ldr	r2, [r3, #4]
 976 00d0 049B     		ldr	r3, [sp, #16]
 977 00d2 5B68     		ldr	r3, [r3, #4]
 978 00d4 1344     		add	r3, r3, r2
 979 00d6 03F10802 		add	r2, r3, #8
 980 00da 059B     		ldr	r3, [sp, #20]
 981 00dc 5A60     		str	r2, [r3, #4]
 982              		.loc 1 243 0
 983 00de 049B     		ldr	r3, [sp, #16]
 984 00e0 1A68     		ldr	r2, [r3]
 985 00e2 059B     		ldr	r3, [sp, #20]
 986 00e4 1A60     		str	r2, [r3]
 987              		.loc 1 245 0
 988 00e6 04E0     		b	.L24
 989              	.L23:
 990 00e8 03E0     		b	.L24
 991              	.L20:
 992              		.loc 1 247 0
 993 00ea 059B     		ldr	r3, [sp, #20]
 994 00ec 1B68     		ldr	r3, [r3]
 995 00ee 0593     		str	r3, [sp, #20]
 996              		.loc 1 248 0
 997 00f0 A0E7     		b	.L25
 998              	.L24:
 999              		.loc 1 249 0
 1000 00f2 039B     		ldr	r3, [sp, #12]
 1001 00f4 1033     		adds	r3, r3, #16
 1002 00f6 1846     		mov	r0, r3
 1003 00f8 FFF7FEFF 		bl	chMtxUnlock
 1004              		.loc 1 251 0
 1005 00fc 00BF     		nop
 1006              		.loc 1 252 0
 1007 00fe 07B0     		add	sp, sp, #28
 1008              		@ sp needed
 1009 0100 5DF804FB 		ldr	pc, [sp], #4
 1010              		.cfi_endproc
 1011              	.LFE244:
 1012              		.size	chHeapFree, .-chHeapFree
 1013 0104 AFF30080 		.section	.text.chHeapStatus,"ax",%progbits
ARM GAS  /tmp/ccQzDHmj.s 			page 52


 1013      AFF30080 
 1013      AFF30080 
 1014              		.align	2
 1015              		.p2align 4,,15
 1016              		.global	chHeapStatus
 1017              		.thumb
 1018              		.thumb_func
 1019              		.type	chHeapStatus, %function
 1020              	chHeapStatus:
 1021              	.LFB245:
 1022              		.loc 1 267 0
 1023              		.cfi_startproc
 1024              		@ args = 0, pretend = 0, frame = 24
 1025              		@ frame_needed = 0, uses_anonymous_args = 0
 1026 0000 00B5     		push	{lr}
 1027              		.cfi_def_cfa_offset 4
 1028              		.cfi_offset 14, -4
 1029 0002 87B0     		sub	sp, sp, #28
 1030              		.cfi_def_cfa_offset 32
 1031 0004 0190     		str	r0, [sp, #4]
 1032 0006 0091     		str	r1, [sp]
 1033              		.loc 1 271 0
 1034 0008 019B     		ldr	r3, [sp, #4]
 1035 000a 002B     		cmp	r3, #0
 1036 000c 04D1     		bne	.L28
 1037              		.loc 1 272 0
 1038 000e 40F20003 		movw	r3, #:lower16:default_heap
 1039 0012 C0F20003 		movt	r3, #:upper16:default_heap
 1040 0016 0193     		str	r3, [sp, #4]
 1041              	.L28:
 1042              		.loc 1 275 0
 1043 0018 019B     		ldr	r3, [sp, #4]
 1044 001a 1033     		adds	r3, r3, #16
 1045 001c 1846     		mov	r0, r3
 1046 001e FFF7FEFF 		bl	chMtxLock
 1047              		.loc 1 276 0
 1048 0022 0023     		movs	r3, #0
 1049 0024 0393     		str	r3, [sp, #12]
 1050              		.loc 1 277 0
 1051 0026 0023     		movs	r3, #0
 1052 0028 0493     		str	r3, [sp, #16]
 1053              		.loc 1 278 0
 1054 002a 019B     		ldr	r3, [sp, #4]
 1055 002c 0833     		adds	r3, r3, #8
 1056 002e 0593     		str	r3, [sp, #20]
 1057              		.loc 1 279 0
 1058 0030 0BE0     		b	.L29
 1059              	.L30:
 1060              		.loc 1 280 0
 1061 0032 059B     		ldr	r3, [sp, #20]
 1062 0034 1B68     		ldr	r3, [r3]
 1063 0036 5B68     		ldr	r3, [r3, #4]
 1064 0038 039A     		ldr	r2, [sp, #12]
 1065 003a 1344     		add	r3, r3, r2
 1066 003c 0393     		str	r3, [sp, #12]
 1067              		.loc 1 281 0
 1068 003e 049B     		ldr	r3, [sp, #16]
ARM GAS  /tmp/ccQzDHmj.s 			page 53


 1069 0040 0133     		adds	r3, r3, #1
 1070 0042 0493     		str	r3, [sp, #16]
 1071              		.loc 1 282 0
 1072 0044 059B     		ldr	r3, [sp, #20]
 1073 0046 1B68     		ldr	r3, [r3]
 1074 0048 0593     		str	r3, [sp, #20]
 1075              	.L29:
 1076              		.loc 1 279 0 discriminator 1
 1077 004a 059B     		ldr	r3, [sp, #20]
 1078 004c 1B68     		ldr	r3, [r3]
 1079 004e 002B     		cmp	r3, #0
 1080 0050 EFD1     		bne	.L30
 1081              		.loc 1 284 0
 1082 0052 009B     		ldr	r3, [sp]
 1083 0054 002B     		cmp	r3, #0
 1084 0056 02D0     		beq	.L31
 1085              		.loc 1 285 0
 1086 0058 009B     		ldr	r3, [sp]
 1087 005a 039A     		ldr	r2, [sp, #12]
 1088 005c 1A60     		str	r2, [r3]
 1089              	.L31:
 1090              		.loc 1 287 0
 1091 005e 019B     		ldr	r3, [sp, #4]
 1092 0060 1033     		adds	r3, r3, #16
 1093 0062 1846     		mov	r0, r3
 1094 0064 FFF7FEFF 		bl	chMtxUnlock
 1095              		.loc 1 289 0
 1096 0068 049B     		ldr	r3, [sp, #16]
 1097              		.loc 1 290 0
 1098 006a 1846     		mov	r0, r3
 1099 006c 07B0     		add	sp, sp, #28
 1100              		@ sp needed
 1101 006e 5DF804FB 		ldr	pc, [sp], #4
 1102              		.cfi_endproc
 1103              	.LFE245:
 1104              		.size	chHeapStatus, .-chHeapStatus
 1105 0072 00BFAFF3 		.section	.rodata.__func__.6620,"a",%progbits
 1105      0080AFF3 
 1105      0080AFF3 
 1105      0080
 1106              		.align	2
 1107              		.type	__func__.6620, %object
 1108              		.size	__func__.6620, 17
 1109              	__func__.6620:
 1110 0000 63684865 		.ascii	"chHeapObjectInit\000"
 1110      61704F62 
 1110      6A656374 
 1110      496E6974 
 1110      00
 1111 0011 000000   		.section	.rodata.__func__.6637,"a",%progbits
 1112              		.align	2
 1113              		.type	__func__.6637, %object
 1114              		.size	__func__.6637, 11
 1115              	__func__.6637:
 1116 0000 63684865 		.ascii	"chHeapFree\000"
 1116      61704672 
 1116      656500
ARM GAS  /tmp/ccQzDHmj.s 			page 54


 1117 000b 00       		.text
 1118              	.Letext0:
 1119              		.file 2 "/usr/lib/gcc/arm-none-eabi/4.8.2/include/stddef.h"
 1120              		.file 3 "/usr/include/newlib/machine/_default_types.h"
 1121              		.file 4 "/usr/include/newlib/stdint.h"
 1122              		.file 5 "../../../../os/rt/ports/ARMCMx/compilers/GCC/chtypes.h"
 1123              		.file 6 "../../../../os/rt/include/chsystypes.h"
 1124              		.file 7 "../../../../os/rt/include/chschd.h"
 1125              		.file 8 "../../../../os/rt/ports/ARMCMx/chcore.h"
 1126              		.file 9 "../../../../os/rt/ports/ARMCMx/chcore_v7m.h"
 1127              		.file 10 "../../../../os/rt/include/chdebug.h"
 1128              		.file 11 "../../../../os/rt/include/chtm.h"
 1129              		.file 12 "../../../../os/rt/include/chstats.h"
 1130              		.file 13 "../../../../os/rt/include/chsem.h"
 1131              		.file 14 "../../../../os/rt/include/chmtx.h"
 1132              		.file 15 "../../../../os/rt/include/chmemcore.h"
 1133              		.file 16 "../../../../os/rt/include/chheap.h"
 1134              		.file 17 "../../../../os/ext/CMSIS/include/core_cm4.h"
 1135              		.section	.debug_info,"",%progbits
 1136              	.Ldebug_info0:
 1137 0000 5A0A0000 		.4byte	0xa5a
 1138 0004 0400     		.2byte	0x4
 1139 0006 00000000 		.4byte	.Ldebug_abbrev0
 1140 000a 04       		.byte	0x4
 1141 000b 01       		.uleb128 0x1
 1142 000c E0020000 		.4byte	.LASF149
 1143 0010 01       		.byte	0x1
 1144 0011 D8040000 		.4byte	.LASF150
 1145 0015 89020000 		.4byte	.LASF151
 1146 0019 00000000 		.4byte	.Ldebug_ranges0+0
 1147 001d 00000000 		.4byte	0
 1148 0021 00000000 		.4byte	.Ldebug_line0
 1149 0025 02       		.uleb128 0x2
 1150 0026 04       		.byte	0x4
 1151 0027 05       		.byte	0x5
 1152 0028 696E7400 		.ascii	"int\000"
 1153 002c 03       		.uleb128 0x3
 1154 002d 15000000 		.4byte	.LASF2
 1155 0031 02       		.byte	0x2
 1156 0032 D4       		.byte	0xd4
 1157 0033 37000000 		.4byte	0x37
 1158 0037 04       		.uleb128 0x4
 1159 0038 04       		.byte	0x4
 1160 0039 07       		.byte	0x7
 1161 003a 14020000 		.4byte	.LASF0
 1162 003e 04       		.uleb128 0x4
 1163 003f 01       		.byte	0x1
 1164 0040 06       		.byte	0x6
 1165 0041 1C010000 		.4byte	.LASF1
 1166 0045 03       		.uleb128 0x3
 1167 0046 3E000000 		.4byte	.LASF3
 1168 004a 03       		.byte	0x3
 1169 004b 1C       		.byte	0x1c
 1170 004c 50000000 		.4byte	0x50
 1171 0050 04       		.uleb128 0x4
 1172 0051 01       		.byte	0x1
 1173 0052 08       		.byte	0x8
ARM GAS  /tmp/ccQzDHmj.s 			page 55


 1174 0053 BE040000 		.4byte	.LASF4
 1175 0057 04       		.uleb128 0x4
 1176 0058 02       		.byte	0x2
 1177 0059 05       		.byte	0x5
 1178 005a 01050000 		.4byte	.LASF5
 1179 005e 04       		.uleb128 0x4
 1180 005f 02       		.byte	0x2
 1181 0060 07       		.byte	0x7
 1182 0061 47020000 		.4byte	.LASF6
 1183 0065 03       		.uleb128 0x3
 1184 0066 B0030000 		.4byte	.LASF7
 1185 006a 03       		.byte	0x3
 1186 006b 37       		.byte	0x37
 1187 006c 70000000 		.4byte	0x70
 1188 0070 04       		.uleb128 0x4
 1189 0071 04       		.byte	0x4
 1190 0072 05       		.byte	0x5
 1191 0073 6E010000 		.4byte	.LASF8
 1192 0077 03       		.uleb128 0x3
 1193 0078 E9050000 		.4byte	.LASF9
 1194 007c 03       		.byte	0x3
 1195 007d 38       		.byte	0x38
 1196 007e 82000000 		.4byte	0x82
 1197 0082 04       		.uleb128 0x4
 1198 0083 04       		.byte	0x4
 1199 0084 07       		.byte	0x7
 1200 0085 92050000 		.4byte	.LASF10
 1201 0089 04       		.uleb128 0x4
 1202 008a 08       		.byte	0x8
 1203 008b 05       		.byte	0x5
 1204 008c 0E010000 		.4byte	.LASF11
 1205 0090 03       		.uleb128 0x3
 1206 0091 66040000 		.4byte	.LASF12
 1207 0095 03       		.byte	0x3
 1208 0096 4E       		.byte	0x4e
 1209 0097 9B000000 		.4byte	0x9b
 1210 009b 04       		.uleb128 0x4
 1211 009c 08       		.byte	0x8
 1212 009d 07       		.byte	0x7
 1213 009e 8D000000 		.4byte	.LASF13
 1214 00a2 03       		.uleb128 0x3
 1215 00a3 75060000 		.4byte	.LASF14
 1216 00a7 04       		.byte	0x4
 1217 00a8 2A       		.byte	0x2a
 1218 00a9 45000000 		.4byte	0x45
 1219 00ad 03       		.uleb128 0x3
 1220 00ae B6040000 		.4byte	.LASF15
 1221 00b2 04       		.byte	0x4
 1222 00b3 41       		.byte	0x41
 1223 00b4 65000000 		.4byte	0x65
 1224 00b8 03       		.uleb128 0x3
 1225 00b9 5C050000 		.4byte	.LASF16
 1226 00bd 04       		.byte	0x4
 1227 00be 42       		.byte	0x42
 1228 00bf 77000000 		.4byte	0x77
 1229 00c3 03       		.uleb128 0x3
 1230 00c4 28000000 		.4byte	.LASF17
ARM GAS  /tmp/ccQzDHmj.s 			page 56


 1231 00c8 04       		.byte	0x4
 1232 00c9 4E       		.byte	0x4e
 1233 00ca 90000000 		.4byte	0x90
 1234 00ce 03       		.uleb128 0x3
 1235 00cf 1E060000 		.4byte	.LASF18
 1236 00d3 05       		.byte	0x5
 1237 00d4 39       		.byte	0x39
 1238 00d5 B8000000 		.4byte	0xb8
 1239 00d9 03       		.uleb128 0x3
 1240 00da FE000000 		.4byte	.LASF19
 1241 00de 05       		.byte	0x5
 1242 00df 3A       		.byte	0x3a
 1243 00e0 C3000000 		.4byte	0xc3
 1244 00e4 03       		.uleb128 0x3
 1245 00e5 83030000 		.4byte	.LASF20
 1246 00e9 05       		.byte	0x5
 1247 00ea 3C       		.byte	0x3c
 1248 00eb A2000000 		.4byte	0xa2
 1249 00ef 03       		.uleb128 0x3
 1250 00f0 77010000 		.4byte	.LASF21
 1251 00f4 05       		.byte	0x5
 1252 00f5 3D       		.byte	0x3d
 1253 00f6 A2000000 		.4byte	0xa2
 1254 00fa 03       		.uleb128 0x3
 1255 00fb 7C040000 		.4byte	.LASF22
 1256 00ff 05       		.byte	0x5
 1257 0100 3E       		.byte	0x3e
 1258 0101 A2000000 		.4byte	0xa2
 1259 0105 03       		.uleb128 0x3
 1260 0106 A5040000 		.4byte	.LASF23
 1261 010a 05       		.byte	0x5
 1262 010b 40       		.byte	0x40
 1263 010c B8000000 		.4byte	0xb8
 1264 0110 03       		.uleb128 0x3
 1265 0111 7E020000 		.4byte	.LASF24
 1266 0115 05       		.byte	0x5
 1267 0116 41       		.byte	0x41
 1268 0117 AD000000 		.4byte	0xad
 1269 011b 03       		.uleb128 0x3
 1270 011c A4030000 		.4byte	.LASF25
 1271 0120 05       		.byte	0x5
 1272 0121 43       		.byte	0x43
 1273 0122 B8000000 		.4byte	0xb8
 1274 0126 03       		.uleb128 0x3
 1275 0127 03020000 		.4byte	.LASF26
 1276 012b 05       		.byte	0x5
 1277 012c 45       		.byte	0x45
 1278 012d AD000000 		.4byte	0xad
 1279 0131 03       		.uleb128 0x3
 1280 0132 CD020000 		.4byte	.LASF27
 1281 0136 05       		.byte	0x5
 1282 0137 46       		.byte	0x46
 1283 0138 B8000000 		.4byte	0xb8
 1284 013c 03       		.uleb128 0x3
 1285 013d CB050000 		.4byte	.LASF28
 1286 0141 06       		.byte	0x6
 1287 0142 33       		.byte	0x33
ARM GAS  /tmp/ccQzDHmj.s 			page 57


 1288 0143 B8000000 		.4byte	0xb8
 1289 0147 03       		.uleb128 0x3
 1290 0148 B6050000 		.4byte	.LASF29
 1291 014c 06       		.byte	0x6
 1292 014d 3F       		.byte	0x3f
 1293 014e 52010000 		.4byte	0x152
 1294 0152 05       		.uleb128 0x5
 1295 0153 69020000 		.4byte	.LASF51
 1296 0157 60       		.byte	0x60
 1297 0158 07       		.byte	0x7
 1298 0159 C2       		.byte	0xc2
 1299 015a 58020000 		.4byte	0x258
 1300 015e 06       		.uleb128 0x6
 1301 015f 21050000 		.4byte	.LASF30
 1302 0163 07       		.byte	0x7
 1303 0164 C3       		.byte	0xc3
 1304 0165 63020000 		.4byte	0x263
 1305 0169 00       		.byte	0
 1306 016a 06       		.uleb128 0x6
 1307 016b 9E040000 		.4byte	.LASF31
 1308 016f 07       		.byte	0x7
 1309 0170 C5       		.byte	0xc5
 1310 0171 63020000 		.4byte	0x263
 1311 0175 04       		.byte	0x4
 1312 0176 06       		.uleb128 0x6
 1313 0177 07010000 		.4byte	.LASF32
 1314 017b 07       		.byte	0x7
 1315 017c C7       		.byte	0xc7
 1316 017d 05010000 		.4byte	0x105
 1317 0181 08       		.byte	0x8
 1318 0182 06       		.uleb128 0x6
 1319 0183 EB060000 		.4byte	.LASF33
 1320 0187 07       		.byte	0x7
 1321 0188 C8       		.byte	0xc8
 1322 0189 CC040000 		.4byte	0x4cc
 1323 018d 0C       		.byte	0xc
 1324 018e 06       		.uleb128 0x6
 1325 018f 94010000 		.4byte	.LASF34
 1326 0193 07       		.byte	0x7
 1327 0194 CA       		.byte	0xca
 1328 0195 63020000 		.4byte	0x263
 1329 0199 10       		.byte	0x10
 1330 019a 06       		.uleb128 0x6
 1331 019b 35040000 		.4byte	.LASF35
 1332 019f 07       		.byte	0x7
 1333 01a0 CB       		.byte	0xcb
 1334 01a1 63020000 		.4byte	0x263
 1335 01a5 14       		.byte	0x14
 1336 01a6 06       		.uleb128 0x6
 1337 01a7 95060000 		.4byte	.LASF36
 1338 01ab 07       		.byte	0x7
 1339 01ac D2       		.byte	0xd2
 1340 01ad 70070000 		.4byte	0x770
 1341 01b1 18       		.byte	0x18
 1342 01b2 06       		.uleb128 0x6
 1343 01b3 09020000 		.4byte	.LASF37
 1344 01b7 07       		.byte	0x7
ARM GAS  /tmp/ccQzDHmj.s 			page 58


 1345 01b8 D8       		.byte	0xd8
 1346 01b9 82070000 		.4byte	0x782
 1347 01bd 1C       		.byte	0x1c
 1348 01be 06       		.uleb128 0x6
 1349 01bf 0B050000 		.4byte	.LASF38
 1350 01c3 07       		.byte	0x7
 1351 01c4 DD       		.byte	0xdd
 1352 01c5 EF000000 		.4byte	0xef
 1353 01c9 20       		.byte	0x20
 1354 01ca 06       		.uleb128 0x6
 1355 01cb 28050000 		.4byte	.LASF39
 1356 01cf 07       		.byte	0x7
 1357 01d0 E1       		.byte	0xe1
 1358 01d1 E4000000 		.4byte	0xe4
 1359 01d5 21       		.byte	0x21
 1360 01d6 06       		.uleb128 0x6
 1361 01d7 60060000 		.4byte	.LASF40
 1362 01db 07       		.byte	0x7
 1363 01dc E6       		.byte	0xe6
 1364 01dd FA000000 		.4byte	0xfa
 1365 01e1 22       		.byte	0x22
 1366 01e2 07       		.uleb128 0x7
 1367 01e3 705F7500 		.ascii	"p_u\000"
 1368 01e7 07       		.byte	0x7
 1369 01e8 3101     		.2byte	0x131
 1370 01ea AB060000 		.4byte	0x6ab
 1371 01ee 24       		.byte	0x24
 1372 01ef 08       		.uleb128 0x8
 1373 01f0 D6030000 		.4byte	.LASF41
 1374 01f4 07       		.byte	0x7
 1375 01f5 3601     		.2byte	0x136
 1376 01f7 69020000 		.4byte	0x269
 1377 01fb 28       		.byte	0x28
 1378 01fc 08       		.uleb128 0x8
 1379 01fd 30020000 		.4byte	.LASF42
 1380 0201 07       		.byte	0x7
 1381 0202 3C01     		.2byte	0x13c
 1382 0204 8D020000 		.4byte	0x28d
 1383 0208 2C       		.byte	0x2c
 1384 0209 08       		.uleb128 0x8
 1385 020a C8060000 		.4byte	.LASF43
 1386 020e 07       		.byte	0x7
 1387 020f 4001     		.2byte	0x140
 1388 0211 10010000 		.4byte	0x110
 1389 0215 34       		.byte	0x34
 1390 0216 08       		.uleb128 0x8
 1391 0217 51050000 		.4byte	.LASF44
 1392 021b 07       		.byte	0x7
 1393 021c 4601     		.2byte	0x146
 1394 021e 1B010000 		.4byte	0x11b
 1395 0222 38       		.byte	0x38
 1396 0223 08       		.uleb128 0x8
 1397 0224 F7040000 		.4byte	.LASF45
 1398 0228 07       		.byte	0x7
 1399 0229 4D01     		.2byte	0x14d
 1400 022b 6A070000 		.4byte	0x76a
 1401 022f 3C       		.byte	0x3c
ARM GAS  /tmp/ccQzDHmj.s 			page 59


 1402 0230 08       		.uleb128 0x8
 1403 0231 D5050000 		.4byte	.LASF46
 1404 0235 07       		.byte	0x7
 1405 0236 5101     		.2byte	0x151
 1406 0238 05010000 		.4byte	0x105
 1407 023c 40       		.byte	0x40
 1408 023d 08       		.uleb128 0x8
 1409 023e 3C010000 		.4byte	.LASF47
 1410 0242 07       		.byte	0x7
 1411 0243 5801     		.2byte	0x158
 1412 0245 40030000 		.4byte	0x340
 1413 0249 44       		.byte	0x44
 1414 024a 08       		.uleb128 0x8
 1415 024b 30050000 		.4byte	.LASF48
 1416 024f 07       		.byte	0x7
 1417 0250 5E01     		.2byte	0x15e
 1418 0252 5C060000 		.4byte	0x65c
 1419 0256 48       		.byte	0x48
 1420 0257 00       		.byte	0
 1421 0258 03       		.uleb128 0x3
 1422 0259 E9030000 		.4byte	.LASF49
 1423 025d 06       		.byte	0x6
 1424 025e 44       		.byte	0x44
 1425 025f 63020000 		.4byte	0x263
 1426 0263 09       		.uleb128 0x9
 1427 0264 04       		.byte	0x4
 1428 0265 47010000 		.4byte	0x147
 1429 0269 03       		.uleb128 0x3
 1430 026a A1060000 		.4byte	.LASF50
 1431 026e 06       		.byte	0x6
 1432 026f 49       		.byte	0x49
 1433 0270 74020000 		.4byte	0x274
 1434 0274 05       		.uleb128 0x5
 1435 0275 7D050000 		.4byte	.LASF52
 1436 0279 04       		.byte	0x4
 1437 027a 07       		.byte	0x7
 1438 027b B0       		.byte	0xb0
 1439 027c 8D020000 		.4byte	0x28d
 1440 0280 06       		.uleb128 0x6
 1441 0281 21050000 		.4byte	.LASF30
 1442 0285 07       		.byte	0x7
 1443 0286 B1       		.byte	0xb1
 1444 0287 63020000 		.4byte	0x263
 1445 028b 00       		.byte	0
 1446 028c 00       		.byte	0
 1447 028d 03       		.uleb128 0x3
 1448 028e 47060000 		.4byte	.LASF53
 1449 0292 06       		.byte	0x6
 1450 0293 50       		.byte	0x50
 1451 0294 98020000 		.4byte	0x298
 1452 0298 05       		.uleb128 0x5
 1453 0299 54000000 		.4byte	.LASF54
 1454 029d 08       		.byte	0x8
 1455 029e 07       		.byte	0x7
 1456 029f B7       		.byte	0xb7
 1457 02a0 BD020000 		.4byte	0x2bd
 1458 02a4 06       		.uleb128 0x6
ARM GAS  /tmp/ccQzDHmj.s 			page 60


 1459 02a5 21050000 		.4byte	.LASF30
 1460 02a9 07       		.byte	0x7
 1461 02aa B8       		.byte	0xb8
 1462 02ab 63020000 		.4byte	0x263
 1463 02af 00       		.byte	0
 1464 02b0 06       		.uleb128 0x6
 1465 02b1 9E040000 		.4byte	.LASF31
 1466 02b5 07       		.byte	0x7
 1467 02b6 B9       		.byte	0xb9
 1468 02b7 63020000 		.4byte	0x263
 1469 02bb 04       		.byte	0x4
 1470 02bc 00       		.byte	0
 1471 02bd 03       		.uleb128 0x3
 1472 02be 00000000 		.4byte	.LASF55
 1473 02c2 06       		.byte	0x6
 1474 02c3 57       		.byte	0x57
 1475 02c4 C8020000 		.4byte	0x2c8
 1476 02c8 0A       		.uleb128 0xa
 1477 02c9 96030000 		.4byte	.LASF56
 1478 02cd 1C       		.byte	0x1c
 1479 02ce 07       		.byte	0x7
 1480 02cf 9001     		.2byte	0x190
 1481 02d1 24030000 		.4byte	0x324
 1482 02d5 08       		.uleb128 0x8
 1483 02d6 6C050000 		.4byte	.LASF57
 1484 02da 07       		.byte	0x7
 1485 02db 9101     		.2byte	0x191
 1486 02dd 8D020000 		.4byte	0x28d
 1487 02e1 00       		.byte	0
 1488 02e2 08       		.uleb128 0x8
 1489 02e3 13050000 		.4byte	.LASF58
 1490 02e7 07       		.byte	0x7
 1491 02e8 9201     		.2byte	0x192
 1492 02ea 05010000 		.4byte	0x105
 1493 02ee 08       		.byte	0x8
 1494 02ef 08       		.uleb128 0x8
 1495 02f0 3D040000 		.4byte	.LASF59
 1496 02f4 07       		.byte	0x7
 1497 02f5 9401     		.2byte	0x194
 1498 02f7 CC040000 		.4byte	0x4cc
 1499 02fb 0C       		.byte	0xc
 1500 02fc 08       		.uleb128 0x8
 1501 02fd AC010000 		.4byte	.LASF60
 1502 0301 07       		.byte	0x7
 1503 0302 9701     		.2byte	0x197
 1504 0304 63020000 		.4byte	0x263
 1505 0308 10       		.byte	0x10
 1506 0309 08       		.uleb128 0x8
 1507 030a 5E040000 		.4byte	.LASF61
 1508 030e 07       		.byte	0x7
 1509 030f 9801     		.2byte	0x198
 1510 0311 63020000 		.4byte	0x263
 1511 0315 14       		.byte	0x14
 1512 0316 08       		.uleb128 0x8
 1513 0317 54040000 		.4byte	.LASF62
 1514 031b 07       		.byte	0x7
 1515 031c 9B01     		.2byte	0x19b
ARM GAS  /tmp/ccQzDHmj.s 			page 61


 1516 031e 63020000 		.4byte	0x263
 1517 0322 18       		.byte	0x18
 1518 0323 00       		.byte	0
 1519 0324 03       		.uleb128 0x3
 1520 0325 E0050000 		.4byte	.LASF63
 1521 0329 06       		.byte	0x6
 1522 032a 5C       		.byte	0x5c
 1523 032b 2F030000 		.4byte	0x32f
 1524 032f 09       		.uleb128 0x9
 1525 0330 04       		.byte	0x4
 1526 0331 35030000 		.4byte	0x335
 1527 0335 0B       		.uleb128 0xb
 1528 0336 40030000 		.4byte	0x340
 1529 033a 0C       		.uleb128 0xc
 1530 033b 40030000 		.4byte	0x340
 1531 033f 00       		.byte	0
 1532 0340 0D       		.uleb128 0xd
 1533 0341 04       		.byte	0x4
 1534 0342 03       		.uleb128 0x3
 1535 0343 8E040000 		.4byte	.LASF64
 1536 0347 06       		.byte	0x6
 1537 0348 61       		.byte	0x61
 1538 0349 4D030000 		.4byte	0x34d
 1539 034d 0A       		.uleb128 0xa
 1540 034e 0D060000 		.4byte	.LASF65
 1541 0352 14       		.byte	0x14
 1542 0353 07       		.byte	0x7
 1543 0354 6B01     		.2byte	0x16b
 1544 0356 9C030000 		.4byte	0x39c
 1545 035a 08       		.uleb128 0x8
 1546 035b 21020000 		.4byte	.LASF66
 1547 035f 07       		.byte	0x7
 1548 0360 6C01     		.2byte	0x16c
 1549 0362 88070000 		.4byte	0x788
 1550 0366 00       		.byte	0
 1551 0367 08       		.uleb128 0x8
 1552 0368 BD010000 		.4byte	.LASF67
 1553 036c 07       		.byte	0x7
 1554 036d 6D01     		.2byte	0x16d
 1555 036f 88070000 		.4byte	0x788
 1556 0373 04       		.byte	0x4
 1557 0374 08       		.uleb128 0x8
 1558 0375 74050000 		.4byte	.LASF68
 1559 0379 07       		.byte	0x7
 1560 037a 6E01     		.2byte	0x16e
 1561 037c 3C010000 		.4byte	0x13c
 1562 0380 08       		.byte	0x8
 1563 0381 08       		.uleb128 0x8
 1564 0382 F1060000 		.4byte	.LASF69
 1565 0386 07       		.byte	0x7
 1566 0387 6F01     		.2byte	0x16f
 1567 0389 24030000 		.4byte	0x324
 1568 038d 0C       		.byte	0xc
 1569 038e 08       		.uleb128 0x8
 1570 038f 33060000 		.4byte	.LASF70
 1571 0393 07       		.byte	0x7
 1572 0394 7101     		.2byte	0x171
ARM GAS  /tmp/ccQzDHmj.s 			page 62


 1573 0396 40030000 		.4byte	0x340
 1574 039a 10       		.byte	0x10
 1575 039b 00       		.byte	0
 1576 039c 03       		.uleb128 0x3
 1577 039d CF000000 		.4byte	.LASF71
 1578 03a1 06       		.byte	0x6
 1579 03a2 66       		.byte	0x66
 1580 03a3 A7030000 		.4byte	0x3a7
 1581 03a7 0A       		.uleb128 0xa
 1582 03a8 FC030000 		.4byte	.LASF72
 1583 03ac 10       		.byte	0x10
 1584 03ad 07       		.byte	0x7
 1585 03ae 7B01     		.2byte	0x17b
 1586 03b0 E9030000 		.4byte	0x3e9
 1587 03b4 08       		.uleb128 0x8
 1588 03b5 21020000 		.4byte	.LASF66
 1589 03b9 07       		.byte	0x7
 1590 03ba 7C01     		.2byte	0x17c
 1591 03bc 88070000 		.4byte	0x788
 1592 03c0 00       		.byte	0
 1593 03c1 08       		.uleb128 0x8
 1594 03c2 BD010000 		.4byte	.LASF67
 1595 03c6 07       		.byte	0x7
 1596 03c7 7E01     		.2byte	0x17e
 1597 03c9 88070000 		.4byte	0x788
 1598 03cd 04       		.byte	0x4
 1599 03ce 08       		.uleb128 0x8
 1600 03cf 74050000 		.4byte	.LASF68
 1601 03d3 07       		.byte	0x7
 1602 03d4 8001     		.2byte	0x180
 1603 03d6 3C010000 		.4byte	0x13c
 1604 03da 08       		.byte	0x8
 1605 03db 08       		.uleb128 0x8
 1606 03dc 29040000 		.4byte	.LASF73
 1607 03e0 07       		.byte	0x7
 1608 03e1 8801     		.2byte	0x188
 1609 03e3 3C010000 		.4byte	0x13c
 1610 03e7 0C       		.byte	0xc
 1611 03e8 00       		.byte	0
 1612 03e9 03       		.uleb128 0x3
 1613 03ea 65000000 		.4byte	.LASF74
 1614 03ee 06       		.byte	0x6
 1615 03ef 6B       		.byte	0x6b
 1616 03f0 F4030000 		.4byte	0x3f4
 1617 03f4 0E       		.uleb128 0xe
 1618 03f5 C5010000 		.4byte	.LASF75
 1619 03f9 1404     		.2byte	0x414
 1620 03fb 07       		.byte	0x7
 1621 03fc A201     		.2byte	0x1a2
 1622 03fe 37040000 		.4byte	0x437
 1623 0402 08       		.uleb128 0x8
 1624 0403 F4050000 		.4byte	.LASF76
 1625 0407 07       		.byte	0x7
 1626 0408 AA01     		.2byte	0x1aa
 1627 040a 8E070000 		.4byte	0x78e
 1628 040e 00       		.byte	0
 1629 040f 08       		.uleb128 0x8
ARM GAS  /tmp/ccQzDHmj.s 			page 63


 1630 0410 67060000 		.4byte	.LASF77
 1631 0414 07       		.byte	0x7
 1632 0415 AF01     		.2byte	0x1af
 1633 0417 26010000 		.4byte	0x126
 1634 041b 04       		.byte	0x4
 1635 041c 08       		.uleb128 0x8
 1636 041d EB010000 		.4byte	.LASF78
 1637 0421 07       		.byte	0x7
 1638 0422 B301     		.2byte	0x1b3
 1639 0424 26010000 		.4byte	0x126
 1640 0428 08       		.byte	0x8
 1641 0429 08       		.uleb128 0x8
 1642 042a B0060000 		.4byte	.LASF79
 1643 042e 07       		.byte	0x7
 1644 042f B901     		.2byte	0x1b9
 1645 0431 EE050000 		.4byte	0x5ee
 1646 0435 0C       		.byte	0xc
 1647 0436 00       		.byte	0
 1648 0437 03       		.uleb128 0x3
 1649 0438 D4020000 		.4byte	.LASF80
 1650 043c 06       		.byte	0x6
 1651 043d 70       		.byte	0x70
 1652 043e 42040000 		.4byte	0x442
 1653 0442 0E       		.uleb128 0xe
 1654 0443 64010000 		.4byte	.LASF81
 1655 0447 D805     		.2byte	0x5d8
 1656 0449 07       		.byte	0x7
 1657 044a C201     		.2byte	0x1c2
 1658 044c AF040000 		.4byte	0x4af
 1659 0450 08       		.uleb128 0x8
 1660 0451 6F060000 		.4byte	.LASF82
 1661 0455 07       		.byte	0x7
 1662 0456 C601     		.2byte	0x1c6
 1663 0458 BD020000 		.4byte	0x2bd
 1664 045c 00       		.byte	0
 1665 045d 08       		.uleb128 0x8
 1666 045e 57010000 		.4byte	.LASF83
 1667 0462 07       		.byte	0x7
 1668 0463 CA01     		.2byte	0x1ca
 1669 0465 9C030000 		.4byte	0x39c
 1670 0469 1C       		.byte	0x1c
 1671 046a 07       		.uleb128 0x7
 1672 046b 64626700 		.ascii	"dbg\000"
 1673 046f 07       		.byte	0x7
 1674 0470 CE01     		.2byte	0x1ce
 1675 0472 E9030000 		.4byte	0x3e9
 1676 0476 2C       		.byte	0x2c
 1677 0477 0F       		.uleb128 0xf
 1678 0478 73020000 		.4byte	.LASF84
 1679 047c 07       		.byte	0x7
 1680 047d D201     		.2byte	0x1d2
 1681 047f 47010000 		.4byte	0x147
 1682 0483 4004     		.2byte	0x440
 1683 0485 10       		.uleb128 0x10
 1684 0486 746D00   		.ascii	"tm\000"
 1685 0489 07       		.byte	0x7
 1686 048a D701     		.2byte	0x1d7
ARM GAS  /tmp/ccQzDHmj.s 			page 64


 1687 048c 0E060000 		.4byte	0x60e
 1688 0490 A004     		.2byte	0x4a0
 1689 0492 0F       		.uleb128 0xf
 1690 0493 31000000 		.4byte	.LASF85
 1691 0497 07       		.byte	0x7
 1692 0498 DD01     		.2byte	0x1dd
 1693 049a A0060000 		.4byte	0x6a0
 1694 049e A804     		.2byte	0x4a8
 1695 04a0 0F       		.uleb128 0xf
 1696 04a1 F4010000 		.4byte	.LASF86
 1697 04a5 07       		.byte	0x7
 1698 04a6 E301     		.2byte	0x1e3
 1699 04a8 93070000 		.4byte	0x793
 1700 04ac E004     		.2byte	0x4e0
 1701 04ae 00       		.byte	0
 1702 04af 04       		.uleb128 0x4
 1703 04b0 04       		.byte	0x4
 1704 04b1 07       		.byte	0x7
 1705 04b2 E0030000 		.4byte	.LASF87
 1706 04b6 03       		.uleb128 0x3
 1707 04b7 B4010000 		.4byte	.LASF88
 1708 04bb 08       		.byte	0x8
 1709 04bc 65       		.byte	0x65
 1710 04bd 40030000 		.4byte	0x340
 1711 04c1 03       		.uleb128 0x3
 1712 04c2 BA030000 		.4byte	.LASF89
 1713 04c6 08       		.byte	0x8
 1714 04c7 6D       		.byte	0x6d
 1715 04c8 C3000000 		.4byte	0xc3
 1716 04cc 05       		.uleb128 0x5
 1717 04cd 05060000 		.4byte	.LASF90
 1718 04d1 04       		.byte	0x4
 1719 04d2 08       		.byte	0x8
 1720 04d3 89       		.byte	0x89
 1721 04d4 E5040000 		.4byte	0x4e5
 1722 04d8 11       		.uleb128 0x11
 1723 04d9 72313300 		.ascii	"r13\000"
 1724 04dd 08       		.byte	0x8
 1725 04de 8A       		.byte	0x8a
 1726 04df 60050000 		.4byte	0x560
 1727 04e3 00       		.byte	0
 1728 04e4 00       		.byte	0
 1729 04e5 05       		.uleb128 0x5
 1730 04e6 48000000 		.4byte	.LASF91
 1731 04ea 24       		.byte	0x24
 1732 04eb 09       		.byte	0x9
 1733 04ec FD       		.byte	0xfd
 1734 04ed 60050000 		.4byte	0x560
 1735 04f1 07       		.uleb128 0x7
 1736 04f2 723400   		.ascii	"r4\000"
 1737 04f5 09       		.byte	0x9
 1738 04f6 1001     		.2byte	0x110
 1739 04f8 B6040000 		.4byte	0x4b6
 1740 04fc 00       		.byte	0
 1741 04fd 07       		.uleb128 0x7
 1742 04fe 723500   		.ascii	"r5\000"
 1743 0501 09       		.byte	0x9
ARM GAS  /tmp/ccQzDHmj.s 			page 65


 1744 0502 1101     		.2byte	0x111
 1745 0504 B6040000 		.4byte	0x4b6
 1746 0508 04       		.byte	0x4
 1747 0509 07       		.uleb128 0x7
 1748 050a 723600   		.ascii	"r6\000"
 1749 050d 09       		.byte	0x9
 1750 050e 1201     		.2byte	0x112
 1751 0510 B6040000 		.4byte	0x4b6
 1752 0514 08       		.byte	0x8
 1753 0515 07       		.uleb128 0x7
 1754 0516 723700   		.ascii	"r7\000"
 1755 0519 09       		.byte	0x9
 1756 051a 1301     		.2byte	0x113
 1757 051c B6040000 		.4byte	0x4b6
 1758 0520 0C       		.byte	0xc
 1759 0521 07       		.uleb128 0x7
 1760 0522 723800   		.ascii	"r8\000"
 1761 0525 09       		.byte	0x9
 1762 0526 1401     		.2byte	0x114
 1763 0528 B6040000 		.4byte	0x4b6
 1764 052c 10       		.byte	0x10
 1765 052d 07       		.uleb128 0x7
 1766 052e 723900   		.ascii	"r9\000"
 1767 0531 09       		.byte	0x9
 1768 0532 1501     		.2byte	0x115
 1769 0534 B6040000 		.4byte	0x4b6
 1770 0538 14       		.byte	0x14
 1771 0539 07       		.uleb128 0x7
 1772 053a 72313000 		.ascii	"r10\000"
 1773 053e 09       		.byte	0x9
 1774 053f 1601     		.2byte	0x116
 1775 0541 B6040000 		.4byte	0x4b6
 1776 0545 18       		.byte	0x18
 1777 0546 07       		.uleb128 0x7
 1778 0547 72313100 		.ascii	"r11\000"
 1779 054b 09       		.byte	0x9
 1780 054c 1701     		.2byte	0x117
 1781 054e B6040000 		.4byte	0x4b6
 1782 0552 1C       		.byte	0x1c
 1783 0553 07       		.uleb128 0x7
 1784 0554 6C7200   		.ascii	"lr\000"
 1785 0557 09       		.byte	0x9
 1786 0558 1801     		.2byte	0x118
 1787 055a B6040000 		.4byte	0x4b6
 1788 055e 20       		.byte	0x20
 1789 055f 00       		.byte	0
 1790 0560 09       		.uleb128 0x9
 1791 0561 04       		.byte	0x4
 1792 0562 E5040000 		.4byte	0x4e5
 1793 0566 12       		.uleb128 0x12
 1794 0567 10       		.byte	0x10
 1795 0568 0A       		.byte	0xa
 1796 0569 51       		.byte	0x51
 1797 056a 9F050000 		.4byte	0x59f
 1798 056e 06       		.uleb128 0x6
 1799 056f 0D000000 		.4byte	.LASF92
 1800 0573 0A       		.byte	0xa
ARM GAS  /tmp/ccQzDHmj.s 			page 66


 1801 0574 55       		.byte	0x55
 1802 0575 3C010000 		.4byte	0x13c
 1803 0579 00       		.byte	0
 1804 057a 06       		.uleb128 0x6
 1805 057b 8E010000 		.4byte	.LASF93
 1806 057f 0A       		.byte	0xa
 1807 0580 59       		.byte	0x59
 1808 0581 63020000 		.4byte	0x263
 1809 0585 04       		.byte	0x4
 1810 0586 06       		.uleb128 0x6
 1811 0587 E1060000 		.4byte	.LASF94
 1812 058b 0A       		.byte	0xa
 1813 058c 5D       		.byte	0x5d
 1814 058d 40030000 		.4byte	0x340
 1815 0591 08       		.byte	0x8
 1816 0592 06       		.uleb128 0x6
 1817 0593 B6000000 		.4byte	.LASF95
 1818 0597 0A       		.byte	0xa
 1819 0598 61       		.byte	0x61
 1820 0599 A2000000 		.4byte	0xa2
 1821 059d 0C       		.byte	0xc
 1822 059e 00       		.byte	0
 1823 059f 03       		.uleb128 0x3
 1824 05a0 1A040000 		.4byte	.LASF96
 1825 05a4 0A       		.byte	0xa
 1826 05a5 62       		.byte	0x62
 1827 05a6 66050000 		.4byte	0x566
 1828 05aa 13       		.uleb128 0x13
 1829 05ab 0804     		.2byte	0x408
 1830 05ad 0A       		.byte	0xa
 1831 05ae 67       		.byte	0x67
 1832 05af D8050000 		.4byte	0x5d8
 1833 05b3 06       		.uleb128 0x6
 1834 05b4 A4010000 		.4byte	.LASF97
 1835 05b8 0A       		.byte	0xa
 1836 05b9 6B       		.byte	0x6b
 1837 05ba 37000000 		.4byte	0x37
 1838 05be 00       		.byte	0
 1839 05bf 06       		.uleb128 0x6
 1840 05c0 13040000 		.4byte	.LASF98
 1841 05c4 0A       		.byte	0xa
 1842 05c5 6F       		.byte	0x6f
 1843 05c6 D8050000 		.4byte	0x5d8
 1844 05ca 04       		.byte	0x4
 1845 05cb 06       		.uleb128 0x6
 1846 05cc 84040000 		.4byte	.LASF99
 1847 05d0 0A       		.byte	0xa
 1848 05d1 73       		.byte	0x73
 1849 05d2 DE050000 		.4byte	0x5de
 1850 05d6 08       		.byte	0x8
 1851 05d7 00       		.byte	0
 1852 05d8 09       		.uleb128 0x9
 1853 05d9 04       		.byte	0x4
 1854 05da 9F050000 		.4byte	0x59f
 1855 05de 14       		.uleb128 0x14
 1856 05df 9F050000 		.4byte	0x59f
 1857 05e3 EE050000 		.4byte	0x5ee
ARM GAS  /tmp/ccQzDHmj.s 			page 67


 1858 05e7 15       		.uleb128 0x15
 1859 05e8 AF040000 		.4byte	0x4af
 1860 05ec 3F       		.byte	0x3f
 1861 05ed 00       		.byte	0
 1862 05ee 03       		.uleb128 0x3
 1863 05ef A4000000 		.4byte	.LASF100
 1864 05f3 0A       		.byte	0xa
 1865 05f4 74       		.byte	0x74
 1866 05f5 AA050000 		.4byte	0x5aa
 1867 05f9 12       		.uleb128 0x12
 1868 05fa 04       		.byte	0x4
 1869 05fb 0B       		.byte	0xb
 1870 05fc 38       		.byte	0x38
 1871 05fd 0E060000 		.4byte	0x60e
 1872 0601 06       		.uleb128 0x6
 1873 0602 FE050000 		.4byte	.LASF101
 1874 0606 0B       		.byte	0xb
 1875 0607 3C       		.byte	0x3c
 1876 0608 CE000000 		.4byte	0xce
 1877 060c 00       		.byte	0
 1878 060d 00       		.byte	0
 1879 060e 03       		.uleb128 0x3
 1880 060f 43040000 		.4byte	.LASF102
 1881 0613 0B       		.byte	0xb
 1882 0614 3D       		.byte	0x3d
 1883 0615 F9050000 		.4byte	0x5f9
 1884 0619 12       		.uleb128 0x12
 1885 061a 18       		.byte	0x18
 1886 061b 0B       		.byte	0xb
 1887 061c 48       		.byte	0x48
 1888 061d 5C060000 		.4byte	0x65c
 1889 0621 06       		.uleb128 0x6
 1890 0622 BF050000 		.4byte	.LASF103
 1891 0626 0B       		.byte	0xb
 1892 0627 49       		.byte	0x49
 1893 0628 CE000000 		.4byte	0xce
 1894 062c 00       		.byte	0
 1895 062d 06       		.uleb128 0x6
 1896 062e 74000000 		.4byte	.LASF104
 1897 0632 0B       		.byte	0xb
 1898 0633 4A       		.byte	0x4a
 1899 0634 CE000000 		.4byte	0xce
 1900 0638 04       		.byte	0x4
 1901 0639 06       		.uleb128 0x6
 1902 063a 84020000 		.4byte	.LASF105
 1903 063e 0B       		.byte	0xb
 1904 063f 4B       		.byte	0x4b
 1905 0640 CE000000 		.4byte	0xce
 1906 0644 08       		.byte	0x8
 1907 0645 11       		.uleb128 0x11
 1908 0646 6E00     		.ascii	"n\000"
 1909 0648 0B       		.byte	0xb
 1910 0649 4C       		.byte	0x4c
 1911 064a 31010000 		.4byte	0x131
 1912 064e 0C       		.byte	0xc
 1913 064f 06       		.uleb128 0x6
 1914 0650 71040000 		.4byte	.LASF106
ARM GAS  /tmp/ccQzDHmj.s 			page 68


 1915 0654 0B       		.byte	0xb
 1916 0655 4D       		.byte	0x4d
 1917 0656 D9000000 		.4byte	0xd9
 1918 065a 10       		.byte	0x10
 1919 065b 00       		.byte	0
 1920 065c 03       		.uleb128 0x3
 1921 065d 7A000000 		.4byte	.LASF107
 1922 0661 0B       		.byte	0xb
 1923 0662 4E       		.byte	0x4e
 1924 0663 19060000 		.4byte	0x619
 1925 0667 12       		.uleb128 0x12
 1926 0668 38       		.byte	0x38
 1927 0669 0C       		.byte	0xc
 1928 066a 38       		.byte	0x38
 1929 066b A0060000 		.4byte	0x6a0
 1930 066f 06       		.uleb128 0x6
 1931 0670 3B020000 		.4byte	.LASF108
 1932 0674 0C       		.byte	0xc
 1933 0675 39       		.byte	0x39
 1934 0676 31010000 		.4byte	0x131
 1935 067a 00       		.byte	0
 1936 067b 06       		.uleb128 0x6
 1937 067c AD040000 		.4byte	.LASF109
 1938 0680 0C       		.byte	0xc
 1939 0681 3A       		.byte	0x3a
 1940 0682 31010000 		.4byte	0x131
 1941 0686 04       		.byte	0x4
 1942 0687 06       		.uleb128 0x6
 1943 0688 CE060000 		.4byte	.LASF110
 1944 068c 0C       		.byte	0xc
 1945 068d 3B       		.byte	0x3b
 1946 068e 5C060000 		.4byte	0x65c
 1947 0692 08       		.byte	0x8
 1948 0693 06       		.uleb128 0x6
 1949 0694 8B030000 		.4byte	.LASF111
 1950 0698 0C       		.byte	0xc
 1951 0699 3D       		.byte	0x3d
 1952 069a 5C060000 		.4byte	0x65c
 1953 069e 20       		.byte	0x20
 1954 069f 00       		.byte	0
 1955 06a0 03       		.uleb128 0x3
 1956 06a1 5A020000 		.4byte	.LASF112
 1957 06a5 0C       		.byte	0xc
 1958 06a6 3F       		.byte	0x3f
 1959 06a7 67060000 		.4byte	0x667
 1960 06ab 16       		.uleb128 0x16
 1961 06ac 04       		.byte	0x4
 1962 06ad 07       		.byte	0x7
 1963 06ae FA       		.byte	0xfa
 1964 06af 08070000 		.4byte	0x708
 1965 06b3 17       		.uleb128 0x17
 1966 06b4 21000000 		.4byte	.LASF113
 1967 06b8 07       		.byte	0x7
 1968 06b9 0101     		.2byte	0x101
 1969 06bb 10010000 		.4byte	0x110
 1970 06bf 17       		.uleb128 0x17
 1971 06c0 BF000000 		.4byte	.LASF114
ARM GAS  /tmp/ccQzDHmj.s 			page 69


 1972 06c4 07       		.byte	0x7
 1973 06c5 0801     		.2byte	0x108
 1974 06c7 10010000 		.4byte	0x110
 1975 06cb 17       		.uleb128 0x17
 1976 06cc 88060000 		.4byte	.LASF115
 1977 06d0 07       		.byte	0x7
 1978 06d1 0F01     		.2byte	0x10f
 1979 06d3 40030000 		.4byte	0x340
 1980 06d7 17       		.uleb128 0x17
 1981 06d8 5E010000 		.4byte	.LASF116
 1982 06dc 07       		.byte	0x7
 1983 06dd 1601     		.2byte	0x116
 1984 06df 08070000 		.4byte	0x708
 1985 06e3 17       		.uleb128 0x17
 1986 06e4 29020000 		.4byte	.LASF117
 1987 06e8 07       		.byte	0x7
 1988 06e9 1E01     		.2byte	0x11e
 1989 06eb 33070000 		.4byte	0x733
 1990 06ef 17       		.uleb128 0x17
 1991 06f0 65050000 		.4byte	.LASF118
 1992 06f4 07       		.byte	0x7
 1993 06f5 2701     		.2byte	0x127
 1994 06f7 6A070000 		.4byte	0x76a
 1995 06fb 17       		.uleb128 0x17
 1996 06fc 1A050000 		.4byte	.LASF119
 1997 0700 07       		.byte	0x7
 1998 0701 2F01     		.2byte	0x12f
 1999 0703 1B010000 		.4byte	0x11b
 2000 0707 00       		.byte	0
 2001 0708 09       		.uleb128 0x9
 2002 0709 04       		.byte	0x4
 2003 070a 58020000 		.4byte	0x258
 2004 070e 05       		.uleb128 0x5
 2005 070f 44050000 		.4byte	.LASF120
 2006 0713 0C       		.byte	0xc
 2007 0714 0D       		.byte	0xd
 2008 0715 34       		.byte	0x34
 2009 0716 33070000 		.4byte	0x733
 2010 071a 06       		.uleb128 0x6
 2011 071b 9C010000 		.4byte	.LASF121
 2012 071f 0D       		.byte	0xd
 2013 0720 35       		.byte	0x35
 2014 0721 8D020000 		.4byte	0x28d
 2015 0725 00       		.byte	0
 2016 0726 06       		.uleb128 0x6
 2017 0727 41020000 		.4byte	.LASF122
 2018 072b 0D       		.byte	0xd
 2019 072c 37       		.byte	0x37
 2020 072d 26010000 		.4byte	0x126
 2021 0731 08       		.byte	0x8
 2022 0732 00       		.byte	0
 2023 0733 09       		.uleb128 0x9
 2024 0734 04       		.byte	0x4
 2025 0735 0E070000 		.4byte	0x70e
 2026 0739 05       		.uleb128 0x5
 2027 073a 57060000 		.4byte	.LASF123
 2028 073e 10       		.byte	0x10
ARM GAS  /tmp/ccQzDHmj.s 			page 70


 2029 073f 0E       		.byte	0xe
 2030 0740 39       		.byte	0x39
 2031 0741 6A070000 		.4byte	0x76a
 2032 0745 06       		.uleb128 0x6
 2033 0746 44010000 		.4byte	.LASF124
 2034 074a 0E       		.byte	0xe
 2035 074b 3A       		.byte	0x3a
 2036 074c 8D020000 		.4byte	0x28d
 2037 0750 00       		.byte	0
 2038 0751 06       		.uleb128 0x6
 2039 0752 D9060000 		.4byte	.LASF125
 2040 0756 0E       		.byte	0xe
 2041 0757 3C       		.byte	0x3c
 2042 0758 63020000 		.4byte	0x263
 2043 075c 08       		.byte	0x8
 2044 075d 06       		.uleb128 0x6
 2045 075e C4050000 		.4byte	.LASF126
 2046 0762 0E       		.byte	0xe
 2047 0763 3E       		.byte	0x3e
 2048 0764 AE070000 		.4byte	0x7ae
 2049 0768 0C       		.byte	0xc
 2050 0769 00       		.byte	0
 2051 076a 09       		.uleb128 0x9
 2052 076b 04       		.byte	0x4
 2053 076c 39070000 		.4byte	0x739
 2054 0770 09       		.uleb128 0x9
 2055 0771 04       		.byte	0x4
 2056 0772 76070000 		.4byte	0x776
 2057 0776 18       		.uleb128 0x18
 2058 0777 7B070000 		.4byte	0x77b
 2059 077b 04       		.uleb128 0x4
 2060 077c 01       		.byte	0x1
 2061 077d 08       		.byte	0x8
 2062 077e B1050000 		.4byte	.LASF127
 2063 0782 09       		.uleb128 0x9
 2064 0783 04       		.byte	0x4
 2065 0784 C1040000 		.4byte	0x4c1
 2066 0788 09       		.uleb128 0x9
 2067 0789 04       		.byte	0x4
 2068 078a 42030000 		.4byte	0x342
 2069 078e 19       		.uleb128 0x19
 2070 078f 70070000 		.4byte	0x770
 2071 0793 14       		.uleb128 0x14
 2072 0794 C1040000 		.4byte	0x4c1
 2073 0798 A3070000 		.4byte	0x7a3
 2074 079c 15       		.uleb128 0x15
 2075 079d AF040000 		.4byte	0x4af
 2076 07a1 1E       		.byte	0x1e
 2077 07a2 00       		.byte	0
 2078 07a3 03       		.uleb128 0x3
 2079 07a4 E3010000 		.4byte	.LASF128
 2080 07a8 0E       		.byte	0xe
 2081 07a9 34       		.byte	0x34
 2082 07aa 39070000 		.4byte	0x739
 2083 07ae 09       		.uleb128 0x9
 2084 07af 04       		.byte	0x4
 2085 07b0 A3070000 		.4byte	0x7a3
ARM GAS  /tmp/ccQzDHmj.s 			page 71


 2086 07b4 03       		.uleb128 0x3
 2087 07b5 26060000 		.4byte	.LASF129
 2088 07b9 0F       		.byte	0xf
 2089 07ba 34       		.byte	0x34
 2090 07bb BF070000 		.4byte	0x7bf
 2091 07bf 09       		.uleb128 0x9
 2092 07c0 04       		.byte	0x4
 2093 07c1 C5070000 		.4byte	0x7c5
 2094 07c5 1A       		.uleb128 0x1a
 2095 07c6 40030000 		.4byte	0x340
 2096 07ca D4070000 		.4byte	0x7d4
 2097 07ce 0C       		.uleb128 0xc
 2098 07cf 2C000000 		.4byte	0x2c
 2099 07d3 00       		.byte	0
 2100 07d4 03       		.uleb128 0x3
 2101 07d5 80010000 		.4byte	.LASF130
 2102 07d9 10       		.byte	0x10
 2103 07da 3C       		.byte	0x3c
 2104 07db DF070000 		.4byte	0x7df
 2105 07df 05       		.uleb128 0x5
 2106 07e0 F9060000 		.4byte	.LASF131
 2107 07e4 20       		.byte	0x20
 2108 07e5 10       		.byte	0x10
 2109 07e6 4F       		.byte	0x4f
 2110 07e7 10080000 		.4byte	0x810
 2111 07eb 06       		.uleb128 0x6
 2112 07ec 7D060000 		.4byte	.LASF132
 2113 07f0 10       		.byte	0x10
 2114 07f1 50       		.byte	0x50
 2115 07f2 B4070000 		.4byte	0x7b4
 2116 07f6 00       		.byte	0
 2117 07f7 06       		.uleb128 0x6
 2118 07f8 C8000000 		.4byte	.LASF133
 2119 07fc 10       		.byte	0x10
 2120 07fd 52       		.byte	0x52
 2121 07fe 2F080000 		.4byte	0x82f
 2122 0802 08       		.byte	0x8
 2123 0803 06       		.uleb128 0x6
 2124 0804 28010000 		.4byte	.LASF134
 2125 0808 10       		.byte	0x10
 2126 0809 54       		.byte	0x54
 2127 080a A3070000 		.4byte	0x7a3
 2128 080e 10       		.byte	0x10
 2129 080f 00       		.byte	0
 2130 0810 16       		.uleb128 0x16
 2131 0811 04       		.byte	0x4
 2132 0812 10       		.byte	0x10
 2133 0813 44       		.byte	0x44
 2134 0814 2F080000 		.4byte	0x82f
 2135 0818 1B       		.uleb128 0x1b
 2136 0819 1C000000 		.4byte	.LASF135
 2137 081d 10       		.byte	0x10
 2138 081e 45       		.byte	0x45
 2139 081f 50080000 		.4byte	0x850
 2140 0823 1B       		.uleb128 0x1b
 2141 0824 8D050000 		.4byte	.LASF136
 2142 0828 10       		.byte	0x10
ARM GAS  /tmp/ccQzDHmj.s 			page 72


 2143 0829 46       		.byte	0x46
 2144 082a 56080000 		.4byte	0x856
 2145 082e 00       		.byte	0
 2146 082f 1C       		.uleb128 0x1c
 2147 0830 CC040000 		.4byte	.LASF152
 2148 0834 08       		.byte	0x8
 2149 0835 10       		.byte	0x10
 2150 0836 41       		.byte	0x41
 2151 0837 50080000 		.4byte	0x850
 2152 083b 1B       		.uleb128 0x1b
 2153 083c F8000000 		.4byte	.LASF137
 2154 0840 10       		.byte	0x10
 2155 0841 42       		.byte	0x42
 2156 0842 C1040000 		.4byte	0x4c1
 2157 0846 1D       		.uleb128 0x1d
 2158 0847 6800     		.ascii	"h\000"
 2159 0849 10       		.byte	0x10
 2160 084a 49       		.byte	0x49
 2161 084b 5C080000 		.4byte	0x85c
 2162 084f 00       		.byte	0
 2163 0850 09       		.uleb128 0x9
 2164 0851 04       		.byte	0x4
 2165 0852 2F080000 		.4byte	0x82f
 2166 0856 09       		.uleb128 0x9
 2167 0857 04       		.byte	0x4
 2168 0858 D4070000 		.4byte	0x7d4
 2169 085c 12       		.uleb128 0x12
 2170 085d 08       		.byte	0x8
 2171 085e 10       		.byte	0x10
 2172 085f 43       		.byte	0x43
 2173 0860 7B080000 		.4byte	0x87b
 2174 0864 11       		.uleb128 0x11
 2175 0865 7500     		.ascii	"u\000"
 2176 0867 10       		.byte	0x10
 2177 0868 47       		.byte	0x47
 2178 0869 10080000 		.4byte	0x810
 2179 086d 00       		.byte	0
 2180 086e 06       		.uleb128 0x6
 2181 086f 9C060000 		.4byte	.LASF138
 2182 0873 10       		.byte	0x10
 2183 0874 48       		.byte	0x48
 2184 0875 2C000000 		.4byte	0x2c
 2185 0879 04       		.byte	0x4
 2186 087a 00       		.byte	0
 2187 087b 1E       		.uleb128 0x1e
 2188 087c BD060000 		.4byte	.LASF153
 2189 0880 01       		.byte	0x1
 2190 0881 5B       		.byte	0x5b
 2191 0882 00000000 		.4byte	.LFB241
 2192 0886 38000000 		.4byte	.LFE241-.LFB241
 2193 088a 01       		.uleb128 0x1
 2194 088b 9C       		.byte	0x9c
 2195 088c 1F       		.uleb128 0x1f
 2196 088d C5030000 		.4byte	.LASF140
 2197 0891 01       		.byte	0x1
 2198 0892 72       		.byte	0x72
 2199 0893 00000000 		.4byte	.LFB242
ARM GAS  /tmp/ccQzDHmj.s 			page 73


 2200 0897 60000000 		.4byte	.LFE242-.LFB242
 2201 089b 01       		.uleb128 0x1
 2202 089c 9C       		.byte	0x9c
 2203 089d E8080000 		.4byte	0x8e8
 2204 08a1 20       		.uleb128 0x20
 2205 08a2 F2000000 		.4byte	.LASF139
 2206 08a6 01       		.byte	0x1
 2207 08a7 72       		.byte	0x72
 2208 08a8 56080000 		.4byte	0x856
 2209 08ac 02       		.uleb128 0x2
 2210 08ad 91       		.byte	0x91
 2211 08ae 6C       		.sleb128 -20
 2212 08af 21       		.uleb128 0x21
 2213 08b0 62756600 		.ascii	"buf\000"
 2214 08b4 01       		.byte	0x1
 2215 08b5 72       		.byte	0x72
 2216 08b6 40030000 		.4byte	0x340
 2217 08ba 02       		.uleb128 0x2
 2218 08bb 91       		.byte	0x91
 2219 08bc 68       		.sleb128 -24
 2220 08bd 20       		.uleb128 0x20
 2221 08be 9C060000 		.4byte	.LASF138
 2222 08c2 01       		.byte	0x1
 2223 08c3 72       		.byte	0x72
 2224 08c4 2C000000 		.4byte	0x2c
 2225 08c8 02       		.uleb128 0x2
 2226 08c9 91       		.byte	0x91
 2227 08ca 64       		.sleb128 -28
 2228 08cb 22       		.uleb128 0x22
 2229 08cc 687000   		.ascii	"hp\000"
 2230 08cf 01       		.byte	0x1
 2231 08d0 73       		.byte	0x73
 2232 08d1 50080000 		.4byte	0x850
 2233 08d5 02       		.uleb128 0x2
 2234 08d6 91       		.byte	0x91
 2235 08d7 74       		.sleb128 -12
 2236 08d8 23       		.uleb128 0x23
 2237 08d9 2E010000 		.4byte	.LASF142
 2238 08dd F8080000 		.4byte	0x8f8
 2239 08e1 05       		.uleb128 0x5
 2240 08e2 03       		.byte	0x3
 2241 08e3 00000000 		.4byte	__func__.6620
 2242 08e7 00       		.byte	0
 2243 08e8 14       		.uleb128 0x14
 2244 08e9 7B070000 		.4byte	0x77b
 2245 08ed F8080000 		.4byte	0x8f8
 2246 08f1 15       		.uleb128 0x15
 2247 08f2 AF040000 		.4byte	0x4af
 2248 08f6 10       		.byte	0x10
 2249 08f7 00       		.byte	0
 2250 08f8 18       		.uleb128 0x18
 2251 08f9 E8080000 		.4byte	0x8e8
 2252 08fd 24       		.uleb128 0x24
 2253 08fe 38050000 		.4byte	.LASF144
 2254 0902 01       		.byte	0x1
 2255 0903 93       		.byte	0x93
 2256 0904 40030000 		.4byte	0x340
ARM GAS  /tmp/ccQzDHmj.s 			page 74


 2257 0908 00000000 		.4byte	.LFB243
 2258 090c F0000000 		.4byte	.LFE243-.LFB243
 2259 0910 01       		.uleb128 0x1
 2260 0911 9C       		.byte	0x9c
 2261 0912 5A090000 		.4byte	0x95a
 2262 0916 20       		.uleb128 0x20
 2263 0917 F2000000 		.4byte	.LASF139
 2264 091b 01       		.byte	0x1
 2265 091c 93       		.byte	0x93
 2266 091d 56080000 		.4byte	0x856
 2267 0921 02       		.uleb128 0x2
 2268 0922 91       		.byte	0x91
 2269 0923 64       		.sleb128 -28
 2270 0924 20       		.uleb128 0x20
 2271 0925 9C060000 		.4byte	.LASF138
 2272 0929 01       		.byte	0x1
 2273 092a 93       		.byte	0x93
 2274 092b 2C000000 		.4byte	0x2c
 2275 092f 02       		.uleb128 0x2
 2276 0930 91       		.byte	0x91
 2277 0931 60       		.sleb128 -32
 2278 0932 22       		.uleb128 0x22
 2279 0933 717000   		.ascii	"qp\000"
 2280 0936 01       		.byte	0x1
 2281 0937 94       		.byte	0x94
 2282 0938 50080000 		.4byte	0x850
 2283 093c 02       		.uleb128 0x2
 2284 093d 91       		.byte	0x91
 2285 093e 74       		.sleb128 -12
 2286 093f 22       		.uleb128 0x22
 2287 0940 687000   		.ascii	"hp\000"
 2288 0943 01       		.byte	0x1
 2289 0944 94       		.byte	0x94
 2290 0945 50080000 		.4byte	0x850
 2291 0949 02       		.uleb128 0x2
 2292 094a 91       		.byte	0x91
 2293 094b 70       		.sleb128 -16
 2294 094c 22       		.uleb128 0x22
 2295 094d 667000   		.ascii	"fp\000"
 2296 0950 01       		.byte	0x1
 2297 0951 94       		.byte	0x94
 2298 0952 50080000 		.4byte	0x850
 2299 0956 02       		.uleb128 0x2
 2300 0957 91       		.byte	0x91
 2301 0958 6C       		.sleb128 -20
 2302 0959 00       		.byte	0
 2303 095a 1F       		.uleb128 0x1f
 2304 095b 4C010000 		.4byte	.LASF141
 2305 095f 01       		.byte	0x1
 2306 0960 D5       		.byte	0xd5
 2307 0961 00000000 		.4byte	.LFB244
 2308 0965 04010000 		.4byte	.LFE244-.LFB244
 2309 0969 01       		.uleb128 0x1
 2310 096a 9C       		.byte	0x9c
 2311 096b B3090000 		.4byte	0x9b3
 2312 096f 21       		.uleb128 0x21
 2313 0970 7000     		.ascii	"p\000"
ARM GAS  /tmp/ccQzDHmj.s 			page 75


 2314 0972 01       		.byte	0x1
 2315 0973 D5       		.byte	0xd5
 2316 0974 40030000 		.4byte	0x340
 2317 0978 02       		.uleb128 0x2
 2318 0979 91       		.byte	0x91
 2319 097a 64       		.sleb128 -28
 2320 097b 22       		.uleb128 0x22
 2321 097c 717000   		.ascii	"qp\000"
 2322 097f 01       		.byte	0x1
 2323 0980 D6       		.byte	0xd6
 2324 0981 50080000 		.4byte	0x850
 2325 0985 02       		.uleb128 0x2
 2326 0986 91       		.byte	0x91
 2327 0987 74       		.sleb128 -12
 2328 0988 22       		.uleb128 0x22
 2329 0989 687000   		.ascii	"hp\000"
 2330 098c 01       		.byte	0x1
 2331 098d D6       		.byte	0xd6
 2332 098e 50080000 		.4byte	0x850
 2333 0992 02       		.uleb128 0x2
 2334 0993 91       		.byte	0x91
 2335 0994 70       		.sleb128 -16
 2336 0995 25       		.uleb128 0x25
 2337 0996 F2000000 		.4byte	.LASF139
 2338 099a 01       		.byte	0x1
 2339 099b D7       		.byte	0xd7
 2340 099c 56080000 		.4byte	0x856
 2341 09a0 02       		.uleb128 0x2
 2342 09a1 91       		.byte	0x91
 2343 09a2 6C       		.sleb128 -20
 2344 09a3 23       		.uleb128 0x23
 2345 09a4 D5010000 		.4byte	.LASF143
 2346 09a8 C3090000 		.4byte	0x9c3
 2347 09ac 05       		.uleb128 0x5
 2348 09ad 03       		.byte	0x3
 2349 09ae 00000000 		.4byte	__func__.6637
 2350 09b2 00       		.byte	0
 2351 09b3 14       		.uleb128 0x14
 2352 09b4 7B070000 		.4byte	0x77b
 2353 09b8 C3090000 		.4byte	0x9c3
 2354 09bc 15       		.uleb128 0x15
 2355 09bd AF040000 		.4byte	0x4af
 2356 09c1 0A       		.byte	0xa
 2357 09c2 00       		.byte	0
 2358 09c3 18       		.uleb128 0x18
 2359 09c4 B3090000 		.4byte	0x9b3
 2360 09c8 26       		.uleb128 0x26
 2361 09c9 3A060000 		.4byte	.LASF145
 2362 09cd 01       		.byte	0x1
 2363 09ce 0B01     		.2byte	0x10b
 2364 09d0 2C000000 		.4byte	0x2c
 2365 09d4 00000000 		.4byte	.LFB245
 2366 09d8 72000000 		.4byte	.LFE245-.LFB245
 2367 09dc 01       		.uleb128 0x1
 2368 09dd 9C       		.byte	0x9c
 2369 09de 2A0A0000 		.4byte	0xa2a
 2370 09e2 27       		.uleb128 0x27
ARM GAS  /tmp/ccQzDHmj.s 			page 76


 2371 09e3 F2000000 		.4byte	.LASF139
 2372 09e7 01       		.byte	0x1
 2373 09e8 0B01     		.2byte	0x10b
 2374 09ea 56080000 		.4byte	0x856
 2375 09ee 02       		.uleb128 0x2
 2376 09ef 91       		.byte	0x91
 2377 09f0 64       		.sleb128 -28
 2378 09f1 27       		.uleb128 0x27
 2379 09f2 8F060000 		.4byte	.LASF146
 2380 09f6 01       		.byte	0x1
 2381 09f7 0B01     		.2byte	0x10b
 2382 09f9 2A0A0000 		.4byte	0xa2a
 2383 09fd 02       		.uleb128 0x2
 2384 09fe 91       		.byte	0x91
 2385 09ff 60       		.sleb128 -32
 2386 0a00 28       		.uleb128 0x28
 2387 0a01 717000   		.ascii	"qp\000"
 2388 0a04 01       		.byte	0x1
 2389 0a05 0C01     		.2byte	0x10c
 2390 0a07 50080000 		.4byte	0x850
 2391 0a0b 02       		.uleb128 0x2
 2392 0a0c 91       		.byte	0x91
 2393 0a0d 74       		.sleb128 -12
 2394 0a0e 28       		.uleb128 0x28
 2395 0a0f 6E00     		.ascii	"n\000"
 2396 0a11 01       		.byte	0x1
 2397 0a12 0D01     		.2byte	0x10d
 2398 0a14 2C000000 		.4byte	0x2c
 2399 0a18 02       		.uleb128 0x2
 2400 0a19 91       		.byte	0x91
 2401 0a1a 70       		.sleb128 -16
 2402 0a1b 28       		.uleb128 0x28
 2403 0a1c 737A00   		.ascii	"sz\000"
 2404 0a1f 01       		.byte	0x1
 2405 0a20 0D01     		.2byte	0x10d
 2406 0a22 2C000000 		.4byte	0x2c
 2407 0a26 02       		.uleb128 0x2
 2408 0a27 91       		.byte	0x91
 2409 0a28 6C       		.sleb128 -20
 2410 0a29 00       		.byte	0
 2411 0a2a 09       		.uleb128 0x9
 2412 0a2b 04       		.byte	0x4
 2413 0a2c 2C000000 		.4byte	0x2c
 2414 0a30 25       		.uleb128 0x25
 2415 0a31 A4050000 		.4byte	.LASF147
 2416 0a35 01       		.byte	0x1
 2417 0a36 4C       		.byte	0x4c
 2418 0a37 D4070000 		.4byte	0x7d4
 2419 0a3b 05       		.uleb128 0x5
 2420 0a3c 03       		.byte	0x3
 2421 0a3d 00000000 		.4byte	default_heap
 2422 0a41 29       		.uleb128 0x29
 2423 0a42 E5000000 		.4byte	.LASF148
 2424 0a46 11       		.byte	0x11
 2425 0a47 FA06     		.2byte	0x6fa
 2426 0a49 4D0A0000 		.4byte	0xa4d
 2427 0a4d 19       		.uleb128 0x19
ARM GAS  /tmp/ccQzDHmj.s 			page 77


 2428 0a4e AD000000 		.4byte	0xad
 2429 0a52 2A       		.uleb128 0x2a
 2430 0a53 636800   		.ascii	"ch\000"
 2431 0a56 07       		.byte	0x7
 2432 0a57 0902     		.2byte	0x209
 2433 0a59 37040000 		.4byte	0x437
 2434 0a5d 00       		.byte	0
 2435              		.section	.debug_abbrev,"",%progbits
 2436              	.Ldebug_abbrev0:
 2437 0000 01       		.uleb128 0x1
 2438 0001 11       		.uleb128 0x11
 2439 0002 01       		.byte	0x1
 2440 0003 25       		.uleb128 0x25
 2441 0004 0E       		.uleb128 0xe
 2442 0005 13       		.uleb128 0x13
 2443 0006 0B       		.uleb128 0xb
 2444 0007 03       		.uleb128 0x3
 2445 0008 0E       		.uleb128 0xe
 2446 0009 1B       		.uleb128 0x1b
 2447 000a 0E       		.uleb128 0xe
 2448 000b 55       		.uleb128 0x55
 2449 000c 17       		.uleb128 0x17
 2450 000d 11       		.uleb128 0x11
 2451 000e 01       		.uleb128 0x1
 2452 000f 10       		.uleb128 0x10
 2453 0010 17       		.uleb128 0x17
 2454 0011 00       		.byte	0
 2455 0012 00       		.byte	0
 2456 0013 02       		.uleb128 0x2
 2457 0014 24       		.uleb128 0x24
 2458 0015 00       		.byte	0
 2459 0016 0B       		.uleb128 0xb
 2460 0017 0B       		.uleb128 0xb
 2461 0018 3E       		.uleb128 0x3e
 2462 0019 0B       		.uleb128 0xb
 2463 001a 03       		.uleb128 0x3
 2464 001b 08       		.uleb128 0x8
 2465 001c 00       		.byte	0
 2466 001d 00       		.byte	0
 2467 001e 03       		.uleb128 0x3
 2468 001f 16       		.uleb128 0x16
 2469 0020 00       		.byte	0
 2470 0021 03       		.uleb128 0x3
 2471 0022 0E       		.uleb128 0xe
 2472 0023 3A       		.uleb128 0x3a
 2473 0024 0B       		.uleb128 0xb
 2474 0025 3B       		.uleb128 0x3b
 2475 0026 0B       		.uleb128 0xb
 2476 0027 49       		.uleb128 0x49
 2477 0028 13       		.uleb128 0x13
 2478 0029 00       		.byte	0
 2479 002a 00       		.byte	0
 2480 002b 04       		.uleb128 0x4
 2481 002c 24       		.uleb128 0x24
 2482 002d 00       		.byte	0
 2483 002e 0B       		.uleb128 0xb
 2484 002f 0B       		.uleb128 0xb
ARM GAS  /tmp/ccQzDHmj.s 			page 78


 2485 0030 3E       		.uleb128 0x3e
 2486 0031 0B       		.uleb128 0xb
 2487 0032 03       		.uleb128 0x3
 2488 0033 0E       		.uleb128 0xe
 2489 0034 00       		.byte	0
 2490 0035 00       		.byte	0
 2491 0036 05       		.uleb128 0x5
 2492 0037 13       		.uleb128 0x13
 2493 0038 01       		.byte	0x1
 2494 0039 03       		.uleb128 0x3
 2495 003a 0E       		.uleb128 0xe
 2496 003b 0B       		.uleb128 0xb
 2497 003c 0B       		.uleb128 0xb
 2498 003d 3A       		.uleb128 0x3a
 2499 003e 0B       		.uleb128 0xb
 2500 003f 3B       		.uleb128 0x3b
 2501 0040 0B       		.uleb128 0xb
 2502 0041 01       		.uleb128 0x1
 2503 0042 13       		.uleb128 0x13
 2504 0043 00       		.byte	0
 2505 0044 00       		.byte	0
 2506 0045 06       		.uleb128 0x6
 2507 0046 0D       		.uleb128 0xd
 2508 0047 00       		.byte	0
 2509 0048 03       		.uleb128 0x3
 2510 0049 0E       		.uleb128 0xe
 2511 004a 3A       		.uleb128 0x3a
 2512 004b 0B       		.uleb128 0xb
 2513 004c 3B       		.uleb128 0x3b
 2514 004d 0B       		.uleb128 0xb
 2515 004e 49       		.uleb128 0x49
 2516 004f 13       		.uleb128 0x13
 2517 0050 38       		.uleb128 0x38
 2518 0051 0B       		.uleb128 0xb
 2519 0052 00       		.byte	0
 2520 0053 00       		.byte	0
 2521 0054 07       		.uleb128 0x7
 2522 0055 0D       		.uleb128 0xd
 2523 0056 00       		.byte	0
 2524 0057 03       		.uleb128 0x3
 2525 0058 08       		.uleb128 0x8
 2526 0059 3A       		.uleb128 0x3a
 2527 005a 0B       		.uleb128 0xb
 2528 005b 3B       		.uleb128 0x3b
 2529 005c 05       		.uleb128 0x5
 2530 005d 49       		.uleb128 0x49
 2531 005e 13       		.uleb128 0x13
 2532 005f 38       		.uleb128 0x38
 2533 0060 0B       		.uleb128 0xb
 2534 0061 00       		.byte	0
 2535 0062 00       		.byte	0
 2536 0063 08       		.uleb128 0x8
 2537 0064 0D       		.uleb128 0xd
 2538 0065 00       		.byte	0
 2539 0066 03       		.uleb128 0x3
 2540 0067 0E       		.uleb128 0xe
 2541 0068 3A       		.uleb128 0x3a
ARM GAS  /tmp/ccQzDHmj.s 			page 79


 2542 0069 0B       		.uleb128 0xb
 2543 006a 3B       		.uleb128 0x3b
 2544 006b 05       		.uleb128 0x5
 2545 006c 49       		.uleb128 0x49
 2546 006d 13       		.uleb128 0x13
 2547 006e 38       		.uleb128 0x38
 2548 006f 0B       		.uleb128 0xb
 2549 0070 00       		.byte	0
 2550 0071 00       		.byte	0
 2551 0072 09       		.uleb128 0x9
 2552 0073 0F       		.uleb128 0xf
 2553 0074 00       		.byte	0
 2554 0075 0B       		.uleb128 0xb
 2555 0076 0B       		.uleb128 0xb
 2556 0077 49       		.uleb128 0x49
 2557 0078 13       		.uleb128 0x13
 2558 0079 00       		.byte	0
 2559 007a 00       		.byte	0
 2560 007b 0A       		.uleb128 0xa
 2561 007c 13       		.uleb128 0x13
 2562 007d 01       		.byte	0x1
 2563 007e 03       		.uleb128 0x3
 2564 007f 0E       		.uleb128 0xe
 2565 0080 0B       		.uleb128 0xb
 2566 0081 0B       		.uleb128 0xb
 2567 0082 3A       		.uleb128 0x3a
 2568 0083 0B       		.uleb128 0xb
 2569 0084 3B       		.uleb128 0x3b
 2570 0085 05       		.uleb128 0x5
 2571 0086 01       		.uleb128 0x1
 2572 0087 13       		.uleb128 0x13
 2573 0088 00       		.byte	0
 2574 0089 00       		.byte	0
 2575 008a 0B       		.uleb128 0xb
 2576 008b 15       		.uleb128 0x15
 2577 008c 01       		.byte	0x1
 2578 008d 27       		.uleb128 0x27
 2579 008e 19       		.uleb128 0x19
 2580 008f 01       		.uleb128 0x1
 2581 0090 13       		.uleb128 0x13
 2582 0091 00       		.byte	0
 2583 0092 00       		.byte	0
 2584 0093 0C       		.uleb128 0xc
 2585 0094 05       		.uleb128 0x5
 2586 0095 00       		.byte	0
 2587 0096 49       		.uleb128 0x49
 2588 0097 13       		.uleb128 0x13
 2589 0098 00       		.byte	0
 2590 0099 00       		.byte	0
 2591 009a 0D       		.uleb128 0xd
 2592 009b 0F       		.uleb128 0xf
 2593 009c 00       		.byte	0
 2594 009d 0B       		.uleb128 0xb
 2595 009e 0B       		.uleb128 0xb
 2596 009f 00       		.byte	0
 2597 00a0 00       		.byte	0
 2598 00a1 0E       		.uleb128 0xe
ARM GAS  /tmp/ccQzDHmj.s 			page 80


 2599 00a2 13       		.uleb128 0x13
 2600 00a3 01       		.byte	0x1
 2601 00a4 03       		.uleb128 0x3
 2602 00a5 0E       		.uleb128 0xe
 2603 00a6 0B       		.uleb128 0xb
 2604 00a7 05       		.uleb128 0x5
 2605 00a8 3A       		.uleb128 0x3a
 2606 00a9 0B       		.uleb128 0xb
 2607 00aa 3B       		.uleb128 0x3b
 2608 00ab 05       		.uleb128 0x5
 2609 00ac 01       		.uleb128 0x1
 2610 00ad 13       		.uleb128 0x13
 2611 00ae 00       		.byte	0
 2612 00af 00       		.byte	0
 2613 00b0 0F       		.uleb128 0xf
 2614 00b1 0D       		.uleb128 0xd
 2615 00b2 00       		.byte	0
 2616 00b3 03       		.uleb128 0x3
 2617 00b4 0E       		.uleb128 0xe
 2618 00b5 3A       		.uleb128 0x3a
 2619 00b6 0B       		.uleb128 0xb
 2620 00b7 3B       		.uleb128 0x3b
 2621 00b8 05       		.uleb128 0x5
 2622 00b9 49       		.uleb128 0x49
 2623 00ba 13       		.uleb128 0x13
 2624 00bb 38       		.uleb128 0x38
 2625 00bc 05       		.uleb128 0x5
 2626 00bd 00       		.byte	0
 2627 00be 00       		.byte	0
 2628 00bf 10       		.uleb128 0x10
 2629 00c0 0D       		.uleb128 0xd
 2630 00c1 00       		.byte	0
 2631 00c2 03       		.uleb128 0x3
 2632 00c3 08       		.uleb128 0x8
 2633 00c4 3A       		.uleb128 0x3a
 2634 00c5 0B       		.uleb128 0xb
 2635 00c6 3B       		.uleb128 0x3b
 2636 00c7 05       		.uleb128 0x5
 2637 00c8 49       		.uleb128 0x49
 2638 00c9 13       		.uleb128 0x13
 2639 00ca 38       		.uleb128 0x38
 2640 00cb 05       		.uleb128 0x5
 2641 00cc 00       		.byte	0
 2642 00cd 00       		.byte	0
 2643 00ce 11       		.uleb128 0x11
 2644 00cf 0D       		.uleb128 0xd
 2645 00d0 00       		.byte	0
 2646 00d1 03       		.uleb128 0x3
 2647 00d2 08       		.uleb128 0x8
 2648 00d3 3A       		.uleb128 0x3a
 2649 00d4 0B       		.uleb128 0xb
 2650 00d5 3B       		.uleb128 0x3b
 2651 00d6 0B       		.uleb128 0xb
 2652 00d7 49       		.uleb128 0x49
 2653 00d8 13       		.uleb128 0x13
 2654 00d9 38       		.uleb128 0x38
 2655 00da 0B       		.uleb128 0xb
ARM GAS  /tmp/ccQzDHmj.s 			page 81


 2656 00db 00       		.byte	0
 2657 00dc 00       		.byte	0
 2658 00dd 12       		.uleb128 0x12
 2659 00de 13       		.uleb128 0x13
 2660 00df 01       		.byte	0x1
 2661 00e0 0B       		.uleb128 0xb
 2662 00e1 0B       		.uleb128 0xb
 2663 00e2 3A       		.uleb128 0x3a
 2664 00e3 0B       		.uleb128 0xb
 2665 00e4 3B       		.uleb128 0x3b
 2666 00e5 0B       		.uleb128 0xb
 2667 00e6 01       		.uleb128 0x1
 2668 00e7 13       		.uleb128 0x13
 2669 00e8 00       		.byte	0
 2670 00e9 00       		.byte	0
 2671 00ea 13       		.uleb128 0x13
 2672 00eb 13       		.uleb128 0x13
 2673 00ec 01       		.byte	0x1
 2674 00ed 0B       		.uleb128 0xb
 2675 00ee 05       		.uleb128 0x5
 2676 00ef 3A       		.uleb128 0x3a
 2677 00f0 0B       		.uleb128 0xb
 2678 00f1 3B       		.uleb128 0x3b
 2679 00f2 0B       		.uleb128 0xb
 2680 00f3 01       		.uleb128 0x1
 2681 00f4 13       		.uleb128 0x13
 2682 00f5 00       		.byte	0
 2683 00f6 00       		.byte	0
 2684 00f7 14       		.uleb128 0x14
 2685 00f8 01       		.uleb128 0x1
 2686 00f9 01       		.byte	0x1
 2687 00fa 49       		.uleb128 0x49
 2688 00fb 13       		.uleb128 0x13
 2689 00fc 01       		.uleb128 0x1
 2690 00fd 13       		.uleb128 0x13
 2691 00fe 00       		.byte	0
 2692 00ff 00       		.byte	0
 2693 0100 15       		.uleb128 0x15
 2694 0101 21       		.uleb128 0x21
 2695 0102 00       		.byte	0
 2696 0103 49       		.uleb128 0x49
 2697 0104 13       		.uleb128 0x13
 2698 0105 2F       		.uleb128 0x2f
 2699 0106 0B       		.uleb128 0xb
 2700 0107 00       		.byte	0
 2701 0108 00       		.byte	0
 2702 0109 16       		.uleb128 0x16
 2703 010a 17       		.uleb128 0x17
 2704 010b 01       		.byte	0x1
 2705 010c 0B       		.uleb128 0xb
 2706 010d 0B       		.uleb128 0xb
 2707 010e 3A       		.uleb128 0x3a
 2708 010f 0B       		.uleb128 0xb
 2709 0110 3B       		.uleb128 0x3b
 2710 0111 0B       		.uleb128 0xb
 2711 0112 01       		.uleb128 0x1
 2712 0113 13       		.uleb128 0x13
ARM GAS  /tmp/ccQzDHmj.s 			page 82


 2713 0114 00       		.byte	0
 2714 0115 00       		.byte	0
 2715 0116 17       		.uleb128 0x17
 2716 0117 0D       		.uleb128 0xd
 2717 0118 00       		.byte	0
 2718 0119 03       		.uleb128 0x3
 2719 011a 0E       		.uleb128 0xe
 2720 011b 3A       		.uleb128 0x3a
 2721 011c 0B       		.uleb128 0xb
 2722 011d 3B       		.uleb128 0x3b
 2723 011e 05       		.uleb128 0x5
 2724 011f 49       		.uleb128 0x49
 2725 0120 13       		.uleb128 0x13
 2726 0121 00       		.byte	0
 2727 0122 00       		.byte	0
 2728 0123 18       		.uleb128 0x18
 2729 0124 26       		.uleb128 0x26
 2730 0125 00       		.byte	0
 2731 0126 49       		.uleb128 0x49
 2732 0127 13       		.uleb128 0x13
 2733 0128 00       		.byte	0
 2734 0129 00       		.byte	0
 2735 012a 19       		.uleb128 0x19
 2736 012b 35       		.uleb128 0x35
 2737 012c 00       		.byte	0
 2738 012d 49       		.uleb128 0x49
 2739 012e 13       		.uleb128 0x13
 2740 012f 00       		.byte	0
 2741 0130 00       		.byte	0
 2742 0131 1A       		.uleb128 0x1a
 2743 0132 15       		.uleb128 0x15
 2744 0133 01       		.byte	0x1
 2745 0134 27       		.uleb128 0x27
 2746 0135 19       		.uleb128 0x19
 2747 0136 49       		.uleb128 0x49
 2748 0137 13       		.uleb128 0x13
 2749 0138 01       		.uleb128 0x1
 2750 0139 13       		.uleb128 0x13
 2751 013a 00       		.byte	0
 2752 013b 00       		.byte	0
 2753 013c 1B       		.uleb128 0x1b
 2754 013d 0D       		.uleb128 0xd
 2755 013e 00       		.byte	0
 2756 013f 03       		.uleb128 0x3
 2757 0140 0E       		.uleb128 0xe
 2758 0141 3A       		.uleb128 0x3a
 2759 0142 0B       		.uleb128 0xb
 2760 0143 3B       		.uleb128 0x3b
 2761 0144 0B       		.uleb128 0xb
 2762 0145 49       		.uleb128 0x49
 2763 0146 13       		.uleb128 0x13
 2764 0147 00       		.byte	0
 2765 0148 00       		.byte	0
 2766 0149 1C       		.uleb128 0x1c
 2767 014a 17       		.uleb128 0x17
 2768 014b 01       		.byte	0x1
 2769 014c 03       		.uleb128 0x3
ARM GAS  /tmp/ccQzDHmj.s 			page 83


 2770 014d 0E       		.uleb128 0xe
 2771 014e 0B       		.uleb128 0xb
 2772 014f 0B       		.uleb128 0xb
 2773 0150 3A       		.uleb128 0x3a
 2774 0151 0B       		.uleb128 0xb
 2775 0152 3B       		.uleb128 0x3b
 2776 0153 0B       		.uleb128 0xb
 2777 0154 01       		.uleb128 0x1
 2778 0155 13       		.uleb128 0x13
 2779 0156 00       		.byte	0
 2780 0157 00       		.byte	0
 2781 0158 1D       		.uleb128 0x1d
 2782 0159 0D       		.uleb128 0xd
 2783 015a 00       		.byte	0
 2784 015b 03       		.uleb128 0x3
 2785 015c 08       		.uleb128 0x8
 2786 015d 3A       		.uleb128 0x3a
 2787 015e 0B       		.uleb128 0xb
 2788 015f 3B       		.uleb128 0x3b
 2789 0160 0B       		.uleb128 0xb
 2790 0161 49       		.uleb128 0x49
 2791 0162 13       		.uleb128 0x13
 2792 0163 00       		.byte	0
 2793 0164 00       		.byte	0
 2794 0165 1E       		.uleb128 0x1e
 2795 0166 2E       		.uleb128 0x2e
 2796 0167 00       		.byte	0
 2797 0168 3F       		.uleb128 0x3f
 2798 0169 19       		.uleb128 0x19
 2799 016a 03       		.uleb128 0x3
 2800 016b 0E       		.uleb128 0xe
 2801 016c 3A       		.uleb128 0x3a
 2802 016d 0B       		.uleb128 0xb
 2803 016e 3B       		.uleb128 0x3b
 2804 016f 0B       		.uleb128 0xb
 2805 0170 27       		.uleb128 0x27
 2806 0171 19       		.uleb128 0x19
 2807 0172 11       		.uleb128 0x11
 2808 0173 01       		.uleb128 0x1
 2809 0174 12       		.uleb128 0x12
 2810 0175 06       		.uleb128 0x6
 2811 0176 40       		.uleb128 0x40
 2812 0177 18       		.uleb128 0x18
 2813 0178 9642     		.uleb128 0x2116
 2814 017a 19       		.uleb128 0x19
 2815 017b 00       		.byte	0
 2816 017c 00       		.byte	0
 2817 017d 1F       		.uleb128 0x1f
 2818 017e 2E       		.uleb128 0x2e
 2819 017f 01       		.byte	0x1
 2820 0180 3F       		.uleb128 0x3f
 2821 0181 19       		.uleb128 0x19
 2822 0182 03       		.uleb128 0x3
 2823 0183 0E       		.uleb128 0xe
 2824 0184 3A       		.uleb128 0x3a
 2825 0185 0B       		.uleb128 0xb
 2826 0186 3B       		.uleb128 0x3b
ARM GAS  /tmp/ccQzDHmj.s 			page 84


 2827 0187 0B       		.uleb128 0xb
 2828 0188 27       		.uleb128 0x27
 2829 0189 19       		.uleb128 0x19
 2830 018a 11       		.uleb128 0x11
 2831 018b 01       		.uleb128 0x1
 2832 018c 12       		.uleb128 0x12
 2833 018d 06       		.uleb128 0x6
 2834 018e 40       		.uleb128 0x40
 2835 018f 18       		.uleb128 0x18
 2836 0190 9642     		.uleb128 0x2116
 2837 0192 19       		.uleb128 0x19
 2838 0193 01       		.uleb128 0x1
 2839 0194 13       		.uleb128 0x13
 2840 0195 00       		.byte	0
 2841 0196 00       		.byte	0
 2842 0197 20       		.uleb128 0x20
 2843 0198 05       		.uleb128 0x5
 2844 0199 00       		.byte	0
 2845 019a 03       		.uleb128 0x3
 2846 019b 0E       		.uleb128 0xe
 2847 019c 3A       		.uleb128 0x3a
 2848 019d 0B       		.uleb128 0xb
 2849 019e 3B       		.uleb128 0x3b
 2850 019f 0B       		.uleb128 0xb
 2851 01a0 49       		.uleb128 0x49
 2852 01a1 13       		.uleb128 0x13
 2853 01a2 02       		.uleb128 0x2
 2854 01a3 18       		.uleb128 0x18
 2855 01a4 00       		.byte	0
 2856 01a5 00       		.byte	0
 2857 01a6 21       		.uleb128 0x21
 2858 01a7 05       		.uleb128 0x5
 2859 01a8 00       		.byte	0
 2860 01a9 03       		.uleb128 0x3
 2861 01aa 08       		.uleb128 0x8
 2862 01ab 3A       		.uleb128 0x3a
 2863 01ac 0B       		.uleb128 0xb
 2864 01ad 3B       		.uleb128 0x3b
 2865 01ae 0B       		.uleb128 0xb
 2866 01af 49       		.uleb128 0x49
 2867 01b0 13       		.uleb128 0x13
 2868 01b1 02       		.uleb128 0x2
 2869 01b2 18       		.uleb128 0x18
 2870 01b3 00       		.byte	0
 2871 01b4 00       		.byte	0
 2872 01b5 22       		.uleb128 0x22
 2873 01b6 34       		.uleb128 0x34
 2874 01b7 00       		.byte	0
 2875 01b8 03       		.uleb128 0x3
 2876 01b9 08       		.uleb128 0x8
 2877 01ba 3A       		.uleb128 0x3a
 2878 01bb 0B       		.uleb128 0xb
 2879 01bc 3B       		.uleb128 0x3b
 2880 01bd 0B       		.uleb128 0xb
 2881 01be 49       		.uleb128 0x49
 2882 01bf 13       		.uleb128 0x13
 2883 01c0 02       		.uleb128 0x2
ARM GAS  /tmp/ccQzDHmj.s 			page 85


 2884 01c1 18       		.uleb128 0x18
 2885 01c2 00       		.byte	0
 2886 01c3 00       		.byte	0
 2887 01c4 23       		.uleb128 0x23
 2888 01c5 34       		.uleb128 0x34
 2889 01c6 00       		.byte	0
 2890 01c7 03       		.uleb128 0x3
 2891 01c8 0E       		.uleb128 0xe
 2892 01c9 49       		.uleb128 0x49
 2893 01ca 13       		.uleb128 0x13
 2894 01cb 34       		.uleb128 0x34
 2895 01cc 19       		.uleb128 0x19
 2896 01cd 02       		.uleb128 0x2
 2897 01ce 18       		.uleb128 0x18
 2898 01cf 00       		.byte	0
 2899 01d0 00       		.byte	0
 2900 01d1 24       		.uleb128 0x24
 2901 01d2 2E       		.uleb128 0x2e
 2902 01d3 01       		.byte	0x1
 2903 01d4 3F       		.uleb128 0x3f
 2904 01d5 19       		.uleb128 0x19
 2905 01d6 03       		.uleb128 0x3
 2906 01d7 0E       		.uleb128 0xe
 2907 01d8 3A       		.uleb128 0x3a
 2908 01d9 0B       		.uleb128 0xb
 2909 01da 3B       		.uleb128 0x3b
 2910 01db 0B       		.uleb128 0xb
 2911 01dc 27       		.uleb128 0x27
 2912 01dd 19       		.uleb128 0x19
 2913 01de 49       		.uleb128 0x49
 2914 01df 13       		.uleb128 0x13
 2915 01e0 11       		.uleb128 0x11
 2916 01e1 01       		.uleb128 0x1
 2917 01e2 12       		.uleb128 0x12
 2918 01e3 06       		.uleb128 0x6
 2919 01e4 40       		.uleb128 0x40
 2920 01e5 18       		.uleb128 0x18
 2921 01e6 9642     		.uleb128 0x2116
 2922 01e8 19       		.uleb128 0x19
 2923 01e9 01       		.uleb128 0x1
 2924 01ea 13       		.uleb128 0x13
 2925 01eb 00       		.byte	0
 2926 01ec 00       		.byte	0
 2927 01ed 25       		.uleb128 0x25
 2928 01ee 34       		.uleb128 0x34
 2929 01ef 00       		.byte	0
 2930 01f0 03       		.uleb128 0x3
 2931 01f1 0E       		.uleb128 0xe
 2932 01f2 3A       		.uleb128 0x3a
 2933 01f3 0B       		.uleb128 0xb
 2934 01f4 3B       		.uleb128 0x3b
 2935 01f5 0B       		.uleb128 0xb
 2936 01f6 49       		.uleb128 0x49
 2937 01f7 13       		.uleb128 0x13
 2938 01f8 02       		.uleb128 0x2
 2939 01f9 18       		.uleb128 0x18
 2940 01fa 00       		.byte	0
ARM GAS  /tmp/ccQzDHmj.s 			page 86


 2941 01fb 00       		.byte	0
 2942 01fc 26       		.uleb128 0x26
 2943 01fd 2E       		.uleb128 0x2e
 2944 01fe 01       		.byte	0x1
 2945 01ff 3F       		.uleb128 0x3f
 2946 0200 19       		.uleb128 0x19
 2947 0201 03       		.uleb128 0x3
 2948 0202 0E       		.uleb128 0xe
 2949 0203 3A       		.uleb128 0x3a
 2950 0204 0B       		.uleb128 0xb
 2951 0205 3B       		.uleb128 0x3b
 2952 0206 05       		.uleb128 0x5
 2953 0207 27       		.uleb128 0x27
 2954 0208 19       		.uleb128 0x19
 2955 0209 49       		.uleb128 0x49
 2956 020a 13       		.uleb128 0x13
 2957 020b 11       		.uleb128 0x11
 2958 020c 01       		.uleb128 0x1
 2959 020d 12       		.uleb128 0x12
 2960 020e 06       		.uleb128 0x6
 2961 020f 40       		.uleb128 0x40
 2962 0210 18       		.uleb128 0x18
 2963 0211 9642     		.uleb128 0x2116
 2964 0213 19       		.uleb128 0x19
 2965 0214 01       		.uleb128 0x1
 2966 0215 13       		.uleb128 0x13
 2967 0216 00       		.byte	0
 2968 0217 00       		.byte	0
 2969 0218 27       		.uleb128 0x27
 2970 0219 05       		.uleb128 0x5
 2971 021a 00       		.byte	0
 2972 021b 03       		.uleb128 0x3
 2973 021c 0E       		.uleb128 0xe
 2974 021d 3A       		.uleb128 0x3a
 2975 021e 0B       		.uleb128 0xb
 2976 021f 3B       		.uleb128 0x3b
 2977 0220 05       		.uleb128 0x5
 2978 0221 49       		.uleb128 0x49
 2979 0222 13       		.uleb128 0x13
 2980 0223 02       		.uleb128 0x2
 2981 0224 18       		.uleb128 0x18
 2982 0225 00       		.byte	0
 2983 0226 00       		.byte	0
 2984 0227 28       		.uleb128 0x28
 2985 0228 34       		.uleb128 0x34
 2986 0229 00       		.byte	0
 2987 022a 03       		.uleb128 0x3
 2988 022b 08       		.uleb128 0x8
 2989 022c 3A       		.uleb128 0x3a
 2990 022d 0B       		.uleb128 0xb
 2991 022e 3B       		.uleb128 0x3b
 2992 022f 05       		.uleb128 0x5
 2993 0230 49       		.uleb128 0x49
 2994 0231 13       		.uleb128 0x13
 2995 0232 02       		.uleb128 0x2
 2996 0233 18       		.uleb128 0x18
 2997 0234 00       		.byte	0
ARM GAS  /tmp/ccQzDHmj.s 			page 87


 2998 0235 00       		.byte	0
 2999 0236 29       		.uleb128 0x29
 3000 0237 34       		.uleb128 0x34
 3001 0238 00       		.byte	0
 3002 0239 03       		.uleb128 0x3
 3003 023a 0E       		.uleb128 0xe
 3004 023b 3A       		.uleb128 0x3a
 3005 023c 0B       		.uleb128 0xb
 3006 023d 3B       		.uleb128 0x3b
 3007 023e 05       		.uleb128 0x5
 3008 023f 49       		.uleb128 0x49
 3009 0240 13       		.uleb128 0x13
 3010 0241 3F       		.uleb128 0x3f
 3011 0242 19       		.uleb128 0x19
 3012 0243 3C       		.uleb128 0x3c
 3013 0244 19       		.uleb128 0x19
 3014 0245 00       		.byte	0
 3015 0246 00       		.byte	0
 3016 0247 2A       		.uleb128 0x2a
 3017 0248 34       		.uleb128 0x34
 3018 0249 00       		.byte	0
 3019 024a 03       		.uleb128 0x3
 3020 024b 08       		.uleb128 0x8
 3021 024c 3A       		.uleb128 0x3a
 3022 024d 0B       		.uleb128 0xb
 3023 024e 3B       		.uleb128 0x3b
 3024 024f 05       		.uleb128 0x5
 3025 0250 49       		.uleb128 0x49
 3026 0251 13       		.uleb128 0x13
 3027 0252 3F       		.uleb128 0x3f
 3028 0253 19       		.uleb128 0x19
 3029 0254 3C       		.uleb128 0x3c
 3030 0255 19       		.uleb128 0x19
 3031 0256 00       		.byte	0
 3032 0257 00       		.byte	0
 3033 0258 00       		.byte	0
 3034              		.section	.debug_aranges,"",%progbits
 3035 0000 3C000000 		.4byte	0x3c
 3036 0004 0200     		.2byte	0x2
 3037 0006 00000000 		.4byte	.Ldebug_info0
 3038 000a 04       		.byte	0x4
 3039 000b 00       		.byte	0
 3040 000c 0000     		.2byte	0
 3041 000e 0000     		.2byte	0
 3042 0010 00000000 		.4byte	.LFB241
 3043 0014 38000000 		.4byte	.LFE241-.LFB241
 3044 0018 00000000 		.4byte	.LFB242
 3045 001c 60000000 		.4byte	.LFE242-.LFB242
 3046 0020 00000000 		.4byte	.LFB243
 3047 0024 F0000000 		.4byte	.LFE243-.LFB243
 3048 0028 00000000 		.4byte	.LFB244
 3049 002c 04010000 		.4byte	.LFE244-.LFB244
 3050 0030 00000000 		.4byte	.LFB245
 3051 0034 72000000 		.4byte	.LFE245-.LFB245
 3052 0038 00000000 		.4byte	0
 3053 003c 00000000 		.4byte	0
 3054              		.section	.debug_ranges,"",%progbits
ARM GAS  /tmp/ccQzDHmj.s 			page 88


 3055              	.Ldebug_ranges0:
 3056 0000 00000000 		.4byte	.LFB241
 3057 0004 38000000 		.4byte	.LFE241
 3058 0008 00000000 		.4byte	.LFB242
 3059 000c 60000000 		.4byte	.LFE242
 3060 0010 00000000 		.4byte	.LFB243
 3061 0014 F0000000 		.4byte	.LFE243
 3062 0018 00000000 		.4byte	.LFB244
 3063 001c 04010000 		.4byte	.LFE244
 3064 0020 00000000 		.4byte	.LFB245
 3065 0024 72000000 		.4byte	.LFE245
 3066 0028 00000000 		.4byte	0
 3067 002c 00000000 		.4byte	0
 3068              		.section	.debug_line,"",%progbits
 3069              	.Ldebug_line0:
 3070 0000 C8020000 		.section	.debug_str,"MS",%progbits,1
 3070      0200E901 
 3070      00000201 
 3070      FB0E0D00 
 3070      01010101 
 3071              	.LASF55:
 3072 0000 72656164 		.ascii	"ready_list_t\000"
 3072      795F6C69 
 3072      73745F74 
 3072      00
 3073              	.LASF92:
 3074 000d 73655F74 		.ascii	"se_time\000"
 3074      696D6500 
 3075              	.LASF2:
 3076 0015 73697A65 		.ascii	"size_t\000"
 3076      5F7400
 3077              	.LASF135:
 3078 001c 6E657874 		.ascii	"next\000"
 3078      00
 3079              	.LASF113:
 3080 0021 7264796D 		.ascii	"rdymsg\000"
 3080      736700
 3081              	.LASF17:
 3082 0028 75696E74 		.ascii	"uint64_t\000"
 3082      36345F74 
 3082      00
 3083              	.LASF85:
 3084 0031 6B65726E 		.ascii	"kernel_stats\000"
 3084      656C5F73 
 3084      74617473 
 3084      00
 3085              	.LASF3:
 3086 003e 5F5F7569 		.ascii	"__uint8_t\000"
 3086      6E74385F 
 3086      7400
 3087              	.LASF91:
 3088 0048 706F7274 		.ascii	"port_intctx\000"
 3088      5F696E74 
 3088      63747800 
 3089              	.LASF54:
 3090 0054 63685F74 		.ascii	"ch_threads_queue\000"
 3090      68726561 
ARM GAS  /tmp/ccQzDHmj.s 			page 89


 3090      64735F71 
 3090      75657565 
 3090      00
 3091              	.LASF74:
 3092 0065 73797374 		.ascii	"system_debug_t\000"
 3092      656D5F64 
 3092      65627567 
 3092      5F7400
 3093              	.LASF104:
 3094 0074 776F7273 		.ascii	"worst\000"
 3094      7400
 3095              	.LASF107:
 3096 007a 74696D65 		.ascii	"time_measurement_t\000"
 3096      5F6D6561 
 3096      73757265 
 3096      6D656E74 
 3096      5F7400
 3097              	.LASF13:
 3098 008d 6C6F6E67 		.ascii	"long long unsigned int\000"
 3098      206C6F6E 
 3098      6720756E 
 3098      7369676E 
 3098      65642069 
 3099              	.LASF100:
 3100 00a4 63685F74 		.ascii	"ch_trace_buffer_t\000"
 3100      72616365 
 3100      5F627566 
 3100      6665725F 
 3100      7400
 3101              	.LASF95:
 3102 00b6 73655F73 		.ascii	"se_state\000"
 3102      74617465 
 3102      00
 3103              	.LASF114:
 3104 00bf 65786974 		.ascii	"exitcode\000"
 3104      636F6465 
 3104      00
 3105              	.LASF133:
 3106 00c8 685F6672 		.ascii	"h_free\000"
 3106      656500
 3107              	.LASF71:
 3108 00cf 76697274 		.ascii	"virtual_timers_list_t\000"
 3108      75616C5F 
 3108      74696D65 
 3108      72735F6C 
 3108      6973745F 
 3109              	.LASF148:
 3110 00e5 49544D5F 		.ascii	"ITM_RxBuffer\000"
 3110      52784275 
 3110      66666572 
 3110      00
 3111              	.LASF139:
 3112 00f2 68656170 		.ascii	"heapp\000"
 3112      7000
 3113              	.LASF137:
 3114 00f8 616C6967 		.ascii	"align\000"
 3114      6E00
ARM GAS  /tmp/ccQzDHmj.s 			page 90


 3115              	.LASF19:
 3116 00fe 72747469 		.ascii	"rttime_t\000"
 3116      6D655F74 
 3116      00
 3117              	.LASF32:
 3118 0107 705F7072 		.ascii	"p_prio\000"
 3118      696F00
 3119              	.LASF11:
 3120 010e 6C6F6E67 		.ascii	"long long int\000"
 3120      206C6F6E 
 3120      6720696E 
 3120      7400
 3121              	.LASF1:
 3122 011c 7369676E 		.ascii	"signed char\000"
 3122      65642063 
 3122      68617200 
 3123              	.LASF134:
 3124 0128 685F6D74 		.ascii	"h_mtx\000"
 3124      7800
 3125              	.LASF142:
 3126 012e 5F5F6675 		.ascii	"__func__.6620\000"
 3126      6E635F5F 
 3126      2E363632 
 3126      3000
 3127              	.LASF47:
 3128 013c 705F6D70 		.ascii	"p_mpool\000"
 3128      6F6F6C00 
 3129              	.LASF124:
 3130 0144 6D5F7175 		.ascii	"m_queue\000"
 3130      65756500 
 3131              	.LASF141:
 3132 014c 63684865 		.ascii	"chHeapFree\000"
 3132      61704672 
 3132      656500
 3133              	.LASF83:
 3134 0157 76746C69 		.ascii	"vtlist\000"
 3134      737400
 3135              	.LASF116:
 3136 015e 77747472 		.ascii	"wttrp\000"
 3136      7000
 3137              	.LASF81:
 3138 0164 63685F73 		.ascii	"ch_system\000"
 3138      79737465 
 3138      6D00
 3139              	.LASF8:
 3140 016e 6C6F6E67 		.ascii	"long int\000"
 3140      20696E74 
 3140      00
 3141              	.LASF21:
 3142 0177 74737461 		.ascii	"tstate_t\000"
 3142      74655F74 
 3142      00
 3143              	.LASF130:
 3144 0180 6D656D6F 		.ascii	"memory_heap_t\000"
 3144      72795F68 
 3144      6561705F 
 3144      7400
ARM GAS  /tmp/ccQzDHmj.s 			page 91


 3145              	.LASF93:
 3146 018e 73655F74 		.ascii	"se_tp\000"
 3146      7000
 3147              	.LASF34:
 3148 0194 705F6E65 		.ascii	"p_newer\000"
 3148      77657200 
 3149              	.LASF121:
 3150 019c 735F7175 		.ascii	"s_queue\000"
 3150      65756500 
 3151              	.LASF97:
 3152 01a4 74625F73 		.ascii	"tb_size\000"
 3152      697A6500 
 3153              	.LASF60:
 3154 01ac 725F6E65 		.ascii	"r_newer\000"
 3154      77657200 
 3155              	.LASF88:
 3156 01b4 72656761 		.ascii	"regarm_t\000"
 3156      726D5F74 
 3156      00
 3157              	.LASF67:
 3158 01bd 76745F70 		.ascii	"vt_prev\000"
 3158      72657600 
 3159              	.LASF75:
 3160 01c5 63685F73 		.ascii	"ch_system_debug\000"
 3160      79737465 
 3160      6D5F6465 
 3160      62756700 
 3161              	.LASF143:
 3162 01d5 5F5F6675 		.ascii	"__func__.6637\000"
 3162      6E635F5F 
 3162      2E363633 
 3162      3700
 3163              	.LASF128:
 3164 01e3 6D757465 		.ascii	"mutex_t\000"
 3164      785F7400 
 3165              	.LASF78:
 3166 01eb 6C6F636B 		.ascii	"lock_cnt\000"
 3166      5F636E74 
 3166      00
 3167              	.LASF86:
 3168 01f4 69646C65 		.ascii	"idle_thread_wa\000"
 3168      5F746872 
 3168      6561645F 
 3168      776100
 3169              	.LASF26:
 3170 0203 636E745F 		.ascii	"cnt_t\000"
 3170      7400
 3171              	.LASF37:
 3172 0209 705F7374 		.ascii	"p_stklimit\000"
 3172      6B6C696D 
 3172      697400
 3173              	.LASF0:
 3174 0214 756E7369 		.ascii	"unsigned int\000"
 3174      676E6564 
 3174      20696E74 
 3174      00
 3175              	.LASF66:
ARM GAS  /tmp/ccQzDHmj.s 			page 92


 3176 0221 76745F6E 		.ascii	"vt_next\000"
 3176      65787400 
 3177              	.LASF117:
 3178 0229 77747365 		.ascii	"wtsemp\000"
 3178      6D7000
 3179              	.LASF42:
 3180 0230 705F6D73 		.ascii	"p_msgqueue\000"
 3180      67717565 
 3180      756500
 3181              	.LASF108:
 3182 023b 6E5F6972 		.ascii	"n_irq\000"
 3182      7100
 3183              	.LASF122:
 3184 0241 735F636E 		.ascii	"s_cnt\000"
 3184      7400
 3185              	.LASF6:
 3186 0247 73686F72 		.ascii	"short unsigned int\000"
 3186      7420756E 
 3186      7369676E 
 3186      65642069 
 3186      6E7400
 3187              	.LASF112:
 3188 025a 6B65726E 		.ascii	"kernel_stats_t\000"
 3188      656C5F73 
 3188      74617473 
 3188      5F7400
 3189              	.LASF51:
 3190 0269 63685F74 		.ascii	"ch_thread\000"
 3190      68726561 
 3190      6400
 3191              	.LASF84:
 3192 0273 6D61696E 		.ascii	"mainthread\000"
 3192      74687265 
 3192      616400
 3193              	.LASF24:
 3194 027e 6D73675F 		.ascii	"msg_t\000"
 3194      7400
 3195              	.LASF105:
 3196 0284 6C617374 		.ascii	"last\000"
 3196      00
 3197              	.LASF151:
 3198 0289 2F686F6D 		.ascii	"/home/jerker/chibios/ChibiOS_16.1.4/testhal/STM32/S"
 3198      652F6A65 
 3198      726B6572 
 3198      2F636869 
 3198      62696F73 
 3199 02bc 544D3332 		.ascii	"TM32F4xx/USB_CDC\000"
 3199      46347878 
 3199      2F555342 
 3199      5F434443 
 3199      00
 3200              	.LASF27:
 3201 02cd 75636E74 		.ascii	"ucnt_t\000"
 3201      5F7400
 3202              	.LASF80:
 3203 02d4 63685F73 		.ascii	"ch_system_t\000"
 3203      79737465 
ARM GAS  /tmp/ccQzDHmj.s 			page 93


 3203      6D5F7400 
 3204              	.LASF149:
 3205 02e0 474E5520 		.ascii	"GNU C 4.8.2 -mcpu=cortex-m4 -mno-thumb-interwork -m"
 3205      4320342E 
 3205      382E3220 
 3205      2D6D6370 
 3205      753D636F 
 3206 0313 7468756D 		.ascii	"thumb -ggdb -O0 -fomit-frame-pointer -falign-functi"
 3206      62202D67 
 3206      67646220 
 3206      2D4F3020 
 3206      2D666F6D 
 3207 0346 6F6E733D 		.ascii	"ons=16 -ffunction-sections -fdata-sections -fno-com"
 3207      3136202D 
 3207      6666756E 
 3207      6374696F 
 3207      6E2D7365 
 3208 0379 6D6F6E20 		.ascii	"mon -flto\000"
 3208      2D666C74 
 3208      6F00
 3209              	.LASF20:
 3210 0383 746D6F64 		.ascii	"tmode_t\000"
 3210      655F7400 
 3211              	.LASF111:
 3212 038b 6D5F6372 		.ascii	"m_crit_isr\000"
 3212      69745F69 
 3212      737200
 3213              	.LASF56:
 3214 0396 63685F72 		.ascii	"ch_ready_list\000"
 3214      65616479 
 3214      5F6C6973 
 3214      7400
 3215              	.LASF25:
 3216 03a4 6576656E 		.ascii	"eventmask_t\000"
 3216      746D6173 
 3216      6B5F7400 
 3217              	.LASF7:
 3218 03b0 5F5F696E 		.ascii	"__int32_t\000"
 3218      7433325F 
 3218      7400
 3219              	.LASF89:
 3220 03ba 73746B61 		.ascii	"stkalign_t\000"
 3220      6C69676E 
 3220      5F7400
 3221              	.LASF140:
 3222 03c5 63684865 		.ascii	"chHeapObjectInit\000"
 3222      61704F62 
 3222      6A656374 
 3222      496E6974 
 3222      00
 3223              	.LASF41:
 3224 03d6 705F7761 		.ascii	"p_waiting\000"
 3224      6974696E 
 3224      6700
 3225              	.LASF87:
 3226 03e0 73697A65 		.ascii	"sizetype\000"
 3226      74797065 
ARM GAS  /tmp/ccQzDHmj.s 			page 94


 3226      00
 3227              	.LASF49:
 3228 03e9 74687265 		.ascii	"thread_reference_t\000"
 3228      61645F72 
 3228      65666572 
 3228      656E6365 
 3228      5F7400
 3229              	.LASF72:
 3230 03fc 63685F76 		.ascii	"ch_virtual_timers_list\000"
 3230      69727475 
 3230      616C5F74 
 3230      696D6572 
 3230      735F6C69 
 3231              	.LASF98:
 3232 0413 74625F70 		.ascii	"tb_ptr\000"
 3232      747200
 3233              	.LASF96:
 3234 041a 63685F73 		.ascii	"ch_swc_event_t\000"
 3234      77635F65 
 3234      76656E74 
 3234      5F7400
 3235              	.LASF73:
 3236 0429 76745F6C 		.ascii	"vt_lasttime\000"
 3236      61737474 
 3236      696D6500 
 3237              	.LASF35:
 3238 0435 705F6F6C 		.ascii	"p_older\000"
 3238      64657200 
 3239              	.LASF59:
 3240 043d 725F6374 		.ascii	"r_ctx\000"
 3240      7800
 3241              	.LASF102:
 3242 0443 746D5F63 		.ascii	"tm_calibration_t\000"
 3242      616C6962 
 3242      72617469 
 3242      6F6E5F74 
 3242      00
 3243              	.LASF62:
 3244 0454 725F6375 		.ascii	"r_current\000"
 3244      7272656E 
 3244      7400
 3245              	.LASF61:
 3246 045e 725F6F6C 		.ascii	"r_older\000"
 3246      64657200 
 3247              	.LASF12:
 3248 0466 5F5F7569 		.ascii	"__uint64_t\000"
 3248      6E743634 
 3248      5F7400
 3249              	.LASF106:
 3250 0471 63756D75 		.ascii	"cumulative\000"
 3250      6C617469 
 3250      766500
 3251              	.LASF22:
 3252 047c 74726566 		.ascii	"trefs_t\000"
 3252      735F7400 
 3253              	.LASF99:
 3254 0484 74625F62 		.ascii	"tb_buffer\000"
ARM GAS  /tmp/ccQzDHmj.s 			page 95


 3254      75666665 
 3254      7200
 3255              	.LASF64:
 3256 048e 76697274 		.ascii	"virtual_timer_t\000"
 3256      75616C5F 
 3256      74696D65 
 3256      725F7400 
 3257              	.LASF31:
 3258 049e 705F7072 		.ascii	"p_prev\000"
 3258      657600
 3259              	.LASF23:
 3260 04a5 74707269 		.ascii	"tprio_t\000"
 3260      6F5F7400 
 3261              	.LASF109:
 3262 04ad 6E5F6374 		.ascii	"n_ctxswc\000"
 3262      78737763 
 3262      00
 3263              	.LASF15:
 3264 04b6 696E7433 		.ascii	"int32_t\000"
 3264      325F7400 
 3265              	.LASF4:
 3266 04be 756E7369 		.ascii	"unsigned char\000"
 3266      676E6564 
 3266      20636861 
 3266      7200
 3267              	.LASF152:
 3268 04cc 68656170 		.ascii	"heap_header\000"
 3268      5F686561 
 3268      64657200 
 3269              	.LASF150:
 3270 04d8 2E2E2F2E 		.ascii	"../../../../os/rt/src/chheap.c\000"
 3270      2E2F2E2E 
 3270      2F2E2E2F 
 3270      6F732F72 
 3270      742F7372 
 3271              	.LASF45:
 3272 04f7 705F6D74 		.ascii	"p_mtxlist\000"
 3272      786C6973 
 3272      7400
 3273              	.LASF5:
 3274 0501 73686F72 		.ascii	"short int\000"
 3274      7420696E 
 3274      7400
 3275              	.LASF38:
 3276 050b 705F7374 		.ascii	"p_state\000"
 3276      61746500 
 3277              	.LASF58:
 3278 0513 725F7072 		.ascii	"r_prio\000"
 3278      696F00
 3279              	.LASF119:
 3280 051a 65776D61 		.ascii	"ewmask\000"
 3280      736B00
 3281              	.LASF30:
 3282 0521 705F6E65 		.ascii	"p_next\000"
 3282      787400
 3283              	.LASF39:
 3284 0528 705F666C 		.ascii	"p_flags\000"
ARM GAS  /tmp/ccQzDHmj.s 			page 96


 3284      61677300 
 3285              	.LASF48:
 3286 0530 705F7374 		.ascii	"p_stats\000"
 3286      61747300 
 3287              	.LASF144:
 3288 0538 63684865 		.ascii	"chHeapAlloc\000"
 3288      6170416C 
 3288      6C6F6300 
 3289              	.LASF120:
 3290 0544 63685F73 		.ascii	"ch_semaphore\000"
 3290      656D6170 
 3290      686F7265 
 3290      00
 3291              	.LASF44:
 3292 0551 705F6570 		.ascii	"p_epending\000"
 3292      656E6469 
 3292      6E6700
 3293              	.LASF16:
 3294 055c 75696E74 		.ascii	"uint32_t\000"
 3294      33325F74 
 3294      00
 3295              	.LASF118:
 3296 0565 77746D74 		.ascii	"wtmtxp\000"
 3296      787000
 3297              	.LASF57:
 3298 056c 725F7175 		.ascii	"r_queue\000"
 3298      65756500 
 3299              	.LASF68:
 3300 0574 76745F64 		.ascii	"vt_delta\000"
 3300      656C7461 
 3300      00
 3301              	.LASF52:
 3302 057d 63685F74 		.ascii	"ch_threads_list\000"
 3302      68726561 
 3302      64735F6C 
 3302      69737400 
 3303              	.LASF136:
 3304 058d 68656170 		.ascii	"heap\000"
 3304      00
 3305              	.LASF10:
 3306 0592 6C6F6E67 		.ascii	"long unsigned int\000"
 3306      20756E73 
 3306      69676E65 
 3306      6420696E 
 3306      7400
 3307              	.LASF147:
 3308 05a4 64656661 		.ascii	"default_heap\000"
 3308      756C745F 
 3308      68656170 
 3308      00
 3309              	.LASF127:
 3310 05b1 63686172 		.ascii	"char\000"
 3310      00
 3311              	.LASF29:
 3312 05b6 74687265 		.ascii	"thread_t\000"
 3312      61645F74 
 3312      00
ARM GAS  /tmp/ccQzDHmj.s 			page 97


 3313              	.LASF103:
 3314 05bf 62657374 		.ascii	"best\000"
 3314      00
 3315              	.LASF126:
 3316 05c4 6D5F6E65 		.ascii	"m_next\000"
 3316      787400
 3317              	.LASF28:
 3318 05cb 73797374 		.ascii	"systime_t\000"
 3318      696D655F 
 3318      7400
 3319              	.LASF46:
 3320 05d5 705F7265 		.ascii	"p_realprio\000"
 3320      616C7072 
 3320      696F00
 3321              	.LASF63:
 3322 05e0 76746675 		.ascii	"vtfunc_t\000"
 3322      6E635F74 
 3322      00
 3323              	.LASF9:
 3324 05e9 5F5F7569 		.ascii	"__uint32_t\000"
 3324      6E743332 
 3324      5F7400
 3325              	.LASF76:
 3326 05f4 70616E69 		.ascii	"panic_msg\000"
 3326      635F6D73 
 3326      6700
 3327              	.LASF101:
 3328 05fe 6F666673 		.ascii	"offset\000"
 3328      657400
 3329              	.LASF90:
 3330 0605 636F6E74 		.ascii	"context\000"
 3330      65787400 
 3331              	.LASF65:
 3332 060d 63685F76 		.ascii	"ch_virtual_timer\000"
 3332      69727475 
 3332      616C5F74 
 3332      696D6572 
 3332      00
 3333              	.LASF18:
 3334 061e 7274636E 		.ascii	"rtcnt_t\000"
 3334      745F7400 
 3335              	.LASF129:
 3336 0626 6D656D67 		.ascii	"memgetfunc_t\000"
 3336      65746675 
 3336      6E635F74 
 3336      00
 3337              	.LASF70:
 3338 0633 76745F70 		.ascii	"vt_par\000"
 3338      617200
 3339              	.LASF145:
 3340 063a 63684865 		.ascii	"chHeapStatus\000"
 3340      61705374 
 3340      61747573 
 3340      00
 3341              	.LASF53:
 3342 0647 74687265 		.ascii	"threads_queue_t\000"
 3342      6164735F 
ARM GAS  /tmp/ccQzDHmj.s 			page 98


 3342      71756575 
 3342      655F7400 
 3343              	.LASF123:
 3344 0657 63685F6D 		.ascii	"ch_mutex\000"
 3344      75746578 
 3344      00
 3345              	.LASF40:
 3346 0660 705F7265 		.ascii	"p_refs\000"
 3346      667300
 3347              	.LASF77:
 3348 0667 6973725F 		.ascii	"isr_cnt\000"
 3348      636E7400 
 3349              	.LASF82:
 3350 066f 726C6973 		.ascii	"rlist\000"
 3350      7400
 3351              	.LASF14:
 3352 0675 75696E74 		.ascii	"uint8_t\000"
 3352      385F7400 
 3353              	.LASF132:
 3354 067d 685F7072 		.ascii	"h_provider\000"
 3354      6F766964 
 3354      657200
 3355              	.LASF115:
 3356 0688 77746F62 		.ascii	"wtobjp\000"
 3356      6A7000
 3357              	.LASF146:
 3358 068f 73697A65 		.ascii	"sizep\000"
 3358      7000
 3359              	.LASF36:
 3360 0695 705F6E61 		.ascii	"p_name\000"
 3360      6D6500
 3361              	.LASF138:
 3362 069c 73697A65 		.ascii	"size\000"
 3362      00
 3363              	.LASF50:
 3364 06a1 74687265 		.ascii	"threads_list_t\000"
 3364      6164735F 
 3364      6C697374 
 3364      5F7400
 3365              	.LASF79:
 3366 06b0 74726163 		.ascii	"trace_buffer\000"
 3366      655F6275 
 3366      66666572 
 3366      00
 3367              	.LASF153:
 3368 06bd 5F686561 		.ascii	"_heap_init\000"
 3368      705F696E 
 3368      697400
 3369              	.LASF43:
 3370 06c8 705F6D73 		.ascii	"p_msg\000"
 3370      6700
 3371              	.LASF110:
 3372 06ce 6D5F6372 		.ascii	"m_crit_thd\000"
 3372      69745F74 
 3372      686400
 3373              	.LASF125:
 3374 06d9 6D5F6F77 		.ascii	"m_owner\000"
ARM GAS  /tmp/ccQzDHmj.s 			page 99


 3374      6E657200 
 3375              	.LASF94:
 3376 06e1 73655F77 		.ascii	"se_wtobjp\000"
 3376      746F626A 
 3376      7000
 3377              	.LASF33:
 3378 06eb 705F6374 		.ascii	"p_ctx\000"
 3378      7800
 3379              	.LASF69:
 3380 06f1 76745F66 		.ascii	"vt_func\000"
 3380      756E6300 
 3381              	.LASF131:
 3382 06f9 6D656D6F 		.ascii	"memory_heap\000"
 3382      72795F68 
 3382      65617000 
 3383              		.comm	__gnu_lto_v1,1,1
 3384              		.ident	"GCC: (4.8.2-14ubuntu1+6) 4.8.2"
ARM GAS  /tmp/ccQzDHmj.s 			page 100


DEFINED SYMBOLS
                            *ABS*:0000000000000000 chheap.c
     /tmp/ccQzDHmj.s:545    .bss.default_heap:0000000000000000 $d
     /tmp/ccQzDHmj.s:548    .bss.default_heap:0000000000000000 default_heap
     /tmp/ccQzDHmj.s:551    .text._heap_init:0000000000000000 $t
     /tmp/ccQzDHmj.s:557    .text._heap_init:0000000000000000 _heap_init
     /tmp/ccQzDHmj.s:592    .text._heap_init:0000000000000034 $d
     /tmp/ccQzDHmj.s:597    .text.chHeapObjectInit:0000000000000000 $t
     /tmp/ccQzDHmj.s:603    .text.chHeapObjectInit:0000000000000000 chHeapObjectInit
     /tmp/ccQzDHmj.s:1109   .rodata.__func__.6620:0000000000000000 __func__.6620
     /tmp/ccQzDHmj.s:670    .text.chHeapAlloc:0000000000000000 $t
     /tmp/ccQzDHmj.s:676    .text.chHeapAlloc:0000000000000000 chHeapAlloc
     /tmp/ccQzDHmj.s:840    .text.chHeapFree:0000000000000000 $t
     /tmp/ccQzDHmj.s:846    .text.chHeapFree:0000000000000000 chHeapFree
     /tmp/ccQzDHmj.s:1115   .rodata.__func__.6637:0000000000000000 __func__.6637
     /tmp/ccQzDHmj.s:1014   .text.chHeapStatus:0000000000000000 $t
     /tmp/ccQzDHmj.s:1020   .text.chHeapStatus:0000000000000000 chHeapStatus
     /tmp/ccQzDHmj.s:1106   .rodata.__func__.6620:0000000000000000 $d
     /tmp/ccQzDHmj.s:1112   .rodata.__func__.6637:0000000000000000 $d
                            *COM*:0000000000000001 __gnu_lto_v1
                     .debug_frame:0000000000000010 $d
     /tmp/ccQzDHmj.s:596    .text._heap_init:0000000000000038 $t

UNDEFINED SYMBOLS
chCoreAlloc
chMtxObjectInit
chSysHalt
chMtxLock
chMtxUnlock
