ARM GAS  /tmp/ccON3Nu8.s 			page 1


   1              		.syntax unified
   2              		.cpu cortex-m4
   3              		.fpu softvfp
   4              		.eabi_attribute 20, 1
   5              		.eabi_attribute 21, 1
   6              		.eabi_attribute 23, 3
   7              		.eabi_attribute 24, 1
   8              		.eabi_attribute 25, 1
   9              		.eabi_attribute 26, 1
  10              		.eabi_attribute 30, 6
  11              		.eabi_attribute 34, 1
  12              		.eabi_attribute 18, 4
  13              		.thumb
  14              		.file	"chheap.c"
  15              		.text
  16              	.Ltext0:
  17              		.section	.gnu.lto_.inline.7af807e71a6b46e4,"",%progbits
  18 0000 789C6362 		.ascii	"x\234cb`b\300\006\026CiV\006\006\016\001\006\006&\216"
  18      6062C006 
  18      16436956 
  18      06060E01 
  18      0606268E 
  19 0014 097E0C2C 		.ascii	"\011~\014,\020\265L\334@\202\231AX\005\310\224zp\213"
  19      10B54CDC 
  19      40829941 
  19      5805C894 
  19      7A708B
  20 0027 11451C4C 		.ascii	"\021E\034L\2602\230\336\006\261\003.4\260b\312B\224"
  20      B03298DE 
  20      06B1032E 
  20      34B062CA 
  20      4294
  21 0039 08020936 		.ascii	"\010\002\0116\006\373G \201\254\007\247\331p\250\003"
  21      06FB4720 
  21      81AC07A7 
  21      D970A803 
  22 0049 131C0C22 		.ascii	"\023\034\014\"\252@\246\314\206WX,c\000\000lm\014\210"
  22      AA40A6CC 
  22      8657582C 
  22      6300006C 
  22      6D0C88
  23              		.text
  24              		.section	.gnu.lto__heap_init.7af807e71a6b46e4,"",%progbits
  25 0000 789C6362 		.ascii	"x\234cb`b@\007\"@\374\236\221\201A\023\304af`\004\252"
  25      60624007 
  25      2240FC9E 
  25      91814113 
  25      C4616660 
  26 0016 60646204 		.ascii	"`db\004\012002\32431\326G2\202\225\255g:\360\340\377"
  26      0A303032 
  26      D43331D6 
  26      47328295 
  26      AD673AF0 
  27 002c FF75DF8E 		.ascii	"\377u\337\216M\277\3038\207\011$\306\312\320\322\320"
  27      4DBFC338 
  27      870924C6 
  27      CAD0D2D0 
ARM GAS  /tmp/ccON3Nu8.s 			page 2


  28 003c 30418181 		.ascii	"0A\201\201!\031\254\"\004L\206\202\3643\237eh\372\325"
  28      2119AC22 
  28      044C8682 
  28      F4339F65 
  28      68FAD5
  29 004f FCBDD73A 		.ascii	"\374\275\327:\221q!#+\2036\303\252\006 \260\317dd\230"
  29      91712123 
  29      2B8336C3 
  29      AA0620B0 
  29      CF646498 
  30 0063 CD30ABB1 		.ascii	"\3150\253\261\241A \223\221\261\232\341WC\007\210\305"
  30      A1412093 
  30      91B19AE1 
  30      57430788 
  30      C5
  31 0074 940BD618 		.ascii	"\224\013\326\030\301\230\311\010q\\\022\304B\006\210"
  31      C198C908 
  31      715C12C4 
  31      420688
  32 0083 8A86EA4C 		.ascii	"\212\206\352LF\346dF\210\030\320\334\0357\336\037`A"
  32      46E66446 
  32      8818D0DC 
  32      1D37DE1F 
  32      6041
  33 0095 31B73493 		.ascii	"1\2674\223\221\005\312,\314dd\2052c3\031\331\020\026"
  33      9105CA2C 
  33      CC646485 
  33      32633319 
  33      D91016
  34 00a8 B3136731 		.ascii	"\263\023g1#\224\206\361\231\2414\013\003L%\013\314\031"
  34      239486F1 
  34      99A1340B 
  34      034C250B 
  34      CC19
  35 00ba 3FDE7F60 		.ascii	"?\336\177`Fq\006\320n\016j\332\315\012\267\223\003\304"
  35      467106D0 
  35      6E0E6ADA 
  35      CD0AB793 
  35      03C4
  36 00cc 38CFD0F2 		.ascii	"8\317\320\362\340\344a.\210\225\260\300\001\232\304"
  36      E0E4612E 
  36      8895B0C0 
  36      019AC4
  37 00db 990CD501 		.ascii	"\231\014\325\001\022\341\310d\344\202Z<\021\250\221"
  37      12E1C864 
  37      E4825A3C 
  37      11A891
  38 00ea 1B684B12 		.ascii	"\033hK\022#\033X\032\2521\223\221\207\201\341\"C\343"
  38      231B581A 
  38      AA319391 
  38      8781E122 
  38      43E3
  39 00fc 83B3CA30 		.ascii	"\203\263\3120\243  \004\344\000\220I\3529\231I\372\316"
  39      A3202004 
  39      E4009049 
  39      EA399949 
  39      FACE
ARM GAS  /tmp/ccON3Nu8.s 			page 3


  40 010e 19994999 		.ascii	"\031\231I\231\376\301\361\206fz\206z&\372\372\371\305"
  40      FEC1F186 
  40      667A867A 
  40      26FAFAF9 
  40      C5
  41 011f FA4525FA 		.ascii	"\372E%\372\305E\311\372\311\031\031\251\211\005z\311"
  41      C545C9FA 
  41      C91919A9 
  41      89057AC9 
  42 012f 0C000483 		.ascii	"\014\000\004\203\200A"
  42      8041
  43              		.text
  44              		.section	.gnu.lto_chHeapObjectInit.7af807e71a6b46e4,"",%progbits
  45 0000 789CB553 		.ascii	"x\234\265S\315k\023A\024\177ofg\223\264\332\326\233"
  45      CD6B1341 
  45      147F6F66 
  45      6793B4DA 
  45      D69B
  46 0012 F5540A22 		.ascii	"\365T\012\"D\3146\242\236\274\371\007\210\330@{\222"
  46      44CC36A2 
  46      9EBCF907 
  46      88D8407B 
  46      92
  47 0023 64D164C0 		.ascii	"d\321d\300`i\364b\017\035\233@\253\010)\202Z\324C{\020"
  47      6069F462 
  47      0F1D9B40 
  47      AB082982 
  47      5AD4437B 
  48 0038 AB088208 		.ascii	"\253\010\202\010\006D\310MEJ\353I\2179z\020\365\326"
  48      0644C84D 
  48      454AEB49 
  48      8F397A10 
  48      F5D6
  49 004a 9048D637 		.ascii	"\220H\3267\273\223l\322\026\015\210\017v\336\233\367"
  49      BB936CD2 
  49      160D880F 
  49      76DE9BF7 
  50 005a DEEF7DCE 		.ascii	"\336\357}\3162`\260\223N\323wH\000\034\327\227\010 "
  50      3260B093 
  50      4ED37748 
  50      001CD797 
  50      0820
  51 006c 7920434E 		.ascii	"y CN'g\244V\314\242\303\262\002\331\326\262@bh#\022"
  51      2767A456 
  51      CCA2C3B2 
  51      02D9D6B2 
  51      40626823 
  52 0081 00619E71 		.ascii	"\000a\236qK\3308?\215~\200qXS\352N\355qse\364\326\352"
  52      4BD8383F 
  52      8D7E8071 
  52      5853EA4E 
  52      ED717365 
  53 0098 C2B26A79 		.ascii	"\302\262jy\036J\244\274q\004\027a\212.8\3463\035\270"
  53      1E4AA4BC 
  53      71041761 
  53      8A2E38E6 
  53      331DB8
ARM GAS  /tmp/ccON3Nu8.s 			page 4


  54 00ab 9B02A47A 		.ascii	"\233\002\244z\271\256b\253\352\227\347q\251#\376/Lu"
  54      B9AE62AB 
  54      EA97E771 
  54      A923FE2F 
  54      4C75
  55 00bd FBDDBD9E 		.ascii	"\373\335\275\236\012\373\2045\027\357v\303x\237\260"
  55      0AFB8435 
  55      17EF76C3 
  55      789FB0
  56 00cc CF8BF747 		.ascii	"\317\213\367GU\010\263\030L\374m\036y\204\027\254Z\363"
  56      5508B318 
  56      4CFC6D1E 
  56      798417AC 
  56      5AF3
  57 00de BCE76F5F 		.ascii	"\274\347o_\335~\204\353l\0001\217\264\2374>\301q\340"
  57      DD7E84EB 
  57      6C00318F 
  57      B49F343E 
  57      C171E0
  58 00f1 C4D7885B 		.ascii	"\304\327\210[@\305\013\262\320rH\212\220\304\243Z\212"
  58      40C50BB2 
  58      D072488A 
  58      90C4A35A 
  58      8A
  59 0102 815F1E08 		.ascii	"\201_\036\010()\265<\026\240\362\246Q\242I\377L\351"
  59      2829B53C 
  59      16A0F2A6 
  59      51A249FF 
  59      4CE9
  60 0114 85F30D58 		.ascii	"\205\363\015X\370Xo\374di|\212\002\262\310\262\376v"
  60      F8586FFC 
  60      64697C8A 
  60      02B2C8B2 
  60      FE76
  61 0126 7D3B0FEC 		.ascii	"};\017\354\337\213\257\313\274m\347\276}\003\212o:*"
  61      DF8BAFCB 
  61      BC6DE7BE 
  61      7D038A6F 
  61      3A2A
  62 0138 8BB4BA0D 		.ascii	"\213\264\272\015zC\000\357\241\364\015;\226\251`\276"
  62      7A4300EF 
  62      A1F40D3B 
  62      96A960BE 
  63 0148 21A5D0F2 		.ascii	"!\245\320\362\203v\301\355,\012\355'v\301m_\335\013"
  63      8376C1ED 
  63      2C0AED27 
  63      76C16D5F 
  63      DD0B
  64 015a A72BDF04 		.ascii	"\247+\337\004+p\001\230\203\206ZR#\022m\327\324\255"
  64      2B700198 
  64      83865A52 
  64      23126DD7 
  64      D4AD
  65 016c 35072546 		.ascii	"5\007%F\250_\343$1\332F\333AG\225z\363\253\351\370("
  65      A85FE324 
  65      31DA46DB 
  65      4147957A 
ARM GAS  /tmp/ccON3Nu8.s 			page 5


  65      F3ABE9F8 
  66 0181 3C534449 		.ascii	"<SDI\211\261\207\360\200\362\015d1\242\363\016\372\220"
  66      89B187F0 
  66      80F20D64 
  66      31A2F30E 
  66      FA90
  67 0193 8C295F6B 		.ascii	"\214)_kbZ \364\207\225\326\026\357AO\323^\215\230\222"
  67      625A20F4 
  67      8795D616 
  67      EF414FD3 
  67      5E8D9892 
  68 01a7 B8CF88E7 		.ascii	"\270\317\210\347$\356\017\303\017\355\035\036\015g\206"
  68      24EE0FC3 
  68      0FED1D1E 
  68      0D6786
  69 01b6 73C38327 		.ascii	"s\303\203'\221\325z]p\245U\355MIy\304\277\344\021\235"
  69      91D57A5D 
  69      70A555ED 
  69      4D4979C4 
  69      BFE4119D 
  70 01ca B68469AB 		.ascii	"\266\204i\253\362\245U\355\035\312\311\260\255d\330"
  70      F2A555ED 
  70      1DCAC9B0 
  70      AD64D8
  71 01d9 D620A50B 		.ascii	"\326 \245\013r\014Qy:\202\365\307\036:\036\264\365\245"
  71      720C5179 
  71      3A82F5C7 
  71      1E3A1EB4 
  71      F5A5
  72 01eb E28FF2B1 		.ascii	"\342\217\362\261\366z\243\355\305\327=\317\0336\263"
  72      F67AA3ED 
  72      C5D73DCF 
  72      1B36B3
  73 01fa DD8AECDC 		.ascii	"\335\212\354\334\213\350;\25703\213\372\241\032\305"
  73      8BE83BAF 
  73      30338BFA 
  73      A11AC5
  74 0209 ED72BC9D 		.ascii	"\355r\274\235+6\007\327\351\2470\241\012\022\207\367"
  74      2B3607D7 
  74      E9A730A1 
  74      0A1287F7 
  75 0219 1E931DBE 		.ascii	"\036\223\035\276\265M(U\343\273\336\331\210k\322QL\211"
  75      B54D2855 
  75      E3BBDED9 
  75      886BD251 
  75      4C89
  76 022b 07003EC1 		.ascii	"\007\000>\301\215\332\315\303m\277\200&\365\270\265"
  76      8DDACDC3 
  76      6DBF8026 
  76      F5B8B5
  77 023a DB91CB32 		.ascii	"\333\221\3132\343\234\311\311\214<{\376B\362T\"\231"
  77      E39CC9C9 
  77      8C3C7BFE 
  77      42F25422 
  77      99
  78 024b 38E13857 		.ascii	"8\3418W\012\316\354U\2470\353:n.w1=\223pAd\256]JL\260"
  78      0ACEEC55 
ARM GAS  /tmp/ccON3Nu8.s 			page 6


  78      A730EB3A 
  78      6E2E7731 
  78      3D937041 
  79 0265 DCCC6F35 		.ascii	"\334\314o5\373#\226"
  79      FB2396
  80              		.text
  81              		.section	.gnu.lto_chHeapAlloc.7af807e71a6b46e4,"",%progbits
  82 0000 789CC556 		.ascii	"x\234\305V\335O\034U\024\277\367\316\314~\177\001\345"
  82      DD4F1C55 
  82      14BFF7CE 
  82      CC7E7F01 
  82      E5
  83 0011 63F92AE5 		.ascii	"c\371*\345\305\244\215\254X?B\232\306\007\377\0005\225"
  83      C5A48DAC 
  83      583F429A 
  83      C607FF00 
  83      3595
  84 0023 A43E59A0 		.ascii	"\244>Y\240u\231\244\215\024\364E\036\230\355\362\200"
  84      7599A48D 
  84      14F4451E 
  84      98EDF280 
  85 0033 6C636905 		.ascii	"lci\005\251\324h\373f4JBC\240\226\310\222\264\011tc"
  85      A9D468FB 
  85      66344A42 
  85      43A096C8 
  85      92B40974 
  86 0048 2A0F4420 		.ascii	"*\017D 6\226~\330\207\032\2651\246\024K\307s\356\334"
  86      36967ED8 
  86      871AB531 
  86      A6144BC7 
  86      73EEDC
  87 005b 999DC555 		.ascii	"\231\235\305U\206\265\306I8s\271\347\234\3379\277s\317"
  87      86B5C649 
  87      3873B9E7 
  87      9CDF39BF 
  87      73CF
  88 006d 3DB38C30 		.ascii	"=\263\2140\262\361\031\201?-L\310\323\370O\021\241`"
  88      B2F11981 
  88      3F2D4CC8 
  88      D3F84F11 
  88      A160
  89 007f 41199360 		.ascii	"A\031\223`\223\311 d\211\302\213\312\324\017Ra.\334"
  89      93C92064 
  89      89C28BCA 
  89      D40F5261 
  89      2EDC
  90 0091 F7E1BE8B 		.ascii	"\367\341\276\213\271q\355\301\265\233zA\353\341\322"
  90      B971EDC1 
  90      B59B7A41 
  90      EBE1D2
  91 00a0 4B23207D 		.ascii	"K# }\334\336\317\024\264\011\240M\200\005q\035\306u"
  91      DCDECF14 
  91      B409A04D 
  91      8005711D 
  91      C675
  92 00b2 9085AC75 		.ascii	"\220\205\254u\210\333\207\271\214P\012IP\322\303$Yq"
  92      88DB87B9 
ARM GAS  /tmp/ccON3Nu8.s 			page 7


  92      8C500A49 
  92      50D2C324 
  92      5971
  93 00c4 B93D5E9F 		.ascii	"\271=^\237?\020\014\205#\264\3475T\220\322zrN\323N]"
  93      3F100C85 
  93      23B4E735 
  93      5490D27A 
  93      724ED34E 
  94 00d9 BFFCE53C 		.ascii	"\277\374\345<\375p0\335{V{\250\353\224\252\250l\243"
  94      FD7030DD 
  94      7B567BA8 
  94      EB94AAA8 
  94      6CA3
  95 00eb 643FAC68 		.ascii	"d?\254h\035\177a\356\366\307pL\377qe\356\034\325Ni\211"
  95      1D7F61EE 
  95      F6C7704C 
  95      FF7165EE 
  95      1CD54E69 
  96 0100 5F753DAC 		.ascii	"_u=\254R\311\241\333\311\324\211h\377\331c\003\332#"
  96      52C9A1DB 
  96      C9D48968 
  96      FFD96303 
  96      DA23
  97 0112 08E73CDA 		.ascii	"\010\347<\332\373\251\301\002\334\264\365[/\317j\275"
  97      FBA9C102 
  97      DCB4F55B 
  97      2FCF6ABD 
  98 0122 695D7FC1 		.ascii	"i]\177\301y\2503\231O\354\241d\207n\343\231\313\271"
  98      79A83399 
  98      4FECA164 
  98      876EE399 
  98      CBB9
  99 0134 85640E1D 		.ascii	"\205d\016\035/\024\026\357b\352\343B*\242\337\336rE"
  99      2F1416EF 
  99      62EAE342 
  99      2AA2DFDE 
  99      7245
 100 0146 B4B14F35 		.ascii	"\264\261O5/\247%9\257\342B&\263\365\366\030I/g\216\373"
 100      2FA72539 
 100      AFE24226 
 100      B3F5F618 
 100      492F678E 
 101 015b 06127D9A 		.ascii	"\006\022}\232\256\367\250Tq\030k\375\312`!\025\374="
 101      AEF7A854 
 101      71186BFD 
 101      CA602115 
 101      FC3D
 102 016d 535007AF 		.ascii	"SP\007\257\247\336\263Gs9t\3233'\012p\323\356\027\320"
 102      A7DEB347 
 102      733974D3 
 102      33270A70 
 102      D3EE17D0 
 103 0181 C14BFDC3 		.ascii	"\301K\375\303Q\315V\017FvR\207\321\016Z\301\300\353"
 103      51CD560F 
 103      46765287 
 103      D10E5AC1 
 103      C0EB
ARM GAS  /tmp/ccON3Nu8.s 			page 8


 104 0193 49875E27 		.ascii	"I\207^'\017\331\275\236\332\314k\224\245\257\353\372"
 104      0FD9BD9E 
 104      DACC6B94 
 104      A5AFEBFA 
 105 01a3 D4C2E4CD 		.ascii	"\324\302\344\315\217hI=%G(\314\322\026z\236\326\023"
 105      8F68493D 
 105      254728CC 
 105      D2167A9E 
 105      D613
 106 01b5 89C0A9CB 		.ascii	"\211\300\251\313\024v\024\334v\301\212\272a\217x\340"
 106      147614DC 
 106      76C18ABA 
 106      618F78E0 
 107 01c5 5F988986 		.ascii	"_\230\211\206\225\017v$?\0109\000;\343\260\023D\233"
 107      950F7624 
 107      3F083900 
 107      3BE3B013 
 107      449B
 108 01d7 108A308A 		.ascii	"\020\2120\212\010\352\212@\260b0\230\000\203\022\334"
 108      08EA8A40 
 108      B0623098 
 108      008312DC 
 109 01e7 D986BA52 		.ascii	"\331\206\272R\024e(\312\021\246\002#F\005p%\356T\201"
 109      146528CA 
 109      11A60223 
 109      46057025 
 109      EE5481
 110 01fa 7055A3A8 		.ascii	"pU\243\250A\253Z\021b\273x\327\241\303\016\302\273\023"
 110      41AB5A11 
 110      62BB78D7 
 110      A1C30EC2 
 110      BB13
 111 020c B2ECD5B4 		.ascii	"\262\354\325\264\201:\303\333\320\033\361\370I\301\363"
 111      813AC3DB 
 111      D01BF1F8 
 111      49C1F3
 112 021b 2A97CD38 		.ascii	"*\227\3158\014\244Yr\351\316\314\265~\251\205^\000\347"
 112      0CA45972 
 112      E9CECCB5 
 112      7EA9855E 
 112      00E7
 113 022d 3895B138 		.ascii	"8\225\2618n{e\232\261\011\245o\310\261\265\344\364P"
 113      6E7B659A 
 113      B109A56F 
 113      C8B1B5E4 
 113      F450
 114 023f 9569A774 		.ascii	"\225i\247t\2235\255O\323\366\200\365\021\312l\3262\267"
 114      9335AD4F 
 114      D3F680F5 
 114      11CA6CD6 
 114      32B7
 115 0251 4EF625EF 		.ascii	"N\366%\357\016U\232\326\3568u!\260\007\221Ay1\331j\252"
 115      0E559AD6 
 115      EE387521 
 115      B0079141 
 115      7931D96A 
 116 0266 3CA0E5AA 		.ascii	"<\240\345\252U\035:\236\253!\322/C.\323\300\213\221"
ARM GAS  /tmp/ccON3Nu8.s 			page 9


 116      551D3A9E 
 116      AB21D22F 
 116      432ED3C0 
 116      8B91
 117 0278 E0698462 		.ascii	"\340i\204b\355\"\237\341r\257J\275g\310\010x\371\342"
 117      ED229FE1 
 117      72AF4ABD 
 117      67C80878 
 117      F9E2
 118 028a 9466336E 		.ascii	"\224f3n\245\266\2749\316\375!\213\231\257\233\274\003"
 118      A5B6BC39 
 118      CEFD218B 
 118      99AF9BBC 
 118      03
 119 029b 95DC4576 		.ascii	"\225\334Ev\252\324\237\337\333\346~\225\310\206#!\006"
 119      AAD49FDF 
 119      DBE67E95 
 119      C8862321 
 119      06
 120 02ac D3884A03 		.ascii	"\323\210J\003m\302\002\300T\032\304\325\022\241P3\006"
 120      6DC202C0 
 120      541AC4D5 
 120      12A15033 
 120      06
 121 02bd 42911E2E 		.ascii	"B\221\036.\034F\376\212Q\255\345\325\321\031j\306\016"
 121      1C46FE8A 
 121      51ADE5D5 
 121      D1196AC6 
 121      0E
 122 02ce 88C4F765 		.ascii	"\210\304\367e9@_\206\304\262I\245a#!o\234\262\375\306"
 122      39405F86 
 122      C4B249A5 
 122      6123216F 
 122      9CB2FDC6 
 123 02e2 B4E00931 		.ascii	"\264\340\0111\361\226\304[\316r[>=v\317\302\017rV\036"
 123      F196C45B 
 123      CE725B3E 
 123      3D76CFC2 
 123      0F72561E 
 124 02f6 81F7BC1D 		.ascii	"\201\367\274\035/\220\017O\0218\263\244\367N\242\321"
 124      2F900F4F 
 124      1138B3A4 
 124      F74EA2D1 
 125 0306 4281D3B0 		.ascii	"B\201\323\260\237\273K0\231\034\233a\246M('\322\036"
 125      9FBB4B30 
 125      991C9B61 
 125      A64D2827 
 125      D21E
 126 0318 C7917847 		.ascii	"\307\221xG\254Y\011\207!\024?u\017\317\342\322\355\304"
 126      AC590987 
 126      21143F75 
 126      0FCFE2D2 
 126      EDC4
 127 032a B35604D0 		.ascii	"\263V\004\320\332\263p\233Y\234\177`\235e\204ga\226"
 127      DAB3709B 
 127      599C7F60 
 127      9D658467 
ARM GAS  /tmp/ccON3Nu8.s 			page 10


 127      6196
 128 033c B23B5BCA 		.ascii	"\262;[\312\2677M(O)\347\276\365\033\300\002\344\225"
 128      B7374D28 
 128      4F29E7BE 
 128      F51BC002 
 128      E495
 129 034e 9C4E0BE5 		.ascii	"\234N\013\345\253\252\203S\212\343O\036\203\202\307"
 129      ABAA8353 
 129      8AE34F1E 
 129      8382C7
 130 035d BA121FA4 		.ascii	"\272\022\037\244,\016E\242\004\370\023\013\313\223J"
 130      2C0E45A2 
 130      04F8130B 
 130      CB934A
 131 036c 769AAA62 		.ascii	"v\232\252b\310\035\014\3049Ody\227\374\337\274\213\235"
 131      C81D0CC4 
 131      394F6479 
 131      97FCDFBC 
 131      8B9D
 132 037e F02E3112 		.ascii	"\360.1\022\237\234X\261\022\337\226\3236][i\233w\223"
 132      9F9C58B1 
 132      12DF96D3 
 132      365D5B69 
 132      9B7793
 133 0391 8F2C9852 		.ascii	"\217,\230R@\342M\212\325\264v\313@\261q\204\314\015"
 133      40E24D8A 
 133      D5B476CB 
 133      40B17184 
 133      CC0D
 134 03a3 E472DBFB 		.ascii	"\344r\333\3737\327#/!E\020)3\240\026'\356\261\377\244"
 134      37D7232F 
 134      21451029 
 134      33A01627 
 134      EEB1FFA4 
 135 03b7 418A397E 		.ascii	"A\2129~fub\2059J\366\037Je]\335f\374\225\216\027&3\371"
 135      66756285 
 135      394AF61F 
 135      4A655DDD 
 135      66FC958E 
 136 03cf D55F61DD 		.ascii	"\325_a\335\331\221c\246\275\333q\353\270D$*\206\353"
 136      D99163A6 
 136      BDDB71EB 
 136      B844242A 
 136      86EB
 137 03e1 E7C36EF3 		.ascii	"\347\303n\363\010\312\037\307pe\002\277\234\017W~%\306"
 137      08CA1FC7 
 137      706502BF 
 137      9C0F577E 
 137      25C6
 138 03f3 CBCD0815 		.ascii	"\313\315\010\025\"9f\216\250f\3523\210\316\235\376:"
 138      2239668E 
 138      A866EA33 
 138      88CE9DFE 
 138      3A
 139 0404 3B69A360 		.ascii	";i\243`f\352\375br,\216\316Y\363\313\237s\203\376\325"
 139      66EAFD62 
 139      722C8ECE 
ARM GAS  /tmp/ccON3Nu8.s 			page 11


 139      59F3CB9F 
 139      7383FED5 
 140 0418 1086E1F9 		.ascii	"\020\206\341\371Sb\267\005\234u\341\317\022a\360\355"
 140      5362B705 
 140      9C75E1CF 
 140      1261F0ED 
 141 0428 92A7BE83 		.ascii	"\222\247\276\203\304\243\276\343?\034\300\214\002\346"
 141      C4A3BEE3 
 141      3F1CC08C 
 141      02E6
 142 0436 97F4EEB0 		.ascii	"\227\364\356\260\325\275\225\217\263t\225\242t@zz\305"
 142      D5BD958F 
 142      B37495A2 
 142      74407A7A 
 142      C5
 143 0447 2A4A1507 		.ascii	"*J\025\007\217\344\007w\333\351\004-\0274\211\020\333"
 143      8FE40777 
 143      DBE9042D 
 143      17348910 
 143      DB
 144 0458 D38CC8C6 		.ascii	"\323\214\310\306\227m\372\201\005]\355\004\232\317\276"
 144      976DFA81 
 144      055DED04 
 144      9ACFBE
 145 0467 9F2D9F1A 		.ascii	"\237-\237\032\373\360\277Jz\323\025\246\246\026\000"
 145      FBF0BF4A 
 145      7AD315A6 
 145      A61600
 146 0476 91468D8A 		.ascii	"\221F\215\212\323\0173\232\031\010Y\312\015\025\306"
 146      D30F339A 
 146      190859CA 
 146      0D15C6
 147 0485 944266AF 		.ascii	"\224Bf\257\337\330z\257\327:\357\365\314\342\215\371"
 147      DFD87AAF 
 147      D73AEFF5 
 147      CCE28DF9 
 148 0495 5CFCA6EC 		.ascii	"\\\374\246\354\025\335\034\324vEyW\177Qmr\332.<\304"
 148      15DD1CD4 
 148      76457957 
 148      7F516D72 
 148      DA2E3CC4 
 149 04a9 470066CD 		.ascii	"G\000f\315\315&SW\007j\223g\330\3409\271\372c\324T\357"
 149      CD265357 
 149      076A9367 
 149      D8E039B9 
 149      FA63D454 
 150 04be 403F255B 		.ascii	"@?%[\0128,)C\022\000t\020Y\314\363e\334 \264D$\270A"
 150      0A382C29 
 150      43120074 
 150      1059CCF3 
 150      65DC20B4 
 151 04d6 DEEFAF55 		.ascii	"\336\357\257U\003l\350\326Q\360\016O\375\026\300\237"
 151      036CE8D6 
 151      51F00E4F 
 151      FD16C09F 
 152 04e6 824010D3 		.ascii	"\202@\020\323|\342\260\332\032{\261]mU_\332\367z\343"
 152      7CE2B0DA 
ARM GAS  /tmp/ccON3Nu8.s 			page 12


 152      1A7BB15D 
 152      6D555FDA 
 152      F77AE3
 153 04f9 730D8D0D 		.ascii	"s\015\215\015\317\304bov\305:\337\212uu\266\305\332"
 153      CFC4626F 
 153      76C53ADF 
 153      8A7575B6 
 153      C5DA
 154 050b DADB0FB5 		.ascii	"\332\333\017\265t4\264\021v\264\203\265w\2607:\376\004"
 154      7434B411 
 154      76B483B5 
 154      77B0373A 
 154      FE04
 155 051d 5A3C5C8C 		.ascii	"Z<\\\214"
 156              		.text
 157              		.section	.gnu.lto_chHeapFree.7af807e71a6b46e4,"",%progbits
 158 0000 789CCD58 		.ascii	"x\234\315XKh\\e\024\376\317\177\347\375\236\314L\236"
 158      4B685C65 
 158      14FECF7F 
 158      E7FD9ECC 
 158      4C9E
 159 0012 7D4CE242 		.ascii	"}L\342Bl1c\320*E\244\013W\256\264\264\201\352\246&S"
 159      6C3163D0 
 159      2A45A40B 
 159      57AEB4B4 
 159      81EAA626 
 160 0027 492E184C 		.ascii	"I.\030L\033E4\213\336\314dQ,&\241Zc\015yt!\212.\324"
 160      1B45348B 
 160      DECC6451 
 160      2C26A15A 
 160      630D7974 
 161 003f BA68454A 		.ascii	"\272hEJ'\350\242Q\3524\210\330\004\305\006j\243+\213"
 161      27E8A251 
 161      EA3488D8 
 161      04C5066A 
 161      A32B8B
 162 0052 C1244D53 		.ascii	"\301$MS\257\347\334\367\014\323\346\336i\220^\310\371"
 162      AFE7DCF7 
 162      0CD3E6DE 
 162      69905EC8 
 162      F9
 163 0063 5FF7FFCE 		.ascii	"_\367\377\3169\3379\347\277\377\2043\316\312\237\"\376"
 163      39DF39E7 
 163      BFFF8433 
 163      CECA9F22 
 163      FE
 164 0074 7D9A606C 		.ascii	"}\232`l\027\015j\031\340\033\300A@)p\027c\022w\243p"
 164      170D6A19 
 164      E01BC041 
 164      40297017 
 164      631277A3 
 165 0089 B9001B70 		.ascii	"\271\000\033p\203\007\245\007\274(\275\334G\253\001"
 165      8307A507 
 165      BC28BDDC 
 165      47AB01
 166 0098 5AF571BF 		.ascii	"Z\365q\277\321\367\0036\020\340!\232\011\322LP\355'"
 166      D1F70336 
ARM GAS  /tmp/ccON3Nu8.s 			page 13


 166      10E0219A 
 166      09D24C50 
 166      ED27
 167 00aa A81FE211 		.ascii	"\250\037\342\021\352\207\251\037V\373\312|\204G\251"
 167      EA87A91F 
 167      56FBCA7C 
 167      8447A9
 168 00b9 1FA37E14 		.ascii	"\037\243~\024\260\201\030\217\323L\015\315\304\001\033"
 168      B081188F 
 168      D34C0DCD 
 168      C4011B
 169 00c8 A88124CA 		.ascii	"\250\201$\312\204bC\022R(S\000h4\260\243\\p\271=^\237"
 169      84624312 
 169      52285300 
 169      6834B0A3 
 169      5C70B93D 
 170 00de 3F100C85 		.ascii	"?\020\014\205#\321X\274&\221L\301\321\347i\225\245["
 170      23D158BC 
 170      26914CC1 
 170      D1E76995 
 170      A55B
 171 00f0 D869493A 		.ascii	"\330iI:q\365\303\277O5\2745\225\033\221\376\225e\020"
 171      71F5C3BF 
 171      4F35BC35 
 171      951B91FE 
 171      956510
 172 0103 69290BEC 		.ascii	"i)\013\354\000\366 \2554\344\255\365Q\267\025F\213\337"
 172      00F620AD 
 172      34E4ADF5 
 172      51B71546 
 172      8BDF
 173 0115 9D06E984 		.ascii	"\235\006\351\2044pC\226\243\"\021cg\233t\346c\311?%"
 173      34704396 
 173      A3221163 
 173      679B74E6 
 173      63C93F25 
 174 0129 ADCBB220 		.ascii	"\255\313\262 \022\245\216\367\270l\2327V|\327\352\225"
 174      12A58EF7 
 174      B86C9A37 
 174      567CD7EA 
 174      95
 175 013a DD6DE3C3 		.ascii	"\335m\343\303'\253\330&\375\370\373s\027\245\301\202"
 175      27ABD826 
 175      FDF8FB73 
 175      17A5C182 
 176 014a 2CEFB1AF 		.ascii	",\357\261\257\352\213\342D5\026\236-\276m\335v\237\361"
 176      EA8BE244 
 176      35169E2D 
 176      BE6DDD76 
 176      9FF1
 177 015c 2EC9D79C 		.ascii	".\311\327\2343\361\365\360{\325\270t\333\271*i\334\022"
 177      33F1F5F0 
 177      7BD5B874 
 177      DBB92A69 
 177      DC12
 178 016e 28BB7AE6 		.ascii	"(\273z\346\2569\337c\245\316\346\236\302\371\342d5\271"
 178      AE39DF63 
ARM GAS  /tmp/ccON3Nu8.s 			page 14


 178      A5CEE69E 
 178      C2F9E264 
 178      35B9
 179 0180 F76515B9 		.ascii	"\367e\025\2717;<t\037'Q\341\247\352\022\342f\025\201"
 179      373B3C74 
 179      1F2751E1 
 179      A7EA12E2 
 179      661581
 180 0193 FABF82FB 		.ascii	"\372\277\202\373sU\301-,\025g\254\247,\263\271\355\327"
 180      7355C12D 
 180      2C1567AC 
 180      A72CB3B9 
 180      EDD7
 181 01a5 A1D106C9 		.ascii	"\241\321\006\311\242\215\263\035`\317\267\225Cf2q\366"
 181      A28DB31D 
 181      60CFB795 
 181      43663271 
 181      F6
 182 01b6 B0BD5D85 		.ascii	"\260\275]\205\337\206NZ\365\2719{d\243\235=\300>\343"
 182      DF864E5A 
 182      F5B9397B 
 182      64A39D3D 
 182      C03EE3
 183 01c9 85ABB2FC 		.ascii	"\205\253\262\374\313?\177,\254C\342\001`\035p\036Z\030"
 183      CB3F7F2C 
 183      AC43E201 
 183      601D701E 
 183      5A18
 184 01db 871E405A 		.ascii	"\207\036@Z;\340\002\016\\\330Nc\353\326\026=\014I\360"
 184      3BE0020E 
 184      5CD84E63 
 184      EBD6163D 
 184      0C49F0
 185 01ee A2107C28 		.ascii	"\242\020|(\360\363\212f\006H\004I\204H\204ID\350\225"
 185      F0F38A66 
 185      06480449 
 185      84488449 
 185      44E895
 186 0201 28BD12A3 		.ascii	"(\275\022\243a\234D\015\315%\250\227\244^\212D-\211"
 186      619C440D 
 186      CD25A897 
 186      A45E8A44 
 186      2D89
 187 0213 3A9AAB27 		.ascii	":\232\253'\321@\303F\332\326D\303-4\334Jb\033\211\355"
 187      D140C346 
 187      DAD644C3 
 187      2D34DC4A 
 187      621B89ED 
 188 0227 24D2B4D0 		.ascii	"$\322\264\320Lf\264h6\341\343f\203\2224\222V\307\252"
 188      4C66B468 
 188      36E1E366 
 188      83923492 
 188      56C7AA
 189 023a E5AADD3D 		.ascii	"\345\252\335=Z\310\360\331\257I,\034\241\235\362F\270"
 189      5AC8F0D9 
 189      AF492C1C 
 189      A19DF246 
ARM GAS  /tmp/ccON3Nu8.s 			page 15


 189      B8
 190 024b C8BE5D9C 		.ascii	"\310\276]\234^\372\001:\340\033\274Ft\001'\236<V\222"
 190      5EFA013A 
 190      E01BBC46 
 190      7401279E 
 190      3C5692
 191 025e DA295184 		.ascii	"\332)Q\204\"s\251\2570\326\317\326\244cRL\004oV\371"
 191      2273A9AF 
 191      30D6CFD6 
 191      A463524C 
 191      046F56F9 
 192 0272 C6AB33F5 		.ascii	"\306\2533\365\"\370z\210?\345%\021\374\372n\034\011"
 192      22F87A88 
 192      3FE52511 
 192      FCFA6E1C 
 192      09
 193 0283 9758FE78 		.ascii	"\227X\376x~i\334\243k\0214E|U\306\234\302\327.\261\334"
 193      7E69DCA3 
 193      6B113445 
 193      7C55C69C 
 193      C2D72EB1 
 194 0298 FC95BF66 		.ascii	"\374\225\277f\0143\\;\331'\022>\355\030H\255\273W\204"
 194      0C335C3B 
 194      D927123E 
 194      ED1848AD 
 194      BB5784
 195 02ab 80D67D52 		.ascii	"\200\326}R\204\340\030\373\000\001B\210u@\315e|:Us\260"
 195      84E018FB 
 195      00014288 
 195      7540CD65 
 195      7C3A5573 
 196 02c0 05ADD5EF 		.ascii	"\005\255\325\357T\210\277\226\227M\003\334d2>m\242\241"
 196      5488BF96 
 196      974D03DC 
 196      64323E6D 
 196      A2A1
 197 02d2 EA294453 		.ascii	"\352)DSA\303\250\237@\335\032\210`\222\241\340|4!\350"
 197      41C3A89F 
 197      40DD1A88 
 197      6092A1E0 
 197      7C3421E8 
 198 02e6 389E7EF6 		.ascii	"8\236~\366&\206a'\333!B\244\362nK\316U\"1\232\325\214"
 198      26866127 
 198      DB2142A4 
 198      F26E4BCE 
 198      5522319A 
 199 02fc 4430916E 		.ascii	"D0\221nW*k\030\002T;\307\000mu\257\257\324wAKb\375\366"
 199      572A6B18 
 199      02543BC7 
 199      006D75AF 
 199      AFD47741 
 200 0314 8BB4E455 		.ascii	"\213\264\344U\3026\2708=Z\344\026B\301\0322\237Bz\356"
 200      C236B838 
 200      3D5AE416 
 200      42C11A32 
 200      9F427AEE 
 201 0328 057DDDAB 		.ascii	"\005}\335\253X\030W\244I\035T\242\316m\270\232?f\370"
ARM GAS  /tmp/ccON3Nu8.s 			page 16


 201      581857A4 
 201      491D54A2 
 201      CE6DB89A 
 201      3F66F8
 202 033b E9430825 		.ascii	"\351C\010%`>u\345\270\261\342G\230.\322\207\231t\035"
 202      603E75E5 
 202      B8B1E247 
 202      982ED287 
 202      99741D
 203 034e 2CB382D5 		.ascii	",\263\202\325\036\377=\245P@\365f-\177v\342!]C@a^\017"
 203      1EFF3DA5 
 203      5040F566 
 203      2D7F76E2 
 203      215D4340 
 204 0365 DE413BC1 		.ascii	"\336A;\301\243\\\037h3\000\312(\013\252\325p}\340\035"
 204      A35C1F68 
 204      3300CA28 
 204      0BAAD570 
 204      7DE01D
 205 0378 B813AB21 		.ascii	"\270\023\253!\325\216\371+K\263\006\363A\205S\327\006"
 205      D58EF92B 
 205      4BB306F3 
 205      418553D7 
 205      06
 206 0389 495A9169 		.ascii	"IZ\221i=I=\026\373\246\307\212\031\003\332\334d\230"
 206      3D493D16 
 206      FBA6C78A 
 206      1903DADC 
 206      6498
 207 039b 10364C98 		.ascii	"\0206L\2301\2229Tb\302\0050m\370\012\2521\302JA\250"
 207      31923954 
 207      62C20530 
 207      6DF80AAA 
 207      31C24A41 
 208 03b0 2C90114D 		.ascii	",\220\021M\377\373\313\177\032)\020.\321\377\272\251"
 208      FFFBCB7F 
 208      1A29102E 
 208      D1FFBAA9 
 209 03c0 FEB063ED 		.ascii	"\376\260c\355\010=3\022T\201\315\272\324\241w\233\320"
 209      083D3312 
 209      5481CDBA 
 209      D4A1779B 
 209      D0
 210 03d1 8FDA3E02 		.ascii	"\217\332>\002T\350.b\216\320\317-/p\247\3706LWh\"bV"
 210      54E82E62 
 210      8ED0CF2D 
 210      2F70A7F8 
 210      364C5768 
 211 03e8 97E70CF2 		.ascii	"\227\347\014\362\"\025\253\256\242\265\025\253.\212"
 211      2215ABAE 
 211      A2B515AB 
 211      2E8A
 212 03f6 1095AB2E 		.ascii	"\020\225\253.\246$gTUy#\252O\307K\"\321o\272\363\232"
 212      A6246754 
 212      557923AA 
 212      4FC74B22 
 212      D16FBAF3 
ARM GAS  /tmp/ccON3Nu8.s 			page 17


 213 040b 43BAB462 		.ascii	"C\272\264b\331e\321\027\267\246ATK\203s+\013F%\324\250"
 213      D965D117 
 213      B7A64154 
 213      4B83732B 
 213      0B4625D4 
 214 0420 BA628AC7 		.ascii	"\272b\212\307Z\317\266\327\271\371\313\206\027\211\022"
 214      5ACFB6D7 
 214      B9F9CB86 
 214      178912
 215 042f 2FDE30BD 		.ascii	"/\3360\275\350s\354\205\002\234\320\201\223z<\024\264"
 215      E873EC85 
 215      029CD081 
 215      937A3C14 
 215      B4
 216 0440 D192E248 		.ascii	"\321\222\342Hl\024\225\374\031#\256)t\266\213~\361\226"
 216      6C1495FC 
 216      1923AE29 
 216      74B68B7E 
 216      F196
 217 0452 44AB1617 		.ascii	"D\253\026\027\010$\256F+\367\2145\315\234\263\202\200"
 217      0824AE46 
 217      2BF78C35 
 217      CD9CB382 
 217      80
 218 0463 DA7771E5 		.ascii	"\332wq\345\246\241\243n\363\002L\320\237\327\352\300"
 218      A6A1A36E 
 218      F3024CD0 
 218      9FD7EAC0 
 219 0473 F525C093 		.ascii	"\365%\300\223\2263\344T\011Muv\253\370ri\025\357-\371"
 219      9633E454 
 219      094D7576 
 219      ABF87269 
 219      15EF2DF9 
 220 0487 D0EAD84F 		.ascii	"\320\352\330O8\256\342z=\003c\372A\264\266`\304\245"
 220      38AEE27A 
 220      3D0363FA 
 220      41B4B660 
 220      C4A5
 221 0499 E11EBF72 		.ascii	"\341\036\277r\215\010Q\271\336\232\224\257\\cyY4\225"
 221      8D0851B9 
 221      DE9A94AF 
 221      5C637959 
 221      3495
 222 04ab 9D8E71FD 		.ascii	"\235\216q\375t^3\313b\313]\023`\003\343r\363#FYl-\311"
 222      745E33CB 
 222      62CB5D13 
 222      6003E372 
 222      F3234659 
 223 04c2 DE8D6BE1 		.ascii	"\336\215k\341\016\311\273\015MB\2602\327\267\343\202"
 223      0EC9BB0D 
 223      4D42B032 
 223      D7B7E382 
 224 04d2 D3E4BD8B 		.ascii	"\323\344\275\213\355\010\250\035\207kf\362\24675y\253"
 224      ED08A81D 
 224      876B66F2 
 224      A6373579 
 224      AB
ARM GAS  /tmp/ccON3Nu8.s 			page 18


 225 04e3 C8305BE7 		.ascii	"\3100[\347xZ]\330O\377\327\302KrB\013\351\352\255i\203"
 225      785A5DD8 
 225      4FFFD7C2 
 225      4B72420B 
 225      E9EAAD69 
 226 04f8 C2160D7C 		.ascii	"\302\026\015|\237\251r\217\251r\267\343\257\236\232"
 226      9FA9728F 
 226      A972B7E3 
 226      AF9E9A
 227 0507 3C49FD96 		.ascii	"<I\375\226\2638iP\326\274\031\367KA\363\254\331r\277"
 227      B3386950 
 227      D6BC19F7 
 227      4B41F3AC 
 227      D972BF
 228 051a 4CA1B2EF 		.ascii	"L\241\262\357\331\000F\373\020\335?g\331\300\324-\257"
 228      D90046FB 
 228      10DD3F67 
 228      D9C0D42D 
 228      AF
 229 052b BE596700 		.ascii	"\276Yg\000\355\244\273\351\203/\213\235\231\247\273"
 229      EDA4BBE9 
 229      832F8B9D 
 229      99A7BB
 230 053a C54EF1D9 		.ascii	"\305N\361\331}\007\333\036omk},\223y\245/s\344\325L"
 230      7D07DB1E 
 230      6F6D6B7D 
 230      2C9379A5 
 230      2F73E4D5 
 231 054f DF916C26 		.ascii	"\337\221l&\333\335\375RGok\226\361\303\275\274\273\327"
 231      DBDDFD52 
 231      476F6B96 
 231      F1C3BDBC 
 231      BBD7
 232 0561 4DA3DEFF 		.ascii	"M\243\336\377\000{\227#\240"
 232      007B9723 
 232      A0
 233              		.text
 234              		.section	.gnu.lto_chHeapStatus.7af807e71a6b46e4,"",%progbits
 235 0000 789CAD55 		.ascii	"x\234\255U\313KTa\024?\347\273\217y\351\370l1\264\021"
 235      CB4B5461 
 235      143FE7BB 
 235      8F79E9F8 
 235      6C31B411 
 236 0014 37819283 		.ascii	"7\201\222\203\025AD\270\350\017\250\320\001\333$\343"
 236      154144B8 
 236      E80FA8D0 
 236      01DB24E3 
 237 0024 18E3852C 		.ascii	"\030\343\205,\323V\272\360\2163\013\011\003\231\032"
 237      D356BAF0 
 237      8E330B09 
 237      03991A
 238 0033 46AC4512 		.ascii	"F\254E\022R9\245\320\3120h\014\027jDe\233\214 \351\201"
 238      5239A5D0 
 238      CA30680C 
 238      176A4465 
 238      9B8C20E9 
 239 0048 042E7211 		.ascii	"\004.r\021\224\213n\347\334\307\3145\204\246\307\205"
ARM GAS  /tmp/ccON3Nu8.s 			page 19


 239      948B6EE7 
 239      DCC7CC35 
 239      84A6C785 
 240 0058 F9CE77BF 		.ascii	"\371\316w\277s\316\357\367\235\337=\207\021 \340\327"
 240      73CEEFF7 
 240      9DDF3D87 
 240      1120E0D7 
 241 0068 E70CFDB6 		.ascii	"\347\014\375\266T\200f~\011\000R\004\012!\001\350B\246"
 241      5480667E 
 241      09005204 
 241      0A2101E8 
 241      42A6
 242 007a 4596900C 		.ascii	"E\226\220\014\312H!\250\230\253*\024\366z\330\353\021"
 242      CA4821A8 
 242      98AB2A14 
 242      F67AD8EB 
 242      11
 243 008b 5EDEFB78 		.ascii	"^\336\373x\357E2\350C?\255~D\202C\030\022\222\254\250"
 243      EF4532E8 
 243      433FAD7E 
 243      44824318 
 243      1292ACA8 
 244 009f 1EAFCF8F 		.ascii	"\036\257\317\217C\247\371\010|\3650\251\353\351\365"
 244      43A7F908 
 244      7CF530A9 
 244      EBE9F5
 245 00ae 4FD313A1 		.ascii	"O\323\023\241\3137\207\307\364\037\206\201\032\273b"
 245      CB3787C7 
 245      F41F8681 
 245      1ABB62
 246 00bd 08EDB4C3 		.ascii	"\010\355\264\303:\3230\273\373\261\322\362[\351\214"
 246      3AD330BB 
 246      FBB1D2F2 
 246      5BE98C
 247 00cc 3B4D2A2D 		.ascii	";M*-M\377\372\361\344\222\236\312\033F\213\306\365\224"
 247      4DFFFAF1 
 247      E4929ECA 
 247      1B468BC6 
 247      F594
 248 00de 44F56EF5 		.ascii	"D\365n\365\332_P\345\215\325\345I$\312\304\027\303\250"
 248      DA5F50E5 
 248      8DD5E549 
 248      24CAC417 
 248      C3A8
 249 00f0 28B5B089 		.ascii	"(\265\260\211|\372\325\250\177,1\242\033\306\220\206"
 249      7CFAD5A8 
 249      7F2C31A2 
 249      1BC69086 
 250 0100 4A895C0F 		.ascii	"J\211\\\017\323\331\220\356\272\242\200\006,-s>}\305"
 250      D3D990EE 
 250      BAA28006 
 250      2C2D733E 
 250      7DC5
 251 0112 9DA908D8 		.ascii	"\235\251\010\330_Z\246>\337UP\222\262\302\277\313\232"
 251      5F5AA63E 
 251      DF555092 
 251      B2C2BFCB 
ARM GAS  /tmp/ccON3Nu8.s 			page 20


 251      9A
 252 0123 15F975C3 		.ascii	"\025\371u\303xt\365\363\207\025\254\255E\350Aj\302("
 252      7874F5F3 
 252      8715ACAD 
 252      45E8416A 
 252      C228
 253 0135 DEC67A90 		.ascii	"\336\306z\220\310\336%+\223\315\221U\220\234*Gx\200"
 253      C8DE252B 
 253      93CD9155 
 253      909C2A47 
 253      7880
 254 0147 84F3DAC7 		.ascii	"\204\363\332\307>;\314o\247\005\310)\225\361RN\213\034"
 254      3E3BCC6F 
 254      A705C829 
 254      95F1524E 
 254      8B1C
 255 0159 B4C32AEC 		.ascii	"\264\303*\354\260J;\254\212\320\260\232\201j\300T\024"
 255      B04A3BAC 
 255      8AD0B09A 
 255      816AC054 
 255      14
 256 016a 1448E9FA 		.ascii	"\024H\351\372X\235\345\266\202\255TSmz\332\3145\302"
 256      589DE5B6 
 256      82AD5453 
 256      6D7ADACC 
 256      35C2
 257 017c 33202DC1 		.ascii	"3 -\301\342\306\302\343\264\024\305\373\224\034G\205"
 257      E2C6C2E3 
 257      B414C5FB 
 257      941C4785 
 258 018c 8B53DD95 		.ascii	"\213S\335\225E\270%\244g0\274\235\2745\265\327\211S"
 258      45B825A4 
 258      6730BC9D 
 258      BC35B5D7 
 258      8953
 259 019e 07615B1F 		.ascii	"\007a[\037\321\365\243\024\335\203\302\025-;\321\263"
 259      D1F5A314 
 259      DD83C215 
 259      2D3BD1B3 
 260 01ae 530554CF 		.ascii	"S\005T\317 \014\320\015\033\241AC\317u\230 \016o\034"
 260      200CD00D 
 260      1BA14143 
 260      CF759820 
 260      0E6F1C
 261 01c1 B1C8D589 		.ascii	"\261\310\325\211.\306\347 [\211\000\026K\245\206\276"
 261      2EC6E720 
 261      5B890016 
 261      4BA586BE 
 262 01d1 185A2104 		.ascii	"\030Z!\004\246\361\354\021\305\334x\356\200\303\340"
 262      A6F1EC11 
 262      C5DC78EE 
 262      80C3E0
 263 01e0 652CCE30 		.ascii	"e,\3160\035s\271\006\307\341s;\266\223\363S\252\343"
 263      1D73B906 
 263      C7E1733B 
 263      B693F353 
 263      AAE3
ARM GAS  /tmp/ccON3Nu8.s 			page 21


 264 01f2 F133383D 		.ascii	"\36138=\315$q#L\363\366\230\206\201\335\257\347\276"
 264      CD247123 
 264      4CF3F698 
 264      8681DDAF 
 264      E7BE
 265 0204 1FAC0192 		.ascii	"\037\254\001\222R\202\026U\032\315\364p\325\212U\365"
 265      52821655 
 265      1ACDF470 
 265      D58A55F5 
 266 0214 9BF19955 		.ascii	"\233\361\231U\341\020\224\231\365:\330\2474>0\267$Z"
 266      E1109499 
 266      F53AD8A7 
 266      343E30B7 
 266      245A
 267 0226 B9451388 		.ascii	"\271E\023\210\243h\267\246\316\244\021\266u\336\235"
 267      A368B7A6 
 267      CEA411B6 
 267      75DE9D
 268 0235 2E63E817 		.ascii	".c\350\027A\007\270\334\004Vl\264\0167Z\331nhJ\001%"
 268      4107B8DC 
 268      04566CB4 
 268      0E375AD9 
 268      6E684A01 
 269 024a 3992EC74 		.ascii	"9\222\354tP\202\004\024g\006\363x\243(LE\034%S5\264"
 269      50820414 
 269      6706F378 
 269      A3284C45 
 269      1C255335 
 270 025f 995FCF3C 		.ascii	"\231_\317<A\307Yi\263\266\026+k)Vv\344\217+\263\232"
 270      41C75969 
 270      B3B6162B 
 270      6B295676 
 270      E48F2BB3 
 271 0274 46B5E5FB 		.ascii	"F\265\345\373\226[)\310\027\330!\337?\221,Aj3q\260\000"
 271      965B29C8 
 271      17D821DF 
 271      3F912C41 
 271      6A3371B0 
 272 0289 5C4CB13F 		.ascii	"\\L\261?\247\240n\22073!*O\271\227\215\256\201D\215"
 272      A7A06E90 
 272      3733212A 
 272      4FB9978D 
 272      AE81448D 
 273 029d 23BFCDEC 		.ascii	"#\277\315\354!1\224\033\331\320\032\310\324b\362b\206"
 273      2131941B 
 273      D9D01AC8 
 273      D462F262 
 273      86
 274 02ae 3E795019 		.ascii	">yP\031\315F\371\316\036s|R\233\013\337\213\343S\305"
 274      CD46F9CE 
 274      1E737C52 
 274      9B0BDF8B 
 274      E353C5
 275 02c1 D0C19DE3 		.ascii	"\320\301\235\343\343\265j[\236\233}o\253H\227OP\035"
 275      E3B56A5B 
 275      9E9B7D6F 
 275      AB48974F 
ARM GAS  /tmp/ccON3Nu8.s 			page 22


 275      501D
 276 02d3 01927847 		.ascii	"\001\222xGJ\334\271p\204\377c\254)2\212ST\375?\246H"
 276      4ADCB970 
 276      84FF63AC 
 276      29328A53 
 276      54FD3FA6 
 277 02e8 D84CD5CE 		.ascii	"\330L\325\316\024-\337yP\220\274&\356\350\022a\257\364"
 277      142DDF79 
 277      5090BC26 
 277      EEE81261 
 277      AFF4
 278 02fa 141274FB 		.ascii	"\024\022t\373.>|\011\205\026\250\261B\332x(\030n\337"
 278      2E3E7C09 
 278      8516A8B1 
 278      42DA7828 
 278      186EDF
 279 030d 39AD337C 		.ascii	"9\2553|\274[\353\324N\264v4\037njn:\024\016_\350\017"
 279      BC5BEBD4 
 279      4EB47634 
 279      1F6E6A6E 
 279      3A140E5F 
 280 0323 F75D0AF7 		.ascii	"\367]\012\367\367\305\302\261\356\356\263\321\336\246"
 280      F7C5C2B1 
 280      EEEEB3D1 
 280      DEA6
 281 0331 18888BBD 		.ascii	"\030\210\213\275x^\364\017\374\004\242P\201\210"
 281      785EF40F 
 281      FC04A250 
 281      8188
 282              		.text
 283              		.section	.gnu.lto_.symbol_nodes.7af807e71a6b46e4,"",%progbits
 284 0000 789C4D8C 		.ascii	"x\234M\214\273\012\302@\024Dgv\263k^\340'\344So\304"
 284      BB0AC240 
 284      14446776 
 284      B36B5EE0 
 284      27E4536F 
 285 0015 42B110D1 		.ascii	"B\261\020\321\3166\237\222\336F\260V\322\246\361\375"
 285      CE369F92 
 285      DE46B056 
 285      D2A6F1FD 
 286 0025 16B324B8 		.ascii	"\026\263$\270\336f8\303\231\253\240\320'\332S\007\012"
 286      DE6638C3 
 286      99ABA0D0 
 286      27DA5307 
 286      0A
 287 0036 305B0122 		.ascii	"0[\001\"\2331\315\236\260\242y\245\260m\363\001\325"
 287      9B31CD9E 
 287      B0A279A5 
 287      B06DF301 
 287      D5
 288 0047 91A2FE9C 		.ascii	"\221\242\376\234\007\031\210V'\212\366\255:S\202?\351"
 288      07198856 
 288      278AF6AD 
 288      3A53823F 
 288      E9
 289 0058 4DE5A40B 		.ascii	"M\345\244\013\305\370\2267\212\355\376\346\344\235\322"
 289      C5F89637 
ARM GAS  /tmp/ccON3Nu8.s 			page 23


 289      8AEDFEE6 
 289      E49DD2
 290 0067 F3F4A284 		.ascii	"\363\364\242\204\236\236\224\350G\032\021\252\355\207"
 290      9E9E94E8 
 290      471A11AA 
 290      ED87
 291 0075 5AC72877 		.ascii	"Z\307(w.#\224\243:\323&m\331$\250\246\216\023\024\363"
 291      2E2394A3 
 291      3AD3266D 
 291      D924A8A6 
 291      8E1314F3 
 292 0089 3A0B0CD6 		.ascii	":\013\014\326\213\006m\214\302\315l\2475<t3\233\240"
 292      8B066D8C 
 292      C2CD6CA7 
 292      353C7433 
 292      9BA0
 293 009b 5C3619A6 		.ascii	"\\6\031\246\355\333\260\231M\352\014_3`U\223"
 293      EDDBB099 
 293      4DEA0C5F 
 293      33605593 
 294              		.text
 295              		.section	.gnu.lto_.refs.7af807e71a6b46e4,"",%progbits
 296 0000 789C25C4 		.ascii	"x\234%\304\311\021\000 \014\304\260\2659B\027\364\337"
 296      C9110020 
 296      0CC4B0B5 
 296      394217F4 
 296      DF
 297 0011 2599410F 		.ascii	"%\231A\017\031s\363\255\200\322\272\341d\211\333\262"
 297      1973F3AD 
 297      80D2BAE1 
 297      6489DBB2 
 298 0021 38920709 		.ascii	"8\222\007\011\215\000o"
 298      8D006F
 299              		.text
 300              		.section	.gnu.lto_.decls.7af807e71a6b46e4,"",%progbits
 301 0000 789CBD5A 		.ascii	"x\234\275Z{p\024E\032\357\231Mv\263I\020\304\322\003"
 301      7B701445 
 301      1AEF994D 
 301      76B34910 
 301      C4D203
 302 0013 CF3BD62B 		.ascii	"\317;\326+\275\007\226\011\002\207Xe\011\026U\212\236"
 302      BD079609 
 302      02875865 
 302      0916558A 
 302      9E
 303 0024 8FBBB3AC 		.ascii	"\217\273\263\254\362\277uX\006\262\272\257\233\235\360"
 303      F2BF7558 
 303      06B2BAAF 
 303      9B9DF0
 304 0033 B87F9C04 		.ascii	"\270\177\234\004\014(\017#\312\353\004\014\"h\0244A"
 304      0C280F23 
 304      CAEB040C 
 304      22681434 
 304      41
 305 0044 8EF038C2 		.ascii	"\216\3608\302\210\227\030\005\223H$A!a}\021^BP\301\240"
 305      88971805 
 305      93482441 
ARM GAS  /tmp/ccON3Nu8.s 			page 24


 305      21617D11 
 305      5E4250C1 
 306 0059 60EEEB9E 		.ascii	"`\356\353\236\236\335\231\316\314fv\301\233J\367tf\273"
 306      9EDD99CE 
 306      CC6676C1 
 306      9B4AF774 
 306      66BB
 307 006b 7FFDFB1E 		.ascii	"\177\375\373\036\375\365c\206G<z\300\205P\037\\ec\020"
 307      FDF56386 
 307      473C7AC0 
 307      85501F5C 
 307      656310
 308 007e 5AE94608 		.ascii	"Z\351F\010\376\320](u\345CZ\013i\003\244M\2206s\010"
 308      FED05D28 
 308      75E5435A 
 308      0B6903A4 
 308      4D903673 
 309 0093 ED80F42E 		.ascii	"\355\200\364.\244\275\220Z \265A:\000\011\240P\007\334"
 309      A4BD905A 
 309      20B5413A 
 309      0009A050 
 309      07DC
 310 00a5 3F8594E0 		.ascii	"?\205\224\340\220\351\302\030\203 m\203T\013\251\006"
 310      90E9C218 
 310      83206D83 
 310      540BA906 
 311 00b5 D24E486D 		.ascii	"\322NHm\220Z!}\004\251\036R5\244\243\320v\003\244N("
 311      905A217D 
 311      04A91E52 
 311      35A4A3D0 
 311      7603A44E 
 312 00ca EF83BB07 		.ascii	"\357\203\273\007\356u\220v\341\377!\265@\332\017\351"
 312      EE759076 
 312      E1FF21B5 
 312      40DA0FE9 
 313 00da 20A4C348 		.ascii	" \244\303H\353W\347\2109q\224\207\361\302\334\207B\312"
 313      EB57E788 
 313      39719487 
 313      F1C2DC87 
 313      42CA
 314 00ec 857415A4 		.ascii	"\205t\025\244B\244\365\321F\373\354\206\3621H\255\234"
 314      42A4F5D1 
 314      46FBEC86 
 314      F23148AD 
 314      9C
 315 00fd 99A3915B 		.ascii	"\231\243\221['\345\346\224\023\356\263\205\352)\007"
 315      27E5E694 
 315      13EEB385 
 315      EA2907
 316 010c 697A790B 		.ascii	"izy\013R\015\244\215\014?\254W;~\023\250\256j(\327z"
 316      520DA48D 
 316      0C3FAC57 
 316      3B7E13A8 
 316      AE6A28D7 
 317 0121 CACFC847 		.ascii	"\312\317\310G\347\211\271\277\006)\217r;l\301\357\000"
 317      E789B9BF 
 317      06298F72 
ARM GAS  /tmp/ccON3Nu8.s 			page 25


 317      3B6CC1EF 
 317      00
 318 0132 E5EEA2FD 		.ascii	"\345\356\242\375\036\2406\304\034\353\260\374\234\246"
 318      1EA036C4 
 318      1CEBB0FC 
 318      9CA6
 319 0140 BFE30CC7 		.ascii	"\277\343\014\307\035\224#\346\245s\314\2456\254\241"
 319      1D9423E6 
 319      A573CCA5 
 319      36ACA1
 320 014f 3CB11E4F 		.ascii	"<\261\036OP=\032u\307\362\305rx\014\334\016\030\370"
 320      503D1A75 
 320      C7F2C572 
 320      780CDC0E 
 320      18F8
 321 0161 1EA45C73 		.ascii	"\036\244\\sh\237-\006\216\2303\366\255zH'\031~\330'"
 321      689F2D06 
 321      8E9833F6 
 321      AD7A4827 
 321      197ED827 
 322 0175 0733FCDA 		.ascii	"\0073\374\332(\307j\312\261\223r\321y\324\033l\334\300"
 322      28C76ACA 
 322      B19372D1 
 322      79D41B6C 
 322      DCC0
 323 0187 69FE7FD8 		.ascii	"i\376\177\330\306\256.\332\207Q_\357\303\275\211\352"
 323      C6AE2EDA 
 323      87515FEF 
 323      C3BD89EA 
 324 0197 EB14C367 		.ascii	"\353\024\303g\004Z\243T\251\211\257O\327\014W\252\312"
 324      045AA354 
 324      A989AF4F 
 324      D70C57AA 
 324      CA
 325 01a8 D5BEBEDD 		.ascii	"\325\276\276\335\023\321uh\251\002WU\205\242p\262\300"
 325      13D17568 
 325      A9025755 
 325      85A270B2 
 325      C0
 326 01b9 DD752D7A 		.ascii	"\335u-z\214\023\270\253\274\310G\012\205^\202\212\220"
 326      8C13B8AB 
 326      BCC8470A 
 326      855E828A 
 326      90
 327 01ca C0BDC25D 		.ascii	"\300\275\302]GK\217\2724<\036\215\344\320HT\015\355"
 327      474B8FBA 
 327      343C1E8D 
 327      E4D04854 
 327      0DED
 328 01dc 2B15E595 		.ascii	"+\025\345\225_#\253\353\367h=\356@y]q\021x\014\260\226"
 328      5F23ABEB 
 328      F7683DEE 
 328      40795D71 
 328      11780CB0 
 329 01f1 1B61AC22 		.ascii	"\033a\254\"p\3538\236%\232\250L\\X\273x\370Je\317\\"
 329      70EB389E 
 329      259AA84C 
ARM GAS  /tmp/ccON3Nu8.s 			page 26


 329      5C58BB78 
 329      F84A65CF 
 330 0206 A5AFEF29 		.ascii	"\245\257\357)\226\350\204\002[\242\257Q\242.D@\275h"
 330      96E88402 
 330      5BA2AF51 
 330      A22E4440 
 330      BD68
 331 0218 BEA294E3 		.ascii	"\276\242\224\343\206\223\233\300\012V\255nF\257\202"
 331      86939BC0 
 331      0A56AD6E 
 331      46AF82
 332 0227 0889BA79 		.ascii	"\010\211\272y\355\337q\345\200/p\325\234\027Z\257\341"
 332      EDDF71E5 
 332      802F70D5 
 332      9C175AAF 
 332      E1
 333 0238 38C07B95 		.ascii	"8\300{\225\033\231$\232\3535\023\207\377\365\012\030"
 333      1B99249A 
 333      EB351387 
 333      FFF50A18 
 334 0248 8FFC4C0B 		.ascii	"\217\374L\0138\212\0156\252\213hl=\003\251\003m\354"
 334      388A0D36 
 334      AA8B686C 
 334      3D03A903 
 334      6DEC
 335 025a AF013055 		.ascii	"\257\0010U\303\217Y\231\352-\263\006\012\320\263)\015"
 335      C38F5999 
 335      EA2DB306 
 335      0AD0B329 
 335      0D
 336 026b 0C45CF63 		.ascii	"\014E\317c\024\337\374/\271\2442\024^G\360\245\264\321"
 336      14DFFC2F 
 336      B9A43214 
 336      5E47F0A5 
 336      B4D1
 337 027d B6A0FE4E 		.ascii	"\266\240\376NE\311\023\270Zn(\340t2\304\007\306\341"
 337      45C913B8 
 337      5A6E28E0 
 337      7432C407 
 337      C6E1
 338 028f 6140E036 		.ascii	"a@\3406[\240\275\326\222 +\352\356\212B%G{\216,\224"
 338      5BA0BDD6 
 338      92202BEA 
 338      EE8A4225 
 338      477B8E2C 
 339 02a4 41AF1B51 		.ascii	"A\257\033Q\025\260V?n\\\005*\330\303\231\204\320\214"
 339      15B0563F 
 339      6E5C052A 
 339      D8C39984 
 339      D08C
 340 02b6 9CC69417 		.ascii	"\234\306\224\027j\367\362\204\3746h\310\243\037\030"
 340      6AF7F284 
 340      FC3668C8 
 340      A31F18
 341 02c5 F20EC130 		.ascii	"\362\016\3010\273\235\000`\315\261\337o<\232\313\353"
 341      BB9D0060 
 341      CDB1DF6F 
ARM GAS  /tmp/ccON3Nu8.s 			page 27


 341      3C9ACBEB 
 342 02d5 025BC1D1 		.ascii	"\002[\301\321\242v\321\012Fa\025\320\371\201\347\271"
 342      A276D10A 
 342      466115D0 
 342      F981E7B9 
 343 02e5 757394F9 		.ascii	"us\224\371s\334\327\240%X\277\252\333\250\340\211:F"
 343      73DCD7A0 
 343      2558BFAA 
 343      DBA8E089 
 343      3A46
 344 02f7 1EE9EE39 		.ascii	"\036\351\3569\322]=w\215Y\277/4\272|\332\343\201\325"
 344      D25D3D77 
 344      8D59BF2F 
 344      34BA7CDA 
 344      E381D5
 345 030a BBB4E2B9 		.ascii	"\273\264\342\271\353\225\252\205\303\350(Q+\224\371"
 345      EB95AA85 
 345      C3E82851 
 345      2B94F9
 346 0319 5C59ED0D 		.ascii	"\\Y\355\015\326=R\345\376\260\377\364Z:N\366\220q\262"
 346      D63D52E5 
 346      FEB0FFF4 
 346      5A3A4EF6 
 346      9071B2
 347 032c 8F37AB37 		.ascii	"\2177\2537\023\260#\313Z\336\245`\015\004\354\\\366"
 347      13B023CB 
 347      5ADEA560 
 347      0D04EC5C 
 347      F6
 348 033d 6055973A 		.ascii	"`U\227:n\300\236\325D\2006\272\330\321\353eF\257\327"
 348      6EC09ED5 
 348      448036BA 
 348      D8D1EB65 
 348      46AFD7
 349 0350 3C7ABDDE 		.ascii	"<z\275\336T\241O\277\3141\364\027m\303\243:\227nP+!"
 349      54A14FBF 
 349      CC31F417 
 349      6DC3A33A 
 349      976E502B 
 350 0365 1DF8CFDE 		.ascii	"\035\370\317\336}\177+S\324\271.::\253&\032B\236\011"
 350      7D7F2B53 
 350      D4B92E3A 
 350      3AAB261A 
 350      429E09
 351 0378 0BD3FA88 		.ascii	"\013\323\372\210\035\230\313\0339\237\366x \307Q\324"
 351      1D98CB1B 
 351      399FF678 
 351      20C751D4 
 352 0388 971BF772 		.ascii	"\227\033\367r\312\222B\352\246Un\273\330\212\221ZY\017"
 352      CA9242EA 
 352      A6556EBB 
 352      D88A915A 
 352      590F
 353 039a 5DD9C8FB 		.ascii	"]\331\310\373\264\307\003{\350K\025\253\255\002\200"
 353      B4C7037B 
 353      E84B15AB 
 353      AD0280
ARM GAS  /tmp/ccON3Nu8.s 			page 28


 354 03a9 4149FDFA 		.ascii	"AI\375\372k\203\312\364\342\321.\242\323V\233\352\003"
 354      6B83CAF4 
 354      E2D12EA2 
 354      D3569BEA 
 354      03
 355 03ba E9B45C5D 		.ascii	"\351\264\\]\325XX)\010\\\015\011${\262\005K^<z\237`"
 355      D5585829 
 355      085C0D09 
 355      247BB205 
 355      4B5E3C7A 
 356 03d0 7C946590 		.ascii	"|\224e\220(WkiD\324g\251\0172\306\363\365\343\324\234"
 356      28576B69 
 356      44D467A9 
 356      0F32C6F3 
 356      F5E3D49C 
 357 03e4 ADE31930 		.ascii	"\255\343\0310Z]L\360\263\302\310\263\223KQ\017\336S"
 357      5A5D4CF0 
 357      B3C2C8B3 
 357      934B510F 
 357      DE53
 358 03f6 29E8B38A 		.ascii	")\350\263\212\301\233\024No;\004%\243F\327\232qx\240"
 358      C19B144E 
 358      6F3B0425 
 358      A346D79A 
 358      7178A0
 359 0409 7792A9A9 		.ascii	"w\222\251\251<\307zj\262\005\341\321\263\244I\202\035"
 359      3CC77A6A 
 359      B205E1D1 
 359      B3A44982 
 359      1D
 360 041a 00DF093E 		.ascii	"\000\337\011>\355\351\300\376\177\356k/\270\277EWVA"
 360      EDE9C0FE 
 360      7FEE6B2F 
 360      B8BF4557 
 360      5641
 361 042c AEE30BF5 		.ascii	"\256\343\013\365\372\017\024e\210\300}E\030\277g\315"
 361      FA0F1465 
 361      88C07D45 
 361      18BF67CD 
 362 043c D87EB8F2 		.ascii	"\330~\270\362\250\2154\351f\030'Vv\367\026\255 \310"
 362      A88D34E9 
 362      66182756 
 362      76F716AD 
 362      20C8
 363 044e DD8EA6D3 		.ascii	"\335\216\246\323\263\013,F\223\345\\\356\326\373\177"
 363      B30B2C46 
 363      93E55CEE 
 363      D6FB7F
 364 045d 3C2547FB 		.ascii	"<%G\373\027\275\0362\255\236\"bT\346:X\023\230px\264"
 364      17BD1E32 
 364      AD9E2262 
 364      54E63A58 
 364      13987078 
 365 0472 92B439D3 		.ascii	"\222\2649\323_\216\326\361\232\034g\034\311\261|\361"
 365      5F8ED6F1 
 365      9A1C671C 
 365      C9B17CF1 
ARM GAS  /tmp/ccON3Nu8.s 			page 29


 366 0482 6A3A084E 		.ascii	"j:\010N\222\201\271.\011\233\335\240\372W3\031\345\032"
 366      9281B92E 
 366      099BDDA0 
 366      FA573319 
 366      E51A
 367 0494 D81B1983 		.ascii	"\330\033\031\203\371L`/7k#\324\371\322\263\355\244:"
 367      F94C602F 
 367      376B23D4 
 367      F9D2B3ED 
 367      A43A
 368 04a6 6C1711FF 		.ascii	"l\027\021\377\0072\246\317\346ZN\202\016\220\216,k\320"
 368      0732A6CF 
 368      E65A4E82 
 368      0E908E2C 
 368      6BD0
 369 04b8 E7D31F09 		.ascii	"\347\323\037\011\324\205\254\241.-\377\317\035\304\332"
 369      D485ACA1 
 369      2E2DFFCF 
 369      1DC4DA
 370 04c7 970850B9 		.ascii	"\227\010P\271\233\235O=\314|\3521\317s\036o\252@W\303"
 370      9B9D4F3D 
 370      CC7CEA31 
 370      CF731E6F 
 370      AA4057C3 
 371 04db BF6C751E 		.ascii	"\277lu\036-r;\260\234}\014J\254\350V\357Xi\234@m\347"
 371      2D723BB0 
 371      9C7D0C4A 
 371      ACE856EF 
 371      58699C40 
 372 04f1 351EBD48 		.ascii	"5\036\275H\372*\347\031O\376a\377\276r\256\214\030\000"
 372      FA2AE719 
 372      4FFE61FF 
 372      BE72AE8C 
 372      1800
 373 0503 FF36B02B 		.ascii	"\3776\260+\377\373\303\345\366C\322\320}Uru}\023\351"
 373      FFFBC3E5 
 373      F643D2D0 
 373      7D557275 
 373      7D13E9
 374 0516 7F15E97F 		.ascii	"\177\025\351\177\036\333\177\355w\307&h#i\236\243\356"
 374      1EDB7FED 
 374      77C72668 
 374      23699EA3 
 374      EE
 375 0527 3FDEFFA2 		.ascii	"?\336\377\242\325\374j\263\275H.\001\217\236\245B.\340"
 375      D5FC6AB3 
 375      BD482E01 
 375      8F9EA542 
 375      2EE0
 376 0539 F190E9EC 		.ascii	"\361\220\351\354\347\034\023\012\214\235\221\377Mk\345"
 376      E71C130A 
 376      8C9D91FF 
 376      4D6BE5
 377 0548 A349FA59 		.ascii	"\243I\372Y\215X\220\263\351\376\352\315\212\362\214"
 377      8D5890B3 
 377      E9FEEACD 
 377      8AF28C
ARM GAS  /tmp/ccON3Nu8.s 			page 30


 378 0557 5BE7703C 		.ascii	"[\347p<cD\237I\023\237\354'1@\003;\345\004\314\326\223"
 378      63449F49 
 378      139FEC27 
 378      3140033B 
 378      E504CCD6 
 379 056c CAD57623 		.ascii	"\312\325v#\330\231\214\301\314\314\016\032\301\276u"
 379      D8998CC1 
 379      CCCC0E1A 
 379      C1BE75
 380 057b 0236C49E 		.ascii	"\0026\304\236\331gF\260s\031\203\231\231\0356\202\365"
 380      D96746B0 
 380      73198399 
 380      991D3682 
 380      F5
 381 058c 3A011B66 		.ascii	":\001\033f\317\254\313\010v1c03\263\036#\230\342q\000"
 381      CFACCB08 
 381      76316330 
 381      33B31E23 
 381      98E27100 
 382 05a0 E6B36096 		.ascii	"\346\263`\226\274\354\326\232\025\274a\2559\307\243"
 382      BCECD69A 
 382      15BC61AD 
 382      39C7A3
 383 05af 8784EC97 		.ascii	"\207\204\354\227\207\363<\231\2060\223\334x&\275c\007"
 383      87F33C99 
 383      863093DC 
 383      7826BD63 
 383      07
 384 05c0 1D17DA74 		.ascii	"\035\027\332t\266\310\011b\032\207\331j\234\033\227"
 384      B6C80962 
 384      1A87D96A 
 384      9C1B97
 385 05cf 660C6636 		.ascii	"f\014f6\313'\030\314\024k\350\204\224X\257\016[\221"
 385      CB2718CC 
 385      146BE884 
 385      9458AF0E 
 385      5B91
 386 05e1 8A76793A 		.ascii	"\212vy:\026\336Li\241\255RQ\370dee\3300\353\272\002"
 386      16DE4C69 
 386      A1AD5251 
 386      F8646565 
 386      D830EBBA 
 387 05f6 F73A7F33 		.ascii	"\367:\1773\344\325\2747\311B+\353%m\257\265\332\303"
 387      E4D5BC37 
 387      C9422BEB 
 387      256DAFB5 
 387      DAC3
 388 0608 1C8FE9D7 		.ascii	"\034\217\351\327@M\355<a\203\321\023^q\242\2464C\241"
 388      404DED3C 
 388      6183D113 
 388      5E71A2A6 
 388      3443A1
 389 061b A79F9AB4 		.ascii	"\247\237\232\264\315\266]\347\233\214\235Wg\334\271"
 389      CDB65DE7 
 389      9B8C9D57 
 389      67DCB9
 390 062a D9463F35 		.ascii	"\331F?5\257\372\225\222P9\203\262\323Z\006\257_\216"
ARM GAS  /tmp/ccON3Nu8.s 			page 31


 390      AFFA9592 
 390      503983B2 
 390      D35A06AF 
 390      5F8E
 391 063c 757073C8 		.ascii	"ups\310|P\303\343\305\302\026\217\345\252\303\001\324"
 391      7C50C3E3 
 391      C5C2168F 
 391      E5AAC301 
 391      D4
 392 064d 91659B6E 		.ascii	"\221e\233n!\253\216w\010\320\256\254\201.-_3\236\000"
 392      21AB8E77 
 392      08D0AEAC 
 392      812E2D5F 
 392      339E00
 393 0660 6D25400D 		.ascii	"m%@\015\036v\206\342\230\345\013g^`p\336T\241\337\226"
 393      1E7686E2 
 393      98E50B67 
 393      5E6070DE 
 393      54A1DF96 
 394 0674 FE0AD6E5 		.ascii	"\376\012\326\345Q\013k/\2238i\242Sr\3107\335\271\375"
 394      510B6B2F 
 394      933869A2 
 394      5372C837 
 394      DDB9FD
 395 0687 2D4599E3 		.ascii	"-E\231\343\316\304b\011\335b;\211~:\372\351\347\035"
 395      CEC46209 
 395      DD623B89 
 395      7E3AFAE9 
 395      E71D
 396 0699 3E3305F1 		.ascii	">3\005\361\350H\306\202\3441\202\364d!H\217.\210J\004"
 396      E848C682 
 396      E43182F4 
 396      6421488F 
 396      2E884A04 
 397 06ad E9BE0282 		.ascii	"\351\276\002\202\234\311X\220!\006A\360v\246\351\241"
 397      9CC95890 
 397      210641F0 
 397      76A6E9A1 
 398 06bd ED24083B 		.ascii	"\355$\010;: i\340\231\003\222s-\370$\006?\036x'\372"
 398      3A2069E0 
 398      99039273 
 398      2DF82406 
 398      3F1E7827 
 399 06d2 C27EC36E 		.ascii	"\302~\303nCq\266\333h\242\273\215&\242\261\363Vc\314"
 399      4371B6DB 
 399      68A2BB8D 
 399      26A2B1F3 
 399      5663CC
 400 06e5 0952D591 		.ascii	"\011R\325\221\366k\361>|/\201\271\230-L\342RG\2356T"
 400      F66BF13E 
 400      7C2F81B9 
 400      982D4CE2 
 400      52479D36 
 401 06fa 9B09D0DC 		.ascii	"\233\011\320\334<\326\202n\306\200n\263\001\341_\334"
 401      3CD6826E 
 401      C6806EB3 
 401      01E15FDC 
ARM GAS  /tmp/ccON3Nu8.s 			page 32


 402 070a 532F3948 		.ascii	"S/9H{\212>\301\377x\320\377\275\035\217\026\023\372"
 402      7B8A3EC1 
 402      FF78D0FF 
 402      BD1D8F16 
 402      13FA
 403 071c D878D9AC 		.ascii	"\330x\331\254l\261\363\250\367m\2473\270f\240\245\227"
 403      6CB1F3A8 
 403      F76DA733 
 403      B866A0A5 
 403      97
 404 072d 8558AEEE 		.ascii	"\205X\256\356^\242\357\226'\3409|\315e\302\221E\237"
 404      5EA2EF96 
 404      27E0397C 
 404      CD65C291 
 404      459F
 405 073f 69726266 		.ascii	"irbf\252S6SO\3628$1l#\361\277\203du\266\276\237\275"
 405      AA533653 
 405      4FF23824 
 405      316C23F1 
 405      BF836475 
 406 0757 4F72CCEE 		.ascii	"Or\314\356\341\244\371\250\335n u\030\247\301m\227'"
 406      E1A4F9A8 
 406      DD6E2075 
 406      18A7C16D 
 406      9727
 407 0769 268E467F 		.ascii	"&\216F\177\321VR\003m\315\036\327\321\012I\307\365\244"
 407      D1565203 
 407      6DCD1ED7 
 407      D10A49C7 
 407      F5A4
 408 077b E32E7667 		.ascii	"\343.vgV\267\341\363\012\2725\357r\2605S\324C\344\214"
 408      56B7E1F3 
 408      0ABA35EF 
 408      72B03553 
 408      D443E48C 
 409 078f 493F343A 		.ascii	"I?4:\237D\245\275N4\256\006\007t+\265Kl\032\225I\214"
 409      9F44A5BD 
 409      4E34AE06 
 409      07742BB5 
 409      4B6C1A95 
 410 07a5 384663C4 		.ascii	"8Fc\304W\304\005\177\356g\243\275lT\315h\220\314\365"
 410      57C4057F 
 410      EE67A3BD 
 410      6C54CD68 
 410      90CCF5
 411 07b8 32D238DD 		.ascii	"2\3228\335_%/;\037\3504\372\300\263\336\313\365\201"
 411      5F252F3B 
 411      1FE834FA 
 411      C0B3DECB 
 411      F581
 412 07ca DE072C7C 		.ascii	"\336\007,|@;"
 412      403B
 413 07d0 25B46370 		.ascii	"%\264cp\302\310\340\371\313c\240\356n\313\3740\351 "
 413      C2C8E0F9 
 413      CB63A0EE 
 413      6ECBFC30 
 413      E920
ARM GAS  /tmp/ccON3Nu8.s 			page 33


 414 07e2 35DD37C4 		.ascii	"5\3357\304t+\274\254\351~d\227>N\316V^\315V\220\344"
 414      742BBCAC 
 414      E97E6497 
 414      3E4ECE56 
 414      5ECD5690 
 415 07f7 C5A337BD 		.ascii	"\305\2437\275\016V\246>\263y\015>\214\207$\235W\007"
 415      0E56A63E 
 415      B3790D3E 
 415      8C87249D 
 415      5707
 416 0809 3CA049C6 		.ascii	"<\240I\306\232\246\341MD\031\337\361x\024\275\315(\303"
 416      9AA6E14D 
 416      4419DFF1 
 416      7814BDCD 
 416      28C3
 417 081b C1414F3D 		.ascii	"\301AO=ir\236\035\316\020\246\351\321\353yG\007-m\013"
 417      69729E1D 
 417      CE10A6E9 
 417      D1EB7947 
 417      072D6D0B 
 418 082f 8C4796C0 		.ascii	"\214G\226\300\207\343)l\266\3724\2310\305O\340z\311"
 418      87E3296C 
 418      B6FA3499 
 418      30C54FE0 
 418      7AC9
 419 0841 0EE8027F 		.ascii	"\016\350\002\177\243Q\367\315Nt\377G;GT\324\013m\253"
 419      A351F7CD 
 419      4E74FF47 
 419      3B4754D4 
 419      0B6DAB
 420 0854 388DBF16 		.ascii	"8\215\277\026\217\016\262xV\361\310\204g\262\245Z\331"
 420      8F0EB278 
 420      56F1C884 
 420      67B2A55A 
 420      D9
 421 0865 4EB695DA 		.ascii	"N\266\225\332\014\367\245\023r\243\354\300\312\325U"
 421      0CF7A513 
 421      72A3ECC0 
 421      CAD555
 422 0874 1A98E6F0 		.ascii	"\032\230\346\360\307\235\200\215\267\223\264\\\335\271"
 422      C79D808D 
 422      B793B45C 
 422      DDB9
 423 0882 4CB7D409 		.ascii	"L\267\324\0112?}\2371\236\231\\[\273\376\306F;\335\375"
 423      323F7D9F 
 423      319E995C 
 423      5BBBFEC6 
 423      463BDDFD 
 424 0896 D909DE44 		.ascii	"\331\011\336D{~g\227\231\246\363g\3623\2053\033\342"
 424      7B7E6797 
 424      99A6F367 
 424      F2338533 
 424      1BE2
 425 08a8 523B36EC 		.ascii	"R;6\354\302aV\307\367j\362\305\011\336/\352\001f\363"
 425      C26156C7 
 425      F76AF2C5 
 425      09DE2FEA 
ARM GAS  /tmp/ccON3Nu8.s 			page 34


 425      0166F3
 426 08bb D9E1DA8A 		.ascii	"\331\341\332\212{\276\013{\302\316\374\201\337\003\230"
 426      7BBE0B7B 
 426      C2CEFC81 
 426      DF0398
 427 08ca 81B0C32E 		.ascii	"\201\260\303.p1o_j\033\311w\001\370\371\300\243\351"
 427      70316F5F 
 427      6A1BC977 
 427      01F8F9C0 
 427      A3E9
 428 08dc 9DC6CCC3 		.ascii	"\235\306\314\303b\223\276QX\354\302fh\316\277\"q\261"
 428      6293BE51 
 428      58ECC266 
 428      68CEBF22 
 428      71B1
 429 08ee 9DC060D6 		.ascii	"\235\300`\326\331M1m\233?\036\256/\3674b\2072F4\373"
 429      D94D316D 
 429      9B3F1EAE 
 429      2FF73462 
 429      87324634 
 430 0903 DB56ED95 		.ascii	"\333V\355\225\245\006\366\271\023\2604\007\231\3330"
 430      A506F6B9 
 430      13B03407 
 430      99DB30
 431 0912 58265AEE 		.ascii	"X&Z\356\241\223\317r\322\375\321+\243\344o2\226\302"
 431      A193CF72 
 431      D2FDD12B 
 431      A3E46F32 
 431      96C2
 432 0924 A41250F2 		.ascii	"\244\022P\362\361\341\333\267(J\355\343\231|\234\320"
 432      F1E1DBB7 
 432      284AEDE3 
 432      997C9CD0 
 433 0934 76B25577 		.ascii	"v\262Uw\231UD\2323\375\244i`\245q\374\262\277\227\025"
 433      9955449A 
 433      33FDA469 
 433      60A571FC 
 433      B2BF9715 
 434 0948 C92A7E5A 		.ascii	"\311*~Z\035\313Y]\306\341$p\013]8\376/r\335\010\371"
 434      1DCB595D 
 434      C6E12470 
 434      0B5D38FE 
 434      2F72DD08 
 435 095d 1292BF48 		.ascii	"\022\222\277H\362e$\177\311e\232\027\346\0240\341\303"
 435      F265247F 
 435      C9659A17 
 435      E61430E1 
 435      C3
 436 096e 3C546971 		.ascii	"<Tiq\262c\"\251w{\002w\226\303D\276\345p\267\337\223"
 436      B26322A9 
 436      777B0277 
 436      96C344BE 
 436      E570B7DF 
 437 0983 FC3CC9CB 		.ascii	"\374<\311\313x\234\257%\371:\222\257'\371F\222\277M"
 437      789CAF25 
 437      F93A92AF 
 437      27F94692 
ARM GAS  /tmp/ccON3Nu8.s 			page 35


 437      BF4D
 438 0995 F21D24DF 		.ascii	"\362\035$\337M\362\377\222\374[\222\377D\362K$\357#"
 438      4DF2FF92 
 438      FC5B92FF 
 438      44F24B24 
 438      EF23
 439 09a7 7919116B 		.ascii	"y\031\021k\016\311\237&\371<\243\210v\3134fO\241\317"
 439      0EC99F26 
 439      F93CA388 
 439      76CB3466 
 439      4FA1CF
 440 09ba C8DDD9BE 		.ascii	"\310\335\331\276D\304\273\376b\343\321\253\300\235\313"
 440      44C4BBFE 
 440      62E3D1AB 
 440      C09DCB
 441 09c9 18D1974E 		.ascii	"\030\321\227N\265\335\006\325\036'\252=A\324\271\326"
 441      B5DD06D5 
 441      1E27AA3D 
 441      41D4B9D6 
 442 09d9 6CD10505 		.ascii	"l\321\005\005\372\333\355lv\012\345\211\2565\365\246"
 442      FADBED6C 
 442      760AE589 
 442      AE35F5A6 
 443 09e9 97AB2FB0 		.ascii	"\227\253/\260x\031\206\220\213\260\363`\226\317\235"
 443      78198690 
 443      8BB0F360 
 443      96CF9D
 444 09f8 6996CF1B 		.ascii	"i\226\317\033\\\206\345\363K\031\367\235V\203\011\203"
 444      5C86E5F3 
 444      4B19F79D 
 444      56830983 
 445 0a08 06BF201A 		.ascii	"\006\277 \032\374\222hp\035q\233\365f=\276R\300|\321"
 445      FC926870 
 445      1D719BF5 
 445      663DBE52 
 445      C07CD1
 446 0a1b 60FE8C20 		.ascii	"`\376\214 \343!\272\305\320\371V\322y\035\351|\027\311"
 446      E321BAC5 
 446      D0F956D2 
 446      791DE97C 
 446      17C9
 447 0a2d 0F730E7C 		.ascii	"\017s\016|\266&\2651\246_\367\351o\332\222\377Vk\021"
 447      B626B531 
 447      A65FF7E9 
 447      6FDA92FF 
 447      566B11
 448 0a40 89F9F0F0 		.ascii	"\211\371\360\360\365\002s\344\272\011\255S\224%\211"
 448      F50273E4 
 448      BA09AD53 
 448      942589
 449 0a4f 861F7B72 		.ascii	"\206\037{rV*j\216\376\201\313vRm\0237\302\222\001\355"
 449      562A6A8E 
 449      FE81CB76 
 449      526D1337 
 449      C29201ED 
 450 0a63 5F6BAB74 		.ascii	"_k\253t\210\223\351\012d\367\000\255&\244\032\365\341"
 450      8893E90A 
ARM GAS  /tmp/ccON3Nu8.s 			page 36


 450      64F700AD 
 450      26A41AF5 
 450      E1
 451 0a74 46D5E400 		.ascii	"F\325\344\000\356S28\354[QA\350\027\244\213\224\247"
 451      EE533238 
 451      EC5B5141 
 451      E817A48B 
 451      94A7
 452 0a86 8770C94F 		.ascii	"\207p\311OH7\261\237\220\276\351\262\370\200R\355\370"
 452      4837B19F 
 452      90BEE9B2 
 452      F88052ED 
 452      F8
 453 0a97 107FA5A4 		.ascii	"\020\177\245\244\\\354\353\233\223\223\301'\244\357"
 453      5CECEB9B 
 453      9393C127 
 453      A4EF
 454 0aa5 B84C1F50 		.ascii	"\270L\037Pjb\017\240\340\367,\025\254,\305\362\326\220"
 454      6A620FA0 
 454      E0F72C15 
 454      AC2CC5F2 
 454      D690
 455 0ab7 60B0C985 		.ascii	"`\260\311\205\345\335\354r\242\333\217Y5\33173\252\251"
 455      E5DDEC72 
 455      A2DB8F59 
 455      35D93733 
 455      AAA9
 456 0ac9 5C79BBE2 		.ascii	"\\y\273\342\351!9\324'\354[Q9\267Z*\355\320b{\245\245"
 456      E92139D4 
 456      27EC5B51 
 456      39B75A2A 
 456      EDD0627B 
 457 0adf F9EA7427 		.ascii	"\371\352t'\2534\362\306\327\244\243\026k\035\035\231"
 457      AB34F2C6 
 457      D7A4A316 
 457      6B1D1D99 
 458 0aef AA3BD267 		.ascii	"\252;\322g\244\302\016[Y5W\267\364\010\334\310\344\021"
 458      A4C20E5B 
 458      593557B7 
 458      F408DCC8 
 458      E411
 459 0b01 BB2C85AB 		.ascii	"\273,\205\253[\262\320\366\223\332\3524/X\366\244q\011"
 459      5BB2D0F6 
 459      93DAEA34 
 459      2F58F6A4 
 459      7109
 460 0b13 26B6A583 		.ascii	"&\266\245\203ip\025\230H\232\324s\330Z=+Y\027z\327\221"
 460      69701598 
 460      489AD473 
 460      D85A3D2B 
 460      59177AD7 
 461 0b28 0B91E189 		.ascii	"\013\221\341\211\373\203\015\021\001\266oFYQ\027\252"
 461      FB830D11 
 461      01B66F46 
 461      595117AA 
 462 0b38 FDEAAF93 		.ascii	"\375\352\257\223u\267\262oE\005h\354\257\345De\242\253"
 462      75B7B26F 
ARM GAS  /tmp/ccON3Nu8.s 			page 37


 462      450568EC 
 462      AFE54465 
 462      A2AB
 463 0b4a AB9BB3FB 		.ascii	"\253\233\263\373t;\215\013\355c\225\214\247\002FIg\030"
 463      743B8D0B 
 463      ED63958C 
 463      A7024649 
 463      6718
 464 0b5c 25E9449A 		.ascii	"%\351D\232-\211\374\274\373\354\375Y\020i\355G\204\357"
 464      2D89FCBC 
 464      FBECFD59 
 464      1069ED47 
 464      84EF
 465 0b6e 47E48D42 		.ascii	"G\344\215Bk\"\373\2555\262\346tJ#\232\244<\332b\003"
 465      6B22FBAD 
 465      35B2E674 
 465      4A239AA4 
 465      3CDA6203 
 466 0b82 F1891584 		.ascii	"\361\211\025\204Z\363\376B\205\253,K\364\365\215\320"
 466      5AF3FE42 
 466      85AB2C4B 
 466      F4F58DD0 
 467 0b92 01541B80 		.ascii	"\001T\033\200v3\300\357\320ZEmM<\335\335\303\227)\352"
 467      7633C0EF 
 467      D05A456D 
 467      4D3CDDDD 
 467      C39729EA 
 468 0ba6 0AD86BC1 		.ascii	"\012\330k\301\032t\204\376i\367\207I\020}\2323}\307"
 468      1A7484FE 
 468      69F78749 
 468      107D9A33 
 468      7DC7
 469 0bb8 8DF10EA6 		.ascii	"\215\361\016\246\3600Vk\253z\350\375g\024\034%\312z"
 469      F030566B 
 469      AB7AE8FD 
 469      67141C25 
 469      CA7A
 470 0bca 60857E35 		.ascii	"`\205~5\252$\033\276\025\370cj>\351\375\363\223\323"
 470      AA241BBE 
 470      15F8636A 
 470      3EE9FDF3 
 470      93D3
 471 0bdc E5D5A4A9 		.ascii	"\345\325\244\251\261Z\265}5\201;\344\322J\246\343JR"
 471      B15AB57D 
 471      35813BE4 
 471      D24AA6E3 
 471      4A52
 472 0bee C3CE6087 		.ascii	"\303\316`\207]\251W\266\205^\304L\316\210\251\205_w"
 472      5DA957B6 
 472      855EC44C 
 472      CE88A985 
 472      5F77
 473 0c00 15325316 		.ascii	"\0252S\026\313\202G\211B\355M\336o\321\351\302\325\370"
 473      CB824789 
 473      42ED4DDE 
 473      6FD1E9C2 
 473      D5F8
ARM GAS  /tmp/ccON3Nu8.s 			page 38


 474 0c12 EDC46784 		.ascii	"\355\304g\204\026U\300\267\315J^e\331|lO\033\361\037"
 474      1655C0B7 
 474      CD4A5E65 
 474      D97C6C4F 
 474      1BF11F
 475 0c25 D3010BD2 		.ascii	"\323\001\013\322I\317\324\202eI\306\302\177i#|\276I"
 475      49CFD482 
 475      6549C6C2 
 475      7F69237C 
 475      BE49
 476 0c37 78BD1614 		.ascii	"x\275\026\024;I\0301\204Y\206\004\217\224A\272\354\213"
 476      3B491831 
 476      84598604 
 476      8F9441BA 
 476      EC8B
 477 0c49 0711D93F 		.ascii	"\007\021\331?'\254\230H\207\235\320\216\324\321T\244"
 477      27AC9848 
 477      879DD08E 
 477      D4D154A4 
 478 0c59 635AB5A6 		.ascii	"cZ\265\246i\325m\333\012+\337\256\325\261T+\037z\031"
 478      69D56DDB 
 478      0A2BDFAE 
 478      D5B1542B 
 478      1F7A19
 479 0c6c 9F256C6F 		.ascii	"\237%loV|\276\344\334\260\331870\270\237\247\301=\321"
 479      567CBEE4 
 479      DCB0D938 
 479      3730B89F 
 479      A7C13DD1 
 480 0c80 0FB7F739 		.ascii	"\017\267\3679\205\347\255\347\034Z\343\305\027\2145"
 480      85E7ADE7 
 480      1C5AE3C5 
 480      178C35
 481 0c8f DE35CD4A 		.ascii	"\3365\315J\177\010\005\247\024O*\011N\011>\374\210\377"
 481      7F0805A7 
 481      144F2A09 
 481      4E093EFC 
 481      88FF
 482 0ca1 B67145B7 		.ascii	"\266qE\267\025\215-.\216\306\213%\2718.\005\212\003"
 482      158D2D2E 
 482      8EC68B25 
 482      B9382E05 
 482      8A03
 483 0cb3 2525A210 		.ascii	"%%\242\020+\012\240|?.\370\203\221\240\354\276\367\241"
 483      2B0AA07C 
 483      3F2EF883 
 483      91A0ECBE 
 483      F7A1
 484 0cc5 477D9350 		.ascii	"G}\223P\221}\313`$\020*\235*B\353\260\030\016D%\261"
 484      917DCB60 
 484      24102A9D 
 484      2A42EBB0 
 484      180E4425 
 485 0cda A8048D2E 		.ascii	"\250\004\215..\215K\305\270\315\364@\240X\220\302\267"
 485      2E8D4BC5 
 485      B8CDF440 
 485      A05890C2 
ARM GAS  /tmp/ccON3Nu8.s 			page 39


 485      B7
 486 0ceb 46A211F1 		.ascii	"F\242\021\361VQ\230\022,\036[4\276ht\262U\\\236:U\234"
 486      56519812 
 486      2C1E5B34 
 486      BE6874B2 
 486      555C9E3A 
 487 0d01 064DDCF1 		.ascii	"\006M\334\361\340?E\277\\\020(\231\004\030w\207B\321"
 487      E03F45BF 
 487      5C102899 
 487      04187787 
 487      42D1
 488 0d13 C02D4E3A 		.ascii	"\300-N:%\224K\320 \350<*\315\326\210\313\005\206\377"
 488      25944BD0 
 488      20E83C2A 
 488      CDD688CB 
 488      0586FF
 489 0d26 0AA13C5D 		.ascii	"\012\241<]\224\247\225F\002~9\277\304\037\223\2423\202"
 489      94A79546 
 489      027E39BF 
 489      C41F93A2 
 489      3382
 490 0d38 5345A980 		.ascii	"SE\251\200T\205\014\312\243\354{\212E%9^|\367\337\037"
 490      54850CCA 
 490      A3EC7B8A 
 490      4525395E 
 490      7CF7DF1F 
 491 0d4c 9CF4E02C 		.ascii	"\234\364\340,\350\216\012\230\037\227\237\024B\301\351"
 491      E88E0A98 
 491      1F979F14 
 491      42C1E9
 492 0d5b 11BFFC1B 		.ascii	"\021\277\374\033\"\253N(\"\316\304X V0\"C\305\274R\270"
 492      22AB4E28 
 492      22CEC458 
 492      20563022 
 492      43C5BC52 
 493 0d70 8F1BEB97 		.ascii	"\217\033\353\227o\265\252\026\026\002%\301\210X\354"
 493      6FB5AA16 
 493      160225C1 
 493      8858EC
 494 0d7f 071D08A5 		.ascii	"\007\035\010\245!\331/\317\216\211q\214\357\367\353"
 494      21D92FCF 
 494      8E89718C 
 494      EFF7EB
 495 0d8e 0D73493F 		.ascii	"\015sI?9\021q\226\234\203)s\2459XU\\\211\273\304?M\022"
 495      39117196 
 495      9C832973 
 495      A5395855 
 495      5C89BBC4 
 496 0da5 C5918E4C 		.ascii	"\305\221\216L#\317\002TO\270T\026g\371\345\274@\211"
 496      23CF0254 
 496      4FB85416 
 496      67F9E5BC 
 496      4089
 497 0db7 9F148B9D 		.ascii	"\237\024\213\235\264\215\317\216\353\264\006\313%\022"
 497      B48DCF8E 
 497      EBB406CB 
 497      2512
ARM GAS  /tmp/ccON3Nu8.s 			page 40


 498 0dc5 282CEEFF 		.ascii	"(,\356\377G\251X\012\326\032\002@\246G\216L\026\017"
 498      47A9580A 
 498      D61A0240 
 498      A6478E4C 
 498      160F
 499 0dd7 944CC5AA 		.ascii	"\224L\305\252\321Z\372eo\022\305\035\363c9\341\026\223"
 499      D15AFA65 
 499      6F12C51D 
 499      F36339E1 
 499      1693
 500 0de9 C419139C 		.ascii	"\304\031\023\234Z%\032\216\005C\242\024/\276w\322$\300"
 500      5A251A8E 
 500      0543A214 
 500      2FBE77D2 
 500      24C0
 501 0dfb D7D97AE4 		.ascii	"\327\331z\344\230\024\214\202\270X\225cF\203\3655\255"
 501      98148C82 
 501      B8589563 
 501      4683F535 
 501      AD
 502 0e0c E222E922 		.ascii	"\342\"\351\"\030\365\004\242\021\320\203\\\200\001\301"
 502      18F504A2 
 502      11D0835C 
 502      8001C1
 503 0e1b E1E5803C 		.ascii	"\341\345\200<klF\316\340\237q{\030\013#\211\323\301"
 503      6B6C46CE 
 503      E09F717B 
 503      180B2389 
 503      D3C1
 504 0e2d CFFD322F 		.ascii	"\317\3752/\215\345\245?\363\3228^\272\235\227\306\363"
 504      8DE5A53F 
 504      F3D2385E 
 504      BA9D97C6 
 504      F3
 505 0e3e D21D2EE9 		.ascii	"\322\035.\351\266Q\220n\343C\022\334\306\344\306\374"
 505      B651906E 
 505      E34312DC 
 505      C6E4C6FC 
 506 0e4e D089074B 		.ascii	"\320\211\007K:S\224\340\036\015\201\007\346\004J\004"
 506      3A5394E0 
 506      1E0D8107 
 506      E6044A04 
 507 0e5e 098B2F84 		.ascii	"\011\213/\204\305\374\230\037\334+\024\014\007\345<"
 507      C5FC981F 
 507      DC2B140C 
 507      07E53C
 508 0e6d 392E0B32 		.ascii	"9.\0132h\332\203\211\217\007]i\"@\311\203k\301o\036"
 508      68DA8389 
 508      8F075D69 
 508      2240C983 
 508      6BC16F1E 
 509 0e81 391C9D2A 		.ascii	"9\034\235*\222\377\247\205\204\351q\217,\211\323\342"
 509      92FFA785 
 509      84E9718F 
 509      2C89D3E2 
 510 0e91 44425CC8 		.ascii	"DB\\\310\015\307\247\303\217Tlh\256+@\232:\033~\312"
 510      0DC7A7C3 
ARM GAS  /tmp/ccON3Nu8.s 			page 41


 510      8F546C68 
 510      AE2B409A 
 510      3A1B7ECA 
 511 0ea5 136705E5 		.ascii	"\023g\005\345\000\000\270g\312\321)O\304\206R\243@S"
 511      0000B867 
 511      CAD1294F 
 511      C48652A3 
 511      4053
 512 0eb7 51122301 		.ascii	"Q\022#\001\000\316\235)\313R\254\020\214\024\027\303"
 512      00CE9D29 
 512      CB52AC10 
 512      8C1417C3 
 513 0ec7 42AC0484 		.ascii	"B\254\004\204v\344sP\033\033\201zFn \002\356\235\033"
 513      76E47350 
 513      1B1B817A 
 513      466E2002 
 513      EE9D1B
 514 0eda F7C31DFA 		.ascii	"\367\303\035\372\202\037cp\003\277\214\025\2103\304"
 514      821F6370 
 514      03BF8C15 
 514      8833C4
 515 0ee9 881C16E2 		.ascii	"\210\034\026\342O\002+q&.\270b\376\322\253t\307\012"
 515      4F022B71 
 515      262EB862 
 515      FED2AB74 
 515      C70A
 516 0efb 05E3D072 		.ascii	"\005\343\320r\260\301\325\360\023o\314?S\010\312\301"
 516      B0C1D5F0 
 516      136FCC3F 
 516      5308CAC1 
 517 0f0b C8745017 		.ascii	"\310tP\027\010\242uB\212\360@\214\211\021\030\201\323"
 517      08A27542 
 517      8AF0408C 
 517      89111881 
 517      D3
 518 0f1c A1167481 		.ascii	"\241\026t\201\353\347cu\010!btx\030\213FC\177r\"\205"
 518      EBE76375 
 518      08216274 
 518      78188B46 
 518      437F7222 
 519 0f31 8C85182A 		.ascii	"\214\205\030*\007\303\242?,\012\361RI\014\213X\022\217"
 519      07C3A23F 
 519      2C0AF152 
 519      490C8B58 
 519      128F
 520 0f43 24138972 		.ascii	"$\023\211r\246\210qPQT\212\3139!!.\273K\311c.\222'\311"
 520      A6887150 
 520      51548ACB 
 520      3921212E 
 520      BB4BC963 
 521 0f5b A4959C1F 		.ascii	"\244\225\234\037(\015\227\206\00498C\2446\213{\302\232"
 521      280D9786 
 521      04393843 
 521      A4368B7B 
 521      C29A
 522 0f6d 52E01E9D 		.ascii	"R\340\036\235\031\021%w\230\370}n\011f\013\203j2\214"
 522      19112577 
ARM GAS  /tmp/ccON3Nu8.s 			page 42


 522      98F87D6E 
 522      09660B83 
 522      6A328C
 523 0f80 F387A73C 		.ascii	"\363\207\247<!\006\344\373 \006\347\342a\037sM)\235"
 523      2106E4FB 
 523      2006E7E2 
 523      611F734D 
 523      299D
 524 0f92 56A0FD44 		.ascii	"V\240\375D\242c\276V\276\007B\000\207\255"
 524      A263BE56 
 524      BE074200 
 524      87AD
 525 0fa0 83FF7904 		.ascii	"\203\377y\004\300K\343\2718>\304@a\017\312\263R(\316"
 525      C04BE3B9 
 525      383EC440 
 525      610FCAB3 
 525      5228CE
 526 0fb3 6C361B0F 		.ascii	"l6\033\017\034\030\220\217\314\216O\026B8\034\003\310"
 526      1C18908F 
 526      CC8E4F16 
 526      42381C03 
 526      C8
 527 0fc4 A311E8EF 		.ascii	"\243\021\350\357I/)?\000\245B=\\aby~?\211\255\376Az"
 527      492F293F 
 527      00A5423D 
 527      5C616279 
 527      7E3F89AD 
 528 0fdb A168DCB8 		.ascii	"\241h\334\270\321\243\256f\245@\306\337\307\334^\220"
 528      D1A3AE66 
 528      A540C6DF 
 528      C7DC5E90 
 529 0feb A28FFE07 		.ascii	"\242\217\376\007\345\352Q\277"
 529      E5EA51BF 
 530              		.text
 531              		.section	.gnu.lto_.symtab.7af807e71a6b46e4,"",%progbits
 532 0000 5F686561 		.ascii	"_heap_init\000\000\000\000\000\000\000\000\000\000\000"
 532      705F696E 
 532      69740000 
 532      00000000 
 532      00000000 
 533 0015 00A10000 		.ascii	"\000\241\000\000\000chHeapObjectInit\000\000\000\000"
 533      00636848 
 533      6561704F 
 533      626A6563 
 533      74496E69 
 534 002e 00000000 		.ascii	"\000\000\000\000\000\000\000\000\255\000\000\000chH"
 534      00000000 
 534      AD000000 
 534      636848
 535 003d 65617041 		.ascii	"eapAlloc\000\000\000\000\000\000\000\000\000\000\000"
 535      6C6C6F63 
 535      00000000 
 535      00000000 
 535      000000
 536 0050 00B20100 		.ascii	"\000\262\001\000\000chHeapFree\000\000\000\000\000\000"
 536      00636848 
 536      65617046 
ARM GAS  /tmp/ccON3Nu8.s 			page 43


 536      72656500 
 536      00000000 
 537 0065 00000000 		.ascii	"\000\000\000\000\000\000\272\001\000\000chHeapStatu"
 537      0000BA01 
 537      00006368 
 537      48656170 
 537      53746174 
 538 007a 73000000 		.ascii	"s\000\000\000\000\000\000\000\000\000\000\000\000\301"
 538      00000000 
 538      00000000 
 538      00C1
 539 0088 01000063 		.ascii	"\001\000\000chCoreAlloc\000\000\002\000\000\000\000"
 539      68436F72 
 539      65416C6C 
 539      6F630000 
 539      02000000 
 540 009d 00000000 		.ascii	"\000\000\000\000\000\246\000\000\000chMtxObjectInit"
 540      00A60000 
 540      0063684D 
 540      74784F62 
 540      6A656374 
 541 00b5 00000200 		.ascii	"\000\000\002\000\000\000\000\000\000\000\000\000\313"
 541      00000000 
 541      00000000 
 541      CB
 542 00c2 01000063 		.ascii	"\001\000\000chSysHalt\000\000\002\000\000\000\000\000"
 542      68537973 
 542      48616C74 
 542      00000200 
 542      00000000 
 543 00d6 00000000 		.ascii	"\000\000\000\000\317\001\000\000chMtxUnlock\000\000"
 543      CF010000 
 543      63684D74 
 543      78556E6C 
 543      6F636B00 
 544 00eb 02000000 		.ascii	"\002\000\000\000\000\000\000\000\000\000\323\001\000"
 544      00000000 
 544      0000D301 
 544      00
 545 00f8 0063684D 		.ascii	"\000chMtxLock\000\000\002\000\000\000\000\000\000\000"
 545      74784C6F 
 545      636B0000 
 545      02000000 
 545      00000000 
 546 010c 0000D501 		.ascii	"\000\000\325\001\000\000"
 546      0000
 547              		.text
 548              		.section	.gnu.lto_.opts,"",%progbits
 549 0000 272D6D63 		.ascii	"'-mcpu=cortex-m4' '-mno-thumb-interwork' '-mthumb' "
 549      70753D63 
 549      6F727465 
 549      782D6D34 
 549      2720272D 
 550 0033 272D6767 		.ascii	"'-ggdb' '-O0' '-fomit-frame-pointer' '-falign-funct"
 550      64622720 
 550      272D4F30 
 550      2720272D 
ARM GAS  /tmp/ccON3Nu8.s 			page 44


 550      666F6D69 
 551 0066 696F6E73 		.ascii	"ions=16' '-ffunction-sections' '-fdata-sections' '-"
 551      3D313627 
 551      20272D66 
 551      66756E63 
 551      74696F6E 
 552 0099 666E6F2D 		.ascii	"fno-common' '-flto'\000"
 552      636F6D6D 
 552      6F6E2720 
 552      272D666C 
 552      746F2700 
 553              		.text
 554              		.cfi_sections	.debug_frame
 555              		.section	.bss.default_heap,"aw",%nobits
 556              		.align	3
 557              		.type	default_heap, %object
 558              		.size	default_heap, 32
 559              	default_heap:
 560 0000 00000000 		.space	32
 560      00000000 
 560      00000000 
 560      00000000 
 560      00000000 
 561              		.section	.text._heap_init,"ax",%progbits
 562              		.align	2
 563              		.p2align 4,,15
 564              		.global	_heap_init
 565              		.thumb
 566              		.thumb_func
 567              		.type	_heap_init, %function
 568              	_heap_init:
 569              	.LFB241:
 570              		.file 1 "lib/ChibiOS_16.1.4//os/rt/src/chheap.c"
 571              		.loc 1 91 0
 572              		.cfi_startproc
 573              		@ args = 0, pretend = 0, frame = 0
 574              		@ frame_needed = 0, uses_anonymous_args = 0
 575 0000 08B5     		push	{r3, lr}
 576              		.cfi_def_cfa_offset 8
 577              		.cfi_offset 3, -8
 578              		.cfi_offset 14, -4
 579              		.loc 1 93 0
 580 0002 40F20003 		movw	r3, #:lower16:default_heap
 581 0006 C0F20003 		movt	r3, #:upper16:default_heap
 582 000a 40F20002 		movw	r2, #:lower16:chCoreAlloc
 583 000e C0F20002 		movt	r2, #:upper16:chCoreAlloc
 584 0012 1A60     		str	r2, [r3]
 585              		.loc 1 94 0
 586 0014 40F20003 		movw	r3, #:lower16:default_heap
 587 0018 C0F20003 		movt	r3, #:upper16:default_heap
 588 001c 0022     		movs	r2, #0
 589 001e 9A60     		str	r2, [r3, #8]
 590              		.loc 1 95 0
 591 0020 40F20003 		movw	r3, #:lower16:default_heap
 592 0024 C0F20003 		movt	r3, #:upper16:default_heap
 593 0028 0022     		movs	r2, #0
 594 002a DA60     		str	r2, [r3, #12]
ARM GAS  /tmp/ccON3Nu8.s 			page 45


 595              		.loc 1 97 0
 596 002c 0148     		ldr	r0, .L2
 597 002e FFF7FEFF 		bl	chMtxObjectInit
 598              		.loc 1 101 0
 599 0032 08BD     		pop	{r3, pc}
 600              	.L3:
 601              		.align	2
 602              	.L2:
 603 0034 10000000 		.word	default_heap+16
 604              		.cfi_endproc
 605              	.LFE241:
 606              		.size	_heap_init, .-_heap_init
 607 0038 AFF30080 		.section	.text.chHeapObjectInit,"ax",%progbits
 607      AFF30080 
 608              		.align	2
 609              		.p2align 4,,15
 610              		.global	chHeapObjectInit
 611              		.thumb
 612              		.thumb_func
 613              		.type	chHeapObjectInit, %function
 614              	chHeapObjectInit:
 615              	.LFB242:
 616              		.loc 1 114 0
 617              		.cfi_startproc
 618              		@ args = 0, pretend = 0, frame = 24
 619              		@ frame_needed = 0, uses_anonymous_args = 0
 620 0000 00B5     		push	{lr}
 621              		.cfi_def_cfa_offset 4
 622              		.cfi_offset 14, -4
 623 0002 87B0     		sub	sp, sp, #28
 624              		.cfi_def_cfa_offset 32
 625 0004 0390     		str	r0, [sp, #12]
 626 0006 0291     		str	r1, [sp, #8]
 627 0008 0192     		str	r2, [sp, #4]
 628              		.loc 1 115 0
 629 000a 029B     		ldr	r3, [sp, #8]
 630 000c 0593     		str	r3, [sp, #20]
 631              		.loc 1 117 0
 632 000e 029B     		ldr	r3, [sp, #8]
 633 0010 03F00703 		and	r3, r3, #7
 634 0014 002B     		cmp	r3, #0
 635 0016 04D1     		bne	.L5
 636              		.loc 1 117 0 is_stmt 0 discriminator 2
 637 0018 019B     		ldr	r3, [sp, #4]
 638 001a 03F00703 		and	r3, r3, #7
 639 001e 002B     		cmp	r3, #0
 640 0020 05D0     		beq	.L6
 641              	.L5:
 642              		.loc 1 117 0 discriminator 1
 643 0022 40F20000 		movw	r0, #:lower16:__func__.6620
 644 0026 C0F20000 		movt	r0, #:upper16:__func__.6620
 645 002a FFF7FEFF 		bl	chSysHalt
 646              	.L6:
 647              		.loc 1 119 0 is_stmt 1
 648 002e 039B     		ldr	r3, [sp, #12]
 649 0030 0022     		movs	r2, #0
 650 0032 1A60     		str	r2, [r3]
ARM GAS  /tmp/ccON3Nu8.s 			page 46


 651              		.loc 1 120 0
 652 0034 039B     		ldr	r3, [sp, #12]
 653 0036 059A     		ldr	r2, [sp, #20]
 654 0038 9A60     		str	r2, [r3, #8]
 655              		.loc 1 121 0
 656 003a 039B     		ldr	r3, [sp, #12]
 657 003c 0022     		movs	r2, #0
 658 003e DA60     		str	r2, [r3, #12]
 659              		.loc 1 122 0
 660 0040 059B     		ldr	r3, [sp, #20]
 661 0042 0022     		movs	r2, #0
 662 0044 1A60     		str	r2, [r3]
 663              		.loc 1 123 0
 664 0046 019B     		ldr	r3, [sp, #4]
 665 0048 A3F10802 		sub	r2, r3, #8
 666 004c 059B     		ldr	r3, [sp, #20]
 667 004e 5A60     		str	r2, [r3, #4]
 668              		.loc 1 125 0
 669 0050 039B     		ldr	r3, [sp, #12]
 670 0052 1033     		adds	r3, r3, #16
 671 0054 1846     		mov	r0, r3
 672 0056 FFF7FEFF 		bl	chMtxObjectInit
 673              		.loc 1 129 0
 674 005a 07B0     		add	sp, sp, #28
 675              		@ sp needed
 676 005c 5DF804FB 		ldr	pc, [sp], #4
 677              		.cfi_endproc
 678              	.LFE242:
 679              		.size	chHeapObjectInit, .-chHeapObjectInit
 680              		.section	.text.chHeapAlloc,"ax",%progbits
 681              		.align	2
 682              		.p2align 4,,15
 683              		.global	chHeapAlloc
 684              		.thumb
 685              		.thumb_func
 686              		.type	chHeapAlloc, %function
 687              	chHeapAlloc:
 688              	.LFB243:
 689              		.loc 1 147 0
 690              		.cfi_startproc
 691              		@ args = 0, pretend = 0, frame = 24
 692              		@ frame_needed = 0, uses_anonymous_args = 0
 693 0000 00B5     		push	{lr}
 694              		.cfi_def_cfa_offset 4
 695              		.cfi_offset 14, -4
 696 0002 87B0     		sub	sp, sp, #28
 697              		.cfi_def_cfa_offset 32
 698 0004 0190     		str	r0, [sp, #4]
 699 0006 0091     		str	r1, [sp]
 700              		.loc 1 150 0
 701 0008 019B     		ldr	r3, [sp, #4]
 702 000a 002B     		cmp	r3, #0
 703 000c 04D1     		bne	.L8
 704              		.loc 1 151 0
 705 000e 40F20003 		movw	r3, #:lower16:default_heap
 706 0012 C0F20003 		movt	r3, #:upper16:default_heap
 707 0016 0193     		str	r3, [sp, #4]
ARM GAS  /tmp/ccON3Nu8.s 			page 47


 708              	.L8:
 709              		.loc 1 154 0
 710 0018 009B     		ldr	r3, [sp]
 711 001a 0733     		adds	r3, r3, #7
 712 001c 23F00703 		bic	r3, r3, #7
 713 0020 0093     		str	r3, [sp]
 714              		.loc 1 155 0
 715 0022 019B     		ldr	r3, [sp, #4]
 716 0024 0833     		adds	r3, r3, #8
 717 0026 0593     		str	r3, [sp, #20]
 718              		.loc 1 157 0
 719 0028 019B     		ldr	r3, [sp, #4]
 720 002a 1033     		adds	r3, r3, #16
 721 002c 1846     		mov	r0, r3
 722 002e FFF7FEFF 		bl	chMtxLock
 723              		.loc 1 158 0
 724 0032 36E0     		b	.L9
 725              	.L14:
 726              		.loc 1 159 0
 727 0034 059B     		ldr	r3, [sp, #20]
 728 0036 1B68     		ldr	r3, [r3]
 729 0038 0493     		str	r3, [sp, #16]
 730              		.loc 1 160 0
 731 003a 049B     		ldr	r3, [sp, #16]
 732 003c 5A68     		ldr	r2, [r3, #4]
 733 003e 009B     		ldr	r3, [sp]
 734 0040 9A42     		cmp	r2, r3
 735 0042 2CD3     		bcc	.L10
 736              		.loc 1 161 0
 737 0044 049B     		ldr	r3, [sp, #16]
 738 0046 5A68     		ldr	r2, [r3, #4]
 739 0048 009B     		ldr	r3, [sp]
 740 004a 0833     		adds	r3, r3, #8
 741 004c 9A42     		cmp	r2, r3
 742 004e 04D2     		bcs	.L11
 743              		.loc 1 165 0
 744 0050 049B     		ldr	r3, [sp, #16]
 745 0052 1A68     		ldr	r2, [r3]
 746 0054 059B     		ldr	r3, [sp, #20]
 747 0056 1A60     		str	r2, [r3]
 748 0058 16E0     		b	.L12
 749              	.L11:
 750              		.loc 1 170 0
 751 005a 009B     		ldr	r3, [sp]
 752 005c 0833     		adds	r3, r3, #8
 753 005e 049A     		ldr	r2, [sp, #16]
 754 0060 1344     		add	r3, r3, r2
 755 0062 0393     		str	r3, [sp, #12]
 756              		.loc 1 172 0
 757 0064 049B     		ldr	r3, [sp, #16]
 758 0066 1A68     		ldr	r2, [r3]
 759 0068 039B     		ldr	r3, [sp, #12]
 760 006a 1A60     		str	r2, [r3]
 761              		.loc 1 173 0
 762 006c 049B     		ldr	r3, [sp, #16]
 763 006e 5A68     		ldr	r2, [r3, #4]
 764 0070 009B     		ldr	r3, [sp]
ARM GAS  /tmp/ccON3Nu8.s 			page 48


 765 0072 D31A     		subs	r3, r2, r3
 766 0074 A3F10802 		sub	r2, r3, #8
 767 0078 039B     		ldr	r3, [sp, #12]
 768 007a 5A60     		str	r2, [r3, #4]
 769              		.loc 1 174 0
 770 007c 059B     		ldr	r3, [sp, #20]
 771 007e 039A     		ldr	r2, [sp, #12]
 772 0080 1A60     		str	r2, [r3]
 773              		.loc 1 175 0
 774 0082 049B     		ldr	r3, [sp, #16]
 775 0084 009A     		ldr	r2, [sp]
 776 0086 5A60     		str	r2, [r3, #4]
 777              	.L12:
 778              		.loc 1 177 0
 779 0088 049B     		ldr	r3, [sp, #16]
 780 008a 019A     		ldr	r2, [sp, #4]
 781 008c 1A60     		str	r2, [r3]
 782              		.loc 1 178 0
 783 008e 019B     		ldr	r3, [sp, #4]
 784 0090 1033     		adds	r3, r3, #16
 785 0092 1846     		mov	r0, r3
 786 0094 FFF7FEFF 		bl	chMtxUnlock
 787              		.loc 1 181 0
 788 0098 049B     		ldr	r3, [sp, #16]
 789 009a 0833     		adds	r3, r3, #8
 790 009c 24E0     		b	.L13
 791              	.L10:
 792              		.loc 1 184 0
 793 009e 049B     		ldr	r3, [sp, #16]
 794 00a0 0593     		str	r3, [sp, #20]
 795              	.L9:
 796              		.loc 1 158 0 discriminator 1
 797 00a2 059B     		ldr	r3, [sp, #20]
 798 00a4 1B68     		ldr	r3, [r3]
 799 00a6 002B     		cmp	r3, #0
 800 00a8 C4D1     		bne	.L14
 801              		.loc 1 186 0
 802 00aa 019B     		ldr	r3, [sp, #4]
 803 00ac 1033     		adds	r3, r3, #16
 804 00ae 1846     		mov	r0, r3
 805 00b0 FFF7FEFF 		bl	chMtxUnlock
 806              		.loc 1 190 0
 807 00b4 019B     		ldr	r3, [sp, #4]
 808 00b6 1B68     		ldr	r3, [r3]
 809 00b8 002B     		cmp	r3, #0
 810 00ba 14D0     		beq	.L15
 811              		.loc 1 191 0
 812 00bc 019B     		ldr	r3, [sp, #4]
 813 00be 1B68     		ldr	r3, [r3]
 814 00c0 009A     		ldr	r2, [sp]
 815 00c2 0832     		adds	r2, r2, #8
 816 00c4 1046     		mov	r0, r2
 817 00c6 9847     		blx	r3
 818 00c8 0490     		str	r0, [sp, #16]
 819              		.loc 1 192 0
 820 00ca 049B     		ldr	r3, [sp, #16]
 821 00cc 002B     		cmp	r3, #0
ARM GAS  /tmp/ccON3Nu8.s 			page 49


 822 00ce 0AD0     		beq	.L15
 823              		.loc 1 193 0
 824 00d0 049B     		ldr	r3, [sp, #16]
 825 00d2 019A     		ldr	r2, [sp, #4]
 826 00d4 1A60     		str	r2, [r3]
 827              		.loc 1 194 0
 828 00d6 049B     		ldr	r3, [sp, #16]
 829 00d8 009A     		ldr	r2, [sp]
 830 00da 5A60     		str	r2, [r3, #4]
 831              		.loc 1 195 0
 832 00dc 049B     		ldr	r3, [sp, #16]
 833 00de 0833     		adds	r3, r3, #8
 834 00e0 0493     		str	r3, [sp, #16]
 835              		.loc 1 198 0
 836 00e2 049B     		ldr	r3, [sp, #16]
 837 00e4 00E0     		b	.L13
 838              	.L15:
 839              		.loc 1 203 0
 840 00e6 0023     		movs	r3, #0
 841              	.L13:
 842              		.loc 1 204 0
 843 00e8 1846     		mov	r0, r3
 844 00ea 07B0     		add	sp, sp, #28
 845              		@ sp needed
 846 00ec 5DF804FB 		ldr	pc, [sp], #4
 847              		.cfi_endproc
 848              	.LFE243:
 849              		.size	chHeapAlloc, .-chHeapAlloc
 850              		.section	.text.chHeapFree,"ax",%progbits
 851              		.align	2
 852              		.p2align 4,,15
 853              		.global	chHeapFree
 854              		.thumb
 855              		.thumb_func
 856              		.type	chHeapFree, %function
 857              	chHeapFree:
 858              	.LFB244:
 859              		.loc 1 213 0
 860              		.cfi_startproc
 861              		@ args = 0, pretend = 0, frame = 24
 862              		@ frame_needed = 0, uses_anonymous_args = 0
 863 0000 00B5     		push	{lr}
 864              		.cfi_def_cfa_offset 4
 865              		.cfi_offset 14, -4
 866 0002 87B0     		sub	sp, sp, #28
 867              		.cfi_def_cfa_offset 32
 868 0004 0190     		str	r0, [sp, #4]
 869              		.loc 1 217 0
 870 0006 019B     		ldr	r3, [sp, #4]
 871 0008 002B     		cmp	r3, #0
 872 000a 05D1     		bne	.L17
 873              		.loc 1 217 0 is_stmt 0 discriminator 1
 874 000c 40F20000 		movw	r0, #:lower16:__func__.6637
 875 0010 C0F20000 		movt	r0, #:upper16:__func__.6637
 876 0014 FFF7FEFF 		bl	chSysHalt
 877              	.L17:
 878              		.loc 1 220 0 is_stmt 1
ARM GAS  /tmp/ccON3Nu8.s 			page 50


 879 0018 019B     		ldr	r3, [sp, #4]
 880 001a 083B     		subs	r3, r3, #8
 881 001c 0493     		str	r3, [sp, #16]
 882              		.loc 1 222 0
 883 001e 049B     		ldr	r3, [sp, #16]
 884 0020 1B68     		ldr	r3, [r3]
 885 0022 0393     		str	r3, [sp, #12]
 886              		.loc 1 223 0
 887 0024 039B     		ldr	r3, [sp, #12]
 888 0026 0833     		adds	r3, r3, #8
 889 0028 0593     		str	r3, [sp, #20]
 890              		.loc 1 225 0
 891 002a 039B     		ldr	r3, [sp, #12]
 892 002c 1033     		adds	r3, r3, #16
 893 002e 1846     		mov	r0, r3
 894 0030 FFF7FEFF 		bl	chMtxLock
 895              	.L25:
 896              		.loc 1 227 0
 897 0034 049A     		ldr	r2, [sp, #16]
 898 0036 059B     		ldr	r3, [sp, #20]
 899 0038 9A42     		cmp	r2, r3
 900 003a 0DD3     		bcc	.L18
 901              		.loc 1 227 0 is_stmt 0 discriminator 1
 902 003c 059B     		ldr	r3, [sp, #20]
 903 003e 5B68     		ldr	r3, [r3, #4]
 904 0040 0833     		adds	r3, r3, #8
 905 0042 059A     		ldr	r2, [sp, #20]
 906 0044 1A44     		add	r2, r2, r3
 907 0046 049B     		ldr	r3, [sp, #16]
 908 0048 9A42     		cmp	r2, r3
 909 004a 05D9     		bls	.L18
 910 004c 40F20000 		movw	r0, #:lower16:__func__.6637
 911 0050 C0F20000 		movt	r0, #:upper16:__func__.6637
 912 0054 FFF7FEFF 		bl	chSysHalt
 913              	.L18:
 914              		.loc 1 229 0 is_stmt 1
 915 0058 039B     		ldr	r3, [sp, #12]
 916 005a 03F10802 		add	r2, r3, #8
 917 005e 059B     		ldr	r3, [sp, #20]
 918 0060 9A42     		cmp	r2, r3
 919 0062 03D0     		beq	.L19
 920              		.loc 1 229 0 is_stmt 0 discriminator 2
 921 0064 049A     		ldr	r2, [sp, #16]
 922 0066 059B     		ldr	r3, [sp, #20]
 923 0068 9A42     		cmp	r2, r3
 924 006a 3ED9     		bls	.L20
 925              	.L19:
 926              		.loc 1 230 0 is_stmt 1 discriminator 1
 927 006c 059B     		ldr	r3, [sp, #20]
 928 006e 1B68     		ldr	r3, [r3]
 929              		.loc 1 229 0 discriminator 1
 930 0070 002B     		cmp	r3, #0
 931 0072 04D0     		beq	.L21
 932              		.loc 1 230 0
 933 0074 059B     		ldr	r3, [sp, #20]
 934 0076 1A68     		ldr	r2, [r3]
 935 0078 049B     		ldr	r3, [sp, #16]
ARM GAS  /tmp/ccON3Nu8.s 			page 51


 936 007a 9A42     		cmp	r2, r3
 937 007c 35D9     		bls	.L20
 938              	.L21:
 939              		.loc 1 232 0
 940 007e 059B     		ldr	r3, [sp, #20]
 941 0080 1A68     		ldr	r2, [r3]
 942 0082 049B     		ldr	r3, [sp, #16]
 943 0084 1A60     		str	r2, [r3]
 944              		.loc 1 233 0
 945 0086 059B     		ldr	r3, [sp, #20]
 946 0088 049A     		ldr	r2, [sp, #16]
 947 008a 1A60     		str	r2, [r3]
 948              		.loc 1 235 0
 949 008c 049B     		ldr	r3, [sp, #16]
 950 008e 5B68     		ldr	r3, [r3, #4]
 951 0090 0833     		adds	r3, r3, #8
 952 0092 049A     		ldr	r2, [sp, #16]
 953 0094 1A44     		add	r2, r2, r3
 954 0096 049B     		ldr	r3, [sp, #16]
 955 0098 1B68     		ldr	r3, [r3]
 956 009a 9A42     		cmp	r2, r3
 957 009c 0ED1     		bne	.L22
 958              		.loc 1 237 0
 959 009e 049B     		ldr	r3, [sp, #16]
 960 00a0 5A68     		ldr	r2, [r3, #4]
 961 00a2 049B     		ldr	r3, [sp, #16]
 962 00a4 1B68     		ldr	r3, [r3]
 963 00a6 5B68     		ldr	r3, [r3, #4]
 964 00a8 1344     		add	r3, r3, r2
 965 00aa 03F10802 		add	r2, r3, #8
 966 00ae 049B     		ldr	r3, [sp, #16]
 967 00b0 5A60     		str	r2, [r3, #4]
 968              		.loc 1 238 0
 969 00b2 049B     		ldr	r3, [sp, #16]
 970 00b4 1B68     		ldr	r3, [r3]
 971 00b6 1A68     		ldr	r2, [r3]
 972 00b8 049B     		ldr	r3, [sp, #16]
 973 00ba 1A60     		str	r2, [r3]
 974              	.L22:
 975              		.loc 1 240 0
 976 00bc 059B     		ldr	r3, [sp, #20]
 977 00be 5B68     		ldr	r3, [r3, #4]
 978 00c0 0833     		adds	r3, r3, #8
 979 00c2 059A     		ldr	r2, [sp, #20]
 980 00c4 1A44     		add	r2, r2, r3
 981 00c6 049B     		ldr	r3, [sp, #16]
 982 00c8 9A42     		cmp	r2, r3
 983 00ca 0DD1     		bne	.L23
 984              		.loc 1 242 0
 985 00cc 059B     		ldr	r3, [sp, #20]
 986 00ce 5A68     		ldr	r2, [r3, #4]
 987 00d0 049B     		ldr	r3, [sp, #16]
 988 00d2 5B68     		ldr	r3, [r3, #4]
 989 00d4 1344     		add	r3, r3, r2
 990 00d6 03F10802 		add	r2, r3, #8
 991 00da 059B     		ldr	r3, [sp, #20]
 992 00dc 5A60     		str	r2, [r3, #4]
ARM GAS  /tmp/ccON3Nu8.s 			page 52


 993              		.loc 1 243 0
 994 00de 049B     		ldr	r3, [sp, #16]
 995 00e0 1A68     		ldr	r2, [r3]
 996 00e2 059B     		ldr	r3, [sp, #20]
 997 00e4 1A60     		str	r2, [r3]
 998              		.loc 1 245 0
 999 00e6 04E0     		b	.L24
 1000              	.L23:
 1001 00e8 03E0     		b	.L24
 1002              	.L20:
 1003              		.loc 1 247 0
 1004 00ea 059B     		ldr	r3, [sp, #20]
 1005 00ec 1B68     		ldr	r3, [r3]
 1006 00ee 0593     		str	r3, [sp, #20]
 1007              		.loc 1 248 0
 1008 00f0 A0E7     		b	.L25
 1009              	.L24:
 1010              		.loc 1 249 0
 1011 00f2 039B     		ldr	r3, [sp, #12]
 1012 00f4 1033     		adds	r3, r3, #16
 1013 00f6 1846     		mov	r0, r3
 1014 00f8 FFF7FEFF 		bl	chMtxUnlock
 1015              		.loc 1 251 0
 1016 00fc 00BF     		nop
 1017              		.loc 1 252 0
 1018 00fe 07B0     		add	sp, sp, #28
 1019              		@ sp needed
 1020 0100 5DF804FB 		ldr	pc, [sp], #4
 1021              		.cfi_endproc
 1022              	.LFE244:
 1023              		.size	chHeapFree, .-chHeapFree
 1024 0104 AFF30080 		.section	.text.chHeapStatus,"ax",%progbits
 1024      AFF30080 
 1024      AFF30080 
 1025              		.align	2
 1026              		.p2align 4,,15
 1027              		.global	chHeapStatus
 1028              		.thumb
 1029              		.thumb_func
 1030              		.type	chHeapStatus, %function
 1031              	chHeapStatus:
 1032              	.LFB245:
 1033              		.loc 1 267 0
 1034              		.cfi_startproc
 1035              		@ args = 0, pretend = 0, frame = 24
 1036              		@ frame_needed = 0, uses_anonymous_args = 0
 1037 0000 00B5     		push	{lr}
 1038              		.cfi_def_cfa_offset 4
 1039              		.cfi_offset 14, -4
 1040 0002 87B0     		sub	sp, sp, #28
 1041              		.cfi_def_cfa_offset 32
 1042 0004 0190     		str	r0, [sp, #4]
 1043 0006 0091     		str	r1, [sp]
 1044              		.loc 1 271 0
 1045 0008 019B     		ldr	r3, [sp, #4]
 1046 000a 002B     		cmp	r3, #0
 1047 000c 04D1     		bne	.L28
ARM GAS  /tmp/ccON3Nu8.s 			page 53


 1048              		.loc 1 272 0
 1049 000e 40F20003 		movw	r3, #:lower16:default_heap
 1050 0012 C0F20003 		movt	r3, #:upper16:default_heap
 1051 0016 0193     		str	r3, [sp, #4]
 1052              	.L28:
 1053              		.loc 1 275 0
 1054 0018 019B     		ldr	r3, [sp, #4]
 1055 001a 1033     		adds	r3, r3, #16
 1056 001c 1846     		mov	r0, r3
 1057 001e FFF7FEFF 		bl	chMtxLock
 1058              		.loc 1 276 0
 1059 0022 0023     		movs	r3, #0
 1060 0024 0393     		str	r3, [sp, #12]
 1061              		.loc 1 277 0
 1062 0026 0023     		movs	r3, #0
 1063 0028 0493     		str	r3, [sp, #16]
 1064              		.loc 1 278 0
 1065 002a 019B     		ldr	r3, [sp, #4]
 1066 002c 0833     		adds	r3, r3, #8
 1067 002e 0593     		str	r3, [sp, #20]
 1068              		.loc 1 279 0
 1069 0030 0BE0     		b	.L29
 1070              	.L30:
 1071              		.loc 1 280 0
 1072 0032 059B     		ldr	r3, [sp, #20]
 1073 0034 1B68     		ldr	r3, [r3]
 1074 0036 5B68     		ldr	r3, [r3, #4]
 1075 0038 039A     		ldr	r2, [sp, #12]
 1076 003a 1344     		add	r3, r3, r2
 1077 003c 0393     		str	r3, [sp, #12]
 1078              		.loc 1 281 0
 1079 003e 049B     		ldr	r3, [sp, #16]
 1080 0040 0133     		adds	r3, r3, #1
 1081 0042 0493     		str	r3, [sp, #16]
 1082              		.loc 1 282 0
 1083 0044 059B     		ldr	r3, [sp, #20]
 1084 0046 1B68     		ldr	r3, [r3]
 1085 0048 0593     		str	r3, [sp, #20]
 1086              	.L29:
 1087              		.loc 1 279 0 discriminator 1
 1088 004a 059B     		ldr	r3, [sp, #20]
 1089 004c 1B68     		ldr	r3, [r3]
 1090 004e 002B     		cmp	r3, #0
 1091 0050 EFD1     		bne	.L30
 1092              		.loc 1 284 0
 1093 0052 009B     		ldr	r3, [sp]
 1094 0054 002B     		cmp	r3, #0
 1095 0056 02D0     		beq	.L31
 1096              		.loc 1 285 0
 1097 0058 009B     		ldr	r3, [sp]
 1098 005a 039A     		ldr	r2, [sp, #12]
 1099 005c 1A60     		str	r2, [r3]
 1100              	.L31:
 1101              		.loc 1 287 0
 1102 005e 019B     		ldr	r3, [sp, #4]
 1103 0060 1033     		adds	r3, r3, #16
 1104 0062 1846     		mov	r0, r3
ARM GAS  /tmp/ccON3Nu8.s 			page 54


 1105 0064 FFF7FEFF 		bl	chMtxUnlock
 1106              		.loc 1 289 0
 1107 0068 049B     		ldr	r3, [sp, #16]
 1108              		.loc 1 290 0
 1109 006a 1846     		mov	r0, r3
 1110 006c 07B0     		add	sp, sp, #28
 1111              		@ sp needed
 1112 006e 5DF804FB 		ldr	pc, [sp], #4
 1113              		.cfi_endproc
 1114              	.LFE245:
 1115              		.size	chHeapStatus, .-chHeapStatus
 1116 0072 00BFAFF3 		.section	.rodata.__func__.6620,"a",%progbits
 1116      0080AFF3 
 1116      0080AFF3 
 1116      0080
 1117              		.align	2
 1118              		.type	__func__.6620, %object
 1119              		.size	__func__.6620, 17
 1120              	__func__.6620:
 1121 0000 63684865 		.ascii	"chHeapObjectInit\000"
 1121      61704F62 
 1121      6A656374 
 1121      496E6974 
 1121      00
 1122 0011 000000   		.section	.rodata.__func__.6637,"a",%progbits
 1123              		.align	2
 1124              		.type	__func__.6637, %object
 1125              		.size	__func__.6637, 11
 1126              	__func__.6637:
 1127 0000 63684865 		.ascii	"chHeapFree\000"
 1127      61704672 
 1127      656500
 1128 000b 00       		.text
 1129              	.Letext0:
 1130              		.file 2 "/usr/lib/gcc/arm-none-eabi/4.8.2/include/stddef.h"
 1131              		.file 3 "/usr/include/newlib/machine/_default_types.h"
 1132              		.file 4 "/usr/include/newlib/stdint.h"
 1133              		.file 5 "lib/ChibiOS_16.1.4//os/rt/ports/ARMCMx/compilers/GCC/chtypes.h"
 1134              		.file 6 "lib/ChibiOS_16.1.4//os/rt/include/chsystypes.h"
 1135              		.file 7 "lib/ChibiOS_16.1.4//os/rt/include/chschd.h"
 1136              		.file 8 "lib/ChibiOS_16.1.4//os/rt/ports/ARMCMx/chcore.h"
 1137              		.file 9 "lib/ChibiOS_16.1.4//os/rt/ports/ARMCMx/chcore_v7m.h"
 1138              		.file 10 "lib/ChibiOS_16.1.4//os/rt/include/chdebug.h"
 1139              		.file 11 "lib/ChibiOS_16.1.4//os/rt/include/chtm.h"
 1140              		.file 12 "lib/ChibiOS_16.1.4//os/rt/include/chstats.h"
 1141              		.file 13 "lib/ChibiOS_16.1.4//os/rt/include/chsem.h"
 1142              		.file 14 "lib/ChibiOS_16.1.4//os/rt/include/chmtx.h"
 1143              		.file 15 "lib/ChibiOS_16.1.4//os/rt/include/chmemcore.h"
 1144              		.file 16 "lib/ChibiOS_16.1.4//os/rt/include/chheap.h"
 1145              		.file 17 "lib/ChibiOS_16.1.4//os/ext/CMSIS/include/core_cm4.h"