ARM GAS  /tmp/ccCDU11I.s 			page 1


   1              		.syntax unified
   2              		.cpu cortex-m4
   3              		.fpu softvfp
   4              		.eabi_attribute 20, 1
   5              		.eabi_attribute 21, 1
   6              		.eabi_attribute 23, 3
   7              		.eabi_attribute 24, 1
   8              		.eabi_attribute 25, 1
   9              		.eabi_attribute 26, 1
  10              		.eabi_attribute 30, 6
  11              		.eabi_attribute 34, 1
  12              		.eabi_attribute 18, 4
  13              		.thumb
  14              		.file	"chmboxes.c"
  15              		.text
  16              	.Ltext0:
  17              		.section	.gnu.lto_.inline.e245fb5f86c065b3,"",%progbits
  18 0000 789C6362 		.ascii	"x\234cb`b\300\006j\240\302B\014\014,\314\014\014L,\037"
  18      6062C006 
  18      6AA0C242 
  18      0C0C2CCC 
  18      0C0C4C2C 
  19 0015 F4185820 		.ascii	"\364\030X j\0311D\230\030\330\024\200$\323\002y\270"
  19      6A193144 
  19      9818D814 
  19      8024D302 
  19      79B8
  20 0027 1A2E1482 		.ascii	"\032.\024\202\231A\320\004\250@\344\303jF\024\025L\334"
  20      9941D004 
  20      A840E4C3 
  20      6A461415 
  20      4CDC
  21 0039 28CAD818 		.ascii	"(\312\330\030Xy\321\354\002\011\2633\260\363\003\205"
  21      5879D1EC 
  21      0209B333 
  21      B0F30385 
  22 0049 3926F8A1 		.ascii	"9&\370\241\010s0\210\033\002\205\245\036\334\202\033"
  22      08733088 
  22      1B0285A5 
  22      1EDC821B 
  23 0059 CACC0323 		.ascii	"\312\314\003#\300&s1\210Y\002\231b\007v\343R\0016\210"
  23      C0267331 
  23      88590299 
  23      620776E3 
  23      52013688 
  24 006d 8781431B 		.ascii	"\207\201C\033\227\363\021\252x\031\244\217\203\004\344"
  24      97F311AA 
  24      7819A48F 
  24      8304E4
  25 007c 1A7E61F1 		.ascii	"\032~a\361\004\013/\212b~\006.\025,F\262\362\301X\002"
  25      040B2F8A 
  25      627E062E 
  25      152C46B2 
  25      F2C15802 
  26 0090 584C036B 		.ascii	"XL\003k\007\023h\016\024b\220=\011\022PZ0\223\211\240"
  26      0713680E 
  26      1462903D 
ARM GAS  /tmp/ccCDU11I.s 			page 2


  26      0912505A 
  26      309389A0 
  27 00a4 D52284AC 		.ascii	"\325\"\204\254\026\305b\032N\253\305\031\344N\201\004"
  27      16C5621A 
  27      4EABC519 
  27      E44E8104 
  28 00b4 543EAC20 		.ascii	"T>\254 l\265$!\253\245\260\230\206\323j\006\000\301"
  28      6CB52421 
  28      ABA5B098 
  28      86D36A06 
  28      00C1
  29 00c6 1222E1   		.ascii	"\022\"\341"
  30              		.text
  31              		.section	.gnu.lto_port_lock.e245fb5f86c065b3,"",%progbits
  32 0000 789C6362 		.ascii	"x\234cb`b@\007\"@,\314\310\3000\001\304af`\004\252`"
  32      60624007 
  32      22402CCC 
  32      C8C03001 
  32      C4616660 
  33 0017 6462040A 		.ascii	"db\004\012002\32431\326G\202\230\014\214J\014\013\033"
  33      303032D4 
  33      3331D647 
  33      82980C8C 
  33      4A0C0B1B 
  34 002b 1A263D68 		.ascii	"\032&=h}\366\230if\303\201\226\005\015\177\376\377g"
  34      7DF69869 
  34      66C38196 
  34      050D7FFE 
  34      FF67
  35 003d 64CC6404 		.ascii	"d\314d\004\232h\316\310\220\314\310\020\001\3440*\200"
  35      9A68CEC8 
  35      90CCC810 
  35      01E4302A 
  35      80
  36 004e 29261654 		.ascii	")&\026T+\3263\035x\360\377\377\211\316\347{\201&3$2"
  36      2BD6331D 
  36      78F0FFFF 
  36      89CEE77B 
  36      81263324 
  37 0063 2E049A06 		.ascii	".\004\232\006\004\254\014-\015\015\023\024\030@\272"
  37      04AC0C2D 
  37      0D0D1314 
  37      1840BA
  38 0072 8120044C 		.ascii	"\201 \004L\206\202\034\300|\226\241i\007\220Ngd\004"
  38      86821CC0 
  38      7C96A169 
  38      07904E67 
  38      6404
  39 0084 99C70054 		.ascii	"\231\307\000T\303p\216\241\351\343\337\031\217%\340"
  39      C3708EA1 
  39      E9E3DF19 
  39      8F25E0
  40 0093 BAC08C86 		.ascii	"\272\300\214\206\003\335W\332YaF&2.fd\005\032\007q2"
  40      03DD57DA 
  40      59614626 
  40      322E6664 
  40      051A0771 
ARM GAS  /tmp/ccCDU11I.s 			page 3


  41 00a8 10963283 		.ascii	"\020\2262\203|\314\014\361\266\034C\033\343\334\206"
  41      7CCC0CF1 
  41      B61C431B 
  41      E3DC86
  42 00b7 190E998C 		.ascii	"\031\016\231\214\314 n:X\031\\\256\023*\007u\373E\206"
  42      CC206E3A 
  42      58195CAE 
  42      132A0775 
  42      FB4586
  43 00ca C6073BF5 		.ascii	"\306\007;\365!\006\302@\010H\007H\271INf\222\276sFf"
  43      2106C240 
  43      08480748 
  43      B9494E66 
  43      92BE7346 
  44 00df 52A67F70 		.ascii	"R\246\177p\274\241\231\236\241\236\211\276~~\261~Q\211"
  44      BCA1999E 
  44      A19E89BE 
  44      7E7EB17E 
  44      5189
  45 00f1 7E417E51 		.ascii	"~A~QI\261\276c\220\257\263o\205~rFr~Qj|\231y\256^\006"
  45      49B1BE63 
  45      90AFB36F 
  45      857E7246 
  45      727E516A 
  46 010b 036B5962 		.ascii	"\003kYbNi\2529\016\255\251\025%\372\316\276\301\236"
  46      4E69AA39 
  46      0EADA915 
  46      25FACEBE 
  46      C19E
  47 011d C1FA9979 		.ascii	"\301\372\231y\3119\245)\251\372`\255\311\271n\245y\311"
  47      C939A529 
  47      A9FA60AD 
  47      C9B96EA5 
  47      79C9
  48 012f 40DD02BE 		.ascii	"@\335\002\276\301A\012I\211\305\251\005E\231:\012\252"
  48      C1410A49 
  48      89C5A905 
  48      45993A0A 
  48      AA
  49 0140 060C4C45 		.ascii	"\006\014LE\014\354\271\251\271\371E\225\014\000\027"
  49      0CECB9A9 
  49      B9F94595 
  49      0C0017
  50 014f 1D670F   		.ascii	"\035g\017"
  51              		.text
  52              		.section	.gnu.lto_port_unlock.e245fb5f86c065b3,"",%progbits
  53 0000 789C6362 		.ascii	"x\234cb`b@\007\"@,\314\310\3000\001\304af`\004\252`"
  53      60624007 
  53      22402CCC 
  53      C8C03001 
  53      C4616660 
  54 0017 6462040A 		.ascii	"db\004\012002\32431\326G\202\230\014\214J\014\013\033"
  54      303032D4 
  54      3331D647 
  54      82980C8C 
  54      4A0C0B1B 
  55 002b 1A263D68 		.ascii	"\032&=h\375\364\230if\303\201\226\005\015\177\376\377"
ARM GAS  /tmp/ccCDU11I.s 			page 4


  55      FDF49869 
  55      66C38196 
  55      050D7FFE 
  55      FF
  56 003c 6764CC64 		.ascii	"gd\314d\004\232h\316\310\220\314\310\020\001\3440*\200"
  56      049A68CE 
  56      C890CCC8 
  56      1001E430 
  56      2A80
  57 004e 29261654 		.ascii	")&\026T+\3263\035x\360\377\377\213\316\375\373\200&"
  57      2BD6331D 
  57      78F0FFFF 
  57      8BCEFDFB 
  57      8026
  58 0060 3324322E 		.ascii	"3$2.\004\232\006\004\254\014-\015\015\023\024\030@\272"
  58      049A0604 
  58      AC0C2D0D 
  58      0D131418 
  58      40BA
  59 0072 8120044C 		.ascii	"\201 \004L\206\202\034\300|\226\241i\007\220Ngd\004"
  59      86821CC0 
  59      7C96A169 
  59      07904E67 
  59      6404
  60 0084 990736E4 		.ascii	"\231\0076\344\034C\323\307\2773\036K\300u\201\031\015"
  60      1C43D3C7 
  60      BF331E4B 
  60      C0758119 
  60      0D
  61 0095 074E3F6D 		.ascii	"\007N?mg\205\031\231\310\270\230\221\025h\034\304\311"
  61      67851999 
  61      C8B89891 
  61      15681CC4 
  61      C9
  62 00a6 4058CA0C 		.ascii	"@X\312\014\36213\304\333r\014m\214s\033f8d22\203\270"
  62      F23133C4 
  62      DB720C6D 
  62      8C731B66 
  62      38643232 
  63 00bc E9606570 		.ascii	"\351`ep\271N\250\034\324\355\027\031\032\037\234\327"
  63      B94EA81C 
  63      D4ED1719 
  63      1A1F9CD7 
  64 00cc 87180803 		.ascii	"\207\030\010\003! \035 \345&9\231I\372\316\031\231I"
  64      21201D20 
  64      E5263999 
  64      49FACE19 
  64      9949
  65 00de 99FEC1F1 		.ascii	"\231\376\301\361\206fz\206z&\372\372\371\305\372E%\372"
  65      86667A86 
  65      7A26FAFA 
  65      F9C5FA45 
  65      25FA
  66 00f0 05F94525 		.ascii	"\005\371E%\305\372\216A\276\316\276\025\372\311\031"
  66      C5FA8E41 
  66      BECEBE15 
  66      FAC919
ARM GAS  /tmp/ccCDU11I.s 			page 5


  67 00ff C9F945A9 		.ascii	"\311\371E\251\361e\346\271z\031\014\254e\2119\245\251"
  67      F165E6B9 
  67      7A190CAC 
  67      658939A5 
  67      A9
  68 0110 E638B4A6 		.ascii	"\3468\264\246V\224\350;\373\006{\006\353g\346%\347\224"
  68      5694E83B 
  68      FB067B06 
  68      EB67E625 
  68      E794
  69 0122 A6A4EA83 		.ascii	"\246\244\352\203\265&\347\272\225\346%\003u\013\370"
  69      B526E7BA 
  69      95E62503 
  69      750BF8
  70 0131 06072924 		.ascii	"\006\007)$%\026\247\026\024e\352(\250\03200\0251\260"
  70      2516A716 
  70      1465EA28 
  70      A81A3030 
  70      1531B0
  71 0144 E7A6E6E6 		.ascii	"\347\246\346\346\027U2\000\000]Vg["
  71      17553200 
  71      005D5667 
  71      5B
  72              		.text
  73              		.section	.gnu.lto_chSysLock.e245fb5f86c065b3,"",%progbits
  74 0000 789C6362 		.ascii	"x\234cb`b@\007\"@|\010\210u@\034f\006F\240\012F&FF "
  74      60624007 
  74      22407C08 
  74      8875401C 
  74      660646A0 
  75 001a 8791A19E 		.ascii	"\207\221\241\236\211\261>\222\021\254l=\323\201\007"
  75      89B13E92 
  75      11AC6C3D 
  75      D38107
  76 0029 FFFFAFFB 		.ascii	"\377\377\257\3732m\331\037\306\333L 1V\206\226\206\206"
  76      326DD91F 
  76      C6DB4C20 
  76      31568696 
  76      8686
  77 003b 090A0C0C 		.ascii	"\011\012\014\014\311`\025!`2\024\244\237\371<C\363\203"
  77      C9601521 
  77      603214A4 
  77      9FF93C43 
  77      F383
  78 004d 3DDDEC89 		.ascii	"=\335\354\211\214\013\031Y\201\202\325\014\277\032:"
  78      8C0B1959 
  78      8182D50C 
  78      BF1A3A
  79 005c 1A043219 		.ascii	"\032\0042\031\201J!\246e\202h\220\252\275\335B\330T"
  79      814A21A6 
  79      65826890 
  79      AABDDD42 
  79      D854
  80 006e 31A1AADA 		.ascii	"1\241\252\332w\232\013\233*f\204\252\213\014\215\017"
  80      779A0B9B 
  80      2A6684AA 
  80      8B0C8D0F 
ARM GAS  /tmp/ccCDU11I.s 			page 6


  81 007e F66BC314 		.ascii	"\366k\303\024A@\010H\002d\222VNf\222\276sFfR\246\177"
  81      41400848 
  81      02649256 
  81      4E6692BE 
  81      73466652 
  82 0094 70BCA199 		.ascii	"p\274\241\231\236\241\236\211\276~~\261~Q\211~f^rNi"
  82      9EA19E89 
  82      BE7E7EB1 
  82      7E51897E 
  82      665E724E 
  83 00a9 4AAA7E72 		.ascii	"J\252~rFqe\261^\006\003\000\204\275;\363"
  83      467165B1 
  83      5E060300 
  83      84BD3BF3 
  84              		.text
  85              		.section	.gnu.lto_chSysUnlock.e245fb5f86c065b3,"",%progbits
  86 0000 789CCD92 		.ascii	"x\234\315\222\275/DA\020\300gv\367\275s\276\033\011"
  86      BD2F4441 
  86      10C06776 
  86      F7BD73BE 
  86      1B09
  87 0012 2A513AB9 		.ascii	"*Q:\271\027\211\250t\376\000\005\0224\342\036q\233\334"
  87      1789A874 
  87      FE000512 
  87      34E21E71 
  87      9BDC
  88 0024 91380A51 		.ascii	"\2218\012Q\330;W\010\215(ihD'\321\351\024\012\211\210"
  88      D83B5708 
  88      8D286968 
  88      4427D1E9 
  88      140A8988 
  89 0038 E8505D24 		.ascii	"\350P]$*\327\023\021\317\354\276\367\316s\256!\012\223"
  89      2AD71311 
  89      CFECBEF7 
  89      CE73AE21 
  89      0A93
  90 004a BC99DD7D 		.ascii	"\274\231\335}3\277\231\335\031\006\014\252e\220>[\000"
  90      33BF99DD 
  90      19060CAA 
  90      65903E5B 
  90      00
  91 005b F4EA4D0C 		.ascii	"\364\352M\014\220<\220!'\315\031\035+f\223\022\202Y"
  91      903C9021 
  91      27CD191D 
  91      2B669312 
  91      8259
  92 006d 95B58564 		.ascii	"\225\265\205d\320F\244\000\2045\306\205e\343\332\204"
  92      D046A400 
  92      8435C685 
  92      65E3DA84 
  93 007d DE82DD0D 		.ascii	"\336\202\335\015\007J\355\224\036\237w;6\367\013\333"
  93      074AED94 
  93      1E9F773B 
  93      36F70BDB 
  94 008d EADDF350 		.ascii	"\352\335\363P\352_.\3028\255\260\313\030\215\216\212"
  94      EA5F2EC2 
  94      38ADB0CB 
ARM GAS  /tmp/ccCDU11I.s 			page 7


  94      188D8E8A 
  95 009d 1FA64E8E 		.ascii	"\037\246N\216T|_\275y\036\377]\014\377/y\262\010\307"
  95      547C5FBD 
  95      791EFF5D 
  95      0CFF2F79 
  95      B208C7
  96 00b0 ECACE479 		.ascii	"\354\254\344y\345\323\323\2072\266\331\010\224\211i"
  96      E5D3D387 
  96      32B6D908 
  96      948969
  97 00bf C54971A1 		.ascii	"\305Iq\241W\026\030\022\331\242R\333]\331\240\024\222"
  97      57161812 
  97      D9A252DB 
  97      5DD9A014 
  97      92
  98 00d0 51A3C774 		.ascii	"Q\243\307t3\3705\254\227n\267\032\246\361\020\251\007"
  98      33F835AC 
  98      976EB71A 
  98      A6F110A9 
  98      07
  99 00e1 B00AAF6A 		.ascii	"\260\012\257jC\265J\024\256\351\000\020\204\316\265"
  99      43B54A14 
  99      AEE90010 
  99      84CEB5
 100 00f0 D7DD534B 		.ascii	"\327\335SK-/\366\351\345S)'\277\202\302\375\313s\247"
 100      2D2FF6E9 
 100      E5532927 
 100      BF82C2FD 
 100      CB73A7
 101 0103 EF3F8798 		.ascii	"\357?\207\230\200\036\252\310h\333\350\330\036\354\346"
 101      801EAAC8 
 101      68DBE8D8 
 101      1EECE6
 102 0112 9546D455 		.ascii	"\225F\324U`\361\254I\251/\0347\254\224_\001Y\014l8`"
 102      60F1AC49 
 102      A92F1C37 
 102      AC945F01 
 102      590C6C38 
 103 0127 17502C63 		.ascii	"\027P,c\205\256\011u\022\353\243|bU\207\177\2211\024"
 103      85AE0975 
 103      12EBA37C 
 103      6255877F 
 103      913114
 104 013a 7E9D9321 		.ascii	"~\235\223!\206E\212\374ay<\200Fq\334\200\032\010D\001"
 104      86458AFC 
 104      61793C80 
 104      4671DC80 
 104      1A084401 
 105 014e 8D841FF7 		.ascii	"\215\204\037\367'\325\004\210\032\001\342\257\037)\012"
 105      27D50488 
 105      1A01E2AF 
 105      1F290A
 106 015d B7AAAA11 		.ascii	"\267\252\252\021\265\252\271\200\363\307\312\253\362"
 106      B5AAB980 
 106      F3C7CAAB 
 106      F2
 107 016a B9B0A5FE 		.ascii	"\271\260\245\376sYfX\304\267\021hr\203\353\353\223v"
ARM GAS  /tmp/ccCDU11I.s 			page 8


 107      73596658 
 107      C4B71168 
 107      7283EBEB 
 107      9376
 108 017c 89CD3468 		.ascii	"\211\3154h\201\223\304\2260\332\016F\355\3512Vk\210"
 108      8193C496 
 108      30DA0E46 
 108      EDE93256 
 108      6B88
 109 018e C4E710DD 		.ascii	"\304\347\020\335@\276TN\204N\276\214\352\273\351k\365"
 109      40BE544E 
 109      844EBE8C 
 109      EABBE96B 
 109      F5
 110 019f 6464CA19 		.ascii	"dd\312\031J\313\224\034\036\231\352\033H\366%\373\035"
 110      4ACB941C 
 110      1E99EA1B 
 110      48F625FB 
 110      1D
 111 01b0 6721E72C 		.ascii	"g!\347,.9r\336\315,\317\314:n:\267\222K\246\341\003"
 111      2E3972DE 
 111      CD2CCFCC 
 111      3A6E3AB7 
 111      924BA6E1 
 112 01c5 7DC6D102 		.ascii	"}\306\321\002"
 113              		.text
 114              		.section	.gnu.lto_chSemGetCounterI.e245fb5f86c065b3,"",%progbits
 115 0000 789C6362 		.ascii	"x\234cb`b@\007\322@\314\302\310\300\240\003\342\260"
 115      60624007 
 115      D240CCC2 
 115      C8C0A003 
 115      E2B0
 116 0012 30300255 		.ascii	"00\002U0212\003IfF\2400\003#C=\0233c}$\210\315\300\250"
 116      30323132 
 116      03496646 
 116      A0300323 
 116      433D1333 
 117 002d C4B0B0A1 		.ascii	"\304\260\260\241a\306\203\245\353fJv-h\232\320\360\357"
 117      61C683A5 
 117      EB664A76 
 117      2D689AD0 
 117      F0EF
 118 003f FF7FC64C 		.ascii	"\377\177\306L\220T2#C\004\220\305\250\000\246\230XP"
 118      90543223 
 118      430490C5 
 118      A800A698 
 118      5850
 119 0051 2D59CF74 		.ascii	"-Y\317t\340\301\377\377w\256\356y\274\213Q\010hn.#\320"
 119      E0C1FFFF 
 119      77AEEE79 
 119      BC8B5108 
 119      686E2E23 
 120 0066 25607D0C 		.ascii	"%`}\014\254\014-\015\015\023\024\300&\000A\010\230\014"
 120      AC0C2D0D 
 120      0D1314C0 
 120      26004108 
 120      980C
ARM GAS  /tmp/ccCDU11I.s 			page 9


 121 0078 053983F9 		.ascii	"\0059\203\371<C\363\203\365O\271\022\031\0271\262\002"
 121      3C43F383 
 121      F54FB912 
 121      191731B2 
 121      02
 122 0089 05AB197E 		.ascii	"\005\253\031~5t4\010d22'\203]\306\0004\001h\317Y\206"
 122      35743408 
 122      64323227 
 122      835DC600 
 122      340168CF 
 123 009f A65B3BD6 		.ascii	"\246[;\326IBT\24532i3\254j\000\002K\240\361\263\031"
 123      494254A5 
 123      33326933 
 123      AC6A0002 
 123      4BA0F1B3 
 124 00b4 66011DC3 		.ascii	"f\001\035\303\232\316\310\010r\024\033XO\022#\262\303"
 124      9ACEC808 
 124      72141B58 
 124      4F1223B2 
 124      C3
 125 00c5 42413E65 		.ascii	"BA>e>\315\320\310\301\300\220\0022\365\"C\343\001f\270"
 125      3ECDD0C8 
 125      C1C09002 
 125      32F52243 
 125      E30166B8 
 126 00d9 59104521 		.ascii	"Y\020E! \011\020[+'3I\3379#3)\323?8\336\320L\317P\317"
 126      2009105B 
 126      2B273349 
 126      DF392333 
 126      29D33F38 
 127 00f3 445F3FBF 		.ascii	"D_?\277X\277\250D?3/9\2474%U?9\24385W/\203\001\000\207"
 127      58BFA844 
 127      3F332F39 
 127      A7342555 
 127      3F39A338 
 128 010e 9C4492   		.ascii	"\234D\222"
 129              		.text
 130              		.section	.gnu.lto_chSemFastWaitI.e245fb5f86c065b3,"",%progbits
 131 0000 789C6362 		.ascii	"x\234cb`b@\007\"@\\\313\310\300\240\003\342030\002U"
 131      60624007 
 131      22405CCB 
 131      C8C0A003 
 131      E2303330 
 132 0016 30323102 		.ascii	"021\002\005\030\030\031\352\231\030\353#AL\006&%\206"
 132      05181819 
 132      EA9918EB 
 132      23414C06 
 132      262586
 133 0029 850D0D13 		.ascii	"\205\015\015\023\036\034\375\267B\262kA\323\204\206"
 133      1E1CFDB7 
 133      42B26B41 
 133      D38486
 134 0038 7FFFFF33 		.ascii	"\177\377\3773f\202\244\222\031\031\"\200,F\0050\305"
 134      6682A492 
 134      19192280 
 134      2C460530 
 134      C5
ARM GAS  /tmp/ccCDU11I.s 			page 10


 135 0049 C4826A3A 		.ascii	"\304\202j:D[\303\316'\001'\032Z\016\374\377oO\204\236"
 135      445BC3CE 
 135      2701271A 
 135      5A0EFCFF 
 135      6F4F849E 
 136 005d F54C071E 		.ascii	"\365L\007\036\374\377\377f\357\206\307\277\031\005Y"
 136      FCFFFF66 
 136      EF86C7BF 
 136      190559
 137 006c 18197319 		.ascii	"\030\031s\031\201\316\006\352cf\000kf`eh\001\232\251"
 137      81CE06EA 
 137      6366006B 
 137      66606568 
 137      019AA9
 138 007f 00360608 		.ascii	"\0006\006\010B\300d(\310\341\314\347\031\232\037\374"
 138      42C06428 
 138      C8E1CCE7 
 138      199A1FFC 
 139 008f 78CC95C8 		.ascii	"x\314\225\310\270\230\221\025(X\315\360\253\241\243"
 139      B8989115 
 139      2858CDF0 
 139      ABA1A3
 140 009e 41209391 		.ascii	"A \223\2219\031\354#\006\240\011@\313\31624\335\272"
 140      3919EC23 
 140      06A00940 
 140      CBCE3234 
 140      DDBA
 141 00b0 F14F03A2 		.ascii	"\361O\003\242*\235\221I\233A+\223\221u6\303,\240c\330"
 141      2A9D9149 
 141      9B412B93 
 141      917536C3 
 141      2CA063D8 
 142 00c4 D2191941 		.ascii	"\322\031\031A\216b\007+Ob\2049\352,CsGs\021L\0133P\027"
 142      8E62072B 
 142      4F628439 
 142      EA2C4373 
 142      4773114C 
 143 00dc 4815EB7F 		.ascii	"H\025\353\177\030`\254\007\233\353\011Q\241\315\260"
 143      1860AC07 
 143      9BEB0951 
 143      A1CDB0
 144 00eb AA0108B8 		.ascii	"\252\001\010\270\011\030\0134\210\201\341\"C\343\203"
 144      09180B34 
 144      8881E122 
 144      43E383
 145 00fa DFCA3027 		.ascii	"\337\3120'C@\010\310\271\240\270\322\312\311L\322w\316"
 145      434008C8 
 145      B9A0B8D2 
 145      CAC94CD2 
 145      77CE
 146 010c C84CCAF4 		.ascii	"\310L\312\364\017\21674\3233\3243\321\327\317/\326/"
 146      0F8E3734 
 146      D333D433 
 146      D1D7CF2F 
 146      D62F
 147 011e 2AD1CFCC 		.ascii	"*\321\317\314K\316)MI\325O\316(N\315\325\313`\000\000"
 147      4BCE294D 
ARM GAS  /tmp/ccCDU11I.s 			page 11


 147      49D54FCE 
 147      284ECDD5 
 147      CB600000 
 148 0132 7CD16765 		.ascii	"|\321ge"
 149              		.text
 150              		.section	.gnu.lto_chMBObjectInit.e245fb5f86c065b3,"",%progbits
 151 0000 789C9552 		.ascii	"x\234\225R;k\024Q\024>\347\336ymtA;\355B\254\022e\307"
 151      3B6B1451 
 151      143EE7DE 
 151      796D7441 
 151      3BED42AC 
 152 0017 80F807AC 		.ascii	"\200\370\007\254\254R$\001\255Bv\220\315\005\307@\326"
 152      AC522401 
 152      AD427690 
 152      CD05C740 
 152      D6
 153 0028 424CB137 		.ascii	"BL\2617\231\215\204\230\300\"\012>\232\244\360\201\215"
 153      998D8498 
 153      C0220A3E 
 153      9AA4F081 
 153      8D
 154 0039 2068BD82 		.ascii	" h\275\202\204\021\011\321\316rAP\013\331h\245D\223"
 154      841109D1 
 154      CE724150 
 154      0BD968A5 
 154      4493
 155 004b F19C792C 		.ascii	"\361\234y,;j190g\356\343\373\276\363\270G\200\200\277"
 155      3B6A3139 
 155      3067EEE3 
 155      FBBEF3B8 
 155      478080BF 
 156 005f ED3C7DE3 		.ascii	"\355<}\343\006\200\313\033\007\220\020(P\222\227\302"
 156      0680CB1B 
 156      07901028 
 156      509297C2 
 157 006f 02D082EE 		.ascii	"\002\320\202\356\264a$k\223\327f\262\266ym!\375\320"
 157      B461246B 
 157      93D766B2 
 157      B6796D21 
 157      FDD0
 158 0081 46243242 		.ascii	"F$2BCH\303\264ll\\\344=XC\260\241\365\255\316\303\235"
 158      4348C3B4 
 158      6C6C5CE4 
 158      3D5843B0 
 158      A1F5ADCE 
 159 0097 50DCBBDD 		.ascii	"P\334\273\335n\256\353\337Q\204\250\220\3228\205\340"
 159      6EAEEBDF 
 159      5184A890 
 159      D23885E0 
 160 00a7 215CA00D 		.ascii	"!\\\240\015\016\306?\216\323o\011W?\177\242K1O*\326"
 160      0EC63F8E 
 160      D36F0957 
 160      3F7FA24B 
 160      314F2AD6 
 161 00bb 3C304716 		.ascii	"<0G\026\343\264\367n\3349\276\262\276\330\322\373\224"
 161      E3B4F76E 
 161      DC39BEB2 
ARM GAS  /tmp/ccCDU11I.s 			page 12


 161      BED8D2FB 
 161      94
 162 00cc A242A320 		.ascii	"\242B\243 m\177su\240\265\260\254\243\250Q\200\344#"
 162      6D7F7375 
 162      A0B5B0AC 
 162      A3A85180 
 162      E423
 163 00de 3C13ED4E 		.ascii	"<\023\355N\024}}\361\345c\210GK\210>R\267}\024\222\234"
 163      147D7DF1 
 163      E5638847 
 163      4B883E52 
 163      B77D1492 
 164 00f3 34601A37 		.ascii	"4`\0327p\010L\240b-r\322&g8\020k\323qS\353\326\240\237"
 164      70084CA0 
 164      622D72D2 
 164      26673810 
 164      6BD37153 
 165 010b 36826C22 		.ascii	"6\202l\"\365\364hr\222k\225!\274\376\374\352\373&N\343"
 165      F5F46872 
 165      926B9521 
 165      BCFEFCEA 
 165      FB264EE3 
 166 011f 6334A186 		.ascii	"c4\241\206\310y\230\375IL\262V\214\353\201\004\203d"
 166      C87998FD 
 166      494CB256 
 166      8CEB8104 
 166      8364
 167 0131 1E64C6A0 		.ascii	"\036d\306\240\346\247\036H2\310\312\203h+\267\301H "
 167      E6A71E48 
 167      32C8CA83 
 167      682BB7C1 
 167      4820
 168 0143 00F3B0AB 		.ascii	"\000\363\260\253\227\365\021\205\266\027ODrrL\241C9"
 168      97F51185 
 168      B6174F44 
 168      72724CA1 
 168      4339
 169 0155 A72085A5 		.ascii	"\247 \205\245\214M\243#\267`\361\355\207\356;\221\334"
 169      8C4DA323 
 169      B760F1ED 
 169      87EE3B91 
 169      DC
 170 0166 9E84A79A 		.ascii	"\236\204\247\232\254L\331<\200\373\024o WA5\021\345"
 170      AC4CD93C 
 170      80FB146F 
 170      20574135 
 170      11E5
 171 0178 8C0198F9 		.ascii	"\214\001\230\371\263\033\026eb\236yw\2470S\344\230\335"
 171      B31B1665 
 171      629E7977 
 171      A73053E4 
 171      98DD
 172 018a E0C7DA70 		.ascii	"\340\307\332p\326\023\243\306m\333\202`%x\331k\224I"
 172      D613A3C6 
 172      6DDB8260 
 172      2578D96B 
 172      9449
ARM GAS  /tmp/ccCDU11I.s 			page 13


 173 019c E7CC077E 		.ascii	"\347\314\007~3\272\273\031<\352\335Y$SceRz\363\315."
 173      33BABB19 
 173      3CEADD59 
 173      24536365 
 173      527AF3CD 
 174 01b1 98814C33 		.ascii	"\230\201L3\260b\336n\360km$\023\264\347\341:MG*1\245"
 174      B062DE6E 
 174      F06B6D24 
 174      13B4E7E1 
 174      3A4D472A 
 175 01c7 F0D0FF25 		.ascii	"\360\320\377%\372&q\033\226\332#\377<\331a\257W\250"
 175      FA26711B 
 175      96DA23FF 
 175      3CD961AF 
 175      57A8
 176 01d9 4D55292C 		.ascii	"MU),\247\301\366\312Y,\247`,\363\000\261\234t\252\342"
 176      A7C1F6CA 
 176      592CA760 
 176      2CF300B1 
 176      9C74AAE2 
 177 01ed 78EF61A1 		.ascii	"x\357a\241\023\236\310\340\211M\360\3131z\370\262\252"
 177      139EC8E0 
 177      894DF0CB 
 177      317AF8B2 
 177      AA
 178 01fe BAE76654 		.ascii	"\272\347fTU\215\215O\215\236\255\214V\316\270\356l\335"
 178      558D8D4F 
 178      8D9EAD8C 
 178      56CEB8EE 
 178      6CDD
 179 0210 9DBBEAD6 		.ascii	"\235\273\352\326\347<\327\233\361\253\263\327.\325+"
 179      E73CD79B 
 179      F1ABB3D7 
 179      2ED52B
 180 021f 1EC82B95 		.ascii	"\036\310+\225\323\177\000\355\211\365U"
 180      D37F00ED 
 180      89F555
 181              		.text
 182              		.section	.gnu.lto_chMBResetI.e245fb5f86c065b3,"",%progbits
 183 0000 789CBD53 		.ascii	"x\234\275SKk\023Q\024>g\356\235<&\255\212\010\352\246"
 183      4B6B1351 
 183      143E67EE 
 183      9D3C26AD 
 183      8A08EAA6 
 184 0014 14C18506 		.ascii	"\024\301\205\0062\024\244[\027\376\000\005\033\324\225"
 184      3214A45B 
 184      17FE0005 
 184      1BD495
 185 0023 9841D20B 		.ascii	"\230A\322\013\206B\343B\354\"\267M\204Z,\006\011\370"
 185      8642E342 
 185      EC22B74D 
 185      845A2C06 
 185      09F8
 186 0035 02A9A220 		.ascii	"\002\251\242 v\321\352J\024q\004\301*\226\342N\004!"
 186      76D1EA4A 
 186      147104C1 
 186      2A96E24E 
ARM GAS  /tmp/ccCDU11I.s 			page 14


 186      0421
 187 0047 F8C0851B 		.ascii	"\370\300\205\033]\011E:\2363\217dj\325\216 ^\2303\367"
 187      5D09453A 
 187      9E338F64 
 187      6AD58E20 
 187      5E9833F7 
 188 005b 71BEC73D 		.ascii	"q\276\307=s\306\000\003~\0366=\263&@\236\027)@\312@"
 188      73C60003 
 188      7E1E363D 
 188      B326409E 
 188      172940CA 
 189 0070 03054561 		.ascii	"\003\005EaH\000m\320\231\226\022\351\205&\"%!\324\014"
 189      48006DD0 
 189      999612E9 
 189      85262225 
 189      21D40C
 190 0083 214DAC1D 		.ascii	"!M\254\035\341\025\344v\300u\255/\264o\335\370j\\n\271"
 190      E115E476 
 190      C075AD2F 
 190      B46FDDF8 
 190      6A5C6EB9 
 191 0097 8D19FDDD 		.ascii	"\215\031\375\335\363\020\025\037:\010\207i\206\375\376"
 191      F310151F 
 191      3A088769 
 191      86FDFE
 192 00a6 8BF9E223 		.ascii	"\213\371\342#\000\272\255\027\347\254\346\370\244\366"
 192      00BAAD17 
 192      E7ACE6F8 
 192      A4F6
 193 00b4 BC5A72D0 		.ascii	"\274Zr\320\305\251\363\333\247f&\232z\205\304\024\373"
 193      C5A9F3DB 
 193      A766269A 
 193      7A85C414 
 193      FB
 194 00c5 4D02D30F 		.ascii	"M\002\323\017?\036X\320\015\327\363\366&\225j\352\267"
 194      3F1E58D0 
 194      0DD7F3F6 
 194      26956AEA 
 194      B7
 195 00d6 318C4CA8 		.ascii	"1\214L\250\363\355\277\3504\365\275\333:\353\027\\$"
 195      F3EDBFE8 
 195      34F5BDDB 
 195      3AEB175C 
 195      24
 196 00e7 C73CFAF0 		.ascii	"\307<\372\360\327\367q/\305\277\321\272\305\256 \314"
 196      D7F7712F 
 196      C5BFD1BA 
 196      C5AE20CC 
 197 00f7 196EDBF3 		.ascii	"\031n\333\363^>\276\371n\0327\367 V\220:\213j!8H\012"
 197      5E3EBEF9 
 197      6E1A37F7 
 197      2056903A 
 197      8B6A2138 
 198 010d C2E4598A 		.ascii	"\302\344Y\212\202L\363,\303\263,\007\213C\016|\0350"
 198      824CF32C 
 198      C3B32C07 
 198      8B430E7C 
ARM GAS  /tmp/ccCDU11I.s 			page 15


 198      1D30
 199 011f A1419EFB 		.ascii	"\241A\236\373+a\025i\014\371\261\310\215*\226\240\336"
 199      2B611569 
 199      0CF9B1C8 
 199      8D2A96A0 
 199      DE
 200 0130 5E796F1D 		.ascii	"^yo\035\303Y\356O\030\203e=\2517)4\035\277S\201HR\201"
 200      C359EE4F 
 200      1883653D 
 200      A9372934 
 200      1DBF5381 
 201 0147 A522B389 		.ascii	"\245\"\263\211\005x\372\351\211\367\014\003@\031\221"
 201      0578FAE9 
 201      89F70C03 
 201      401991
 202 0156 DDA7E3D6 		.ascii	"\335\247\343\326\213\\\022\342\225k83\016\006\177\017"
 202      8B5C12E2 
 202      956B3833 
 202      0E067F0F 
 203 0166 EF6C5398 		.ascii	"\357lS\230%Oa\222B+B\323J,\302\304\233\373\3647D*F\036"
 203      254F6192 
 203      422B42D3 
 203      4A2CC2C4 
 203      9BFBF437 
 204 017e 76D30DAF 		.ascii	"v\323\015\257\302\025R\313\255R-a$L\240\347\363\341"
 204      C21552CB 
 204      AD522D61 
 204      244CA0E7 
 204      F3E1
 205 0190 4DF27047 		.ascii	"M\362pG\323\350\375-(@\225\331\020\213\275\216\211\211"
 205      D3E8FD2D 
 205      284095D9 
 205      108BBD8E 
 205      8989
 206 01a2 7F2E6684 		.ascii	"\177.f\204b\302\307-\327\347Z}\221\230\034\203\323\212"
 206      62C2C72D 
 206      D7E75A7D 
 206      91981C83 
 206      D38A
 207 01b4 257D8A43 		.ascii	"%}\212C\012{~M!\272\005f\277\363[#\002\363One\027\362"
 207      0A7B7E4D 
 207      21BA0566 
 207      BFF35B23 
 207      02F34F6E 
 208 01cb B9FE4044 		.ascii	"\271\376@D\230T\231\253\314<_:F\322\011o\035\347\311"
 208      985499AB 
 208      CC3C5F3A 
 208      46D2096F 
 208      1DE7C9
 209 01de 94396311 		.ascii	"\2249c\021\352g;[Y\237=\343\357^\353\354Zt\300|\222"
 209      EA673B5B 
 209      599F3DE3 
 209      EF5EEBEC 
 209      5A74C07C 
 210 01f3 0D2DC119 		.ascii	"\015-\301\031\267oMs\364:\341\035\251&\004P\270!,\326"
 210      B76F4D73 
 210      F43AE11D 
ARM GAS  /tmp/ccCDU11I.s 			page 16


 210      A9260450 
 210      B8212CD6 
 211 0207 DD2D114B 		.ascii	"\335-\021K.a\255\314n\255\326\325\3121p#7 \351\275\202"
 211      2E61ADCC 
 211      6EADD6D5 
 211      CA317023 
 211      3720E9BD 
 212 021c F1F6F4CE 		.ascii	"\361\366\364\316(=\030C\334*\374\001w\235P%{\337\260"
 212      283D1843 
 212      DC2AFC01 
 212      779D5025 
 212      7BDFB0
 213 022f 2AA9FD07 		.ascii	"*\251\375\007\217\016\014\026\006\012{l{\244j\217\236"
 213      8F0E0C16 
 213      060A7B6C 
 213      7BA46A8F 
 213      9E
 214 0240 B4ABA38E 		.ascii	"\264\253\243\216\355\014WJ#\247\216W\013\016\374\000"
 214      ED0C574A 
 214      23A78E57 
 214      0B0EFC00 
 215 0250 04C83A16 		.ascii	"\004\310:\026"
 216              		.text
 217              		.section	.gnu.lto_chMBReset.e245fb5f86c065b3,"",%progbits
 218 0000 789C6362 		.ascii	"x\234cb`b@\007\"@\374\001\210\265A\034f\006F\240\012"
 218      60624007 
 218      2240FC01 
 218      88B5411C 
 218      660646A0 
 219 0015 46264646 		.ascii	"F&FF \207\221\241\236\211\261>\222\021\254l=\323\201"
 219      208791A1 
 219      9E89B13E 
 219      9211AC6C 
 219      3DD381
 220 0028 07FFFFAF 		.ascii	"\007\377\377\257\333\326\276d\016\343<&\240\202\\\260"
 220      DBD6BE64 
 220      0EE33C26 
 220      A0825CB0 
 221 0038 382B434B 		.ascii	"8+CKC\303\004\005\006\206d07\004L\206\202\014a>\317"
 221      43C30405 
 221      06866430 
 221      37044C86 
 221      820C613E 
 222 004d D0FCE06E 		.ascii	"\320\374\340n3{\"\343BFV\240`5\303\257\206\216\006\201"
 222      337B22E3 
 222      424656A0 
 222      6035C3AF 
 222      868E0681 
 223 0061 4C46A052 		.ascii	"LF\240R\210\221\231 \372<C\313\203{\2131U1%3B\334\232"
 223      88919920 
 223      FA3C43CB 
 223      837B8B31 
 223      55312533 
 224 0078 CEC898C9 		.ascii	"\316\310\230\311\310\014R\330\374\340\376c.l\3061#\033"
 224      C80C52D8 
 224      FCE0FE63 
 224      2E6CC631 
ARM GAS  /tmp/ccCDU11I.s 			page 17


 224      231B
 225 008a D7FCE0C5 		.ascii	"\327\374\340\305a\254\226\262 T]dh|\360R\031\246\010"
 225      61AC96B2 
 225      20545D64 
 225      687CF052 
 225      19A608
 226 009d 02424012 		.ascii	"\002B@\022 +5s2\223\364\23532\2232\375\203\343\015\315"
 226      202B3573 
 226      3293F49D 
 226      33329332 
 226      FD83E30D 
 227 00b2 F40CF54C 		.ascii	"\364\014\365L\364\365\363\213\365\213J\364\213\213\222"
 227      F4F5F38B 
 227      F58B4AF4 
 227      8B8B92
 228 00c1 F5933372 		.ascii	"\365\2233r\223\362+R\213\365\222\031\000\3428Ey"
 228      93F22B52 
 228      8BF59219 
 228      00E23845 
 228      79
 229              		.text
 230              		.section	.gnu.lto_chMBPostS.e245fb5f86c065b3,"",%progbits
 231 0000 789C9D54 		.ascii	"x\234\235TML\023Q\020\236\331\335\356O\227\002\306\213"
 231      4D4C1351 
 231      109ED9DD 
 231      EE4F9702 
 231      C68B
 232 0012 7822DC10 		.ascii	"x\"\334\020C\203\1777\343\301\223'M\244\211\036\324"
 232      43837F37 
 232      E3C19327 
 232      4DA4891E 
 232      D4
 233 0023 D0C5944D 		.ascii	"\320\305\224MlH\250\007\225\003[Z\023\243\204\240b\300"
 233      6C48A807 
 233      95035B5A 
 233      13A384A0 
 233      62C0
 234 0035 BF0807A3 		.ascii	"\277\010\007\243!&\020O\336X\023\0174\015 '\023\022"
 234      2126104F 
 234      DE58130F 
 234      340D2027 
 234      1312
 235 0047 930A1AC2 		.ascii	"\223\012\032\302\015O\020D\327\231\335\356\322\002B"
 235      0D4F1044 
 235      D799DDEE 
 235      D20242
 236 0056 E5259DF7 		.ascii	"\345%\235\367\366\275\371f\276o\336\274\012 \300\326"
 236      F6BDF966 
 236      BE6FDEBC 
 236      0A20C0D6 
 237 0066 71957E29 		.ascii	"q\225~)\031\340\030\177\350\200\344\201\002\212dEA\002"
 237      19E0187F 
 237      E880E481 
 237      028A6445 
 237      4102
 238 0078 B0841019 		.ascii	"\260\204\020\031IB\2320$\310\274\243\361\216,(\274V"
 238      49429A30 
ARM GAS  /tmp/ccCDU11I.s 			page 18


 238      24C8BCA3 
 238      F18E2C28 
 238      BC56
 239 008a 79AD204D 		.ascii	"y\255 M\250\"\035\240\206a\262aD\012\207\320#\210RH"
 239      A8221DA0 
 239      8661B261 
 239      440A87D0 
 239      23885248 
 240 009e 56542D8C 		.ascii	"VT-\214=\227\321M\321\000\243\226\365\250\360zrY|:h"
 240      3D97D14D 
 240      D100A396 
 240      F5A8F07A 
 240      72597C3A 
 241 00b3 6747AC0D 		.ascii	"gG\254\015\307A4\371\320@\270D+\254w'N_:<\240\355\344"
 241      C74134F9 
 241      D040B844 
 241      2BAC7727 
 241      4E5F3A3C 
 242 00ca FBEAEE8F 		.ascii	"\373\352\356\217\364\016X\177\010g2\323J`\326\227\357"
 242      F40E587F 
 242      086732D3 
 242      4A60D697 
 242      EF
 243 00db 17A6ACAC 		.ascii	"\027\246\254\254\3558g*\307\274\177ki.?\261b\214\375"
 243      ED38672A 
 243      C7BC7F6B 
 243      692E3FB1 
 243      628CFD
 244 00ee B0BF7F3F 		.ascii	"\260\277\177?\364~\375?=\373q\377\313}\244\262\207f"
 244      F47EFD3F 
 244      3DFB71FF 
 244      CB7DA4B2 
 244      8766
 245 0100 064B6195 		.ascii	"\006Ka\225\325}\330~5\223\033Eb\232^q\234\032\023\245"
 245      D57DD87E 
 245      35931B45 
 245      629A5E71 
 245      9C1A13A5 
 246 0114 8A6003F6 		.ascii	"\212`\003\366O\272.k3\233$\300Q\334\003\231D\030\027"
 246      4FBA2E6B 
 246      339B24C0 
 246      51DC0399 
 246      441817
 247 0127 EC82E36C 		.ascii	"\354\202\343l|\335X\034\306\203\325\210I\244\306$\256"
 247      7CDD581C 
 247      C683D588 
 247      49A4C624 
 247      AE
 248 0138 22ADC8BD 		.ascii	"\"\255\310\275\015\307\260\001B\264#\312l\0246*\235"
 248      0DC7B001 
 248      42B423CA 
 248      6C14362A 
 248      9D
 249 0149 891AAFC2 		.ascii	"\211\032\257\302lt6U\014\212\200K\227\374\263\304\250"
 249      6C743655 
 249      0C8A804B 
 249      97FCB3C4 
ARM GAS  /tmp/ccCDU11I.s 			page 19


 249      A8
 250 015a DE03278B 		.ascii	"\336\003'\213\302i\264\2726\306\255/\316B\246\260\376"
 250      C269B4BA 
 250      36C6AD2F 
 250      CE42A6B0 
 250      FE
 251 016b 23DC86EF 		.ascii	"#\334\206\357\270\343\241\033\326\255{V\255\211!\303"
 251      B8E3A11B 
 251      D6AD7B56 
 251      AD8921C3 
 252 017b ED68A050 		.ascii	"\355h\240P\262\3072\306\005\027\247\340\323\322\307"
 252      B2C732C6 
 252      0517A7E0 
 252      D3D2C7
 253 018a D53C7A80 		.ascii	"\325<z\200\004\"\013RJ\325\30487\305\225\266\305T\015"
 253      04220B52 
 253      4AD5C438 
 253      37C595B6 
 253      C5540D
 254 019d F4DE23EF 		.ascii	"\364\336#\357\0342Q#NE'\223_\221\207\246/q\032z\327"
 254      1C325123 
 254      4E452793 
 254      5F9187A6 
 254      2F711A7A 
 255 01b2 33AB43A7 		.ascii	"3\253C\247\375,B7\334!aM0f\321xB)\365\347\360\214\246"
 255      FD2C4237 
 255      DC21614D 
 255      3066D178 
 255      4229F5E7 
 256 01c9 AA320671 		.ascii	"\2522\006q,\3411\013w\355\303~\000) \0211X\007\015\212"
 256      2CE1310B 
 256      77EDC37E 
 256      00292011 
 256      3158070D 
 257 01de 9A406AF4 		.ascii	"\232@j\364j\000W\324\357\007b\340\315!k\312E\311\036"
 257      6A0057D4 
 257      EF0762E0 
 257      CD216BCA 
 257      45C91E
 258 01f1 ADF9B5C9 		.ascii	"\255\371\265\311\\ >\324\004G\250\350;S\361\271\020"
 258      5C203ED4 
 258      0447A8E8 
 258      3B53F1B9 
 258      10
 259 0202 28B712F6 		.ascii	"(\267\022\366!r\202\005NCf3\233B\273A[\220\3679\357"
 259      21728205 
 259      4E436633 
 259      9B42BB41 
 259      5B90F739 
 260 0217 A028F6F8 		.ascii	"\240(\366\370\036\011\022\374M\250\374g\335\303\221"
 260      1E0912FC 
 260      4DA8FC67 
 260      DDC391
 261 0226 739A703A 		.ascii	"s\232p:\365@1\260\257Wu\035\347\207\027\276\005\012"
 261      F54031B0 
 261      AF57751D 
 261      E78717BE 
ARM GAS  /tmp/ccCDU11I.s 			page 20


 261      050A
 262 0238 B40A15CC 		.ascii	"\264\012\025\314O\324\370\220\360n\020\377\377v\012"
 262      4FD4F890 
 262      F06E10FF 
 262      FF760A
 263 0247 B24BE996 		.ascii	"\262K\351\226 K\302\277^\257\226J\261\226\037\026\346"
 263      204BC2BF 
 263      5EAF964A 
 263      B1961F16 
 263      E6
 264 0258 822AE8BB 		.ascii	"\202*\350\273\205\025Kj9\241\227\325\347\344\236\365"
 264      85154B6A 
 264      39A197D5 
 264      E7E49EF5 
 265 0268 D1FDB4AA 		.ascii	"\321\375\264\252\337Y\343/\032\375\264Ue\235u\345\237"
 265      DF59E32F 
 265      1AFDB455 
 265      659D75E5 
 265      9F
 266 0279 8D55F264 		.ascii	"\215U\362dg!k7nk\356Z\243\350C1M<\300n\231B\337\033"
 266      67216B37 
 266      6E6BEE5A 
 266      A3E84331 
 266      4D3CC06E 
 267 0291 7DA79715 		.ascii	"}\247\227\025\332\372\2624\217Ynm\261\316'\026I\370"
 267      DAFAB234 
 267      8F596E6D 
 267      B1CE2716 
 267      49F8
 268 02a3 39635C3C 		.ascii	"9c\\<1\017i\342\337\316\233s\020\334_\304sie\261\\\373"
 268      310F69E2 
 268      DFCE9B73 
 268      10DC5FC4 
 268      736965B1 
 269 02b9 C61B663C 		.ascii	"\306\033f<z\266\303\214\233\347/^k9\325\334\322|\"\032"
 269      7AB6C38C 
 269      9BE72F5E 
 269      6B39D5DC 
 269      D27C221A 
 270 02cd ED4C45BB 		.ascii	"\355LE\273nFS]F\324\350H\306;o]O5\033 w\265\337N\246"
 270      6E46535D 
 270      46D4E848 
 270      C63B6F5D 
 270      4F351B20 
 271 02e6 127F0108 		.ascii	"\022\177\001\010\\g\336"
 271      5C67DE
 272              		.text
 273              		.section	.gnu.lto_chMBPost.e245fb5f86c065b3,"",%progbits
 274 0000 789C6362 		.ascii	"x\234cb`b@\007\322@\334\306\310\300`\004\342\26000\002"
 274      60624007 
 274      D240DCC6 
 274      C8C06004 
 274      E2B03030 
 275 0015 55303231 		.ascii	"U0212\003IfF\2400\003#C=\0233c}$\210\315\300\244\304"
 275      32034966 
 275      46A03003 
 275      23433D13 
ARM GAS  /tmp/ccCDU11I.s 			page 21


 275      33637D24 
 276 002e B0B0A161 		.ascii	"\260\260\241a\306\203\245\233fJv-h\232\320\360\357\377"
 276      C683A59B 
 276      664A762D 
 276      689AD0F0 
 276      EFFF
 277 0040 7FC64C90 		.ascii	"\177\306L\220T2#C\004\220\305\250\000\246\230XP-\001"
 277      54322343 
 277      0490C5A8 
 277      00A69858 
 277      502D01
 278 0053 6B9B70E0 		.ascii	"k\233p\340\373\251\036\311\006$mL\014:\214\004t\256"
 278      FBA91EC9 
 278      06246D4C 
 278      0C3A8C04 
 278      74AE
 279 0065 673AF0E0 		.ascii	"g:\360\340\377\3775\327\177<>\305(\304\306\310\230\013"
 279      FFFF35D7 
 279      7F3C3EC5 
 279      28C4C6C8 
 279      980B
 280 0077 D4052480 		.ascii	"\324\005$\200\216\313\005\251Md\\\304\250\304\300\312"
 280      8ECB05A9 
 280      4D645CC4 
 280      A8C4C0CA 
 281 0087 00760390 		.ascii	"\000v\003\220n\001Z\243\000\021\004\273\011\010B\300"
 281      6E015AA3 
 281      001104BB 
 281      090842C0 
 282 0097 6428C863 		.ascii	"d(\310c\314\347\031\232\037\354meOd\\\302\310\012\024"
 282      CCE7199A 
 282      1FEC6D65 
 282      4F645CC2 
 282      C80A14
 283 00aa AC66F8D5 		.ascii	"\254f\370\325\320\321 \220\311\310\234\014\366+\003"
 283      D0D12090 
 283      C9C89C0C 
 283      F62B03
 284 00b9 D01CA0FD 		.ascii	"\320\034\240\375\347\031\332\036\354;\312\006Q\225\316"
 284      E719DA1E 
 284      EC3BCA06 
 284      5195CE
 285 00c8 C80257C6 		.ascii	"\310\002W\306\232\314\010\011\300tF\306tF\246tF\346"
 285      9ACC0809 
 285      C07446C6 
 285      7446A674 
 285      46E6
 286 00da 4C463690 		.ascii	"LF6\220\372\346\007\373\217b5\225\031a\352Y\206\246"
 286      FAE607FB 
 286      8F623595 
 286      1961EA59 
 286      86A6
 287 00ec 933B3649 		.ascii	"\223;6I\302LeMg\204z5\024\244\212\3714C#\007\003C\012"
 287      C24C654D 
 287      67847A35 
 287      14A48AF9 
 287      34432307 
ARM GAS  /tmp/ccCDU11I.s 			page 22


 288 0103 887D9181 		.ascii	"\210}\221\201\021\256\012\242$\004\344<\220\325\232"
 288      11AE0AA2 
 288      2404E43C 
 288      90D59A
 289 0112 399949FA 		.ascii	"9\231I\372\316\031\231I\231\376\301\361\206fz\206z&"
 289      CE199949 
 289      99FEC1F1 
 289      86667A86 
 289      7A26
 290 0124 FAFAF9C5 		.ascii	"\372\372\371\305\372E%\372\305E\311\372\311\031\271"
 290      FA4525FA 
 290      C545C9FA 
 290      C919B9
 291 0133 49F915A9 		.ascii	"I\371\025\251\305z\311\014lE)\225\271\305\351\000\236"
 291      C57AC90C 
 291      6C452995 
 291      B9C5E900 
 291      9E
 292 0144 1D6491   		.ascii	"\035d\221"
 293              		.text
 294              		.section	.gnu.lto_chMBPostI.e245fb5f86c065b3,"",%progbits
 295 0000 789C9D55 		.ascii	"x\234\235UOH\024a\024\177o\376\356\354_\243\210<)\335"
 295      4F481461 
 295      147F6FFE 
 295      EEEC5FA3 
 295      883C29DD 
 296 0014 4C709122 		.ascii	"Lp\221\"\350\324\241S\247\202\022\362P\321n\261\016"
 296      E8D4A153 
 296      A78212F2 
 296      50D16EB1 
 296      0E
 297 0025 248276A8 		.ascii	"$\202v\250<8\253{\2102\224\315H+E\017QDPt\222\272L\320"
 297      3C38AB7B 
 297      883294CD 
 297      482B450F 
 297      51445074 
 298 003d 41135DA4 		.ascii	"A\023]\244\213z\222\210\274\004\212A[\366gzof\277u6"
 298      8B7A9288 
 298      BC048A41 
 298      5BF6677A 
 298      6F66BF75 
 299 0052 4DC73ED8 		.ascii	"M\307>\33073\357{\277\367~\357}\277\231\225@\202\277"
 299      3733EF7B 
 299      BFF77EEF 
 299      7DBF9995 
 299      4082BF
 300 0065 D739FAED 		.ascii	"\3279\372\355\325\001\352\371!\002H\021(\241LV\226\024"
 300      D501EAF9 
 300      21024811 
 300      28A14C56 
 300      9614
 301 0077 004B52C9 		.ascii	"\000KR\311(\012\322\005UIc\217\316\036\015\303\344\321"
 301      280AD205 
 301      5549638F 
 301      CE1E0DC3 
 301      E4D1
 302 0089 A5107B0C 		.ascii	"\245\020{\014\366\204\220.h\270\3760\"\245C\350\222"
ARM GAS  /tmp/ccCDU11I.s 			page 23


 302      F684902E 
 302      68B8FE30 
 302      22A543E8 
 302      92
 303 009a 6445D5F4 		.ascii	"dE\325\364\220\021\306\256fvAt?\214YV~\361\321\362w"
 303      9011C6AE 
 303      66764174 
 303      3F8C5956 
 303      7EF1D1F2 
 304 00af 6968C0CE 		.ascii	"ih\300\316\215Z?\035\007\321\344\3154\302\031\272\303"
 304      8D5A3F1D 
 304      07D1E4CD 
 304      34C219BA 
 304      C3
 305 00c0 5AF7C2E5 		.ascii	"Z\367\302\345\375\313\005\366[/\237X\206\013\222M\246"
 305      FDCB05F6 
 305      5B2F9F58 
 305      860B924D 
 305      A6
 306 00d1 19003368 		.ascii	"\031\0003h\377\232y7\206V\336\312\2568N\302D%\020,o"
 306      FF9A7937 
 306      8656DECA 
 306      AE384EC2 
 306      4425102C 
 307 00e6 DF290C54 		.ascii	"\337)\014T\337\034\355\356\267~\023\305\240\014\363"
 307      DF1CEDEE 
 307      B77E13C5 
 307      A00CF3
 308 00f5 F6DDC294 		.ascii	"\366\335\302\224\277\232\032\014f\275\377xr\302\312"
 308      BF9A1A0C 
 308      66BDFF78 
 308      72C2CA
 309 0104 D98E7334 		.ascii	"\331\216s48\306?\214\200\030\373^\337m\177WAK\025wN"
 309      38C63F8C 
 309      8018FB5E 
 309      DF6D7F57 
 309      414B1577 
 310 0119 CF1E2A3C 		.ascii	"\317\036*<\374\217R\366p\241oGsoEx.\331\213\216\323"
 310      FC8F52F6 
 310      70A16F47 
 310      736F4578 
 310      2ED98B8E 
 311 012e 5B5CF930 		.ascii	"[\\\3710\217\273\253\020\350\220%lER\010\341\0252\262"
 311      8FBBAB10 
 311      E890256C 
 311      455208E1 
 311      1532B2
 312 0141 CA3E8D1F 		.ascii	"\312>\215\037u2j\210\215\301&LqR\204\357\242lbl\342"
 312      75326A88 
 312      8DC1264C 
 312      715284EF 
 312      A26C626C 
 313 0156 1C970057 		.ascii	"\034\227\000W*\240B\216\204W\333Z\"B\353\264k\233\370"
 313      2AA0428E 
 313      8457DB5A 
 313      2242EBB4 
 313      6B9BF8
ARM GAS  /tmp/ccCDU11I.s 			page 24


 314 0169 65910BD0 		.ascii	"e\221\013\320\263\370j)|\001\237q\177\320\011k\326\015"
 314      B3F86A29 
 314      7C019F71 
 314      7FD0096B 
 314      D60D
 315 017b ABCA442D 		.ascii	"\253\312D-\355\276\003@It\217f\023\353U\236\200\267"
 315      EDBE0340 
 315      49748F66 
 315      13EB559E 
 315      80B7
 316 018d 4B6F8A33 		.ascii	"Ko\2123\350\0012(qG!\177;M\\\225\362*\033r\032i\364"
 316      E8013228 
 316      7147217F 
 316      3B4D5C95 
 316      F22A1B72 
 317 01a4 DE60F6EC 		.ascii	"\336`\366\35431L\234JA&F\004\232\236\344i\350^\353)"
 317      33314C9C 
 317      4A412646 
 317      049A9EE4 
 317      69E85EEB 
 318 01b9 0E274515 		.ascii	"\016'E\025\271\023\256SK\365\360\324\242u\315\304\350"
 318      B913AE53 
 318      4BF5F0D4 
 318      A275CDC4 
 318      E8
 319 01ca 03B84F85 		.ascii	"\003\270O\205c\025\004R\350\243Q\200\234]\306+e\016"
 319      63150452 
 319      E8A35180 
 319      9C5DC62B 
 319      650E
 320 01dc F134B741 		.ascii	"\3614\267A\213\222\232\230\000\230\200\334\247l\254"
 320      8B929A98 
 320      009880DC 
 320      A76CAC
 321 01eb 1CC8D9E4 		.ascii	"\034\310\331\344\312v4\217\320\370\334r\235\010S9Lq"
 321      CA76348F 
 321      D0F8DC72 
 321      9D085339 
 321      4C71
 322 01fd C4C22E11 		.ascii	"\304\302.\021\253\013\362\217G\312\301Z\005\371\263"
 322      AB0BF28F 
 322      47CAC15A 
 322      05F9B3
 323 020c 41C9D76D 		.ascii	"A\311\327m\230_U\032\225\022w\315\304]\000Tian\365\210"
 323      985F551A 
 323      951277CD 
 323      C45D0054 
 323      69616EF5 
 324 0221 28A4D7C3 		.ascii	"(\244\327\303\001:\375\315\263\213\364\204\231|\021"
 324      013AFDCD 
 324      B38BF484 
 324      997C11
 325 0230 16905086 		.ascii	"\026\220P\206)OC\317-Y\270\014\362\226eJ\321\307\275"
 325      294F43CF 
 325      2D59B80C 
 325      F296654A 
 325      D1C7BD
ARM GAS  /tmp/ccCDU11I.s 			page 25


 326 0243 8D12FDC4 		.ascii	"\215\022\375\3046\0052\374\031%\324T\177\304\303Qp\226"
 326      360532FC 
 326      1925D454 
 326      7FC4C351 
 326      7096
 327 0255 703ACDAB 		.ascii	"p:\315\253\224X-\005\206\275\006\276\255\316\226\325"
 327      94582D05 
 327      86BD06BE 
 327      ADCE96D5 
 328 0265 1409D8C1 		.ascii	"\024\011\330\301\302J\\@\242[A\304\037\006\035\362\322"
 328      C24A5C40 
 328      A25B41C4 
 328      1F061DF2 
 328      D2
 329 0276 FA214708 		.ascii	"\372!G\010\345?\340\220wh\013\203_&\313S\210m\225V^"
 329      E53FE090 
 329      77680B83 
 329      5F26CB53 
 329      886D9556 
 330 028b 673229FA 		.ascii	"g2)\372,\315\347\340\266\363\211\211\262\206\320\312"
 330      2CCDE7E0 
 330      B6F38989 
 330      B286D0CA 
 331 029b EB911A51 		.ascii	"\353\221\032Q6^\241\225\346\177j\305\367\011a\255\324"
 331      365EA195 
 331      E67F6AC5 
 331      F70961AD 
 331      D4
 332 02ac 6CA61531 		.ascii	"l\246\0251\347\270\320\312\370\340\327jQ(\341*x}\006"
 332      E7B8D0CA 
 332      F8E0D76A 
 332      5128E12A 
 332      787D06
 333 02bf 7418F214 		.ascii	"t\030\362\024d)\377Eno\326\275\315x\244\347\001I\362"
 333      6429FF45 
 333      6E6FD6BD 
 333      CD78A4E7 
 333      0149F2
 334 02d2 DAE7E21E 		.ascii	"\332\347\342\036\302\031\275?\242\374\011\241\035\236"
 334      C219BD3F 
 334      A2FC09A1 
 334      1D9E
 335 02e0 6EDD6533 		.ascii	"n\335e3\225<\326b\246\314\023\247\3167\036nhl8\224L"
 335      953CD662 
 335      A6CC13A7 
 335      CE371E6E 
 335      686C3894 
 336 02f5 B67524DB 		.ascii	"\266u$\333\257$;\332\323\311tKk\252\355\352\245\216"
 336      AF243BDA 
 336      D3C9744B 
 336      6BAAEDEA 
 336      A58E
 337 0307 8634FC01 		.ascii	"\2064\374\001a\377\215\275"
 337      61FF8DBD 
 338              		.text
 339              		.section	.gnu.lto_chMBPostAheadS.e245fb5f86c065b3,"",%progbits
 340 0000 789C9D54 		.ascii	"x\234\235T\315O\023Q\020\237\331\335n\273\335\322\342"
ARM GAS  /tmp/ccCDU11I.s 			page 26


 340      CD4F1351 
 340      109FD9DD 
 340      6EBBDDD2 
 340      E2
 341 0011 4D3C116E 		.ascii	"M<\021n\210\241\301\2507\342\301?@\023i\202&j\350\242"
 341      88A1C1A8 
 341      37E2C13F 
 341      40136982 
 341      266AE8A2 
 342 0025 65131B12 		.ascii	"e\023\033\022\352A\345\300\366\303\304(\211\215@\000"
 342      EA41E5C0 
 342      F6C3C428 
 342      898D4000 
 343 0035 0D110EE2 		.ascii	"\015\021\016\342W\374\202D/F\327\304\003\210\004\205"
 343      57FC8244 
 343      2F46D7C4 
 343      03880485 
 344 0045 8BE1D483 		.ascii	"\213\341\324\203\304\350I=!Q\327\231\335\356\322\012"
 344      C4E8493D 
 344      2151D799 
 344      DDEED20A 
 345 0055 42E1253B 		.ascii	"B\341%;\357\355{\363\233\371\315o\337\254\000\002\374"
 345      EFED7BF3 
 345      9BF9CD6F 
 345      DFAC0002 
 345      FC
 346 0066 3B4ED2F3 		.ascii	";N\322\363]\006\330\313/* y\240\200\"YQ\220\000\014"
 346      5D06D8CB 
 346      2F2A2079 
 346      A0802259 
 346      5190000C 
 347 007a C1474692 		.ascii	"\301GF\222\220&\364\0112\357(\274#\013~^\007x\355G\232"
 347      9026F409 
 347      32EF28BC 
 347      230B7E5E 
 347      0778ED47 
 348 008f 30807480 		.ascii	"0\200t\200\012\006\311\006\021)\034B\217 J>\331\037"
 348      0A06C906 
 348      11291C42 
 348      8F204A3E 
 348      D91F
 349 00a1 5082D873 		.ascii	"P\202\330s\214\267 T\007c\206q\275p{\342\2538\334o\346"
 349      8CB72054 
 349      07638671 
 349      BD707BE2 
 349      AB38DC6F 
 350 00b6 468D5F96 		.ascii	"F\215_\226\205\250\363\241\206\320J+\254\265'N_:\034"
 350      85A8F3A1 
 350      86D04A2B 
 350      ACB5274E 
 350      5F3A1C
 351 00c9 A039D877 		.ascii	"\2409\330w\255\346\312h&o\374!\234\316L+\201\031\223"
 351      ADE6CA68 
 351      266FFC21 
 351      9CCE4C2B 
 351      811993
 352 00dc 9F8E4C19 		.ascii	"\237\216L\0319\323\262\016V\216\231\270k(6?\261r\314"
ARM GAS  /tmp/ccCDU11I.s 			page 27


 352      39D3B20E 
 352      568E99B8 
 352      6B28363F 
 352      B172CC
 353 00ef EFADE731 		.ascii	"\357\255\3471\207\373F\266S\322\340\322\326S\215,\364"
 353      87FB46B6 
 353      53D2E0D2 
 353      D6538D2C 
 353      F4
 354 0100 6E239579 		.ascii	"n#\225yk\241\277\024V\331\267\0322\237/L\217!1M\177"
 354      6BA1BF14 
 354      56D9B71A 
 354      329F2F4C 
 354      8F21314D 
 355 0115 B3AC888E 		.ascii	"\263\254\210\216RE\260\274\371s\276\267\306X\315&\011"
 355      5245B0BC 
 355      F973BEB7 
 355      C658CD26 
 355      09
 356 0126 B0073741 		.ascii	"\260\0077A&\021\036\013f\301\262^\014>\355}\207\263"
 356      26111E0B 
 356      66C1B25E 
 356      0C3EED7D 
 356      87B3
 357 0138 42043189 		.ascii	"B\0041\211t\233\211\254H+\362o\303\007X\007>\332\021"
 357      749B89AC 
 357      482BF26F 
 357      C3075807 
 357      3EDA11
 358 014b 65367E36 		.ascii	"e6~6\0016\012\233 \033\225M\210\374\305*F\206\301&M"
 358      01360A9B 
 358      201B954D 
 358      88FCC52A 
 358      4686C126 
 359 0160 A01CF1AA 		.ascii	"\240\034\361\252u\"$\213\345\323h\261m\214\233F\234"
 359      7522248B 
 359      E5D368B1 
 359      6D8C9B46 
 359      9C
 360 0171 836CE1E5 		.ascii	"\203l\341\345\227`\033>\344^\201nX1.\033\325:\3724\273"
 360      97601B3E 
 360      E45E816E 
 360      58312E1B 
 360      D53AFA34 
 361 0186 178042C9 		.ascii	"\027\200B\311\016\327\030\313.N\301\233\317\257\255"
 361      0ED718CB 
 361      2E4EC19B 
 361      CFAFAD
 362 0195 79740009 		.ascii	"yt\000\011D.\313_ZS\214sS\\iM\314\200\206N'\363\316"
 362      442ECB5F 
 362      5A538C73 
 362      535C694D 
 362      CC80864E 
 363 01ac 4E1D15E2 		.ascii	"N\035\025\342Tt\322\271\377\0344\275\211\263\220Y\311"
 363      5474D2B9 
 363      FF1C34BD 
 363      89B39059 
ARM GAS  /tmp/ccCDU11I.s 			page 28


 363      C9
 364 01bd DE196F76 		.ascii	"\336\031ov\263\010\335p\221\012k\200\373\006\215\001"
 364      B308DD70 
 364      910A6B80 
 364      FB068D01 
 365 01cd 4AA9DE84 		.ascii	"J\251\336\204\0334\205\312\030\304\261\204\307\034\\"
 365      1B3485CA 
 365      18C4B184 
 365      C71C5C
 366 01dc 3277B901 		.ascii	"2w\271\001$\217D\225\306u\320\240\250\011\244\026\011"
 366      248F4495 
 366      C675D0A0 
 366      A809A416 
 366      09
 367 01ed 03D8450D 		.ascii	"\003\330E\015\364\211\2367\207\214\224\027%;\264\026"
 367      F4899E37 
 367      878C9417 
 367      253BB416 
 368 01fd 97277E78 		.ascii	"\227'~x\305\373\032`7)\277>\025\227\313,d\257f\317\270"
 368      C5FB1A60 
 368      3729BF3E 
 368      1597CB2C 
 368      64AF66CF 
 369 0212 109950F6 		.ascii	"\020\231P\366M\240\376\264\"\366qf:/;\307\305\372\232"
 369      4DA0FEB4 
 369      22F67166 
 369      3A2F3BC7 
 369      C5FA9A
 370 0225 37899960 		.ascii	"7\211\231`2\204;\356\006\365W\306#\263\370>\342B\002"
 370      32843BEE 
 370      06F557C6 
 370      23B3F83E 
 370      E24202
 371 0238 1B41DCFF 		.ascii	"\033A\334\377-\351\262\224n\362\262$\370\207\271\252"
 371      2DE9B294 
 371      6EF2B224 
 371      F887B9AA 
 372 0248 88BFA8C8 		.ascii	"\210\277\250\310\320\344\274\247\234\262QX\261T\221"
 372      D0E4BCA7 
 372      9CB25158 
 372      B15491
 373 0257 47828B09 		.ascii	"G\202\213\011\022l\215$O\3242I\366o*\211w\177\002EZ"
 373      126C8D24 
 373      4FD43249 
 373      F66F2A89 
 373      777F0245 
 374 026c 1F27DF7A 		.ascii	"\037'\337z\037J\255P\240\231|1-y\246)\255J\215D\350"
 374      1F4AAD50 
 374      A0997C31 
 374      2D79A629 
 374      AD4A8D44 
 375 0281 56E79F63 		.ascii	"V\347\237c\347\011\331\216+\331W\343\365n\364\252\262"
 375      E709D98E 
 375      2BD957E3 
 375      F56EF4AA 
 375      B2
 376 0292 DB79E2BF 		.ascii	"\333y\342\277\227\263\244\371\347 g\326\257i\220j\255"
ARM GAS  /tmp/ccCDU11I.s 			page 29


 376      97B3A4F9 
 376      E72067D6 
 376      AF69906A 
 376      AD
 377 02a3 E8433175 		.ascii	"\350C1u\334\301n\331\302\307{\352z\335\351\263\035K"
 377      DCC16ED9 
 377      C2C77BEA 
 377      7ADDE9B3 
 377      1D4B
 378 02b5 BA5371EA 		.ascii	"\272Sq\352\236^~\346\335\372p\302\315\031c}\304\031"
 378      9E5E7EE6 
 378      DDFA70C2 
 378      CD19637D 
 378      C419
 379 02c7 48933AED 		.ascii	"H\223:\355\274\371\001<q\302\216K\013\013\301_\276\376"
 379      BCF9013C 
 379      71C28E4B 
 379      0B0BC15F 
 379      BEFE
 380 02d9 AC1E8F1E 		.ascii	"\254\036\217\036\352\320\343\372\341\243\247\232\016"
 380      EAD0E3FA 
 380      E1A3A79A 
 380      0E
 381 02e6 343635EE 		.ascii	"465\356\213F;S\321\256s\321T\227\026\325:\222\361\316"
 381      8B463B53 
 381      D1AE73D1 
 381      549716D5 
 381      3A92F1CE 
 382 02fa F3A7538D 		.ascii	"\363\247S\215\032\310]\355\027\222\251\304_\037\343"
 382      1AC85DED 
 382      1792A9C4 
 382      5F1FE3
 383 0309 85D1     		.ascii	"\205\321"
 384              		.text
 385              		.section	.gnu.lto_chMBPostAhead.e245fb5f86c065b3,"",%progbits
 386 0000 789C8550 		.ascii	"x\234\205P\275J\003A\020\236o7wZ\332F\233\220N\220;"
 386      BD4A0341 
 386      109E6F37 
 386      775ADA46 
 386      9B904E90 
 387 0015 22E20BF8 		.ascii	"\"\342\013\370\000\026&\240\225$\033\271\034x\004r\026"
 387      001626A0 
 387      95241BB9 
 387      1C780472 
 387      16
 388 0026 8A45CE44 		.ascii	"\212E\316D\324\304\024)%\225\032\355\004[\313\224\036"
 388      D4C41429 
 388      25951AED 
 388      045BCB94 
 388      1E
 389 0037 22C137B8 		.ascii	"\"\3017\270\007\310\023Xx\316\336i\374Ap`gfg\277o\346"
 389      07C81358 
 389      78CEDE69 
 389      FC417060 
 389      676667BF 
 390 004d 9B1524E8 		.ascii	"\233\025$\350\267-\3609\005\321\262\276d\010\214\200"
 390      B72DF039 
ARM GAS  /tmp/ccCDU11I.s 			page 30


 390      05D1B2BE 
 390      64088C80 
 391 005d 80642FC1 		.ascii	"\200d/\301e\0025\205DsK\347$\362t\025\004\027\321\355"
 391      65023585 
 391      44734BE7 
 391      24F27415 
 391      0417D1ED 
 392 0071 7090ED5E 		.ascii	"p\220\355^\266\372\301[\034\303\325O\012\264\311\031"
 392      B6FAC15B 
 392      1CC3D54F 
 392      0AB4C919 
 393 0081 72491099 		.ascii	"rI\020\231\237C\022Z\177\024\217{\331\340\033M\320\022"
 393      9F43125A 
 393      7F148F7B 
 393      D9E01B4D 
 393      D012
 394 0093 FE61DE8B 		.ascii	"\376a\336\213Q\024\307\223\370\2567\301\2430\001\217"
 394      5114C793 
 394      F8AE37C1 
 394      A330018F 
 395 00a3 69EC589D 		.ascii	"i\354X\235\247\301e\\#O\006%\"8\036\363\234\\ZLD\261"
 395      A7C1655C 
 395      234F0625 
 395      22381EF3 
 395      9C5C5A4C 
 396 00b9 15135FD2 		.ascii	"\025\023_\322\233\3111\265\243Ng\246\214\033\030\\<"
 396      9BC931B5 
 396      A34E67A6 
 396      8C1B185C 
 396      3C
 397 00ca A4D7E02C 		.ascii	"\244\327\340,\230s!U\262,q\037\0260\246\223\250\033"
 397      98732155 
 397      B22C711F 
 397      1630A693 
 397      A81B
 398 00dc 9A29CA41 		.ascii	"\232)\312Af\0123\024\322\037t\000\007\302\201taj|;:"
 398      660A3314 
 398      D21F7400 
 398      07C28174 
 398      616A7C3B 
 399 00f1 0FFFEC2A 		.ascii	"\017\377\354*\277\272>S+|\030\316\177v5\034|\354Z\322"
 399      BFBA3E53 
 399      2B7C18CE 
 399      7F76351C 
 399      7CEC5AD2 
 400 0105 28F94447 		.ascii	"(\371DG\263DU\235\277\020\246\250\024R\324\362\364\350"
 400      B344559D 
 400      BF10A6A8 
 400      1452D4F2 
 400      F4E8
 401 0117 C55DB762 		.ascii	"\305]\267b\257\325\334\212\273\276\261]X\265\012\326"
 401      AFD5DC8A 
 401      BBBEB15D 
 401      58B50AD6 
 402 0127 8A6DD77D 		.ascii	"\212m\327}\273\261g\373\015e\253\232W\251\357\357\370"
 402      BBB167FB 
 402      0D65AB9A 
ARM GAS  /tmp/ccCDU11I.s 			page 31


 402      57A9EFEF 
 402      F8
 403 0138 9622B351 		.ascii	"\226\"\263Q=\360|\347\035\015!d\222"
 403      3DF07CE7 
 403      1D0D2164 
 403      92
 404              		.text
 405              		.section	.gnu.lto_chMBPostAheadI.e245fb5f86c065b3,"",%progbits
 406 0000 789C9D55 		.ascii	"x\234\235U\317K\024q\024\177ofvfg\177\270\353A\250\016"
 406      CF4B1471 
 406      147F6F66 
 406      7666677F 
 406      B8EB41A8 
 407 0015 29DD5470 		.ascii	")\335Tp\021\"\250K\207\376\200\202\0224\250h\267X\007"
 407      1122A84B 
 407      87FE8082 
 407      1234A868 
 407      B75807
 408 0028 5A04ED50 		.ascii	"Z\004\355Pyp\366G\021\005%\233\211\246\221\036\254\210"
 408      7970F647 
 408      1105259B 
 408      89A6911E 
 408      AC88
 409 003a 0D312F1E 		.ascii	"\0151/\036:l\321\3012\321\010\026\363$\232J7\217\265"
 409      3A6CD1C1 
 409      32D10816 
 409      F3249A4A 
 409      378FB5
 410 004d 84D37BB3 		.ascii	"\204\323{\263\373]w\323t\354\013\373f\276o\336\347\275"
 410      FB5D77D3 
 410      74EC0BFB 
 410      66BE6FDE 
 410      E7BD
 411 005f CFFBF1FD 		.ascii	"\317\373\361\375\256\004\022\374\275.\322\257O\003h"
 411      AE0412FC 
 411      BD2ED2AF 
 411      4F0368
 412 006e E48D1790 		.ascii	"\344\215\027\220,PB\231\244,)\000\246\344\"\241(H\017"
 412      2C504299 
 412      A42C2900 
 412      A6E422A1 
 412      28480F
 413 0081 74492A6B 		.ascii	"tI*k4\326\250\350!\215&\271Y\243\263\306\215\364@\335"
 413      34D6A8E8 
 413      218D26B9 
 413      59A3B3C6 
 413      8DF440DD 
 414 0095 D67B10C9 		.ascii	"\326{\020\311\035B\217$+.Us\353\036\354ic\025\370\217"
 414      1D428F24 
 414      2B2E5573 
 414      EB1EEC69 
 414      6315F88F 
 415 00a9 C0A869A6 		.ascii	"\300\250i\246\227\306\226\363\322`_65b\376\266,D\203"
 415      97C696F3 
 415      D2605F36 
 415      3562FEB6 
 415      2C4483
ARM GAS  /tmp/ccCDU11I.s 			page 32


 416 00bc 3F46105A 		.ascii	"?F\020Z\351\015\353\354\007\207/_6\260\327|\363\322"
 416      E90DEBEC 
 416      07872F5F 
 416      36B0D77C 
 416      F3D2
 417 00ce D46D906C 		.ascii	"\324m\220l0M\007\230\201\354\343\334\247Q4\323f|\303"
 417      304D0798 
 417      81ECE3DC 
 417      A75134D3 
 417      667CC3
 418 00e1 B202062A 		.ascii	"\262\002\006*\216`\351\354`\256\357\340\275\221D\257"
 418      8E60E9EC 
 418      60AEEFE0 
 418      BD9144AF 
 419 00f1 B949149D 		.ascii	"\271I\024\2352Lg\207\372\037\224\303\\\316`\346\370"
 419      324C6787 
 419      FA1F94C3 
 419      5CCE60E6 
 419      F8
 420 0102 9DDBC194 		.ascii	"\235\333\301\224\310\314)\250\274\032N1\277\276\237"
 420      C8CC29A8 
 420      BC1A4E31 
 420      BFBE9F
 421 0111 99365359 		.ascii	"\2316SY\313:\351\030\223}\332?\374?9=Z\335\177\250\211"
 421      CB3AE918 
 421      937DDA3F 
 421      FC3F393D 
 421      5ADD7FA8 
 422 0126 DC4C79B3 		.ascii	"\334Ly\263\234\302&s\017\367\325\254\030\302\270\224"
 422      9CC22673 
 422      0FF7D5AC 
 422      18C2B894 
 423 0136 5DB2ACCF 		.ascii	"]\262\254\317\317\306V\206\261\246\032\201&C\302\030"
 423      CFC65686 
 423      B1A61A81 
 423      2643C218 
 424 0146 D258115E 		.ascii	"\322X\021^!!\273X\247\362V#\341r\263\320YxXxY\370X\370"
 424      2121BB58 
 424      A7F25623 
 424      E172B3D0 
 424      59785878 
 425 015e 59541156 		.ascii	"YT\021V\012\260q\020\354!\003\027\244hd\353bE6\264\316"
 425      0AB07110 
 425      EC210317 
 425      A46864EB 
 425      624536B4 
 426 0173 D9B2858F 		.ascii	"\331\262\205\217\231<\007\311\245\315\037\236\313\370"
 426      993C07C9 
 426      A5CD1F9E 
 426      CBF8
 427 0181 9A93846E 		.ascii	"\232\223\204n\310\233w\315\240\201j\304>=@N\264\002"
 427      C89B77CD 
 427      A0816AC4 
 427      3E3D404E 
 427      B402
 428 0193 D7169E74 		.ascii	"\327\026\236ty\032>\254\277\263\276b\001\020E\211\323"
 428      791A3EAC 
ARM GAS  /tmp/ccCDU11I.s 			page 33


 428      BFB3BE62 
 428      01104589 
 428      D3
 429 01a4 7297E7D4 		.ascii	"r\227\347\324\302Q\311\257\262\315\247\036\301\302\331"
 429      C251C9AF 
 429      B2CDA71E 
 429      C1C2D9
 430 01b3 67CD0103 		.ascii	"g\315\001\003=\304\251hd\240W\240i'\317B\"\237|\221"
 430      3DC4A968 
 430      64A057A0 
 430      6927CF42 
 430      229F7C91 
 431 01c7 09892872 		.ascii	"\011\211(r7\334\242\224\032\341\225I\353\246\201\276"
 431      37DCA294 
 431      1AE19549 
 431      EBA681BE 
 432 01d7 21784281 		.ascii	"!xB\201\375\025\004\302XFc\016R\331\022^)q\250\212p"
 432      FD1504C2 
 432      5846630E 
 432      52D9125E 
 432      2971A88A 
 433 01ec 1AB4C8A9 		.ascii	"\032\264\310\251\201\001\200iH\255\305\375%C\366&W\246"
 433      81018069 
 433      48ADC5FD 
 433      2543F626 
 433      57A6
 434 01fe A316084D 		.ascii	"\243\026\010M-,7\0103\027\233)\226X\330#l5A~2S/\214"
 434      2D2C3708 
 434      33179B29 
 434      9658D823 
 434      6C35417E 
 435 0216 D50AF217 		.ascii	"\325\012\362\027\234\222\257\337V\277`\004\225\"w\325"
 435      9C92AFDF 
 435      56BF6004 
 435      952277D5 
 436 0226 C06A008A 		.ascii	"\300j\000\212\2648\265\262\\j\206\326\010\0154\003;"
 436      B438B5B2 
 436      5C6A86D6 
 436      080D3403 
 436      3B
 437 0237 BB17FE67 		.ascii	"\273\027\376g!y?yX@\334\204\262'\223\216\257\025\260"
 437      21793F79 
 437      5840DC84 
 437      B227938E 
 437      AF15B0
 438 024a 3F273ECE 		.ascii	"?'>\316\027=\026)\037\337\303g\224\367\204;/\234\352"
 438      173D1629 
 438      1FDFC367 
 438      94F7843B 
 438      2F9CEA
 439 025d CE782416 		.ascii	"\316x$\026{\003\002\342\331\015\"\3761h\370V\267z\245"
 439      7B0302E2 
 439      D90D22FE 
 439      3168F856 
 439      B77AA5
 440 0270 47F99ADF 		.ascii	"G\371\232\337\352\223\273P\373\305\205\225\367\262\260"
 440      EA93BB50 
ARM GAS  /tmp/ccCDU11I.s 			page 34


 440      FBC58595 
 440      F7B2B0
 441 027f F1EEE656 		.ascii	"\361\356\346V.1\241\212<\227\004\306G\260m%\331\360"
 441      2E31A18A 
 441      3C9704C6 
 441      47B06D25 
 441      D9F0
 442 0291 5494A479 		.ascii	"T\224\244y\317\222\370\004-\275Hk`\355\204\210\340w"
 442      CF92F804 
 442      2DBD486B 
 442      60ED8488 
 442      E077
 443 02a3 589F99F9 		.ascii	"X\237\231\371bT\262\214ST\215\206\216\320\255\205\313"
 443      6254B28C 
 443      53548D86 
 443      8ED0AD85 
 443      CB
 444 02b4 CF0E5365 		.ascii	"\317\016Se\033\346\223\353\231Z\341=P1om\377\234\267"
 444      1BE693EB 
 444      995AE13D 
 444      50316F6D 
 444      FF9CB7
 445 02c7 B2BB88E7 		.ascii	"\262\273\210\347\255v\247y\023a\002b\336\246~\256\035"
 445      AD76A779 
 445      13610262 
 445      DEA67EAE 
 445      1D
 446 02d8 128182F6 		.ascii	"\022\201\202\366)\330j\000uC\236\2018\371\277\302\265"
 446      29D86A00 
 446      75439E81 
 446      38F9BFC2 
 446      B5
 447 02e9 FD62BF46 		.ascii	"\375b\277F\013\011}\003\244c\243f&j\010\247\277\235"
 447      0B097D03 
 447      A463A366 
 447      266A08A7 
 447      BF9D
 448 02fb F4F33544 		.ascii	"\364\3635D_\270\265\365\327\214p\350T\273\0216N\237"
 448      5FB8B5F5 
 448      D78C70E8 
 448      54BB1136 
 448      4E9F
 449 030d BDD47CAC 		.ascii	"\275\324|\254\251\271\351h(\324\321\025\352\274\036"
 449      A9B9E968 
 449      28D4D115 
 449      EABC1E
 450 031c EAEA8C84 		.ascii	"\352\352\214\204\"\355\261p\307\215\253]M\021\370\003"
 450      22EDB170 
 450      C78DAB5D 
 450      4D11F803 
 451 032c 53ABABFD 		.ascii	"S\253\253\375"
 452              		.text
 453              		.section	.gnu.lto_chMBFetchS.e245fb5f86c065b3,"",%progbits
 454 0000 789C9D55 		.ascii	"x\234\235UMHTQ\024>\347\375\315\274\367\306\031\333"
 454      4D485451 
 454      143EE7FD 
 454      CDBCF7C6 
ARM GAS  /tmp/ccCDU11I.s 			page 35


 454      19DB
 455 0012 656DC49D 		.ascii	"em\304\235\031\016F\265\213\026\255Z\025\350\200-\""
 455      190E46B5 
 455      8B16AD5A 
 455      15E8802D 
 455      22
 456 0023 9C673C1F 		.ascii	"\234g<\0375\010ND\345\3027\316\010\375HH(\330\210\244"
 456      35084E44 
 456      E5C237CE 
 456      08FD4848 
 456      28D888A4 
 457 0037 08FD2259 		.ascii	"\010\375\"Y\331\246\210^\320B\021\221h\221\314J(\220"
 457      D9A6885E 
 457      D0421191 
 457      6891CC4A 
 457      2890
 458 0049 B0C09D61 		.ascii	"\260\300\235a\322\353\334\367\327\2334\235\2740\347"
 458      D2EBDCF7 
 458      D79B349D 
 458      BC30E7
 459 0058 DEB9F7FB 		.ascii	"\336\271\367\373\316\371\316\271\347\316p\300\301\337"
 459      CEF9CEB9 
 459      E7CE70C0 
 459      C1DF
 460 0066 E3027DD6 		.ascii	"\343\002}\326$\200C\354K\014\220\020\310!O\226\347D"
 460      248043EC 
 460      4B0C9010 
 460      C8214F96 
 460      E744
 461 0078 009313C8 		.ascii	"\000\223\023\310\010\202\273\226\330ZD\232P\342\"lG"
 461      0882BB96 
 461      D85A449A 
 461      50E2226C 
 461      47
 462 0089 613B112E 		.ascii	"a;\021.\312\3262[G\221&\224\221\016PA\225\254\212H\256"
 462      CAD6325B 
 462      47912694 
 462      910E5041 
 462      95AC8A48 
 463 009e 117A385E 		.ascii	"\021z8^\020\245HTVT\3549\203N\274:\0307\315;K}\023+"
 463      10A54854 
 463      5654EC39 
 463      834EBC3A 
 463      1837CD3B 
 464 00b6 FCDD41AB 		.ascii	"\374\335A\2530fn\3306\242\301\0165\204VZa\25531\031"
 464      30666ED8 
 464      36A2C10E 
 464      3584565A 
 464      61AD3331 
 465 00cb E1E112AD 		.ascii	"\341\341\022\255\321\322`\315\315\261\336\001\363\027"
 465      D1D260CD 
 465      CDB1DE01 
 465      F317
 466 00d9 F10C26BB 		.ascii	"\361\014&\273\022\232\271\366\345\364\214Y\260l\373"
 466      129AB9F6 
 466      E5F48C59 
 466      B06CFB
ARM GAS  /tmp/ccCDU11I.s 			page 36


 467 00e8 78E59CE7 		.ascii	"x\345\234\347\017M\331\321\307W\312\0310_\207\342\010"
 467      0F4DD9D1 
 467      C757CA19 
 467      305F87E2 
 467      08
 468 00f9 15A674AF 		.ascii	"\025\246t\257x{7)\375\374\377\224\254g\305\321]\204"
 468      787B3729 
 468      FDFCFF94 
 468      AC67C5D1 
 468      5D84
 469 010b B25E9617 		.ascii	"\262^\226\027\275\262\273\032\266\336\224f\307\221\224"
 469      BDB2BB1A 
 469      B6DE9466 
 469      C79194
 470 011a E6566D3B 		.ascii	"\346Vm;a\240XY\015-\373S\177\215\371'\232\310\301A\334"
 470      61A05859 
 470      0D2DFB53 
 470      7F8DF927 
 470      9AC8C141 
 471 012f 81994178 		.ascii	"\201\231Ax\312YK\266\375\355\355\243\376\015\374\312"
 471      CA594BB6 
 471      FDEDEDA3 
 471      FE0DFCCA 
 472 013f 25103348 		.ascii	"%\0203Hm\235A\216\007R,\320\212\027\241\015\237`\035"
 472      6D9D418E 
 472      07522CD0 
 472      8A17A10D 
 472      9F601D
 473 0152 48B4C347 		.ascii	"H\264\303G\230\2112#\223\021\024\266R\231\2111S\305"
 473      98893223 
 473      931114B6 
 473      52998931 
 473      53C5
 474 0164 48717044 		.ascii	"HqpD\203\010\005\322U\353\2223^\3724Z\034\233b/\210"
 474      830805D2 
 474      55EB9233 
 474      5EFA345A 
 474      1C9B622F 
 475 0179 5F80FCD2 		.ascii	"_\200\374\322\215\357J\033N:\224nX7\257\233\325\006"
 475      8DEF4A1B 
 475      4E3A946E 
 475      5837AF9B 
 475      D506
 476 018b 4A9AF318 		.ascii	"J\232\363\030\200\\E\\\255)Vv~\006\336/\277\033*\241"
 476      805C455C 
 476      AD295676 
 476      7E06DE2F 
 476      BF1B2AA1 
 477 019f 4BD01159 		.ascii	"K\320\021YZ\321pN)\326@\016.\000q\255\356\245\205A\242"
 477      5AD1704E 
 477      29D6400E 
 477      2E0071AD 
 477      EEA58541 
 478 01b4 135CD814 		.ascii	"\023\\\330\024X\326\320}\373lg\257\201\012\011\367@"
 478      58D6D07D 
 478      FB6C67AF 
 478      810A09F7 
ARM GAS  /tmp/ccCDU11I.s 			page 37


 478      40
 479 01c5 067BA52E 		.ascii	"\006{\245.\233\0366?\017\275\353\371\027\323\307\374"
 479      9B1E363F 
 479      0FBDEBF9 
 479      17D3C7FC 
 480 01d5 287C375C 		.ascii	"(|7\\\243\354\033\340\261Ic\210B\306F\240HSU\231\314"
 480      A3EC1BE0 
 480      B1496388 
 480      42C646A0 
 480      48535599 
 481 01ea 3486742C 		.ascii	"4\206t,@\237\265\317w \006\"\342\232'\227\274\352(\030"
 481      409FB5CF 
 481      77200622 
 481      E29A2797 
 481      BCEA2818 
 482 01fe 98007032 		.ascii	"\230\000p2\037)\362\001\232\271,\273\317\024+\025\223"
 482      1F29F201 
 482      9AB92CBB 
 482      CF142B15 
 482      93
 483 020f 555A9C98 		.ascii	"UZ\234\230\343|\234\324\000\007(\373\255\245\370Z\210"
 483      E37C9CD4 
 483      000728FB 
 483      ADA5F85A 
 483      88
 484 0220 34BB1AF7 		.ascii	"4\273\032\367)\021\235%8\017\371[A\264(\355\006\035"
 484      29119D25 
 484      380FF95B 
 484      41B428ED 
 484      061D
 485 0232 44E893EE 		.ascii	"D\350\223\356\201\227l\363\016\001t\366\235X\257\372"
 485      81976CF3 
 485      0E0174F6 
 485      9D58AFFA 
 486 0242 2EFB0E65 		.ascii	".\373\016e\027/z~\371\260\020\311\005\021\"G\316U\007"
 486      172F7A7E 
 486      F9B010C9 
 486      05112247 
 486      CE5507
 487 0255 15BA439D 		.ascii	"\025\272C\235\375r\2624\177L|\016\356X\2510\315\322"
 487      FD72B234 
 487      7F4C7C0E 
 487      EE58A930 
 487      CDD2
 488 0267 54C2A7A8 		.ascii	"T\302\247\250\333Q\374?\200\031(,\347\232\202(\272\337"
 488      DB51FC3F 
 488      8019282C 
 488      E79A8228 
 488      BADF
 489 0279 036EC1A3 		.ascii	"\003n\301\243^\301\207\357\177\014J\025\333\316m8\317"
 489      5EC187EF 
 489      7F0C4A15 
 489      DBCE6D38 
 489      CF
 490 028a 29B5AC88 		.ascii	")\265\254\210Gv,b\314\017+\373\355\2672]\357\207\255"
 490      47762C62 
 490      CC0F2BFB 
ARM GAS  /tmp/ccCDU11I.s 			page 38


 490      EDB7325D 
 490      EF87AD
 491 029d 2A6BBFB3 		.ascii	"*k\277\263\377\354\276P\313,@\301\252\337\364\002\252"
 491      FFECBE50 
 491      CB2C40C1 
 491      AADFF402 
 491      AA
 492 02ae 350F433E 		.ascii	"5\017C>\015\334\303`\371\245\221Iu\2537*:\300\320\033"
 492      0DDCC360 
 492      F9A59149 
 492      75AB372A 
 492      3AC0D01B 
 493 02c2 555C65B3 		.ascii	"U\\e\263\213\017\366\373\302\342\272\007\243c*\036?"
 493      8B0FF6FB 
 493      C2E2BA07 
 493      A3632A1E 
 493      3F
 494 02d3 0739D2D2 		.ascii	"\0079\322\322\316\202|\200\340\376\342.\244\205%\313"
 494      CE827C80 
 494      E0FEE22E 
 494      A48525CB 
 495 02e3 6A5F7FD1 		.ascii	"j_\177\321H'Ot\030i\343T\363\271\246\243\215M\215\207"
 495      48274F74 
 495      1869E354 
 495      F3B9A6A3 
 495      8D4D8D87 
 496 02f7 93C9CE6C 		.ascii	"\223\311\316l\262\353R2\333\245%\265\216L\272\363\312"
 496      B2EB5232 
 496      DBA525B5 
 496      8E4CBAF3 
 496      CA
 497 0308 F96CA306 		.ascii	"\371l\243\006RW\373\325LV\377\015\374\306\202A"
 497      5257FBD5 
 497      4C56FF0D 
 497      FCC68241 
 498              		.text
 499              		.section	.gnu.lto_chMBFetch.e245fb5f86c065b3,"",%progbits
 500 0000 789C8550 		.ascii	"x\234\205P=K\003A\020\235\267\233;-m\243MH'\310\035"
 500      3D4B0341 
 500      109DB79B 
 500      3B2D6DA3 
 500      4D4827C8 
 501 0015 11F10FF8 		.ascii	"\021\361\017\370\003,L@+\311]\344r\340\021\310Y(\026"
 501      032C4C40 
 501      2BC95DE4 
 501      72E011C8 
 501      592816
 502 0028 3913BFD0 		.ascii	"9\023\277\320\024i\204 )T\264\266\266K+g\014VV\302\375"
 502      14698420 
 502      2954B4B6 
 502      B64B2B67 
 502      0C5656C2 
 503 003d 8A14169E 		.ascii	"\212\024\026\236\263w\032?\020\034\330\231\331\331\367"
 503      B3771A3F 
 503      101CD899 
 503      D9D9F7
 504 004c 66DEAC20 		.ascii	"f\336\254 A\277m\206\317\021\210\346\325%C`\004\004"
ARM GAS  /tmp/ccCDU11I.s 			page 39


 504      41BF6D86 
 504      CF1188E6 
 504      D5254360 
 504      0404
 505 005e 247B092E 		.ascii	"${\011.\023\250!$\032k*'\221\247\313 \350F\007\243\363"
 505      13A82124 
 505      1A6B2A27 
 505      91A7CB20 
 505      E84607A3 
 506 0073 ECC945B3 		.ascii	"\354\311E\263\023\274\3051\\\365d\203V9C.\011\"\363"
 506      13BCC531 
 506      5CF56483 
 506      5639432E 
 506      0922F3
 507 0086 734842EB 		.ascii	"sHB\353\364\317\236\333\331\340\033M\320\034\376a\336"
 507      F4CF9EDB 
 507      D9E01B4D 
 507      D01CFE61 
 507      DE
 508 0097 8A7E14C7 		.ascii	"\212~\024\307\275\273\233v\017/B\007<\246\261cu\236"
 508      BDBB9B76 
 508      0F2F4207 
 508      3CA6B163 
 508      759E
 509 00a9 02977185 		.ascii	"\002\227q\205<i\224\210\340\270\317sri1\021\305VL|I"
 509      3C699488 
 509      E0B8CF73 
 509      72693111 
 509      C5564C7C 
 510 00be 6D2687D4 		.ascii	"m&\207\324\212\036N'\312\270\206\306\305]z\015\216\203"
 510      8A1E4E27 
 510      CAB886C6 
 510      C55D7A0D 
 510      8E83
 511 00d0 2917D24E 		.ascii	")\027\322N\226%\356\303\002\206t\030\015B=E9\310\214"
 511      9625EEC3 
 511      02867418 
 511      0D423D45 
 511      39C88C
 512 00e3 619A8DF4 		.ascii	"a\232\215\364\007\035\300\201p ]\350\012\337\212\036"
 512      071DC081 
 512      70205DE8 
 512      0ADF8A1E 
 513 00f3 C33FBBCA 		.ascii	"\303?\273\312\257\256\003j\336wG\323\237]5\007\037\273"
 513      AFAE036A 
 513      DE7747D3 
 513      9F5D3507 
 513      1FBB
 514 0105 96144A86 		.ascii	"\226\024J\206\2647ITQ\371\023a\214J!E%O\215\236\335"
 514      B4374954 
 514      51F91361 
 514      8C4A2145 
 514      254F8D9E 
 515 011a 742D73A9 		.ascii	"t-s\251\352Z\356\362\312za\321(\030\013\246Y\363\315"
 515      EA5AEEF2 
 515      CA7A61D1 
 515      28180BA6 
ARM GAS  /tmp/ccCDU11I.s 			page 40


 515      59F3CD
 516 012d FA96E9D7 		.ascii	"\372\226\351\327m\323\256zVm{\3037l\322\353\225\035"
 516      6DD3AE7A 
 516      566D7BC3 
 516      376CD2EB 
 516      951D
 517 013f CF77DE01 		.ascii	"\317w\336\001\200\021d\215"
 517      8011648D 
 518              		.text
 519              		.section	.gnu.lto_chMBFetchI.e245fb5f86c065b3,"",%progbits
 520 0000 789C9D55 		.ascii	"x\234\235UOH\024a\024\177o\376\354\354\316\376\365P"
 520      4F481461 
 520      147F6FFE 
 520      ECECCEFE 
 520      F550
 521 0012 141D946E 		.ascii	"\024\035\224n&\270\010\321\325C\247N\005%\350!\"\267"
 521      26B808D1 
 521      D543A74E 
 521      0525E821 
 521      22B7
 522 0024 58873241 		.ascii	"X\2072A;T\036\034u\205(\"Y\014\314\015\322[\004\321"
 522      3B541E1C 
 522      75852822 
 522      590CCC0D 
 522      D25B04D1 
 523 0038 1F69B52E 		.ascii	"\037i\265.M\324A\013\221\350\220\272A\022\221\227\002"
 523      4DD4410B 
 523      91E890BA 
 523      41129197 
 523      02
 524 0049 C143A0D6 		.ascii	"\301C\240\326\364\336\314~\343l\226N~\340\233\331\367"
 524      F4DECC7E 
 524      E36C964E 
 524      7EE09BD9 
 524      F7
 525 005a FD7EEFFD 		.ascii	"\375~\357\375\336\373\336|J \301\237\353\034\375\215"
 525      DEFBDE7C 
 525      4A20C19F 
 525      EB1CFD8D 
 526 006a 680075FC 		.ascii	"h\000u\374#\006H\010\224P&+K*\200))d\024\305}\017\361"
 526      23064808 
 526      9450262B 
 526      4B2A8029 
 526      296414C5 
 527 0081 BB8AF4C0 		.ascii	"\273\212\364\300\220\244\261'\314\036\015\243\344\011"
 527      90A4B127 
 527      CC1E0DA3 
 527      E409
 528 008f 4B11F6E8 		.ascii	"K\021\366\350\354\211 =Pw\374QD\012\215\320#\311\212"
 528      EC89203D 
 528      5077FC51 
 528      440A8DD0 
 528      23C98A
 529 00a2 1AD2C211 		.ascii	"\032\322\302\021=\212=-\354\203\370~\0303\315\374\342"
 529      3D8A3D2D 
 529      EC83F87E 
 529      1833CDFC 
ARM GAS  /tmp/ccCDU11I.s 			page 41


 529      E2
 530 00b3 C0F89A74 		.ascii	"\300\370\232t{\310\312\215\232\353\266\215h\360f\006"
 530      7BC8CA8D 
 530      9AEBB68D 
 530      68F06606 
 531 00c3 A199DEB0 		.ascii	"\241\231\336\260\306y\260\014\377r\210\203\346\223{"
 531      C679B00C 
 531      FF728883 
 531      E6937B
 532 00d2 66C421C9 		.ascii	"f\304!\311\006k\016\300\031\266\012\2457ch\346\315\336"
 532      066B0EC0 
 532      19B60AA5 
 532      376368E6 
 532      CDDE
 533 00e4 65DB4E1A 		.ascii	"e\333N\032\250\004\242\345\255\273\245\241\275\327F"
 533      A804A2E5 
 533      ADBBA5A1 
 533      BDD746
 534 00f3 FB06CD5F 		.ascii	"\373\006\315_$1\250\302\274\365\270t\323OS\203\321\314"
 534      2431A8C2 
 534      BCF5B874 
 534      D34F5383 
 534      D1CC
 535 0105 952FC7A6 		.ascii	"\225/\307\246\314\234e\333\215\3019\376f\004\343\014"
 535      CC9C65DB 
 535      8DC139FE 
 535      6604E30C 
 536 0115 9A13BE3C 		.ascii	"\232\023\276<\301\032\230\267\306\0137vR\322\217\377"
 536      C11A98B7 
 536      C60B3776 
 536      52D28FFF 
 537 0125 2FC97A5A 		.ascii	"/\311zZ\270\263\203T\326\263\312\246o{V\355\010\017"
 537      B8B38354 
 537      D6B3CAA6 
 537      6F7B56ED 
 537      080F
 538 0137 256BD1B6 		.ascii	"%k\321\266\327?\374\374\374\011wW!\320`H\330\216(\223"
 538      D73FFCFC 
 538      FC097757 
 538      21D06048 
 538      D88E2893 
 539 014b 21380551 		.ascii	"!8\005Q\311\310!\336\320\370g\230\214\032a\243\263\211"
 539      C9C821DE 
 539      D0F86798 
 539      8C1A61A3 
 539      B389
 540 015d F26E8CDF 		.ascii	"\362n\214\337\342l\022l\222\214K\2013cD\317Q\303k\332"
 540      E26C126C 
 540      928C4B81 
 540      336344CF 
 540      51C36BDA 
 541 0171 CB6A689D 		.ascii	"\313jh\235pl\023\177r\362,\364/N\177\327O\343\003.\022"
 541      706C137F 
 541      72F22CF4 
 541      2F4E7FD7 
 541      4FE3032E 
 542 0186 BA61D5BC 		.ascii	"\272a\325\274j\246\014\014e\234\257\007(\210\346jm\342"
ARM GAS  /tmp/ccCDU11I.s 			page 42


 542      6AA60C0C 
 542      659CAF07 
 542      2888E66A 
 542      6DE2
 543 0198 7392A7E0 		.ascii	"s\222\247\340\365\322\313[%t\011Y\224\270\254\260\277"
 543      F5D2CB5B 
 543      25740959 
 543      94B8ACB0 
 543      BF
 544 01a9 A626CEEA 		.ascii	"\246&\316\352\340<\220\334\354\366\320\017R\235\344"
 544      E03C90DC 
 544      ECF6D00F 
 544      529DE4
 545 01b8 CAA6C491 		.ascii	"\312\246\304\221\014\272\227\005{\366\030\250\223\360"
 545      0CBA9705 
 545      7BF618A8 
 545      93F0
 546 01c6 32C8E0CF 		.ascii	"2\310\340\317\332e\323M \317@\337j\377x1-\262(\335p"
 546      DA65D34D 
 546      20CF40DF 
 546      6AFF7831 
 546      2DB228DD 
 547 01db 85EAAE83 		.ascii	"\205\352\256\203\373&\255\313\006\306\0120B\211\343"
 547      FB26ADCB 
 547      06C60A30 
 547      4289E3
 548 01ea 152A5BD1 		.ascii	"\025*[\321'c\026r\226\307W=\015\211\014\327J\213\202"
 548      27631672 
 548      96C7573D 
 548      0D890CD7 
 548      4A8B82
 549 01fd 1A980498 		.ascii	"\032\230\004\230\202\334\327\336\270\007\344hre9\232"
 549      82DCD7DE 
 549      B807E468 
 549      7265399A 
 550 020d 2B687272 		.ascii	"+hrr\274N\300B\014Sl\261\260G`\303B\374\213b\255\000"
 550      BC4EC042 
 550      0C536CB1 
 550      B04760C3 
 550      42FC8B62 
 551 0223 6B15E24F 		.ascii	"k\025\342O\006\025_\273\251\177\251\014*e\355\232\201"
 551      06155FBB 
 551      A97FA90C 
 551      2A65ED9A 
 551      81
 552 0234 55009469 		.ascii	"U\000\224ia\270\270\346\035F\270\016\016\320i\374=\274"
 552      61B8B8E6 
 552      1D46B80E 
 552      0ED069FC 
 552      3DBC
 553 0246 884FA4E9 		.ascii	"\210O\244\351G\011A\211d\0310\003\375\327e\341\322\311"
 553      47094189 
 553      64193003 
 553      FDD765E1 
 553      D2C9
 554 0258 EB4D34A1 		.ascii	"\353M4\241\217\270\033e\375\215\333$\310\3625M\254\347"
 554      8FB81B65 
ARM GAS  /tmp/ccCDU11I.s 			page 43


 554      FD8DDB24 
 554      C8F2354D 
 554      ACE7
 555 026a 031744C0 		.ascii	"\003\027D\300\250\213W\312qU\277\220\220\013\"D/\005"
 555      A88B57CA 
 555      7155BF90 
 555      900B2244 
 555      2F05
 556 027c D71C946F 		.ascii	"\327\034\224o\246\262<\027\\\346d\361\275Wf,`\231\013"
 556      A6B23C17 
 556      5CE664F1 
 556      BD57662C 
 556      60990B
 557 028f CB5E99F1 		.ascii	"\313^\231\361\255(\342?\030\215\302\322\306(\304\210"
 557      AD28E23F 
 557      188DC2D2 
 557      C628C488 
 558 029f E51F8388 		.ascii	"\345\037\203\210{\264\013s\305W^\253\022[\205\2257\224"
 558      7BB40B73 
 558      C5575EAB 
 558      125B8595 
 558      3794
 559 02b1 4C2FEB15 		.ascii	"L/\353\025Ml\330\266\211\011\221V\027\023\265R\254\026"
 559      4D6CD8B6 
 559      89099156 
 559      1713B552 
 559      AC16
 560 02c3 69931513 		.ascii	"i\223\025\023\325\362\317\211\362]I<Q\325\177\233(\321"
 560      D5F2CF89 
 560      F25D493C 
 560      51D57F9B 
 560      28D1
 561 02d5 E7A498A8 		.ascii	"\347\244\230\250\311\271\211}\"Q\312\231\363\215\036"
 561      C9B9897D 
 561      2251CA99 
 561      F38D1E
 562 02e4 D061C86F 		.ascii	"\320a\310o\241\227\342\237\341\362\3369\257YW\364< "
 562      A197E29F 
 562      E1F2DE39 
 562      AF5957F4 
 562      3C20
 563 02f6 7D18DAC7 		.ascii	"}\030\332\307\371]\304\323\277\225\342|\033\321\016"
 563      F95DC4D3 
 563      BF95E27C 
 563      1BD10E
 564 0305 77B7F6BC 		.ascii	"w\267\366\274\321\232>\334f\264\032G\217\237j8T\337"
 564      D19A3EDC 
 564      66B41A47 
 564      8F9F6A38 
 564      54DF
 565 0317 507F309D 		.ascii	"P\1770\235\356\350Jw^Lwuf\322\231\266\366\326\216Kg"
 565      EEE84A77 
 565      5E4C7775 
 565      66D299B6 
 565      F6D68E4B 
 566 032c BBEA33F0 		.ascii	"\273\3523\360\033A+\251+"
 566      1B412BA9 
ARM GAS  /tmp/ccCDU11I.s 			page 44


 566      2B
 567              		.text
 568              		.section	.gnu.lto_.symbol_nodes.e245fb5f86c065b3,"",%progbits
 569 0000 789C4D91 		.ascii	"x\234M\221\315V\023A\020\205\253\25233a\314\230q\314"
 569      CD561341 
 569      1085ABAA 
 569      333361CC 
 569      9871CC
 570 0013 386680A0 		.ascii	"8f\200\240\222\300s\371$\0253\012\021T\320s|\201d\201"
 570      92C073F9 
 570      2415330A 
 570      1154D073 
 570      7C816481 
 571 0027 CF012B0F 		.ascii	"\317\001+\017\347\260d-\260u\343\017\376\363\323\225"
 571      E7B0642D 
 571      B075E30F 
 571      FEF3D395 
 572 0037 AE63F76C 		.ascii	"\256c\367l\356\334\352{\353\353I\010\010N\015\270\207"
 572      EEDCEA7B 
 572      EBEB4908 
 572      084E0DB8 
 572      87
 573 0048 6E8001F6 		.ascii	"n\200\001\366O\000\230\337O\237\322\030\031\003{\200"
 573      4F0098DF 
 573      4F9FD218 
 573      19037B80 
 574 0058 4C81FD80 		.ascii	"L\201\375\200l\274\215^\220}\203h\213\260\305\206\216"
 574      6CBC8D5E 
 574      907D8368 
 574      8BB0C586 
 574      8E
 575 0069 915B41F6 		.ascii	"\221[A\366#r\024\330/\310\261\332\323)F\327H\322\371"
 575      237214D8 
 575      2FC8B1DA 
 575      D32946D7 
 575      48D2F9
 576 007c 869C04D3 		.ascii	"\206\234\004\323)\031\231~En\373)]\"/\005\241]jI\350"
 576      2919997E 
 576      456EFB29 
 576      5D222F05 
 576      A15D6A49 
 577 0091 3B721A84 		.ascii	";r\032\204~ \337\011Bo(\222\320/\344N0\335\243X\246"
 577      7E20DF09 
 577      426F2892 
 577      D02FE44E 
 577      30DDA358 
 578 00a6 3F91B3A0 		.ascii	"?\221\263\240\372\033\371n\020\332\247DB\177\221\273"
 578      FA1BF96E 
 578      10DAA744 
 578      427F91BB 
 579 00b6 C1F42DB5 		.ascii	"\301\364-\265e\372\0079\017\252\377\220\357\005\241"
 579      65FA0739 
 579      0FAAFF90 
 579      EF05A1
 580 00c5 77B46443 		.ascii	"w\264dC8!.\334t<F|F|\337\273+\344\236w\317\211K\357"
 580      38212EDC 
 580      743C467C 
ARM GAS  /tmp/ccCDU11I.s 			page 45


 580      467CDFBB 
 580      2BE49E77 
 581 00dd 1AE207DE 		.ascii	"\032\342\007\336m\023W\336\335 ?\364\356%q\337\2731"
 581      6D1357DE 
 581      DD203FF4 
 581      EE2571DF 
 581      BB31
 582 00ef 71EDDD6B 		.ascii	"q\355\335k\342e\357^\021\257x\267C\274\372\337\031\373"
 582      E265EF5E 
 582      11AF78B7 
 582      43BCFADF 
 582      19FB
 583 0101 F74D3E5D 		.ascii	"\367M>][]\205\371BW\340H\324<\202f\241knn\0060\337\372"
 583      5B5D85F9 
 583      4257E048 
 583      D43C8266 
 583      A16B6E6E 
 584 0119 BC660CC2 		.ascii	"\274f\014\302\241h\374\330\235'\252\355\001\\,\364\011"
 584      A168FCD8 
 584      9D27AAED 
 584      015C2CF4 
 584      09
 585 012a 34DBF6DC 		.ascii	"4\333\366\334\352\221h\252\347\351\300\355M\327u\276"
 585      EA9168AA 
 585      E7E9C0ED 
 585      4DD775BE 
 586 013a 0ECD8ED5 		.ascii	"\016\315\216\325\0169~'\205\331B\207.\3271p.\232m\272"
 586      0E397E27 
 586      85D94287 
 586      2ED73170 
 586      2E9A6DBA 
 587 014e 7EA6FD6C 		.ascii	"~\246\375l\003\2323\321\021\314\245\237\331\274hW\367"
 587      039A33D1 
 587      11CCA59F 
 587      D9BC6857 
 587      F7
 588 015f 7433B7A7 		.ascii	"t3\267\247k\340P4W~\256\375<\206\211\364\363\004&\362"
 588      6BE05034 
 588      577EAEFD 
 588      3C8689F4 
 588      F30426F2 
 589 0173 1DF9089A 		.ascii	"\035\371\010\232]\253\205r\012\315\025\312)Fn\1771\204"
 589      5DAB8572 
 589      0ACD15CA 
 589      29466E7F 
 589      3184
 590 0185 0BD19E72 		.ascii	"\013\321\236rz\205\343\364\224S*\247\324~\251\234R9"
 590      7A85E3F4 
 590      94532AA7 
 590      D47EA99C 
 590      5239
 591 0197 A5BDAF70 		.ascii	"\245\275\257p*\345T\372{U\0330\227\\5r\373\253\241\273"
 591      2AE554FA 
 591      7B551B30 
 591      975C3572 
 591      FBABA1BB 
 592 01ab 4F5F39FD 		.ascii	"O_9\375\312q\372\312\251\225Sk\277\216a&\375:\201\231"
ARM GAS  /tmp/ccCDU11I.s 			page 46


 592      CA71FACA 
 592      A995536B 
 592      BF8E6126 
 592      FD3A8199 
 593 01bf 706A7B5F 		.ascii	"pj{_\333\207[\250\3233\274"
 593      DB875BA8 
 593      D333BC
 594              		.text
 595              		.section	.gnu.lto_.refs.e245fb5f86c065b3,"",%progbits
 596 0000 789C25C1 		.ascii	"x\234%\301\013\012\200 \000D\301\335\227B\037\224J\322"
 596      0B0A8020 
 596      0044C1DD 
 596      97421F94 
 596      4AD2
 597 0012 A83378FF 		.ascii	"\2503x\377\353\0314\203P\327/N\012\004}\211\236Y\274"
 597      EB193483 
 597      50D72F4E 
 597      0A047D89 
 597      9E59BC
 598 0025 B23991BD 		.ascii	"\2629\221\275s\370\244\370\242\272q\373\341\325\000"
 598      73F8A4F8 
 598      A2BA71FB 
 598      E1D500
 599 0034 20330181 		.ascii	" 3\001\201"
 600              		.text
 601              		.section	.gnu.lto_.decls.e245fb5f86c065b3,"",%progbits
 602 0000 789CBD5C 		.ascii	"x\234\275\\{p\024\307\231\237\231\335\225\264H\026\002"
 602      7B7014C7 
 602      999F99DD 
 602      95B44816 
 602      02
 603 0011 EC04123F 		.ascii	"\354\004\022?\024\227\223\2728\211\001\277\300\225\273"
 603      149793BA 
 603      388901BF 
 603      C095BB
 604 0020 60873B1B 		.ascii	"`\207;\033\252\316\027W\270\324\245\352\352\262\036"
 604      AACE1757 
 604      B8D4A5EA 
 604      EAB21E
 605 002f AD06B4F1 		.ascii	"\255\006\264\361\352\221\335\021\217\373\307\203x\030"
 605      EA91DD11 
 605      8FFBC783 
 605      7818
 606 003d 1B1B8478 		.ascii	"\033\033\204x\006\220\020\317\200#\302\033,#\301\002"
 606      069010CF 
 606      8023C21B 
 606      2C23C102 
 607 004d 46608179 		.ascii	"F`\201yH\030\201d\304\332\006a\014\304\310<\0052\272"
 607      48188164 
 607      C4DA0661 
 607      0CC4C83C 
 607      0532BA
 608 0060 AF7B7A66 		.ascii	"\257{zf{zgfgd\347\266\252{{g\372\373\365\367\352\257"
 608      7B7A6766 
 608      6764E7B6 
 608      AA7B7B67 
 608      FAFBF5F7 
ARM GAS  /tmp/ccCDU11I.s 			page 47


 609 0076 1FD3B302 		.ascii	"\037\323\263\002'p\234\237\343z\340\363\223?p\334\331"
 609      27709C9F 
 609      E37AE0F3 
 609      933F70DC 
 609      D9
 610 0087 3E1C3780 		.ascii	">\0347\200\343\270_q\211\317\303\220\226CZ\003i\035"
 610      E3B85F71 
 610      89CFC390 
 610      96435A03 
 610      691D
 611 0099 A41A481B 		.ascii	"\244\032H\033 \315\3429n\036\244-\220j!\325C:\014\251"
 611      20CDE239 
 611      6E1EA42D 
 611      906A21D5 
 611      433A0CA9 
 612 00ad 09522BA4 		.ascii	"\011R+\2448\244\016H\227 \335\204\324\015\311\013\315"
 612      38A40E48 
 612      9720DD84 
 612      D40DC90B 
 612      CD
 613 00be A541CA80 		.ascii	"\245A\312\200\224\005)\033R\016\244\376\220\276\017"
 613      9405291B 
 613      520EA4FE 
 613      90BE0F
 614 00cd 6910A41F 		.ascii	"i\020\244\037Bz\010\322\243\220\200\035\3561\370\376"
 614      427A08D2 
 614      A390801D 
 614      EE31F8FE 
 615 00dd 1BA46D90 		.ascii	"\033\244m\220vB\332\003\351\000\244FH\037A:\006\251"
 615      7642DA03 
 615      E900A446 
 615      481F413A 
 615      06A9
 616 00ef 59E00C1F 		.ascii	"Y\340\014\037\304\257\017\322iH\331\220\262 \235\204"
 616      C4AF0FD2 
 616      6948D990 
 616      B2209D84 
 617 00ff 3AA7483D 		.ascii	":\247H=\201\324ie\3508\"g*\3325\026\264\353\310\375"
 617      81D46965 
 617      E8382267 
 617      2ADA3516 
 617      B4EBC8FD 
 618 0113 CF215B41 		.ascii	"\317![A\256y\311u\324\036\222\335kB\207t\232\003\251"
 618      AE79C975 
 618      D41E92DD 
 618      6B428774 
 618      9A03A9
 619 0126 916A339D 		.ascii	"\221j3\235\302\331\007\351\347P\3761\244s\220\316C:"
 619      C2D907E9 
 619      E750FE31 
 619      A47390CE 
 619      433A
 620 0138 09D70E41 		.ascii	"\011\327\016A\352\200\362\005dFA\345\373g\360\375$\244"
 620      EA80F205 
 620      644641E5 
 620      FB67F0FD 
 620      24A4
ARM GAS  /tmp/ccCDU11I.s 			page 48


 621 014a 0FA1FCCF 		.ascii	"\017\241\374\317\360\3751\221\007\265\221M\364\216\364"
 621      F0FD3191 
 621      07B5914D 
 621      F48EF4
 622 0159 BF86F08A 		.ascii	"\277\206\360\212t\373\030\303\323\006\322\376&\212\037"
 622      74FB18C3 
 622      D306D2FE 
 622      268A1F
 623 0168 8D973A48 		.ascii	"\215\227:H;!\2019\271\031\274\212\201\352#;\242\362"
 623      3B218139 
 623      B919BC8A 
 623      81EA233B 
 623      A2F2
 624 017a 4CB8F605 		.ascii	"L\270\366\005\203\207|%\003\311o\202\267\311\002\023"
 624      83877C25 
 624      03C96F82 
 624      B7C90213 
 625 018a D1204C74 		.ascii	"\321 Lt\255\2027\342!\277\313&rixU\274\212\261\220W"
 625      AD8237E2 
 625      21BFCB26 
 625      72697855 
 625      BC8AB190 
 626 019f DB417AB9 		.ascii	"\333Az\271H\364\262\210W\333\370\022\312\003\004\365"
 626      48F4B288 
 626      57DBF812 
 626      CA0304F5 
 627 01af 7E255C5B 		.ascii	"~%\\[\005i\005\244jHk!\255\201\344!\370\031\304/\221"
 627      056905A4 
 627      6A486B21 
 627      AD81E421 
 627      F819C42F 
 628 01c4 FD90EFAD 		.ascii	"\375\220\357\255\207k\033 mbxA\376\237C\332\327x\331"
 628      876B1B20 
 628      6D627841 
 628      FE9F43DA 
 628      D778D9
 629 01d7 49ECAEC9 		.ascii	"I\354\256\311\210xB\374\\\262\341G\343i\005\341k-\341"
 629      887842FC 
 629      5CB2E147 
 629      E36905E1 
 629      6B2DE1
 630 01ea 0BF1E4D5 		.ascii	"\013\361\344\325\332!\266\373>\3215\352\017;\030~jy"
 630      DA21B6FB 
 630      3ED135EA 
 630      0F3B187E 
 630      6A79
 631 01fc 63DB97E1 		.ascii	"c\333\227\341{+\251\343#\367\327\021<\324\337j\210\336"
 631      7B2BA9E3 
 631      23F7D711 
 631      3CD4DF6A 
 631      88DE
 632 020e 773238A8 		.ascii	"w28\250?\367'\262\320:\036\302'\313u\205\310\205dB\262"
 632      3FF727B2 
 632      D03A1EC2 
 632      27CB7585 
 632      C8856442 
 633 0223 FD1DCA0F 		.ascii	"\375\035\312\017\023\271\276\202\357\331\274\332\366"
ARM GAS  /tmp/ccCDU11I.s 			page 49


 633      13B9BE82 
 633      EFD9BCDA 
 633      F6
 634 0230 5A4ADF95 		.ascii	"ZJ\337\225D\2664\322\326\243D\266\207H\014\030D\374"
 634      44B634D2 
 634      D6A344B6 
 634      87480C18 
 634      44FC
 635 0242 19F5F706 		.ascii	"\031\365\367\006\270\377!\244\003\220\2562\276\205b"
 635      B8FF21A4 
 635      0390AE32 
 635      BE8562
 636 0251 0EF2D521 		.ascii	"\016\362\325!|\262ou\302\367.\"\227\227\324]G\332\253"
 636      7CB26F75 
 636      C2F72E22 
 636      9797D45D 
 636      47DAAB
 637 0264 21D78E40 		.ascii	"!\327\216@\371(\244c\220\276f\260\233Lt\220F\332\252"
 637      F928A463 
 637      90BE66B0 
 637      9B4C7490 
 637      46DAAA
 638 0277 72A0876B 		.ascii	"r\240\207kP\336\350P\007M\224}\265\370\372C\342\177"
 638      50DEE850 
 638      074D947D 
 638      B5F8FA43 
 638      E27F
 639 0289 28DEB5C0 		.ascii	"(\336\265\300\357S\220\2563<\266\272\260\323E\027vZ"
 639      EF5390AE 
 639      333CB6BA 
 639      B0D34517 
 639      765A
 640 029b 45F8ABA6 		.ascii	"E\370\253\246xl\265\261\023\212\307\237\300\375vHg "
 640      786CB5B1 
 640      138AC79F 
 640      C0FD7648 
 640      6720
 641 02ad DD60F88C 		.ascii	"\335`\370\214\273\260S\234\330\251\225\262\323gH\036"
 641      BBB0539C 
 641      D8A995B2 
 641      D367481E 
 642 02bd 48E7D078 		.ascii	"H\347\320x\302`w\270\264\023\253\007+;\231\351\240\303"
 642      C26077B8 
 642      B413AB07 
 642      2B3B99E9 
 642      A0C3
 643 02cf C64E683C 		.ascii	"\306Nh<\372\002~_\204t\213\341\361\222\205\2354>\255"
 643      FA027E5F 
 643      84748BE1 
 643      F192859D 
 643      343EAD
 644 02e2 62056B2B 		.ascii	"b\005k+\232\3075\204G\315\227\326\022\274K6vB\343e'"
 644      9AC73584 
 644      47CD97D6 
 644      12BC4B36 
 644      7642E365 
 645 02f7 F275E44B 		.ascii	"\362u\344K\220n3|\336\264\261S\027|_\246\354t\223\330"
ARM GAS  /tmp/ccCDU11I.s 			page 50


 645      906E337C 
 645      DEB4B153 
 645      177C5FA6 
 645      EC7493D8 
 646 030b E91265A7 		.ascii	"\351\022e\247\333P\356\202t\007%\006\273\333\245\235"
 646      DB50EE82 
 646      74072506 
 646      BBDBA59D 
 647 031b 581D98D9 		.ascii	"X\035\230\331\311J\007\3356vB\363\005\036\305PHw\031"
 647      C94A07DD 
 647      367642F3 
 647      051EC550 
 647      487719
 648 032e 1E1FE1AA 		.ascii	"\036\037\341\252\224\330\261\370\264\216\317\205?+\261"
 648      94D8B1F8 
 648      B48ECF85 
 648      3F2BB1
 649 033d A90A4C8D 		.ascii	"\251\012L\215\024>\367{\334|\005>\325\323\025\205\227"
 649      143EF77B 
 649      DC7C053E 
 649      D5D31585 
 649      97
 650 034e 45FE570F 		.ascii	"E\376W\017p\277\347E>\333\317\345\342B\226\037\343r"
 650      70BFE745 
 650      3EDBCFE5 
 650      E242961F 
 650      E372
 651 0360 9CC8AFE0 		.ascii	"\234\310\257\340\277GJ\277\363\250\210\0027\214\347"
 651      BF474ABF 
 651      F3A88802 
 651      378CE7
 652 036f 1EE7D601 		.ascii	"\036\347\326\001}\271\242\254x\224\011\264\344\363\023"
 652      7DB9A2AC 
 652      789409B4 
 652      E4F313
 653 037e 6E356A41 		.ascii	"n5jAY\253x0>BX\316?BW\021\371\225\274\201[\225\327X"
 653      59AB7830 
 653      3E4258CE 
 653      3F425711 
 653      F995BC81 
 654 0396 F9D9ACF2 		.ascii	"\371\331\254\362\311\361\236\236e\3259j\373\0027\212"
 654      C9F19E9E 
 654      65D5396A 
 654      FB02378A 
 655 03a6 87DAABF8 		.ascii	"\207\332\253\370\307m\341\327\260\360\1771\203\217\237"
 655      C76DE1D7 
 655      B0F07F31 
 655      838F9F
 656 03b5 9A7EC647 		.ascii	"\232~\306G\251Bk\342u'M\254c\233x\327T\202\245-I\022"
 656      A9426BE2 
 656      75274DAC 
 656      639B78D7 
 656      5482A52D 
 657 03cb BCC93BC1 		.ascii	"\274\311;\301\257a\361\327\233\212\320\326x\262\211"
 657      AF61F1D7 
 657      9B8AD0D6 
 657      78B289
ARM GAS  /tmp/ccCDU11I.s 			page 51


 658 03da AF98A21C 		.ascii	"\257\230\242\034T\256\366\364\364-\3170\230\323\317"
 658      54AEF6F4 
 658      F42DCF30 
 658      98D3CF
 659 03e9 CD203F46 		.ascii	"\315 ?F\035\004\25743\354\217\271U`\274\370\234#\015"
 659      1D04AF34 
 659      33EC8FB9 
 659      5560BCF8 
 659      9C230D
 660 03fc C7F92940 		.ascii	"\307\371)@#\362\233x?0\251\010F&\235CU6}\260\211/\303"
 660      23F29B78 
 660      3F30A908 
 660      46269D43 
 660      55367DB0 
 661 0413 505B31D4 		.ascii	"P[1\324\252^C\3256\357\030\256(\031\"\277\003\003\265"
 661      AA5E43D5 
 661      36EF18AE 
 661      281922BF 
 661      0303B5
 662 0426 3240229F 		.ascii	"2@\"\237\3467\352\010~k\025\020\032\374D-\335F\253\000"
 662      E637EA08 
 662      7E6B1510 
 662      1AFC442D 
 662      DD46AB00 
 663 043a FE757205 		.ascii	"\376ur\005\375H\347\376\337\351\254z\325F\322\253<x"
 663      FD48E7FE 
 663      DFE9AC7A 
 663      D546D2AB 
 663      3C78
 664 044c DEC36572 		.ascii	"\336\303ero)J\031QN\177n\016\302\313\245\324\364\252"
 664      6F294A19 
 664      514E7F6E 
 664      0EC2CBA5 
 664      D4F4AA
 665 045f 469F9550 		.ascii	"F\237\225PS\333[u\036\254\246:\276?\240\234c\324\224"
 665      53DB5B75 
 665      1EACA63A 
 665      BE3FA09C 
 665      63D494
 666 0472 0A458099 		.ascii	"\012E\200\231\007\242\330\015\324*\035\306Ub\247\227"
 666      07A2D80D 
 666      D42A1DC6 
 666      5562A797 
 667 0482 A33E812E 		.ascii	"\243>\201.s\214\303R\237\037q\325\250n\333y\277R\221"
 667      738CC352 
 667      9F1F71D5 
 667      A86EDB79 
 667      BF5291
 668 0495 65D2D4F3 		.ascii	"e\322\324\363ZS\031\011\206\357.<1\207\237\212]d\037"
 668      5A531909 
 668      86EF2E3C 
 668      31879F8A 
 668      5D641F
 669 04a8 6679BDC7 		.ascii	"fy\275\307\224\345\352\347\255\200\004\256\036\2234"
 669      94E5EAE7 
 669      AD8004AE 
 669      1E9334
ARM GAS  /tmp/ccCDU11I.s 			page 52


 670 04b7 303CC7EB 		.ascii	"0<\307\353\333o\225\361\2231t\203\003\306\313b\2353"
 670      DB6F95F1 
 670      93317483 
 670      03C6CB62 
 670      9D33
 671 04c9 2B0729D5 		.ascii	"+\007)\325{yS\305\317@\3432i_I\323\030x5!\311\235\226"
 671      7B7953C5 
 671      CF40E332 
 671      695F49D3 
 671      18783521 
 672 04e0 118A57E4 		.ascii	"\021\212W\344\017a)\356\230Ka\203\"pS\274\210\346H\222"
 672      0F6129EE 
 672      984B6183 
 672      227053BC 
 672      88E64892 
 673 04f4 1855FBA7 		.ascii	"\030U\373\247\0201\2168\022c\341,U\014\221o\004Q\004"
 673      10318E38 
 673      1263E12C 
 673      550C916F 
 673      045104
 674 0507 EE1D1DD7 		.ascii	"\356\035\035\327\314\361HQ\375\220\012F\274\305G\262"
 674      CCF14851 
 674      FD900A46 
 674      BCC547B2 
 675 0517 CA450D6C 		.ascii	"\312E\015l\236k\260\\\003\330\262#K1s\270\347\2279\212"
 675      9E6BB05C 
 675      03D8B223 
 675      4B3173B8 
 675      E797398A 
 676 052b 47B33ED0 		.ascii	"G\263>\320\342\321I\334\367\227xM\202\210#\250\312\212"
 676      E2D149DC 
 676      F797784D 
 676      828823A8 
 676      CA8A
 677 053d FD7B483C 		.ascii	"\375{H<:\215\241V\366\032\252vn\335s\270\243}\202\201"
 677      3A8DA156 
 677      F61AAA76 
 677      6EDD73B8 
 677      A37D8281 
 678 0551 6ABC6C3C 		.ascii	"j\274l<Jg\342Q\2721>\340\333\244\200\302B_\356\037\\"
 678      4A67E251 
 678      BA313EE0 
 678      DBA480C2 
 678      425FEE1F 
 679 0566 5DE07638 		.ascii	"]\340v81]\206\225\037(\361\272\252\303\0364Dz\264.\231"
 679      315D8695 
 679      1F28F1BA 
 679      AAC31E34 
 679      447AB42E 
 680 057b 66A52381 		.ascii	"f\245#\201\333\205\333\372\224\365\345\312\216\203?"
 680      DB85DBFA 
 680      94F5E5CA 
 680      8E833F
 681 058a 5DA42839 		.ascii	"]\244(9\352\255\324\256\274\255q\241u\217\244Z\257\026"
 681      EAADD4AE 
 681      BCAD71A1 
 681      758FA45A 
ARM GAS  /tmp/ccCDU11I.s 			page 53


 681      AF16
 682 059c B4E61FC3 		.ascii	"\264\346\037\303\315\337\302\315w\260\315\257\356\331"
 682      CDDFC2CD 
 682      77B0CDAF 
 682      EED9
 683 05aa C363A375 		.ascii	"\303c\243u8j\375x\323\274\344\326-\347E\232\217u|\361"
 683      386AFD78 
 683      D3BCE4D6 
 683      2DE7459A 
 683      8F757CF1 
 684 05be E0322CE2 		.ascii	"\3402,\342\227\270\303L\361\261\2361\"\323h;\370MU\020"
 684      97B8C34C 
 684      F1B19E31 
 684      22D3683B 
 684      F84D5510 
 685 05d2 B8B77D1A 		.ascii	"\270\267}\032\363\275\352\257\361\325\3576\342Y\235"
 685      F3BDEAAF 
 685      F1D5EF36 
 685      E2599D
 686 05e1 476361B6 		.ascii	"Gca\266k\300\\\203\036N4\341\000\240\202U8\001\263\364"
 686      6BC05C83 
 686      1E4E34E1 
 686      00A08255 
 686      3801B3F4 
 687 05f5 A2B2D849 		.ascii	"\242\262\330I\032l\276k0#g\247h\260EN\300r\2549k\245"
 687      1A6CBE6B 
 687      302367A7 
 687      68B0454E 
 687      C072AC39 
 688 060b C196B806 		.ascii	"\301\226\270\0063r\366\011\015V\345\004l\2405g\3554"
 688      3372F609 
 688      0D56E504 
 688      6CA03567 
 688      ED34
 689 061d D80AD760 		.ascii	"\330\012\327`F\316\256\322`k\234\200\345\232p\246\177"
 689      46CEAED2 
 689      606B9C80 
 689      E59A70A6 
 689      7F
 690 062e AC2633E7 		.ascii	"\254&3\347y\335\315\005n\235O\013\007.]\232K`\254\367"
 690      79DDCD05 
 690      6E9D4F0B 
 690      072E5D9A 
 690      4B60ACF7 
 691 0642 B90D5F06 		.ascii	"\271\015_\006\271a\034\375h%?\027\246\307C\264\261l"
 691      B9611CFD 
 691      68253F17 
 691      A6C743B4 
 691      B16C
 692 0654 8B13441B 		.ascii	"\213\023D\033\207\331N\017\214;]\203\031\315r\002\201"
 692      87D94E0F 
 692      8C3B5D83 
 692      19CD7202 
 692      81
 693 0665 19220D19 		.ascii	"\031\"\015\031\214\342\253c\003\027%B]\206\206\205V"
 693      8CE2AB63 
 693      03172542 
ARM GAS  /tmp/ccCDU11I.s 			page 54


 693      5D868685 
 693      56
 694 0676 586A5C83 		.ascii	"Xj\\\203\005\227\240WV\006\0164\257+\362o\010?\206|"
 694      0597A057 
 694      56060E34 
 694      AF2BF26F 
 694      083F867C 
 695 068a 86E0D7B9 		.ascii	"\206\340\327\271P\313Z\251\207Gz\336\3473_\273\245$"
 695      50CB5AA9 
 695      87477ADE 
 695      E7335FBB 
 695      A524
 696 069c B5F28469 		.ascii	"\265\362\204i\002\345\011\007\235\250\311\246+\\\265"
 696      02E50907 
 696      9DA8C9A6 
 696      2B5CB5
 697 06ab 52536CBA 		.ascii	"RSl\2722\203\237\274\351A\333\331&\004\347\207\336\305"
 697      32839FBC 
 697      E941DBD9 
 697      2604E787 
 697      DEC5
 698 06bd C1F91D01 		.ascii	"\301\371\035\001\015\333G}\246\343\2773\254\212\243"
 698      0DDB477D 
 698      A6E3BF33 
 698      AC8AA3
 699 06cc DA64A21C 		.ascii	"\332d\242\034\203\265\366\036\254\272\266\371A4y\234"
 699      83B5F61E 
 699      ACBAB6F9 
 699      4134799C 
 700 06dc 8B813E4F 		.ascii	"\213\201>O\0322\374\314d\302o\034\356\375\376D\241G"
 700      1A32FCCC 
 700      64C26F1C 
 700      EEFDFE44 
 700      A147
 701 06ee FB18ADF8 		.ascii	"\373\030\255\370\017\245\261\262\374\333\264\345\377"
 701      0FA5B1B2 
 701      FCDBB4E5 
 701      FF
 702 06fb EEDAF286 		.ascii	"\356\332\362\206\016\022\257ko\367,Tb\223=\224\253\333"
 702      0E12AF6B 
 702      6FF72C54 
 702      62933D94 
 702      ABDB
 703 070d F60BB494 		.ascii	"\366\013\264\224\335\365/x\274_\204\365\332en \007@"
 703      DDF52F78 
 703      BC5F84F5 
 703      DA656E20 
 703      0740
 704 071f 9515EB7F 		.ascii	"\225\025\353\177\206\201\226`\240\262\264\336\002\325"
 704      86819660 
 704      A0B2B4DE 
 704      02D5
 705 072d CEAD5297 		.ascii	"\316\255R\227\261U\030\350\2554\326\322<ci\336h\001"
 705      B15518E8 
 705      AD34D6D2 
 705      3C6369DE 
 705      6801
ARM GAS  /tmp/ccCDU11I.s 			page 55


 706 073f DE9F2824 		.ascii	"\336\237($Y\353;\254\013\023\3754\306\\\006qlF\006-"
 706      59EB3BAC 
 706      0B13FD34 
 706      C65C0671 
 706      6C46062D 
 707 0753 DCB69F9B 		.ascii	"\334\266\237\233\313_+S\026\015qa\257Y\304^+\261v\226"
 707      CB5F2B53 
 707      160D7161 
 707      AF59C45E 
 707      2BB17696 
 708 0767 26696789 		.ascii	"&ig\211\340N=\002\267\312\265\030\031F1\252.\364B\214"
 708      E04E3D02 
 708      B7CAB518 
 708      194631AA 
 708      2EF4428C 
 709 077b DDAA186B 		.ascii	"\335\252\030k\261\0305\337\201\030[]\213\221C\211\201"
 709      B11835DF 
 709      81185B5D 
 709      8B914389 
 709      81
 710 078c D6C2D7E7 		.ascii	"\326\302\327\347\251\203\337\000\256\302~\362\2167\230"
 710      A983DF00 
 710      AEC27EF2 
 710      8E3798
 711 079b 8401C6F5 		.ascii	"\204\001\306\365\377\215\243h\375\217.\247^\377\317"
 711      FF8DA368 
 711      FD8F2EA7 
 711      5EFFCF
 712 07aa 6DA29678 		.ascii	"m\242\226x\016\267\234\364%\336F\254\262\235I*\333\312"
 712      0EB79CF4 
 712      25DE46AC 
 712      B29D492A 
 712      DBCA
 713 07bc 760C17FB 		.ascii	"v\014\027\373-\002\267\007\343!\366{3\245Fk\360\303"
 713      2D02B707 
 713      E321F67B 
 713      33A5466B 
 713      F0C3
 714 07ce F3B4     		.ascii	"\363\264"
 715 07d0 B983CAE1 		.ascii	"\271\203\312\341\301o\205X\026\333]\241-\322G\240\331"
 715      C16F8558 
 715      16DB5DA1 
 715      2DD247A0 
 715      D9
 716 07e1 C3F16F09 		.ascii	"\303\361o\011\207\247\233\206a\221Y\264\034\262\210"
 716      87A79B86 
 716      619159B4 
 716      1CB288
 717 07f0 BBFA364C 		.ascii	"\273\3726L\2036\230\275/ \206N%Y\240\221g\326-\350\002"
 717      833698BD 
 717      2F20864E 
 717      2559A091 
 717      67D62DE8 
 718 0805 55C5CA97 		.ascii	"U\305\312\227j\351A\340\322\267\223\023\014qv\225j\010"
 718      6AE941E0 
 718      D2B79313 
 718      0C717695 
ARM GAS  /tmp/ccCDU11I.s 			page 56


 718      6A08
 719 0817 46BEDD16 		.ascii	"F\276\335\026\362!\016v\323\034t~KMW5\263\2326Y\217"
 719      F2210E76 
 719      D31C747E 
 719      4B4D5735 
 719      B39A3659 
 720 082c 2A3C3DE3 		.ascii	"*<=\343\023\270\333\270\321}\002\263\036\235{\347\340"
 720      13B8DBB8 
 720      D17D02B3 
 720      1E9D7BE7 
 720      E0
 721 083d 1B646B07 		.ascii	"\033dk\007\335K\335\265n\340\2555m\253\254&]C5\233Y"
 721      DD4BDDB5 
 721      6EE0AD35 
 721      6DABAC26 
 721      5D43359B 
 722 0852 A416A5EB 		.ascii	"\244\026\245\353\342\207<\206Sg\260[Y8\227+\273n\211"
 722      E2873C86 
 722      5367B05B 
 722      5938972B 
 722      BB6E89
 723 0865 B14A4AC5 		.ascii	"\261JJ\305\250\316\027;}\036\005\227\303\002\222\251"
 723      A8CE173B 
 723      7D1E0597 
 723      C30292A9 
 724 0875 2E9DF53B 		.ascii	".\235\365;U3\224\337%\324(\362\373\361\224\266A\370"
 724      553394DF 
 724      25D428F2 
 724      FBF194B6 
 724      41F8
 725 0887 11E40771 		.ascii	"\021\344\007q\336\010\271\376\261\362\210C\264G|\340"
 725      DE08B9FE 
 725      B1F28843 
 725      B4477CE0 
 726 0897 5AEE5CC6 		.ascii	"Z\356\\\306:V\315\354\245\2339\224\376\355\\\277\256"
 726      3A56CDEC 
 726      A59B3994 
 726      FEED5CBF 
 726      AE
 727 08a8 FD2B2F5E 		.ascii	"\375+/^\326\273\330:;\262_\213\253M8j5%i\3674\033W\235"
 727      D6BBD83A 
 727      3BB25F8B 
 727      AB4D386A 
 727      352569F7 
 728 08c0 EC24B5F7 		.ascii	"\354$\265\367V\024\375#p\347\323\035L\007sM\264\256"
 728      5614FD23 
 728      70E7D31D 
 728      4C07734D 
 728      B4AE
 729 08d2 87E45B24 		.ascii	"\207\344[$$\247\334\216\322b\\\313\341\311d\253\371"
 729      24A7DC8E 
 729      D2625CCB 
 729      E1C964AB 
 729      F9
 730 08e3 14F6B58B 		.ascii	"\024\366\265\213\2146\034\354k\335\306$mlG\256\257\272"
 730      8C361CEC 
 730      6BDDC624 
ARM GAS  /tmp/ccCDU11I.s 			page 57


 730      6D6C47AE 
 730      AFBA
 731 08f5 AE6D35B7 		.ascii	"\256m5\2679\350\310e\261\346\231\364\036-\230\207\027"
 731      39E8C865 
 731      B1E699F4 
 731      1E2D9887 
 731      17
 732 0906 086E6F35 		.ascii	"\010no5j0b\033\325E\316\340.\322Nw\013\201\233\221\341"
 732      6A30621B 
 732      D545CEE0 
 732      2ED24E77 
 732      0B819B91 
 733 091b 40FBFF64 		.ascii	"@\373\377d\345\214J\254\253y)\257\362\257\206\242\012"
 733      E58C4AAC 
 733      AB7929AF 
 733      F2AF86A2 
 733      0A
 734 092c 16CF2C14 		.ascii	"\026\317,\024\031\360\014\326\214\225\237\304Kiul\255"
 734      19F00CD6 
 734      8C959FC4 
 734      4B69756C 
 734      AD
 735 093d 74C2DC10 		.ascii	"t\302\334\020+\260\262\330R\025Lu\371\225N\300\206["
 735      2BB0B2D8 
 735      52154C75 
 735      F9954EC0 
 735      865B
 736 094f 495A16DB 		.ascii	"IZ\026\333\271@\263\324^<0\376\3155\236\221\271\346"
 736      B940B3D4 
 736      5E3C30FE 
 736      CD359E91 
 736      B9E6
 737 0961 934B099E 		.ascii	"\223K\011\236\272\233\375\236\023\274\347\255\371\353"
 737      BA9BFD9E 
 737      13BCE7AD 
 737      F9EB
 738 096f 5C609848 		.ascii	"\\`\230H\354s\015g4\3047'\221a\337\036h\366\300\"\246"
 738      EC730D67 
 738      34C43727 
 738      9161DF1E 
 738      68F6C022 
 739 0984 076FB44C 		.ascii	"\007o\264L#\275j\307\232\316Aj\210\271\202;\325\215"
 739      23BD6AC7 
 739      9ACE416A 
 739      88B9823B 
 739      D58D
 740 0996 8CD44F3E 		.ascii	"\214\324O>\214@\310a\2572=*\266\251!\013-\210\257:\352"
 740      8C40C861 
 740      AF323D2A 
 740      B6A9210B 
 740      2D88AF3A 
 741 09ab 4D5B1A5C 		.ascii	"M[\032\\?T8R\247N\321\257a'\231\341\377N\342b9\206\271"
 741      3F543852 
 741      A74ED1AF 
 741      612799E1 
 741      FF4EE262 
 742 09c2 EABE1793 		.ascii	"\352\276\027\223\020\277c\315\361A\265\233\025\345\315"
ARM GAS  /tmp/ccCDU11I.s 			page 58


 742      10BF63CD 
 742      F141B59B 
 742      15E5CD
 743 09d1 348DB1F9 		.ascii	"4\215\261\371\256\021\215\336\266\275\001w\005\025l"
 743      AE118DDE 
 743      B6BD0177 
 743      05156C
 744 09e0 8913309B 		.ascii	"\211\0230\233\001\376=\004\346\346\301\315\001m\364"
 744      01FE3D04 
 744      E6E6C1CD 
 744      016DF4
 745 09ef E9C6ED57 		.ascii	"\351\306\355W\1777Z\376\213k1\014:\001-_\034T\273UQ"
 745      7F375AFE 
 745      8B6B310C 
 745      3A012D5F 
 745      1C54BB55 
 746 0a04 36BDEA66 		.ascii	"6\275\352f\273g\316\254z\325c\320\006\204\300\255K\222"
 746      BB67CEAC 
 746      7AD563D0 
 746      0684C0AD 
 746      4B92
 747 0a16 A59C5DD4 		.ascii	"\245\234]\3249\334<\021\270\315\254@f\301\323l\037\322"
 747      39DC3C11 
 747      B8CDAC40 
 747      66C1D36C 
 747      1FD2
 748 0a28 EC43F725 		.ascii	"\354C\367%\221\357\304\301\377k<3\272\205\363.\234\337"
 748      91EFC4C1 
 748      FF6B3C33 
 748      BA85F32E 
 748      9CDF
 749 0a3a C5B9E231 		.ascii	"\305\271\3421\014\012\365~&v\030\373))\216r\314H\342"
 749      0C0AF57E 
 749      267618FB 
 749      29298E72 
 749      CC48E2
 750 0a4d 51A6C81F 		.ascii	"Q\246\310\037\343\021#\307y\324l3\316?\306y\034\347"
 750      E31123C7 
 750      79D46C33 
 750      CE3FC679 
 750      1CE7
 751 0a5f 0A66A70C 		.ascii	"\012f\247\014\347Sq>\023\347\013q\276\002\347\177\301"
 751      E753713E 
 751      13E70B71 
 751      BE02E77F 
 751      C1
 752 0a70 790DCE5B 		.ascii	"y\015\316[p\036\307\371g8?\207\363\016\234\177\201\363"
 752      701EC7F9 
 752      67383F87 
 752      F30E9C7F 
 752      81F3
 753 0a82 2F717ED9 		.ascii	"/q~\331\311t\220Y\311h\303qC\257\037\301\324\267w\257"
 753      C9749059 
 753      C968C371 
 753      43AF1FC1 
 753      D4B777AF 
 754 0a96 A0F79A45 		.ascii	"\240\367\232E\376\204k\304\\;\3256P\252=\210U\373!V"
ARM GAS  /tmp/ccCDU11I.s 			page 59


 754      FE846BC4 
 754      5C3BD536 
 754      50AA3D88 
 754      55FB2156 
 755 0aaa E474A345 		.ascii	"\344t\243E\367\373\265\247\371\275Y!(\361\266\306\035"
 755      F7FBB5A7 
 755      F9BD5921 
 755      28F1B6C6 
 755      1D
 756 0abb CF914749 		.ascii	"\317\221GI\352Y\220\217X@\247!\304\\\214\335\224\030"
 756      EA59908F 
 756      5840A721 
 756      C45C8CDD 
 756      9418
 757 0acd 7BB0187B 		.ascii	"{\260\030{\261\0303<\016\254\2663\261 M\234C\302b73"
 757      B118333C 
 757      0EACB633 
 757      B1204D9C 
 757      43C26237 
 758 0ae2 9DF3316E 		.ascii	"\235\3631n\245\242T\304\332\032\267\3010!\250\224\002"
 758      A5A254C4 
 758      DA1AB7C1 
 758      3021A894 
 758      02
 759 0af3 770ED7DA 		.ascii	"w\016\327\332\300?b\332\202\216ON\344\264\235{e\224"
 759      C03F62DA 
 759      828E4F4E 
 759      E4B49D7B 
 759      6594
 760 0b05 AA05CE86 		.ascii	"\252\005\316\206\212p\363\226\307\354\000\320\2317\026"
 760      8A70F396 
 760      C7EC00D0 
 760      993716
 761 0b14 40FB65B1 		.ascii	"@\373e\261\236\236\335\261\\\316\371i\253\331\036\303"
 761      9E9EDDB1 
 761      5CCEF969 
 761      ABD91EC3 
 762 0b24 B9109533 		.ascii	"\271\020\2253F\344\013\246\"+\307\245QZ\365\267=\310"
 762      46E40BA6 
 762      222BC7A5 
 762      515AF5B7 
 762      3DC8
 763 0b36 0367799C 		.ascii	"\003gy\234\211{Zye\240~\000\011\021\031\3546'Y\276\352"
 763      897B5A79 
 763      65A07E00 
 763      091119EC 
 763      362759BE 
 764 0b4b 58FCCC86 		.ascii	"X\374\314\206\316\037,\320\316\037\3458\227o\276\307"
 764      CE1F2CD0 
 764      CE1FE538 
 764      976FBEC7 
 765 0b5b D5B99798 		.ascii	"\325\271\227\230\376\260\027M(\265\360\274\345\364@"
 765      FEB0174D 
 765      28B5F0BC 
 765      E5F440
 766 0b6a 75AC59E4 		.ascii	"u\254Y\344A\323\220#}R\236|1\342\340}9\0173\013\351"
 766      41D39023 
ARM GAS  /tmp/ccCDU11I.s 			page 60


 766      7D529E7C 
 766      31E2E07D 
 766      390F330B 
 767 0b7f 9472D5AB 		.ascii	"\224r\325\253\251\347 \327\324\3054\263-\201&\264Vb"
 767      A9E720D7 
 767      D4C534B3 
 767      2D8126B4 
 767      5662
 768 0b91 5779A8D5 		.ascii	"Wy\250\325\341)\314/j\252W\021'vSB\261\006A\012\334"
 768      E129CC2F 
 768      6AAA5711 
 768      27765342 
 768      B106410A 
 769 0ba6 67AEB172 		.ascii	"g\256\261r\015Xw(\254\213N\260Rl\012hX_\273\306\242"
 769      0D587728 
 769      AC8B4EB0 
 769      526C0A68 
 769      585FBBC6 
 770 0bbb F952623D 		.ascii	"\371Rb=d\367C=\333t\227E{U\203\310J\240Y>\275Sb\025"
 770      64F7433D 
 770      DB749745 
 770      7B5583C8 
 770      4AA0593E 
 771 0bd3 2FA29991 		.ascii	"/\242\231\221\2125=\323\001\226\331\263\011\263\017"
 771      8A353DD3 
 771      0196D9B3 
 771      09B30F
 772 0be2 ED4722BF 		.ascii	"\355G\"\277\324\203\302Z\245\007\205\265j\234\257\300"
 772      D483C25A 
 772      A50785B5 
 772      6A9CAFC0 
 773 0bf2 F92A9CAF 		.ascii	"\371*\234\257\301\371Z'\341na\302]\364@@\\H\377\255"
 773      C1F95A27 
 773      E16E61C2 
 773      5DF44040 
 773      5C48FFAD 
 774 0c06 86273636 		.ascii	"\206'66Td\232\305\006\334]\017\302l\323\257b\013\334"
 774      54649AC5 
 774      06DC5D0F 
 774      C26CD3AF 
 774      620BDC
 775 0c19 725C6F9E 		.ascii	"r\\o\236e\204\300\034\220\300R\213\002\213j\326\325"
 775      6584C01C 
 775      90C0528B 
 775      028B6AD6 
 775      D5
 776 0c2a 29C8AA74 		.ascii	")\310\252t\262r\345\254D\202\250\310\367\010\202-\031"
 776      B272E5AC 
 776      4482A8C8 
 776      F708822D 
 776      19
 777 0c3b 9185C4A3 		.ascii	"\221\205\304\243w\224i9\274\036\220\346\261\001\251"
 777      77946939 
 777      BC1E90E6 
 777      B101A9
 778 0c4a 263920C5 		.ascii	"&9 \305\217\305n\037 '.]\034m\335\312\006[$5\243\320"
 778      8FC56E1F 
ARM GAS  /tmp/ccCDU11I.s 			page 61


 778      20272E5D 
 778      1C6DDDCA 
 778      065B2435 
 779 0c60 75A60A55 		.ascii	"u\246\012U\272\362Gi\325\377\206\203\355\026{UZ\010"
 779      BAF24769 
 779      D5FF8683 
 779      ED167B55 
 779      5A08
 780 0c72 B785156E 		.ascii	"\267\205\025n\273Y\264\215m\327\205S\231\026\270\255"
 780      BB59B48D 
 780      6DD78553 
 780      9916B8AD 
 781 0c82 E66CDD62 		.ascii	"\346l\335b\331\252\355\025[\265,[\357\233\352\374\354"
 781      D9AAED15 
 781      5BB52C5B 
 781      EF9BEAFC 
 781      EC
 782 0c93 A1431007 		.ascii	"\241C\020\007\225\356\236\236)^v\214\263\213\206\273"
 782      95EE9E9E 
 782      295E768C 
 782      B38B86BB 
 783 0ca3 CCF4AEFF 		.ascii	"\314\364\256\377\330\250N\256\311o\347k\220\273-\333"
 783      D8A84EAE 
 783      C96FE76B 
 783      90BB2DDB 
 784 0cb3 1EC7B3F6 		.ascii	"\036\307\263\366\275x\326\276\213\321P\257V \\R\007"
 784      BD78D6BE 
 784      8BD150AF 
 784      56205C52 
 784      07
 785 0cc4 3B68D5C1 		.ascii	";h\325\301\272\236\250Kt0M\375\365\016:X\271\262\014"
 785      BA9EA84B 
 785      74304DFD 
 785      F50E3A58 
 785      B9B20C
 786 0cd7 F514753F 		.ascii	"\365\024u?\244\011\303[\223a\345\020c\237Ad\252\260"
 786      A409C35B 
 786      9361E510 
 786      639F4164 
 786      AAB0
 787 0ce9 275390A1 		.ascii	"'S\220\241Z\011co\230>-\307\253)\332\232\214\210\277"
 787      5A09636F 
 787      983E2DC7 
 787      AB29DA9A 
 787      8C88BF
 788 0cfc DFD425AF 		.ascii	"\337\324%\2577&\\r\027v\311v\207.y\330\221N*5\235\300"
 788      37265C72 
 788      1776C976 
 788      872E79D8 
 788      914E2A35 
 789 0d12 A4370519 		.ascii	"\2447\005\031\255\2236M'0\031OAf\253\023+2\242\223\217"
 789      AD93364D 
 789      2730194F 
 789      4166AB13 
 789      2B32A293 
 790 0d27 4C75820E 		.ascii	"Lu\202\016,\230\306 \273\316\320\354\2443\2603@\207"
 790      2C98C620 
ARM GAS  /tmp/ccCDU11I.s 			page 62


 790      BBCED0EC 
 790      A433B033 
 790      4087
 791 0d39 41A9C99D 		.ascii	"A\251\311\235\373i\252\266&#\354\230\353\314\212\214"
 791      FB69AAB6 
 791      2623EC98 
 791      EBCC8A8C 
 792 0d49 087AD234 		.ascii	"\010z\3224\206\334lb\375\250\323\\\270\271\022#\\\253"
 792      86DC6C62 
 792      FDA8D35C 
 792      B8B91223 
 792      5CAB
 793 0d5b 23E16A59 		.ascii	"#\341jY\341\254\311h?\272\305\372\2215\231\255\037Y"
 793      E1ACC968 
 793      3FBAC5FA 
 793      913599AD 
 793      1F59
 794 0d6d 91119DB4 		.ascii	"\221\021\235\264\231\372Q\367QV'J\226\251N\346\260:"
 794      99FA51F7 
 794      5156274A 
 794      96A94EE6 
 794      B03A
 795 0d7f 893BD2C9 		.ascii	"\211;\322\311\016V'\326d\264Nn\260:\261&\263\325\211"
 795      0E5627D6 
 795      64B44E6E 
 795      B03AB126 
 795      B3D589
 796 0d92 1519D1C9 		.ascii	"\025\031\321\311\247\246:\271\335\234\320I3\326\311"
 796      A7A63AB9 
 796      DD9CD049 
 796      33D6C9
 797 0da1 2C739D24 		.ascii	",s\235$\371IG\357\374\304\232\314\266\023X\221\021\341"
 797      F94947EF 
 797      FCC49ACC 
 797      B6135891 
 797      11E1
 798 0db3 2E987682 		.ascii	".\230v\202\356\226^\004\216\313\266\201\203\235.\022"
 798      EE965E04 
 798      8ECBB681 
 798      839D2E12 
 799 0dc3 8B3081A4 		.ascii	"\2130\201\244\322\\\207w\331@r\311\321DqKb\242\270\026"
 799      D25C8777 
 799      D94072C9 
 799      D144714B 
 799      62A2B816 
 800 0dd7 035B9355 		.ascii	"\003[\223UQd\327X\277\262&\263\365++2\242\257\253\246"
 800      5164D758 
 800      BFB226B3 
 800      F52B2B32 
 800      A2AFABA6 
 801 0deb 7E55D192 		.ascii	"~U\321\222\360\253\313\330\257\326\233\353$)\270\336"
 801      F0ABCBD8 
 801      AFD69BEB 
 801      2429B8DE 
 802 0dfb 74A4934D 		.ascii	"t\244\223M\232ND\376Z\0122Z'\235\254N\254\311lubEFt"
 802      9A4E44FE 
 802      5A0A325A 
ARM GAS  /tmp/ccCDU11I.s 			page 63


 802      279DAC4E 
 802      ACC96C75 
 803 0e13 72CB5427 		.ascii	"r\313T'\367Z{\341\216\3378qG\306\375v8t\277nw\356\247"
 803      F75A7BE1 
 803      8EDF3871 
 803      47C6FD76 
 803      3874BF6E 
 804 0e2a A9DA9AAC 		.ascii	"\251\332\232\254\3120\371etfEF\004U\274\311]\270<>\277"
 804      CA30F965 
 804      74664546 
 804      0455BCC9 
 804      5DB83C3E 
 805 0e3f 63CF2F17 		.ascii	"c\317/\027mV\246\276\251\334\353y\235\327^\372\372\212"
 805      6D56A6BE 
 805      A9DCEB79 
 805      9DD75EFA 
 805      FA8A
 806 0e51 1150C398 		.ascii	"\021P\303\230f\212q\357B\327\240?+{\321\213i\257s\032"
 806      668A71EF 
 806      42D7A03F 
 806      2B7BD18B 
 806      69AF731A 
 807 0e65 44CD7DE6 		.ascii	"D\315}\346\020o\230B\234\232\336\342\325!\234\257\204"
 807      106F9842 
 807      9C9ADEE2 
 807      D5219CAF 
 807      84
 808 0e76 DEF432C6 		.ascii	"\336\3642\306C\0079\031c5Z02\323B\226=?H\222\345\204"
 808      43073919 
 808      63355A30 
 808      32D34296 
 808      3D3F4892 
 809 0e8c 05C43BA6 		.ascii	"\005\304;\246\020\363:>\374e\022D\247\005\304l3\210"
 809      10F33A3E 
 809      FC651244 
 809      A705C46C 
 809      3388
 810 0e9e 58F791B7 		.ascii	"X\367\221\267\025\036\373\362#\032\300\224ls\2009\246"
 810      151EFBF2 
 810      231AC094 
 810      6C738039 
 810      A6
 811 0eaf 3CB4369E 		.ascii	"<\2646\236\341{\241\317\271\254>\321\216[\212\245\373"
 811      E17BA1CF 
 811      B9AC3ED1 
 811      8E5B8AA5 
 811      FB
 812 0ec0 3C0BC616 		.ascii	"<\013\306\026\230Jv\247\201\222\0145'p\253,\000\026"
 812      984A76A7 
 812      81920C35 
 812      2770AB2C 
 812      0016
 813 0ed2 994A56D7 		.ascii	"\231JV\327\33620I\273\033- \026[(\347<OA\314\306\341"
 813      DE323049 
 813      BB1B2D20 
 813      165B28E7 
 813      3C4F41CC 
ARM GAS  /tmp/ccCDU11I.s 			page 64


 814 0ee8 738F05C4 		.ascii	"s\217\005\304RS1\346\036x{\220\262\034\355\223\216p"
 814      525331E6 
 814      1E787B90 
 814      B21CED93 
 814      8E70
 815 0efa B382ACB2 		.ascii	"\263\202\254\262\325\257\371Xw\304\202\261\345\026\375"
 815      D5AFF958 
 815      77C482B1 
 815      E516FD
 816 0f09 B9CBA43F 		.ascii	"\271\313\244?\307-0V\0321\036\345\226#\214\372\366\303"
 816      C72D3056 
 816      1A311EE5 
 816      96238CFA 
 816      F6C3
 817 0f1b 036BCA94 		.ascii	"\003k\312\224\251\233@\252\036\276g\204\351\363\321"
 817      A99B40AA 
 817      1EBE6784 
 817      E9F3D1
 818 0f2a FFD1643B 		.ascii	"\377\321d;\205B\222~F\353\372r\362<m\265\027\355Zu2"
 818      8542927E 
 818      46EBFA72 
 818      F23C6DB5 
 818      17ED5A75 
 819 0f3f 0D3B8012 		.ascii	"\015;\200\022\270o0\321Zo\362[f\332Q$t/\325~\247\022"
 819      B86F30D1 
 819      5A6FF25B 
 819      66DA5124 
 819      742FD57E 
 820 0f55 AB6C574F 		.ascii	"\253lWO\000\230l\254\306\365\307F\017R\334\267\264|"
 820      00986CAC 
 820      C6F5C746 
 820      0F52DCB7 
 820      B47C
 821 0f67 4AB8AFC1 		.ascii	"J\270\257\301\334\277\3217\345\016\255\021\010z\003"
 821      DCBFD137 
 821      E50EAD11 
 821      087A03
 822 0f76 26D990CC 		.ascii	"&\331\220\314\373\211\351\204\367\015\216xon5\236^X"
 822      FB89E984 
 822      F70D8E78 
 822      6F6E359E 
 822      5E58
 823 0f88 A1E39286 		.ascii	"\241\343\222\206]=&)\213\235h\305OY\325\007\372\357"
 823      5D3D2629 
 823      8B9D68C5 
 823      4F59D507 
 823      FAEF
 824 0f9a B260AE76 		.ascii	"\262`\256vL\225"
 824      4C95
 825 0fa0 D82915EC 		.ascii	"\330)\025\354S\314\331&\327`\271\006\316\316.6\276\013"
 825      53CCD926 
 825      D760B906 
 825      CECE2E36 
 825      BE0B
 826 0fb2 B8C3099E 		.ascii	"\270\303\011\236\315+\017W[\251W\036v\273\00632w\223"
 826      CD2B0F57 
 826      5BA9571E 
ARM GAS  /tmp/ccCDU11I.s 			page 65


 826      76BB0633 
 826      327793
 827 0fc5 063BE004 		.ascii	"\006;\340\004\314\354\305\000\263\017\355$\020Z\275"
 827      CCECC500 
 827      B30FED24 
 827      105ABD
 828 0fd4 680B76B3 		.ascii	"h\013v\263\027m\265n\305\371v\234\277\207\363\367q^"
 828      176DB56E 
 828      C5F9769C 
 828      BF87F3F7 
 828      715E
 829 0fe6 E7353C38 		.ascii	"\3475<8;\336W\353%\246\256\230\312%\224\3306\353\356"
 829      3BDE57EB 
 829      25A6AE98 
 829      CA2594D8 
 829      36EBEE
 830 0ff9 6176060E 		.ascii	"av\006\016:\367\205"
 830      3AF785
 831 1000 C9FC34EC 		.ascii	"\311\3744\354\3031\334=ZRw\017\366\224\341\025L\262"
 831      C331DC3D 
 831      5A52770F 
 831      F694E115 
 831      4CB2
 832 1012 2FA97BB4 		.ascii	"/\251{\264\1773M;e\350\240{\224\305\272\026\332\274"
 832      7F334D3B 
 832      65E8A07B 
 832      94C5BA16 
 832      DABC
 833 1024 074BBF75 		.ascii	"\007K\277u\247\267\177?%H\3139\355\205\336\203X\220"
 833      A7B77F3F 
 833      2548CB39 
 833      ED85DE83 
 833      5890
 834 1036 A9392905 		.ascii	"\2519)\0051\002A?\307$\207\222\005\271\242\011r\310"
 834      3102413F 
 834      C7248792 
 834      05B9A209 
 834      72C8
 835 1048 9120B50B 		.ascii	"\221 \265\0135\357?\340\305;\325:\256\215\217Y\032\265"
 835      35EF3FE0 
 835      C53BD53A 
 835      AE8D8F59 
 835      1AB5
 836 105a 2CF67E0B 		.ascii	",\366~\013vX\025l\275k0\243\367\327\267h\007\201\324"
 836      7658156C 
 836      BD6B30A3 
 836      F7D7B768 
 836      0781D4
 837 106d EDBA6D4E 		.ascii	"\355\272mN\360l\236\264\354ja\017\246:\237\232\234d"
 837      F06C9EB4 
 837      EC6A610F 
 837      A63A9F9A 
 837      9C64
 838 107f 87CE11CC 		.ascii	"\207\316\021\314L\317\214P\367\334\366\311\344\350\360"
 838      4CCF8C50 
 838      F7DCF6C9 
 838      E4E8F0
ARM GAS  /tmp/ccCDU11I.s 			page 66


 839 108e C75831BB 		.ascii	"\307X1\273\030\2033\217\304P[V|\264z3-\214\232t\017"
 839      1883338F 
 839      C4505B56 
 839      7CB47A33 
 839      2D8C9A74 
 840 10a3 22866B85 		.ascii	"\"\206k\205\031\014\200\316\304\257\326\036\322\343"
 840      190C80CE 
 840      C4AFD61E 
 840      D2E3
 841 10b1 B353479D 		.ascii	"\263SG\235\000:?\207q\210\012A\037\341\020t\004\207"
 841      003A3F87 
 841      71880A41 
 841      1FE11074 
 841      0487
 842 10c3 9A63386F 		.ascii	"\232c8o\302\371\011\234\177B\007\037+\335 \257\323\261"
 842      C2F9099C 
 842      7F42071F 
 842      2BDD20AF 
 842      D3B1
 843 10d5 8F7A05D2 		.ascii	"\217z\005\322\325{\347\311\335\011O\026\371\343\256"
 843      D57BE7C9 
 843      DD094F16 
 843      F9E3AE
 844 10e4 C10C8A8C 		.ascii	"\301\014\212\214\315i\245=Y\344\233\235\340\331x\362"
 844      CD69A53D 
 844      59E49B9D 
 844      E0D978F2 
 845 10f4 46755C20 		.ascii	"Fu\\ \273\3309\274K\260\\;\243\354\243\214\262\037\033"
 845      BBD839BC 
 845      4BB05C3B 
 845      A3ECA38C 
 845      B21F1B
 846 1107 A5019BA0 		.ascii	"\245\001\233\240\035\347gq\0367\216\005\237\3450c\201"
 846      1DE76771 
 846      1E378E05 
 846      9FE53063 
 846      81
 847 1118 31EE9A0D 		.ascii	"1\356\232\015M\264~\224X\335\037\312E\263\250\367\202"
 847      4DB47E94 
 847      58DD1FCA 
 847      45B3A8F7 
 847      82
 848 1129 463B8FFE 		.ascii	"F;\217\376C\204\226+\332)\325s8~^t\020?\215H\002w\033"
 848      4384962B 
 848      DA29D573 
 848      387E5E74 
 848      103F8D48 
 849 1140 D35C489E 		.ascii	"\323\\H\236(\235\327&J\027R\007\320\251Sb\333\226\254"
 849      289DD726 
 849      4A175207 
 849      D0A95362 
 849      DB96AC
 850 1153 498C0453 		.ascii	"I\214\004S\364.<\335f\026nx\333oF?\215\217\336\270\251"
 850      F42E3CDD 
 850      66166E78 
 850      DB6F463F 
 850      8D8FDEB8 
ARM GAS  /tmp/ccCDU11I.s 			page 67


 851 1168 12DBDDA6 		.ascii	"\022\333\335\246y\226z\374\244\3025\236\321\022'\333"
 851      79967AFC 
 851      A4C2359E 
 851      D11227DB 
 852 1178 B067A960 		.ascii	"\260g\251`\213\235\200\331L\324\276\376oS\263\306\364"
 852      8B9D80D9 
 852      4CD4BEFE 
 852      6F53B3C6 
 852      F4
 853 1189 C9E30CCA 		.ascii	"\311\343\014\312\254\363;>}X\235\375~\215\255\272\262"
 853      ACF33B3E 
 853      7D589DFD 
 853      7E8DADBA 
 853      B2
 854 119a 5FEAF309 		.ascii	"_\352\363\011F \244\334\033\214Ec\313\016\340c\2227"
 854      4620A4DC 
 854      1B8C4563 
 854      CB0EE063 
 854      9237
 855 11ac 1C0D873B 		.ascii	"\034\015\207;\016h\332\364\341\001\007\263p\243\327"
 855      0E68DAF4 
 855      E10107B3 
 855      70A3D7
 856 11bb 3164F71B 		.ascii	"1d\367\033\316\246\011\246g\376\347\037\340sE\376.\326"
 856      CEA609A6 
 856      67FEE71F 
 856      E07345FE 
 856      2ED6
 857 11cd 457D6A5D 		.ascii	"E}j]\0301\220\250\367XU4\253'F\3579RE[\203q\360=\214"
 857      183190A8 
 857      F7585534 
 857      AB2746EF 
 857      3952455B 
 858 11e6 59B8D76B 		.ascii	"Y\270\327k]\\\233n\234g\237p\215\227k\300\273\243\236"
 858      5D5C9B6E 
 858      9C679F70 
 858      8D976BC0 
 858      BBA39E
 859 11f9 DBC4C352 		.ascii	"\333\304\303R\253\023,\233p:\367\300\322\357+\361\030"
 859      AB132C9B 
 859      703AF7C0 
 859      D2EF2BF1 
 859      18
 860 120a AFBDBD78 		.ascii	"\257\275\275x\216\3053{\227\314yD\275GE\324\036\034"
 860      8EC5337B 
 860      97CC7944 
 860      BD4745D4 
 860      1E1C
 861 121c 51151F3E 		.ascii	"Q\025\037>\315\207\363\2518\237\356s0\300\335\361R\221"
 861      CD87F3A9 
 861      389FEE73 
 861      30C0DDF1 
 861      5291
 862 122e E38A6BE7 		.ascii	"\343\212k\347\244\025\010=\375\245r\261\037WN\374H\365"
 862      A415083D 
 862      FDA572B1 
 862      1F574EFC 
ARM GAS  /tmp/ccCDU11I.s 			page 68


 862      48F5
 863 1240 34CD97F4 		.ascii	"4\315\227\364~\245h\375\352-_?\\2\274\262\206\253X1"
 863      7EA568FD 
 863      EA2D5F3F 
 863      5C32BCB2 
 863      86AB5831 
 864 1254 3BD39778 		.ascii	";\323\227x\025:\313\237(\214\320%\270\316J\300\264k"
 864      153ACB9F 
 864      288CD025 
 864      B8CE4AC0 
 864      B46B
 865 1266 63387345 		.ascii	"c8sE\337\240\024}\023+\372\026\036\256\272p\376\246"
 865      DFA0147D 
 865      132BFA16 
 865      1EAEBA70 
 865      FEA6
 866 1278 CF3068DD 		.ascii	"\3170h\335c\203\033\023M\\\233\371\002\325\372E\334"
 866      63831B13 
 866      4D5C9BF9 
 866      02D5FA45 
 866      DC
 867 1289 FA97B8DD 		.ascii	"\372\227\270\335+8\377\012\347\235\306\201sf\177f\340"
 867      2B38FF0A 
 867      E79DC681 
 867      73667F66 
 867      E0
 868 129a 64C62952 		.ascii	"d\306)R\266~- ^W\365q\372d%\266h\210\366\277:\263YH"
 868      B67E2D20 
 868      5E57F571 
 868      FA6425B6 
 868      6888F6BF 
 869 12b2 E39FE890 		.ascii	"\343\237\350\220b\314&j\267\267g\351a;\345+#;\326\\"
 869      62CC266A 
 869      B7B767E9 
 869      613BE52B 
 869      233BD65C 
 870 12c6 1C868F0F 		.ascii	"\034\206\217\017T\370P\353\213\373\233\006*\373w)\347"
 870      54F850EB 
 870      8BFB9B06 
 870      2AFB7729 
 870      E7
 871 12d7 FBCC0E95 		.ascii	"\373\314\016\225\241\253\016Vb\347\311\033Z\352\001"
 871      A1AB0E56 
 871      62E7C91B 
 871      5AEA01
 872 12e6 EEBFE2F6 		.ascii	"\356\277\342\366\021\251\313(en\322\004g\"\277\300\207"
 872      11A9CB28 
 872      656ED204 
 872      6722BFC0 
 872      87
 873 12f7 4CBAD0E8 		.ascii	"L\272\320\350D\233Ym\233\265W\235\350\010\254\262\321"
 873      449B596D 
 873      9BB5579D 
 873      E808ACB2 
 873      D1
 874 1308 3BDBAAFD 		.ascii	";\333\252\375L\267\246<\032\304\360\204\306{.t\251\032"
 874      4CB7A63C 
ARM GAS  /tmp/ccCDU11I.s 			page 69


 874      1AC4F084 
 874      C67B2E74 
 874      A91A
 875 131a 5F8235BE 		.ascii	"_\2025\276\315\\\34368x'\320T\345U\216T~MS\271zf\375"
 875      CD5CE336 
 875      387827D0 
 875      54E5558E 
 875      547E4D53 
 876 1332 03CC4095 		.ascii	"\003\314@\225{\225\023\270\353\370\374\233\212\325\350"
 876      7B9513B8 
 876      EBF8FC9B 
 876      8AD5E8
 877 1341 1A2B97D6 		.ascii	"\032+\227\326f\354\246o\306\2244\355=\213f\026\314\364"
 877      66ECA66F 
 877      C69434ED 
 877      3D8B6616 
 877      CCF4
 878 1353 B0B64D47 		.ascii	"\260\266MG\270C\243\265;B\313u\354ZU\224k-\303\256U"
 878      B843A3B5 
 878      3B42CB75 
 878      EC5A5594 
 878      6B2DC3AE 
 879 1368 8D078215 		.ascii	"\215\007\202\0258_\205\3635Fg\273\310:\233\321\256\244"
 879      385F85F3 
 879      354667BB 
 879      C83A9BD1 
 879      AEA4
 880 137a B8D6C6DB 		.ascii	"\270\326\306\333\352\333\317\017\303\336\246\005~\360"
 880      EADBCF0F 
 880      C3DEA605 
 880      7EF0
 881 1388 12F59F1E 		.ascii	"\022\365\237\0364\304\276\032\014\372\003G\314\350\273"
 881      34C4BE1A 
 881      0CFA0347 
 881      CCE8BB
 882 1397 AE23FF5F 		.ascii	"\256#\377_-\"\377\303\272$7\223$1\266K\312q3Q\314\325"
 882      2D22FFC3 
 882      BA243793 
 882      2431B64B 
 882      CA713351 
 883 13ad B9960ABE 		.ascii	"\271\226\012\276\357\342\340\373W\034pw\343\374s\234"
 883      EFE2E0FB 
 883      571C7077 
 883      E3FC739C 
 884 13bd CFC64A9D 		.ascii	"\317\306J\235\203\363\3058_gT\360\264\001Z_\322\330"
 884      83F3C538 
 884      5F6754F0 
 884      B4015A5F 
 884      D2D8
 885 13cf 32EE0DA3 		.ascii	"2\356\015\243\206\326\373\364=k\264_}\354X\374T\303"
 885      86D6FBF4 
 885      3D6BB45F 
 885      7DEC58FC 
 885      54C3
 886 13e1 57BEC9E5 		.ascii	"W\276\311\345\261\251\325\350H\027\317k\252]d\\\006"
 886      B1A9D5E8 
 886      4817CF6B 
ARM GAS  /tmp/ccCDU11I.s 			page 70


 886      AA5D645C 
 886      06
 887 13f2 BCAA2165 		.ascii	"\274\252!eaZ\272\326\014\313Z\"\277\321\265\3667Yh\237"
 887      615ABAD6 
 887      0CCB5A22 
 887      BFD1B5F6 
 887      3759689F 
 888 1406 7E373951 		.ascii	"~79Q\013-A\260\3245\211\363\332\014\023\0027g\200\352"
 888      0B2D41B0 
 888      D43589F3 
 888      DA0C1302 
 888      376780EA 
 889 141a 0C0F73CB 		.ascii	"\014\017s\313\006T\242\320\263\001sE\344\377d\303\236"
 889      0654A2D0 
 889      B3017345 
 889      E4FF64C3 
 889      9E
 890 142b 1FA6967F 		.ascii	"\037\246\226\177\242\006\332\327N~\246\226\310\357p"
 890      A206DAD7 
 890      4E7EA696 
 890      C8EF70
 891 143a 2DFF7B16 		.ascii	"-\377{\026\362g\033\344\327jAq\263\2179f\3110!p5\272"
 891      F2671BE4 
 891      D76A4171 
 891      B38F3966 
 891      C9302170 
 892 1450 FCEFABF2 		.ascii	"\374\357\253\362o\247\344\217\335;\240d\224O\236\201"
 892      6FA7E48F 
 892      DD3BA064 
 892      944F9E81 
 893 1460 1EE758C8 		.ascii	"\036\347X\310\376{\243\015,dgj\211|\275k\331wY\310\336"
 893      FE7BA30D 
 893      2C64676A 
 893      897CBD6B 
 893      D97759C8 
 894 1475 C720FB2E 		.ascii	"\307 \373.Vv\352\024&\303\004\204d]\366S\252\354u\264"
 894      5676EA14 
 894      26C30484 
 894      645DF653 
 894      AAEC75B4 
 895 1489 EC370FA5 		.ascii	"\3547\017\245\222\375\025#\017\026\2623\265D~\237k\331"
 895      92FD1523 
 895      0F16B233 
 895      B5447E9F 
 895      6BD9
 896 149b 3FB0909D 		.ascii	"?\260\220\235\016\034\211Z\272\354\3241>\206\011X\007"
 896      0E1C895A 
 896      BAECD431 
 896      3E860958 
 896      07
 897 14ac E8B27FAD 		.ascii	"\350\262\177\255\312\276\327 \373\021]v\365\216\006"
 897      CABED720 
 897      FB115D76 
 897      F58E06
 898 14bb D96403F9 		.ascii	"\331d\003\371\215\0169\363\376d\310{M\024\344v\012\262"
 898      8D0E39F3 
 898      FE64C87B 
ARM GAS  /tmp/ccCDU11I.s 			page 71


 898      4D14E476 
 898      0AB2
 899 14cd D5C63B17 		.ascii	"\325\306;\027\334\257A\256\272\337\304;\233- ;l \267"
 899      DCAF41AE 
 899      BADFC43B 
 899      9B2D203B 
 899      6C20B7
 900 14e0 EA907B4D 		.ascii	"\352\220{M \347\265R\220u\024\344%\033?j\322!\343\367"
 900      20E7B552 
 900      907514E4 
 900      251B3F6A 
 900      D221E3F7 
 901 14f4 27FBD1BC 		.ascii	"'\373\321\2746\013\310n\033\310\313:\344\035\032\222"
 901      360BC86E 
 901      1BC8CB3A 
 901      E41D1A92 
 902 1504 B858F5F3 		.ascii	"\270X\365\363\214\217\345h\364\002q\200\223\256}\254"
 902      8C8FE568 
 902      F4027180 
 902      93AE7DAC 
 903 1514 C5C2C778 		.ascii	"\305\302\307x\342_\026\336=\\\253\227NpN\271n\371\264"
 903      E25F16DE 
 903      3D5CAB97 
 903      4E704EB9 
 903      6EF9B4
 904 1527 45CB69A4 		.ascii	"E\313i\244e\362\017\267\225_6\275\315\317\3310]A\317"
 904      65F20FB7 
 904      955F36BD 
 904      CDCFD930 
 904      5D41CF
 905 153a B85F5F16 		.ascii	"\270__\026+\367:\337\342n\3631[\334\247\361)t\303\323"
 905      2BF73ADF 
 905      E26EF331 
 905      5BDCA7F1 
 905      2974C3D3 
 906 154e E05D0FD0 		.ascii	"\340]\017\320\263M\\S\340\016?@\344\327^\251\201\245"
 906      B34D5C53 
 906      E00E3F40 
 906      E4D75EA9 
 906      81A5
 907 1560 39AFFD81 		.ascii	"9\257\375\201d+\246h\365Y\235)9m8\304~m2\365R\015\""
 907      642BA668 
 907      F5599D29 
 907      396D38C4 
 907      7E6D32F5 
 908 1577 3274DE33 		.ascii	"2t\3363>\303\363bf\333\034=k\266\222\355s_\246\005\325"
 908      3EC3F362 
 908      66DB1C3D 
 908      6BB692ED 
 908      735FA605 
 909 158c 6A8BB93B 		.ascii	"j\213\271;\242:gI\265\317\346\3174\316[R\275i\263\261"
 909      A23A6749 
 909      B5CFE6CF 
 909      34CE5B52 
 909      BD69B3B1 
 910 15a0 DF614985 		.ascii	"\337aI\205\006[+\252\013\011\252\\n\031\232\342\265"
 910      065B2BAA 
ARM GAS  /tmp/ccCDU11I.s 			page 72


 910      0B09AA5C 
 910      6E199AE2 
 910      B5
 911 15b1 BD75A6BF 		.ascii	"\275u\246\27725CW\342\006\372\257\221\031\344\3556\310"
 911      32354357 
 911      E206FAAF 
 911      9119E4ED 
 911      36C8
 912 15c3 172DF999 		.ascii	"\027-\371\231k#\305\227\226Tu6m]\262\244B\307\366\255"
 912      6B23C597 
 912      96547536 
 912      6D5DB2A4 
 912      42C7F6AD 
 913 15d7 A82E5B52 		.ascii	"\250.[R\355\265i\353\212%U\225\215\\\177\267\244\232"
 913      EDB569EB 
 913      8A255595 
 913      8D5C7FB7 
 913      A49A
 914 15e9 6DC3E157 		.ascii	"m\303\341WI\326\201\271\322s\264u\352=\326\326\331e"
 914      49D681B9 
 914      D273B475 
 914      EA3DD6D6 
 914      D965
 915 15fb 83DCC922 		.ascii	"\203\334\311\"\307\346\315T\004A\307=l\203\273\321\246"
 915      C7E6CD54 
 915      0441C73D 
 915      6C83BBD1 
 915      A6
 916 160c 9F5C4BC2 		.ascii	"\237\\K\302\335<\233\306m\242qI\215\367\346\3225ZMj"
 916      DD3C9BC6 
 916      6DA27149 
 916      8DF7E6D2 
 916      355A4D6A 
 917 1620 2CADA06B 		.ascii	",\255\240k\304\3150\026\3205:Lj\354ZL\327\270d#\337"
 917      C4CD3016 
 917      D0353A4C 
 917      6AEC5A4C 
 917      D7B86423 
 918 1635 651BBD75 		.ascii	"e\033\275u%\313\267\220\306\275i\326\362\022\272F\267"
 918      25CBB790 
 918      C6BD69D6 
 918      F212BA46 
 918      B7
 919 1646 E1258FA7 		.ascii	"\341%\217\247\303\241\274\301#\013By\241\337\214\011"
 919      C3A1BCC1 
 919      230B4279 
 919      A1DF8C09 
 920 1656 0C7DF689 		.ascii	"\014}\366\211\241O<=xpqtpD\036\\R\034\221\243\203_\370"
 920      A14F3C3D 
 920      78707174 
 920      70441E5C 
 920      521C91A3 
 921 166d EDCB235F 		.ascii	"\355\313#_\23688X\020,\216H\201\361\303\012\237(\340"
 921      9E383858 
 921      102C8E48 
 921      81F1C30A 
 921      9F28E0
ARM GAS  /tmp/ccCDU11I.s 			page 73


 922 1680 FCE85620 		.ascii	"\374\350V \\\034|-\355\245\377\370]\356H.\023_(-B\227"
 922      5C1C7C2D 
 922      EDA5FFF8 
 922      5DEE482E 
 922      135F282D 
 923 1696 1EB7460C 		.ascii	"\036\267F\014\025\005\303\245\371\022\200E'E\021N\260"
 923      1505C3A5 
 923      F9128045 
 923      2745114E 
 923      B0
 924 16a7 60CCA4E8 		.ascii	"`\314\244\350\277\003Q&.\375\316\005\200\204\030\031"
 924      BF035126 
 924      2EFDCE05 
 924      80841819 
 925 16b7 E194FBE2 		.ascii	"\341\224\373\342\302\222PX\212D\007\2774r$P\313\223"
 925      C2925058 
 925      8A4407BF 
 925      34722450 
 925      CB93
 926 16c9 4A24C480 		.ascii	"J$\304\200/X$\007\344\207\006\227F#:v\2214\001\241F"
 926      2F582407 
 926      E4870697 
 926      46233A76 
 926      913401A1 
 927 16de E5FC5091 		.ascii	"\345\374P\221\014u\322\341\353\251'\003\362/\314j\025"
 927      0C75D2E1 
 927      EBA92703 
 927      F22FCC6A 
 927      15
 928 16ef 8AC18250 		.ascii	"\212\301\202P\22148\220/\215\025K\303\000F\220\375\201"
 928      91343890 
 928      2F8D154B 
 928      C3004690 
 928      FD81
 929 1701 00A1CB04 		.ascii	"\000\241\313\004V\305\222\002\244=9+X\020\320\177\016"
 929      56C59202 
 929      A43D392B 
 929      5810D07F 
 929      0E
 930 1712 76A8280D 		.ascii	"v\250(\015\262\257\\\020\221\304\374h\340O\245R)\200"
 930      B2AF5C10 
 930      91C4FC68 
 930      E04FA552 
 930      2980
 931 1724 E50098E1 		.ascii	"\345\000\230\341\322\317\034\001\006\013\362\001,C\245"
 931      D2CF1C01 
 931      060BF201 
 931      2C43A5
 932 1733 0CC87E1D 		.ascii	"\014\310~\035%\255$P$M\224\341\253$\"\215O\227K\"\241"
 932      25AD2450 
 932      244D94E1 
 932      AB24228D 
 932      4F974B22 
 933 1748 E2809C51 		.ascii	"\342\200\234QJ\344\350\023\010hE\\%T\234\036,.\222\201"
 933      4AE4E813 
 933      0868455C 
 933      25549C1E 
ARM GAS  /tmp/ccCDU11I.s 			page 74


 933      2C2E9281 
 934 175c 62882B1F 		.ascii	"b\210+\037\202\306Uw\001\260\240<1#\"\215\023#\205\001"
 934      82C65577 
 934      01B0A03C 
 934      3123228D 
 934      13238501 
 935 1770 59883C2D 		.ascii	"Y\210<-D\236\021\"\317\012\221aBd\270\020y\316\023\031"
 935      449E1122 
 935      CF0A9161 
 935      4264B810 
 935      79CE1319 
 936 1784 3A04D250 		.ascii	":\004\322P!\034\201\257\247|%\001\250\237\216\270\234"
 936      211C81AF 
 936      A77C2501 
 936      A89F8EB8 
 936      9C
 937 1795 2045E0BB 		.ascii	" E\340\2738\234/E\274\301\0021\202X\027\013\245>Q\371"
 937      389C2F45 
 937      BCC10231 
 937      8258170B 
 937      A53E51F9 
 938 17a9 35311C1A 		.ascii	"51\034\032WD\330~\366i\235m\\,\011@\205p\2500$g\310"
 938      5744D87E 
 938      F6699D6D 
 938      5C2C0940 
 938      8570A830 
 939 17c0 51599441 		.ascii	"QY\224A\211\351\350\346pP\203Z\015J\351\250"
 939      89E9E8E6 
 939      7050835A 
 939      0D4AE9A8 
 940 17d0 16DC4B97 		.ascii	"\026\334K\227\013\213\363%\374{lX\034\027M\227#\322"
 940      0B8BF325 
 940      FC7B6C58 
 940      1C174D97 
 940      23D2
 941 17e2 D828161E 		.ascii	"\330(\026\036\025|\205\321q\360#\222?\011\012\031\322"
 941      157C85D1 
 941      71F02392 
 941      3F090A19 
 941      D2
 942 17f3 C4901C84 		.ascii	"\304\220\034\204\352i\023\344\342\274?\226\364'\332"
 942      EA6913E4 
 942      E2BC3F96 
 942      F427DA
 943 1802 858A5244 		.ascii	"\205\212RD*\012\002\214o\202,GJ\340>\330\277$\003\224"
 943      2A0A028C 
 943      6F822C47 
 943      4AE03ED8 
 943      BF240394 
 944 1816 5E580ABA 		.ascii	"^X\012\272s\344\353\205\362D\344\207\205\252\225\341"
 944      73E4EB85 
 944      F244E487 
 944      85AA95E1 
 945 1826 BB784211 		.ascii	"\273xB\021(\000\003\000\013\205\252\331&\310P\257$S"
 945      28000300 
 945      0B85AAD9 
 945      26C850AF 
ARM GAS  /tmp/ccCDU11I.s 			page 75


 945      2453
 946 1838 1A2F15C9 		.ascii	"\032/\025\311\205b\3645\270#M@\005OI\2404[s\224p(\012"
 946      8562F435 
 946      B8234D40 
 946      054F49A0 
 946      345B7394 
 947 184f 4EDA9772 		.ascii	"N\332\227r\035t\305_\022\230 \206\344P\3218\320\021"
 947      1D74C55F 
 947      12982086 
 947      E450D138 
 947      D011
 948 1861 C8831BF2 		.ascii	"\310\203\033\362\341\"\\\220J\244\"\350\014\343\240"
 948      E1225C90 
 948      4AA422E8 
 948      0CE3A0
 949 1870 163481EA 		.ascii	"\0264\201\352\367A:\020\303\330\011\340bIqq\370\247"
 949      F7413A10 
 949      C3D809E0 
 949      62497171 
 949      F8A7
 950 1882 4E249151 		.ascii	"N$\221Q\247\355/\207\012\245@\241$FK#R\241\204z`zD\306"
 950      A7ED2F87 
 950      0AA540A1 
 950      24464B23 
 950      52A1847A 
 951 189a 3DD19B27 		.ascii	"=\321\233'EAS\305\221\250\354\015\213Q9\255\024_\346"
 951      454153C5 
 951      91A8EC0D 
 951      8B5139AD 
 951      145FE6
 952 18ad 8B322232 		.ascii	"\2132\"2\246\222\373\004K\013K\303\242\034\032/\021"
 952      A692FB04 
 952      4B0B4BC3 
 952      A21C1A2F 
 952      11
 953 18be 4345D389 		.ascii	"CE\323\211\373\373\242\001\250\015\275b\214T\370\222"
 953      FBFBA201 
 953      A80DBD62 
 953      8C54F892 
 954 18ce 248F2C2E 		.ascii	"$\217,.\005\357\214\214\026\242%\331\370\332\213\000"
 954      05EF8C8C 
 954      16A225D9 
 954      F8DA8B00 
 955 18de F85F20E5 		.ascii	"\370_ \345h\033V\243\221 Rx^\361D\350rA\356\027\216"
 955      681B56A3 
 955      91205278 
 955      5EF144E8 
 955      7241EE17 
 956 18f3 CCA3D686 		.ascii	"\314\243\326\206>_(\206\302\360\003\274\2510/\220W:"
 956      3E5F2886 
 956      C2F003BC 
 956      A9302F90 
 956      573A
 957 1905 168C9F06 		.ascii	"\026\214\237\006%\271\270$\003\276&DJ\344\010*D\362"
 957      25B9B824 
 957      03BE2644 
 957      4AE4082A 
ARM GAS  /tmp/ccCDU11I.s 			page 76


 957      44F2
 958 1917 A1D0070A 		.ascii	"\241\320\007\012cK\303ap\207L(\202S\310\223\240\014"
 958      634BC361 
 958      70874C28 
 958      8253C893 
 958      A00C
 959 1929 ACBEFCEB 		.ascii	"\254\276\374\353\337\344\375Q\012\312\243\213B\262\247"
 959      DFE4FD51 
 959      0ACAA38B 
 959      42B2A7
 960 1938 30AFC403 		.ascii	"0\257\304\003H}\320\345\337JQI\036\355\327\213~\024"
 960      487DD0E5 
 960      DF4A5149 
 960      1EEDD78B 
 960      7E14
 961 194a 1CB056F0 		.ascii	"\034\260V\360\265W\212\243\362\030\017\230,\035],.\225"
 961      B5578AA3 
 961      F2180F98 
 961      2C1D5D2C 
 961      2E95
 962 195c 33B4ABFA 		.ascii	"3\264\253\372\355\321\331Z\351\205\0020\376\230\373"
 962      EDD1D95A 
 962      E9850230 
 962      FE98FB
 963 196b 0C3F8D37 		.ascii	"\014?\2157G\3436_\224dP\236\027PK\374\372\357\304\235"
 963      47E3365F 
 963      9464509E 
 963      17504BFC 
 963      FAEFC49D 
 964 197f D13F77A2 		.ascii	"\321?w\242\241|)\257t\034\212`\201\374\274q\201`\201"
 964      A17C29AF 
 964      741C8A60 
 964      81FCBC71 
 964      816081
 965 1992 147C0D8F 		.ascii	"\024|\015\217\036\216\210\261\215\201\370!\325\332("
 965      1E8E88B1 
 965      8D81F821 
 965      D5DA28
 966 19a1 87E041DC 		.ascii	"\207\340A\334'\020\214\204\300A\012\362\325\241d\224"
 966      27108C84 
 966      C0410AF2 
 966      D5A16494 
 967 19b1 18961FD4 		.ascii	"\030\226\037\324\353\025\227$U\353Gq\240\016W\340/\377"
 967      EB159724 
 967      55EB4771 
 967      A00E57E0 
 967      2FFF
 968 19c3 9A376E24 		.ascii	"\2327n$\2722\022\\.:\272/v\226\204\0112\361oU\367\310"
 968      BA32125C 
 968      2E3ABA2F 
 968      76968409 
 968      32F16F55 
 969 19d9 B9820550 		.ascii	"\271\202\005P\006\204\374\322\2604&\013\337\034\003"
 969      0684FCD2 
 969      B034260B 
 969      DF1C03
 970 19e8 21470C8F 		.ascii	"!G\014\217\356\207\177 \027\373O\325\000cX\3601\231"
ARM GAS  /tmp/ccCDU11I.s 			page 77


 970      EE877F20 
 970      17FB4FD5 
 970      006358F0 
 970      3199
 971 19fa 680000AB 		.ascii	"h\000\000\253I\205j\344U\313Y\250'N\"}\023l\022H\374"
 971      49856AE4 
 971      55CB59A8 
 971      274E227D 
 971      136C1248 
 972 1a0f 4E8FA8CE 		.ascii	"N\217\250\316\235\026\301!\327\027\30110Bb`D\215\201"
 972      9D16C121 
 972      D717C131 
 972      30426260 
 972      448D81
 973 1a22 7EB85A1A 		.ascii	"~\270Z\032\201@#\373\"\210\350\201\361\241\210\\*\206"
 973      814023FB 
 973      2288E881 
 973      F1A1885C 
 973      2A86
 974 1a34 03C81122 		.ascii	"\003\310\021\"Z\247\377\036\000\233\334\350k\270\246"
 974      5AA7FF1E 
 974      009BDCE8 
 974      6BB8A6
 975 1a43 0E2B864B 		.ascii	"\016+\206K\351\343e\034a\3207\032\0312\340;_\012\313"
 975      E9E3651C 
 975      61D0371A 
 975      1932E03B 
 975      5F0ACB
 976 1a56 2214C696 		.ascii	"\"\024\306\226\026\005\003\370\016*\245\241\032b$\023"
 976      160503F8 
 976      0E2AA5A1 
 976      1A622413 
 977 1a66 BE50EF45 		.ascii	"\276P\357E\324p\0115\222M\204\306\236\240\306\037\372"
 977      D4700935 
 977      924D84C6 
 977      9EA0C61F 
 977      FA
 978 1a77 8ABF442C 		.ascii	"\212\277D,\012\005Q\270I\017E#\250\033g \333\240B?\024"
 978      0A0551B8 
 978      490F4523 
 978      A81B6720 
 978      DBA0423F 
 979 1a8c AA222284 		.ascii	"\252\"\"\204P\265CAkr^ \032\372_)\033\201L\010\006p"
 979      50B54341 
 979      6B725E20 
 979      1AFA5F29 
 979      1B814C08 
 980 1aa2 C483CB51 		.ascii	"\304\203\313Q\011\363\353C\337%~\310\325X\234\001%\034"
 980      09F3EB43 
 980      DF257EC8 
 980      D5589C01 
 980      251C
 981 1ab4 D0D3800E 		.ascii	"\320\323\200\016:\236_\326\372f\026\215\353\001\307"
 981      3A9E5FD6 
 981      FA66168D 
 981      EB01C7
 982 1ac3 E8031DB8 		.ascii	"\350\003\035\270H\215\2139ra \010cI^\004bM1\014(i\305"
ARM GAS  /tmp/ccCDU11I.s 			page 78


 982      488D8B39 
 982      72612008 
 982      63495E04 
 982      624D310C 
 983 1ada 63C7820B 		.ascii	"c\307\202\013\010ra\366kR\244H\012\0237\223}E\201P\344"
 983      087261F6 
 983      6B52A448 
 983      0A133793 
 983      7D458150 
 984 1aef 4F1945C8 		.ascii	"O\031E\3100\300N\237B\335\331\264\"\210\224E\323d\207"
 984      30C04E9F 
 984      42DDD9B4 
 984      22889445 
 984      D36487
 985 1b02 F2C31289 		.ascii	"\362\303\022\211\277\020w\205`AF\000\353/\020\270O+"
 985      BF107785 
 985      60414600 
 985      EB2F10B8 
 985      4F2B
 986 1b14 3CF1CC73 		.ascii	"<\361\314sC\237\311\242fE\\\342\326\263\317\016}\246"
 986      439FC9A2 
 986      66455CE2 
 986      D6B3CF0E 
 986      7DA6
 987 1b26 AF314E18 		.ascii	"\2571N\030\356>\371df\"\\\030\356<\365L\037=R\030n<"
 987      EE3EF964 
 987      66225C18 
 987      EE3CF54C 
 987      1F3D5218 
 988 1b3c 3D44BF61 		.ascii	"=D\277a\244x\346\251\276\306\220a\274;\334x\327H;lh"
 988      A478E6A9 
 988      BEC69061 
 988      BC3BDC78 
 988      D7483B6C 
 989 1b51 66228418 		.ascii	"f\"\204\030\357<\233\2703\232\033f\021\006\300\347\006"
 989      EF3C9BB8 
 989      339A1B66 
 989      1106C0E7 
 989      06
 990 1b62 8F7C79CC 		.ascii	"\217|y\314\3501\211h\200fQ\301\302\027\001\007\"\002"
 990      E8318968 
 990      806651C1 
 990      C2170107 
 990      2202
 991 1b74 20828481 		.ascii	" \202\204\201_\2770\346\337^\371\355\350\373\304\360"
 991      5FBF30E6 
 991      DF5EF9ED 
 991      E8FBC4F0 
 992 1b84 04715214 		.ascii	"\004qR\024\246\025a\230\221\371\306\213\341R\351\377"
 992      A6156198 
 992      91F9C68B 
 992      E152E9FF 
 993 1b94 0037F64F 		.ascii	"\0007\366O\235"
 993      9D
 994              		.text
 995              		.section	.gnu.lto_.symtab.e245fb5f86c065b3,"",%progbits
 996 0000 63684D42 		.ascii	"chMBObjectInit\000\000\000\000\000\000\000\000\000\000"
ARM GAS  /tmp/ccCDU11I.s 			page 79


 996      4F626A65 
 996      6374496E 
 996      69740000 
 996      00000000 
 997 0018 00009401 		.ascii	"\000\000\224\001\000\000chMBResetI\000\000\000\000\000"
 997      00006368 
 997      4D425265 
 997      73657449 
 997      00000000 
 998 002d 00000000 		.ascii	"\000\000\000\000\000\000\000\263\001\000\000chMBRes"
 998      000000B3 
 998      01000063 
 998      684D4252 
 998      6573
 999 003f 65740000 		.ascii	"et\000\000\000\000\000\000\000\000\000\000\000\000\271"
 999      00000000 
 999      00000000 
 999      0000B9
 1000 004e 01000063 		.ascii	"\001\000\000chMBPostS\000\000\000\000\000\000\000\000"
 1000      684D4250 
 1000      6F737453 
 1000      00000000 
 1000      00000000 
 1001 0062 00000000 		.ascii	"\000\000\000\000\275\001\000\000chMBPost\000\000\000"
 1001      BD010000 
 1001      63684D42 
 1001      506F7374 
 1001      000000
 1002 0075 00000000 		.ascii	"\000\000\000\000\000\000\000\000\000\314\001\000\000"
 1002      00000000 
 1002      00CC0100 
 1002      00
 1003 0082 63684D42 		.ascii	"chMBPostI\000\000\000\000\000\000\000\000\000\000\000"
 1003      506F7374 
 1003      49000000 
 1003      00000000 
 1003      00000000 
 1004 0096 00D20100 		.ascii	"\000\322\001\000\000chMBPostAheadS\000\000\000\000\000"
 1004      0063684D 
 1004      42506F73 
 1004      74416865 
 1004      61645300 
 1005 00ae 00000000 		.ascii	"\000\000\000\000\000\000\000\332\001\000\000chMBPos"
 1005      000000DA 
 1005      01000063 
 1005      684D4250 
 1005      6F73
 1006 00c0 74416865 		.ascii	"tAhead\000\000\000\000\000\000\000\000\000\000\000\000"
 1006      61640000 
 1006      00000000 
 1006      00000000 
 1006      0000
 1007 00d2 E0010000 		.ascii	"\340\001\000\000chMBPostAheadI\000\000\000\000\000\000"
 1007      63684D42 
 1007      506F7374 
 1007      41686561 
 1007      64490000 
ARM GAS  /tmp/ccCDU11I.s 			page 80


 1008 00ea 00000000 		.ascii	"\000\000\000\000\000\000\346\001\000\000chMBFetchS\000"
 1008      0000E601 
 1008      00006368 
 1008      4D424665 
 1008      74636853 
 1009 00ff 00000000 		.ascii	"\000\000\000\000\000\000\000\000\000\000\000\353\001"
 1009      00000000 
 1009      000000EB 
 1009      01
 1010 010c 00006368 		.ascii	"\000\000chMBFetch\000\000\000\000\000\000\000\000\000"
 1010      4D424665 
 1010      74636800 
 1010      00000000 
 1010      00000000 
 1011 0120 000000F6 		.ascii	"\000\000\000\366\001\000\000chMBFetchI\000\000\000\000"
 1011      01000063 
 1011      684D4246 
 1011      65746368 
 1011      49000000 
 1012 0135 00000000 		.ascii	"\000\000\000\000\000\000\000\000\374\001\000\000ch\000"
 1012      00000000 
 1012      FC010000 
 1012      636800
 1013 0144 00020000 		.ascii	"\000\002\000\000\000\000\000\000\000\000\000$\002\000"
 1013      00000000 
 1013      00000024 
 1013      0200
 1014 0152 005F6462 		.ascii	"\000_dbg_check_lock\000\000\002\000\000\000\000\000"
 1014      675F6368 
 1014      65636B5F 
 1014      6C6F636B 
 1014      00000200 
 1015 016a 00000000 		.ascii	"\000\000\000\000\004\002\000\000_stats_start_measur"
 1015      04020000 
 1015      5F737461 
 1015      74735F73 
 1015      74617274 
 1016 0185 655F6372 		.ascii	"e_crit_thd\000\000\002\000\000\000\000\000\000\000\000"
 1016      69745F74 
 1016      68640000 
 1016      02000000 
 1016      00000000 
 1017 019a 00060200 		.ascii	"\000\006\002\000\000chSysHalt\000\000\002\000\000\000"
 1017      00636853 
 1017      79734861 
 1017      6C740000 
 1017      02000000 
 1018 01ae 00000000 		.ascii	"\000\000\000\000\000\000\010\002\000\000_stats_stop"
 1018      00000802 
 1018      00005F73 
 1018      74617473 
 1018      5F73746F 
 1019 01c3 5F6D6561 		.ascii	"_measure_crit_thd\000\000\002\000\000\000\000\000\000"
 1019      73757265 
 1019      5F637269 
 1019      745F7468 
 1019      64000002 
ARM GAS  /tmp/ccCDU11I.s 			page 81


 1020 01dd 0000000C 		.ascii	"\000\000\000\014\002\000\000_dbg_check_unlock\000\000"
 1020      0200005F 
 1020      6462675F 
 1020      63686563 
 1020      6B5F756E 
 1021 01f7 02000000 		.ascii	"\002\000\000\000\000\000\000\000\000\000\016\002\000"
 1021      00000000 
 1021      00000E02 
 1021      00
 1022 0204 00636844 		.ascii	"\000chDbgCheckClassI\000\000\002\000\000\000\000\000"
 1022      62674368 
 1022      65636B43 
 1022      6C617373 
 1022      49000002 
 1023 021d 00000000 		.ascii	"\000\000\000\000\020\002\000\000chSemObjectInit\000"
 1023      10020000 
 1023      63685365 
 1023      6D4F626A 
 1023      65637449 
 1024 0235 00020000 		.ascii	"\000\002\000\000\000\000\000\000\000\000\000\022\002"
 1024      00000000 
 1024      00000012 
 1024      02
 1025 0242 00006368 		.ascii	"\000\000chSemResetI\000\000\002\000\000\000\000\000"
 1025      53656D52 
 1025      65736574 
 1025      49000002 
 1025      00000000 
 1026 0257 00000000 		.ascii	"\000\000\000\000\027\002\000\000chSchRescheduleS\000"
 1026      17020000 
 1026      63685363 
 1026      68526573 
 1026      63686564 
 1027 0270 00020000 		.ascii	"\000\002\000\000\000\000\000\000\000\000\000\031\002"
 1027      00000000 
 1027      00000019 
 1027      02
 1028 027d 00006368 		.ascii	"\000\000chSemSignalI\000\000\002\000\000\000\000\000"
 1028      53656D53 
 1028      69676E61 
 1028      6C490000 
 1028      02000000 
 1029 0293 00000000 		.ascii	"\000\000\000\000\033\002\000\000chSemWaitTimeoutS\000"
 1029      1B020000 
 1029      63685365 
 1029      6D576169 
 1029      7454696D 
 1030 02ad 00020000 		.ascii	"\000\002\000\000\000\000\000\000\000\000\000\035\002"
 1030      00000000 
 1030      0000001D 
 1030      02
 1031 02ba 00006368 		.ascii	"\000\000chDbgCheckClassS\000\000\002\000\000\000\000"
 1031      44626743 
 1031      6865636B 
 1031      436C6173 
 1031      73530000 
 1032 02d3 00000000 		.ascii	"\000\000\000\000\000\"\002\000\000"
ARM GAS  /tmp/ccCDU11I.s 			page 82


 1032      00220200 
 1032      00
 1033              		.text
 1034              		.section	.gnu.lto_.opts,"",%progbits
 1035 0000 272D6D63 		.ascii	"'-mcpu=cortex-m4' '-mno-thumb-interwork' '-mthumb' "
 1035      70753D63 
 1035      6F727465 
 1035      782D6D34 
 1035      2720272D 
 1036 0033 272D6767 		.ascii	"'-ggdb' '-O0' '-fomit-frame-pointer' '-falign-funct"
 1036      64622720 
 1036      272D4F30 
 1036      2720272D 
 1036      666F6D69 
 1037 0066 696F6E73 		.ascii	"ions=16' '-ffunction-sections' '-fdata-sections' '-"
 1037      3D313627 
 1037      20272D66 
 1037      66756E63 
 1037      74696F6E 
 1038 0099 666E6F2D 		.ascii	"fno-common' '-flto'\000"
 1038      636F6D6D 
 1038      6F6E2720 
 1038      272D666C 
 1038      746F2700 
 1039              		.text
 1040              		.cfi_sections	.debug_frame
 1041              		.section	.text.port_lock,"ax",%progbits
 1042              		.align	2
 1043              		.p2align 4,,15
 1044              		.thumb
 1045              		.thumb_func
 1046              		.type	port_lock, %function
 1047              	port_lock:
 1048              	.LFB127:
 1049              		.file 1 "lib/ChibiOS_16.1.4//os/rt/ports/ARMCMx/chcore_v7m.h"
 1050              		.loc 1 456 0
 1051              		.cfi_startproc
 1052              		@ args = 0, pretend = 0, frame = 8
 1053              		@ frame_needed = 0, uses_anonymous_args = 0
 1054              		@ link register save eliminated.
 1055 0000 82B0     		sub	sp, sp, #8
 1056              		.cfi_def_cfa_offset 8
 1057 0002 2023     		movs	r3, #32
 1058 0004 0193     		str	r3, [sp, #4]
 1059              	.LBB6:
 1060              	.LBB7:
 1061              		.file 2 "lib/ChibiOS_16.1.4//os/ext/CMSIS/include/core_cmFunc.h"
 1062              		.loc 2 548 0
 1063 0006 019B     		ldr	r3, [sp, #4]
 1064              	@ 548 "lib/ChibiOS_16.1.4//os/ext/CMSIS/include/core_cmFunc.h" 1
 1065 0008 83F31188 		MSR basepri, r3
 1066              	@ 0 "" 2
 1067              		.thumb
 1068              	.LBE7:
 1069              	.LBE6:
 1070              		.loc 1 473 0
 1071 000c 02B0     		add	sp, sp, #8
ARM GAS  /tmp/ccCDU11I.s 			page 83


 1072              		@ sp needed
 1073 000e 7047     		bx	lr
 1074              		.cfi_endproc
 1075              	.LFE127:
 1076              		.size	port_lock, .-port_lock
 1077              		.section	.text.port_unlock,"ax",%progbits
 1078              		.align	2
 1079              		.p2align 4,,15
 1080              		.thumb
 1081              		.thumb_func
 1082              		.type	port_unlock, %function
 1083              	port_unlock:
 1084              	.LFB128:
 1085              		.loc 1 480 0
 1086              		.cfi_startproc
 1087              		@ args = 0, pretend = 0, frame = 8
 1088              		@ frame_needed = 0, uses_anonymous_args = 0
 1089              		@ link register save eliminated.
 1090 0000 82B0     		sub	sp, sp, #8
 1091              		.cfi_def_cfa_offset 8
 1092 0002 0023     		movs	r3, #0
 1093 0004 0193     		str	r3, [sp, #4]
 1094              	.LBB8:
 1095              	.LBB9:
 1096              		.loc 2 548 0
 1097 0006 019B     		ldr	r3, [sp, #4]
 1098              	@ 548 "lib/ChibiOS_16.1.4//os/ext/CMSIS/include/core_cmFunc.h" 1
 1099 0008 83F31188 		MSR basepri, r3
 1100              	@ 0 "" 2
 1101              		.thumb
 1102              	.LBE9:
 1103              	.LBE8:
 1104              		.loc 1 487 0
 1105 000c 02B0     		add	sp, sp, #8
 1106              		@ sp needed
 1107 000e 7047     		bx	lr
 1108              		.cfi_endproc
 1109              	.LFE128:
 1110              		.size	port_unlock, .-port_unlock
 1111              		.section	.text.chSysLock,"ax",%progbits
 1112              		.align	2
 1113              		.p2align 4,,15
 1114              		.thumb
 1115              		.thumb_func
 1116              		.type	chSysLock, %function
 1117              	chSysLock:
 1118              	.LFB167:
 1119              		.file 3 "lib/ChibiOS_16.1.4//os/rt/include/chsys.h"
 1120              		.loc 3 346 0
 1121              		.cfi_startproc
 1122              		@ args = 0, pretend = 0, frame = 0
 1123              		@ frame_needed = 0, uses_anonymous_args = 0
 1124 0000 08B5     		push	{r3, lr}
 1125              		.cfi_def_cfa_offset 8
 1126              		.cfi_offset 3, -8
 1127              		.cfi_offset 14, -4
 1128              		.loc 3 348 0
ARM GAS  /tmp/ccCDU11I.s 			page 84


 1129 0002 FFF7FEFF 		bl	port_lock
 1130              		.loc 3 349 0
 1131 0006 FFF7FEFF 		bl	_stats_start_measure_crit_thd
 1132              		.loc 3 350 0
 1133 000a FFF7FEFF 		bl	_dbg_check_lock
 1134              		.loc 3 351 0
 1135 000e 08BD     		pop	{r3, pc}
 1136              		.cfi_endproc
 1137              	.LFE167:
 1138              		.size	chSysLock, .-chSysLock
 1139              		.section	.text.chSysUnlock,"ax",%progbits
 1140              		.align	2
 1141              		.p2align 4,,15
 1142              		.thumb
 1143              		.thumb_func
 1144              		.type	chSysUnlock, %function
 1145              	chSysUnlock:
 1146              	.LFB168:
 1147              		.loc 3 358 0
 1148              		.cfi_startproc
 1149              		@ args = 0, pretend = 0, frame = 0
 1150              		@ frame_needed = 0, uses_anonymous_args = 0
 1151 0000 08B5     		push	{r3, lr}
 1152              		.cfi_def_cfa_offset 8
 1153              		.cfi_offset 3, -8
 1154              		.cfi_offset 14, -4
 1155              		.loc 3 360 0
 1156 0002 FFF7FEFF 		bl	_dbg_check_unlock
 1157              		.loc 3 361 0
 1158 0006 FFF7FEFF 		bl	_stats_stop_measure_crit_thd
 1159              		.loc 3 367 0
 1160 000a 40F20003 		movw	r3, #:lower16:ch
 1161 000e C0F20003 		movt	r3, #:upper16:ch
 1162 0012 1A68     		ldr	r2, [r3]
 1163 0014 40F20003 		movw	r3, #:lower16:ch
 1164 0018 C0F20003 		movt	r3, #:upper16:ch
 1165 001c 9A42     		cmp	r2, r3
 1166 001e 13D0     		beq	.L5
 1167              		.loc 3 367 0 is_stmt 0 discriminator 1
 1168 0020 40F20003 		movw	r3, #:lower16:ch
 1169 0024 C0F20003 		movt	r3, #:upper16:ch
 1170 0028 9B69     		ldr	r3, [r3, #24]
 1171 002a 9A68     		ldr	r2, [r3, #8]
 1172 002c 40F20003 		movw	r3, #:lower16:ch
 1173 0030 C0F20003 		movt	r3, #:upper16:ch
 1174 0034 1B68     		ldr	r3, [r3]
 1175 0036 9B68     		ldr	r3, [r3, #8]
 1176 0038 9A42     		cmp	r2, r3
 1177 003a 05D2     		bcs	.L5
 1178 003c 40F20000 		movw	r0, #:lower16:__func__.5915
 1179 0040 C0F20000 		movt	r0, #:upper16:__func__.5915
 1180 0044 FFF7FEFF 		bl	chSysHalt
 1181              	.L5:
 1182              		.loc 3 371 0 is_stmt 1
 1183 0048 FFF7FEFF 		bl	port_unlock
 1184              		.loc 3 372 0
 1185 004c 08BD     		pop	{r3, pc}
ARM GAS  /tmp/ccCDU11I.s 			page 85


 1186              		.cfi_endproc
 1187              	.LFE168:
 1188              		.size	chSysUnlock, .-chSysUnlock
 1189 004e 00BF     		.section	.text.chSemFastWaitI,"ax",%progbits
 1190              		.align	2
 1191              		.p2align 4,,15
 1192              		.thumb
 1193              		.thumb_func
 1194              		.type	chSemFastWaitI, %function
 1195              	chSemFastWaitI:
 1196              	.LFB201:
 1197              		.file 4 "lib/ChibiOS_16.1.4//os/rt/include/chsem.h"
 1198              		.loc 4 118 0
 1199              		.cfi_startproc
 1200              		@ args = 0, pretend = 0, frame = 8
 1201              		@ frame_needed = 0, uses_anonymous_args = 0
 1202 0000 00B5     		push	{lr}
 1203              		.cfi_def_cfa_offset 4
 1204              		.cfi_offset 14, -4
 1205 0002 83B0     		sub	sp, sp, #12
 1206              		.cfi_def_cfa_offset 16
 1207 0004 0190     		str	r0, [sp, #4]
 1208              		.loc 4 120 0
 1209 0006 FFF7FEFF 		bl	chDbgCheckClassI
 1210              		.loc 4 122 0
 1211 000a 019B     		ldr	r3, [sp, #4]
 1212 000c 9B68     		ldr	r3, [r3, #8]
 1213 000e 5A1E     		subs	r2, r3, #1
 1214 0010 019B     		ldr	r3, [sp, #4]
 1215 0012 9A60     		str	r2, [r3, #8]
 1216              		.loc 4 123 0
 1217 0014 03B0     		add	sp, sp, #12
 1218              		@ sp needed
 1219 0016 5DF804FB 		ldr	pc, [sp], #4
 1220              		.cfi_endproc
 1221              	.LFE201:
 1222              		.size	chSemFastWaitI, .-chSemFastWaitI
 1223 001a 00BFAFF3 		.section	.text.chSemGetCounterI,"ax",%progbits
 1223      0080
 1224              		.align	2
 1225              		.p2align 4,,15
 1226              		.thumb
 1227              		.thumb_func
 1228              		.type	chSemGetCounterI, %function
 1229              	chSemGetCounterI:
 1230              	.LFB203:
 1231              		.loc 4 149 0
 1232              		.cfi_startproc
 1233              		@ args = 0, pretend = 0, frame = 8
 1234              		@ frame_needed = 0, uses_anonymous_args = 0
 1235 0000 00B5     		push	{lr}
 1236              		.cfi_def_cfa_offset 4
 1237              		.cfi_offset 14, -4
 1238 0002 83B0     		sub	sp, sp, #12
 1239              		.cfi_def_cfa_offset 16
 1240 0004 0190     		str	r0, [sp, #4]
 1241              		.loc 4 151 0
ARM GAS  /tmp/ccCDU11I.s 			page 86


 1242 0006 FFF7FEFF 		bl	chDbgCheckClassI
 1243              		.loc 4 153 0
 1244 000a 019B     		ldr	r3, [sp, #4]
 1245 000c 9B68     		ldr	r3, [r3, #8]
 1246              		.loc 4 154 0
 1247 000e 1846     		mov	r0, r3
 1248 0010 03B0     		add	sp, sp, #12
 1249              		@ sp needed
 1250 0012 5DF804FB 		ldr	pc, [sp], #4
 1251              		.cfi_endproc
 1252              	.LFE203:
 1253              		.size	chSemGetCounterI, .-chSemGetCounterI
 1254 0016 00BFAFF3 		.section	.text.chMBObjectInit,"ax",%progbits
 1254      0080AFF3 
 1254      0080
 1255              		.align	2
 1256              		.p2align 4,,15
 1257              		.global	chMBObjectInit
 1258              		.thumb
 1259              		.thumb_func
 1260              		.type	chMBObjectInit, %function
 1261              	chMBObjectInit:
 1262              	.LFB241:
 1263              		.file 5 "lib/ChibiOS_16.1.4//os/rt/src/chmboxes.c"
 1264              		.loc 5 86 0
 1265              		.cfi_startproc
 1266              		@ args = 0, pretend = 0, frame = 16
 1267              		@ frame_needed = 0, uses_anonymous_args = 0
 1268 0000 00B5     		push	{lr}
 1269              		.cfi_def_cfa_offset 4
 1270              		.cfi_offset 14, -4
 1271 0002 85B0     		sub	sp, sp, #20
 1272              		.cfi_def_cfa_offset 24
 1273 0004 0390     		str	r0, [sp, #12]
 1274 0006 0291     		str	r1, [sp, #8]
 1275 0008 0192     		str	r2, [sp, #4]
 1276              		.loc 5 88 0
 1277 000a 039B     		ldr	r3, [sp, #12]
 1278 000c 002B     		cmp	r3, #0
 1279 000e 05D0     		beq	.L10
 1280              		.loc 5 88 0 is_stmt 0 discriminator 2
 1281 0010 029B     		ldr	r3, [sp, #8]
 1282 0012 002B     		cmp	r3, #0
 1283 0014 02D0     		beq	.L10
 1284              		.loc 5 88 0 discriminator 1
 1285 0016 019B     		ldr	r3, [sp, #4]
 1286 0018 002B     		cmp	r3, #0
 1287 001a 05DC     		bgt	.L11
 1288              	.L10:
 1289 001c 40F20000 		movw	r0, #:lower16:__func__.6615
 1290 0020 C0F20000 		movt	r0, #:upper16:__func__.6615
 1291 0024 FFF7FEFF 		bl	chSysHalt
 1292              	.L11:
 1293              		.loc 5 90 0 is_stmt 1
 1294 0028 039B     		ldr	r3, [sp, #12]
 1295 002a 029A     		ldr	r2, [sp, #8]
 1296 002c 1A60     		str	r2, [r3]
ARM GAS  /tmp/ccCDU11I.s 			page 87


 1297              		.loc 5 91 0
 1298 002e 039B     		ldr	r3, [sp, #12]
 1299 0030 029A     		ldr	r2, [sp, #8]
 1300 0032 DA60     		str	r2, [r3, #12]
 1301              		.loc 5 92 0
 1302 0034 039B     		ldr	r3, [sp, #12]
 1303 0036 029A     		ldr	r2, [sp, #8]
 1304 0038 9A60     		str	r2, [r3, #8]
 1305              		.loc 5 93 0
 1306 003a 019B     		ldr	r3, [sp, #4]
 1307 003c 9B00     		lsls	r3, r3, #2
 1308 003e 029A     		ldr	r2, [sp, #8]
 1309 0040 1A44     		add	r2, r2, r3
 1310 0042 039B     		ldr	r3, [sp, #12]
 1311 0044 5A60     		str	r2, [r3, #4]
 1312              		.loc 5 94 0
 1313 0046 039B     		ldr	r3, [sp, #12]
 1314 0048 1C33     		adds	r3, r3, #28
 1315 004a 1846     		mov	r0, r3
 1316 004c 0199     		ldr	r1, [sp, #4]
 1317 004e FFF7FEFF 		bl	chSemObjectInit
 1318              		.loc 5 95 0
 1319 0052 039B     		ldr	r3, [sp, #12]
 1320 0054 1033     		adds	r3, r3, #16
 1321 0056 1846     		mov	r0, r3
 1322 0058 0021     		movs	r1, #0
 1323 005a FFF7FEFF 		bl	chSemObjectInit
 1324              		.loc 5 96 0
 1325 005e 05B0     		add	sp, sp, #20
 1326              		@ sp needed
 1327 0060 5DF804FB 		ldr	pc, [sp], #4
 1328              		.cfi_endproc
 1329              	.LFE241:
 1330              		.size	chMBObjectInit, .-chMBObjectInit
 1331 0064 AFF30080 		.section	.text.chMBReset,"ax",%progbits
 1331      AFF30080 
 1331      AFF30080 
 1332              		.align	2
 1333              		.p2align 4,,15
 1334              		.global	chMBReset
 1335              		.thumb
 1336              		.thumb_func
 1337              		.type	chMBReset, %function
 1338              	chMBReset:
 1339              	.LFB242:
 1340              		.loc 5 107 0
 1341              		.cfi_startproc
 1342              		@ args = 0, pretend = 0, frame = 8
 1343              		@ frame_needed = 0, uses_anonymous_args = 0
 1344 0000 00B5     		push	{lr}
 1345              		.cfi_def_cfa_offset 4
 1346              		.cfi_offset 14, -4
 1347 0002 83B0     		sub	sp, sp, #12
 1348              		.cfi_def_cfa_offset 16
 1349 0004 0190     		str	r0, [sp, #4]
 1350              		.loc 5 109 0
 1351 0006 FFF7FEFF 		bl	chSysLock
ARM GAS  /tmp/ccCDU11I.s 			page 88


 1352              		.loc 5 110 0
 1353 000a 0198     		ldr	r0, [sp, #4]
 1354 000c FFF7FEFF 		bl	chMBResetI
 1355              		.loc 5 111 0
 1356 0010 FFF7FEFF 		bl	chSchRescheduleS
 1357              		.loc 5 112 0
 1358 0014 FFF7FEFF 		bl	chSysUnlock
 1359              		.loc 5 113 0
 1360 0018 03B0     		add	sp, sp, #12
 1361              		@ sp needed
 1362 001a 5DF804FB 		ldr	pc, [sp], #4
 1363              		.cfi_endproc
 1364              	.LFE242:
 1365              		.size	chMBReset, .-chMBReset
 1366 001e 00BF     		.section	.text.chMBResetI,"ax",%progbits
 1367              		.align	2
 1368              		.p2align 4,,15
 1369              		.global	chMBResetI
 1370              		.thumb
 1371              		.thumb_func
 1372              		.type	chMBResetI, %function
 1373              	chMBResetI:
 1374              	.LFB243:
 1375              		.loc 5 124 0
 1376              		.cfi_startproc
 1377              		@ args = 0, pretend = 0, frame = 8
 1378              		@ frame_needed = 0, uses_anonymous_args = 0
 1379 0000 00B5     		push	{lr}
 1380              		.cfi_def_cfa_offset 4
 1381              		.cfi_offset 14, -4
 1382 0002 83B0     		sub	sp, sp, #12
 1383              		.cfi_def_cfa_offset 16
 1384 0004 0190     		str	r0, [sp, #4]
 1385              		.loc 5 126 0
 1386 0006 FFF7FEFF 		bl	chDbgCheckClassI
 1387              		.loc 5 127 0
 1388 000a 019B     		ldr	r3, [sp, #4]
 1389 000c 002B     		cmp	r3, #0
 1390 000e 05D1     		bne	.L14
 1391              		.loc 5 127 0 is_stmt 0 discriminator 1
 1392 0010 40F20000 		movw	r0, #:lower16:__func__.6622
 1393 0014 C0F20000 		movt	r0, #:upper16:__func__.6622
 1394 0018 FFF7FEFF 		bl	chSysHalt
 1395              	.L14:
 1396              		.loc 5 129 0 is_stmt 1
 1397 001c 019B     		ldr	r3, [sp, #4]
 1398 001e 1A68     		ldr	r2, [r3]
 1399 0020 019B     		ldr	r3, [sp, #4]
 1400 0022 9A60     		str	r2, [r3, #8]
 1401              		.loc 5 130 0
 1402 0024 019B     		ldr	r3, [sp, #4]
 1403 0026 1A68     		ldr	r2, [r3]
 1404 0028 019B     		ldr	r3, [sp, #4]
 1405 002a DA60     		str	r2, [r3, #12]
 1406              		.loc 5 131 0
 1407 002c 019B     		ldr	r3, [sp, #4]
 1408 002e 03F11C02 		add	r2, r3, #28
ARM GAS  /tmp/ccCDU11I.s 			page 89


 1409 0032 019B     		ldr	r3, [sp, #4]
 1410 0034 5B68     		ldr	r3, [r3, #4]
 1411 0036 1946     		mov	r1, r3
 1412 0038 019B     		ldr	r3, [sp, #4]
 1413 003a 1B68     		ldr	r3, [r3]
 1414 003c CB1A     		subs	r3, r1, r3
 1415 003e 9B10     		asrs	r3, r3, #2
 1416 0040 1046     		mov	r0, r2
 1417 0042 1946     		mov	r1, r3
 1418 0044 FFF7FEFF 		bl	chSemResetI
 1419              		.loc 5 132 0
 1420 0048 019B     		ldr	r3, [sp, #4]
 1421 004a 1033     		adds	r3, r3, #16
 1422 004c 1846     		mov	r0, r3
 1423 004e 0021     		movs	r1, #0
 1424 0050 FFF7FEFF 		bl	chSemResetI
 1425              		.loc 5 133 0
 1426 0054 03B0     		add	sp, sp, #12
 1427              		@ sp needed
 1428 0056 5DF804FB 		ldr	pc, [sp], #4
 1429              		.cfi_endproc
 1430              	.LFE243:
 1431              		.size	chMBResetI, .-chMBResetI
 1432 005a 00BFAFF3 		.section	.text.chMBPost,"ax",%progbits
 1432      0080
 1433              		.align	2
 1434              		.p2align 4,,15
 1435              		.global	chMBPost
 1436              		.thumb
 1437              		.thumb_func
 1438              		.type	chMBPost, %function
 1439              	chMBPost:
 1440              	.LFB244:
 1441              		.loc 5 154 0
 1442              		.cfi_startproc
 1443              		@ args = 0, pretend = 0, frame = 24
 1444              		@ frame_needed = 0, uses_anonymous_args = 0
 1445 0000 00B5     		push	{lr}
 1446              		.cfi_def_cfa_offset 4
 1447              		.cfi_offset 14, -4
 1448 0002 87B0     		sub	sp, sp, #28
 1449              		.cfi_def_cfa_offset 32
 1450 0004 0390     		str	r0, [sp, #12]
 1451 0006 0291     		str	r1, [sp, #8]
 1452 0008 0192     		str	r2, [sp, #4]
 1453              		.loc 5 157 0
 1454 000a FFF7FEFF 		bl	chSysLock
 1455              		.loc 5 158 0
 1456 000e 0398     		ldr	r0, [sp, #12]
 1457 0010 0299     		ldr	r1, [sp, #8]
 1458 0012 019A     		ldr	r2, [sp, #4]
 1459 0014 FFF7FEFF 		bl	chMBPostS
 1460 0018 0590     		str	r0, [sp, #20]
 1461              		.loc 5 159 0
 1462 001a FFF7FEFF 		bl	chSysUnlock
 1463              		.loc 5 161 0
 1464 001e 059B     		ldr	r3, [sp, #20]
ARM GAS  /tmp/ccCDU11I.s 			page 90


 1465              		.loc 5 162 0
 1466 0020 1846     		mov	r0, r3
 1467 0022 07B0     		add	sp, sp, #28
 1468              		@ sp needed
 1469 0024 5DF804FB 		ldr	pc, [sp], #4
 1470              		.cfi_endproc
 1471              	.LFE244:
 1472              		.size	chMBPost, .-chMBPost
 1473 0028 AFF30080 		.section	.text.chMBPostS,"ax",%progbits
 1473      AFF30080 
 1474              		.align	2
 1475              		.p2align 4,,15
 1476              		.global	chMBPostS
 1477              		.thumb
 1478              		.thumb_func
 1479              		.type	chMBPostS, %function
 1480              	chMBPostS:
 1481              	.LFB245:
 1482              		.loc 5 183 0
 1483              		.cfi_startproc
 1484              		@ args = 0, pretend = 0, frame = 24
 1485              		@ frame_needed = 0, uses_anonymous_args = 0
 1486 0000 00B5     		push	{lr}
 1487              		.cfi_def_cfa_offset 4
 1488              		.cfi_offset 14, -4
 1489 0002 87B0     		sub	sp, sp, #28
 1490              		.cfi_def_cfa_offset 32
 1491 0004 0390     		str	r0, [sp, #12]
 1492 0006 0291     		str	r1, [sp, #8]
 1493 0008 0192     		str	r2, [sp, #4]
 1494              		.loc 5 186 0
 1495 000a FFF7FEFF 		bl	chDbgCheckClassS
 1496              		.loc 5 187 0
 1497 000e 039B     		ldr	r3, [sp, #12]
 1498 0010 002B     		cmp	r3, #0
 1499 0012 05D1     		bne	.L18
 1500              		.loc 5 187 0 is_stmt 0 discriminator 1
 1501 0014 40F20000 		movw	r0, #:lower16:__func__.6635
 1502 0018 C0F20000 		movt	r0, #:upper16:__func__.6635
 1503 001c FFF7FEFF 		bl	chSysHalt
 1504              	.L18:
 1505              		.loc 5 189 0 is_stmt 1
 1506 0020 039B     		ldr	r3, [sp, #12]
 1507 0022 1C33     		adds	r3, r3, #28
 1508 0024 1846     		mov	r0, r3
 1509 0026 0199     		ldr	r1, [sp, #4]
 1510 0028 FFF7FEFF 		bl	chSemWaitTimeoutS
 1511 002c 0590     		str	r0, [sp, #20]
 1512              		.loc 5 190 0
 1513 002e 059B     		ldr	r3, [sp, #20]
 1514 0030 002B     		cmp	r3, #0
 1515 0032 17D1     		bne	.L19
 1516              		.loc 5 191 0
 1517 0034 039B     		ldr	r3, [sp, #12]
 1518 0036 9B68     		ldr	r3, [r3, #8]
 1519 0038 191D     		adds	r1, r3, #4
 1520 003a 039A     		ldr	r2, [sp, #12]
ARM GAS  /tmp/ccCDU11I.s 			page 91


 1521 003c 9160     		str	r1, [r2, #8]
 1522 003e 029A     		ldr	r2, [sp, #8]
 1523 0040 1A60     		str	r2, [r3]
 1524              		.loc 5 192 0
 1525 0042 039B     		ldr	r3, [sp, #12]
 1526 0044 9A68     		ldr	r2, [r3, #8]
 1527 0046 039B     		ldr	r3, [sp, #12]
 1528 0048 5B68     		ldr	r3, [r3, #4]
 1529 004a 9A42     		cmp	r2, r3
 1530 004c 03D3     		bcc	.L20
 1531              		.loc 5 193 0
 1532 004e 039B     		ldr	r3, [sp, #12]
 1533 0050 1A68     		ldr	r2, [r3]
 1534 0052 039B     		ldr	r3, [sp, #12]
 1535 0054 9A60     		str	r2, [r3, #8]
 1536              	.L20:
 1537              		.loc 5 195 0
 1538 0056 039B     		ldr	r3, [sp, #12]
 1539 0058 1033     		adds	r3, r3, #16
 1540 005a 1846     		mov	r0, r3
 1541 005c FFF7FEFF 		bl	chSemSignalI
 1542              		.loc 5 196 0
 1543 0060 FFF7FEFF 		bl	chSchRescheduleS
 1544              	.L19:
 1545              		.loc 5 199 0
 1546 0064 059B     		ldr	r3, [sp, #20]
 1547              		.loc 5 200 0
 1548 0066 1846     		mov	r0, r3
 1549 0068 07B0     		add	sp, sp, #28
 1550              		@ sp needed
 1551 006a 5DF804FB 		ldr	pc, [sp], #4
 1552              		.cfi_endproc
 1553              	.LFE245:
 1554              		.size	chMBPostS, .-chMBPostS
 1555 006e 00BF     		.section	.text.chMBPostI,"ax",%progbits
 1556              		.align	2
 1557              		.p2align 4,,15
 1558              		.global	chMBPostI
 1559              		.thumb
 1560              		.thumb_func
 1561              		.type	chMBPostI, %function
 1562              	chMBPostI:
 1563              	.LFB246:
 1564              		.loc 5 216 0
 1565              		.cfi_startproc
 1566              		@ args = 0, pretend = 0, frame = 8
 1567              		@ frame_needed = 0, uses_anonymous_args = 0
 1568 0000 00B5     		push	{lr}
 1569              		.cfi_def_cfa_offset 4
 1570              		.cfi_offset 14, -4
 1571 0002 83B0     		sub	sp, sp, #12
 1572              		.cfi_def_cfa_offset 16
 1573 0004 0190     		str	r0, [sp, #4]
 1574 0006 0091     		str	r1, [sp]
 1575              		.loc 5 218 0
 1576 0008 FFF7FEFF 		bl	chDbgCheckClassI
 1577              		.loc 5 219 0
ARM GAS  /tmp/ccCDU11I.s 			page 92


 1578 000c 019B     		ldr	r3, [sp, #4]
 1579 000e 002B     		cmp	r3, #0
 1580 0010 05D1     		bne	.L23
 1581              		.loc 5 219 0 is_stmt 0 discriminator 1
 1582 0012 40F20000 		movw	r0, #:lower16:__func__.6640
 1583 0016 C0F20000 		movt	r0, #:upper16:__func__.6640
 1584 001a FFF7FEFF 		bl	chSysHalt
 1585              	.L23:
 1586              		.loc 5 221 0 is_stmt 1
 1587 001e 019B     		ldr	r3, [sp, #4]
 1588 0020 1C33     		adds	r3, r3, #28
 1589 0022 1846     		mov	r0, r3
 1590 0024 FFF7FEFF 		bl	chSemGetCounterI
 1591 0028 0346     		mov	r3, r0
 1592 002a 002B     		cmp	r3, #0
 1593 002c 02DC     		bgt	.L24
 1594              		.loc 5 222 0
 1595 002e 4FF0FF33 		mov	r3, #-1
 1596 0032 1BE0     		b	.L25
 1597              	.L24:
 1598              		.loc 5 225 0
 1599 0034 019B     		ldr	r3, [sp, #4]
 1600 0036 1C33     		adds	r3, r3, #28
 1601 0038 1846     		mov	r0, r3
 1602 003a FFF7FEFF 		bl	chSemFastWaitI
 1603              		.loc 5 226 0
 1604 003e 019B     		ldr	r3, [sp, #4]
 1605 0040 9B68     		ldr	r3, [r3, #8]
 1606 0042 191D     		adds	r1, r3, #4
 1607 0044 019A     		ldr	r2, [sp, #4]
 1608 0046 9160     		str	r1, [r2, #8]
 1609 0048 009A     		ldr	r2, [sp]
 1610 004a 1A60     		str	r2, [r3]
 1611              		.loc 5 227 0
 1612 004c 019B     		ldr	r3, [sp, #4]
 1613 004e 9A68     		ldr	r2, [r3, #8]
 1614 0050 019B     		ldr	r3, [sp, #4]
 1615 0052 5B68     		ldr	r3, [r3, #4]
 1616 0054 9A42     		cmp	r2, r3
 1617 0056 03D3     		bcc	.L26
 1618              		.loc 5 228 0
 1619 0058 019B     		ldr	r3, [sp, #4]
 1620 005a 1A68     		ldr	r2, [r3]
 1621 005c 019B     		ldr	r3, [sp, #4]
 1622 005e 9A60     		str	r2, [r3, #8]
 1623              	.L26:
 1624              		.loc 5 230 0
 1625 0060 019B     		ldr	r3, [sp, #4]
 1626 0062 1033     		adds	r3, r3, #16
 1627 0064 1846     		mov	r0, r3
 1628 0066 FFF7FEFF 		bl	chSemSignalI
 1629              		.loc 5 232 0
 1630 006a 0023     		movs	r3, #0
 1631              	.L25:
 1632              		.loc 5 233 0
 1633 006c 1846     		mov	r0, r3
 1634 006e 03B0     		add	sp, sp, #12
ARM GAS  /tmp/ccCDU11I.s 			page 93


 1635              		@ sp needed
 1636 0070 5DF804FB 		ldr	pc, [sp], #4
 1637              		.cfi_endproc
 1638              	.LFE246:
 1639              		.size	chMBPostI, .-chMBPostI
 1640 0074 AFF30080 		.section	.text.chMBPostAhead,"ax",%progbits
 1640      AFF30080 
 1640      AFF30080 
 1641              		.align	2
 1642              		.p2align 4,,15
 1643              		.global	chMBPostAhead
 1644              		.thumb
 1645              		.thumb_func
 1646              		.type	chMBPostAhead, %function
 1647              	chMBPostAhead:
 1648              	.LFB247:
 1649              		.loc 5 254 0
 1650              		.cfi_startproc
 1651              		@ args = 0, pretend = 0, frame = 24
 1652              		@ frame_needed = 0, uses_anonymous_args = 0
 1653 0000 00B5     		push	{lr}
 1654              		.cfi_def_cfa_offset 4
 1655              		.cfi_offset 14, -4
 1656 0002 87B0     		sub	sp, sp, #28
 1657              		.cfi_def_cfa_offset 32
 1658 0004 0390     		str	r0, [sp, #12]
 1659 0006 0291     		str	r1, [sp, #8]
 1660 0008 0192     		str	r2, [sp, #4]
 1661              		.loc 5 257 0
 1662 000a FFF7FEFF 		bl	chSysLock
 1663              		.loc 5 258 0
 1664 000e 0398     		ldr	r0, [sp, #12]
 1665 0010 0299     		ldr	r1, [sp, #8]
 1666 0012 019A     		ldr	r2, [sp, #4]
 1667 0014 FFF7FEFF 		bl	chMBPostAheadS
 1668 0018 0590     		str	r0, [sp, #20]
 1669              		.loc 5 259 0
 1670 001a FFF7FEFF 		bl	chSysUnlock
 1671              		.loc 5 261 0
 1672 001e 059B     		ldr	r3, [sp, #20]
 1673              		.loc 5 262 0
 1674 0020 1846     		mov	r0, r3
 1675 0022 07B0     		add	sp, sp, #28
 1676              		@ sp needed
 1677 0024 5DF804FB 		ldr	pc, [sp], #4
 1678              		.cfi_endproc
 1679              	.LFE247:
 1680              		.size	chMBPostAhead, .-chMBPostAhead
 1681 0028 AFF30080 		.section	.text.chMBPostAheadS,"ax",%progbits
 1681      AFF30080 
 1682              		.align	2
 1683              		.p2align 4,,15
 1684              		.global	chMBPostAheadS
 1685              		.thumb
 1686              		.thumb_func
 1687              		.type	chMBPostAheadS, %function
 1688              	chMBPostAheadS:
ARM GAS  /tmp/ccCDU11I.s 			page 94


 1689              	.LFB248:
 1690              		.loc 5 283 0
 1691              		.cfi_startproc
 1692              		@ args = 0, pretend = 0, frame = 24
 1693              		@ frame_needed = 0, uses_anonymous_args = 0
 1694 0000 00B5     		push	{lr}
 1695              		.cfi_def_cfa_offset 4
 1696              		.cfi_offset 14, -4
 1697 0002 87B0     		sub	sp, sp, #28
 1698              		.cfi_def_cfa_offset 32
 1699 0004 0390     		str	r0, [sp, #12]
 1700 0006 0291     		str	r1, [sp, #8]
 1701 0008 0192     		str	r2, [sp, #4]
 1702              		.loc 5 286 0
 1703 000a FFF7FEFF 		bl	chDbgCheckClassS
 1704              		.loc 5 287 0
 1705 000e 039B     		ldr	r3, [sp, #12]
 1706 0010 002B     		cmp	r3, #0
 1707 0012 05D1     		bne	.L30
 1708              		.loc 5 287 0 is_stmt 0 discriminator 1
 1709 0014 40F20000 		movw	r0, #:lower16:__func__.6653
 1710 0018 C0F20000 		movt	r0, #:upper16:__func__.6653
 1711 001c FFF7FEFF 		bl	chSysHalt
 1712              	.L30:
 1713              		.loc 5 289 0 is_stmt 1
 1714 0020 039B     		ldr	r3, [sp, #12]
 1715 0022 1C33     		adds	r3, r3, #28
 1716 0024 1846     		mov	r0, r3
 1717 0026 0199     		ldr	r1, [sp, #4]
 1718 0028 FFF7FEFF 		bl	chSemWaitTimeoutS
 1719 002c 0590     		str	r0, [sp, #20]
 1720              		.loc 5 290 0
 1721 002e 059B     		ldr	r3, [sp, #20]
 1722 0030 002B     		cmp	r3, #0
 1723 0032 1AD1     		bne	.L31
 1724              		.loc 5 291 0
 1725 0034 039B     		ldr	r3, [sp, #12]
 1726 0036 DB68     		ldr	r3, [r3, #12]
 1727 0038 1A1F     		subs	r2, r3, #4
 1728 003a 039B     		ldr	r3, [sp, #12]
 1729 003c DA60     		str	r2, [r3, #12]
 1730 003e 039B     		ldr	r3, [sp, #12]
 1731 0040 DA68     		ldr	r2, [r3, #12]
 1732 0042 039B     		ldr	r3, [sp, #12]
 1733 0044 1B68     		ldr	r3, [r3]
 1734 0046 9A42     		cmp	r2, r3
 1735 0048 04D2     		bcs	.L32
 1736              		.loc 5 292 0
 1737 004a 039B     		ldr	r3, [sp, #12]
 1738 004c 5B68     		ldr	r3, [r3, #4]
 1739 004e 1A1F     		subs	r2, r3, #4
 1740 0050 039B     		ldr	r3, [sp, #12]
 1741 0052 DA60     		str	r2, [r3, #12]
 1742              	.L32:
 1743              		.loc 5 294 0
 1744 0054 039B     		ldr	r3, [sp, #12]
 1745 0056 DB68     		ldr	r3, [r3, #12]
ARM GAS  /tmp/ccCDU11I.s 			page 95


 1746 0058 029A     		ldr	r2, [sp, #8]
 1747 005a 1A60     		str	r2, [r3]
 1748              		.loc 5 295 0
 1749 005c 039B     		ldr	r3, [sp, #12]
 1750 005e 1033     		adds	r3, r3, #16
 1751 0060 1846     		mov	r0, r3
 1752 0062 FFF7FEFF 		bl	chSemSignalI
 1753              		.loc 5 296 0
 1754 0066 FFF7FEFF 		bl	chSchRescheduleS
 1755              	.L31:
 1756              		.loc 5 299 0
 1757 006a 059B     		ldr	r3, [sp, #20]
 1758              		.loc 5 300 0
 1759 006c 1846     		mov	r0, r3
 1760 006e 07B0     		add	sp, sp, #28
 1761              		@ sp needed
 1762 0070 5DF804FB 		ldr	pc, [sp], #4
 1763              		.cfi_endproc
 1764              	.LFE248:
 1765              		.size	chMBPostAheadS, .-chMBPostAheadS
 1766 0074 AFF30080 		.section	.text.chMBPostAheadI,"ax",%progbits
 1766      AFF30080 
 1766      AFF30080 
 1767              		.align	2
 1768              		.p2align 4,,15
 1769              		.global	chMBPostAheadI
 1770              		.thumb
 1771              		.thumb_func
 1772              		.type	chMBPostAheadI, %function
 1773              	chMBPostAheadI:
 1774              	.LFB249:
 1775              		.loc 5 316 0
 1776              		.cfi_startproc
 1777              		@ args = 0, pretend = 0, frame = 8
 1778              		@ frame_needed = 0, uses_anonymous_args = 0
 1779 0000 00B5     		push	{lr}
 1780              		.cfi_def_cfa_offset 4
 1781              		.cfi_offset 14, -4
 1782 0002 83B0     		sub	sp, sp, #12
 1783              		.cfi_def_cfa_offset 16
 1784 0004 0190     		str	r0, [sp, #4]
 1785 0006 0091     		str	r1, [sp]
 1786              		.loc 5 318 0
 1787 0008 FFF7FEFF 		bl	chDbgCheckClassI
 1788              		.loc 5 319 0
 1789 000c 019B     		ldr	r3, [sp, #4]
 1790 000e 002B     		cmp	r3, #0
 1791 0010 05D1     		bne	.L35
 1792              		.loc 5 319 0 is_stmt 0 discriminator 1
 1793 0012 40F20000 		movw	r0, #:lower16:__func__.6658
 1794 0016 C0F20000 		movt	r0, #:upper16:__func__.6658
 1795 001a FFF7FEFF 		bl	chSysHalt
 1796              	.L35:
 1797              		.loc 5 321 0 is_stmt 1
 1798 001e 019B     		ldr	r3, [sp, #4]
 1799 0020 1C33     		adds	r3, r3, #28
 1800 0022 1846     		mov	r0, r3
ARM GAS  /tmp/ccCDU11I.s 			page 96


 1801 0024 FFF7FEFF 		bl	chSemGetCounterI
 1802 0028 0346     		mov	r3, r0
 1803 002a 002B     		cmp	r3, #0
 1804 002c 02DC     		bgt	.L36
 1805              		.loc 5 322 0
 1806 002e 4FF0FF33 		mov	r3, #-1
 1807 0032 1EE0     		b	.L37
 1808              	.L36:
 1809              		.loc 5 324 0
 1810 0034 019B     		ldr	r3, [sp, #4]
 1811 0036 1C33     		adds	r3, r3, #28
 1812 0038 1846     		mov	r0, r3
 1813 003a FFF7FEFF 		bl	chSemFastWaitI
 1814              		.loc 5 325 0
 1815 003e 019B     		ldr	r3, [sp, #4]
 1816 0040 DB68     		ldr	r3, [r3, #12]
 1817 0042 1A1F     		subs	r2, r3, #4
 1818 0044 019B     		ldr	r3, [sp, #4]
 1819 0046 DA60     		str	r2, [r3, #12]
 1820 0048 019B     		ldr	r3, [sp, #4]
 1821 004a DA68     		ldr	r2, [r3, #12]
 1822 004c 019B     		ldr	r3, [sp, #4]
 1823 004e 1B68     		ldr	r3, [r3]
 1824 0050 9A42     		cmp	r2, r3
 1825 0052 04D2     		bcs	.L38
 1826              		.loc 5 326 0
 1827 0054 019B     		ldr	r3, [sp, #4]
 1828 0056 5B68     		ldr	r3, [r3, #4]
 1829 0058 1A1F     		subs	r2, r3, #4
 1830 005a 019B     		ldr	r3, [sp, #4]
 1831 005c DA60     		str	r2, [r3, #12]
 1832              	.L38:
 1833              		.loc 5 328 0
 1834 005e 019B     		ldr	r3, [sp, #4]
 1835 0060 DB68     		ldr	r3, [r3, #12]
 1836 0062 009A     		ldr	r2, [sp]
 1837 0064 1A60     		str	r2, [r3]
 1838              		.loc 5 329 0
 1839 0066 019B     		ldr	r3, [sp, #4]
 1840 0068 1033     		adds	r3, r3, #16
 1841 006a 1846     		mov	r0, r3
 1842 006c FFF7FEFF 		bl	chSemSignalI
 1843              		.loc 5 331 0
 1844 0070 0023     		movs	r3, #0
 1845              	.L37:
 1846              		.loc 5 332 0
 1847 0072 1846     		mov	r0, r3
 1848 0074 03B0     		add	sp, sp, #12
 1849              		@ sp needed
 1850 0076 5DF804FB 		ldr	pc, [sp], #4
 1851              		.cfi_endproc
 1852              	.LFE249:
 1853              		.size	chMBPostAheadI, .-chMBPostAheadI
 1854 007a 00BFAFF3 		.section	.text.chMBFetch,"ax",%progbits
 1854      0080
 1855              		.align	2
 1856              		.p2align 4,,15
ARM GAS  /tmp/ccCDU11I.s 			page 97


 1857              		.global	chMBFetch
 1858              		.thumb
 1859              		.thumb_func
 1860              		.type	chMBFetch, %function
 1861              	chMBFetch:
 1862              	.LFB250:
 1863              		.loc 5 353 0
 1864              		.cfi_startproc
 1865              		@ args = 0, pretend = 0, frame = 24
 1866              		@ frame_needed = 0, uses_anonymous_args = 0
 1867 0000 00B5     		push	{lr}
 1868              		.cfi_def_cfa_offset 4
 1869              		.cfi_offset 14, -4
 1870 0002 87B0     		sub	sp, sp, #28
 1871              		.cfi_def_cfa_offset 32
 1872 0004 0390     		str	r0, [sp, #12]
 1873 0006 0291     		str	r1, [sp, #8]
 1874 0008 0192     		str	r2, [sp, #4]
 1875              		.loc 5 356 0
 1876 000a FFF7FEFF 		bl	chSysLock
 1877              		.loc 5 357 0
 1878 000e 0398     		ldr	r0, [sp, #12]
 1879 0010 0299     		ldr	r1, [sp, #8]
 1880 0012 019A     		ldr	r2, [sp, #4]
 1881 0014 FFF7FEFF 		bl	chMBFetchS
 1882 0018 0590     		str	r0, [sp, #20]
 1883              		.loc 5 358 0
 1884 001a FFF7FEFF 		bl	chSysUnlock
 1885              		.loc 5 360 0
 1886 001e 059B     		ldr	r3, [sp, #20]
 1887              		.loc 5 361 0
 1888 0020 1846     		mov	r0, r3
 1889 0022 07B0     		add	sp, sp, #28
 1890              		@ sp needed
 1891 0024 5DF804FB 		ldr	pc, [sp], #4
 1892              		.cfi_endproc
 1893              	.LFE250:
 1894              		.size	chMBFetch, .-chMBFetch
 1895 0028 AFF30080 		.section	.text.chMBFetchS,"ax",%progbits
 1895      AFF30080 
 1896              		.align	2
 1897              		.p2align 4,,15
 1898              		.global	chMBFetchS
 1899              		.thumb
 1900              		.thumb_func
 1901              		.type	chMBFetchS, %function
 1902              	chMBFetchS:
 1903              	.LFB251:
 1904              		.loc 5 382 0
 1905              		.cfi_startproc
 1906              		@ args = 0, pretend = 0, frame = 24
 1907              		@ frame_needed = 0, uses_anonymous_args = 0
 1908 0000 00B5     		push	{lr}
 1909              		.cfi_def_cfa_offset 4
 1910              		.cfi_offset 14, -4
 1911 0002 87B0     		sub	sp, sp, #28
 1912              		.cfi_def_cfa_offset 32
ARM GAS  /tmp/ccCDU11I.s 			page 98


 1913 0004 0390     		str	r0, [sp, #12]
 1914 0006 0291     		str	r1, [sp, #8]
 1915 0008 0192     		str	r2, [sp, #4]
 1916              		.loc 5 385 0
 1917 000a FFF7FEFF 		bl	chDbgCheckClassS
 1918              		.loc 5 386 0
 1919 000e 039B     		ldr	r3, [sp, #12]
 1920 0010 002B     		cmp	r3, #0
 1921 0012 02D0     		beq	.L42
 1922              		.loc 5 386 0 is_stmt 0 discriminator 2
 1923 0014 029B     		ldr	r3, [sp, #8]
 1924 0016 002B     		cmp	r3, #0
 1925 0018 05D1     		bne	.L43
 1926              	.L42:
 1927              		.loc 5 386 0 discriminator 1
 1928 001a 40F20000 		movw	r0, #:lower16:__func__.6671
 1929 001e C0F20000 		movt	r0, #:upper16:__func__.6671
 1930 0022 FFF7FEFF 		bl	chSysHalt
 1931              	.L43:
 1932              		.loc 5 388 0 is_stmt 1
 1933 0026 039B     		ldr	r3, [sp, #12]
 1934 0028 1033     		adds	r3, r3, #16
 1935 002a 1846     		mov	r0, r3
 1936 002c 0199     		ldr	r1, [sp, #4]
 1937 002e FFF7FEFF 		bl	chSemWaitTimeoutS
 1938 0032 0590     		str	r0, [sp, #20]
 1939              		.loc 5 389 0
 1940 0034 059B     		ldr	r3, [sp, #20]
 1941 0036 002B     		cmp	r3, #0
 1942 0038 18D1     		bne	.L44
 1943              		.loc 5 390 0
 1944 003a 039B     		ldr	r3, [sp, #12]
 1945 003c DB68     		ldr	r3, [r3, #12]
 1946 003e 191D     		adds	r1, r3, #4
 1947 0040 039A     		ldr	r2, [sp, #12]
 1948 0042 D160     		str	r1, [r2, #12]
 1949 0044 1A68     		ldr	r2, [r3]
 1950 0046 029B     		ldr	r3, [sp, #8]
 1951 0048 1A60     		str	r2, [r3]
 1952              		.loc 5 391 0
 1953 004a 039B     		ldr	r3, [sp, #12]
 1954 004c DA68     		ldr	r2, [r3, #12]
 1955 004e 039B     		ldr	r3, [sp, #12]
 1956 0050 5B68     		ldr	r3, [r3, #4]
 1957 0052 9A42     		cmp	r2, r3
 1958 0054 03D3     		bcc	.L45
 1959              		.loc 5 392 0
 1960 0056 039B     		ldr	r3, [sp, #12]
 1961 0058 1A68     		ldr	r2, [r3]
 1962 005a 039B     		ldr	r3, [sp, #12]
 1963 005c DA60     		str	r2, [r3, #12]
 1964              	.L45:
 1965              		.loc 5 394 0
 1966 005e 039B     		ldr	r3, [sp, #12]
 1967 0060 1C33     		adds	r3, r3, #28
 1968 0062 1846     		mov	r0, r3
 1969 0064 FFF7FEFF 		bl	chSemSignalI
ARM GAS  /tmp/ccCDU11I.s 			page 99


 1970              		.loc 5 395 0
 1971 0068 FFF7FEFF 		bl	chSchRescheduleS
 1972              	.L44:
 1973              		.loc 5 398 0
 1974 006c 059B     		ldr	r3, [sp, #20]
 1975              		.loc 5 399 0
 1976 006e 1846     		mov	r0, r3
 1977 0070 07B0     		add	sp, sp, #28
 1978              		@ sp needed
 1979 0072 5DF804FB 		ldr	pc, [sp], #4
 1980              		.cfi_endproc
 1981              	.LFE251:
 1982              		.size	chMBFetchS, .-chMBFetchS
 1983 0076 00BFAFF3 		.section	.text.chMBFetchI,"ax",%progbits
 1983      0080AFF3 
 1983      0080
 1984              		.align	2
 1985              		.p2align 4,,15
 1986              		.global	chMBFetchI
 1987              		.thumb
 1988              		.thumb_func
 1989              		.type	chMBFetchI, %function
 1990              	chMBFetchI:
 1991              	.LFB252:
 1992              		.loc 5 415 0
 1993              		.cfi_startproc
 1994              		@ args = 0, pretend = 0, frame = 8
 1995              		@ frame_needed = 0, uses_anonymous_args = 0
 1996 0000 00B5     		push	{lr}
 1997              		.cfi_def_cfa_offset 4
 1998              		.cfi_offset 14, -4
 1999 0002 83B0     		sub	sp, sp, #12
 2000              		.cfi_def_cfa_offset 16
 2001 0004 0190     		str	r0, [sp, #4]
 2002 0006 0091     		str	r1, [sp]
 2003              		.loc 5 417 0
 2004 0008 FFF7FEFF 		bl	chDbgCheckClassI
 2005              		.loc 5 418 0
 2006 000c 019B     		ldr	r3, [sp, #4]
 2007 000e 002B     		cmp	r3, #0
 2008 0010 02D0     		beq	.L48
 2009              		.loc 5 418 0 is_stmt 0 discriminator 2
 2010 0012 009B     		ldr	r3, [sp]
 2011 0014 002B     		cmp	r3, #0
 2012 0016 05D1     		bne	.L49
 2013              	.L48:
 2014              		.loc 5 418 0 discriminator 1
 2015 0018 40F20000 		movw	r0, #:lower16:__func__.6676
 2016 001c C0F20000 		movt	r0, #:upper16:__func__.6676
 2017 0020 FFF7FEFF 		bl	chSysHalt
 2018              	.L49:
 2019              		.loc 5 420 0 is_stmt 1
 2020 0024 019B     		ldr	r3, [sp, #4]
 2021 0026 1033     		adds	r3, r3, #16
 2022 0028 1846     		mov	r0, r3
 2023 002a FFF7FEFF 		bl	chSemGetCounterI
 2024 002e 0346     		mov	r3, r0
ARM GAS  /tmp/ccCDU11I.s 			page 100


 2025 0030 002B     		cmp	r3, #0
 2026 0032 02DC     		bgt	.L50
 2027              		.loc 5 421 0
 2028 0034 4FF0FF33 		mov	r3, #-1
 2029 0038 1CE0     		b	.L51
 2030              	.L50:
 2031              		.loc 5 423 0
 2032 003a 019B     		ldr	r3, [sp, #4]
 2033 003c 1033     		adds	r3, r3, #16
 2034 003e 1846     		mov	r0, r3
 2035 0040 FFF7FEFF 		bl	chSemFastWaitI
 2036              		.loc 5 424 0
 2037 0044 019B     		ldr	r3, [sp, #4]
 2038 0046 DB68     		ldr	r3, [r3, #12]
 2039 0048 191D     		adds	r1, r3, #4
 2040 004a 019A     		ldr	r2, [sp, #4]
 2041 004c D160     		str	r1, [r2, #12]
 2042 004e 1A68     		ldr	r2, [r3]
 2043 0050 009B     		ldr	r3, [sp]
 2044 0052 1A60     		str	r2, [r3]
 2045              		.loc 5 425 0
 2046 0054 019B     		ldr	r3, [sp, #4]
 2047 0056 DA68     		ldr	r2, [r3, #12]
 2048 0058 019B     		ldr	r3, [sp, #4]
 2049 005a 5B68     		ldr	r3, [r3, #4]
 2050 005c 9A42     		cmp	r2, r3
 2051 005e 03D3     		bcc	.L52
 2052              		.loc 5 426 0
 2053 0060 019B     		ldr	r3, [sp, #4]
 2054 0062 1A68     		ldr	r2, [r3]
 2055 0064 019B     		ldr	r3, [sp, #4]
 2056 0066 DA60     		str	r2, [r3, #12]
 2057              	.L52:
 2058              		.loc 5 428 0
 2059 0068 019B     		ldr	r3, [sp, #4]
 2060 006a 1C33     		adds	r3, r3, #28
 2061 006c 1846     		mov	r0, r3
 2062 006e FFF7FEFF 		bl	chSemSignalI
 2063              		.loc 5 430 0
 2064 0072 0023     		movs	r3, #0
 2065              	.L51:
 2066              		.loc 5 431 0
 2067 0074 1846     		mov	r0, r3
 2068 0076 03B0     		add	sp, sp, #12
 2069              		@ sp needed
 2070 0078 5DF804FB 		ldr	pc, [sp], #4
 2071              		.cfi_endproc
 2072              	.LFE252:
 2073              		.size	chMBFetchI, .-chMBFetchI
 2074 007c AFF30080 		.section	.rodata.__func__.6615,"a",%progbits
 2075              		.align	2
 2076              		.type	__func__.6615, %object
 2077              		.size	__func__.6615, 15
 2078              	__func__.6615:
 2079 0000 63684D42 		.ascii	"chMBObjectInit\000"
 2079      4F626A65 
 2079      6374496E 
ARM GAS  /tmp/ccCDU11I.s 			page 101


 2079      697400
 2080 000f 00       		.section	.rodata.__func__.5915,"a",%progbits
 2081              		.align	2
 2082              		.type	__func__.5915, %object
 2083              		.size	__func__.5915, 12
 2084              	__func__.5915:
 2085 0000 63685379 		.ascii	"chSysUnlock\000"
 2085      73556E6C 
 2085      6F636B00 
 2086              		.section	.rodata.__func__.6622,"a",%progbits
 2087              		.align	2
 2088              		.type	__func__.6622, %object
 2089              		.size	__func__.6622, 11
 2090              	__func__.6622:
 2091 0000 63684D42 		.ascii	"chMBResetI\000"
 2091      52657365 
 2091      744900
 2092 000b 00       		.section	.rodata.__func__.6635,"a",%progbits
 2093              		.align	2
 2094              		.type	__func__.6635, %object
 2095              		.size	__func__.6635, 10
 2096              	__func__.6635:
 2097 0000 63684D42 		.ascii	"chMBPostS\000"
 2097      506F7374 
 2097      5300
 2098 000a 0000     		.section	.rodata.__func__.6640,"a",%progbits
 2099              		.align	2
 2100              		.type	__func__.6640, %object
 2101              		.size	__func__.6640, 10
 2102              	__func__.6640:
 2103 0000 63684D42 		.ascii	"chMBPostI\000"
 2103      506F7374 
 2103      4900
 2104 000a 0000     		.section	.rodata.__func__.6653,"a",%progbits
 2105              		.align	2
 2106              		.type	__func__.6653, %object
 2107              		.size	__func__.6653, 15
 2108              	__func__.6653:
 2109 0000 63684D42 		.ascii	"chMBPostAheadS\000"
 2109      506F7374 
 2109      41686561 
 2109      645300
 2110 000f 00       		.section	.rodata.__func__.6658,"a",%progbits
 2111              		.align	2
 2112              		.type	__func__.6658, %object
 2113              		.size	__func__.6658, 15
 2114              	__func__.6658:
 2115 0000 63684D42 		.ascii	"chMBPostAheadI\000"
 2115      506F7374 
 2115      41686561 
 2115      644900
 2116 000f 00       		.section	.rodata.__func__.6671,"a",%progbits
 2117              		.align	2
 2118              		.type	__func__.6671, %object
 2119              		.size	__func__.6671, 11
 2120              	__func__.6671:
 2121 0000 63684D42 		.ascii	"chMBFetchS\000"
ARM GAS  /tmp/ccCDU11I.s 			page 102


 2121      46657463 
 2121      685300
 2122 000b 00       		.section	.rodata.__func__.6676,"a",%progbits
 2123              		.align	2
 2124              		.type	__func__.6676, %object
 2125              		.size	__func__.6676, 11
 2126              	__func__.6676:
 2127 0000 63684D42 		.ascii	"chMBFetchI\000"
 2127      46657463 
 2127      684900
 2128 000b 00       		.text
 2129              	.Letext0:
 2130              		.file 6 "/usr/include/newlib/machine/_default_types.h"
 2131              		.file 7 "/usr/include/newlib/stdint.h"
 2132              		.file 8 "lib/ChibiOS_16.1.4//os/rt/ports/ARMCMx/compilers/GCC/chtypes.h"
 2133              		.file 9 "lib/ChibiOS_16.1.4//os/rt/include/chsystypes.h"
 2134              		.file 10 "lib/ChibiOS_16.1.4//os/rt/include/chschd.h"
 2135              		.file 11 "lib/ChibiOS_16.1.4//os/rt/ports/ARMCMx/chcore.h"
 2136              		.file 12 "lib/ChibiOS_16.1.4//os/rt/include/chdebug.h"
 2137              		.file 13 "lib/ChibiOS_16.1.4//os/rt/include/chtm.h"
 2138              		.file 14 "lib/ChibiOS_16.1.4//os/rt/include/chstats.h"
 2139              		.file 15 "lib/ChibiOS_16.1.4//os/rt/include/chmtx.h"
 2140              		.file 16 "lib/ChibiOS_16.1.4//os/rt/include/chmboxes.h"
 2141              		.file 17 "lib/ChibiOS_16.1.4//os/ext/CMSIS/include/core_cm4.h"
 2142              		.section	.debug_info,"",%progbits
 2143              	.Ldebug_info0:
 2144 0000 450D0000 		.4byte	0xd45
 2145 0004 0400     		.2byte	0x4
 2146 0006 00000000 		.4byte	.Ldebug_abbrev0
 2147 000a 04       		.byte	0x4
 2148 000b 01       		.uleb128 0x1
 2149 000c 59030000 		.4byte	.LASF164
 2150 0010 01       		.byte	0x1
 2151 0011 2B020000 		.4byte	.LASF165
 2152 0015 80010000 		.4byte	.LASF166
 2153 0019 00000000 		.4byte	.Ldebug_ranges0+0
 2154 001d 00000000 		.4byte	0
 2155 0021 00000000 		.4byte	.Ldebug_line0
 2156 0025 02       		.uleb128 0x2
 2157 0026 04       		.byte	0x4
 2158 0027 05       		.byte	0x5
 2159 0028 696E7400 		.ascii	"int\000"
 2160 002c 03       		.uleb128 0x3
 2161 002d 04       		.byte	0x4
 2162 002e 07       		.byte	0x7
 2163 002f A5020000 		.4byte	.LASF0
 2164 0033 03       		.uleb128 0x3
 2165 0034 01       		.byte	0x1
 2166 0035 06       		.byte	0x6
 2167 0036 74010000 		.4byte	.LASF1
 2168 003a 04       		.uleb128 0x4
 2169 003b 4D000000 		.4byte	.LASF5
 2170 003f 06       		.byte	0x6
 2171 0040 1C       		.byte	0x1c
 2172 0041 45000000 		.4byte	0x45
 2173 0045 03       		.uleb128 0x3
 2174 0046 01       		.byte	0x1
ARM GAS  /tmp/ccCDU11I.s 			page 103


 2175 0047 08       		.byte	0x8
 2176 0048 76050000 		.4byte	.LASF2
 2177 004c 03       		.uleb128 0x3
 2178 004d 02       		.byte	0x2
 2179 004e 05       		.byte	0x5
 2180 004f A2050000 		.4byte	.LASF3
 2181 0053 03       		.uleb128 0x3
 2182 0054 02       		.byte	0x2
 2183 0055 07       		.byte	0x7
 2184 0056 53010000 		.4byte	.LASF4
 2185 005a 04       		.uleb128 0x4
 2186 005b 29040000 		.4byte	.LASF6
 2187 005f 06       		.byte	0x6
 2188 0060 37       		.byte	0x37
 2189 0061 65000000 		.4byte	0x65
 2190 0065 03       		.uleb128 0x3
 2191 0066 04       		.byte	0x4
 2192 0067 05       		.byte	0x5
 2193 0068 D9010000 		.4byte	.LASF7
 2194 006c 04       		.uleb128 0x4
 2195 006d 89020000 		.4byte	.LASF8
 2196 0071 06       		.byte	0x6
 2197 0072 38       		.byte	0x38
 2198 0073 77000000 		.4byte	0x77
 2199 0077 03       		.uleb128 0x3
 2200 0078 04       		.byte	0x4
 2201 0079 07       		.byte	0x7
 2202 007a 4E060000 		.4byte	.LASF9
 2203 007e 03       		.uleb128 0x3
 2204 007f 08       		.byte	0x8
 2205 0080 05       		.byte	0x5
 2206 0081 66010000 		.4byte	.LASF10
 2207 0085 04       		.uleb128 0x4
 2208 0086 10050000 		.4byte	.LASF11
 2209 008a 06       		.byte	0x6
 2210 008b 4E       		.byte	0x4e
 2211 008c 90000000 		.4byte	0x90
 2212 0090 03       		.uleb128 0x3
 2213 0091 08       		.byte	0x8
 2214 0092 07       		.byte	0x7
 2215 0093 CE000000 		.4byte	.LASF12
 2216 0097 04       		.uleb128 0x4
 2217 0098 5D070000 		.4byte	.LASF13
 2218 009c 07       		.byte	0x7
 2219 009d 2A       		.byte	0x2a
 2220 009e 3A000000 		.4byte	0x3a
 2221 00a2 04       		.uleb128 0x4
 2222 00a3 6E050000 		.4byte	.LASF14
 2223 00a7 07       		.byte	0x7
 2224 00a8 41       		.byte	0x41
 2225 00a9 5A000000 		.4byte	0x5a
 2226 00ad 04       		.uleb128 0x4
 2227 00ae 1D060000 		.4byte	.LASF15
 2228 00b2 07       		.byte	0x7
 2229 00b3 42       		.byte	0x42
 2230 00b4 6C000000 		.4byte	0x6c
 2231 00b8 04       		.uleb128 0x4
ARM GAS  /tmp/ccCDU11I.s 			page 104


 2232 00b9 37000000 		.4byte	.LASF16
 2233 00bd 07       		.byte	0x7
 2234 00be 4E       		.byte	0x4e
 2235 00bf 85000000 		.4byte	0x85
 2236 00c3 04       		.uleb128 0x4
 2237 00c4 06070000 		.4byte	.LASF17
 2238 00c8 08       		.byte	0x8
 2239 00c9 39       		.byte	0x39
 2240 00ca AD000000 		.4byte	0xad
 2241 00ce 04       		.uleb128 0x4
 2242 00cf 43010000 		.4byte	.LASF18
 2243 00d3 08       		.byte	0x8
 2244 00d4 3A       		.byte	0x3a
 2245 00d5 B8000000 		.4byte	0xb8
 2246 00d9 04       		.uleb128 0x4
 2247 00da FC030000 		.4byte	.LASF19
 2248 00de 08       		.byte	0x8
 2249 00df 3C       		.byte	0x3c
 2250 00e0 97000000 		.4byte	0x97
 2251 00e4 04       		.uleb128 0x4
 2252 00e5 E2010000 		.4byte	.LASF20
 2253 00e9 08       		.byte	0x8
 2254 00ea 3D       		.byte	0x3d
 2255 00eb 97000000 		.4byte	0x97
 2256 00ef 04       		.uleb128 0x4
 2257 00f0 34050000 		.4byte	.LASF21
 2258 00f4 08       		.byte	0x8
 2259 00f5 3E       		.byte	0x3e
 2260 00f6 97000000 		.4byte	0x97
 2261 00fa 04       		.uleb128 0x4
 2262 00fb 5D050000 		.4byte	.LASF22
 2263 00ff 08       		.byte	0x8
 2264 0100 40       		.byte	0x40
 2265 0101 AD000000 		.4byte	0xad
 2266 0105 04       		.uleb128 0x4
 2267 0106 26030000 		.4byte	.LASF23
 2268 010a 08       		.byte	0x8
 2269 010b 41       		.byte	0x41
 2270 010c A2000000 		.4byte	0xa2
 2271 0110 04       		.uleb128 0x4
 2272 0111 1D040000 		.4byte	.LASF24
 2273 0115 08       		.byte	0x8
 2274 0116 43       		.byte	0x43
 2275 0117 AD000000 		.4byte	0xad
 2276 011b 04       		.uleb128 0x4
 2277 011c 94020000 		.4byte	.LASF25
 2278 0120 08       		.byte	0x8
 2279 0121 45       		.byte	0x45
 2280 0122 A2000000 		.4byte	0xa2
 2281 0126 04       		.uleb128 0x4
 2282 0127 31030000 		.4byte	.LASF26
 2283 012b 08       		.byte	0x8
 2284 012c 46       		.byte	0x46
 2285 012d AD000000 		.4byte	0xad
 2286 0131 04       		.uleb128 0x4
 2287 0132 7A060000 		.4byte	.LASF27
 2288 0136 09       		.byte	0x9
ARM GAS  /tmp/ccCDU11I.s 			page 105


 2289 0137 33       		.byte	0x33
 2290 0138 AD000000 		.4byte	0xad
 2291 013c 04       		.uleb128 0x4
 2292 013d 65060000 		.4byte	.LASF28
 2293 0141 09       		.byte	0x9
 2294 0142 3F       		.byte	0x3f
 2295 0143 47010000 		.4byte	0x147
 2296 0147 05       		.uleb128 0x5
 2297 0148 06030000 		.4byte	.LASF50
 2298 014c 60       		.byte	0x60
 2299 014d 0A       		.byte	0xa
 2300 014e C2       		.byte	0xc2
 2301 014f 4D020000 		.4byte	0x24d
 2302 0153 06       		.uleb128 0x6
 2303 0154 C2050000 		.4byte	.LASF29
 2304 0158 0A       		.byte	0xa
 2305 0159 C3       		.byte	0xc3
 2306 015a 58020000 		.4byte	0x258
 2307 015e 00       		.byte	0
 2308 015f 06       		.uleb128 0x6
 2309 0160 56050000 		.4byte	.LASF30
 2310 0164 0A       		.byte	0xa
 2311 0165 C5       		.byte	0xc5
 2312 0166 58020000 		.4byte	0x258
 2313 016a 04       		.byte	0x4
 2314 016b 06       		.uleb128 0x6
 2315 016c 4C010000 		.4byte	.LASF31
 2316 0170 0A       		.byte	0xa
 2317 0171 C7       		.byte	0xc7
 2318 0172 FA000000 		.4byte	0xfa
 2319 0176 08       		.byte	0x8
 2320 0177 06       		.uleb128 0x6
 2321 0178 C8070000 		.4byte	.LASF32
 2322 017c 0A       		.byte	0xa
 2323 017d C8       		.byte	0xc8
 2324 017e C1040000 		.4byte	0x4c1
 2325 0182 0C       		.byte	0xc
 2326 0183 06       		.uleb128 0x6
 2327 0184 F1010000 		.4byte	.LASF33
 2328 0188 0A       		.byte	0xa
 2329 0189 CA       		.byte	0xca
 2330 018a 58020000 		.4byte	0x258
 2331 018e 10       		.byte	0x10
 2332 018f 06       		.uleb128 0x6
 2333 0190 C0040000 		.4byte	.LASF34
 2334 0194 0A       		.byte	0xa
 2335 0195 CB       		.byte	0xcb
 2336 0196 58020000 		.4byte	0x258
 2337 019a 14       		.byte	0x14
 2338 019b 06       		.uleb128 0x6
 2339 019c 6C070000 		.4byte	.LASF35
 2340 01a0 0A       		.byte	0xa
 2341 01a1 D2       		.byte	0xd2
 2342 01a2 65070000 		.4byte	0x765
 2343 01a6 18       		.byte	0x18
 2344 01a7 06       		.uleb128 0x6
 2345 01a8 9A020000 		.4byte	.LASF36
ARM GAS  /tmp/ccCDU11I.s 			page 106


 2346 01ac 0A       		.byte	0xa
 2347 01ad D8       		.byte	0xd8
 2348 01ae 77070000 		.4byte	0x777
 2349 01b2 1C       		.byte	0x1c
 2350 01b3 06       		.uleb128 0x6
 2351 01b4 AC050000 		.4byte	.LASF37
 2352 01b8 0A       		.byte	0xa
 2353 01b9 DD       		.byte	0xdd
 2354 01ba E4000000 		.4byte	0xe4
 2355 01be 20       		.byte	0x20
 2356 01bf 06       		.uleb128 0x6
 2357 01c0 C9050000 		.4byte	.LASF38
 2358 01c4 0A       		.byte	0xa
 2359 01c5 E1       		.byte	0xe1
 2360 01c6 D9000000 		.4byte	0xd9
 2361 01ca 21       		.byte	0x21
 2362 01cb 06       		.uleb128 0x6
 2363 01cc 48070000 		.4byte	.LASF39
 2364 01d0 0A       		.byte	0xa
 2365 01d1 E6       		.byte	0xe6
 2366 01d2 EF000000 		.4byte	0xef
 2367 01d6 22       		.byte	0x22
 2368 01d7 07       		.uleb128 0x7
 2369 01d8 705F7500 		.ascii	"p_u\000"
 2370 01dc 0A       		.byte	0xa
 2371 01dd 3101     		.2byte	0x131
 2372 01df A0060000 		.4byte	0x6a0
 2373 01e3 24       		.byte	0x24
 2374 01e4 08       		.uleb128 0x8
 2375 01e5 43040000 		.4byte	.LASF40
 2376 01e9 0A       		.byte	0xa
 2377 01ea 3601     		.2byte	0x136
 2378 01ec 5E020000 		.4byte	0x25e
 2379 01f0 28       		.byte	0x28
 2380 01f1 08       		.uleb128 0x8
 2381 01f2 C1020000 		.4byte	.LASF41
 2382 01f6 0A       		.byte	0xa
 2383 01f7 3C01     		.2byte	0x13c
 2384 01f9 82020000 		.4byte	0x282
 2385 01fd 2C       		.byte	0x2c
 2386 01fe 08       		.uleb128 0x8
 2387 01ff 9B070000 		.4byte	.LASF42
 2388 0203 0A       		.byte	0xa
 2389 0204 4001     		.2byte	0x140
 2390 0206 05010000 		.4byte	0x105
 2391 020a 34       		.byte	0x34
 2392 020b 08       		.uleb128 0x8
 2393 020c 12060000 		.4byte	.LASF43
 2394 0210 0A       		.byte	0xa
 2395 0211 4601     		.2byte	0x146
 2396 0213 10010000 		.4byte	0x110
 2397 0217 38       		.byte	0x38
 2398 0218 08       		.uleb128 0x8
 2399 0219 98050000 		.4byte	.LASF44
 2400 021d 0A       		.byte	0xa
 2401 021e 4D01     		.2byte	0x14d
 2402 0220 5F070000 		.4byte	0x75f
ARM GAS  /tmp/ccCDU11I.s 			page 107


 2403 0224 3C       		.byte	0x3c
 2404 0225 08       		.uleb128 0x8
 2405 0226 84060000 		.4byte	.LASF45
 2406 022a 0A       		.byte	0xa
 2407 022b 5101     		.2byte	0x151
 2408 022d FA000000 		.4byte	0xfa
 2409 0231 40       		.byte	0x40
 2410 0232 08       		.uleb128 0x8
 2411 0233 12020000 		.4byte	.LASF46
 2412 0237 0A       		.byte	0xa
 2413 0238 5801     		.2byte	0x158
 2414 023a 35030000 		.4byte	0x335
 2415 023e 44       		.byte	0x44
 2416 023f 08       		.uleb128 0x8
 2417 0240 D1050000 		.4byte	.LASF47
 2418 0244 0A       		.byte	0xa
 2419 0245 5E01     		.2byte	0x15e
 2420 0247 51060000 		.4byte	0x651
 2421 024b 48       		.byte	0x48
 2422 024c 00       		.byte	0
 2423 024d 04       		.uleb128 0x4
 2424 024e 56040000 		.4byte	.LASF48
 2425 0252 09       		.byte	0x9
 2426 0253 44       		.byte	0x44
 2427 0254 58020000 		.4byte	0x258
 2428 0258 09       		.uleb128 0x9
 2429 0259 04       		.byte	0x4
 2430 025a 3C010000 		.4byte	0x13c
 2431 025e 04       		.uleb128 0x4
 2432 025f 73070000 		.4byte	.LASF49
 2433 0263 09       		.byte	0x9
 2434 0264 49       		.byte	0x49
 2435 0265 69020000 		.4byte	0x269
 2436 0269 05       		.uleb128 0x5
 2437 026a 3E060000 		.4byte	.LASF51
 2438 026e 04       		.byte	0x4
 2439 026f 0A       		.byte	0xa
 2440 0270 B0       		.byte	0xb0
 2441 0271 82020000 		.4byte	0x282
 2442 0275 06       		.uleb128 0x6
 2443 0276 C2050000 		.4byte	.LASF29
 2444 027a 0A       		.byte	0xa
 2445 027b B1       		.byte	0xb1
 2446 027c 58020000 		.4byte	0x258
 2447 0280 00       		.byte	0
 2448 0281 00       		.byte	0
 2449 0282 04       		.uleb128 0x4
 2450 0283 2F070000 		.4byte	.LASF52
 2451 0287 09       		.byte	0x9
 2452 0288 50       		.byte	0x50
 2453 0289 8D020000 		.4byte	0x28d
 2454 028d 05       		.uleb128 0x5
 2455 028e 6D000000 		.4byte	.LASF53
 2456 0292 08       		.byte	0x8
 2457 0293 0A       		.byte	0xa
 2458 0294 B7       		.byte	0xb7
 2459 0295 B2020000 		.4byte	0x2b2
ARM GAS  /tmp/ccCDU11I.s 			page 108


 2460 0299 06       		.uleb128 0x6
 2461 029a C2050000 		.4byte	.LASF29
 2462 029e 0A       		.byte	0xa
 2463 029f B8       		.byte	0xb8
 2464 02a0 58020000 		.4byte	0x258
 2465 02a4 00       		.byte	0
 2466 02a5 06       		.uleb128 0x6
 2467 02a6 56050000 		.4byte	.LASF30
 2468 02aa 0A       		.byte	0xa
 2469 02ab B9       		.byte	0xb9
 2470 02ac 58020000 		.4byte	0x258
 2471 02b0 04       		.byte	0x4
 2472 02b1 00       		.byte	0
 2473 02b2 04       		.uleb128 0x4
 2474 02b3 07000000 		.4byte	.LASF54
 2475 02b7 09       		.byte	0x9
 2476 02b8 57       		.byte	0x57
 2477 02b9 BD020000 		.4byte	0x2bd
 2478 02bd 0A       		.uleb128 0xa
 2479 02be 0F040000 		.4byte	.LASF55
 2480 02c2 1C       		.byte	0x1c
 2481 02c3 0A       		.byte	0xa
 2482 02c4 9001     		.2byte	0x190
 2483 02c6 19030000 		.4byte	0x319
 2484 02ca 08       		.uleb128 0x8
 2485 02cb 2D060000 		.4byte	.LASF56
 2486 02cf 0A       		.byte	0xa
 2487 02d0 9101     		.2byte	0x191
 2488 02d2 82020000 		.4byte	0x282
 2489 02d6 00       		.byte	0
 2490 02d7 08       		.uleb128 0x8
 2491 02d8 B4050000 		.4byte	.LASF57
 2492 02dc 0A       		.byte	0xa
 2493 02dd 9201     		.2byte	0x192
 2494 02df FA000000 		.4byte	0xfa
 2495 02e3 08       		.byte	0x8
 2496 02e4 08       		.uleb128 0x8
 2497 02e5 C8040000 		.4byte	.LASF58
 2498 02e9 0A       		.byte	0xa
 2499 02ea 9401     		.2byte	0x194
 2500 02ec C1040000 		.4byte	0x4c1
 2501 02f0 0C       		.byte	0xc
 2502 02f1 08       		.uleb128 0x8
 2503 02f2 38030000 		.4byte	.LASF59
 2504 02f6 0A       		.byte	0xa
 2505 02f7 9701     		.2byte	0x197
 2506 02f9 58020000 		.4byte	0x258
 2507 02fd 10       		.byte	0x10
 2508 02fe 08       		.uleb128 0x8
 2509 02ff 08050000 		.4byte	.LASF60
 2510 0303 0A       		.byte	0xa
 2511 0304 9801     		.2byte	0x198
 2512 0306 58020000 		.4byte	0x258
 2513 030a 14       		.byte	0x14
 2514 030b 08       		.uleb128 0x8
 2515 030c FE040000 		.4byte	.LASF61
 2516 0310 0A       		.byte	0xa
ARM GAS  /tmp/ccCDU11I.s 			page 109


 2517 0311 9B01     		.2byte	0x19b
 2518 0313 58020000 		.4byte	0x258
 2519 0317 18       		.byte	0x18
 2520 0318 00       		.byte	0
 2521 0319 04       		.uleb128 0x4
 2522 031a 8F060000 		.4byte	.LASF62
 2523 031e 09       		.byte	0x9
 2524 031f 5C       		.byte	0x5c
 2525 0320 24030000 		.4byte	0x324
 2526 0324 09       		.uleb128 0x9
 2527 0325 04       		.byte	0x4
 2528 0326 2A030000 		.4byte	0x32a
 2529 032a 0B       		.uleb128 0xb
 2530 032b 35030000 		.4byte	0x335
 2531 032f 0C       		.uleb128 0xc
 2532 0330 35030000 		.4byte	0x335
 2533 0334 00       		.byte	0
 2534 0335 0D       		.uleb128 0xd
 2535 0336 04       		.byte	0x4
 2536 0337 04       		.uleb128 0x4
 2537 0338 46050000 		.4byte	.LASF63
 2538 033c 09       		.byte	0x9
 2539 033d 61       		.byte	0x61
 2540 033e 42030000 		.4byte	0x342
 2541 0342 0A       		.uleb128 0xa
 2542 0343 F4050000 		.4byte	.LASF64
 2543 0347 14       		.byte	0x14
 2544 0348 0A       		.byte	0xa
 2545 0349 6B01     		.2byte	0x16b
 2546 034b 91030000 		.4byte	0x391
 2547 034f 08       		.uleb128 0x8
 2548 0350 B2020000 		.4byte	.LASF65
 2549 0354 0A       		.byte	0xa
 2550 0355 6C01     		.2byte	0x16c
 2551 0357 7D070000 		.4byte	0x77d
 2552 035b 00       		.byte	0
 2553 035c 08       		.uleb128 0x8
 2554 035d 23020000 		.4byte	.LASF66
 2555 0361 0A       		.byte	0xa
 2556 0362 6D01     		.2byte	0x16d
 2557 0364 7D070000 		.4byte	0x77d
 2558 0368 04       		.byte	0x4
 2559 0369 08       		.uleb128 0x8
 2560 036a 35060000 		.4byte	.LASF67
 2561 036e 0A       		.byte	0xa
 2562 036f 6E01     		.2byte	0x16e
 2563 0371 31010000 		.4byte	0x131
 2564 0375 08       		.byte	0x8
 2565 0376 08       		.uleb128 0x8
 2566 0377 CE070000 		.4byte	.LASF68
 2567 037b 0A       		.byte	0xa
 2568 037c 6F01     		.2byte	0x16f
 2569 037e 19030000 		.4byte	0x319
 2570 0382 0C       		.byte	0xc
 2571 0383 08       		.uleb128 0x8
 2572 0384 0E070000 		.4byte	.LASF69
 2573 0388 0A       		.byte	0xa
ARM GAS  /tmp/ccCDU11I.s 			page 110


 2574 0389 7101     		.2byte	0x171
 2575 038b 35030000 		.4byte	0x335
 2576 038f 10       		.byte	0x10
 2577 0390 00       		.byte	0
 2578 0391 04       		.uleb128 0x4
 2579 0392 24010000 		.4byte	.LASF70
 2580 0396 09       		.byte	0x9
 2581 0397 66       		.byte	0x66
 2582 0398 9C030000 		.4byte	0x39c
 2583 039c 0A       		.uleb128 0xa
 2584 039d 7A040000 		.4byte	.LASF71
 2585 03a1 10       		.byte	0x10
 2586 03a2 0A       		.byte	0xa
 2587 03a3 7B01     		.2byte	0x17b
 2588 03a5 DE030000 		.4byte	0x3de
 2589 03a9 08       		.uleb128 0x8
 2590 03aa B2020000 		.4byte	.LASF65
 2591 03ae 0A       		.byte	0xa
 2592 03af 7C01     		.2byte	0x17c
 2593 03b1 7D070000 		.4byte	0x77d
 2594 03b5 00       		.byte	0
 2595 03b6 08       		.uleb128 0x8
 2596 03b7 23020000 		.4byte	.LASF66
 2597 03bb 0A       		.byte	0xa
 2598 03bc 7E01     		.2byte	0x17e
 2599 03be 7D070000 		.4byte	0x77d
 2600 03c2 04       		.byte	0x4
 2601 03c3 08       		.uleb128 0x8
 2602 03c4 35060000 		.4byte	.LASF67
 2603 03c8 0A       		.byte	0xa
 2604 03c9 8001     		.2byte	0x180
 2605 03cb 31010000 		.4byte	0x131
 2606 03cf 08       		.byte	0x8
 2607 03d0 08       		.uleb128 0x8
 2608 03d1 B4040000 		.4byte	.LASF72
 2609 03d5 0A       		.byte	0xa
 2610 03d6 8801     		.2byte	0x188
 2611 03d8 31010000 		.4byte	0x131
 2612 03dc 0C       		.byte	0xc
 2613 03dd 00       		.byte	0
 2614 03de 04       		.uleb128 0x4
 2615 03df 7E000000 		.4byte	.LASF73
 2616 03e3 09       		.byte	0x9
 2617 03e4 6B       		.byte	0x6b
 2618 03e5 E9030000 		.4byte	0x3e9
 2619 03e9 0E       		.uleb128 0xe
 2620 03ea 54020000 		.4byte	.LASF74
 2621 03ee 1404     		.2byte	0x414
 2622 03f0 0A       		.byte	0xa
 2623 03f1 A201     		.2byte	0x1a2
 2624 03f3 2C040000 		.4byte	0x42c
 2625 03f7 08       		.uleb128 0x8
 2626 03f8 B7060000 		.4byte	.LASF75
 2627 03fc 0A       		.byte	0xa
 2628 03fd AA01     		.2byte	0x1aa
 2629 03ff 83070000 		.4byte	0x783
 2630 0403 00       		.byte	0
ARM GAS  /tmp/ccCDU11I.s 			page 111


 2631 0404 08       		.uleb128 0x8
 2632 0405 4F070000 		.4byte	.LASF76
 2633 0409 0A       		.byte	0xa
 2634 040a AF01     		.2byte	0x1af
 2635 040c 1B010000 		.4byte	0x11b
 2636 0410 04       		.byte	0x4
 2637 0411 08       		.uleb128 0x8
 2638 0412 80020000 		.4byte	.LASF77
 2639 0416 0A       		.byte	0xa
 2640 0417 B301     		.2byte	0x1b3
 2641 0419 1B010000 		.4byte	0x11b
 2642 041d 08       		.byte	0x8
 2643 041e 08       		.uleb128 0x8
 2644 041f 82070000 		.4byte	.LASF78
 2645 0423 0A       		.byte	0xa
 2646 0424 B901     		.2byte	0x1b9
 2647 0426 E3050000 		.4byte	0x5e3
 2648 042a 0C       		.byte	0xc
 2649 042b 00       		.byte	0
 2650 042c 04       		.uleb128 0x4
 2651 042d EC060000 		.4byte	.LASF79
 2652 0431 09       		.byte	0x9
 2653 0432 70       		.byte	0x70
 2654 0433 37040000 		.4byte	0x437
 2655 0437 0E       		.uleb128 0xe
 2656 0438 E3050000 		.4byte	.LASF80
 2657 043c D805     		.2byte	0x5d8
 2658 043e 0A       		.byte	0xa
 2659 043f C201     		.2byte	0x1c2
 2660 0441 A4040000 		.4byte	0x4a4
 2661 0445 08       		.uleb128 0x8
 2662 0446 57070000 		.4byte	.LASF81
 2663 044a 0A       		.byte	0xa
 2664 044b C601     		.2byte	0x1c6
 2665 044d B2020000 		.4byte	0x2b2
 2666 0451 00       		.byte	0
 2667 0452 08       		.uleb128 0x8
 2668 0453 BD010000 		.4byte	.LASF82
 2669 0457 0A       		.byte	0xa
 2670 0458 CA01     		.2byte	0x1ca
 2671 045a 91030000 		.4byte	0x391
 2672 045e 1C       		.byte	0x1c
 2673 045f 07       		.uleb128 0x7
 2674 0460 64626700 		.ascii	"dbg\000"
 2675 0464 0A       		.byte	0xa
 2676 0465 CE01     		.2byte	0x1ce
 2677 0467 DE030000 		.4byte	0x3de
 2678 046b 2C       		.byte	0x2c
 2679 046c 0F       		.uleb128 0xf
 2680 046d 10030000 		.4byte	.LASF83
 2681 0471 0A       		.byte	0xa
 2682 0472 D201     		.2byte	0x1d2
 2683 0474 3C010000 		.4byte	0x13c
 2684 0478 4004     		.2byte	0x440
 2685 047a 10       		.uleb128 0x10
 2686 047b 746D00   		.ascii	"tm\000"
 2687 047e 0A       		.byte	0xa
ARM GAS  /tmp/ccCDU11I.s 			page 112


 2688 047f D701     		.2byte	0x1d7
 2689 0481 03060000 		.4byte	0x603
 2690 0485 A004     		.2byte	0x4a0
 2691 0487 0F       		.uleb128 0xf
 2692 0488 40000000 		.4byte	.LASF84
 2693 048c 0A       		.byte	0xa
 2694 048d DD01     		.2byte	0x1dd
 2695 048f 95060000 		.4byte	0x695
 2696 0493 A804     		.2byte	0x4a8
 2697 0495 0F       		.uleb128 0xf
 2698 0496 8D000000 		.4byte	.LASF85
 2699 049a 0A       		.byte	0xa
 2700 049b E301     		.2byte	0x1e3
 2701 049d 88070000 		.4byte	0x788
 2702 04a1 E004     		.2byte	0x4e0
 2703 04a3 00       		.byte	0
 2704 04a4 03       		.uleb128 0x3
 2705 04a5 04       		.byte	0x4
 2706 04a6 07       		.byte	0x7
 2707 04a7 4D040000 		.4byte	.LASF86
 2708 04ab 04       		.uleb128 0x4
 2709 04ac 1A020000 		.4byte	.LASF87
 2710 04b0 0B       		.byte	0xb
 2711 04b1 65       		.byte	0x65
 2712 04b2 35030000 		.4byte	0x335
 2713 04b6 04       		.uleb128 0x4
 2714 04b7 38040000 		.4byte	.LASF88
 2715 04bb 0B       		.byte	0xb
 2716 04bc 6D       		.byte	0x6d
 2717 04bd B8000000 		.4byte	0xb8
 2718 04c1 05       		.uleb128 0x5
 2719 04c2 D6060000 		.4byte	.LASF89
 2720 04c6 04       		.byte	0x4
 2721 04c7 0B       		.byte	0xb
 2722 04c8 89       		.byte	0x89
 2723 04c9 DA040000 		.4byte	0x4da
 2724 04cd 11       		.uleb128 0x11
 2725 04ce 72313300 		.ascii	"r13\000"
 2726 04d2 0B       		.byte	0xb
 2727 04d3 8A       		.byte	0x8a
 2728 04d4 55050000 		.4byte	0x555
 2729 04d8 00       		.byte	0
 2730 04d9 00       		.byte	0
 2731 04da 05       		.uleb128 0x5
 2732 04db 61000000 		.4byte	.LASF90
 2733 04df 24       		.byte	0x24
 2734 04e0 01       		.byte	0x1
 2735 04e1 FD       		.byte	0xfd
 2736 04e2 55050000 		.4byte	0x555
 2737 04e6 07       		.uleb128 0x7
 2738 04e7 723400   		.ascii	"r4\000"
 2739 04ea 01       		.byte	0x1
 2740 04eb 1001     		.2byte	0x110
 2741 04ed AB040000 		.4byte	0x4ab
 2742 04f1 00       		.byte	0
 2743 04f2 07       		.uleb128 0x7
 2744 04f3 723500   		.ascii	"r5\000"
ARM GAS  /tmp/ccCDU11I.s 			page 113


 2745 04f6 01       		.byte	0x1
 2746 04f7 1101     		.2byte	0x111
 2747 04f9 AB040000 		.4byte	0x4ab
 2748 04fd 04       		.byte	0x4
 2749 04fe 07       		.uleb128 0x7
 2750 04ff 723600   		.ascii	"r6\000"
 2751 0502 01       		.byte	0x1
 2752 0503 1201     		.2byte	0x112
 2753 0505 AB040000 		.4byte	0x4ab
 2754 0509 08       		.byte	0x8
 2755 050a 07       		.uleb128 0x7
 2756 050b 723700   		.ascii	"r7\000"
 2757 050e 01       		.byte	0x1
 2758 050f 1301     		.2byte	0x113
 2759 0511 AB040000 		.4byte	0x4ab
 2760 0515 0C       		.byte	0xc
 2761 0516 07       		.uleb128 0x7
 2762 0517 723800   		.ascii	"r8\000"
 2763 051a 01       		.byte	0x1
 2764 051b 1401     		.2byte	0x114
 2765 051d AB040000 		.4byte	0x4ab
 2766 0521 10       		.byte	0x10
 2767 0522 07       		.uleb128 0x7
 2768 0523 723900   		.ascii	"r9\000"
 2769 0526 01       		.byte	0x1
 2770 0527 1501     		.2byte	0x115
 2771 0529 AB040000 		.4byte	0x4ab
 2772 052d 14       		.byte	0x14
 2773 052e 07       		.uleb128 0x7
 2774 052f 72313000 		.ascii	"r10\000"
 2775 0533 01       		.byte	0x1
 2776 0534 1601     		.2byte	0x116
 2777 0536 AB040000 		.4byte	0x4ab
 2778 053a 18       		.byte	0x18
 2779 053b 07       		.uleb128 0x7
 2780 053c 72313100 		.ascii	"r11\000"
 2781 0540 01       		.byte	0x1
 2782 0541 1701     		.2byte	0x117
 2783 0543 AB040000 		.4byte	0x4ab
 2784 0547 1C       		.byte	0x1c
 2785 0548 07       		.uleb128 0x7
 2786 0549 6C7200   		.ascii	"lr\000"
 2787 054c 01       		.byte	0x1
 2788 054d 1801     		.2byte	0x118
 2789 054f AB040000 		.4byte	0x4ab
 2790 0553 20       		.byte	0x20
 2791 0554 00       		.byte	0
 2792 0555 09       		.uleb128 0x9
 2793 0556 04       		.byte	0x4
 2794 0557 DA040000 		.4byte	0x4da
 2795 055b 12       		.uleb128 0x12
 2796 055c 10       		.byte	0x10
 2797 055d 0C       		.byte	0xc
 2798 055e 51       		.byte	0x51
 2799 055f 94050000 		.4byte	0x594
 2800 0563 06       		.uleb128 0x6
 2801 0564 9F010000 		.4byte	.LASF91
ARM GAS  /tmp/ccCDU11I.s 			page 114


 2802 0568 0C       		.byte	0xc
 2803 0569 55       		.byte	0x55
 2804 056a 31010000 		.4byte	0x131
 2805 056e 00       		.byte	0
 2806 056f 06       		.uleb128 0x6
 2807 0570 EB010000 		.4byte	.LASF92
 2808 0574 0C       		.byte	0xc
 2809 0575 59       		.byte	0x59
 2810 0576 58020000 		.4byte	0x258
 2811 057a 04       		.byte	0x4
 2812 057b 06       		.uleb128 0x6
 2813 057c BE070000 		.4byte	.LASF93
 2814 0580 0C       		.byte	0xc
 2815 0581 5D       		.byte	0x5d
 2816 0582 35030000 		.4byte	0x335
 2817 0586 08       		.byte	0x8
 2818 0587 06       		.uleb128 0x6
 2819 0588 F7000000 		.4byte	.LASF94
 2820 058c 0C       		.byte	0xc
 2821 058d 61       		.byte	0x61
 2822 058e 97000000 		.4byte	0x97
 2823 0592 0C       		.byte	0xc
 2824 0593 00       		.byte	0
 2825 0594 04       		.uleb128 0x4
 2826 0595 A5040000 		.4byte	.LASF95
 2827 0599 0C       		.byte	0xc
 2828 059a 62       		.byte	0x62
 2829 059b 5B050000 		.4byte	0x55b
 2830 059f 13       		.uleb128 0x13
 2831 05a0 0804     		.2byte	0x408
 2832 05a2 0C       		.byte	0xc
 2833 05a3 67       		.byte	0x67
 2834 05a4 CD050000 		.4byte	0x5cd
 2835 05a8 06       		.uleb128 0x6
 2836 05a9 01020000 		.4byte	.LASF96
 2837 05ad 0C       		.byte	0xc
 2838 05ae 6B       		.byte	0x6b
 2839 05af 2C000000 		.4byte	0x2c
 2840 05b3 00       		.byte	0
 2841 05b4 06       		.uleb128 0x6
 2842 05b5 00000000 		.4byte	.LASF97
 2843 05b9 0C       		.byte	0xc
 2844 05ba 6F       		.byte	0x6f
 2845 05bb CD050000 		.4byte	0x5cd
 2846 05bf 04       		.byte	0x4
 2847 05c0 06       		.uleb128 0x6
 2848 05c1 3C050000 		.4byte	.LASF98
 2849 05c5 0C       		.byte	0xc
 2850 05c6 73       		.byte	0x73
 2851 05c7 D3050000 		.4byte	0x5d3
 2852 05cb 08       		.byte	0x8
 2853 05cc 00       		.byte	0
 2854 05cd 09       		.uleb128 0x9
 2855 05ce 04       		.byte	0x4
 2856 05cf 94050000 		.4byte	0x594
 2857 05d3 14       		.uleb128 0x14
 2858 05d4 94050000 		.4byte	0x594
ARM GAS  /tmp/ccCDU11I.s 			page 115


 2859 05d8 E3050000 		.4byte	0x5e3
 2860 05dc 15       		.uleb128 0x15
 2861 05dd A4040000 		.4byte	0x4a4
 2862 05e1 3F       		.byte	0x3f
 2863 05e2 00       		.byte	0
 2864 05e3 04       		.uleb128 0x4
 2865 05e4 E5000000 		.4byte	.LASF99
 2866 05e8 0C       		.byte	0xc
 2867 05e9 74       		.byte	0x74
 2868 05ea 9F050000 		.4byte	0x59f
 2869 05ee 12       		.uleb128 0x12
 2870 05ef 04       		.byte	0x4
 2871 05f0 0D       		.byte	0xd
 2872 05f1 38       		.byte	0x38
 2873 05f2 03060000 		.4byte	0x603
 2874 05f6 06       		.uleb128 0x6
 2875 05f7 C1060000 		.4byte	.LASF100
 2876 05fb 0D       		.byte	0xd
 2877 05fc 3C       		.byte	0x3c
 2878 05fd C3000000 		.4byte	0xc3
 2879 0601 00       		.byte	0
 2880 0602 00       		.byte	0
 2881 0603 04       		.uleb128 0x4
 2882 0604 69040000 		.4byte	.LASF101
 2883 0608 0D       		.byte	0xd
 2884 0609 3D       		.byte	0x3d
 2885 060a EE050000 		.4byte	0x5ee
 2886 060e 12       		.uleb128 0x12
 2887 060f 18       		.byte	0x18
 2888 0610 0D       		.byte	0xd
 2889 0611 48       		.byte	0x48
 2890 0612 51060000 		.4byte	0x651
 2891 0616 06       		.uleb128 0x6
 2892 0617 6E060000 		.4byte	.LASF102
 2893 061b 0D       		.byte	0xd
 2894 061c 49       		.byte	0x49
 2895 061d C3000000 		.4byte	0xc3
 2896 0621 00       		.byte	0
 2897 0622 06       		.uleb128 0x6
 2898 0623 A6000000 		.4byte	.LASF103
 2899 0627 0D       		.byte	0xd
 2900 0628 4A       		.byte	0x4a
 2901 0629 C3000000 		.4byte	0xc3
 2902 062d 04       		.byte	0x4
 2903 062e 06       		.uleb128 0x6
 2904 062f 2C030000 		.4byte	.LASF104
 2905 0633 0D       		.byte	0xd
 2906 0634 4B       		.byte	0x4b
 2907 0635 C3000000 		.4byte	0xc3
 2908 0639 08       		.byte	0x8
 2909 063a 11       		.uleb128 0x11
 2910 063b 6E00     		.ascii	"n\000"
 2911 063d 0D       		.byte	0xd
 2912 063e 4C       		.byte	0x4c
 2913 063f 26010000 		.4byte	0x126
 2914 0643 0C       		.byte	0xc
 2915 0644 06       		.uleb128 0x6
ARM GAS  /tmp/ccCDU11I.s 			page 116


 2916 0645 1B050000 		.4byte	.LASF105
 2917 0649 0D       		.byte	0xd
 2918 064a 4D       		.byte	0x4d
 2919 064b CE000000 		.4byte	0xce
 2920 064f 10       		.byte	0x10
 2921 0650 00       		.byte	0
 2922 0651 04       		.uleb128 0x4
 2923 0652 AC000000 		.4byte	.LASF106
 2924 0656 0D       		.byte	0xd
 2925 0657 4E       		.byte	0x4e
 2926 0658 0E060000 		.4byte	0x60e
 2927 065c 12       		.uleb128 0x12
 2928 065d 38       		.byte	0x38
 2929 065e 0E       		.byte	0xe
 2930 065f 38       		.byte	0x38
 2931 0660 95060000 		.4byte	0x695
 2932 0664 06       		.uleb128 0x6
 2933 0665 E0020000 		.4byte	.LASF107
 2934 0669 0E       		.byte	0xe
 2935 066a 39       		.byte	0x39
 2936 066b 26010000 		.4byte	0x126
 2937 066f 00       		.byte	0
 2938 0670 06       		.uleb128 0x6
 2939 0671 65050000 		.4byte	.LASF108
 2940 0675 0E       		.byte	0xe
 2941 0676 3A       		.byte	0x3a
 2942 0677 26010000 		.4byte	0x126
 2943 067b 04       		.byte	0x4
 2944 067c 06       		.uleb128 0x6
 2945 067d AB070000 		.4byte	.LASF109
 2946 0681 0E       		.byte	0xe
 2947 0682 3B       		.byte	0x3b
 2948 0683 51060000 		.4byte	0x651
 2949 0687 08       		.byte	0x8
 2950 0688 06       		.uleb128 0x6
 2951 0689 04040000 		.4byte	.LASF110
 2952 068d 0E       		.byte	0xe
 2953 068e 3D       		.byte	0x3d
 2954 068f 51060000 		.4byte	0x651
 2955 0693 20       		.byte	0x20
 2956 0694 00       		.byte	0
 2957 0695 04       		.uleb128 0x4
 2958 0696 F7020000 		.4byte	.LASF111
 2959 069a 0E       		.byte	0xe
 2960 069b 3F       		.byte	0x3f
 2961 069c 5C060000 		.4byte	0x65c
 2962 06a0 16       		.uleb128 0x16
 2963 06a1 04       		.byte	0x4
 2964 06a2 0A       		.byte	0xa
 2965 06a3 FA       		.byte	0xfa
 2966 06a4 FD060000 		.4byte	0x6fd
 2967 06a8 17       		.uleb128 0x17
 2968 06a9 ED050000 		.4byte	.LASF112
 2969 06ad 0A       		.byte	0xa
 2970 06ae 0101     		.2byte	0x101
 2971 06b0 05010000 		.4byte	0x105
 2972 06b4 17       		.uleb128 0x17
ARM GAS  /tmp/ccCDU11I.s 			page 117


 2973 06b5 0C010000 		.4byte	.LASF113
 2974 06b9 0A       		.byte	0xa
 2975 06ba 0801     		.2byte	0x108
 2976 06bc 05010000 		.4byte	0x105
 2977 06c0 17       		.uleb128 0x17
 2978 06c1 65070000 		.4byte	.LASF114
 2979 06c5 0A       		.byte	0xa
 2980 06c6 0F01     		.2byte	0x10f
 2981 06c8 35030000 		.4byte	0x335
 2982 06cc 17       		.uleb128 0x17
 2983 06cd 23000000 		.4byte	.LASF115
 2984 06d1 0A       		.byte	0xa
 2985 06d2 1601     		.2byte	0x116
 2986 06d4 FD060000 		.4byte	0x6fd
 2987 06d8 17       		.uleb128 0x17
 2988 06d9 BA020000 		.4byte	.LASF116
 2989 06dd 0A       		.byte	0xa
 2990 06de 1E01     		.2byte	0x11e
 2991 06e0 28070000 		.4byte	0x728
 2992 06e4 17       		.uleb128 0x17
 2993 06e5 26060000 		.4byte	.LASF117
 2994 06e9 0A       		.byte	0xa
 2995 06ea 2701     		.2byte	0x127
 2996 06ec 5F070000 		.4byte	0x75f
 2997 06f0 17       		.uleb128 0x17
 2998 06f1 BB050000 		.4byte	.LASF118
 2999 06f5 0A       		.byte	0xa
 3000 06f6 2F01     		.2byte	0x12f
 3001 06f8 10010000 		.4byte	0x110
 3002 06fc 00       		.byte	0
 3003 06fd 09       		.uleb128 0x9
 3004 06fe 04       		.byte	0x4
 3005 06ff 4D020000 		.4byte	0x24d
 3006 0703 05       		.uleb128 0x5
 3007 0704 05060000 		.4byte	.LASF119
 3008 0708 0C       		.byte	0xc
 3009 0709 04       		.byte	0x4
 3010 070a 34       		.byte	0x34
 3011 070b 28070000 		.4byte	0x728
 3012 070f 06       		.uleb128 0x6
 3013 0710 F9010000 		.4byte	.LASF120
 3014 0714 04       		.byte	0x4
 3015 0715 35       		.byte	0x35
 3016 0716 82020000 		.4byte	0x282
 3017 071a 00       		.byte	0
 3018 071b 06       		.uleb128 0x6
 3019 071c E6020000 		.4byte	.LASF121
 3020 0720 04       		.byte	0x4
 3021 0721 37       		.byte	0x37
 3022 0722 1B010000 		.4byte	0x11b
 3023 0726 08       		.byte	0x8
 3024 0727 00       		.byte	0
 3025 0728 09       		.uleb128 0x9
 3026 0729 04       		.byte	0x4
 3027 072a 03070000 		.4byte	0x703
 3028 072e 05       		.uleb128 0x5
 3029 072f 3F070000 		.4byte	.LASF122
ARM GAS  /tmp/ccCDU11I.s 			page 118


 3030 0733 10       		.byte	0x10
 3031 0734 0F       		.byte	0xf
 3032 0735 39       		.byte	0x39
 3033 0736 5F070000 		.4byte	0x75f
 3034 073a 06       		.uleb128 0x6
 3035 073b B5010000 		.4byte	.LASF123
 3036 073f 0F       		.byte	0xf
 3037 0740 3A       		.byte	0x3a
 3038 0741 82020000 		.4byte	0x282
 3039 0745 00       		.byte	0
 3040 0746 06       		.uleb128 0x6
 3041 0747 B6070000 		.4byte	.LASF124
 3042 074b 0F       		.byte	0xf
 3043 074c 3C       		.byte	0x3c
 3044 074d 58020000 		.4byte	0x258
 3045 0751 08       		.byte	0x8
 3046 0752 06       		.uleb128 0x6
 3047 0753 73060000 		.4byte	.LASF125
 3048 0757 0F       		.byte	0xf
 3049 0758 3E       		.byte	0x3e
 3050 0759 AE070000 		.4byte	0x7ae
 3051 075d 0C       		.byte	0xc
 3052 075e 00       		.byte	0
 3053 075f 09       		.uleb128 0x9
 3054 0760 04       		.byte	0x4
 3055 0761 2E070000 		.4byte	0x72e
 3056 0765 09       		.uleb128 0x9
 3057 0766 04       		.byte	0x4
 3058 0767 6B070000 		.4byte	0x76b
 3059 076b 18       		.uleb128 0x18
 3060 076c 70070000 		.4byte	0x770
 3061 0770 03       		.uleb128 0x3
 3062 0771 01       		.byte	0x1
 3063 0772 08       		.byte	0x8
 3064 0773 60060000 		.4byte	.LASF126
 3065 0777 09       		.uleb128 0x9
 3066 0778 04       		.byte	0x4
 3067 0779 B6040000 		.4byte	0x4b6
 3068 077d 09       		.uleb128 0x9
 3069 077e 04       		.byte	0x4
 3070 077f 37030000 		.4byte	0x337
 3071 0783 19       		.uleb128 0x19
 3072 0784 65070000 		.4byte	0x765
 3073 0788 14       		.uleb128 0x14
 3074 0789 B6040000 		.4byte	0x4b6
 3075 078d 98070000 		.4byte	0x798
 3076 0791 15       		.uleb128 0x15
 3077 0792 A4040000 		.4byte	0x4a4
 3078 0796 1E       		.byte	0x1e
 3079 0797 00       		.byte	0
 3080 0798 04       		.uleb128 0x4
 3081 0799 00010000 		.4byte	.LASF127
 3082 079d 04       		.byte	0x4
 3083 079e 38       		.byte	0x38
 3084 079f 03070000 		.4byte	0x703
 3085 07a3 04       		.uleb128 0x4
 3086 07a4 72020000 		.4byte	.LASF128
ARM GAS  /tmp/ccCDU11I.s 			page 119


 3087 07a8 0F       		.byte	0xf
 3088 07a9 34       		.byte	0x34
 3089 07aa 2E070000 		.4byte	0x72e
 3090 07ae 09       		.uleb128 0x9
 3091 07af 04       		.byte	0x4
 3092 07b0 A3070000 		.4byte	0x7a3
 3093 07b4 12       		.uleb128 0x12
 3094 07b5 28       		.byte	0x28
 3095 07b6 10       		.byte	0x10
 3096 07b7 38       		.byte	0x38
 3097 07b8 05080000 		.4byte	0x805
 3098 07bc 06       		.uleb128 0x6
 3099 07bd E6040000 		.4byte	.LASF129
 3100 07c1 10       		.byte	0x10
 3101 07c2 39       		.byte	0x39
 3102 07c3 05080000 		.4byte	0x805
 3103 07c7 00       		.byte	0
 3104 07c8 06       		.uleb128 0x6
 3105 07c9 84050000 		.4byte	.LASF130
 3106 07cd 10       		.byte	0x10
 3107 07ce 3B       		.byte	0x3b
 3108 07cf 05080000 		.4byte	0x805
 3109 07d3 04       		.byte	0x4
 3110 07d4 06       		.uleb128 0x6
 3111 07d5 3A010000 		.4byte	.LASF131
 3112 07d9 10       		.byte	0x10
 3113 07da 3D       		.byte	0x3d
 3114 07db 05080000 		.4byte	0x805
 3115 07df 08       		.byte	0x8
 3116 07e0 06       		.uleb128 0x6
 3117 07e1 09020000 		.4byte	.LASF132
 3118 07e5 10       		.byte	0x10
 3119 07e6 3E       		.byte	0x3e
 3120 07e7 05080000 		.4byte	0x805
 3121 07eb 0C       		.byte	0xc
 3122 07ec 06       		.uleb128 0x6
 3123 07ed 24070000 		.4byte	.LASF133
 3124 07f1 10       		.byte	0x10
 3125 07f2 3F       		.byte	0x3f
 3126 07f3 98070000 		.4byte	0x798
 3127 07f7 10       		.byte	0x10
 3128 07f8 06       		.uleb128 0x6
 3129 07f9 D4020000 		.4byte	.LASF134
 3130 07fd 10       		.byte	0x10
 3131 07fe 41       		.byte	0x41
 3132 07ff 98070000 		.4byte	0x798
 3133 0803 1C       		.byte	0x1c
 3134 0804 00       		.byte	0
 3135 0805 09       		.uleb128 0x9
 3136 0806 04       		.byte	0x4
 3137 0807 05010000 		.4byte	0x105
 3138 080b 04       		.uleb128 0x4
 3139 080c CE040000 		.4byte	.LASF135
 3140 0810 10       		.byte	0x10
 3141 0811 43       		.byte	0x43
 3142 0812 B4070000 		.4byte	0x7b4
 3143 0816 1A       		.uleb128 0x1a
ARM GAS  /tmp/ccCDU11I.s 			page 120


 3144 0817 A9060000 		.4byte	.LASF167
 3145 081b 02       		.byte	0x2
 3146 081c 2202     		.2byte	0x222
 3147 081e 03       		.byte	0x3
 3148 081f 30080000 		.4byte	0x830
 3149 0823 1B       		.uleb128 0x1b
 3150 0824 7A020000 		.4byte	.LASF168
 3151 0828 02       		.byte	0x2
 3152 0829 2202     		.2byte	0x222
 3153 082b AD000000 		.4byte	0xad
 3154 082f 00       		.byte	0
 3155 0830 1C       		.uleb128 0x1c
 3156 0831 9C000000 		.4byte	.LASF136
 3157 0835 01       		.byte	0x1
 3158 0836 C801     		.2byte	0x1c8
 3159 0838 00000000 		.4byte	.LFB127
 3160 083c 10000000 		.4byte	.LFE127-.LFB127
 3161 0840 01       		.uleb128 0x1
 3162 0841 9C       		.byte	0x9c
 3163 0842 60080000 		.4byte	0x860
 3164 0846 1D       		.uleb128 0x1d
 3165 0847 16080000 		.4byte	0x816
 3166 084b 06000000 		.4byte	.LBB6
 3167 084f 06000000 		.4byte	.LBE6-.LBB6
 3168 0853 01       		.byte	0x1
 3169 0854 D001     		.2byte	0x1d0
 3170 0856 1E       		.uleb128 0x1e
 3171 0857 23080000 		.4byte	0x823
 3172 085b 02       		.uleb128 0x2
 3173 085c 91       		.byte	0x91
 3174 085d 7C       		.sleb128 -4
 3175 085e 00       		.byte	0
 3176 085f 00       		.byte	0
 3177 0860 1C       		.uleb128 0x1c
 3178 0861 C4010000 		.4byte	.LASF137
 3179 0865 01       		.byte	0x1
 3180 0866 E001     		.2byte	0x1e0
 3181 0868 00000000 		.4byte	.LFB128
 3182 086c 10000000 		.4byte	.LFE128-.LFB128
 3183 0870 01       		.uleb128 0x1
 3184 0871 9C       		.byte	0x9c
 3185 0872 90080000 		.4byte	0x890
 3186 0876 1D       		.uleb128 0x1d
 3187 0877 16080000 		.4byte	0x816
 3188 087b 06000000 		.4byte	.LBB8
 3189 087f 06000000 		.4byte	.LBE8-.LBB8
 3190 0883 01       		.byte	0x1
 3191 0884 E301     		.2byte	0x1e3
 3192 0886 1E       		.uleb128 0x1e
 3193 0887 23080000 		.4byte	0x823
 3194 088b 02       		.uleb128 0x2
 3195 088c 91       		.byte	0x91
 3196 088d 7C       		.sleb128 -4
 3197 088e 00       		.byte	0
 3198 088f 00       		.byte	0
 3199 0890 1F       		.uleb128 0x1f
 3200 0891 D9050000 		.4byte	.LASF169
ARM GAS  /tmp/ccCDU11I.s 			page 121


 3201 0895 03       		.byte	0x3
 3202 0896 5A01     		.2byte	0x15a
 3203 0898 00000000 		.4byte	.LFB167
 3204 089c 10000000 		.4byte	.LFE167-.LFB167
 3205 08a0 01       		.uleb128 0x1
 3206 08a1 9C       		.byte	0x9c
 3207 08a2 20       		.uleb128 0x20
 3208 08a3 8F070000 		.4byte	.LASF138
 3209 08a7 03       		.byte	0x3
 3210 08a8 6601     		.2byte	0x166
 3211 08aa 00000000 		.4byte	.LFB168
 3212 08ae 4E000000 		.4byte	.LFE168-.LFB168
 3213 08b2 01       		.uleb128 0x1
 3214 08b3 9C       		.byte	0x9c
 3215 08b4 C8080000 		.4byte	0x8c8
 3216 08b8 21       		.uleb128 0x21
 3217 08b9 26050000 		.4byte	.LASF140
 3218 08bd D8080000 		.4byte	0x8d8
 3219 08c1 05       		.uleb128 0x5
 3220 08c2 03       		.byte	0x3
 3221 08c3 00000000 		.4byte	__func__.5915
 3222 08c7 00       		.byte	0
 3223 08c8 14       		.uleb128 0x14
 3224 08c9 70070000 		.4byte	0x770
 3225 08cd D8080000 		.4byte	0x8d8
 3226 08d1 15       		.uleb128 0x15
 3227 08d2 A4040000 		.4byte	0x4a4
 3228 08d6 0B       		.byte	0xb
 3229 08d7 00       		.byte	0
 3230 08d8 18       		.uleb128 0x18
 3231 08d9 C8080000 		.4byte	0x8c8
 3232 08dd 22       		.uleb128 0x22
 3233 08de 15070000 		.4byte	.LASF139
 3234 08e2 04       		.byte	0x4
 3235 08e3 76       		.byte	0x76
 3236 08e4 00000000 		.4byte	.LFB201
 3237 08e8 1A000000 		.4byte	.LFE201-.LFB201
 3238 08ec 01       		.uleb128 0x1
 3239 08ed 9C       		.byte	0x9c
 3240 08ee 00090000 		.4byte	0x900
 3241 08f2 23       		.uleb128 0x23
 3242 08f3 737000   		.ascii	"sp\000"
 3243 08f6 04       		.byte	0x4
 3244 08f7 76       		.byte	0x76
 3245 08f8 00090000 		.4byte	0x900
 3246 08fc 02       		.uleb128 0x2
 3247 08fd 91       		.byte	0x91
 3248 08fe 74       		.sleb128 -12
 3249 08ff 00       		.byte	0
 3250 0900 09       		.uleb128 0x9
 3251 0901 04       		.byte	0x4
 3252 0902 98070000 		.4byte	0x798
 3253 0906 24       		.uleb128 0x24
 3254 0907 98060000 		.4byte	.LASF170
 3255 090b 04       		.byte	0x4
 3256 090c 95       		.byte	0x95
 3257 090d 1B010000 		.4byte	0x11b
ARM GAS  /tmp/ccCDU11I.s 			page 122


 3258 0911 00000000 		.4byte	.LFB203
 3259 0915 16000000 		.4byte	.LFE203-.LFB203
 3260 0919 01       		.uleb128 0x1
 3261 091a 9C       		.byte	0x9c
 3262 091b 2D090000 		.4byte	0x92d
 3263 091f 23       		.uleb128 0x23
 3264 0920 737000   		.ascii	"sp\000"
 3265 0923 04       		.byte	0x4
 3266 0924 95       		.byte	0x95
 3267 0925 00090000 		.4byte	0x900
 3268 0929 02       		.uleb128 0x2
 3269 092a 91       		.byte	0x91
 3270 092b 74       		.sleb128 -12
 3271 092c 00       		.byte	0
 3272 092d 25       		.uleb128 0x25
 3273 092e 14000000 		.4byte	.LASF142
 3274 0932 05       		.byte	0x5
 3275 0933 56       		.byte	0x56
 3276 0934 00000000 		.4byte	.LFB241
 3277 0938 64000000 		.4byte	.LFE241-.LFB241
 3278 093c 01       		.uleb128 0x1
 3279 093d 9C       		.byte	0x9c
 3280 093e 7A090000 		.4byte	0x97a
 3281 0942 23       		.uleb128 0x23
 3282 0943 6D627000 		.ascii	"mbp\000"
 3283 0947 05       		.byte	0x5
 3284 0948 56       		.byte	0x56
 3285 0949 7A090000 		.4byte	0x97a
 3286 094d 02       		.uleb128 0x2
 3287 094e 91       		.byte	0x91
 3288 094f 74       		.sleb128 -12
 3289 0950 23       		.uleb128 0x23
 3290 0951 62756600 		.ascii	"buf\000"
 3291 0955 05       		.byte	0x5
 3292 0956 56       		.byte	0x56
 3293 0957 05080000 		.4byte	0x805
 3294 095b 02       		.uleb128 0x2
 3295 095c 91       		.byte	0x91
 3296 095d 70       		.sleb128 -16
 3297 095e 23       		.uleb128 0x23
 3298 095f 6E00     		.ascii	"n\000"
 3299 0961 05       		.byte	0x5
 3300 0962 56       		.byte	0x56
 3301 0963 1B010000 		.4byte	0x11b
 3302 0967 02       		.uleb128 0x2
 3303 0968 91       		.byte	0x91
 3304 0969 6C       		.sleb128 -20
 3305 096a 21       		.uleb128 0x21
 3306 096b 29000000 		.4byte	.LASF141
 3307 096f 90090000 		.4byte	0x990
 3308 0973 05       		.uleb128 0x5
 3309 0974 03       		.byte	0x3
 3310 0975 00000000 		.4byte	__func__.6615
 3311 0979 00       		.byte	0
 3312 097a 09       		.uleb128 0x9
 3313 097b 04       		.byte	0x4
 3314 097c 0B080000 		.4byte	0x80b
ARM GAS  /tmp/ccCDU11I.s 			page 123


 3315 0980 14       		.uleb128 0x14
 3316 0981 70070000 		.4byte	0x770
 3317 0985 90090000 		.4byte	0x990
 3318 0989 15       		.uleb128 0x15
 3319 098a A4040000 		.4byte	0x4a4
 3320 098e 0E       		.byte	0xe
 3321 098f 00       		.byte	0
 3322 0990 18       		.uleb128 0x18
 3323 0991 80090000 		.4byte	0x980
 3324 0995 25       		.uleb128 0x25
 3325 0996 9B040000 		.4byte	.LASF143
 3326 099a 05       		.byte	0x5
 3327 099b 6B       		.byte	0x6b
 3328 099c 00000000 		.4byte	.LFB242
 3329 09a0 1E000000 		.4byte	.LFE242-.LFB242
 3330 09a4 01       		.uleb128 0x1
 3331 09a5 9C       		.byte	0x9c
 3332 09a6 B9090000 		.4byte	0x9b9
 3333 09aa 23       		.uleb128 0x23
 3334 09ab 6D627000 		.ascii	"mbp\000"
 3335 09af 05       		.byte	0x5
 3336 09b0 6B       		.byte	0x6b
 3337 09b1 7A090000 		.4byte	0x97a
 3338 09b5 02       		.uleb128 0x2
 3339 09b6 91       		.byte	0x91
 3340 09b7 74       		.sleb128 -12
 3341 09b8 00       		.byte	0
 3342 09b9 25       		.uleb128 0x25
 3343 09ba EC020000 		.4byte	.LASF144
 3344 09be 05       		.byte	0x5
 3345 09bf 7C       		.byte	0x7c
 3346 09c0 00000000 		.4byte	.LFB243
 3347 09c4 5A000000 		.4byte	.LFE243-.LFB243
 3348 09c8 01       		.uleb128 0x1
 3349 09c9 9C       		.byte	0x9c
 3350 09ca EC090000 		.4byte	0x9ec
 3351 09ce 23       		.uleb128 0x23
 3352 09cf 6D627000 		.ascii	"mbp\000"
 3353 09d3 05       		.byte	0x5
 3354 09d4 7C       		.byte	0x7c
 3355 09d5 7A090000 		.4byte	0x97a
 3356 09d9 02       		.uleb128 0x2
 3357 09da 91       		.byte	0x91
 3358 09db 74       		.sleb128 -12
 3359 09dc 21       		.uleb128 0x21
 3360 09dd A7010000 		.4byte	.LASF145
 3361 09e1 FC090000 		.4byte	0x9fc
 3362 09e5 05       		.uleb128 0x5
 3363 09e6 03       		.byte	0x3
 3364 09e7 00000000 		.4byte	__func__.6622
 3365 09eb 00       		.byte	0
 3366 09ec 14       		.uleb128 0x14
 3367 09ed 70070000 		.4byte	0x770
 3368 09f1 FC090000 		.4byte	0x9fc
 3369 09f5 15       		.uleb128 0x15
 3370 09f6 A4040000 		.4byte	0x4a4
 3371 09fa 0A       		.byte	0xa
ARM GAS  /tmp/ccCDU11I.s 			page 124


 3372 09fb 00       		.byte	0
 3373 09fc 18       		.uleb128 0x18
 3374 09fd EC090000 		.4byte	0x9ec
 3375 0a01 26       		.uleb128 0x26
 3376 0a02 D0010000 		.4byte	.LASF147
 3377 0a06 05       		.byte	0x5
 3378 0a07 9A       		.byte	0x9a
 3379 0a08 05010000 		.4byte	0x105
 3380 0a0c 00000000 		.4byte	.LFB244
 3381 0a10 28000000 		.4byte	.LFE244-.LFB244
 3382 0a14 01       		.uleb128 0x1
 3383 0a15 9C       		.byte	0x9c
 3384 0a16 530A0000 		.4byte	0xa53
 3385 0a1a 23       		.uleb128 0x23
 3386 0a1b 6D627000 		.ascii	"mbp\000"
 3387 0a1f 05       		.byte	0x5
 3388 0a20 9A       		.byte	0x9a
 3389 0a21 7A090000 		.4byte	0x97a
 3390 0a25 02       		.uleb128 0x2
 3391 0a26 91       		.byte	0x91
 3392 0a27 6C       		.sleb128 -20
 3393 0a28 23       		.uleb128 0x23
 3394 0a29 6D736700 		.ascii	"msg\000"
 3395 0a2d 05       		.byte	0x5
 3396 0a2e 9A       		.byte	0x9a
 3397 0a2f 05010000 		.4byte	0x105
 3398 0a33 02       		.uleb128 0x2
 3399 0a34 91       		.byte	0x91
 3400 0a35 68       		.sleb128 -24
 3401 0a36 27       		.uleb128 0x27
 3402 0a37 CC020000 		.4byte	.LASF146
 3403 0a3b 05       		.byte	0x5
 3404 0a3c 9A       		.byte	0x9a
 3405 0a3d 31010000 		.4byte	0x131
 3406 0a41 02       		.uleb128 0x2
 3407 0a42 91       		.byte	0x91
 3408 0a43 64       		.sleb128 -28
 3409 0a44 28       		.uleb128 0x28
 3410 0a45 ED050000 		.4byte	.LASF112
 3411 0a49 05       		.byte	0x5
 3412 0a4a 9B       		.byte	0x9b
 3413 0a4b 05010000 		.4byte	0x105
 3414 0a4f 02       		.uleb128 0x2
 3415 0a50 91       		.byte	0x91
 3416 0a51 74       		.sleb128 -12
 3417 0a52 00       		.byte	0
 3418 0a53 26       		.uleb128 0x26
 3419 0a54 A1070000 		.4byte	.LASF148
 3420 0a58 05       		.byte	0x5
 3421 0a59 B7       		.byte	0xb7
 3422 0a5a 05010000 		.4byte	0x105
 3423 0a5e 00000000 		.4byte	.LFB245
 3424 0a62 6E000000 		.4byte	.LFE245-.LFB245
 3425 0a66 01       		.uleb128 0x1
 3426 0a67 9C       		.byte	0x9c
 3427 0a68 B40A0000 		.4byte	0xab4
 3428 0a6c 23       		.uleb128 0x23
ARM GAS  /tmp/ccCDU11I.s 			page 125


 3429 0a6d 6D627000 		.ascii	"mbp\000"
 3430 0a71 05       		.byte	0x5
 3431 0a72 B7       		.byte	0xb7
 3432 0a73 7A090000 		.4byte	0x97a
 3433 0a77 02       		.uleb128 0x2
 3434 0a78 91       		.byte	0x91
 3435 0a79 6C       		.sleb128 -20
 3436 0a7a 23       		.uleb128 0x23
 3437 0a7b 6D736700 		.ascii	"msg\000"
 3438 0a7f 05       		.byte	0x5
 3439 0a80 B7       		.byte	0xb7
 3440 0a81 05010000 		.4byte	0x105
 3441 0a85 02       		.uleb128 0x2
 3442 0a86 91       		.byte	0x91
 3443 0a87 68       		.sleb128 -24
 3444 0a88 27       		.uleb128 0x27
 3445 0a89 CC020000 		.4byte	.LASF146
 3446 0a8d 05       		.byte	0x5
 3447 0a8e B7       		.byte	0xb7
 3448 0a8f 31010000 		.4byte	0x131
 3449 0a93 02       		.uleb128 0x2
 3450 0a94 91       		.byte	0x91
 3451 0a95 64       		.sleb128 -28
 3452 0a96 28       		.uleb128 0x28
 3453 0a97 ED050000 		.4byte	.LASF112
 3454 0a9b 05       		.byte	0x5
 3455 0a9c B8       		.byte	0xb8
 3456 0a9d 05010000 		.4byte	0x105
 3457 0aa1 02       		.uleb128 0x2
 3458 0aa2 91       		.byte	0x91
 3459 0aa3 74       		.sleb128 -12
 3460 0aa4 21       		.uleb128 0x21
 3461 0aa5 64020000 		.4byte	.LASF149
 3462 0aa9 C40A0000 		.4byte	0xac4
 3463 0aad 05       		.uleb128 0x5
 3464 0aae 03       		.byte	0x3
 3465 0aaf 00000000 		.4byte	__func__.6635
 3466 0ab3 00       		.byte	0
 3467 0ab4 14       		.uleb128 0x14
 3468 0ab5 70070000 		.4byte	0x770
 3469 0ab9 C40A0000 		.4byte	0xac4
 3470 0abd 15       		.uleb128 0x15
 3471 0abe A4040000 		.4byte	0x4a4
 3472 0ac2 09       		.byte	0x9
 3473 0ac3 00       		.byte	0
 3474 0ac4 18       		.uleb128 0x18
 3475 0ac5 B40A0000 		.4byte	0xab4
 3476 0ac9 26       		.uleb128 0x26
 3477 0aca 57000000 		.4byte	.LASF150
 3478 0ace 05       		.byte	0x5
 3479 0acf D8       		.byte	0xd8
 3480 0ad0 05010000 		.4byte	0x105
 3481 0ad4 00000000 		.4byte	.LFB246
 3482 0ad8 74000000 		.4byte	.LFE246-.LFB246
 3483 0adc 01       		.uleb128 0x1
 3484 0add 9C       		.byte	0x9c
 3485 0ade 0E0B0000 		.4byte	0xb0e
ARM GAS  /tmp/ccCDU11I.s 			page 126


 3486 0ae2 23       		.uleb128 0x23
 3487 0ae3 6D627000 		.ascii	"mbp\000"
 3488 0ae7 05       		.byte	0x5
 3489 0ae8 D8       		.byte	0xd8
 3490 0ae9 7A090000 		.4byte	0x97a
 3491 0aed 02       		.uleb128 0x2
 3492 0aee 91       		.byte	0x91
 3493 0aef 74       		.sleb128 -12
 3494 0af0 23       		.uleb128 0x23
 3495 0af1 6D736700 		.ascii	"msg\000"
 3496 0af5 05       		.byte	0x5
 3497 0af6 D8       		.byte	0xd8
 3498 0af7 05010000 		.4byte	0x105
 3499 0afb 02       		.uleb128 0x2
 3500 0afc 91       		.byte	0x91
 3501 0afd 70       		.sleb128 -16
 3502 0afe 21       		.uleb128 0x21
 3503 0aff 40030000 		.4byte	.LASF151
 3504 0b03 0E0B0000 		.4byte	0xb0e
 3505 0b07 05       		.uleb128 0x5
 3506 0b08 03       		.byte	0x3
 3507 0b09 00000000 		.4byte	__func__.6640
 3508 0b0d 00       		.byte	0
 3509 0b0e 18       		.uleb128 0x18
 3510 0b0f B40A0000 		.4byte	0xab4
 3511 0b13 26       		.uleb128 0x26
 3512 0b14 F8060000 		.4byte	.LASF152
 3513 0b18 05       		.byte	0x5
 3514 0b19 FE       		.byte	0xfe
 3515 0b1a 05010000 		.4byte	0x105
 3516 0b1e 00000000 		.4byte	.LFB247
 3517 0b22 28000000 		.4byte	.LFE247-.LFB247
 3518 0b26 01       		.uleb128 0x1
 3519 0b27 9C       		.byte	0x9c
 3520 0b28 650B0000 		.4byte	0xb65
 3521 0b2c 23       		.uleb128 0x23
 3522 0b2d 6D627000 		.ascii	"mbp\000"
 3523 0b31 05       		.byte	0x5
 3524 0b32 FE       		.byte	0xfe
 3525 0b33 7A090000 		.4byte	0x97a
 3526 0b37 02       		.uleb128 0x2
 3527 0b38 91       		.byte	0x91
 3528 0b39 6C       		.sleb128 -20
 3529 0b3a 23       		.uleb128 0x23
 3530 0b3b 6D736700 		.ascii	"msg\000"
 3531 0b3f 05       		.byte	0x5
 3532 0b40 FE       		.byte	0xfe
 3533 0b41 05010000 		.4byte	0x105
 3534 0b45 02       		.uleb128 0x2
 3535 0b46 91       		.byte	0x91
 3536 0b47 68       		.sleb128 -24
 3537 0b48 27       		.uleb128 0x27
 3538 0b49 CC020000 		.4byte	.LASF146
 3539 0b4d 05       		.byte	0x5
 3540 0b4e FE       		.byte	0xfe
 3541 0b4f 31010000 		.4byte	0x131
 3542 0b53 02       		.uleb128 0x2
ARM GAS  /tmp/ccCDU11I.s 			page 127


 3543 0b54 91       		.byte	0x91
 3544 0b55 64       		.sleb128 -28
 3545 0b56 28       		.uleb128 0x28
 3546 0b57 ED050000 		.4byte	.LASF112
 3547 0b5b 05       		.byte	0x5
 3548 0b5c FF       		.byte	0xff
 3549 0b5d 05010000 		.4byte	0x105
 3550 0b61 02       		.uleb128 0x2
 3551 0b62 91       		.byte	0x91
 3552 0b63 74       		.sleb128 -12
 3553 0b64 00       		.byte	0
 3554 0b65 29       		.uleb128 0x29
 3555 0b66 15010000 		.4byte	.LASF153
 3556 0b6a 05       		.byte	0x5
 3557 0b6b 1B01     		.2byte	0x11b
 3558 0b6d 05010000 		.4byte	0x105
 3559 0b71 00000000 		.4byte	.LFB248
 3560 0b75 74000000 		.4byte	.LFE248-.LFB248
 3561 0b79 01       		.uleb128 0x1
 3562 0b7a 9C       		.byte	0x9c
 3563 0b7b CB0B0000 		.4byte	0xbcb
 3564 0b7f 2A       		.uleb128 0x2a
 3565 0b80 6D627000 		.ascii	"mbp\000"
 3566 0b84 05       		.byte	0x5
 3567 0b85 1B01     		.2byte	0x11b
 3568 0b87 7A090000 		.4byte	0x97a
 3569 0b8b 02       		.uleb128 0x2
 3570 0b8c 91       		.byte	0x91
 3571 0b8d 6C       		.sleb128 -20
 3572 0b8e 2A       		.uleb128 0x2a
 3573 0b8f 6D736700 		.ascii	"msg\000"
 3574 0b93 05       		.byte	0x5
 3575 0b94 1B01     		.2byte	0x11b
 3576 0b96 05010000 		.4byte	0x105
 3577 0b9a 02       		.uleb128 0x2
 3578 0b9b 91       		.byte	0x91
 3579 0b9c 68       		.sleb128 -24
 3580 0b9d 2B       		.uleb128 0x2b
 3581 0b9e CC020000 		.4byte	.LASF146
 3582 0ba2 05       		.byte	0x5
 3583 0ba3 1B01     		.2byte	0x11b
 3584 0ba5 31010000 		.4byte	0x131
 3585 0ba9 02       		.uleb128 0x2
 3586 0baa 91       		.byte	0x91
 3587 0bab 64       		.sleb128 -28
 3588 0bac 2C       		.uleb128 0x2c
 3589 0bad ED050000 		.4byte	.LASF112
 3590 0bb1 05       		.byte	0x5
 3591 0bb2 1C01     		.2byte	0x11c
 3592 0bb4 05010000 		.4byte	0x105
 3593 0bb8 02       		.uleb128 0x2
 3594 0bb9 91       		.byte	0x91
 3595 0bba 74       		.sleb128 -12
 3596 0bbb 21       		.uleb128 0x21
 3597 0bbc D8040000 		.4byte	.LASF154
 3598 0bc0 CB0B0000 		.4byte	0xbcb
 3599 0bc4 05       		.uleb128 0x5
ARM GAS  /tmp/ccCDU11I.s 			page 128


 3600 0bc5 03       		.byte	0x3
 3601 0bc6 00000000 		.4byte	__func__.6653
 3602 0bca 00       		.byte	0
 3603 0bcb 18       		.uleb128 0x18
 3604 0bcc 80090000 		.4byte	0x980
 3605 0bd0 29       		.uleb128 0x29
 3606 0bd1 BF000000 		.4byte	.LASF155
 3607 0bd5 05       		.byte	0x5
 3608 0bd6 3C01     		.2byte	0x13c
 3609 0bd8 05010000 		.4byte	0x105
 3610 0bdc 00000000 		.4byte	.LFB249
 3611 0be0 7A000000 		.4byte	.LFE249-.LFB249
 3612 0be4 01       		.uleb128 0x1
 3613 0be5 9C       		.byte	0x9c
 3614 0be6 180C0000 		.4byte	0xc18
 3615 0bea 2A       		.uleb128 0x2a
 3616 0beb 6D627000 		.ascii	"mbp\000"
 3617 0bef 05       		.byte	0x5
 3618 0bf0 3C01     		.2byte	0x13c
 3619 0bf2 7A090000 		.4byte	0x97a
 3620 0bf6 02       		.uleb128 0x2
 3621 0bf7 91       		.byte	0x91
 3622 0bf8 74       		.sleb128 -12
 3623 0bf9 2A       		.uleb128 0x2a
 3624 0bfa 6D736700 		.ascii	"msg\000"
 3625 0bfe 05       		.byte	0x5
 3626 0bff 3C01     		.2byte	0x13c
 3627 0c01 05010000 		.4byte	0x105
 3628 0c05 02       		.uleb128 0x2
 3629 0c06 91       		.byte	0x91
 3630 0c07 70       		.sleb128 -16
 3631 0c08 21       		.uleb128 0x21
 3632 0c09 F0040000 		.4byte	.LASF156
 3633 0c0d 180C0000 		.4byte	0xc18
 3634 0c11 05       		.uleb128 0x5
 3635 0c12 03       		.byte	0x3
 3636 0c13 00000000 		.4byte	__func__.6658
 3637 0c17 00       		.byte	0
 3638 0c18 18       		.uleb128 0x18
 3639 0c19 80090000 		.4byte	0x980
 3640 0c1d 29       		.uleb128 0x29
 3641 0c1e 91040000 		.4byte	.LASF157
 3642 0c22 05       		.byte	0x5
 3643 0c23 6101     		.2byte	0x161
 3644 0c25 05010000 		.4byte	0x105
 3645 0c29 00000000 		.4byte	.LFB250
 3646 0c2d 28000000 		.4byte	.LFE250-.LFB250
 3647 0c31 01       		.uleb128 0x1
 3648 0c32 9C       		.byte	0x9c
 3649 0c33 740C0000 		.4byte	0xc74
 3650 0c37 2A       		.uleb128 0x2a
 3651 0c38 6D627000 		.ascii	"mbp\000"
 3652 0c3c 05       		.byte	0x5
 3653 0c3d 6101     		.2byte	0x161
 3654 0c3f 7A090000 		.4byte	0x97a
 3655 0c43 02       		.uleb128 0x2
 3656 0c44 91       		.byte	0x91
ARM GAS  /tmp/ccCDU11I.s 			page 129


 3657 0c45 6C       		.sleb128 -20
 3658 0c46 2B       		.uleb128 0x2b
 3659 0c47 33040000 		.4byte	.LASF158
 3660 0c4b 05       		.byte	0x5
 3661 0c4c 6101     		.2byte	0x161
 3662 0c4e 05080000 		.4byte	0x805
 3663 0c52 02       		.uleb128 0x2
 3664 0c53 91       		.byte	0x91
 3665 0c54 68       		.sleb128 -24
 3666 0c55 2B       		.uleb128 0x2b
 3667 0c56 CC020000 		.4byte	.LASF146
 3668 0c5a 05       		.byte	0x5
 3669 0c5b 6101     		.2byte	0x161
 3670 0c5d 31010000 		.4byte	0x131
 3671 0c61 02       		.uleb128 0x2
 3672 0c62 91       		.byte	0x91
 3673 0c63 64       		.sleb128 -28
 3674 0c64 2C       		.uleb128 0x2c
 3675 0c65 ED050000 		.4byte	.LASF112
 3676 0c69 05       		.byte	0x5
 3677 0c6a 6201     		.2byte	0x162
 3678 0c6c 05010000 		.4byte	0x105
 3679 0c70 02       		.uleb128 0x2
 3680 0c71 91       		.byte	0x91
 3681 0c72 74       		.sleb128 -12
 3682 0c73 00       		.byte	0
 3683 0c74 29       		.uleb128 0x29
 3684 0c75 4E030000 		.4byte	.LASF159
 3685 0c79 05       		.byte	0x5
 3686 0c7a 7E01     		.2byte	0x17e
 3687 0c7c 05010000 		.4byte	0x105
 3688 0c80 00000000 		.4byte	.LFB251
 3689 0c84 76000000 		.4byte	.LFE251-.LFB251
 3690 0c88 01       		.uleb128 0x1
 3691 0c89 9C       		.byte	0x9c
 3692 0c8a DA0C0000 		.4byte	0xcda
 3693 0c8e 2A       		.uleb128 0x2a
 3694 0c8f 6D627000 		.ascii	"mbp\000"
 3695 0c93 05       		.byte	0x5
 3696 0c94 7E01     		.2byte	0x17e
 3697 0c96 7A090000 		.4byte	0x97a
 3698 0c9a 02       		.uleb128 0x2
 3699 0c9b 91       		.byte	0x91
 3700 0c9c 6C       		.sleb128 -20
 3701 0c9d 2B       		.uleb128 0x2b
 3702 0c9e 33040000 		.4byte	.LASF158
 3703 0ca2 05       		.byte	0x5
 3704 0ca3 7E01     		.2byte	0x17e
 3705 0ca5 05080000 		.4byte	0x805
 3706 0ca9 02       		.uleb128 0x2
 3707 0caa 91       		.byte	0x91
 3708 0cab 68       		.sleb128 -24
 3709 0cac 2B       		.uleb128 0x2b
 3710 0cad CC020000 		.4byte	.LASF146
 3711 0cb1 05       		.byte	0x5
 3712 0cb2 7E01     		.2byte	0x17e
 3713 0cb4 31010000 		.4byte	0x131
ARM GAS  /tmp/ccCDU11I.s 			page 130


 3714 0cb8 02       		.uleb128 0x2
 3715 0cb9 91       		.byte	0x91
 3716 0cba 64       		.sleb128 -28
 3717 0cbb 2C       		.uleb128 0x2c
 3718 0cbc ED050000 		.4byte	.LASF112
 3719 0cc0 05       		.byte	0x5
 3720 0cc1 7F01     		.2byte	0x17f
 3721 0cc3 05010000 		.4byte	0x105
 3722 0cc7 02       		.uleb128 0x2
 3723 0cc8 91       		.byte	0x91
 3724 0cc9 74       		.sleb128 -12
 3725 0cca 21       		.uleb128 0x21
 3726 0ccb C8060000 		.4byte	.LASF160
 3727 0ccf DA0C0000 		.4byte	0xcda
 3728 0cd3 05       		.uleb128 0x5
 3729 0cd4 03       		.byte	0x3
 3730 0cd5 00000000 		.4byte	__func__.6671
 3731 0cd9 00       		.byte	0
 3732 0cda 18       		.uleb128 0x18
 3733 0cdb EC090000 		.4byte	0x9ec
 3734 0cdf 29       		.uleb128 0x29
 3735 0ce0 1B030000 		.4byte	.LASF161
 3736 0ce4 05       		.byte	0x5
 3737 0ce5 9F01     		.2byte	0x19f
 3738 0ce7 05010000 		.4byte	0x105
 3739 0ceb 00000000 		.4byte	.LFB252
 3740 0cef 7C000000 		.4byte	.LFE252-.LFB252
 3741 0cf3 01       		.uleb128 0x1
 3742 0cf4 9C       		.byte	0x9c
 3743 0cf5 270D0000 		.4byte	0xd27
 3744 0cf9 2A       		.uleb128 0x2a
 3745 0cfa 6D627000 		.ascii	"mbp\000"
 3746 0cfe 05       		.byte	0x5
 3747 0cff 9F01     		.2byte	0x19f
 3748 0d01 7A090000 		.4byte	0x97a
 3749 0d05 02       		.uleb128 0x2
 3750 0d06 91       		.byte	0x91
 3751 0d07 74       		.sleb128 -12
 3752 0d08 2B       		.uleb128 0x2b
 3753 0d09 33040000 		.4byte	.LASF158
 3754 0d0d 05       		.byte	0x5
 3755 0d0e 9F01     		.2byte	0x19f
 3756 0d10 05080000 		.4byte	0x805
 3757 0d14 02       		.uleb128 0x2
 3758 0d15 91       		.byte	0x91
 3759 0d16 70       		.sleb128 -16
 3760 0d17 21       		.uleb128 0x21
 3761 0d18 DE060000 		.4byte	.LASF162
 3762 0d1c 270D0000 		.4byte	0xd27
 3763 0d20 05       		.uleb128 0x5
 3764 0d21 03       		.byte	0x3
 3765 0d22 00000000 		.4byte	__func__.6676
 3766 0d26 00       		.byte	0
 3767 0d27 18       		.uleb128 0x18
 3768 0d28 EC090000 		.4byte	0x9ec
 3769 0d2c 2D       		.uleb128 0x2d
 3770 0d2d 8B050000 		.4byte	.LASF163
ARM GAS  /tmp/ccCDU11I.s 			page 131


 3771 0d31 11       		.byte	0x11
 3772 0d32 FA06     		.2byte	0x6fa
 3773 0d34 380D0000 		.4byte	0xd38
 3774 0d38 19       		.uleb128 0x19
 3775 0d39 A2000000 		.4byte	0xa2
 3776 0d3d 2E       		.uleb128 0x2e
 3777 0d3e 636800   		.ascii	"ch\000"
 3778 0d41 0A       		.byte	0xa
 3779 0d42 0902     		.2byte	0x209
 3780 0d44 2C040000 		.4byte	0x42c
 3781 0d48 00       		.byte	0
 3782              		.section	.debug_abbrev,"",%progbits
 3783              	.Ldebug_abbrev0:
 3784 0000 01       		.uleb128 0x1
 3785 0001 11       		.uleb128 0x11
 3786 0002 01       		.byte	0x1
 3787 0003 25       		.uleb128 0x25
 3788 0004 0E       		.uleb128 0xe
 3789 0005 13       		.uleb128 0x13
 3790 0006 0B       		.uleb128 0xb
 3791 0007 03       		.uleb128 0x3
 3792 0008 0E       		.uleb128 0xe
 3793 0009 1B       		.uleb128 0x1b
 3794 000a 0E       		.uleb128 0xe
 3795 000b 55       		.uleb128 0x55
 3796 000c 17       		.uleb128 0x17
 3797 000d 11       		.uleb128 0x11
 3798 000e 01       		.uleb128 0x1
 3799 000f 10       		.uleb128 0x10
 3800 0010 17       		.uleb128 0x17
 3801 0011 00       		.byte	0
 3802 0012 00       		.byte	0
 3803 0013 02       		.uleb128 0x2
 3804 0014 24       		.uleb128 0x24
 3805 0015 00       		.byte	0
 3806 0016 0B       		.uleb128 0xb
 3807 0017 0B       		.uleb128 0xb
 3808 0018 3E       		.uleb128 0x3e
 3809 0019 0B       		.uleb128 0xb
 3810 001a 03       		.uleb128 0x3
 3811 001b 08       		.uleb128 0x8
 3812 001c 00       		.byte	0
 3813 001d 00       		.byte	0
 3814 001e 03       		.uleb128 0x3
 3815 001f 24       		.uleb128 0x24
 3816 0020 00       		.byte	0
 3817 0021 0B       		.uleb128 0xb
 3818 0022 0B       		.uleb128 0xb
 3819 0023 3E       		.uleb128 0x3e
 3820 0024 0B       		.uleb128 0xb
 3821 0025 03       		.uleb128 0x3
 3822 0026 0E       		.uleb128 0xe
 3823 0027 00       		.byte	0
 3824 0028 00       		.byte	0
 3825 0029 04       		.uleb128 0x4
 3826 002a 16       		.uleb128 0x16
 3827 002b 00       		.byte	0
ARM GAS  /tmp/ccCDU11I.s 			page 132


 3828 002c 03       		.uleb128 0x3
 3829 002d 0E       		.uleb128 0xe
 3830 002e 3A       		.uleb128 0x3a
 3831 002f 0B       		.uleb128 0xb
 3832 0030 3B       		.uleb128 0x3b
 3833 0031 0B       		.uleb128 0xb
 3834 0032 49       		.uleb128 0x49
 3835 0033 13       		.uleb128 0x13
 3836 0034 00       		.byte	0
 3837 0035 00       		.byte	0
 3838 0036 05       		.uleb128 0x5
 3839 0037 13       		.uleb128 0x13
 3840 0038 01       		.byte	0x1
 3841 0039 03       		.uleb128 0x3
 3842 003a 0E       		.uleb128 0xe
 3843 003b 0B       		.uleb128 0xb
 3844 003c 0B       		.uleb128 0xb
 3845 003d 3A       		.uleb128 0x3a
 3846 003e 0B       		.uleb128 0xb
 3847 003f 3B       		.uleb128 0x3b
 3848 0040 0B       		.uleb128 0xb
 3849 0041 01       		.uleb128 0x1
 3850 0042 13       		.uleb128 0x13
 3851 0043 00       		.byte	0
 3852 0044 00       		.byte	0
 3853 0045 06       		.uleb128 0x6
 3854 0046 0D       		.uleb128 0xd
 3855 0047 00       		.byte	0
 3856 0048 03       		.uleb128 0x3
 3857 0049 0E       		.uleb128 0xe
 3858 004a 3A       		.uleb128 0x3a
 3859 004b 0B       		.uleb128 0xb
 3860 004c 3B       		.uleb128 0x3b
 3861 004d 0B       		.uleb128 0xb
 3862 004e 49       		.uleb128 0x49
 3863 004f 13       		.uleb128 0x13
 3864 0050 38       		.uleb128 0x38
 3865 0051 0B       		.uleb128 0xb
 3866 0052 00       		.byte	0
 3867 0053 00       		.byte	0
 3868 0054 07       		.uleb128 0x7
 3869 0055 0D       		.uleb128 0xd
 3870 0056 00       		.byte	0
 3871 0057 03       		.uleb128 0x3
 3872 0058 08       		.uleb128 0x8
 3873 0059 3A       		.uleb128 0x3a
 3874 005a 0B       		.uleb128 0xb
 3875 005b 3B       		.uleb128 0x3b
 3876 005c 05       		.uleb128 0x5
 3877 005d 49       		.uleb128 0x49
 3878 005e 13       		.uleb128 0x13
 3879 005f 38       		.uleb128 0x38
 3880 0060 0B       		.uleb128 0xb
 3881 0061 00       		.byte	0
 3882 0062 00       		.byte	0
 3883 0063 08       		.uleb128 0x8
 3884 0064 0D       		.uleb128 0xd
ARM GAS  /tmp/ccCDU11I.s 			page 133


 3885 0065 00       		.byte	0
 3886 0066 03       		.uleb128 0x3
 3887 0067 0E       		.uleb128 0xe
 3888 0068 3A       		.uleb128 0x3a
 3889 0069 0B       		.uleb128 0xb
 3890 006a 3B       		.uleb128 0x3b
 3891 006b 05       		.uleb128 0x5
 3892 006c 49       		.uleb128 0x49
 3893 006d 13       		.uleb128 0x13
 3894 006e 38       		.uleb128 0x38
 3895 006f 0B       		.uleb128 0xb
 3896 0070 00       		.byte	0
 3897 0071 00       		.byte	0
 3898 0072 09       		.uleb128 0x9
 3899 0073 0F       		.uleb128 0xf
 3900 0074 00       		.byte	0
 3901 0075 0B       		.uleb128 0xb
 3902 0076 0B       		.uleb128 0xb
 3903 0077 49       		.uleb128 0x49
 3904 0078 13       		.uleb128 0x13
 3905 0079 00       		.byte	0
 3906 007a 00       		.byte	0
 3907 007b 0A       		.uleb128 0xa
 3908 007c 13       		.uleb128 0x13
 3909 007d 01       		.byte	0x1
 3910 007e 03       		.uleb128 0x3
 3911 007f 0E       		.uleb128 0xe
 3912 0080 0B       		.uleb128 0xb
 3913 0081 0B       		.uleb128 0xb
 3914 0082 3A       		.uleb128 0x3a
 3915 0083 0B       		.uleb128 0xb
 3916 0084 3B       		.uleb128 0x3b
 3917 0085 05       		.uleb128 0x5
 3918 0086 01       		.uleb128 0x1
 3919 0087 13       		.uleb128 0x13
 3920 0088 00       		.byte	0
 3921 0089 00       		.byte	0
 3922 008a 0B       		.uleb128 0xb
 3923 008b 15       		.uleb128 0x15
 3924 008c 01       		.byte	0x1
 3925 008d 27       		.uleb128 0x27
 3926 008e 19       		.uleb128 0x19
 3927 008f 01       		.uleb128 0x1
 3928 0090 13       		.uleb128 0x13
 3929 0091 00       		.byte	0
 3930 0092 00       		.byte	0
 3931 0093 0C       		.uleb128 0xc
 3932 0094 05       		.uleb128 0x5
 3933 0095 00       		.byte	0
 3934 0096 49       		.uleb128 0x49
 3935 0097 13       		.uleb128 0x13
 3936 0098 00       		.byte	0
 3937 0099 00       		.byte	0
 3938 009a 0D       		.uleb128 0xd
 3939 009b 0F       		.uleb128 0xf
 3940 009c 00       		.byte	0
 3941 009d 0B       		.uleb128 0xb
ARM GAS  /tmp/ccCDU11I.s 			page 134


 3942 009e 0B       		.uleb128 0xb
 3943 009f 00       		.byte	0
 3944 00a0 00       		.byte	0
 3945 00a1 0E       		.uleb128 0xe
 3946 00a2 13       		.uleb128 0x13
 3947 00a3 01       		.byte	0x1
 3948 00a4 03       		.uleb128 0x3
 3949 00a5 0E       		.uleb128 0xe
 3950 00a6 0B       		.uleb128 0xb
 3951 00a7 05       		.uleb128 0x5
 3952 00a8 3A       		.uleb128 0x3a
 3953 00a9 0B       		.uleb128 0xb
 3954 00aa 3B       		.uleb128 0x3b
 3955 00ab 05       		.uleb128 0x5
 3956 00ac 01       		.uleb128 0x1
 3957 00ad 13       		.uleb128 0x13
 3958 00ae 00       		.byte	0
 3959 00af 00       		.byte	0
 3960 00b0 0F       		.uleb128 0xf
 3961 00b1 0D       		.uleb128 0xd
 3962 00b2 00       		.byte	0
 3963 00b3 03       		.uleb128 0x3
 3964 00b4 0E       		.uleb128 0xe
 3965 00b5 3A       		.uleb128 0x3a
 3966 00b6 0B       		.uleb128 0xb
 3967 00b7 3B       		.uleb128 0x3b
 3968 00b8 05       		.uleb128 0x5
 3969 00b9 49       		.uleb128 0x49
 3970 00ba 13       		.uleb128 0x13
 3971 00bb 38       		.uleb128 0x38
 3972 00bc 05       		.uleb128 0x5
 3973 00bd 00       		.byte	0
 3974 00be 00       		.byte	0
 3975 00bf 10       		.uleb128 0x10
 3976 00c0 0D       		.uleb128 0xd
 3977 00c1 00       		.byte	0
 3978 00c2 03       		.uleb128 0x3
 3979 00c3 08       		.uleb128 0x8
 3980 00c4 3A       		.uleb128 0x3a
 3981 00c5 0B       		.uleb128 0xb
 3982 00c6 3B       		.uleb128 0x3b
 3983 00c7 05       		.uleb128 0x5
 3984 00c8 49       		.uleb128 0x49
 3985 00c9 13       		.uleb128 0x13
 3986 00ca 38       		.uleb128 0x38
 3987 00cb 05       		.uleb128 0x5
 3988 00cc 00       		.byte	0
 3989 00cd 00       		.byte	0
 3990 00ce 11       		.uleb128 0x11
 3991 00cf 0D       		.uleb128 0xd
 3992 00d0 00       		.byte	0
 3993 00d1 03       		.uleb128 0x3
 3994 00d2 08       		.uleb128 0x8
 3995 00d3 3A       		.uleb128 0x3a
 3996 00d4 0B       		.uleb128 0xb
 3997 00d5 3B       		.uleb128 0x3b
 3998 00d6 0B       		.uleb128 0xb
ARM GAS  /tmp/ccCDU11I.s 			page 135


 3999 00d7 49       		.uleb128 0x49
 4000 00d8 13       		.uleb128 0x13
 4001 00d9 38       		.uleb128 0x38
 4002 00da 0B       		.uleb128 0xb
 4003 00db 00       		.byte	0
 4004 00dc 00       		.byte	0
 4005 00dd 12       		.uleb128 0x12
 4006 00de 13       		.uleb128 0x13
 4007 00df 01       		.byte	0x1
 4008 00e0 0B       		.uleb128 0xb
 4009 00e1 0B       		.uleb128 0xb
 4010 00e2 3A       		.uleb128 0x3a
 4011 00e3 0B       		.uleb128 0xb
 4012 00e4 3B       		.uleb128 0x3b
 4013 00e5 0B       		.uleb128 0xb
 4014 00e6 01       		.uleb128 0x1
 4015 00e7 13       		.uleb128 0x13
 4016 00e8 00       		.byte	0
 4017 00e9 00       		.byte	0
 4018 00ea 13       		.uleb128 0x13
 4019 00eb 13       		.uleb128 0x13
 4020 00ec 01       		.byte	0x1
 4021 00ed 0B       		.uleb128 0xb
 4022 00ee 05       		.uleb128 0x5
 4023 00ef 3A       		.uleb128 0x3a
 4024 00f0 0B       		.uleb128 0xb
 4025 00f1 3B       		.uleb128 0x3b
 4026 00f2 0B       		.uleb128 0xb
 4027 00f3 01       		.uleb128 0x1
 4028 00f4 13       		.uleb128 0x13
 4029 00f5 00       		.byte	0
 4030 00f6 00       		.byte	0
 4031 00f7 14       		.uleb128 0x14
 4032 00f8 01       		.uleb128 0x1
 4033 00f9 01       		.byte	0x1
 4034 00fa 49       		.uleb128 0x49
 4035 00fb 13       		.uleb128 0x13
 4036 00fc 01       		.uleb128 0x1
 4037 00fd 13       		.uleb128 0x13
 4038 00fe 00       		.byte	0
 4039 00ff 00       		.byte	0
 4040 0100 15       		.uleb128 0x15
 4041 0101 21       		.uleb128 0x21
 4042 0102 00       		.byte	0
 4043 0103 49       		.uleb128 0x49
 4044 0104 13       		.uleb128 0x13
 4045 0105 2F       		.uleb128 0x2f
 4046 0106 0B       		.uleb128 0xb
 4047 0107 00       		.byte	0
 4048 0108 00       		.byte	0
 4049 0109 16       		.uleb128 0x16
 4050 010a 17       		.uleb128 0x17
 4051 010b 01       		.byte	0x1
 4052 010c 0B       		.uleb128 0xb
 4053 010d 0B       		.uleb128 0xb
 4054 010e 3A       		.uleb128 0x3a
 4055 010f 0B       		.uleb128 0xb
ARM GAS  /tmp/ccCDU11I.s 			page 136


 4056 0110 3B       		.uleb128 0x3b
 4057 0111 0B       		.uleb128 0xb
 4058 0112 01       		.uleb128 0x1
 4059 0113 13       		.uleb128 0x13
 4060 0114 00       		.byte	0
 4061 0115 00       		.byte	0
 4062 0116 17       		.uleb128 0x17
 4063 0117 0D       		.uleb128 0xd
 4064 0118 00       		.byte	0
 4065 0119 03       		.uleb128 0x3
 4066 011a 0E       		.uleb128 0xe
 4067 011b 3A       		.uleb128 0x3a
 4068 011c 0B       		.uleb128 0xb
 4069 011d 3B       		.uleb128 0x3b
 4070 011e 05       		.uleb128 0x5
 4071 011f 49       		.uleb128 0x49
 4072 0120 13       		.uleb128 0x13
 4073 0121 00       		.byte	0
 4074 0122 00       		.byte	0
 4075 0123 18       		.uleb128 0x18
 4076 0124 26       		.uleb128 0x26
 4077 0125 00       		.byte	0
 4078 0126 49       		.uleb128 0x49
 4079 0127 13       		.uleb128 0x13
 4080 0128 00       		.byte	0
 4081 0129 00       		.byte	0
 4082 012a 19       		.uleb128 0x19
 4083 012b 35       		.uleb128 0x35
 4084 012c 00       		.byte	0
 4085 012d 49       		.uleb128 0x49
 4086 012e 13       		.uleb128 0x13
 4087 012f 00       		.byte	0
 4088 0130 00       		.byte	0
 4089 0131 1A       		.uleb128 0x1a
 4090 0132 2E       		.uleb128 0x2e
 4091 0133 01       		.byte	0x1
 4092 0134 03       		.uleb128 0x3
 4093 0135 0E       		.uleb128 0xe
 4094 0136 3A       		.uleb128 0x3a
 4095 0137 0B       		.uleb128 0xb
 4096 0138 3B       		.uleb128 0x3b
 4097 0139 05       		.uleb128 0x5
 4098 013a 27       		.uleb128 0x27
 4099 013b 19       		.uleb128 0x19
 4100 013c 20       		.uleb128 0x20
 4101 013d 0B       		.uleb128 0xb
 4102 013e 01       		.uleb128 0x1
 4103 013f 13       		.uleb128 0x13
 4104 0140 00       		.byte	0
 4105 0141 00       		.byte	0
 4106 0142 1B       		.uleb128 0x1b
 4107 0143 05       		.uleb128 0x5
 4108 0144 00       		.byte	0
 4109 0145 03       		.uleb128 0x3
 4110 0146 0E       		.uleb128 0xe
 4111 0147 3A       		.uleb128 0x3a
 4112 0148 0B       		.uleb128 0xb
ARM GAS  /tmp/ccCDU11I.s 			page 137


 4113 0149 3B       		.uleb128 0x3b
 4114 014a 05       		.uleb128 0x5
 4115 014b 49       		.uleb128 0x49
 4116 014c 13       		.uleb128 0x13
 4117 014d 00       		.byte	0
 4118 014e 00       		.byte	0
 4119 014f 1C       		.uleb128 0x1c
 4120 0150 2E       		.uleb128 0x2e
 4121 0151 01       		.byte	0x1
 4122 0152 03       		.uleb128 0x3
 4123 0153 0E       		.uleb128 0xe
 4124 0154 3A       		.uleb128 0x3a
 4125 0155 0B       		.uleb128 0xb
 4126 0156 3B       		.uleb128 0x3b
 4127 0157 05       		.uleb128 0x5
 4128 0158 27       		.uleb128 0x27
 4129 0159 19       		.uleb128 0x19
 4130 015a 11       		.uleb128 0x11
 4131 015b 01       		.uleb128 0x1
 4132 015c 12       		.uleb128 0x12
 4133 015d 06       		.uleb128 0x6
 4134 015e 40       		.uleb128 0x40
 4135 015f 18       		.uleb128 0x18
 4136 0160 9742     		.uleb128 0x2117
 4137 0162 19       		.uleb128 0x19
 4138 0163 01       		.uleb128 0x1
 4139 0164 13       		.uleb128 0x13
 4140 0165 00       		.byte	0
 4141 0166 00       		.byte	0
 4142 0167 1D       		.uleb128 0x1d
 4143 0168 1D       		.uleb128 0x1d
 4144 0169 01       		.byte	0x1
 4145 016a 31       		.uleb128 0x31
 4146 016b 13       		.uleb128 0x13
 4147 016c 11       		.uleb128 0x11
 4148 016d 01       		.uleb128 0x1
 4149 016e 12       		.uleb128 0x12
 4150 016f 06       		.uleb128 0x6
 4151 0170 58       		.uleb128 0x58
 4152 0171 0B       		.uleb128 0xb
 4153 0172 59       		.uleb128 0x59
 4154 0173 05       		.uleb128 0x5
 4155 0174 00       		.byte	0
 4156 0175 00       		.byte	0
 4157 0176 1E       		.uleb128 0x1e
 4158 0177 05       		.uleb128 0x5
 4159 0178 00       		.byte	0
 4160 0179 31       		.uleb128 0x31
 4161 017a 13       		.uleb128 0x13
 4162 017b 02       		.uleb128 0x2
 4163 017c 18       		.uleb128 0x18
 4164 017d 00       		.byte	0
 4165 017e 00       		.byte	0
 4166 017f 1F       		.uleb128 0x1f
 4167 0180 2E       		.uleb128 0x2e
 4168 0181 00       		.byte	0
 4169 0182 03       		.uleb128 0x3
ARM GAS  /tmp/ccCDU11I.s 			page 138


 4170 0183 0E       		.uleb128 0xe
 4171 0184 3A       		.uleb128 0x3a
 4172 0185 0B       		.uleb128 0xb
 4173 0186 3B       		.uleb128 0x3b
 4174 0187 05       		.uleb128 0x5
 4175 0188 27       		.uleb128 0x27
 4176 0189 19       		.uleb128 0x19
 4177 018a 11       		.uleb128 0x11
 4178 018b 01       		.uleb128 0x1
 4179 018c 12       		.uleb128 0x12
 4180 018d 06       		.uleb128 0x6
 4181 018e 40       		.uleb128 0x40
 4182 018f 18       		.uleb128 0x18
 4183 0190 9642     		.uleb128 0x2116
 4184 0192 19       		.uleb128 0x19
 4185 0193 00       		.byte	0
 4186 0194 00       		.byte	0
 4187 0195 20       		.uleb128 0x20
 4188 0196 2E       		.uleb128 0x2e
 4189 0197 01       		.byte	0x1
 4190 0198 03       		.uleb128 0x3
 4191 0199 0E       		.uleb128 0xe
 4192 019a 3A       		.uleb128 0x3a
 4193 019b 0B       		.uleb128 0xb
 4194 019c 3B       		.uleb128 0x3b
 4195 019d 05       		.uleb128 0x5
 4196 019e 27       		.uleb128 0x27
 4197 019f 19       		.uleb128 0x19
 4198 01a0 11       		.uleb128 0x11
 4199 01a1 01       		.uleb128 0x1
 4200 01a2 12       		.uleb128 0x12
 4201 01a3 06       		.uleb128 0x6
 4202 01a4 40       		.uleb128 0x40
 4203 01a5 18       		.uleb128 0x18
 4204 01a6 9642     		.uleb128 0x2116
 4205 01a8 19       		.uleb128 0x19
 4206 01a9 01       		.uleb128 0x1
 4207 01aa 13       		.uleb128 0x13
 4208 01ab 00       		.byte	0
 4209 01ac 00       		.byte	0
 4210 01ad 21       		.uleb128 0x21
 4211 01ae 34       		.uleb128 0x34
 4212 01af 00       		.byte	0
 4213 01b0 03       		.uleb128 0x3
 4214 01b1 0E       		.uleb128 0xe
 4215 01b2 49       		.uleb128 0x49
 4216 01b3 13       		.uleb128 0x13
 4217 01b4 34       		.uleb128 0x34
 4218 01b5 19       		.uleb128 0x19
 4219 01b6 02       		.uleb128 0x2
 4220 01b7 18       		.uleb128 0x18
 4221 01b8 00       		.byte	0
 4222 01b9 00       		.byte	0
 4223 01ba 22       		.uleb128 0x22
 4224 01bb 2E       		.uleb128 0x2e
 4225 01bc 01       		.byte	0x1
 4226 01bd 03       		.uleb128 0x3
ARM GAS  /tmp/ccCDU11I.s 			page 139


 4227 01be 0E       		.uleb128 0xe
 4228 01bf 3A       		.uleb128 0x3a
 4229 01c0 0B       		.uleb128 0xb
 4230 01c1 3B       		.uleb128 0x3b
 4231 01c2 0B       		.uleb128 0xb
 4232 01c3 27       		.uleb128 0x27
 4233 01c4 19       		.uleb128 0x19
 4234 01c5 11       		.uleb128 0x11
 4235 01c6 01       		.uleb128 0x1
 4236 01c7 12       		.uleb128 0x12
 4237 01c8 06       		.uleb128 0x6
 4238 01c9 40       		.uleb128 0x40
 4239 01ca 18       		.uleb128 0x18
 4240 01cb 9642     		.uleb128 0x2116
 4241 01cd 19       		.uleb128 0x19
 4242 01ce 01       		.uleb128 0x1
 4243 01cf 13       		.uleb128 0x13
 4244 01d0 00       		.byte	0
 4245 01d1 00       		.byte	0
 4246 01d2 23       		.uleb128 0x23
 4247 01d3 05       		.uleb128 0x5
 4248 01d4 00       		.byte	0
 4249 01d5 03       		.uleb128 0x3
 4250 01d6 08       		.uleb128 0x8
 4251 01d7 3A       		.uleb128 0x3a
 4252 01d8 0B       		.uleb128 0xb
 4253 01d9 3B       		.uleb128 0x3b
 4254 01da 0B       		.uleb128 0xb
 4255 01db 49       		.uleb128 0x49
 4256 01dc 13       		.uleb128 0x13
 4257 01dd 02       		.uleb128 0x2
 4258 01de 18       		.uleb128 0x18
 4259 01df 00       		.byte	0
 4260 01e0 00       		.byte	0
 4261 01e1 24       		.uleb128 0x24
 4262 01e2 2E       		.uleb128 0x2e
 4263 01e3 01       		.byte	0x1
 4264 01e4 03       		.uleb128 0x3
 4265 01e5 0E       		.uleb128 0xe
 4266 01e6 3A       		.uleb128 0x3a
 4267 01e7 0B       		.uleb128 0xb
 4268 01e8 3B       		.uleb128 0x3b
 4269 01e9 0B       		.uleb128 0xb
 4270 01ea 27       		.uleb128 0x27
 4271 01eb 19       		.uleb128 0x19
 4272 01ec 49       		.uleb128 0x49
 4273 01ed 13       		.uleb128 0x13
 4274 01ee 11       		.uleb128 0x11
 4275 01ef 01       		.uleb128 0x1
 4276 01f0 12       		.uleb128 0x12
 4277 01f1 06       		.uleb128 0x6
 4278 01f2 40       		.uleb128 0x40
 4279 01f3 18       		.uleb128 0x18
 4280 01f4 9642     		.uleb128 0x2116
 4281 01f6 19       		.uleb128 0x19
 4282 01f7 01       		.uleb128 0x1
 4283 01f8 13       		.uleb128 0x13
ARM GAS  /tmp/ccCDU11I.s 			page 140


 4284 01f9 00       		.byte	0
 4285 01fa 00       		.byte	0
 4286 01fb 25       		.uleb128 0x25
 4287 01fc 2E       		.uleb128 0x2e
 4288 01fd 01       		.byte	0x1
 4289 01fe 3F       		.uleb128 0x3f
 4290 01ff 19       		.uleb128 0x19
 4291 0200 03       		.uleb128 0x3
 4292 0201 0E       		.uleb128 0xe
 4293 0202 3A       		.uleb128 0x3a
 4294 0203 0B       		.uleb128 0xb
 4295 0204 3B       		.uleb128 0x3b
 4296 0205 0B       		.uleb128 0xb
 4297 0206 27       		.uleb128 0x27
 4298 0207 19       		.uleb128 0x19
 4299 0208 11       		.uleb128 0x11
 4300 0209 01       		.uleb128 0x1
 4301 020a 12       		.uleb128 0x12
 4302 020b 06       		.uleb128 0x6
 4303 020c 40       		.uleb128 0x40
 4304 020d 18       		.uleb128 0x18
 4305 020e 9642     		.uleb128 0x2116
 4306 0210 19       		.uleb128 0x19
 4307 0211 01       		.uleb128 0x1
 4308 0212 13       		.uleb128 0x13
 4309 0213 00       		.byte	0
 4310 0214 00       		.byte	0
 4311 0215 26       		.uleb128 0x26
 4312 0216 2E       		.uleb128 0x2e
 4313 0217 01       		.byte	0x1
 4314 0218 3F       		.uleb128 0x3f
 4315 0219 19       		.uleb128 0x19
 4316 021a 03       		.uleb128 0x3
 4317 021b 0E       		.uleb128 0xe
 4318 021c 3A       		.uleb128 0x3a
 4319 021d 0B       		.uleb128 0xb
 4320 021e 3B       		.uleb128 0x3b
 4321 021f 0B       		.uleb128 0xb
 4322 0220 27       		.uleb128 0x27
 4323 0221 19       		.uleb128 0x19
 4324 0222 49       		.uleb128 0x49
 4325 0223 13       		.uleb128 0x13
 4326 0224 11       		.uleb128 0x11
 4327 0225 01       		.uleb128 0x1
 4328 0226 12       		.uleb128 0x12
 4329 0227 06       		.uleb128 0x6
 4330 0228 40       		.uleb128 0x40
 4331 0229 18       		.uleb128 0x18
 4332 022a 9642     		.uleb128 0x2116
 4333 022c 19       		.uleb128 0x19
 4334 022d 01       		.uleb128 0x1
 4335 022e 13       		.uleb128 0x13
 4336 022f 00       		.byte	0
 4337 0230 00       		.byte	0
 4338 0231 27       		.uleb128 0x27
 4339 0232 05       		.uleb128 0x5
 4340 0233 00       		.byte	0
ARM GAS  /tmp/ccCDU11I.s 			page 141


 4341 0234 03       		.uleb128 0x3
 4342 0235 0E       		.uleb128 0xe
 4343 0236 3A       		.uleb128 0x3a
 4344 0237 0B       		.uleb128 0xb
 4345 0238 3B       		.uleb128 0x3b
 4346 0239 0B       		.uleb128 0xb
 4347 023a 49       		.uleb128 0x49
 4348 023b 13       		.uleb128 0x13
 4349 023c 02       		.uleb128 0x2
 4350 023d 18       		.uleb128 0x18
 4351 023e 00       		.byte	0
 4352 023f 00       		.byte	0
 4353 0240 28       		.uleb128 0x28
 4354 0241 34       		.uleb128 0x34
 4355 0242 00       		.byte	0
 4356 0243 03       		.uleb128 0x3
 4357 0244 0E       		.uleb128 0xe
 4358 0245 3A       		.uleb128 0x3a
 4359 0246 0B       		.uleb128 0xb
 4360 0247 3B       		.uleb128 0x3b
 4361 0248 0B       		.uleb128 0xb
 4362 0249 49       		.uleb128 0x49
 4363 024a 13       		.uleb128 0x13
 4364 024b 02       		.uleb128 0x2
 4365 024c 18       		.uleb128 0x18
 4366 024d 00       		.byte	0
 4367 024e 00       		.byte	0
 4368 024f 29       		.uleb128 0x29
 4369 0250 2E       		.uleb128 0x2e
 4370 0251 01       		.byte	0x1
 4371 0252 3F       		.uleb128 0x3f
 4372 0253 19       		.uleb128 0x19
 4373 0254 03       		.uleb128 0x3
 4374 0255 0E       		.uleb128 0xe
 4375 0256 3A       		.uleb128 0x3a
 4376 0257 0B       		.uleb128 0xb
 4377 0258 3B       		.uleb128 0x3b
 4378 0259 05       		.uleb128 0x5
 4379 025a 27       		.uleb128 0x27
 4380 025b 19       		.uleb128 0x19
 4381 025c 49       		.uleb128 0x49
 4382 025d 13       		.uleb128 0x13
 4383 025e 11       		.uleb128 0x11
 4384 025f 01       		.uleb128 0x1
 4385 0260 12       		.uleb128 0x12
 4386 0261 06       		.uleb128 0x6
 4387 0262 40       		.uleb128 0x40
 4388 0263 18       		.uleb128 0x18
 4389 0264 9642     		.uleb128 0x2116
 4390 0266 19       		.uleb128 0x19
 4391 0267 01       		.uleb128 0x1
 4392 0268 13       		.uleb128 0x13
 4393 0269 00       		.byte	0
 4394 026a 00       		.byte	0
 4395 026b 2A       		.uleb128 0x2a
 4396 026c 05       		.uleb128 0x5
 4397 026d 00       		.byte	0
ARM GAS  /tmp/ccCDU11I.s 			page 142


 4398 026e 03       		.uleb128 0x3
 4399 026f 08       		.uleb128 0x8
 4400 0270 3A       		.uleb128 0x3a
 4401 0271 0B       		.uleb128 0xb
 4402 0272 3B       		.uleb128 0x3b
 4403 0273 05       		.uleb128 0x5
 4404 0274 49       		.uleb128 0x49
 4405 0275 13       		.uleb128 0x13
 4406 0276 02       		.uleb128 0x2
 4407 0277 18       		.uleb128 0x18
 4408 0278 00       		.byte	0
 4409 0279 00       		.byte	0
 4410 027a 2B       		.uleb128 0x2b
 4411 027b 05       		.uleb128 0x5
 4412 027c 00       		.byte	0
 4413 027d 03       		.uleb128 0x3
 4414 027e 0E       		.uleb128 0xe
 4415 027f 3A       		.uleb128 0x3a
 4416 0280 0B       		.uleb128 0xb
 4417 0281 3B       		.uleb128 0x3b
 4418 0282 05       		.uleb128 0x5
 4419 0283 49       		.uleb128 0x49
 4420 0284 13       		.uleb128 0x13
 4421 0285 02       		.uleb128 0x2
 4422 0286 18       		.uleb128 0x18
 4423 0287 00       		.byte	0
 4424 0288 00       		.byte	0
 4425 0289 2C       		.uleb128 0x2c
 4426 028a 34       		.uleb128 0x34
 4427 028b 00       		.byte	0
 4428 028c 03       		.uleb128 0x3
 4429 028d 0E       		.uleb128 0xe
 4430 028e 3A       		.uleb128 0x3a
 4431 028f 0B       		.uleb128 0xb
 4432 0290 3B       		.uleb128 0x3b
 4433 0291 05       		.uleb128 0x5
 4434 0292 49       		.uleb128 0x49
 4435 0293 13       		.uleb128 0x13
 4436 0294 02       		.uleb128 0x2
 4437 0295 18       		.uleb128 0x18
 4438 0296 00       		.byte	0
 4439 0297 00       		.byte	0
 4440 0298 2D       		.uleb128 0x2d
 4441 0299 34       		.uleb128 0x34
 4442 029a 00       		.byte	0
 4443 029b 03       		.uleb128 0x3
 4444 029c 0E       		.uleb128 0xe
 4445 029d 3A       		.uleb128 0x3a
 4446 029e 0B       		.uleb128 0xb
 4447 029f 3B       		.uleb128 0x3b
 4448 02a0 05       		.uleb128 0x5
 4449 02a1 49       		.uleb128 0x49
 4450 02a2 13       		.uleb128 0x13
 4451 02a3 3F       		.uleb128 0x3f
 4452 02a4 19       		.uleb128 0x19
 4453 02a5 3C       		.uleb128 0x3c
 4454 02a6 19       		.uleb128 0x19
ARM GAS  /tmp/ccCDU11I.s 			page 143


 4455 02a7 00       		.byte	0
 4456 02a8 00       		.byte	0
 4457 02a9 2E       		.uleb128 0x2e
 4458 02aa 34       		.uleb128 0x34
 4459 02ab 00       		.byte	0
 4460 02ac 03       		.uleb128 0x3
 4461 02ad 08       		.uleb128 0x8
 4462 02ae 3A       		.uleb128 0x3a
 4463 02af 0B       		.uleb128 0xb
 4464 02b0 3B       		.uleb128 0x3b
 4465 02b1 05       		.uleb128 0x5
 4466 02b2 49       		.uleb128 0x49
 4467 02b3 13       		.uleb128 0x13
 4468 02b4 3F       		.uleb128 0x3f
 4469 02b5 19       		.uleb128 0x19
 4470 02b6 3C       		.uleb128 0x3c
 4471 02b7 19       		.uleb128 0x19
 4472 02b8 00       		.byte	0
 4473 02b9 00       		.byte	0
 4474 02ba 00       		.byte	0
 4475              		.section	.debug_aranges,"",%progbits
 4476 0000 A4000000 		.4byte	0xa4
 4477 0004 0200     		.2byte	0x2
 4478 0006 00000000 		.4byte	.Ldebug_info0
 4479 000a 04       		.byte	0x4
 4480 000b 00       		.byte	0
 4481 000c 0000     		.2byte	0
 4482 000e 0000     		.2byte	0
 4483 0010 00000000 		.4byte	.LFB127
 4484 0014 10000000 		.4byte	.LFE127-.LFB127
 4485 0018 00000000 		.4byte	.LFB128
 4486 001c 10000000 		.4byte	.LFE128-.LFB128
 4487 0020 00000000 		.4byte	.LFB167
 4488 0024 10000000 		.4byte	.LFE167-.LFB167
 4489 0028 00000000 		.4byte	.LFB168
 4490 002c 4E000000 		.4byte	.LFE168-.LFB168
 4491 0030 00000000 		.4byte	.LFB201
 4492 0034 1A000000 		.4byte	.LFE201-.LFB201
 4493 0038 00000000 		.4byte	.LFB203
 4494 003c 16000000 		.4byte	.LFE203-.LFB203
 4495 0040 00000000 		.4byte	.LFB241
 4496 0044 64000000 		.4byte	.LFE241-.LFB241
 4497 0048 00000000 		.4byte	.LFB242
 4498 004c 1E000000 		.4byte	.LFE242-.LFB242
 4499 0050 00000000 		.4byte	.LFB243
 4500 0054 5A000000 		.4byte	.LFE243-.LFB243
 4501 0058 00000000 		.4byte	.LFB244
 4502 005c 28000000 		.4byte	.LFE244-.LFB244
 4503 0060 00000000 		.4byte	.LFB245
 4504 0064 6E000000 		.4byte	.LFE245-.LFB245
 4505 0068 00000000 		.4byte	.LFB246
 4506 006c 74000000 		.4byte	.LFE246-.LFB246
 4507 0070 00000000 		.4byte	.LFB247
 4508 0074 28000000 		.4byte	.LFE247-.LFB247
 4509 0078 00000000 		.4byte	.LFB248
 4510 007c 74000000 		.4byte	.LFE248-.LFB248
 4511 0080 00000000 		.4byte	.LFB249
ARM GAS  /tmp/ccCDU11I.s 			page 144


 4512 0084 7A000000 		.4byte	.LFE249-.LFB249
 4513 0088 00000000 		.4byte	.LFB250
 4514 008c 28000000 		.4byte	.LFE250-.LFB250
 4515 0090 00000000 		.4byte	.LFB251
 4516 0094 76000000 		.4byte	.LFE251-.LFB251
 4517 0098 00000000 		.4byte	.LFB252
 4518 009c 7C000000 		.4byte	.LFE252-.LFB252
 4519 00a0 00000000 		.4byte	0
 4520 00a4 00000000 		.4byte	0
 4521              		.section	.debug_ranges,"",%progbits
 4522              	.Ldebug_ranges0:
 4523 0000 00000000 		.4byte	.LFB127
 4524 0004 10000000 		.4byte	.LFE127
 4525 0008 00000000 		.4byte	.LFB128
 4526 000c 10000000 		.4byte	.LFE128
 4527 0010 00000000 		.4byte	.LFB167
 4528 0014 10000000 		.4byte	.LFE167
 4529 0018 00000000 		.4byte	.LFB168
 4530 001c 4E000000 		.4byte	.LFE168
 4531 0020 00000000 		.4byte	.LFB201
 4532 0024 1A000000 		.4byte	.LFE201
 4533 0028 00000000 		.4byte	.LFB203
 4534 002c 16000000 		.4byte	.LFE203
 4535 0030 00000000 		.4byte	.LFB241
 4536 0034 64000000 		.4byte	.LFE241
 4537 0038 00000000 		.4byte	.LFB242
 4538 003c 1E000000 		.4byte	.LFE242
 4539 0040 00000000 		.4byte	.LFB243
 4540 0044 5A000000 		.4byte	.LFE243
 4541 0048 00000000 		.4byte	.LFB244
 4542 004c 28000000 		.4byte	.LFE244
 4543 0050 00000000 		.4byte	.LFB245
 4544 0054 6E000000 		.4byte	.LFE245
 4545 0058 00000000 		.4byte	.LFB246
 4546 005c 74000000 		.4byte	.LFE246
 4547 0060 00000000 		.4byte	.LFB247
 4548 0064 28000000 		.4byte	.LFE247
 4549 0068 00000000 		.4byte	.LFB248
 4550 006c 74000000 		.4byte	.LFE248
 4551 0070 00000000 		.4byte	.LFB249
 4552 0074 7A000000 		.4byte	.LFE249
 4553 0078 00000000 		.4byte	.LFB250
 4554 007c 28000000 		.4byte	.LFE250
 4555 0080 00000000 		.4byte	.LFB251
 4556 0084 76000000 		.4byte	.LFE251
 4557 0088 00000000 		.4byte	.LFB252
 4558 008c 7C000000 		.4byte	.LFE252
 4559 0090 00000000 		.4byte	0
 4560 0094 00000000 		.4byte	0
 4561              		.section	.debug_line,"",%progbits
 4562              	.Ldebug_line0:
 4563 0000 0D040000 		.section	.debug_str,"MS",%progbits,1
 4563      0200ED01 
 4563      00000201 
 4563      FB0E0D00 
 4563      01010101 
 4564              	.LASF97:
ARM GAS  /tmp/ccCDU11I.s 			page 145


 4565 0000 74625F70 		.ascii	"tb_ptr\000"
 4565      747200
 4566              	.LASF54:
 4567 0007 72656164 		.ascii	"ready_list_t\000"
 4567      795F6C69 
 4567      73745F74 
 4567      00
 4568              	.LASF142:
 4569 0014 63684D42 		.ascii	"chMBObjectInit\000"
 4569      4F626A65 
 4569      6374496E 
 4569      697400
 4570              	.LASF115:
 4571 0023 77747472 		.ascii	"wttrp\000"
 4571      7000
 4572              	.LASF141:
 4573 0029 5F5F6675 		.ascii	"__func__.6615\000"
 4573      6E635F5F 
 4573      2E363631 
 4573      3500
 4574              	.LASF16:
 4575 0037 75696E74 		.ascii	"uint64_t\000"
 4575      36345F74 
 4575      00
 4576              	.LASF84:
 4577 0040 6B65726E 		.ascii	"kernel_stats\000"
 4577      656C5F73 
 4577      74617473 
 4577      00
 4578              	.LASF5:
 4579 004d 5F5F7569 		.ascii	"__uint8_t\000"
 4579      6E74385F 
 4579      7400
 4580              	.LASF150:
 4581 0057 63684D42 		.ascii	"chMBPostI\000"
 4581      506F7374 
 4581      4900
 4582              	.LASF90:
 4583 0061 706F7274 		.ascii	"port_intctx\000"
 4583      5F696E74 
 4583      63747800 
 4584              	.LASF53:
 4585 006d 63685F74 		.ascii	"ch_threads_queue\000"
 4585      68726561 
 4585      64735F71 
 4585      75657565 
 4585      00
 4586              	.LASF73:
 4587 007e 73797374 		.ascii	"system_debug_t\000"
 4587      656D5F64 
 4587      65627567 
 4587      5F7400
 4588              	.LASF85:
 4589 008d 69646C65 		.ascii	"idle_thread_wa\000"
 4589      5F746872 
 4589      6561645F 
 4589      776100
ARM GAS  /tmp/ccCDU11I.s 			page 146


 4590              	.LASF136:
 4591 009c 706F7274 		.ascii	"port_lock\000"
 4591      5F6C6F63 
 4591      6B00
 4592              	.LASF103:
 4593 00a6 776F7273 		.ascii	"worst\000"
 4593      7400
 4594              	.LASF106:
 4595 00ac 74696D65 		.ascii	"time_measurement_t\000"
 4595      5F6D6561 
 4595      73757265 
 4595      6D656E74 
 4595      5F7400
 4596              	.LASF155:
 4597 00bf 63684D42 		.ascii	"chMBPostAheadI\000"
 4597      506F7374 
 4597      41686561 
 4597      644900
 4598              	.LASF12:
 4599 00ce 6C6F6E67 		.ascii	"long long unsigned int\000"
 4599      206C6F6E 
 4599      6720756E 
 4599      7369676E 
 4599      65642069 
 4600              	.LASF99:
 4601 00e5 63685F74 		.ascii	"ch_trace_buffer_t\000"
 4601      72616365 
 4601      5F627566 
 4601      6665725F 
 4601      7400
 4602              	.LASF94:
 4603 00f7 73655F73 		.ascii	"se_state\000"
 4603      74617465 
 4603      00
 4604              	.LASF127:
 4605 0100 73656D61 		.ascii	"semaphore_t\000"
 4605      70686F72 
 4605      655F7400 
 4606              	.LASF113:
 4607 010c 65786974 		.ascii	"exitcode\000"
 4607      636F6465 
 4607      00
 4608              	.LASF153:
 4609 0115 63684D42 		.ascii	"chMBPostAheadS\000"
 4609      506F7374 
 4609      41686561 
 4609      645300
 4610              	.LASF70:
 4611 0124 76697274 		.ascii	"virtual_timers_list_t\000"
 4611      75616C5F 
 4611      74696D65 
 4611      72735F6C 
 4611      6973745F 
 4612              	.LASF131:
 4613 013a 6D625F77 		.ascii	"mb_wrptr\000"
 4613      72707472 
 4613      00
ARM GAS  /tmp/ccCDU11I.s 			page 147


 4614              	.LASF18:
 4615 0143 72747469 		.ascii	"rttime_t\000"
 4615      6D655F74 
 4615      00
 4616              	.LASF31:
 4617 014c 705F7072 		.ascii	"p_prio\000"
 4617      696F00
 4618              	.LASF4:
 4619 0153 73686F72 		.ascii	"short unsigned int\000"
 4619      7420756E 
 4619      7369676E 
 4619      65642069 
 4619      6E7400
 4620              	.LASF10:
 4621 0166 6C6F6E67 		.ascii	"long long int\000"
 4621      206C6F6E 
 4621      6720696E 
 4621      7400
 4622              	.LASF1:
 4623 0174 7369676E 		.ascii	"signed char\000"
 4623      65642063 
 4623      68617200 
 4624              	.LASF166:
 4625 0180 2F686F6D 		.ascii	"/home/jerker/git/AutoTux/stm32\000"
 4625      652F6A65 
 4625      726B6572 
 4625      2F676974 
 4625      2F417574 
 4626              	.LASF91:
 4627 019f 73655F74 		.ascii	"se_time\000"
 4627      696D6500 
 4628              	.LASF145:
 4629 01a7 5F5F6675 		.ascii	"__func__.6622\000"
 4629      6E635F5F 
 4629      2E363632 
 4629      3200
 4630              	.LASF123:
 4631 01b5 6D5F7175 		.ascii	"m_queue\000"
 4631      65756500 
 4632              	.LASF82:
 4633 01bd 76746C69 		.ascii	"vtlist\000"
 4633      737400
 4634              	.LASF137:
 4635 01c4 706F7274 		.ascii	"port_unlock\000"
 4635      5F756E6C 
 4635      6F636B00 
 4636              	.LASF147:
 4637 01d0 63684D42 		.ascii	"chMBPost\000"
 4637      506F7374 
 4637      00
 4638              	.LASF7:
 4639 01d9 6C6F6E67 		.ascii	"long int\000"
 4639      20696E74 
 4639      00
 4640              	.LASF20:
 4641 01e2 74737461 		.ascii	"tstate_t\000"
 4641      74655F74 
ARM GAS  /tmp/ccCDU11I.s 			page 148


 4641      00
 4642              	.LASF92:
 4643 01eb 73655F74 		.ascii	"se_tp\000"
 4643      7000
 4644              	.LASF33:
 4645 01f1 705F6E65 		.ascii	"p_newer\000"
 4645      77657200 
 4646              	.LASF120:
 4647 01f9 735F7175 		.ascii	"s_queue\000"
 4647      65756500 
 4648              	.LASF96:
 4649 0201 74625F73 		.ascii	"tb_size\000"
 4649      697A6500 
 4650              	.LASF132:
 4651 0209 6D625F72 		.ascii	"mb_rdptr\000"
 4651      64707472 
 4651      00
 4652              	.LASF46:
 4653 0212 705F6D70 		.ascii	"p_mpool\000"
 4653      6F6F6C00 
 4654              	.LASF87:
 4655 021a 72656761 		.ascii	"regarm_t\000"
 4655      726D5F74 
 4655      00
 4656              	.LASF66:
 4657 0223 76745F70 		.ascii	"vt_prev\000"
 4657      72657600 
 4658              	.LASF165:
 4659 022b 6C69622F 		.ascii	"lib/ChibiOS_16.1.4//os/rt/src/chmboxes.c\000"
 4659      43686962 
 4659      694F535F 
 4659      31362E31 
 4659      2E342F2F 
 4660              	.LASF74:
 4661 0254 63685F73 		.ascii	"ch_system_debug\000"
 4661      79737465 
 4661      6D5F6465 
 4661      62756700 
 4662              	.LASF149:
 4663 0264 5F5F6675 		.ascii	"__func__.6635\000"
 4663      6E635F5F 
 4663      2E363633 
 4663      3500
 4664              	.LASF128:
 4665 0272 6D757465 		.ascii	"mutex_t\000"
 4665      785F7400 
 4666              	.LASF168:
 4667 027a 76616C75 		.ascii	"value\000"
 4667      6500
 4668              	.LASF77:
 4669 0280 6C6F636B 		.ascii	"lock_cnt\000"
 4669      5F636E74 
 4669      00
 4670              	.LASF8:
 4671 0289 5F5F7569 		.ascii	"__uint32_t\000"
 4671      6E743332 
 4671      5F7400
ARM GAS  /tmp/ccCDU11I.s 			page 149


 4672              	.LASF25:
 4673 0294 636E745F 		.ascii	"cnt_t\000"
 4673      7400
 4674              	.LASF36:
 4675 029a 705F7374 		.ascii	"p_stklimit\000"
 4675      6B6C696D 
 4675      697400
 4676              	.LASF0:
 4677 02a5 756E7369 		.ascii	"unsigned int\000"
 4677      676E6564 
 4677      20696E74 
 4677      00
 4678              	.LASF65:
 4679 02b2 76745F6E 		.ascii	"vt_next\000"
 4679      65787400 
 4680              	.LASF116:
 4681 02ba 77747365 		.ascii	"wtsemp\000"
 4681      6D7000
 4682              	.LASF41:
 4683 02c1 705F6D73 		.ascii	"p_msgqueue\000"
 4683      67717565 
 4683      756500
 4684              	.LASF146:
 4685 02cc 74696D65 		.ascii	"timeout\000"
 4685      6F757400 
 4686              	.LASF134:
 4687 02d4 6D625F65 		.ascii	"mb_emptysem\000"
 4687      6D707479 
 4687      73656D00 
 4688              	.LASF107:
 4689 02e0 6E5F6972 		.ascii	"n_irq\000"
 4689      7100
 4690              	.LASF121:
 4691 02e6 735F636E 		.ascii	"s_cnt\000"
 4691      7400
 4692              	.LASF144:
 4693 02ec 63684D42 		.ascii	"chMBResetI\000"
 4693      52657365 
 4693      744900
 4694              	.LASF111:
 4695 02f7 6B65726E 		.ascii	"kernel_stats_t\000"
 4695      656C5F73 
 4695      74617473 
 4695      5F7400
 4696              	.LASF50:
 4697 0306 63685F74 		.ascii	"ch_thread\000"
 4697      68726561 
 4697      6400
 4698              	.LASF83:
 4699 0310 6D61696E 		.ascii	"mainthread\000"
 4699      74687265 
 4699      616400
 4700              	.LASF161:
 4701 031b 63684D42 		.ascii	"chMBFetchI\000"
 4701      46657463 
 4701      684900
 4702              	.LASF23:
ARM GAS  /tmp/ccCDU11I.s 			page 150


 4703 0326 6D73675F 		.ascii	"msg_t\000"
 4703      7400
 4704              	.LASF104:
 4705 032c 6C617374 		.ascii	"last\000"
 4705      00
 4706              	.LASF26:
 4707 0331 75636E74 		.ascii	"ucnt_t\000"
 4707      5F7400
 4708              	.LASF59:
 4709 0338 725F6E65 		.ascii	"r_newer\000"
 4709      77657200 
 4710              	.LASF151:
 4711 0340 5F5F6675 		.ascii	"__func__.6640\000"
 4711      6E635F5F 
 4711      2E363634 
 4711      3000
 4712              	.LASF159:
 4713 034e 63684D42 		.ascii	"chMBFetchS\000"
 4713      46657463 
 4713      685300
 4714              	.LASF164:
 4715 0359 474E5520 		.ascii	"GNU C 4.8.2 -mcpu=cortex-m4 -mno-thumb-interwork -m"
 4715      4320342E 
 4715      382E3220 
 4715      2D6D6370 
 4715      753D636F 
 4716 038c 7468756D 		.ascii	"thumb -ggdb -O0 -fomit-frame-pointer -falign-functi"
 4716      62202D67 
 4716      67646220 
 4716      2D4F3020 
 4716      2D666F6D 
 4717 03bf 6F6E733D 		.ascii	"ons=16 -ffunction-sections -fdata-sections -fno-com"
 4717      3136202D 
 4717      6666756E 
 4717      6374696F 
 4717      6E2D7365 
 4718 03f2 6D6F6E20 		.ascii	"mon -flto\000"
 4718      2D666C74 
 4718      6F00
 4719              	.LASF19:
 4720 03fc 746D6F64 		.ascii	"tmode_t\000"
 4720      655F7400 
 4721              	.LASF110:
 4722 0404 6D5F6372 		.ascii	"m_crit_isr\000"
 4722      69745F69 
 4722      737200
 4723              	.LASF55:
 4724 040f 63685F72 		.ascii	"ch_ready_list\000"
 4724      65616479 
 4724      5F6C6973 
 4724      7400
 4725              	.LASF24:
 4726 041d 6576656E 		.ascii	"eventmask_t\000"
 4726      746D6173 
 4726      6B5F7400 
 4727              	.LASF6:
 4728 0429 5F5F696E 		.ascii	"__int32_t\000"
ARM GAS  /tmp/ccCDU11I.s 			page 151


 4728      7433325F 
 4728      7400
 4729              	.LASF158:
 4730 0433 6D736770 		.ascii	"msgp\000"
 4730      00
 4731              	.LASF88:
 4732 0438 73746B61 		.ascii	"stkalign_t\000"
 4732      6C69676E 
 4732      5F7400
 4733              	.LASF40:
 4734 0443 705F7761 		.ascii	"p_waiting\000"
 4734      6974696E 
 4734      6700
 4735              	.LASF86:
 4736 044d 73697A65 		.ascii	"sizetype\000"
 4736      74797065 
 4736      00
 4737              	.LASF48:
 4738 0456 74687265 		.ascii	"thread_reference_t\000"
 4738      61645F72 
 4738      65666572 
 4738      656E6365 
 4738      5F7400
 4739              	.LASF101:
 4740 0469 746D5F63 		.ascii	"tm_calibration_t\000"
 4740      616C6962 
 4740      72617469 
 4740      6F6E5F74 
 4740      00
 4741              	.LASF71:
 4742 047a 63685F76 		.ascii	"ch_virtual_timers_list\000"
 4742      69727475 
 4742      616C5F74 
 4742      696D6572 
 4742      735F6C69 
 4743              	.LASF157:
 4744 0491 63684D42 		.ascii	"chMBFetch\000"
 4744      46657463 
 4744      6800
 4745              	.LASF143:
 4746 049b 63684D42 		.ascii	"chMBReset\000"
 4746      52657365 
 4746      7400
 4747              	.LASF95:
 4748 04a5 63685F73 		.ascii	"ch_swc_event_t\000"
 4748      77635F65 
 4748      76656E74 
 4748      5F7400
 4749              	.LASF72:
 4750 04b4 76745F6C 		.ascii	"vt_lasttime\000"
 4750      61737474 
 4750      696D6500 
 4751              	.LASF34:
 4752 04c0 705F6F6C 		.ascii	"p_older\000"
 4752      64657200 
 4753              	.LASF58:
 4754 04c8 725F6374 		.ascii	"r_ctx\000"
ARM GAS  /tmp/ccCDU11I.s 			page 152


 4754      7800
 4755              	.LASF135:
 4756 04ce 6D61696C 		.ascii	"mailbox_t\000"
 4756      626F785F 
 4756      7400
 4757              	.LASF154:
 4758 04d8 5F5F6675 		.ascii	"__func__.6653\000"
 4758      6E635F5F 
 4758      2E363635 
 4758      3300
 4759              	.LASF129:
 4760 04e6 6D625F62 		.ascii	"mb_buffer\000"
 4760      75666665 
 4760      7200
 4761              	.LASF156:
 4762 04f0 5F5F6675 		.ascii	"__func__.6658\000"
 4762      6E635F5F 
 4762      2E363635 
 4762      3800
 4763              	.LASF61:
 4764 04fe 725F6375 		.ascii	"r_current\000"
 4764      7272656E 
 4764      7400
 4765              	.LASF60:
 4766 0508 725F6F6C 		.ascii	"r_older\000"
 4766      64657200 
 4767              	.LASF11:
 4768 0510 5F5F7569 		.ascii	"__uint64_t\000"
 4768      6E743634 
 4768      5F7400
 4769              	.LASF105:
 4770 051b 63756D75 		.ascii	"cumulative\000"
 4770      6C617469 
 4770      766500
 4771              	.LASF140:
 4772 0526 5F5F6675 		.ascii	"__func__.5915\000"
 4772      6E635F5F 
 4772      2E353931 
 4772      3500
 4773              	.LASF21:
 4774 0534 74726566 		.ascii	"trefs_t\000"
 4774      735F7400 
 4775              	.LASF98:
 4776 053c 74625F62 		.ascii	"tb_buffer\000"
 4776      75666665 
 4776      7200
 4777              	.LASF63:
 4778 0546 76697274 		.ascii	"virtual_timer_t\000"
 4778      75616C5F 
 4778      74696D65 
 4778      725F7400 
 4779              	.LASF30:
 4780 0556 705F7072 		.ascii	"p_prev\000"
 4780      657600
 4781              	.LASF22:
 4782 055d 74707269 		.ascii	"tprio_t\000"
 4782      6F5F7400 
ARM GAS  /tmp/ccCDU11I.s 			page 153


 4783              	.LASF108:
 4784 0565 6E5F6374 		.ascii	"n_ctxswc\000"
 4784      78737763 
 4784      00
 4785              	.LASF14:
 4786 056e 696E7433 		.ascii	"int32_t\000"
 4786      325F7400 
 4787              	.LASF2:
 4788 0576 756E7369 		.ascii	"unsigned char\000"
 4788      676E6564 
 4788      20636861 
 4788      7200
 4789              	.LASF130:
 4790 0584 6D625F74 		.ascii	"mb_top\000"
 4790      6F7000
 4791              	.LASF163:
 4792 058b 49544D5F 		.ascii	"ITM_RxBuffer\000"
 4792      52784275 
 4792      66666572 
 4792      00
 4793              	.LASF44:
 4794 0598 705F6D74 		.ascii	"p_mtxlist\000"
 4794      786C6973 
 4794      7400
 4795              	.LASF3:
 4796 05a2 73686F72 		.ascii	"short int\000"
 4796      7420696E 
 4796      7400
 4797              	.LASF37:
 4798 05ac 705F7374 		.ascii	"p_state\000"
 4798      61746500 
 4799              	.LASF57:
 4800 05b4 725F7072 		.ascii	"r_prio\000"
 4800      696F00
 4801              	.LASF118:
 4802 05bb 65776D61 		.ascii	"ewmask\000"
 4802      736B00
 4803              	.LASF29:
 4804 05c2 705F6E65 		.ascii	"p_next\000"
 4804      787400
 4805              	.LASF38:
 4806 05c9 705F666C 		.ascii	"p_flags\000"
 4806      61677300 
 4807              	.LASF47:
 4808 05d1 705F7374 		.ascii	"p_stats\000"
 4808      61747300 
 4809              	.LASF169:
 4810 05d9 63685379 		.ascii	"chSysLock\000"
 4810      734C6F63 
 4810      6B00
 4811              	.LASF80:
 4812 05e3 63685F73 		.ascii	"ch_system\000"
 4812      79737465 
 4812      6D00
 4813              	.LASF112:
 4814 05ed 7264796D 		.ascii	"rdymsg\000"
 4814      736700
ARM GAS  /tmp/ccCDU11I.s 			page 154


 4815              	.LASF64:
 4816 05f4 63685F76 		.ascii	"ch_virtual_timer\000"
 4816      69727475 
 4816      616C5F74 
 4816      696D6572 
 4816      00
 4817              	.LASF119:
 4818 0605 63685F73 		.ascii	"ch_semaphore\000"
 4818      656D6170 
 4818      686F7265 
 4818      00
 4819              	.LASF43:
 4820 0612 705F6570 		.ascii	"p_epending\000"
 4820      656E6469 
 4820      6E6700
 4821              	.LASF15:
 4822 061d 75696E74 		.ascii	"uint32_t\000"
 4822      33325F74 
 4822      00
 4823              	.LASF117:
 4824 0626 77746D74 		.ascii	"wtmtxp\000"
 4824      787000
 4825              	.LASF56:
 4826 062d 725F7175 		.ascii	"r_queue\000"
 4826      65756500 
 4827              	.LASF67:
 4828 0635 76745F64 		.ascii	"vt_delta\000"
 4828      656C7461 
 4828      00
 4829              	.LASF51:
 4830 063e 63685F74 		.ascii	"ch_threads_list\000"
 4830      68726561 
 4830      64735F6C 
 4830      69737400 
 4831              	.LASF9:
 4832 064e 6C6F6E67 		.ascii	"long unsigned int\000"
 4832      20756E73 
 4832      69676E65 
 4832      6420696E 
 4832      7400
 4833              	.LASF126:
 4834 0660 63686172 		.ascii	"char\000"
 4834      00
 4835              	.LASF28:
 4836 0665 74687265 		.ascii	"thread_t\000"
 4836      61645F74 
 4836      00
 4837              	.LASF102:
 4838 066e 62657374 		.ascii	"best\000"
 4838      00
 4839              	.LASF125:
 4840 0673 6D5F6E65 		.ascii	"m_next\000"
 4840      787400
 4841              	.LASF27:
 4842 067a 73797374 		.ascii	"systime_t\000"
 4842      696D655F 
 4842      7400
ARM GAS  /tmp/ccCDU11I.s 			page 155


 4843              	.LASF45:
 4844 0684 705F7265 		.ascii	"p_realprio\000"
 4844      616C7072 
 4844      696F00
 4845              	.LASF62:
 4846 068f 76746675 		.ascii	"vtfunc_t\000"
 4846      6E635F74 
 4846      00
 4847              	.LASF170:
 4848 0698 63685365 		.ascii	"chSemGetCounterI\000"
 4848      6D476574 
 4848      436F756E 
 4848      74657249 
 4848      00
 4849              	.LASF167:
 4850 06a9 5F5F7365 		.ascii	"__set_BASEPRI\000"
 4850      745F4241 
 4850      53455052 
 4850      4900
 4851              	.LASF75:
 4852 06b7 70616E69 		.ascii	"panic_msg\000"
 4852      635F6D73 
 4852      6700
 4853              	.LASF100:
 4854 06c1 6F666673 		.ascii	"offset\000"
 4854      657400
 4855              	.LASF160:
 4856 06c8 5F5F6675 		.ascii	"__func__.6671\000"
 4856      6E635F5F 
 4856      2E363637 
 4856      3100
 4857              	.LASF89:
 4858 06d6 636F6E74 		.ascii	"context\000"
 4858      65787400 
 4859              	.LASF162:
 4860 06de 5F5F6675 		.ascii	"__func__.6676\000"
 4860      6E635F5F 
 4860      2E363637 
 4860      3600
 4861              	.LASF79:
 4862 06ec 63685F73 		.ascii	"ch_system_t\000"
 4862      79737465 
 4862      6D5F7400 
 4863              	.LASF152:
 4864 06f8 63684D42 		.ascii	"chMBPostAhead\000"
 4864      506F7374 
 4864      41686561 
 4864      6400
 4865              	.LASF17:
 4866 0706 7274636E 		.ascii	"rtcnt_t\000"
 4866      745F7400 
 4867              	.LASF69:
 4868 070e 76745F70 		.ascii	"vt_par\000"
 4868      617200
 4869              	.LASF139:
 4870 0715 63685365 		.ascii	"chSemFastWaitI\000"
 4870      6D466173 
ARM GAS  /tmp/ccCDU11I.s 			page 156


 4870      74576169 
 4870      744900
 4871              	.LASF133:
 4872 0724 6D625F66 		.ascii	"mb_fullsem\000"
 4872      756C6C73 
 4872      656D00
 4873              	.LASF52:
 4874 072f 74687265 		.ascii	"threads_queue_t\000"
 4874      6164735F 
 4874      71756575 
 4874      655F7400 
 4875              	.LASF122:
 4876 073f 63685F6D 		.ascii	"ch_mutex\000"
 4876      75746578 
 4876      00
 4877              	.LASF39:
 4878 0748 705F7265 		.ascii	"p_refs\000"
 4878      667300
 4879              	.LASF76:
 4880 074f 6973725F 		.ascii	"isr_cnt\000"
 4880      636E7400 
 4881              	.LASF81:
 4882 0757 726C6973 		.ascii	"rlist\000"
 4882      7400
 4883              	.LASF13:
 4884 075d 75696E74 		.ascii	"uint8_t\000"
 4884      385F7400 
 4885              	.LASF114:
 4886 0765 77746F62 		.ascii	"wtobjp\000"
 4886      6A7000
 4887              	.LASF35:
 4888 076c 705F6E61 		.ascii	"p_name\000"
 4888      6D6500
 4889              	.LASF49:
 4890 0773 74687265 		.ascii	"threads_list_t\000"
 4890      6164735F 
 4890      6C697374 
 4890      5F7400
 4891              	.LASF78:
 4892 0782 74726163 		.ascii	"trace_buffer\000"
 4892      655F6275 
 4892      66666572 
 4892      00
 4893              	.LASF138:
 4894 078f 63685379 		.ascii	"chSysUnlock\000"
 4894      73556E6C 
 4894      6F636B00 
 4895              	.LASF42:
 4896 079b 705F6D73 		.ascii	"p_msg\000"
 4896      6700
 4897              	.LASF148:
 4898 07a1 63684D42 		.ascii	"chMBPostS\000"
 4898      506F7374 
 4898      5300
 4899              	.LASF109:
 4900 07ab 6D5F6372 		.ascii	"m_crit_thd\000"
 4900      69745F74 
ARM GAS  /tmp/ccCDU11I.s 			page 157


 4900      686400
 4901              	.LASF124:
 4902 07b6 6D5F6F77 		.ascii	"m_owner\000"
 4902      6E657200 
 4903              	.LASF93:
 4904 07be 73655F77 		.ascii	"se_wtobjp\000"
 4904      746F626A 
 4904      7000
 4905              	.LASF32:
 4906 07c8 705F6374 		.ascii	"p_ctx\000"
 4906      7800
 4907              	.LASF68:
 4908 07ce 76745F66 		.ascii	"vt_func\000"
 4908      756E6300 
 4909              		.comm	__gnu_lto_v1,1,1
 4910              		.ident	"GCC: (4.8.2-14ubuntu1+6) 4.8.2"
ARM GAS  /tmp/ccCDU11I.s 			page 158


DEFINED SYMBOLS
                            *ABS*:0000000000000000 chmboxes.c
     /tmp/ccCDU11I.s:1042   .text.port_lock:0000000000000000 $t
     /tmp/ccCDU11I.s:1047   .text.port_lock:0000000000000000 port_lock
     /tmp/ccCDU11I.s:1078   .text.port_unlock:0000000000000000 $t
     /tmp/ccCDU11I.s:1083   .text.port_unlock:0000000000000000 port_unlock
     /tmp/ccCDU11I.s:1112   .text.chSysLock:0000000000000000 $t
     /tmp/ccCDU11I.s:1117   .text.chSysLock:0000000000000000 chSysLock
     /tmp/ccCDU11I.s:1140   .text.chSysUnlock:0000000000000000 $t
     /tmp/ccCDU11I.s:1145   .text.chSysUnlock:0000000000000000 chSysUnlock
     /tmp/ccCDU11I.s:2084   .rodata.__func__.5915:0000000000000000 __func__.5915
     /tmp/ccCDU11I.s:1190   .text.chSemFastWaitI:0000000000000000 $t
     /tmp/ccCDU11I.s:1195   .text.chSemFastWaitI:0000000000000000 chSemFastWaitI
     /tmp/ccCDU11I.s:1224   .text.chSemGetCounterI:0000000000000000 $t
     /tmp/ccCDU11I.s:1229   .text.chSemGetCounterI:0000000000000000 chSemGetCounterI
     /tmp/ccCDU11I.s:1255   .text.chMBObjectInit:0000000000000000 $t
     /tmp/ccCDU11I.s:1261   .text.chMBObjectInit:0000000000000000 chMBObjectInit
     /tmp/ccCDU11I.s:2078   .rodata.__func__.6615:0000000000000000 __func__.6615
     /tmp/ccCDU11I.s:1332   .text.chMBReset:0000000000000000 $t
     /tmp/ccCDU11I.s:1338   .text.chMBReset:0000000000000000 chMBReset
     /tmp/ccCDU11I.s:1373   .text.chMBResetI:0000000000000000 chMBResetI
     /tmp/ccCDU11I.s:1367   .text.chMBResetI:0000000000000000 $t
     /tmp/ccCDU11I.s:2090   .rodata.__func__.6622:0000000000000000 __func__.6622
     /tmp/ccCDU11I.s:1433   .text.chMBPost:0000000000000000 $t
     /tmp/ccCDU11I.s:1439   .text.chMBPost:0000000000000000 chMBPost
     /tmp/ccCDU11I.s:1480   .text.chMBPostS:0000000000000000 chMBPostS
     /tmp/ccCDU11I.s:1474   .text.chMBPostS:0000000000000000 $t
     /tmp/ccCDU11I.s:2096   .rodata.__func__.6635:0000000000000000 __func__.6635
     /tmp/ccCDU11I.s:1556   .text.chMBPostI:0000000000000000 $t
     /tmp/ccCDU11I.s:1562   .text.chMBPostI:0000000000000000 chMBPostI
     /tmp/ccCDU11I.s:2102   .rodata.__func__.6640:0000000000000000 __func__.6640
     /tmp/ccCDU11I.s:1641   .text.chMBPostAhead:0000000000000000 $t
     /tmp/ccCDU11I.s:1647   .text.chMBPostAhead:0000000000000000 chMBPostAhead
     /tmp/ccCDU11I.s:1688   .text.chMBPostAheadS:0000000000000000 chMBPostAheadS
     /tmp/ccCDU11I.s:1682   .text.chMBPostAheadS:0000000000000000 $t
     /tmp/ccCDU11I.s:2108   .rodata.__func__.6653:0000000000000000 __func__.6653
     /tmp/ccCDU11I.s:1767   .text.chMBPostAheadI:0000000000000000 $t
     /tmp/ccCDU11I.s:1773   .text.chMBPostAheadI:0000000000000000 chMBPostAheadI
     /tmp/ccCDU11I.s:2114   .rodata.__func__.6658:0000000000000000 __func__.6658
     /tmp/ccCDU11I.s:1855   .text.chMBFetch:0000000000000000 $t
     /tmp/ccCDU11I.s:1861   .text.chMBFetch:0000000000000000 chMBFetch
     /tmp/ccCDU11I.s:1902   .text.chMBFetchS:0000000000000000 chMBFetchS
     /tmp/ccCDU11I.s:1896   .text.chMBFetchS:0000000000000000 $t
     /tmp/ccCDU11I.s:2120   .rodata.__func__.6671:0000000000000000 __func__.6671
     /tmp/ccCDU11I.s:1984   .text.chMBFetchI:0000000000000000 $t
     /tmp/ccCDU11I.s:1990   .text.chMBFetchI:0000000000000000 chMBFetchI
     /tmp/ccCDU11I.s:2126   .rodata.__func__.6676:0000000000000000 __func__.6676
     /tmp/ccCDU11I.s:2075   .rodata.__func__.6615:0000000000000000 $d
     /tmp/ccCDU11I.s:2081   .rodata.__func__.5915:0000000000000000 $d
     /tmp/ccCDU11I.s:2087   .rodata.__func__.6622:0000000000000000 $d
     /tmp/ccCDU11I.s:2093   .rodata.__func__.6635:0000000000000000 $d
     /tmp/ccCDU11I.s:2099   .rodata.__func__.6640:0000000000000000 $d
     /tmp/ccCDU11I.s:2105   .rodata.__func__.6653:0000000000000000 $d
     /tmp/ccCDU11I.s:2111   .rodata.__func__.6658:0000000000000000 $d
     /tmp/ccCDU11I.s:2117   .rodata.__func__.6671:0000000000000000 $d
     /tmp/ccCDU11I.s:2123   .rodata.__func__.6676:0000000000000000 $d
                            *COM*:0000000000000001 __gnu_lto_v1
ARM GAS  /tmp/ccCDU11I.s 			page 159


                     .debug_frame:0000000000000010 $d

UNDEFINED SYMBOLS
_stats_start_measure_crit_thd
_dbg_check_lock
_dbg_check_unlock
_stats_stop_measure_crit_thd
ch
chSysHalt
chDbgCheckClassI
chSemObjectInit
chSchRescheduleS
chSemResetI
chDbgCheckClassS
chSemWaitTimeoutS
chSemSignalI
