ARM GAS  /tmp/ccUx4H0Q.s 			page 1


   1              		.syntax unified
   2              		.cpu cortex-m4
   3              		.fpu softvfp
   4              		.eabi_attribute 20, 1
   5              		.eabi_attribute 21, 1
   6              		.eabi_attribute 23, 3
   7              		.eabi_attribute 24, 1
   8              		.eabi_attribute 25, 1
   9              		.eabi_attribute 26, 1
  10              		.eabi_attribute 30, 6
  11              		.eabi_attribute 34, 1
  12              		.eabi_attribute 18, 4
  13              		.thumb
  14              		.file	"chmboxes.c"
  15              		.text
  16              	.Ltext0:
  17              		.section	.gnu.lto_.inline.1f3e49778d43deae,"",%progbits
  18 0000 789C6362 		.ascii	"x\234cb`b\300\006j\240\302B\014\014,\314\014\014L,\037"
  18      6062C006 
  18      6AA0C242 
  18      0C0C2CCC 
  18      0C0C4C2C 
  19 0015 F4185820 		.ascii	"\364\030X j\0311D\230\030\330\024\200$\323\002y\270"
  19      6A193144 
  19      9818D814 
  19      8024D302 
  19      79B8
  20 0027 1A2E1482 		.ascii	"\032.\024\202\231A\320\004\250@\344\303jF\024\025L\334"
  20      9941D004 
  20      A840E4C3 
  20      6A461415 
  20      4CDC
  21 0039 28CAD818 		.ascii	"(\312\330\030Xy\321\354\002\011\2633\260\363\003\205"
  21      5879D1EC 
  21      0209B333 
  21      B0F30385 
  22 0049 3926F8A1 		.ascii	"9&\370\241\010s0\210\033\002\205\245\036\334\202\033"
  22      08733088 
  22      1B0285A5 
  22      1EDC821B 
  23 0059 CACC0323 		.ascii	"\312\314\003#\300&s1\210Y\002\231b\007v\343R\0016\210"
  23      C0267331 
  23      88590299 
  23      620776E3 
  23      52013688 
  24 006d 8781431B 		.ascii	"\207\201C\033\227\363\021\252x\031\244\217\203\004\344"
  24      97F311AA 
  24      7819A48F 
  24      8304E4
  25 007c 1A7E61F1 		.ascii	"\032~a\361\004\013/\212b~\006.\025,F\262\362\301X\002"
  25      040B2F8A 
  25      627E062E 
  25      152C46B2 
  25      F2C15802 
  26 0090 584C036B 		.ascii	"XL\003k\007\023h\016\024b\220=\011\022PZ0\223\211\240"
  26      0713680E 
  26      1462903D 
ARM GAS  /tmp/ccUx4H0Q.s 			page 2


  26      0912505A 
  26      309389A0 
  27 00a4 D52284AC 		.ascii	"\325\"\204\254\026\305b\032N\253\305\031\344N\201\004"
  27      16C5621A 
  27      4EABC519 
  27      E44E8104 
  28 00b4 543EAC20 		.ascii	"T>\254 l\265$!\253\245\260\230\206\323j\006\000\301"
  28      6CB52421 
  28      ABA5B098 
  28      86D36A06 
  28      00C1
  29 00c6 1222E1   		.ascii	"\022\"\341"
  30              		.text
  31              		.section	.gnu.lto_port_lock.1f3e49778d43deae,"",%progbits
  32 0000 789C6362 		.ascii	"x\234cb`b@\007\"@,\310\310\300\320\000\342030\002U0"
  32      60624007 
  32      22402CC8 
  32      C8C0D000 
  32      E2303330 
  33 0017 32310205 		.ascii	"21\002\005\030\030\031\352\231\030\353#AL\006F%\206"
  33      181819EA 
  33      9918EB23 
  33      414C0646 
  33      2586
  34 0029 850D0D93 		.ascii	"\205\015\015\223\036\264>{\3144\263\341@\313\202\206"
  34      1EB43E7B 
  34      CC34B3E1 
  34      40CB8286 
  35 0039 3FFFFF33 		.ascii	"?\377\37732f2\002M\324gdHfd\210\000r\030\025\300\024"
  35      32663202 
  35      4DD46764 
  35      48666488 
  35      00721815 
  36 004f 130BAA15 		.ascii	"\023\013\252\025\353\231\016<\370\377\377D\347\363\275"
  36      EB990E3C 
  36      F8FFFF44 
  36      E7F3BD
  37 005e 40931912 		.ascii	"@\223\031\022\031\027\002M\003\002V\206\226\206\206"
  37      1917024D 
  37      03025686 
  37      968686
  38 006d 090A0C20 		.ascii	"\011\012\014 \335@\020\002&CA\016`>\313\320\264\003"
  38      DD401002 
  38      2643410E 
  38      603ECBD0 
  38      B403
  39 007f 48A73332 		.ascii	"H\24732\202\314c\000\252a8\307\320\364\361\355\214\307"
  39      82CC6300 
  39      AA6138C7 
  39      D0F4F1ED 
  39      8CC7
  40 0091 12705D60 		.ascii	"\022p]`F\303\201\356+\355\2540#\023\031\0273\262\002"
  40      46C381EE 
  40      2BEDAC30 
  40      23131917 
  40      33B202
  41 00a4 8D833819 		.ascii	"\215\2038\031\010S\231A>f\206x[\216\241ln\303\014\207"
ARM GAS  /tmp/ccUx4H0Q.s 			page 3


  41      08539941 
  41      3E668678 
  41      5B8EA16C 
  41      6EC30C87 
  42 00b8 4C466610 		.ascii	"LFf\020/\035\254\012.U\011\221\202\272\374\"C\343\203"
  42      2F1DAC0A 
  42      2E550991 
  42      82BAFC22 
  42      43E383
  43 00cb 9DFA10E3 		.ascii	"\235\372\020\343` \004\244\001\244ZGOO\037\216\362\213"
  43      602004A4 
  43      01A45A47 
  43      4F4F1F8E 
  43      F28B
  44 00dd F58B4AF4 		.ascii	"\365\213J\364\013\362\213J\212\365\035\203|\235}+\364"
  44      0BF28B4A 
  44      8AF51D83 
  44      7C9D7D2B 
  44      F4
  45 00ee 933392F3 		.ascii	"\2233\222\363\213R\343\313\314s\3652\030X\313\022sJ"
  45      8B52E3CB 
  45      CC73F532 
  45      1858CB12 
  45      734A
  46 0100 53F5D1B4 		.ascii	"S\365\321\264\244V\224\350;\373\006{\006\353g\346%\347"
  46      A45694E8 
  46      3BFB067B 
  46      06EB67E6 
  46      25E7
  47 0112 94A6A4EA 		.ascii	"\224\246\244\352\203\265$\347\272\225\346%\003u\011"
  47      83B524E7 
  47      BA95E625 
  47      037509
  48 0121 F8060729 		.ascii	"\370\006\007)$%\026\247\026\024e\352(\250\03200\025"
  48      242516A7 
  48      161465EA 
  48      28A81A30 
  48      3015
  49 0133 31B0E7A6 		.ascii	"1\260\347\246\346\346\027U2\000\000%\366_c"
  49      E6E61755 
  49      32000025 
  49      F65F63
  50              		.text
  51              		.section	.gnu.lto_port_unlock.1f3e49778d43deae,"",%progbits
  52 0000 789C6362 		.ascii	"x\234cb`b@\007\"@,\310\310\300\320\000\342030\002U0"
  52      60624007 
  52      22402CC8 
  52      C8C0D000 
  52      E2303330 
  53 0017 32310205 		.ascii	"21\002\005\030\030\031\352\231\030\353#AL\006F%\206"
  53      181819EA 
  53      9918EB23 
  53      414C0646 
  53      2586
  54 0029 850D0D93 		.ascii	"\205\015\015\223\036\264~z\3144\263\341@\313\202\206"
  54      1EB47E7A 
  54      CC34B3E1 
ARM GAS  /tmp/ccUx4H0Q.s 			page 4


  54      40CB8286 
  55 0039 3FFFFF33 		.ascii	"?\377\37732f2\002M\324gdHfd\210\000r\030\025\300\024"
  55      32663202 
  55      4DD46764 
  55      48666488 
  55      00721815 
  56 004f 130BAA15 		.ascii	"\023\013\252\025\353\231\016<\370\377\377E\347\376}"
  56      EB990E3C 
  56      F8FFFF45 
  56      E7FE7D
  57 005e 40931912 		.ascii	"@\223\031\022\031\027\002M\003\002V\206\226\206\206"
  57      1917024D 
  57      03025686 
  57      968686
  58 006d 090A0C20 		.ascii	"\011\012\014 \335@\020\002&CA\016`>\313\320\264\003"
  58      DD401002 
  58      2643410E 
  58      603ECBD0 
  58      B403
  59 007f 48A73332 		.ascii	"H\24732\202\314\003\033r\216\241\351\343\333\031\217"
  59      82CC031B 
  59      728EA1E9 
  59      E3DB198F 
  60 008f 25E0BAC0 		.ascii	"%\340\272\300\214\206\003\247\237\266\263\302\214Ld"
  60      8C8603A7 
  60      9FB6B3C2 
  60      8C4C64
  61 009e 5CCCC80A 		.ascii	"\\\314\310\0124\016\342d Le\006\371\230\031\342m9\206"
  61      340EE264 
  61      204C6506 
  61      F99819E2 
  61      6D3986
  62 00b1 B2B90D33 		.ascii	"\262\271\0153\0342\031\231A\274t\260*\270T%D\012\352"
  62      1C321999 
  62      41BC74B0 
  62      2AB85425 
  62      440AEA
  63 00c4 F28B0C8D 		.ascii	"\362\213\014\215\017\316\353C\214\203\201\020\220\006"
  63      0FCEEB43 
  63      8C838110 
  63      9006
  64 00d2 906A1D3D 		.ascii	"\220j\035==}8\312/\326/*\321/\310/*)\326w\014\362u\366"
  64      3D7D38CA 
  64      2FD62F2A 
  64      D12FC82F 
  64      2A29D677 
  65 00ea ADD04FCE 		.ascii	"\255\320O\316H\316/J\215/3\317\325\313``-K\314)M\325"
  65      48CE2F4A 
  65      8D2F33CF 
  65      D5CB6060 
  65      2D4BCC29 
  66 0100 47D3925A 		.ascii	"G\323\222ZQ\242\357\354\033\354\031\254\237\231\227"
  66      51A2EFEC 
  66      1BEC19AC 
  66      9F9997
  67 010f 9C539A92 		.ascii	"\234S\232\222\252\017\326\222\234\353V\232\227\014\324"
  67      AA0FD692 
ARM GAS  /tmp/ccUx4H0Q.s 			page 5


  67      9CEB569A 
  67      970CD4
  68 011e 25E01B1C 		.ascii	"%\340\033\034\244\220\224X\234ZP\224\251\243\240j\300"
  68      A4909458 
  68      9C5A5094 
  68      A9A3A06A 
  68      C0
  69 012f C054C4C0 		.ascii	"\300T\304\300\236\233\232\233_T\311\000\000g\003_\257"
  69      9E9B9A9B 
  69      5F54C900 
  69      0067035F 
  69      AF
  70              		.text
  71              		.section	.gnu.lto_chSysLock.1f3e49778d43deae,"",%progbits
  72 0000 789C6362 		.ascii	"x\234cb`b@\007\"@|\010\210U@\034f\006F\240\012F&FF "
  72      60624007 
  72      22407C08 
  72      8855401C 
  72      660646A0 
  73 001a 8791A19E 		.ascii	"\207\221\241\236\211\261>\222\021\254l=\323\201\007"
  73      89B13E92 
  73      11AC6C3D 
  73      D38107
  74 0029 FFFFAFFB 		.ascii	"\377\377\257\3732m\331\037\306\333L 1V\206\226\206\206"
  74      326DD91F 
  74      C6DB4C20 
  74      31568696 
  74      8686
  75 003b 090A0C0C 		.ascii	"\011\012\014\014\311`\025!`2\024\244\237\371<C\363\203"
  75      C9601521 
  75      603214A4 
  75      9FF93C43 
  75      F383
  76 004d 3DDDEC89 		.ascii	"=\335\354\211\214\013\031Y\201\202\325\014\277\032:"
  76      8C0B1959 
  76      8182D50C 
  76      BF1A3A
  77 005c 1A043219 		.ascii	"\032\0042\031\201J!\246e\202h\220\252\275\335B\330T"
  77      814A21A6 
  77      65826890 
  77      AABDDD42 
  77      D854
  78 006e 31A1AADA 		.ascii	"1\241\252\332w\232\013\233*f\204\252\213\014\215\017"
  78      779A0B9B 
  78      2A6684AA 
  78      8B0C8D0F 
  79 007e F66BC314 		.ascii	"\366k\303\024A@\010H\002d\222\222\236\236>\034\345\027"
  79      41400848 
  79      02649292 
  79      9E9E3E1C 
  79      E517
  80 0090 EB1795E8 		.ascii	"\353\027\225\350g\346%\347\224\246\244\352'g\024W\026"
  80      67E625E7 
  80      94A6A4EA 
  80      27671457 
  80      16
  81 00a1 EB653000 		.ascii	"\353e0\000\000\203q8C"
ARM GAS  /tmp/ccUx4H0Q.s 			page 6


  81      00837138 
  81      43
  82              		.text
  83              		.section	.gnu.lto_chSysUnlock.1f3e49778d43deae,"",%progbits
  84 0000 789CCD92 		.ascii	"x\234\315\222\275J\003A\020\200gv\367.\211Qc#\250U\010"
  84      BD4A0341 
  84      10806776 
  84      F72E8951 
  84      6323A855 
  85 0015 560AC90B 		.ascii	"V\012\311\013\370\030\011\250\235\236\222\034\030\005"
  85      F81809A8 
  85      9D9E921C 
  85      1805
  86 0023 A38558B8 		.ascii	"\243\205X\270j\012\321&Xj\023\033\261\023\354\322YX"
  86      6A0AD126 
  86      586A131B 
  86      B113ECD2 
  86      5958
  87 0035 0444C44E 		.ascii	"\004D\304N\255\202\220*\351#\"\236\263{?9c\032\305\302"
  87      AD82902A 
  87      E923229E 
  87      B37B3F39 
  87      631AC5C2 
  88 0049 E16E666F 		.ascii	"\341nfoo\346\233\331\235a\300\240Wf\3505\005\300\244"
  88      6FE69BD9 
  88      9D61C0A0 
  88      5766E835 
  88      05C0A4
  89 005c FA880092 		.ascii	"\372\210\000\222\0072\344\2449\243m\311LRB0#X\033H\006"
  89      0732E4A4 
  89      39A36DC9 
  89      4C524230 
  89      23581B48 
  90 0071 4D440A40 		.ascii	"MD\012@\330a\\\030&\356\314\251O0Sp&\345q\243\3319\031"
  90      D8615C18 
  90      26EECCA9 
  90      4F305370 
  90      26E571A3 
  91 0088 3FACEE55 		.ascii	"?\254\356U\344\207\343\240\255~Y\010\263\264\302\244"
  91      E487E3A0 
  91      AD7E5908 
  91      B3B4C2A4 
  92 0098 360A1D16 		.ascii	"6\012\035\0267L^]\310XU\276;\016\377]\014\377/y\212"
  92      374C5E5D 
  92      C85855BE 
  92      3B0EFF5D 
  92      0CFF2F79 
  93 00ad 0897ECBA 		.ascii	"\010\227\354\272\3418\355Z\355\245\215\243&\002ebJq"
  93      E138ED5A 
  93      EDA58DA3 
  93      26026562 
  93      4A71
  94 00bf 525CA895 		.ascii	"R\\\250\225\001\232D\266,e%Y\364J!\311j\235S\315\340"
  94      019A44B6 
  94      2C652559 
  94      F44A21C9 
  94      6A9D53CD 
ARM GAS  /tmp/ccUx4H0Q.s 			page 7


  95 00d4 F7B0DF78 		.ascii	"\367\260\337x<\212/\3409R\017`\033\336\344\201\034\261"
  95      3C8A2FE0 
  95      39520F60 
  95      1BDEE481 
  95      1CB1
  96 00e6 5158BA03 		.ascii	"QX\272\003@\020\332W^O\255D?/\326\365r\251\224\223\337"
  96      4010DA57 
  96      5E4FAD44 
  96      3F2FD6F5 
  96      72A99493 
  97 00fb C1DEF36B 		.ascii	"\301\336\363kg\302\365\317#N\303\024U\244\265\251u\344"
  97      67C2F5CF 
  97      234EC314 
  97      55A4B5A9 
  97      75E4
  98 010d 144E76A5 		.ascii	"\024Nv\245BD\003X\254\250S\252\003\3074k\321\255\200"
  98      42440358 
  98      ACA853AA 
  98      03C7346B 
  98      D1AD80
  99 0120 2C7AD61F 		.ascii	",z\326\037\260:\224\333\030\320\025!j\343@\230O\254"
  99      B03A94DB 
  99      18D01521 
  99      6AE34098 
  99      4FAC
 100 0132 DEF02F92 		.ascii	"\336\360/\222C\341\3269\357cX\250\310\037\226\307=h"
 100      43E1D639 
 100      EF6358A8 
 100      C81F96C7 
 100      3D68
 101 0144 18C73528 		.ascii	"\030\3075(N \012\030$\374\254;\251:@\364\011\020\177"
 101      4E200A18 
 101      24FCAC3B 
 101      A93A40F4 
 101      09107F
 102 0157 7D4961B8 		.ascii	"}Ia\270\321S\215\350WM\035n\232\301\255\362\274\337"
 102      D1538DE8 
 102      574D1D6E 
 102      9AC1ADF2 
 102      BCDF
 103 0169 52F7BA0C 		.ascii	"R\367\272\014=,\342\333\010\014Y\336\361\325\316\230"
 103      3D2CE2DB 
 103      080C59DE 
 103      F1D5CE98 
 104 0179 8DC33468 		.ascii	"\215\3034h\236\223\215\011?\332\364F\255u\033\3517D"
 104      9E938D09 
 104      3FDAF446 
 104      AD751BE9 
 104      3744
 105 018b A23B440F 		.ascii	"\242;D\017\260\333hO\373N\256d\325\331\324\261R\351"
 105      B0DB684F 
 105      FB4EAE64 
 105      D5D9D4B1 
 105      52E9
 106 019d 742678D6 		.ascii	"t&x\326J\231\365\215\214\275j\255l.-g\254Bi\253\224"
 106      4A99F58D 
 106      8CBD6AAD 
ARM GAS  /tmp/ccUx4H0Q.s 			page 8


 106      6C2E2D67 
 106      AC4269AB 
 107 01b2 2EC027B8 		.ascii	".\300'\270W\315R"
 107      57CD52
 108              		.text
 109              		.section	.gnu.lto_chSemGetCounterI.1f3e49778d43deae,"",%progbits
 110 0000 789C6362 		.ascii	"x\234cb`b@\007\322@\314\302\310\300\240\002\342\260"
 110      60624007 
 110      D240CCC2 
 110      C8C0A002 
 110      E2B0
 111 0012 30300255 		.ascii	"00\002U0212\003IfF\2400\003#C=\0233c}$\210\315\300\250"
 111      30323132 
 111      03496646 
 111      A0300323 
 111      433D1333 
 112 002d C4B0B0A1 		.ascii	"\304\260\260\241a\306\203\245\353fJv-h\232\320\360\357"
 112      61C683A5 
 112      EB664A76 
 112      2D689AD0 
 112      F0EF
 113 003f FF7FC64C 		.ascii	"\377\177\306L\220T2#C\004\220\305\250\000\246\230XP"
 113      90543223 
 113      430490C5 
 113      A800A698 
 113      5850
 114 0051 2D59CF74 		.ascii	"-Y\317t\340\301\377\377w\256\356y\274\213Q\010hn.#\320"
 114      E0C1FFFF 
 114      77AEEE79 
 114      BC8B5108 
 114      686E2E23 
 115 0066 25607D0C 		.ascii	"%`}\014\254\014-\015\015\023\024\300&\000A\010\230\014"
 115      AC0C2D0D 
 115      0D1314C0 
 115      26004108 
 115      980C
 116 0078 053983F9 		.ascii	"\0059\203\371<C\363\203\365O\271\022\031\0271\262\002"
 116      3C43F383 
 116      F54FB912 
 116      191731B2 
 116      02
 117 0089 05AB197E 		.ascii	"\005\253\031~5t4\010d22'\203]\306\0004\001h\317Y\206"
 117      35743408 
 117      64323227 
 117      835DC600 
 117      340168CF 
 118 009f A65B3BD6 		.ascii	"\246[;\326IBT\24532i3\254j\000\002K\240\361\263\031"
 118      494254A5 
 118      33326933 
 118      AC6A0002 
 118      4BA0F1B3 
 119 00b4 66011DC3 		.ascii	"f\001\035\303\232\316\310\010r\024\033XO\022#\262\303"
 119      9ACEC808 
 119      72141B58 
 119      4F1223B2 
 119      C3
 120 00c5 42413E65 		.ascii	"BA>e>\315\320\310\301\300\220\0022\365\"C\343\001f\270"
ARM GAS  /tmp/ccUx4H0Q.s 			page 9


 120      3ECDD0C8 
 120      C1C09002 
 120      32F52243 
 120      E30166B8 
 121 00d9 59104521 		.ascii	"Y\020E! \011\020[IOO\037\216\362\213\365\213J\3643\363"
 121      2009105B 
 121      494F4F1F 
 121      8EF28BF5 
 121      8B4AF433 
 122 00ee 92734A53 		.ascii	"\222sJSR\365\2233\212Ss\3652\030\000>@@\342"
 122      52F59333 
 122      8A5373F5 
 122      3218003E 
 122      4040E2
 123              		.text
 124              		.section	.gnu.lto_chSemFastWaitI.1f3e49778d43deae,"",%progbits
 125 0000 789C6362 		.ascii	"x\234cb`b@\007\"@\\\313\310\300\240\002\342030\002U"
 125      60624007 
 125      22405CCB 
 125      C8C0A002 
 125      E2303330 
 126 0016 30323102 		.ascii	"021\002\005\030\030\031\352\231\030\353#AL\006&%\206"
 126      05181819 
 126      EA9918EB 
 126      23414C06 
 126      262586
 127 0029 850D0D13 		.ascii	"\205\015\015\023\036\034\375\267B\262kA\323\204\206"
 127      1E1CFDB7 
 127      42B26B41 
 127      D38486
 128 0038 7FFFFF33 		.ascii	"\177\377\3773f\202\244\222\031\031\"\200,F\0050\305"
 128      6682A492 
 128      19192280 
 128      2C460530 
 128      C5
 129 0049 C4826A3A 		.ascii	"\304\202j:D[\303\316'\001'\032Z\016\374\377oO\204\236"
 129      445BC3CE 
 129      2701271A 
 129      5A0EFCFF 
 129      6F4F849E 
 130 005d F54C071E 		.ascii	"\365L\007\036\374\377\377f\357\206\307\277\031\005Y"
 130      FCFFFF66 
 130      EF86C7BF 
 130      190559
 131 006c 18197319 		.ascii	"\030\031s\031\201\316\006\352cf\000kf`eh\001\232\251"
 131      81CE06EA 
 131      6366006B 
 131      66606568 
 131      019AA9
 132 007f 00360608 		.ascii	"\0006\006\010B\300d(\310\341\314\347\031\232\037\374"
 132      42C06428 
 132      C8E1CCE7 
 132      199A1FFC 
 133 008f 78CC95C8 		.ascii	"x\314\225\310\270\230\221\025(X\315\360\253\241\243"
 133      B8989115 
 133      2858CDF0 
 133      ABA1A3
ARM GAS  /tmp/ccUx4H0Q.s 			page 10


 134 009e 41209391 		.ascii	"A \223\2219\031\354#\006\240\011@\313\31624\335\272"
 134      3919EC23 
 134      06A00940 
 134      CBCE3234 
 134      DDBA
 135 00b0 F14F03A2 		.ascii	"\361O\003\242*\235\221I\233A+\223\221u6\303,\240c\330"
 135      2A9D9149 
 135      9B412B93 
 135      917536C3 
 135      2CA063D8 
 136 00c4 D2191941 		.ascii	"\322\031\031A\216b\007+Ob\2049\352,CsGs\021L\0133P\027"
 136      8E62072B 
 136      4F628439 
 136      EA2C4373 
 136      4773114C 
 137 00dc 4815EB7F 		.ascii	"H\025\353\177\030`\254\007\233\353\011Q\241\315\260"
 137      1860AC07 
 137      9BEB0951 
 137      A1CDB0
 138 00eb AA0108B8 		.ascii	"\252\001\010\270\011\030\0134\210\201\341\"C\343\203"
 138      09180B34 
 138      8881E122 
 138      43E383
 139 00fa DFCA3027 		.ascii	"\337\3120'C@\010\310\271\240\270R\322\323\323\207\243"
 139      434008C8 
 139      B9A0B852 
 139      D2D3D387 
 139      A3
 140 010b FC62FDA2 		.ascii	"\374b\375\242\022\375\314\274\344\234\322\224T\375\344"
 140      12FDCCBC 
 140      E49CD294 
 140      54FDE4
 141 011a 8CE2D45C 		.ascii	"\214\342\324\\\275\014\006\000\031>c\265"
 141      BD0C0600 
 141      193E63B5 
 142              		.text
 143              		.section	.gnu.lto_chMBObjectInit.1f3e49778d43deae,"",%progbits
 144 0000 789C9552 		.ascii	"x\234\225R;k\024Q\024>\347>ff\243\013\332i\027\243 "
 144      3B6B1451 
 144      143EE73E 
 144      6666A30B 
 144      DA6917A3 
 145 0015 46D8F56F 		.ascii	"F\330\365oX\233\200V\222\014\262N1\006\262\026b\212"
 145      589B8056 
 145      920CB24E 
 145      3106B216 
 145      628A
 146 0027 BDC9AC12 		.ascii	"\275\311\254\022\242\201E\014Dm\222\"Ql\004A\353\025"
 146      A281450C 
 146      446D9222 
 146      516C0441 
 146      EB15
 147 0039 248C4888 		.ascii	"$\214H\210v\226\013\202Z\310\306T\221h2\2363/v\324b"
 147      76960B82 
 147      5AC8C654 
 147      9168329E 
 147      332F76D4 
ARM GAS  /tmp/ccUx4H0Q.s 			page 11


 148 004e 72D83D73 		.ascii	"r\330=s\037\337\367\235\307=\002\004\374m\027\351\177"
 148      1FDFF79D 
 148      C73D0204 
 148      FC6D17E9 
 148      7F
 149 005f 49019CE5 		.ascii	"I\001\234\345\215\003H\010\024(\311Ka\001\030AwF\251"
 149      8D034808 
 149      1428C94B 
 149      61011841 
 149      7746A9
 150 0072 64AD79AD 		.ascii	"d\255y\255\223\265\315k\013\351\2036\"\221\021ZB*m\331"
 150      93B5CD6B 
 150      0BE98336 
 150      2291115A 
 150      422A6DD9 
 151 0086 D8BAC27B 		.ascii	"\330\272\302{\260F`\325\230\007\275\265\355P<z\330m"
 151      B04660D5 
 151      9807BDB5 
 151      ED503C7A 
 151      D86D
 152 0098 AF98DF51 		.ascii	"\257\230\337Q\204\350!\245q\006\301E\270L\033\034\216"
 152      84E821A5 
 152      7106C145 
 152      B84C1B1C 
 152      8E
 153 00a9 3F1C67D0 		.ascii	"?\034g\320\022\256y\371\314Tb\236\364X\363\320\034Y"
 153      12AE79F9 
 153      CC54629E 
 153      F458F3D0 
 153      1C59
 154 00bb 8ED3DDBF 		.ascii	"\216\323\335\277\273trae\256c\016(E\017UI\332\301\306"
 154      BB747261 
 154      65AE630E 
 154      28450F55 
 154      49DAC1C6 
 155 00cf FDA1CEEC 		.ascii	"\375\241\316\354\274\211\242V\011\222\217\360Bt{Q\364"
 155      BC89A256 
 155      09928FF0 
 155      42747B51 
 155      F4
 156 00e0 FDD5B7CF 		.ascii	"\375\325\267\317!\036\257 \372H\335\366QHrR\301\004"
 156      211EAF20 
 156      FA48DDF6 
 156      51487252 
 156      C104
 157 00f2 AEE20868 		.ascii	"\256\342\010h\240b-r\322&\247\034\210\265\351\270mL"
 157      A0622D72 
 157      D226A71C 
 157      88B5E9B8 
 157      6D4C
 158 0104 67D84F1B 		.ascii	"g\330O\033A6\226zz49\316\265\312\020\336~}\263\263\201"
 158      4136967A 
 158      7A3439CE 
 158      B5CA10DE 
 158      7E7DB3B3 
 159 0119 13F81435 		.ascii	"\023\370\02454\0209\017=\230\3048k\305\270\034$\030"
 159      3410390F 
ARM GAS  /tmp/ccUx4H0Q.s 			page 12


 159      3D98C438 
 159      6BC5B81C 
 159      2418
 160 012b 248B201D 		.ascii	"$\213 \035\203\332_r\220d\220U\004\321Vn\201J \0003"
 160      83DA5F72 
 160      90649055 
 160      04D1566E 
 160      814A2000 
 161 0140 B067E6CD 		.ascii	"\260g\346\3151\017m7\236\210\344\344\204\207\016\345"
 161      310F6D37 
 161      9E88E4E4 
 161      84870EE5 
 162 0150 9C823CAC 		.ascii	"\234\202<\254dl\032\035\271\011s\357?\365?\210\344\366"
 162      646C1A1D 
 162      B90973EF 
 162      3FF53F88 
 162      E4F6
 163 0162 3C3C3764 		.ascii	"<<7dU\312\346\011<\246xC\205\012&\023Q\316\030\200\231"
 163      55CAE609 
 163      3CA67843 
 163      850A2613 
 163      51CE1880 
 164 0177 3FFB6159 		.ascii	"?\373aY&\026\231\313\333\245\231\242\300\354\007\273"
 164      261699CB 
 164      DBA599A2 
 164      C0EC07BB 
 165 0187 8BE7B29E 		.ascii	"\213\347\262\236\250\006\267m\023\202\205\340u\336("
 165      A806B76D 
 165      138285E0 
 165      75DE28
 166 0196 4DE7CC07 		.ascii	"M\347\314\007~3\272\273\027\254\347w\026\3114X\231\224"
 166      7E33BABB 
 166      17ACE777 
 166      16C93458 
 166      9994
 167 01a8 DEFDB04B 		.ascii	"\336\375\260Kf \323\014\254\230\267\027\374Z\034\315"
 167      6620D30C 
 167      AC98B717 
 167      FC5A1CCD 
 168 01b8 04ED19B8 		.ascii	"\004\355\031\270M\323\221J\\\365\360\310\377%\006&q"
 168      4DD3914A 
 168      5CF5F0C8 
 168      FF250626 
 168      71
 169 01c9 0BEE7447 		.ascii	"\013\356tG\377y\262\243n^\250MUyXM\203\355W\263XN\311"
 169      FF79B2A3 
 169      6E5EA84D 
 169      5579584D 
 169      83ED57B3 
 170 01e0 58FA10B1 		.ascii	"X\372\020\261\234t\252\342x\037a\266\027\236\316\340"
 170      9C74AAE2 
 170      781F61B6 
 170      179ECEE0 
 171 01f0 898DF1CB 		.ascii	"\211\215\361\3131\372T\255V\317\177S\315\372\364\315"
 171      31FA54AD 
 171      56CF7F53 
 171      CDFAF4CD 
ARM GAS  /tmp/ccUx4H0Q.s 			page 13


 172 0200 7A73DAAD 		.ascii	"zs\332\255\273\327\375\311\251[\327\2325\027\344\215"
 172      BBD7FDC9 
 172      A95BD79A 
 172      3517E48D 
 173 0210 DA853FD7 		.ascii	"\332\205?\327\273\361\235"
 173      BBF19D
 174              		.text
 175              		.section	.gnu.lto_chMBResetI.1f3e49778d43deae,"",%progbits
 176 0000 789CBD53 		.ascii	"x\234\275SKk\023Q\024>\347\336;y\314\264*\"\250\233"
 176      4B6B1351 
 176      143EE7DE 
 176      3B79CCB4 
 176      2A22A89B 
 177 0014 52153716 		.ascii	"R\0257\0262?\301\277\340\242A]\332A\342,B\241q!v\221"
 177      323FC1BF 
 177      E0A2415D 
 177      DA41E22C 
 177      42A17121 
 178 002a DB26422D 		.ascii	"\333&B--\206\022\360\005REA\354\242\325\225(\342\010"
 178      2D8612F0 
 178      05524541 
 178      ECA2D595 
 178      28E208
 179 003d 82552CC5 		.ascii	"\202U,\305\235\010B\360\201\0137\272\022\212\364z\316"
 179      9D0842F0 
 179      810B37BA 
 179      128AF47A 
 179      CE
 180 004e 3C92D16A 		.ascii	"<\222\321j;\202xI\316\334\327\367}\347|sF\200\200_\207"
 180      3B827849 
 180      CEDCD7F7 
 180      7DE77C73 
 180      4680805F 
 181 0063 4BFF050B 		.ascii	"K\377\005\013\340\000/r\200t\003\005J\212R(\000-\350"
 181      E0002F72 
 181      80740305 
 181      4A8A5228 
 181      002DE8
 182 0076 4C2B85F4 		.ascii	"L+\205\364@\013\221.!\324\205T\026\326\217\363\012\234"
 182      400B912E 
 182      21D48554 
 182      16D68FF3 
 182      0A9C
 183 0088 FD705DEB 		.ascii	"\375p]\353\271\316\255\033_\305\345v\320\234\327\337"
 183      B9CEAD1B 
 183      5FC5E576 
 183      D09CD7DF 
 184 0098 8D41F4F9 		.ascii	"\215A\364\371\320C8F3\034\014\037\314\227\036\0210h"
 184      D0433846 
 184      331C0C1F 
 184      CC971E11 
 184      3068
 185 00aa BF98B15B 		.ascii	"\277\230\261[\023S\332\230zv\320\305\351\013{\247\347"
 185      1353DA98 
 185      7A76D0C5 
 185      E90B7BA7 
 185      E7
ARM GAS  /tmp/ccUx4H0Q.s 			page 14


 186 00bb 275B7A9D 		.ascii	"'[z\235\304|\3167\013L?\374xdY7\003c\016g\225j\351\267"
 186      C47CCE37 
 186      0B4C3FFC 
 186      78645937 
 186      03630E67 
 187 00d3 298CCAA8 		.ascii	")\214\312\250\363\355\277\350\264\364\275\333\272\030"
 187      F3EDBFE8 
 187      B4F4BDDB 
 187      BA18
 188 00e1 1A2EB363 		.ascii	"\032.\263c\036}\370\353z\202K\351w\264\245\331U\204"
 188      1E7DF8EB 
 188      7A824BE9 
 188      77B4A5D9 
 188      5584
 189 00f3 4511748C 		.ascii	"E\021t\214y\371\370\346\273Y\334\331\207XE\352,\362"
 189      79F9F8E6 
 189      BB59DCD9 
 189      875845EA 
 189      2CF2
 190 0105 42725014 		.ascii	"BrP\024\244\305\263\034\005\225\347Y\201gE\0166\007"
 190      A4C5B31C 
 190      0595E759 
 190      8167450E 
 190      3607
 191 0117 07421DB0 		.ascii	"\007B\035\260\240I9\017Vc\027i\014\207\261\314\215*"
 191      A049390F 
 191      56631769 
 191      0C87B1CC 
 191      8D2A
 192 0129 57A1D159 		.ascii	"W\241\321Y\177o\237\300\005\356O\030\2075=\245w\370"
 192      7F6F9FC0 
 192      05EE4F18 
 192      87353DA5 
 192      77F8
 193 013b 687961A7 		.ascii	"hya\247\002\221\344\242\224\312\314&\227\341\351\247"
 193      0291E4A2 
 193      94CACC26 
 193      97E1E9A7 
 194 014b 27E61946 		.ascii	"'\346\031F\200\012\"g\237O\247^fK\210Wm\340,x\030}="
 194      800A2267 
 194      9F4FA75E 
 194      664B8857 
 194      6DE02C78 
 195 0162 BCB3C7C7 		.ascii	"\274\263\307\307\"\345\024_\362\321N\320\264\222+0\371"
 195      22E5145F 
 195      F2D14ED0 
 195      B4922B30 
 195      F9
 196 0173 E63E7D0D 		.ascii	"\346>}\015\211\212\030\202CT\341U\270Bj\316O\252#\230"
 196      898A1882 
 196      4354E155 
 196      B8426ACE 
 196      4FAA2398 
 197 0187 0813E8F9 		.ascii	"\010\023\350\371R\\\311\020\334\3214\372\377\010\212"
 197      525CC910 
 197      DCD134FA 
 197      FF088A
ARM GAS  /tmp/ccUx4H0Q.s 			page 15


 198 0196 50154E88 		.ascii	"P\025N\210\305^\247\304\344?\027\023\261\230\014qk\215"
 198      C55EA7C4 
 198      E43F1713 
 198      B1980C71 
 198      6B8D
 199 01a8 C5F64022 		.ascii	"\305\366@\"\246\306\341\254\317\222!\305Q\037\373~O"
 199      A6C6E1AC 
 199      CF9221C5 
 199      511FFB7E 
 199      4F
 200 01b9 217B0673 		.ascii	"!{\006s\276K\273\023\002k\263lU\017\362\271\361@&\230"
 200      BE4BBB13 
 200      026BB36C 
 200      550FF2B9 
 200      F1402698 
 201 01cd 5C855D66 		.ascii	"\\\205]f\236/\335D\362\031\253N\363\024*|c\005\032\347"
 201      9E2FDD44 
 201      F219AB4E 
 201      F3142A7C 
 201      63051AE7 
 202 01e1 BB5BC590 		.ascii	"\273[\305\220\275\020\356^\353\356\332t\300|\212\023"
 202      BD10EE5E 
 202      EBEEDA74 
 202      C07C8A13 
 203 01f1 5A8573C1 		.ascii	"Z\205s\301\300\206\346\350\367\342\032\311\023\002\370"
 203      C086E6E8 
 203      F7E21AC9 
 203      1302F8
 204 0200 B82D36EB 		.ascii	"\270-6\353\356\256\204\305\311\350\225\325\363jK-\207"
 204      EEAE84C5 
 204      C9E895D5 
 204      F36A4B2D 
 204      87
 205 0211 81DBB901 		.ascii	"\201\333\271\001I\357\025Ltf\017&\327\2431\314\255\302"
 205      49EF154C 
 205      74660F26 
 205      D7A331CC 
 205      ADC2
 206 0223 2F705FA9 		.ascii	"/p_\251\344v\177\2435w\354\264[\033\363\\\357Tud\364"
 206      E4767FA3 
 206      3577ECB4 
 206      5B1BF35C 
 206      EF547564 
 207 0238 CCC95AC9 		.ascii	"\314\311Z\311\203\037\352U6f"
 207      831FEA55 
 207      3666
 208              		.text
 209              		.section	.gnu.lto_chMBReset.1f3e49778d43deae,"",%progbits
 210 0000 789C6362 		.ascii	"x\234cb`b@\007\"@\374\001\210\225A\034f\006F\240\012"
 210      60624007 
 210      2240FC01 
 210      8895411C 
 210      660646A0 
 211 0015 46264646 		.ascii	"F&FF \207\221\241\236\211\261>\222\021\254l=\323\201"
 211      208791A1 
 211      9E89B13E 
 211      9211AC6C 
ARM GAS  /tmp/ccUx4H0Q.s 			page 16


 211      3DD381
 212 0028 07FFFFAF 		.ascii	"\007\377\377\257\333\326\276d\016\343<&\240\202\\\260"
 212      DBD6BE64 
 212      0EE33C26 
 212      A0825CB0 
 213 0038 382B434B 		.ascii	"8+CKC\303\004\005\006\206d07\004L\206\202\014a>\317"
 213      43C30405 
 213      06866430 
 213      37044C86 
 213      820C613E 
 214 004d D0FCE06E 		.ascii	"\320\374\340n3{\"\343BFV\240`5\303\257\206\216\006\201"
 214      337B22E3 
 214      424656A0 
 214      6035C3AF 
 214      868E0681 
 215 0061 4C46A052 		.ascii	"LF\240R\210\221\231 \372<C\313\203{\2131U1%3B\334\232"
 215      88919920 
 215      FA3C43CB 
 215      837B8B31 
 215      55312533 
 216 0078 CEC898C9 		.ascii	"\316\310\230\311\310\014R\330\374\340\376c.l\3061#\033"
 216      C80C52D8 
 216      FCE0FE63 
 216      2E6CC631 
 216      231B
 217 008a D7FCE0C5 		.ascii	"\327\374\340\305a\254\226\262 T]dh|\360R\031\246\010"
 217      61AC96B2 
 217      20545D64 
 217      687CF052 
 217      19A608
 218 009d 02424012 		.ascii	"\002B@\022 +\025\365\364\364\341(\277X\277\250D\277"
 218      202B15F5 
 218      F4F4E128 
 218      BF58BFA8 
 218      44BF
 219 00af B828593F 		.ascii	"\270(Y?9#7)\277\"\265X/\231\001\000\223lA\311"
 219      39233729 
 219      BF22B558 
 219      2F990100 
 219      936C41C9 
 220              		.text
 221              		.section	.gnu.lto_chMBPostS.1f3e49778d43deae,"",%progbits
 222 0000 789C9D54 		.ascii	"x\234\235TOH\024a\024\177o\376\377q\325\350\222\235"
 222      4F481461 
 222      147F6FFE 
 222      FF71D5E8 
 222      929D
 223 0012 4CBAA8E0 		.ascii	"L\272\250\340\022\3211:w\353\340B\035\012t\214i\016"
 223      12D1313A 
 223      77EBE042 
 223      1D0A748C 
 223      690E
 224 0024 8BE076A8 		.ascii	"\213\340v\250<8\353n\020%beh\377H\017QH\240t\352\346"
 224      3C38EB6E 
 224      10256265 
 224      68FF480F 
 224      5148A074 
ARM GAS  /tmp/ccUx4H0Q.s 			page 17


 225 003a 041D5C16 		.ascii	"\004\035\\\0265O\201\020lZH7;)fM\357\315\354\214\273"
 225      354F8110 
 225      6C5A4837 
 225      3B29664D 
 225      EFCDEC8C 
 226 004f 6ABAF5B1 		.ascii	"j\272\365\261\373\276o\276\357\375\336\373\375\336\274"
 226      FBBE6FBE 
 226      EFFDDEFB 
 226      FDDEBC
 227 005e 6F041060 		.ascii	"o\004\020`\367\270B\377\214\002\320\306\017& y\240\200"
 227      F7B842FF 
 227      8C02D0C6 
 227      0F262079 
 227      A080
 228 0070 22595190 		.ascii	"\"YQ\220\000\\A&#IH\023\312\202\302;:\357(\202\312k"
 228      005C4126 
 228      23494813 
 228      CA82C23B 
 228      3AEF2882 
 229 0086 8DD72AD2 		.ascii	"\215\327*\322\204\032\322\001\352h\2205\020)\034\302"
 229      841AD201 
 229      EA689035 
 229      10291CC2 
 230 0096 80204AB2 		.ascii	"\200 J\262\242j\272\201\003\2270H\321\002\223\256\373"
 230      A26ABA81 
 230      03973048 
 230      D10293AE 
 230      FB
 231 00a7 A0F472F6 		.ascii	"\240\364r\366\273\370x\324\313O\270\333\276\217\350"
 231      BBF878D4 
 231      CB4FB8DB 
 231      BE8FE8
 232 00b6 F0A18570 		.ascii	"\360\241\205p\221V\330\034L\234\276r\204@\317/\0165"
 232      9156D81C 
 232      4C9CBE72 
 232      8440CF2F 
 232      0E35
 233 00c8 DD9D181C 		.ascii	"\335\235\030\034q\177\023\316a\246\265\300\334O_/\314"
 233      717F13CE 
 233      61A6B5C0 
 233      DC4F5F2F 
 233      CC
 234 00d9 B979CFF7 		.ascii	"\271y\317\367\317\325\216y\373\332\325\003~b\315\030"
 234      CFD58E79 
 234      FBDAD503 
 234      7E62CD18 
 235 00e9 EFFEF0F0 		.ascii	"\357\376\360\360\377\320\373\371\357\364\274\207\303"
 235      FFD0FBF9 
 235      EFF4BC87 
 235      C3
 236 00f6 CFFF2395 		.ascii	"\317\377#\2257\2660Z\011\253\255\356\343\336\213\205"
 236      37B6305A 
 236      09ABADEE 
 236      E3DE8B85 
 237 0106 C22412D3 		.ascii	"\302$\022\323\354\272\35778(\325\004\033\361~\320\353"
 237      ECBAEF37 
 237      3828D504 
ARM GAS  /tmp/ccUx4H0Q.s 			page 18


 237      1BF17ED0 
 237      EB
 238 0117 7277B249 		.ascii	"rw\262I\002\234\304C\220i\204i\301+\371\376\366\347"
 238      029CC443 
 238      90698469 
 238      C12BF9FE 
 238      F6E7
 239 0129 EDD5713C 		.ascii	"\355\325q<Z\217\230FjL\342*\322\212\334\273p\012[@\246"
 239      5A8F9846 
 239      6A4CE22A 
 239      D28ADCBB 
 239      700A5B40 
 240 013e 1D5161A3 		.ascii	"\035Qa\243\262\321\350L\324ye\2601\331\3241(\001\001"
 240      B2D1E84C 
 240      D47965B0 
 240      31D9D431 
 240      280101
 241 0151 5DF2CF13 		.ascii	"]\362\317\023\243\346\020\234.\013\247\321\031\330\024"
 241      A3E6109C 
 241      2E0BA7D1 
 241      19D814
 242 0160 B7BEB808 		.ascii	"\267\276\270\010\271\322\3267\243\013\337p\307C?l\271"
 242      B9D2D637 
 242      A30BDF70 
 242      C7433F6C 
 242      B9
 243 0171 77DC4607 		.ascii	"w\334F\007e+\350h\240PJ\3102\305\005\027\347\340\303"
 243      652BE868 
 243      A0504AC8 
 243      32C50517 
 243      E7E0C3
 244 0184 DAFB8D22 		.ascii	"\332\373\215\"\206\000\033\221\005\251\225jR\234\233"
 244      86001B91 
 244      05A9956A 
 244      529C9B
 245 0193 E24A7B62 		.ascii	"\342J{bj\026\206\367\221w\2169\250\023\247\262\223\303"
 245      6A1686F7 
 245      91778E39 
 245      A813A7B2 
 245      93C3
 246 01a5 B72844D3 		.ascii	"\267(D\323\2238\017\203[\271\215\261\263Q\026\241\037"
 246      93380F83 
 246      5BB98DB1 
 246      B35116A1 
 246      1F
 247 01b6 6E91B076 		.ascii	"n\221\260v\230ri<\242\224\346SxBS]\025\203n\254\340"
 247      9872693C 
 247      A294E653 
 247      7842535D 
 247      15836EAC 
 248 01cb B108B7BD 		.ascii	"\261\010\267\275\343Q\000)&\221\260X\007\015\212j#5"
 248      E3510029 
 248      2691B058 
 248      070D8A6A 
 248      2335
 249 01dd 7A3D4020 		.ascii	"z=@ \352\327=1\366\346\220\015\325\242\224\220\326\362"
 249      EAD73D31 
ARM GAS  /tmp/ccUx4H0Q.s 			page 19


 249      F6E6900D 
 249      D5A29490 
 249      D6F2
 250 01ef E66C2116 		.ascii	"\346l!\026/\267C\033\025}\177*\021\027\002\025\326\215"
 250      2FB7431B 
 250      157D7F2A 
 250      11170215 
 250      D68D
 251 0201 08A2D82C 		.ascii	"\010\242\330,p\036r;\331T\332\215\333\202\274\317\207"
 251      701E723B 
 251      D954DA8D 
 251      DB82BCCF 
 251      87
 252 0212 0765B1A7 		.ascii	"\007e\261\247\017I`\3633\241\212\037\315\020G\316Y\302"
 252      0F4960F3 
 252      33A18A1F 
 252      CD1047CE 
 252      59C2
 253 0224 99D403E5 		.ascii	"\231\324\003\345\300\221^-p\\\036_\371\022+\320kT\260"
 253      C0915E2D 
 253      705C1E5F 
 253      F9122BD0 
 253      6B54B0
 254 0237 3CD31041 		.ascii	"<\323\020A\214\203 \321\367v\016\362k\331Sq\026;z\275"
 254      8C8320D1 
 254      F7760EF2 
 254      6BD95371 
 254      163B7ABD 
 255 024b 612DD572 		.ascii	"a-\325r-\337\255,\305U0\017\012+V\324r\306\254\252\317"
 255      2DDFAD2C 
 255      C555300F 
 255      0A2B56D4 
 255      72C6ACAA 
 256 0260 9943EB63 		.ascii	"\231C\353cFi\265\250\263\246\237\265Fi\353\252:\353"
 256      4669B5A8 
 256      B3A69FB5 
 256      4669EBAA 
 256      3AEB
 257 0272 F25F1BAB 		.ascii	"\362_\033\253\342\312.B\336k\335\323\334\215V\331\207"
 257      E2CA2E42 
 257      DE6BDDD3 
 257      DC8D56D9 
 257      87
 258 0283 623A7884 		.ascii	"b:x\204\335r\245\241W\346~7K\336}\263\364\220Yas\265"
 258      DD72A5A1 
 258      57E67E37 
 258      4BDE7DB3 
 258      F4905961 
 259 0299 292296B0 		.ascii	")\"\226\260\243\234).\236X\204,\361\357\341\315%\210"
 259      A39C292E 
 259      9E58842C 
 259      F1EFE1CD 
 259      2588
 260 02ab DF5F2274 		.ascii	"\337_\"t\351d\261\\\373\023\035\035\311\370\327\233"
 260      E964B15C 
 260      FB131D1D 
 260      C9F8D79B 
ARM GAS  /tmp/ccUx4H0Q.s 			page 20


 261 02bb 49F65D4F 		.ascii	"I\366]Of\372\254\244u-\335\335{\343j\246\303\002\245"
 261      66FAACA4 
 261      752DDDDD 
 261      7BE36AA6 
 261      C302A5
 262 02ce AFE7663A 		.ascii	"\257\347f:c\377\001NJd&"
 262      63FF014E 
 262      4A6426
 263              		.text
 264              		.section	.gnu.lto_chMBPost.1f3e49778d43deae,"",%progbits
 265 0000 789C8550 		.ascii	"x\234\205P=K\003A\020\235\267\233;-\305\356\260\211"
 265      3D4B0341 
 265      109DB79B 
 265      3B2DC5EE 
 265      B089
 266 0012 C1CAE2EE 		.ascii	"\301\312\342\356\317$\240e\334\310y\305\021\270\263"
 266      CF24A065 
 266      DCC879C5 
 266      11B8B3
 267 0021 502C7226 		.ascii	"P,r&\032D,Rj\247\242\235 \244\262\211\246IaD\202\225"
 267      1A442C52 
 267      6AA7A29D 
 267      20A4B289 
 267      A6496144 
 268 0037 ED813F42 		.ascii	"\355\201?B\261\360\234\335\323\363\003\301ewfv\366\315"
 268      B1F09CDD 
 268      D3F303C1 
 268      65776676 
 268      F6CD
 269 0049 9B372B48 		.ascii	"\2337+H\320\3575\307\247\013\242E})\021\030\001\001"
 269      D0EF35C7 
 269      A70BA245 
 269      7D291118 
 269      0101
 270 005b C95682D3 		.ascii	"\311V\202\323\004j\011\211\326\262\216IT\350$I\016\323"
 270      046A0989 
 270      D6B28E49 
 270      54E82449 
 270      0ED3
 271 006d F3FE91B3 		.ascii	"\363\376\221\263\177\334\356%oY\206@?)\320\022G(\033"
 271      7FDCEE25 
 271      6F598640 
 271      3F29D012 
 271      47281B
 272 0080 274A3F9B 		.ascii	"'J?\233\230\262\336\360y|\340$\337\312\004-\340\237"
 272      98B2DEF0 
 272      797CE024 
 272      DFCA042D 
 272      E09F
 273 0092 CA4B314C 		.ascii	"\312K1L\263\354\342\361\345i\214Y\033\010\271\212\015"
 273      B3ECE2F1 
 273      E5698C59 
 273      1B08B98A 
 273      0D
 274 00a3 8B0B35B6 		.ascii	"\213\0135\266\216ST\310\"\243\201\375\016\267)\347I"
 274      8E5354C8 
 274      22A381FD 
ARM GAS  /tmp/ccUx4H0Q.s 			page 21


 274      0EB729E7 
 274      49
 275 00b4 A38957D5 		.ascii	"\243\211W\325\330\232\036LN\250\223\016v\247\3528\203"
 275      D89A1E4C 
 275      4EA8930E 
 275      76A7EA38 
 275      83
 276 00c5 C5C92D7A 		.ascii	"\305\311-zM\366\222\231\000R\231Y\211y\270\377\204\272"
 276      4DF69299 
 276      00529959 
 276      8979B8FF 
 276      84BA
 277 00d7 E9F5C8CE 		.ascii	"\351\365\310\316Q>J\005\314R\310?\320\007|\010\0372"
 277      513E4A05 
 277      CC52C83F 
 277      D0077C08 
 277      1F32
 278 00e9 80ADF19D 		.ascii	"\200\255\361\235\364f\364'\253\374b\275\247\366\355"
 278      F466F427 
 278      ABFC62BD 
 278      A7F6ED
 279 00f8 55DFF964 		.ascii	"U\337\371d\265||\214Z\323(yG\333\323D\015\035?\020\012"
 279      B57C7C8C 
 279      5AD32879 
 279      47DBD344 
 279      0D1D3F10 
 280 010d 540EA96A 		.ascii	"T\016\251jy\272\365\274\353z\305n\306^\264\356\305\221"
 280      79BAF5BC 
 280      EB7AC56E 
 280      C65EB4EE 
 280      C591
 281 011f F2D45AB8 		.ascii	"\362\324Z\270\322\334X\215]Ev\324\330\014c\377\035A"
 281      D2DC588D 
 281      5D4576D4 
 281      D80C63FF 
 281      1D41
 282 0131 E260D9   		.ascii	"\342`\331"
 283              		.text
 284              		.section	.gnu.lto_chMBPostI.1f3e49778d43deae,"",%progbits
 285 0000 789C9D55 		.ascii	"x\234\235U;L\024a\020\236\331\347\355\336\013\2431R"
 285      3B4C1461 
 285      109ED9E7 
 285      EDDE0BA3 
 285      3152
 286 0012 815A2109 		.ascii	"\201Z!\011WXYY\333YH\"\205&r\232s\213\013\011X\250\024"
 286      57585959 
 286      DB594822 
 286      8526729A 
 286      738B0B09 
 287 0029 ECC11546 		.ascii	"\354\301\025F1\220\023#\250\020(\214\306\230h\254\210"
 287      31901323 
 287      A810288C 
 287      C69868AC 
 287      88
 288 003a 366B6201 		.ascii	"6kb\001\022\270\020\033\240\"\306Hc\002\301\304S|\254"
 288      12B8101B 
 288      A022C648 
ARM GAS  /tmp/ccUx4H0Q.s 			page 22


 288      6302C1C4 
 288      537CAC
 289 004d 33BBF72F 		.ascii	"3\273\367/{\202\260\370\347nvwv\276\231o\346\377vW\002"
 289      7B82B0F8 
 289      E76E7677 
 289      76BE996F 
 289      E6FF7657 
 290 0062 09FE5EE7 		.ascii	"\011\376^\347\351\177P\0078\312\027q@\212@\011e\262"
 290      E97F5007 
 290      38CA1771 
 290      408A4009 
 290      65B2
 291 0074 B2A400D8 		.ascii	"\262\244\000\330\222JFQ\220\016\250J\032{t\366hh\222"
 291      924A4651 
 291      900EA84A 
 291      1A7B74F6 
 291      686892
 292 0087 479762EC 		.ascii	"G\227b\3541\330\023C:\240\341\371MDJ\207\320#\311\212"
 292      31D81343 
 292      3AA0E1F9 
 292      4D444A87 
 292      D023C98A 
 293 009b AAE931C3 		.ascii	"\252\3511\303\304\2366vA\342\010L\330vi\371\321\352"
 293      C49E3676 
 293      41E2084C 
 293      D87669F9 
 293      D1EA
 294 00ad 776964C8 		.ascii	"wid\310)\216\333?]\027\321\342\233Y\204\263t\206\215"
 294      298EDB3F 
 294      5D17D1E2 
 294      9B5984B3 
 294      74868D
 295 00c0 DE81CB87 		.ascii	"\336\201\313\207\227\007\034\264_>\261\015\017$[L3\002"
 295      97071CB4 
 295      5F3EB10D 
 295      0F245B4C 
 295      3302
 296 00d2 66D8F935 		.ascii	"f\330\3715\367n\002\355\222]Xs\335\264\205J$X\311\271"
 296      F76E02ED 
 296      925D5873 
 296      DDB4854A 
 296      2458C9B9 
 297 00e6 531EAABF 		.ascii	"S\036\252\2779\336;h\377&\212Q\031\226\234\273\345\231"
 297      39DE3B68 
 297      FF268A51 
 297      19969CBB 
 297      E599
 298 00f8 7035351A 		.ascii	"p55\032\314~\377\361\364\224]t\\\367dtLx\030\0211\316"
 298      CC7EFFF1 
 298      F4945D74 
 298      5CF76474 
 298      4C781811 
 299 010e BD81DBE1 		.ascii	"\275\201\333\341\256\242\226\252\354\235\2363R~\370"
 299      AEA296AA 
 299      EC9D9E33 
 299      527EF8
 300 011d 1FA59CD1 		.ascii	"\037\245\234\321\362\300\236\346\236Gx.9\313\256\333"
ARM GAS  /tmp/ccUx4H0Q.s 			page 23


 300      F2C09EE6 
 300      9E47782E 
 300      39CBAEDB 
 301 012d 5F59FBB0 		.ascii	"_Y\373\260\210\373\353\020h\223%\314#)\204\360\012\031"
 301      88FBEB10 
 301      689325CC 
 301      232984F0 
 301      0A19
 302 013f 59659FC6 		.ascii	"Ye\237\306\227:\0315\306\306`cR\234\024\347\263\004"
 302      973A1935 
 302      C6C66063 
 302      529C14E7 
 302      B304
 303 0151 9B249B14 		.ascii	"\233$\233\024\307\245\301\223\012\250P$\3415\346\253"
 303      C7A5C193 
 303      0AA85024 
 303      E135E6AB 
 304 0161 44689DF1 		.ascii	"Dh\235\361l+?,r\031\372\226_\255\230\027\360\031\367"
 304      6C2B3F2C 
 304      7219FA96 
 304      5FAD9817 
 304      F019F7
 305 0174 07DDB061 		.ascii	"\007\335\260a\337\260\353,\324\262\3363\000\224D\367"
 305      DFB0EB2C 
 305      D4B2DE33 
 305      009444F7 
 306 0184 69B6B25E 		.ascii	"i\266\262^\345)x\273\362\2462\207> \207\022w\024\013"
 306      E52978BB 
 306      F2A63287 
 306      3E208712 
 306      77140B
 307 0197 B7D3CA55 		.ascii	"\267\323\312U)\257\262%\247\221E\377\011f\317!\013M"
 307      29AFB225 
 307      A79145FF 
 307      0966CF21 
 307      0B4D
 308 01a9 E2540DB2 		.ascii	"\342T\015\2620.\320t%\317B\357F_e4#\252\310\335p\235"
 308      302ED074 
 308      25CF42EF 
 308      465F6534 
 308      23AAC8DD 
 309 01bf 5A6A86A7 		.ascii	"Zj\206\2476\255k\026&\036\300}*\234\254!\320\216!\032"
 309      36AD6B16 
 309      261EC07D 
 309      2A9CAC21 
 309      D08E211A 
 310 01d3 65283A01 		.ascii	"e(:\001^\0118\244\262\334\006-Jja\032`\012\212\237\012"
 310      5E0938A4 
 310      B2DC062D 
 310      4A6A611A 
 310      600A8A9F 
 311 01e8 C92090B3 		.ascii	"\311 \220\263\311\265\355h>\241\311\205\325&\021\246"
 311      C9B5ED68 
 311      3EA1C985 
 311      D52611A6 
 312 01f8 7298E28A 		.ascii	"r\230\342\212\205=\"V\027\344\037\217\005\301Z\015\371"
 312      853D2256 
ARM GAS  /tmp/ccUx4H0Q.s 			page 24


 312      17E41F8F 
 312      05C15A0D 
 312      F9
 313 0209 7351C937 		.ascii	"sQ\3117m\231_]\026\225*w\315\302}\000Tiia\375\204(\244"
 313      6D995F5D 
 313      16952A77 
 313      CDC27D00 
 313      54696961 
 314 0221 37C331DA 		.ascii	"7\3031\332\375\355\263\213\364\204\231~a\012H,\307\224"
 314      FDEDB38B 
 314      F484997E 
 314      610A482C 
 314      C794
 315 0233 67A1EF96 		.ascii	"g\241\357\226,\\\006y\003\231R\364)\377F\225~z\227\002"
 315      2C5C0679 
 315      039952F4 
 315      29FF4695 
 315      7E7A9702 
 316 0247 397E8D12 		.ascii	"9~\215\022jf0\356\343(\270@8\235\346UM\254V\003M\277"
 316      6A6630EE 
 316      E328B840 
 316      389DE655 
 316      4DAC5603 
 317 025d 816FEBF3 		.ascii	"\201o\353\363\201\232\342\021;XZK\011Hb'\210\370`\320"
 317      819AE211 
 317      3B585A4B 
 317      09486227 
 317      88F860D0 
 318 0271 26AF6C6E 		.ascii	"&\257lnr\234P\341\015\216\371\233\2664\374e:\230Br\247"
 318      729C50E1 
 318      0D8EF99B 
 318      B634FC65 
 318      3A984272 
 319 0286 B4F22693 		.ascii	"\264\362&\223i\321gu>\307w\235OR\2245\204V^\2175\210"
 319      69D16775 
 319      3EC7779D 
 319      4F529435 
 319      84565E8F 
 320 029c B2A91AAD 		.ascii	"\262\251\032\255\264\375S+\241W\010k\245a;\255\2109"
 320      B4FD532B 
 320      A157086B 
 320      A5613BAD 
 320      8839
 321 02ae A7845626 		.ascii	"\247\204V&\207\277\326\213BiO\301\2333\240\315\220g"
 321      87BFD68B 
 321      42694FC1 
 321      9B33A0CD 
 321      9067
 322 02c0 A040F92F 		.ascii	"\240@\371/r{\363\336i\316'\275\010H\222\327>W\016\020"
 322      727BF3DE 
 322      69CE27BD 
 322      084892D7 
 322      3E570E10 
 323 02d4 CEE8FF91 		.ascii	"\316\350\377\221\340W\010\335\341\351\036ni\311\004"
 323      E05708DD 
 323      E1E91E6E 
 323      69C904
ARM GAS  /tmp/ccUx4H0Q.s 			page 25


 324 02e3 BF8EAE4C 		.ascii	"\277\216\256L\347\225LWg6\223\275\234o\357\270z\251"
 324      E7954C57 
 324      673693BD 
 324      9C6FEFB8 
 324      7AA9
 325 02f5 AB250B7F 		.ascii	"\253%\013\177\000\235f\212\015"
 325      009D668A 
 325      0D
 326              		.text
 327              		.section	.gnu.lto_chMBPostAheadS.1f3e49778d43deae,"",%progbits
 328 0000 789C9D54 		.ascii	"x\234\235T\315O\023Q\020\237\331\317n[Z\274\211'$^\200"
 328      CD4F1351 
 328      109FD9CF 
 328      6E5B5ABC 
 328      8927245E 
 329 0015 84C68347 		.ascii	"\204\306\203G\342\277\340\201&h\242\011,Z\367\320\220"
 329      E2BFE081 
 329      2668A209 
 329      2C5AF7D0 
 329      90
 330 0026 500F2A07 		.ascii	"P\017*\007\266\037&FIl\004\002h\210p\020\277\342\027"
 330      B61F2646 
 330      496C0402 
 330      68887010 
 330      BFE217
 331 0039 247A31BA 		.ascii	"$z1\272&\036@$(\\\010\247\036$FO\350\011\211\272\316"
 331      261E4024 
 331      285C08A7 
 331      1E24464F 
 331      E80989BA 
 332 004e EC769756 		.ascii	"\354v\227V\020\026^\332yo\337\233\337\314o~\373f\005"
 332      10165EDA 
 332      796FDF9B 
 332      DFCC6F7E 
 332      FB6605
 333 0061 10E0DF71 		.ascii	"\020\340\337q\206\376\337\025\200&~\210\000\222\007"
 333      86FEDF15 
 333      80267E88 
 333      009207
 334 0070 0A289215 		.ascii	"\012(\222\025\005\011\300\024d2\222\2044\241,(\274\243"
 334      0509C014 
 334      64329284 
 334      34A12C28 
 334      BCA3
 335 0082 F18E22A8 		.ascii	"\361\216\"\250\274\016\361ZE\2320\204t\200\032\206\311"
 335      BC0EF15A 
 335      459A3084 
 335      74801A86 
 335      C9
 336 0093 8611291C 		.ascii	"\206\021)\034B\237 J\262\242\206\2640\366\235\344-\210"
 336      429F204A 
 336      B2A286B4 
 336      30F69DE4 
 336      2D88
 337 00a5 36C08469 		.ascii	"6\300\204i\336,\335\235\372&\216\016Z\205q\363\227m"
 337      DE2CDD9D 
 337      FA268E0E 
ARM GAS  /tmp/ccUx4H0Q.s 			page 26


 337      5A8571F3 
 337      976D
 338 00b7 231A7CA8 		.ascii	"#\032|\250#\264\323\012\353\235\211\323W\016\027h\015"
 338      23B4D30A 
 338      EB9D89D3 
 338      570E1768 
 338      0D
 339 00c8 0FDCA8BB 		.ascii	"\017\334\250\2736\236+\232\177\010g0\323 0s\372\363"
 339      369E2B9A 
 339      7F086730 
 339      D3203073 
 339      FAF3
 340 00da 8919B360 		.ascii	"\211\031\263`\331\366\361\340\230\251\373\246\346\360"
 340      D9F6F1E0 
 340      98A9FBA6 
 340      E6F0
 341 00e8 1383637E 		.ascii	"\023\203c~\357=\2175:0\266\237\222\206W\367\236jl\251"
 341      EF3D8F35 
 341      3A30B69F 
 341      928657F7 
 341      9E6A6CA9 
 342 00fc 7F1FA9AC 		.ascii	"\177\037\251\254;K\203\225\260`\357j\304z\2714;\201"
 342      3B4B8395 
 342      B060EF6A 
 342      C47AB934 
 342      3B81
 343 010e C434BB66 		.ascii	"\3044\273f\333q\003\245@\260\242\365s\261\277\316\334"
 343      DB7103A5 
 343      40B0A2F5 
 343      73B1BFCE 
 343      DC
 344 011f CC260970 		.ascii	"\314&\011p\004wA\246\021\236\012V\311\266_\015?\357"
 344      047741A6 
 344      119E0A56 
 344      C9B65F0D 
 344      3FEF
 345 0131 FF80F342 		.ascii	"\377\200\363B\0341\215t\233\211\254H+\362\357\300G\330"
 345      1C318D74 
 345      9B89AC48 
 345      2BF2EFC0 
 345      47D8
 346 0143 0032ED88 		.ascii	"\0002\355\210\012\033\225M\210\215\306&\314&\302&J\376"
 346      0A1B954D 
 346      888DC626 
 346      CC26C226 
 346      4AFE
 347 0155 620D2363 		.ascii	"b\015#c\340\220&P\201x\325\273\021\322\345\362i\264"
 347      E0902650 
 347      8178D5BB 
 347      11D2E5F2 
 347      69B4
 348 0167 3936C94D 		.ascii	"96\311M#.@\276\364\372k\270\003\037s\257@/l\230W\315"
 348      232E40BE 
 348      F4FA6BB8 
 348      031F73AF 
 348      402F6C98 
 349 017d 5A0365DD 		.ascii	"Z\003e\335\351\005\240P\212\3135\311\262\2133\360\356"
ARM GAS  /tmp/ccUx4H0Q.s 			page 27


 349      E905A050 
 349      8ACB35C9 
 349      B28B33F0 
 349      EE
 350 018e CB5B7B11 		.ascii	"\313[{\021]@\012\221\313R+kJrn\212+m\211\031\322\321"
 350      5D400A91 
 350      CB522B6B 
 350      4A726E8A 
 350      2B6D8919 
 351 01a4 ED64DE39 		.ascii	"\355d\3369h\240F\234\312N\006\367\237\213\246'q\036"
 351      68A0469C 
 351      CA4E06F7 
 351      9F8BA627 
 351      711E
 352 01b6 721BF97B 		.ascii	"r\033\371{\223\255^\026\241\027.Sa\315\360\320\2441"
 352      93AD5E16 
 352      A1172E53 
 352      61CDF0D0 
 352      A431
 353 01c8 442923B7 		.ascii	"D)#\267\341\026M\321*\006\235X\301c\001\256X\207\274"
 353      E1164DD1 
 353      2A069D58 
 353      C16301AE 
 353      5887BC
 354 01db 00924FA2 		.ascii	"\000\222O\242F\347:hP\324\024R\213\304\000\234\242\206"
 354      46E73A68 
 354      50D41452 
 354      8BC4009C 
 354      A286
 355 01ed 0644DF9B 		.ascii	"\006D\337\233C\306\253\213R\\Z+\353S?\374\342\345fh"
 355      43C6AB8B 
 355      525C5A2B 
 355      EB533FFC 
 355      E2E56668 
 356 0201 22E5B7A7 		.ascii	"\"\345\267\247\342q\231\207\374\365\3749\017\242\020"
 356      E2719987 
 356      FCF5FC39 
 356      0FA210
 357 0210 CAB909D4 		.ascii	"\312\271\011\324\237v\3349\316\315\026\025\367\270\\"
 357      9F76DC39 
 357      CECD1615 
 357      F7B85C
 358 021f 5FEB2E31 		.ascii	"_\353.1SL\206p\247\274\240j0\036\271\225\217q\017\022"
 358      534C8670 
 358      A7BCA06A 
 358      301EB995 
 358      8F710F12 
 359 0233 DA09E27D 		.ascii	"\332\011\342}oI\227\325\354Q?K\212?\230\233\212\250"
 359      6F4997D5 
 359      EC513F4B 
 359      8A3F989B 
 359      8AA8
 360 0245 654546A6 		.ascii	"eEF\246\027}\345\264\235\302\212\225\212<\021<L\230"
 360      177DE5B4 
 360      9DC28A95 
 360      8A3C113C 
 360      4C98
ARM GAS  /tmp/ccUx4H0Q.s 			page 28


 361 0257 605B2479 		.ascii	"`[$y\026\251\222\344\330\256\222\370\367'T\246\265<"
 361      16A992E4 
 361      D8AE92F8 
 361      F72754A6 
 361      B53C
 362 0269 FDDE7F51 		.ascii	"\375\336\177Q\221\200\002\315\025\313i\3113Ki#\324H"
 362      918002CD 
 362      15CB69C9 
 362      334B6923 
 362      D448
 363 027b 846E77BF 		.ascii	"\204nw\2779N\236\250\343\270\221\1773\331\350E\257\251"
 363      394E9EA8 
 363      E3B8917F 
 363      33D9E845 
 363      AFA9
 364 028d BA9DA7FF 		.ascii	"\272\235\247\377{9+\232\177\001\012V\343\226\006\251"
 364      7B392B9A 
 364      7F010A56 
 364      E39606A9 
 365 029d D5CB3E14 		.ascii	"\325\313>\024\323\300\003\354\226/-?\210l\327\235\262"
 365      D3C003EC 
 365      962F2D3F 
 365      886CD79D 
 365      B2
 366 02ae E358D19D 		.ascii	"\343X\321\235\232[\367\354\372\013\377\326\307R^\316"
 366      9A5BF7EC 
 366      FA0BFFD6 
 366      C7525ECE 
 367 02be 24EB23CE 		.ascii	"$\353#\316A\226\324\351\342\315O\340\213\023s]\332X"
 367      4196D4E9 
 367      E2CD4FE0 
 367      8B13735D 
 367      DA58
 368 02d0 087EF387 		.ascii	"\010~\363\207[Z\022\376\257;\223\350\271\220\310\364"
 368      5B5A12FE 
 368      AF3B93E8 
 368      B990C8F4 
 369 02e0 E809FD7C 		.ascii	"\350\011\375|\272\263\373\342\331L\213\016JO\327\245"
 369      BAB3FBE2 
 369      D94C8B0E 
 369      4A4FD7A5 
 370 02f0 7426F517 		.ascii	"t&\365\027o\352\202\031"
 370      6FEA8219 
 371              		.text
 372              		.section	.gnu.lto_chMBPostAhead.1f3e49778d43deae,"",%progbits
 373 0000 789C8550 		.ascii	"x\234\205P=O\3030\020\275g'\201\221\265\260\224\212"
 373      3D4FC330 
 373      10BD6727 
 373      8191B5B0 
 373      948A
 374 0012 8921F933 		.ascii	"\211!\3713\255\004cq\221\311\020UJ\030@\014\015-\002"
 374      AD046371 
 374      91C91055 
 374      4A18400C 
 374      0D2D02
 375 0025 5A3A7444 		.ascii	"Z:tDL@aCbe\354H\204P\304?\310\017\350/` \234\023\010"
 375      4C406143 
ARM GAS  /tmp/ccUx4H0Q.s 			page 29


 375      6265EC48 
 375      8450C43F 
 375      C80FE82F 
 376 003e 1F42C2B2 		.ascii	"\037B\302\262\357\316\347\367\356\336Y\220\240\337k"
 376      EFCEE7F7 
 376      EEDE5990 
 376      A0DF6B
 377 004d 85CF0988 		.ascii	"\205\317\011\210\326\315\305\"0\002\002\222\255\004"
 377      D6CDC522 
 377      30020292 
 377      AD04
 378 005b A709D413 		.ascii	"\247\011\324\023\022\275M\023\223h\320U\034\237g\267"
 378      12BD4D13 
 378      9368D055 
 378      1C9F67B7 
 379 006b D38BDAE8 		.ascii	"\323\213\332\350\262?\211\337\362\034\276yR\240\015"
 379      B23F89DF 
 379      F21CBE79 
 379      52A00D
 380 007a 8E502F9C 		.ascii	"\216P/\234\260~6)h\223Y\236\216k\3617\232\2405\374\303"
 380      B07E3629 
 380      6893599E 
 380      8E6BF137 
 380      9AA035FC 
 381 008f BC17B32C 		.ascii	"\274\027\263,\317\347\371\335x\216G\341\000\001\323"
 381      CFE7F9DD 
 381      788E47E1 
 381      0001D3
 382 009e D8B0BAC0 		.ascii	"\330\260\272\300\200\333\270F\203l*D\260?\342>\3652"
 382      80DBB846 
 382      836C2A44 
 382      B03FE23E 
 382      F532
 383 00b0 5988E2D5 		.ascii	"Y\210\342\325,l\313L&S\032d\303\341B\0337\2609y@\257"
 383      2C6CCB4C 
 383      26531A64 
 383      C3E1421B 
 383      37B03979 
 384 00c6 F169BCE4 		.ascii	"\361i\274\344C\252bX\342:, \245\343l\2248%J\303\252"
 384      43AA6258 
 384      E23A2C20 
 384      A5E36C94 
 384      38254AC3 
 385 00db 60B642F9 		.ascii	"`\266B\371\203\032\320\020\032\322\207c\360\203\354"
 385      831AD010 
 385      1AD28763 
 385      F083EC
 386 00ea 2CF9B3AA 		.ascii	",\371\263\252\374\252\372L\375\344a\272\374Y\325\326"
 386      FCAAFA4C 
 386      FDE461BA 
 386      FC59D5D6 
 387 00fa F898B565 		.ascii	"\370\230\265eP\362\211\016\027\211:&~!T\250\022\322"
 387      50F2890E 
 387      17893A26 
 387      7E2154A8 
 387      12D2
 388 010c 34F24CEB 		.ascii	"4\362L\353U\327\365\252\335\215\274p\327\213B\345\251"
ARM GAS  /tmp/ccUx4H0Q.s 			page 30


 388      55D7F5AA 
 388      DD8DBC70 
 388      D78B42E5 
 388      A9
 389 011d 9D60ABBB 		.ascii	"\235`\253\273\267\035\271\212\234\260\263\037D\372\035"
 389      B71DB98A 
 389      9CB0B31F 
 389      44FA1D
 390 012c B0BF60DA 		.ascii	"\260\277`\332"
 391              		.text
 392              		.section	.gnu.lto_chMBPostAheadI.1f3e49778d43deae,"",%progbits
 393 0000 789C9D55 		.ascii	"x\234\235U\315O\023Q\020\237\331\335\356v\267--\007"
 393      CD4F1351 
 393      109FD9DD 
 393      EE76B72D 
 393      2D07
 394 0012 12F520A8 		.ascii	"\022\365 \250' \241\361\250\027\377\005\017\222\200"
 394      2720A1F1 
 394      A817FF05 
 394      0F9280
 395 0021 8926B29A 		.ascii	"\211&\262\232\272\207\206\004<\250\034\330~h\214&J\020"
 395      BA878604 
 395      3CA81CD8 
 395      7E688C26 
 395      4A10
 396 0033 09084638 		.ascii	"\011\010F8\240\306\324\020\344\302\301\303j<\240H\300"
 396      A0C6D410 
 396      E4C2C1C3 
 396      6A3CA048 
 396      C0
 397 0044 9834C889 		.ascii	"\2304\310\211\200B\274q\324\306\260\316l\373J+\010\213"
 397      8042BC71 
 397      D4C6B0CE 
 397      6CFB4A2B 
 397      088B
 398 0056 2FED6CDF 		.ascii	"/\355l\337\354\374f~\363\361^%\220\340\357u\221\276"
 398      ECFC667E 
 398      F3F15E25 
 398      90E0EF75 
 398      91BE
 399 0068 031AC009 		.ascii	"\003\032\300\011\336\204\000\311\002%\224I\312\222\002"
 399      DE8400C9 
 399      02259449 
 399      CA9202
 400 0077 604B0112 		.ascii	"`K\001\022\212\202\364\300\200\244\262Fc\215\212\006"
 400      8A82F4C0 
 400      80A4B246 
 400      638D8A06 
 401 0087 693429C8 		.ascii	"i4)\310\032\2355A\244\007\352\236\336@$w\010\275\222"
 401      1A9D3541 
 401      A407EA9E 
 401      DE402477 
 401      08BD92
 402 009a AC04542D 		.ascii	"\254\004T-\250\033\330\333\316*\210\034\207q\333\356"
 402      A81BD8DB 
 402      CE2A881C 
 402      8771DBEE 
ARM GAS  /tmp/ccUx4H0Q.s 			page 31


 403 00aa 5F99582D 		.ascii	"_\231X-H\303\003Nv\314\376\355\272\210\026\2774\021"
 403      48C3034E 
 403      76CCFEED 
 403      BA8816BF 
 403      3411
 404 00bc DAE81736 		.ascii	"\332\350\0276x\017\016_\271<`\237\375\372\205\255{ "
 404      780F0E5F 
 404      B93C609F 
 404      FDFA85AD 
 404      7B20
 405 00ce D9629A3E 		.ascii	"\331b\232>0C\316\243\374\307q\264\373\355\324\246\353"
 405      3043CEA3 
 405      FCC771B4 
 405      FBEDD4A6 
 405      EB
 406 00df 462D547C 		.ascii	"F-T|\301\372\235\341\374\300\341\273c\351>{\213(\372"
 406      C1FA9DE1 
 406      FCC0E1BB 
 406      63E93E7B 
 406      8B28FA
 407 00f2 65D8EF8C 		.ascii	"e\330\357\214\014\336\257\204\005\374\301\354\311\333"
 407      0CDEAF84 
 407      05FCC1EC 
 407      C9DB
 408 0100 B7625991 		.ascii	"\267bY\221\231_Pe5\374b~};;kg\035\327=\343\033\343<"
 408      995F5065 
 408      35FC627E 
 408      7D3B3B6B 
 408      671DD73D 
 409 0118 191CFD9F 		.ascii	"\031\034\375\237\234\036~?x\250\251\374\\e\263\374\302"
 409      9C1E7E3F 
 409      78A8A9FC 
 409      5C65B3FC 
 409      C2
 410 0129 A6F30F0E 		.ascii	"\246\363\017\016\324\254$\302\244\344\254\270\356\247"
 410      D4AC24C2 
 410      A4E4ACB8 
 410      EEA7
 411 0137 A7136BA3 		.ascii	"\247\023k\243XW\213@\223!a\022i\254\010\257\220\220"
 411      58578B40 
 411      93216112 
 411      69AC08AF 
 411      9090
 412 0149 03AC5379 		.ascii	"\003\254Sy\253\221\010\004Y\350,\014\026!\026a\026\021"
 412      AB910804 
 412      59E82C0C 
 412      16211661 
 412      1611
 413 015b 16358495 		.ascii	"\0265\204\225\242l\034\003o\310 \000Y\032\331\206d\211"
 413      A26C1C03 
 413      6FC82000 
 413      591AD986 
 413      6489
 414 016d 0DAD739E 		.ascii	"\015\255s\236l\345c&/@fe\353\207q\011_q\222\320\003"
 414      6CE56326 
 414      2F406665 
 414      EB877109 
ARM GAS  /tmp/ccUx4H0Q.s 			page 32


 414      5F7192D0 
 415 0182 05FB8E1D 		.ascii	"\005\373\216\035\263P5\275\323\003\344D+rm\345I\227"
 415      B35035BD 
 415      D303E444 
 415      2B726DE5 
 415      4997
 416 0194 67E1FDC6 		.ascii	"g\341\375\306[\367\013\026\001\011\2248\255`eN\255\034"
 416      5BF70B16 
 416      01099438 
 416      AD60654E 
 416      AD1C
 417 01a6 95FC2A3B 		.ascii	"\225\374*;|\352&\026\317>k\016Yh\020\247\222\221\205"
 417      7CEA2616 
 417      CF3E6B0E 
 417      596810A7 
 417      929185
 418 01b9 2181A69D 		.ascii	"!\201\246\235<\017\351B\346y..\242\310=p\223Rj\206\227"
 418      3C0FE942 
 418      E6792E2E 
 418      A2C83D70 
 418      93526A86 
 419 01ce 36AD1B16 		.ascii	"6\255\033\026\206G\3401\005\216T\021\350\300\012\032"
 419      8647E031 
 419      058E5411 
 419      E8C00A1A 
 420 01de 0B9075CA 		.ascii	"\013\220u\312x\245\314\241\306\3444h\221S\013\243\000"
 420      78A5CCA1 
 420      C6E43468 
 420      91530BA3 
 420      00
 421 01ef B3905D4F 		.ascii	"\263\220]OE\312\206\354M\256NG-\022\232YZm\022f\001"
 421      45CA86EC 
 421      4DAE4E47 
 421      2D129A59 
 421      5A6D1266 
 422 0204 36535CB1 		.ascii	"6S\\\261\260W\330j\202\374t\256Q\030\253U\344/\370%"
 422      B057D86A 
 422      82FC74AE 
 422      5118AB55 
 422      E42FF825 
 423 0218 DFB8A37E 		.ascii	"\337\270\243~1\023\225\022w\325\302Z\000\212\264<\263"
 423      31139512 
 423      77D5C25A 
 423      008AB43C 
 423      B3
 424 0229 B65A6E86 		.ascii	"\266Zn\206\326\014M4\003\273\273\027\376\347!s/sT@\202"
 424      D60C4D34 
 424      03BBBB17 
 424      FEE72173 
 424      2F735440 
 425 023e 84F22693 		.ascii	"\204\362&\223\216\257\033\365^\247?,\226<\226(\237\332"
 425      8EAF1BF5 
 425      5EA73F2C 
 425      963C9628 
 425      9FDA
 426 0250 C76782F7 		.ascii	"\307g\202\367\204;/\234\352\376x\244\227\373\242\002"
 426      843B2F9C 
ARM GAS  /tmp/ccUx4H0Q.s 			page 33


 426      EAFE78A4 
 426      97FBA202 
 427 0260 62EC0511 		.ascii	"b\354\005\021\377\0304|\337\267{\245'\370\232\337\356"
 427      FF18347C 
 427      DFB77BA5 
 427      27F89ADF 
 427      EE
 428 0271 53B058FB 		.ascii	"S\260X\373\345\245\265w\262\260\011\355\345V.3\241\212"
 428      E5A5B577 
 428      B2B009ED 
 428      E5562E33 
 428      A18A
 429 0283 3C930426 		.ascii	"<\223\004&L\260\035%\3314\252Jrr\337\222\204\005-\275"
 429      4CB01D25 
 429      D934AA4A 
 429      7272DF92 
 429      84052DBD 
 430 0297 446B68FD 		.ascii	"Dkh\375\264\210\020\361Y\237\271\305RT\262LQT\215\206"
 430      B48810F1 
 430      599FB9C5 
 430      5254B24C 
 430      51548D86 
 431 02ab 8ED06DC5 		.ascii	"\216\320m\305\313\317\013S\343\031\0262\033\271z\341"
 431      CBCF0B53 
 431      E3191632 
 431      1BB97AE1 
 432 02bb 3D5A356F 		.ascii	"=Z5o\355\377\234\267\212\273\210\347\255~\267y\023a"
 432      EDFF9CB7 
 432      8ABB88E7 
 432      AD7EB779 
 432      1361
 433 02cd A262DE66 		.ascii	"\242b\336f~\256\037\021\201b\336)\330n\000uC\236\203"
 433      7EAE1F11 
 433      8162DE29 
 433      D86E0075 
 433      439E83
 434 02e0 14F9BFCC 		.ascii	"\024\371\277\314\265\375\354\375L\024\023\372\012H\307"
 434      B5FDECFD 
 434      4C1413FA 
 434      0A48C7
 435 02ef 46CD4DD5 		.ascii	"F\315M\325\021N\1773\035\341k\210\336pk\217\265\264"
 435      114E7F33 
 435      1DE16B88 
 435      DE706B8F 
 435      B5B4
 436 0301 C4CB9FCE 		.ascii	"\304\313\237\316\356x\327\265xw\227\0317\257&;:\257"
 436      EE78D7B5 
 436      78779719 
 436      37AF263B 
 436      3AAF
 437 0313 5FE96E31 		.ascii	"_\351n1\341\017\231\023\250M"
 437      E10F9913 
 437      A84D
 438              		.text
 439              		.section	.gnu.lto_chMBFetchS.1f3e49778d43deae,"",%progbits
 440 0000 789C9D55 		.ascii	"x\234\235UOH\024a\024\177o\376\355\356\314\272k\267"
 440      4F481461 
ARM GAS  /tmp/ccUx4H0Q.s 			page 34


 440      147F6FFE 
 440      EDEECCBA 
 440      6BB7
 441 0012 AC8B4917 		.ascii	"\254\213I\027\025\\:t\214\316\335\202\\\260C\007\035"
 441      155C3A74 
 441      8CCEDD82 
 441      5CB04307 
 441      1D
 442 0023 631A6211 		.ascii	"c\032b\021\334\210\312\203\263\356\012\375\221\220P"
 442      DC88CA83 
 442      B3EE0AFD 
 442      919050
 443 0032 B0154911 		.ascii	"\260\025I\021\372\213de\227\"\232\240\203\"\"\321!\331"
 443      FA8B6465 
 443      97229AA0 
 443      832222D1 
 443      21D9
 444 0044 D3428184 		.ascii	"\323B\201\204\005\336\014\223\246\367fv\246\3314\335"
 444      05DE0C93 
 444      A6F76676 
 444      A6D934DD 
 445 0054 1C76DFF7 		.ascii	"\034v\337\367\315\367\375~\357\375\336\373\276\267+"
 445      CDF7FD7E 
 445      EFFDDEFB 
 445      BEB72B
 446 0063 80007F3F 		.ascii	"\200\000\177?\027\351\273\241\000\264\360K\034\220\020"
 446      17E9BBA1 
 446      00B4F04B 
 446      1C9010
 447 0072 28A04856 		.ascii	"(\240HV\024d\000K\220\310H\2227Wx.#\015\250\010\021"
 447      1464004B 
 447      90C84892 
 447      3757782E 
 447      230DA808 
 448 0087 5E517925 		.ascii	"^Qy%\"Dy\036\343y\024i\300\030\322\006\252\250\221\325"
 448      2244791E 
 448      E3791469 
 448      C018D206 
 448      AAA891D5 
 449 009b 10C93542 		.ascii	"\020\3115B\277 J\262\022\211\306T\015\373\317\242\033"
 449      BF204AB2 
 449      1289C654 
 449      0DFBCFA2 
 449      1B
 450 00ac AF09A62C 		.ascii	"\257\011\246,\353NypzM\274;b\027&\255-\307A4ySG\350"
 450      EB4E7970 
 450      7A4DBC3B 
 450      621726AD 
 450      2DC74134 
 451 00c4 A01936BA 		.ascii	"\240\0316\272\003\313\010?\036\321\236(\2154\334\234"
 451      03CB083F 
 451      1ED19E28 
 451      8D34DC9C 
 452 00d4 1C18B67E 		.ascii	"\034\030\266~\021\317d\331\265\320\254\215/\247\347"
 452      11CF64D9 
 452      B5D0AC8D 
 452      2FA7E7
ARM GAS  /tmp/ccUx4H0Q.s 			page 35


 453 00e3 AD82ED38 		.ascii	"\255\202\3558'k\347<\177h\305\\}b\255\234a\353u(\216"
 453      276BE73C 
 453      7F68C55C 
 453      7D62AD9C 
 453      61EB7528 
 454 00f8 54634AF7 		.ascii	"TcJ\367\212\267\367\223\322\317\377O\311~V\234\330G"
 454      8AB7F793 
 454      D2CFFF4F 
 454      C97E569C 
 454      D847
 455 010a 28FB6575 		.ascii	"(\373eu\321k;\2531\373Mia\012Iin\335q\222&\312\265\325"
 455      D16B3BAB 
 455      31FB4D69 
 455      610A4969 
 455      6EDD7192 
 456 0122 D0763E0D 		.ascii	"\320v>\0155X\177\242\311\002\034\305=\230\031\204\247"
 456      35587FA2 
 456      C9021CC5 
 456      3D981984 
 456      A7
 457 0133 825D769C 		.ascii	"\202]v\234oo\037\015m\341W!\211\230A\272\326\031\024"
 457      6F6F1F0D 
 457      6DE15721 
 457      899841BA 
 457      D61914
 458 0146 4420C512 		.ascii	"D \305\022\315D\031:\361\0116\201B+b\204M\224M\214\214"
 458      CD44193A 
 458      F1093681 
 458      422B6284 
 458      4D944D8C 
 459 015b A4F24C63 		.ascii	"\244\362Lc\023gS\307\244\004\270\242A\206\002\351j\364"
 459      136753C7 
 459      A404B8A2 
 459      418602E9 
 459      6AF4
 460 016d C8994AFA 		.ascii	"\310\231J\372\364\264\2736\315\035$.C\276|\343\273\332"
 460      F4B4BB36 
 460      CD1D242E 
 460      43BE7CE3 
 460      BBDA
 461 017f 89332EA5 		.ascii	"\2113.\245\0176\255\353V\275\211\212\3566\003\220\253"
 461      0F36ADEB 
 461      56BD898A 
 461      EE360390 
 461      AB
 462 0190 88A735CD 		.ascii	"\210\2475\315e\027\347\341\375\352\273\321\022z\004"
 462      6517E7E1 
 462      FDEABBD1 
 462      127A04
 463 019f 0391D38A 		.ascii	"\003\221\323\212\206sJ\363\005rq\001H\350\360\016-\014"
 463      86734AF3 
 463      05727101 
 463      48E8F00E 
 463      2D0C
 464 01b1 92DDE0D2 		.ascii	"\222\335\340\322\266\3001\035\275\336\347\225\203&\252"
 464      B6C0311D 
 464      BDDEE795 
ARM GAS  /tmp/ccUx4H0Q.s 			page 36


 464      8326AA
 465 01c0 24BC0232 		.ascii	"$\274\0022\271K=65\266\270\004\003\233\371\027s'\374"
 465      B94B3D36 
 465      35B6B804 
 465      039BF917 
 465      7327FC
 466 01d3 28621F5C 		.ascii	"(b\037\\\243\354[\341\261E\317(\205\214\217C\221\206"
 466      A3EC5BE1 
 466      B145CF28 
 466      858C8F43 
 466      9186
 467 01e5 BA2A995D 		.ascii	"\272*\231]\030\322\261\014\203\366!\337\201\034\210"
 467      18D2B10C 
 467      83F621DF 
 467      811C88
 468 01f4 48E815B9 		.ascii	"H\350\025\271\344\325@\311\304$\200\233\371xQ\014\320"
 468      E4D540C9 
 468      C424809B 
 468      F978510C 
 468      D0
 469 0205 ECB2EA3C 		.ascii	"\354\262\352<\323\\*\226UZ\231^\024|\234\322\012-\224"
 469      D35C2A96 
 469      555A995E 
 469      147C9CD2 
 469      0A2D94
 470 0218 FDCE527C 		.ascii	"\375\316R|-DZXO\370\224\210\301\011.A\376V\020-J\253"
 470      2D445A58 
 470      4FF89488 
 470      C1092E41 
 470      FE56102D 
 471 022e C10D22F4 		.ascii	"\301\015\"\364)o\243\222\354\231=\002\030\374N\254W"
 471      296FA392 
 471      EC993D02 
 471      18FC4EAC 
 471      57
 472 023f 83977D87 		.ascii	"\203\227}\2071\017/W\374\212a!\212\007\"D\216\234k."
 472      310F2F57 
 472      FC8A6121 
 472      8A072244 
 472      8E9C6B2E 
 473 0253 2A748606 		.ascii	"*t\206\006\377rr\232?\246?\007g\254\326\230fi6\351S"
 473      FF72729A 
 473      3FA63F07 
 473      67ACD698 
 473      666936E9 
 474 0268 B4DD28FE 		.ascii	"\264\335(\376\037\300<\024Vs\307\202(\206\177\007\274"
 474      1FC03C14 
 474      5673C782 
 474      28867F07 
 474      BC
 475 0279 82472B05 		.ascii	"\202G+\005\037\273\3771(U|7\267\341<g\265\252\"\036"
 475      1FBBFF31 
 475      28557C37 
 475      B7E13C67 
 475      B5AA221E 
 476 028d DFB38871 		.ascii	"\337\263\210q?l\314\277~ks\315~\330\272\252\353w\356"
 476      3F6CCCBF 
ARM GAS  /tmp/ccUx4H0Q.s 			page 37


 476      7E6B73CD 
 476      7ED8BAAA 
 476      EB77EE
 477 02a0 9FB72F74 		.ascii	"\237\267/te\226\241`7o\353\200z\275\202!\237&\036`X"
 477      6596A160 
 477      376FEB80 
 477      7ABD8221 
 477      9F261E60 
 478 02b5 BE3C3EA3 		.ascii	"\276<>\243\355\324\243\262\013\014\365\250\352)[Xyp"
 478      EDD4A3B2 
 478      0B0CF5A8 
 478      EA295B58 
 478      7970
 479 02c7 D8179630 		.ascii	"\330\027\2260*0\332\246\342\211\213\220#-\335\034\344"
 479      2A30DAA6 
 479      E2898B90 
 479      232DDD1C 
 479      E4
 480 02d8 0304E797 		.ascii	"\003\004\347\227\360 \355\234,\327\376H[[*\370\364d"
 480      F020ED9C 
 480      2CD7FE48 
 480      5B5B2AF8 
 480      F464
 481 02ea 53BD9752 		.ascii	"S\275\227R\331^=\245_\310t\365\\9\237m\323A\351\355"
 481      D95E3DA5 
 481      5FC874F5 
 481      5C399F6D 
 481      D341E9ED 
 482 02fe BE9AC91A 		.ascii	"\276\232\311\032\277\001h\224~\211"
 482      BF016894 
 482      7E89
 483              		.text
 484              		.section	.gnu.lto_chMBFetch.1f3e49778d43deae,"",%progbits
 485 0000 789C8550 		.ascii	"x\234\205P=O\3030\020\275g7\201\221\265\260\224\212"
 485      3D4FC330 
 485      10BD6737 
 485      8191B5B0 
 485      948A
 486 0012 8921F933 		.ascii	"\211!\3713\255\004cq\221\311\020UJ\030@\014\015-_\202"
 486      AD046371 
 486      91C91055 
 486      4A18400C 
 486      0D2D5F82 
 487 0026 0E5D902A 		.ascii	"\016]\220*\324\001\020\314\235\331\272\242P*&&\244\374"
 487      D40110CC 
 487      9DD9BAA2 
 487      502A2626 
 487      A4FC
 488 0038 8A0E0C84 		.ascii	"\212\016\014\204s\002\341CHX\366\335\371\374\336\335"
 488      7302E143 
 488      4858F6DD 
 488      F9FCDEDD 
 489 0048 3B0B12F4 		.ascii	";\013\022\364{-\3619\006\321\252\271\224\010\214\200"
 489      7B2DF139 
 489      06D1AAB9 
 489      94088C80 
 490 0058 80642BC1 		.ascii	"\200d+\301i\002\265\205D{\335\304$\252t\025E\203\344"
ARM GAS  /tmp/ccUx4H0Q.s 			page 38


 490      6902B585 
 490      447BDDC4 
 490      24AA7415 
 490      4583E4
 491 006b 7076513E 		.ascii	"pvQ>\275\354\364\243\2674\205g\236\024h\215#T2'J?\233"
 491      BDECF4A3 
 491      B7348567 
 491      9E14688D 
 491      23543227 
 492 0082 64B4FEF8 		.ascii	"d\264\376\370\374\271W\216\276\321\004\255\340\037\346"
 492      FCB9578E 
 492      BED104AD 
 492      E01FE6
 493 0091 488C9334 		.ascii	"H\214\2234\035\336\335\366\206x\0216\3403\215\015\253"
 493      1DDEDDF6 
 493      86781136 
 493      E0338D0D 
 493      AB
 494 00a2 F30DB881 		.ascii	"\363\015\270\201kT\311\242L\004\373\003\356S\311\223"
 494      6B54C9A2 
 494      4C04FB03 
 494      EE53C993 
 495 00b2 99285EB5 		.ascii	"\231(^\265\314\326\315drJ\335\344\341l\256\201\033X"
 495      CCD6CD64 
 495      724ADDE4 
 495      E16CAE81 
 495      1B58
 496 00c4 9CDCA3D7 		.ascii	"\234\334\243\327\350$Z\360 U6,q\035\0260\245\243d\022"
 496      E8245AF0 
 496      2055362C 
 496      711D1630 
 496      A5A36412 
 497 00d8 DB394AA3 		.ascii	"\3339J\243T\300,\205\374\0075\240!4\244\007\333\340"
 497      54C02C85 
 497      FC0735A0 
 497      2134A407 
 497      DBE0
 498 00ea BBC963FC 		.ascii	"\273\311c\374gU\371UuB\235\373\301l\361\263\252\245"
 498      6755F955 
 498      75429DFB 
 498      C16CF1B3 
 498      AAA5
 499 00fc F1316BDD 		.ascii	"\3611k\335\240dL\373\363DM\023?\021\012T\016\251\031"
 499      A0644CFB 
 499      F3444D13 
 499      3F110A54 
 499      0EA919
 500 010f 79A6F5B2 		.ascii	"y\246\365\262\343\270\305n\205n\260\355\206\201r\325"
 500      E3B8C56E 
 500      856EB0ED 
 500      868172D5 
 501 011f 96BFD1DA 		.ascii	"\226\277\321\332\331\014\035Ev\320\334\365C\375\016"
 501      D90C1D45 
 501      76D0DCF5 
 501      43FD0E
 502 012e 23E660D5 		.ascii	"#\346`\325"
 503              		.text
ARM GAS  /tmp/ccUx4H0Q.s 			page 39


 504              		.section	.gnu.lto_chMBFetchI.1f3e49778d43deae,"",%progbits
 505 0000 789C9D55 		.ascii	"x\234\235U\315O\023Q\020\237\331\217n\273\375\344\240"
 505      CD4F1351 
 505      109FD98F 
 505      6EBBFDE4 
 505      A0
 506 0011 D17800F5 		.ascii	"\321x\000\365\204$4\376\005\234\275y\220\004\016\036"
 506      842434FE 
 506      059CBD79 
 506      90040E1E 
 507 0021 A49ABA31 		.ascii	"\244\232\2721H\002\036T\016l\241$Fc$\015&HM\204\233"
 507      48021E54 
 507      0E6CA124 
 507      4663240D 
 507      26484D84 
 508 0036 31317E34 		.ascii	"11~4\226\352\3055z\000\015!\306\203@M$\306\310E\023"
 508      96EAC535 
 508      7A000D21 
 508      C683404D 
 508      24C6C845 
 509 004b 120E2680 		.ascii	"\022\016&\200\2563\273}\313V\020V^\332\267\257\363~"
 509      AE33BB7D 
 509      CB561056 
 509      5EDAB7AF 
 509      F37E
 510 005d BF99DFCC 		.ascii	"\277\231\337\314\233}\225@\202\277\307\005\372\216k"
 510      9B7D9540 
 510      82BFC705 
 510      FA8E6B
 511 006c 0047F947 		.ascii	"\000G\371G\014\220\020(\241L\263,\251\000\246\244\320"
 511      0C901028 
 511      A14CB32C 
 511      A900A6A4 
 511      D0
 512 007d A428EE3A 		.ascii	"\244(\356:\304k\025\351\201!IcK\230-\032F\311\022\226"
 512      C46B15E9 
 512      81214963 
 512      4B982D1A 
 512      46C91296 
 513 0091 226CD1D9 		.ascii	"\"l\321\331\022Az\240\356\330\243\210\344\032a@\222"
 513      12417AA0 
 513      EED8A388 
 513      E41A6140 
 513      92
 514 00a2 1535A485 		.ascii	"\0255\244\205#z\024\007:\331\006\361#0i\232\205\245"
 514      237A1407 
 514      3AD906F1 
 514      2330699A 
 514      85A5
 515 00b4 E1D2BA74 		.ascii	"\341\322\272tg\324\312O\230\033\266\215h\360f\006\241"
 515      67D4CA4F 
 515      981BB68D 
 515      68F06606 
 515      A1
 516 00c5 8356D8E4 		.ascii	"\203V\330\344<X\206\1778\304\021\363\351}3\342\220d"
 516      3C58867F 
 516      38C411F3 
ARM GAS  /tmp/ccUx4H0Q.s 			page 40


 516      E97D33E2 
 516      9064
 517 00d7 833507E0 		.ascii	"\2035\007\340\214Y\305\352\333I4\013fn\305\266\223\006"
 517      8C59C5EA 
 517      DB49340B 
 517      666EC5B6 
 517      9306
 518 00e9 2A816805 		.ascii	"*\201h\005\353^u\364\340\365\211\301\021\3637I\014\252"
 518      EB5E75F4 
 518      E0F589C1 
 518      11F33749 
 518      0CAA
 519 00fb B0603DA9 		.ascii	"\260`=\251\336\362\323\324`4s\365\353\311i3o\331v[p"
 519      DEF2D3D4 
 519      603473F5 
 519      EBC96933 
 519      6FD9765B 
 520 0110 8EBF18C1 		.ascii	"\216\277\030\3018#\346\224/N\260\002\026\254R\361\346"
 520      3823E694 
 520      2F4EB002 
 520      16AC52F1 
 520      E6
 521 0121 5E52FAF9 		.ascii	"^R\372\371\377)Y\317\212w\367\020\312z^_\364]\317\252"
 521      FF2959CF 
 521      8A77F710 
 521      CA7A5E5F 
 521      F45DCFAA 
 522 0135 1BE19164 		.ascii	"\033\341\221d-\331\366\306\307__>\343\376\006\004j\014"
 522      2DD9F6C6 
 522      C75F5F3E 
 522      E3FE0604 
 522      6A0C
 523 0147 09BB1165 		.ascii	"\011\273\021e\232\010NNT\232\344\020oh\3743L\223\032"
 523      9A084E4E 
 523      549AE410 
 523      6F68FC33 
 523      4C931A
 524 015a E149E729 		.ascii	"\341I\347)\312\2731^\305yJ\360\224d\\\012\234\036#z"
 524      CABB315E 
 524      C5794AF0 
 524      94645C0A 
 524      9C1E237A 
 525 016e 9E0ADED4 		.ascii	"\236\012\336\324]SC\343\2243\267\363+'\317\301\320\322"
 525      5D5343E3 
 525      9433B7F3 
 525      2B27CFC1 
 525      D0D2
 526 0180 CC0FFD0C 		.ascii	"\314\017\375\014>\344$\241\037\326\314kf\312\300P\306"
 526      3EE424A1 
 526      1FD6CC6B 
 526      66CAC050 
 526      C6
 527 0191 797B809C 		.ascii	"y{\200\234h\256\326v>'y\032\336,\277\272]E\227\220E"
 527      68AED676 
 527      3E27791A 
 527      DE2CBFBA 
 527      5D459790 
ARM GAS  /tmp/ccUx4H0Q.s 			page 41


 528 01a6 89D30AFB 		.ascii	"\211\323\012\373sj\347\250\016\316\003\311\035n\015"
 528      736AE7A8 
 528      0ECE03C9 
 528      1D6E0D
 529 01b5 FD20D509 		.ascii	"\375 \325\011\256l\011\034\311\240{Y\260\345\200\201"
 529      AE6C091C 
 529      C9A07B59 
 529      B0E58081 
 530 01c5 3A09AF81 		.ascii	":\011\257\201\014~\255]6\335\004\362,\014\256\015\225"
 530      0C7EAD5D 
 530      36DD04F2 
 530      2C0CAE0D 
 530      95
 531 01d6 CA691145 		.ascii	"\312i\021E\351\207\253\224w\013<0i\\10V\204q\012\034"
 531      E987AB94 
 531      770B3C30 
 531      695C3130 
 531      5684710A 
 532 01eb AF53D985 		.ascii	"\257S\331\205>\031s\220\267<\276\352iHd8W\032\344\324"
 532      3E197390 
 532      B73CBEEA 
 532      69486438 
 532      571AE4D4 
 533 01ff C024C034 		.ascii	"\300$\3004\344\277\345\342\036\220\275\311\365\351h"
 533      E4BFE5E2 
 533      1E90BDC9 
 533      F5E968
 534 020e AEA04AA5 		.ascii	"\256\240J\245\324\"`!\206)\266\0308 \260a!\376e\271"
 534      D4226021 
 534      8629B618 
 534      3820B061 
 534      21FE65B9 
 535 0222 5980B53A 		.ascii	"Y\200\265:\361\247\203\212o\336R\277T\006\225\232v\315"
 535      F1A7838A 
 535      6FDE52BF 
 535      5406959A 
 535      76CD
 536 0234 C006008A 		.ascii	"\300\006\000\212\2648V^\367\016#\334\002\307\3504\266"
 536      B438565E 
 536      F70E23DC 
 536      02C7E834 
 536      B6
 537 0245 772FFC13 		.ascii	"w/\374\023i\346qBP\"Y\006\314\302\320\015Y\230t\262"
 537      69E67142 
 537      50225906 
 537      CCC2D00D 
 537      599874B2 
 538 0259 7A1D4DE8 		.ascii	"z\035M\350\023\356FM\177\333.\001\262|M\023\353\305"
 538      13EE464D 
 538      7FDB2E01 
 538      B27C4D13 
 538      EBC5
 539 026b F045E130 		.ascii	"\360E\3410\352\342\225\232_\325/$\344\202\010\221#\347"
 539      EAE2959A 
 539      5FD52F24 
 539      E4820891 
 539      23E7
ARM GAS  /tmp/ccUx4H0Q.s 			page 42


 540 027d 9A83F2F5 		.ascii	"\232\203\362\365T\226\373\202\323\254\224?xi\306\002"
 540      5496FB82 
 540      D3AC943F 
 540      7869C602 
 541 028d A6B9B8E2 		.ascii	"\246\271\270\342\245\031\337\211\"\376\301\250\025\226"
 541      A519DF89 
 541      22FEC1A8 
 541      1596
 542 029b 375B2146 		.ascii	"7[!F,\177\033D\334\243]\234/\277\366J\225\330\311\255"
 542      2C7F1B44 
 542      DCA35D9C 
 542      2FBFF64A 
 542      95D8C9AD 
 543 02af BCA96466 		.ascii	"\274\251dfE\257+\342\361]\213\230\020au\321Q\253\345"
 543      45AF2BE2 
 543      F15D8B98 
 543      106175D1 
 543      51ABE5
 544 02c2 46113659 		.ascii	"F\0216Y\327Q\235\377\354(\337\225\304\035\325\270]G"
 544      D7519DFF 
 544      EC28DF95 
 544      C41DD5B8 
 544      5D47
 545 02d4 893A2745 		.ascii	"\211:'EGU\346\247\016\211@)\247\3177k@\207!\277\203"
 545      4755E6A7 
 545      0E894029 
 545      A7CF376B 
 545      408721BF 
 546 02e9 1CF93FCB 		.ascii	"\034\371?\313\351\275w\226YW\364\002 \275\030\332\247"
 546      E9BD7796 
 546      5957F402 
 546      20BD18DA 
 546      A7
 547 02fa 857DC4D3 		.ascii	"\205}\304\323\277W\343|\033\321\016W\367pkk\332\373"
 547      BF57E37C 
 547      1BD10E57 
 547      F7706B6B 
 547      DAFB
 548 030c F4F4A57B 		.ascii	"\364\364\245{/\245\373z3\351\314\371\356\256\236\313"
 548      2FA5FB7A 
 548      33E9CCF9 
 548      EEAE9ECB 
 549 031c E7FA5A33 		.ascii	"\347\372Z3\360\007\234\213\245{"
 549      F0079C8B 
 549      A57B
 550              		.text
 551              		.section	.gnu.lto_.symbol_nodes.1f3e49778d43deae,"",%progbits
 552 0000 789C4D91 		.ascii	"x\234M\221\315V\023A\020\205\253\25233a\314\230q\314"
 552      CD561341 
 552      1085ABAA 
 552      333361CC 
 552      9871CC
 553 0013 386680A0 		.ascii	"8f\200\240\222\300s\371$\0253\012\021T\320s|\201d\201"
 553      92C073F9 
 553      2415330A 
 553      1154D073 
 553      7C816481 
ARM GAS  /tmp/ccUx4H0Q.s 			page 43


 554 0027 CF012B0F 		.ascii	"\317\001+\017\347\260d-\260u\343\017\376\363\323\225"
 554      E7B0642D 
 554      B075E30F 
 554      FEF3D395 
 555 0037 AE63F76C 		.ascii	"\256c\367l\356\334\352{\353\353I\010\010N\015\270\207"
 555      EEDCEA7B 
 555      EBEB4908 
 555      084E0DB8 
 555      87
 556 0048 6E8001F6 		.ascii	"n\200\001\366O\000\230\337O\237\322\030\031\003{\200"
 556      4F0098DF 
 556      4F9FD218 
 556      19037B80 
 557 0058 4C81FD80 		.ascii	"L\201\375\200l\274\215^\220}\203h\213\260\305\206\216"
 557      6CBC8D5E 
 557      907D8368 
 557      8BB0C586 
 557      8E
 558 0069 915B41F6 		.ascii	"\221[A\366#r\024\330/\310\261\332\323)F\327H\322\371"
 558      237214D8 
 558      2FC8B1DA 
 558      D32946D7 
 558      48D2F9
 559 007c 869C04D3 		.ascii	"\206\234\004\323)\031\231~En\373)]\"/\005\241]jI\350"
 559      2919997E 
 559      456EFB29 
 559      5D222F05 
 559      A15D6A49 
 560 0091 3B721A84 		.ascii	";r\032\204~ \337\011Bo(\222\320/\344N0\335\243X\246"
 560      7E20DF09 
 560      426F2892 
 560      D02FE44E 
 560      30DDA358 
 561 00a6 3F91B3A0 		.ascii	"?\221\263\240\372\033\371n\020\332\247DB\177\221\273"
 561      FA1BF96E 
 561      10DAA744 
 561      427F91BB 
 562 00b6 C1F42DB5 		.ascii	"\301\364-\265e\372\0079\017\252\377\220\357\005\241"
 562      65FA0739 
 562      0FAAFF90 
 562      EF05A1
 563 00c5 77B46443 		.ascii	"w\264dC8!.\334t<F|F|\337\273+\344\236w\317\211K\357"
 563      38212EDC 
 563      743C467C 
 563      467CDFBB 
 563      2BE49E77 
 564 00dd 1AE207DE 		.ascii	"\032\342\007\336m\023W\336\335 ?\364\356%q\337\2731"
 564      6D1357DE 
 564      DD203FF4 
 564      EE2571DF 
 564      BB31
 565 00ef 71EDDD6B 		.ascii	"q\355\335k\342e\357^\021\257x\267C\274\372\337\031\373"
 565      E265EF5E 
 565      11AF78B7 
 565      43BCFADF 
 565      19FB
 566 0101 F74D3E5D 		.ascii	"\367M>][]\205\371BW\340H\324<\202f\241knn\0060\337\372"
ARM GAS  /tmp/ccUx4H0Q.s 			page 44


 566      5B5D85F9 
 566      4257E048 
 566      D43C8266 
 566      A16B6E6E 
 567 0119 BC660CC2 		.ascii	"\274f\014\302\241h\374\330\235'\252\355\001\\,\364\011"
 567      A168FCD8 
 567      9D27AAED 
 567      015C2CF4 
 567      09
 568 012a 34DBF6DC 		.ascii	"4\333\366\334\352\221h\252\347\351\300\355M\327u\276"
 568      EA9168AA 
 568      E7E9C0ED 
 568      4DD775BE 
 569 013a 0ECD8ED5 		.ascii	"\016\315\216\325\0169~'\205\331B\207.\3271p.\232m\272"
 569      0E397E27 
 569      85D94287 
 569      2ED73170 
 569      2E9A6DBA 
 570 014e 7EA6FD6C 		.ascii	"~\246\375l\003\2323\321\021\314\245\237\331\274hW\367"
 570      039A33D1 
 570      11CCA59F 
 570      D9BC6857 
 570      F7
 571 015f 7433B7A7 		.ascii	"t3\267\247k\340P4W~\256\375<\206\211\364\363\004&\362"
 571      6BE05034 
 571      577EAEFD 
 571      3C8689F4 
 571      F30426F2 
 572 0173 1DF9089A 		.ascii	"\035\371\010\232]\253\205r\012\315\025\312)Fn\1771\204"
 572      5DAB8572 
 572      0ACD15CA 
 572      29466E7F 
 572      3184
 573 0185 0BD19E72 		.ascii	"\013\321\236rz\205\343\364\224S*\247\324~\251\234R9"
 573      7A85E3F4 
 573      94532AA7 
 573      D47EA99C 
 573      5239
 574 0197 A5BDAF70 		.ascii	"\245\275\257p*\345T\372{U\0330\227\\5r\373\253\241\273"
 574      2AE554FA 
 574      7B551B30 
 574      975C3572 
 574      FBABA1BB 
 575 01ab 4F5F39FD 		.ascii	"O_9\375\312q\372\312\251\225Sk\277\216a&\375:\201\231"
 575      CA71FACA 
 575      A995536B 
 575      BF8E6126 
 575      FD3A8199 
 576 01bf 706A7B5F 		.ascii	"pj{_\333\207[\250\3233\274"
 576      DB875BA8 
 576      D333BC
 577              		.text
 578              		.section	.gnu.lto_.refs.1f3e49778d43deae,"",%progbits
 579 0000 789C25C1 		.ascii	"x\234%\301\013\012\200 \000D\301\335\227B\037\224J\322"
 579      0B0A8020 
 579      0044C1DD 
 579      97421F94 
ARM GAS  /tmp/ccUx4H0Q.s 			page 45


 579      4AD2
 580 0012 A83378FF 		.ascii	"\2503x\377\353\0314\203P\327/N\012\004}\211\236Y\274"
 580      EB193483 
 580      50D72F4E 
 580      0A047D89 
 580      9E59BC
 581 0025 B23991BD 		.ascii	"\2629\221\275s\370\244\370\242\272q\373\341\325\000"
 581      73F8A4F8 
 581      A2BA71FB 
 581      E1D500
 582 0034 20330181 		.ascii	" 3\001\201"
 583              		.text
 584              		.section	.gnu.lto_.decls.1f3e49778d43deae,"",%progbits
 585 0000 789CBD5C 		.ascii	"x\234\275\\yt\324F\232\227\324\335v\267\355\030\003"
 585      7974D446 
 585      9A97D4DD 
 585      76B7ED18 
 585      03
 586 0011 991998C9 		.ascii	"\231\031\230\311\341\311&\273\2633\263\201$\223\204"
 586      E1C926BB 
 586      B333B381 
 586      249384
 587 0020 BCD95D92 		.ascii	"\274\331]\222a7\011\357mv\363\206\235\267\363\336\276"
 587      613709EF 
 587      6D76F386 
 587      9DB7F3DE 
 587      BE
 588 0031 9D8EDC16 		.ascii	"\235\216\334\026\330\223\3661\3352\307\376\023\331\034"
 588      D893F631 
 588      DD32C7FE 
 588      13D91C
 589 0040 01CC0463 		.ascii	"\001\314\004c\316\340\003c\216\201\204\204\3730\030"
 589      CEE00363 
 589      8E818484 
 589      FB3018
 590 004f DC403060 		.ascii	"\334@0`s\332\304\006\233\243C\300\204#\011\0040\030"
 590      73DAC406 
 590      9BA343C0 
 590      84230904 
 590      3018
 591 0061 1CBC5F95 		.ascii	"\034\274_\225Jj\251ZRKNf\373\271\252\253\245\372~\365"
 591      4A6AA95A 
 591      524B4E66 
 591      FBB9AAAB 
 591      A5FA7EF5 
 592 0075 DD55924A 		.ascii	"\335U\222J\346\030\216a|\014\323\007\237'\377\3000\005"
 592      E6188E61 
 592      7C0CD307 
 592      9F27FFC0 
 592      3005
 593 0087 290C3398 		.ascii	")\0143\230a\230\177fb\237\307\240,\205\262\022\312j"
 593      61987F66 
 593      629FC7A0 
 593      2C85B212 
 593      CA6A
 594 0099 286BA0AC 		.ascii	"(k\240\254\205\362\036\3130\363\240l\204R\007e'\224"
 594      85F21ECB 
ARM GAS  /tmp/ccUx4H0Q.s 			page 46


 594      30F3A06C 
 594      84520765 
 594      2794
 595 00ab 43505AA0 		.ascii	"CPZ\240t@\211B\351\202r\025J7\224^(n\030.\011\212\027"
 595      74408942 
 595      E9827215 
 595      4A37945E 
 595      286E182E 
 596 00c2 4A1A9474 		.ascii	"J\032\224t(\031P\006A\371\021\224\241P~\002\345Q(O@"
 596      28195006 
 596      41F91194 
 596      A1507E02 
 596      E551284F 
 597 00d7 01769827 		.ascii	"\001v\230'\341\373c(\233\241\354\200\262\033\312~(M"
 597      E1FB6328 
 597      9BA1EC80 
 597      B21BCA7E 
 597      284D
 598 00e9 500E4339 		.ascii	"P\016C9\006\245\225ct\037\304\257\007\312)(\351P\322"
 598      06A59563 
 598      741FC4AF 
 598      07CA2928 
 598      E950D2
 599 00fc A0B4419F 		.ascii	"\240\264A\237\223\244\037G\372tPt\014\2213\021\355J"
 599      93A41F47 
 599      FA745074 
 599      0C913311 
 599      ED4A
 600 010e 13DAD5E4 		.ascii	"\023\332\325\344\374\347P\325\222cnr\034\215\207dw\033"
 600      FCE750D5 
 600      92636E72 
 600      1C8D8764 
 600      771B
 601 0120 D0219D66 		.ascii	"\320!\235f@i\322\214\231\254\301\331\013\345\227\320"
 601      4069D28C 
 601      99ACC1D9 
 601      0BE597D0 
 602 0130 7E0ACA05 		.ascii	"~\012\312\005(\027\241\264\301\261f(]\320\276\204\314"
 602      2817A1B4 
 602      C1B16628 
 602      5DD0BE84 
 602      CC
 603 0141 C8C97CFF 		.ascii	"\310\311|\377\002\276\237\205r\020\332\377\010\337\237"
 603      02BE9F85 
 603      7210DAFF 
 603      08DF9F
 604 0150 1279D018 		.ascii	"\022y\320\030\351D\357H\377+\011\257H\267OR<\255%\343"
 604      E944EF48 
 604      FF2B09AF 
 604      48B74F52 
 604      3CAD25E3 
 605 0164 AFD7F0A3 		.ascii	"\257\327\360\243\360R\017e\007\0240'3\235\2251P\177"
 605      F0520F65 
 605      07143027 
 605      339D9531 
 605      507F
 606 0176 6447D42E 		.ascii	"dG\324.\205c_Px\310W\274H~\003\274\365&\230\210\006"
ARM GAS  /tmp/ccUx4H0Q.s 			page 47


 606      85635F50 
 606      78C857BC 
 606      487E03BC 
 606      F5269888 
 607 018b 61A263E5 		.ascii	"a\242c\345\254\036\017\371]:\221K\301\253fe\214\205"
 607      AC1E0FF9 
 607      5D3A914B 
 607      C1AB6665 
 607      8C85
 608 019d AC3C0ED2 		.ascii	"\254<\016\322\313e\242\227E\254<\306\025h\017\346\344"
 608      CB65A297 
 608      45AC3CC6 
 608      15680FE6 
 608      E4
 609 01ae F355706C 		.ascii	"\363Upl9\224Z(5PVAY\011\305E\360\275\304/\221\375\220"
 609      39945A28 
 609      35505641 
 609      5909C545 
 609      F0BDC42F 
 610 01c5 EF7D04C7 		.ascii	"\357}\004\307\326BYO\361\202\374?\203\214\257\360\262"
 610      D642594F 
 610      F182FC3F 
 610      838CAFF0 
 610      B2
 611 01d6 83D85D91 		.ascii	"\203\330]\221\021\361\204\370\271j\301\217\302S-\341"
 611      11F184F8 
 611      B96AC18F 
 611      C2532DE1 
 612 01e6 6B15E10B 		.ascii	"k\025\341\013\361\344V\306!\266\373\021\3215\212\207"
 612      F1E456C6 
 612      21B6FB11 
 612      D1358A87 
 613 01f6 AD143F75 		.ascii	"\255\024?u\254~\354k\360\275\211\364\361\220\363\253"
 613      AC7EEC6B 
 613      F0BD89F4 
 613      F190F3AB 
 614 0206 091E8AB7 		.ascii	"\011\036\212\2675D\357;(\034\024\317\203\210,Z\035\017"
 614      3544EF3B 
 614      281C14CF 
 614      83882C5A 
 614      1D0F
 615 0218 67E3E5FA 		.ascii	"g\343\345\372\222\310\205dB\262}\005\355\307\210\\_"
 615      92C88564 
 615      42B27D05 
 615      EDC7885C 
 615      5F
 616 0229 C3F76C56 		.ascii	"\303\367lV\036{\225F\337UD\266$2\326\023D\266GI\016"
 616      1E7B9546 
 616      DF5544B6 
 616      2432D613 
 616      44B64749 
 617 023e 184AFC19 		.ascii	"\030J\374\031\305{#\234?\010e?\224\353\224o\241\234"
 617      C57B239C 
 617      3F08653F 
 617      94EB946F 
 617      A19C
 618 0250 837C7538 		.ascii	"\203|u8\033\357[7\340{\027\221\313M\372\256&\343\255"
ARM GAS  /tmp/ccUx4H0Q.s 			page 48


 618      1BEF5B37 
 618      E07B1791 
 618      CB4DFAAE 
 618      26E3AD
 619 0263 21C78E40 		.ascii	"!\307\216@\373(\224cP\276\241\260[\014t\220D\306\252"
 619      FB289463 
 619      50BEA1B0 
 619      5B0C7490 
 619      44C6AA
 620 0276 B6A1879B 		.ascii	"\266\241\207\233\320^gS\007-\032\373*\371\365'\304\377"
 620      D05E6753 
 620      072D1AFB 
 620      2AF9F527 
 620      C4FF
 621 0288 50BE6B87 		.ascii	"P\276k\207\337'\241\334\242x\354p`\247\313\016\354\264"
 621      DF27A1DC 
 621      A278EC70 
 621      60A7CB0E 
 621      ECB4
 622 029a 9CF057A3 		.ascii	"\234\360W\243\341\261\303\302N(\037\237\206\363g\241"
 622      E1B1C3C2 
 622      4E281F9F 
 622      86F367A1 
 623 02aa 9C81729B 		.ascii	"\234\201r\233\3423\352\300NQb\247\016\215\235\316#y"
 623      E233EAC0 
 623      4E5162A7 
 623      0E8D9DCE 
 623      2379
 624 02bc A05C40F3 		.ascii	"\240\\@\363\011\205\335\345\320N\264\036\314\354d\244"
 624      0985DDE5 
 624      D04EB41E 
 624      CCEC64A4 
 625 02cc 832E0B3B 		.ascii	"\203.\013;\241\371\350\013\370}\031\312\035\212\307"
 625      A1F9E80B 
 625      F87D19CA 
 625      1D8AC7
 626 02db AB267652 		.ascii	"\253&vR\3704\313\025\264\255\264<\256$<*\276\264\212"
 626      F834CB15 
 626      B4ADB43C 
 626      AE243C2A 
 626      BEB48A
 627 02ee E05DB5B0 		.ascii	"\340]\265\260\023\232/o _G\276\004\345.\305g\267\205"
 627      139A2F6F 
 627      205F47BE 
 627      04E52EC5 
 627      67B785
 628 0301 9D7AE0FB 		.ascii	"\235z\340\373\232\306N\335\304NW5v\272\013\355\036("
 628      9AC64EDD 
 628      C44E5735 
 628      76BA0BED 
 628      1E28
 629 0313 F750A1B0 		.ascii	"\367P\241\260{\035\332\211\326\201\221\235\314t\320"
 629      7B1DDA89 
 629      D681919D 
 629      CC74D0
 630 0322 6B6127B4 		.ascii	"ka'\264^`Q\016\205r\237\342\361q\246Z\212\034\213N\355"
 630      5E60510E 
ARM GAS  /tmp/ccUx4H0Q.s 			page 49


 630      85729FE2 
 630      F171A65A 
 630      8A1C8B4E 
 631 0337 FA9C7B5F 		.ascii	"\372\234{_\212L\221`i$\261\231?d\346K\360\251\231&I"
 631      8A4C9160 
 631      6924B199 
 631      3F64E64B 
 631      F0A99926 
 632 034c ACC8B3FF 		.ascii	"\254\310\263\377\374\003\346\367,\317\246\373\230L\334"
 632      FC03E6F7 
 632      2CCFA6FB 
 632      984CDC
 633 035b 48F3615C 		.ascii	"H\363a\\\206\341\331Z\366\207\244\365;\227\214\3101"
 633      86E1D95A 
 633      F687A4F5 
 633      3B978CC8 
 633      31
 634 036c C358E6E7 		.ascii	"\303X\346\347\314j\240/\223\244\332\307\030\243\317"
 634      CC6AA02F 
 634      93A4DAC7 
 634      18A3CF
 635 037b DF322BD0 		.ascii	"\3372+\320\000\322*\311\205\341\021\300R\366qm\027\236"
 635      00D22AC9 
 635      85E111C0 
 635      52F6716D 
 635      179E
 636 038d 5DC6EA98 		.ascii	"]\306\352\230\225Y\215\224\235K++\216\366\365-\251\311"
 636      95598D94 
 636      9D4B2B2B 
 636      8EF6F52D 
 636      A9C9
 637 039f 9087E798 		.ascii	"\220\207\347\230\227Y\350\275\234\375\271%\374J\032"
 637      9759E8BD 
 637      9CFDB925 
 637      FC4A1A
 638 03ae FE2F46F0 		.ascii	"\376/F\360\321m\323\316x4\232P\206(\2603\304jz\210\017"
 638      D16DD3CE 
 638      78349A50 
 638      8628B033 
 638      C46A7A88 
 639 03c3 0C25A86C 		.ascii	"\014%\250l\217\223`\222\035\37054\374G\206\022T4\265"
 639      8F936092 
 639      1DF83534 
 639      FC478612 
 639      5434B5
 640 03d6 B5B0E593 		.ascii	"\265\260\345\223\245\003\322\365\276\276\001e^\2351"
 640      A503D2F5 
 640      BEBE0165 
 640      5E9D31
 641 03e5 7DCC74F2 		.ascii	"}\314t\362\343\365\003\340\223Ff}\212Y\016\246\213\256"
 641      E3F503E0 
 641      9346667D 
 641      8A590EA6 
 641      8BAE
 642 03f7 6F6E3CCE 		.ascii	"on<\316N\006\032\236]\317\372\200\307(\253g\322>T\325"
 642      4E061A9E 
 642      5DCFFA80 
ARM GAS  /tmp/ccUx4H0Q.s 			page 50


 642      C728AB67 
 642      D23E54D5 
 643 040b D14FD6B3 		.ascii	"\321O\326\263%\030j\023\206\232\302\365\027\252\256"
 643      25186A13 
 643      869AC2F5 
 643      17AAAE
 644 041a 65EB0849 		.ascii	"e\353\010I\362\362\354V\014\264\235\002\342\331$\237"
 644      F2F2EC56 
 644      0CB49D02 
 644      E2D9249F 
 645 042a 5E47F05B 		.ascii	"^G\360[\351\200\320\340'\032\351.\272\006`\337!G\320"
 645      E980D0E0 
 645      271AE92E 
 645      BA0660DF 
 645      2147D0
 646 043d 8F64E6FF 		.ascii	"\217d\346\377\235\316,\246\326\221\230r\341U\017\223"
 646      9DCE2CA6 
 646      D6919872 
 646      E1550F93 
 647 044d CACC94A4 		.ascii	"\312\314\224\244\022\242\234A\314\034\204\227\251Q\323"
 647      12A29C41 
 647      CC1C8497 
 647      A951D3
 648 045c 5B0A7D5A 		.ascii	"[\012}ZLM\0253\353]XM\365\354 @\371\204RS\"\024\016"
 648      4C4D1533 
 648      EB5D584D 
 648      F5EC2040 
 648      F9845253 
 649 0473 F226A268 		.ascii	"\362&\242h\000j\231\016\343J\221SKQH\240\303\014\345"
 649      006A990E 
 649      E34A9153 
 649      4B5148A0 
 649      C30CE5
 650 0486 B09ACF4F 		.ascii	"\260\232\317O\231\032\324\267\363\242O*O3\030\352ee"
 650      991AD4B7 
 650      F3A24F2A 
 650      4F3318EA 
 650      6565
 651 0498 286F8CE1 		.ascii	"(o\214\341\373\013N\314a\247`\027\331\213Y\236\3522"
 651      FB0B4ECC 
 651      61A76017 
 651      D98B599E 
 651      EA32
 652 04aa 64B9E665 		.ascii	"d\271\346e3 \216\231\217I\032)\236\243U\235wJ\330b\014"
 652      33208E99 
 652      8F491A29 
 652      9EA3559D 
 652      774AD862 
 653 04bf DD6883F1 		.ascii	"\335h\203\361\222\310\215\322\252\241R\315\036\326P"
 653      92C88DD2 
 653      AAA152CD 
 653      1ED650
 654 04ce F1D3D1AC 		.ascii	"\361\323\321\254L\306\227\222\024\006\336\212Ir\257"
 654      4CC69792 
 654      1406DE8A 
 654      4972AF
 655 04dd 6DA4E4E6 		.ascii	"m\244\344\346\331f,E\223\261\024\026(\034\323\212i\216"
ARM GAS  /tmp/ccUx4H0Q.s 			page 51


 655      D9662C45 
 655      93B11416 
 655      281CD38A 
 655      698E
 656 04ef C48951B1 		.ascii	"\304\211Q\261o2\021\343\210-1\026\276'\213\301\263M"
 656      6F3211E3 
 656      882D3116 
 656      BE278BC1 
 656      B34D
 657 0501 200AC79C 		.ascii	" \012\307\234Qq\215\034\2174\345\017\351\240\307[|$"
 657      51718D1C 
 657      8F34E50F 
 657      E9A0C75B 
 657      7C24
 658 0513 AD8C57C0 		.ascii	"\255\214W\300.8\006\313\324\201-9R\211\231\303\221_"
 658      2E3806CB 
 658      D4812D39 
 658      528999C3 
 658      915F
 659 0525 622B1F95 		.ascii	"b+\037\225~\242\344\2436\034\373W]\006I\304\026T\325"
 659      7EA2E4A3 
 659      361CFB57 
 659      5D0649C4 
 659      1654D5
 660 0538 EC7DBB49 		.ascii	"\354}\273I>:\205\241n\366\033\252\256\274\376%\034h"
 660      3E3A85A1 
 660      6EF61BAA 
 660      AEBCFE25 
 660      1C68
 661 054a A73150AF 		.ascii	"\2471P\257\213\316G\311T>J\326\347\007|\2324PZ\030\300"
 661      8BCE47C9 
 661      543E4AD6 
 661      E7077C9A 
 661      34505A18 
 662 055f FC95BB73 		.ascii	"\374\225\273s\314\273n\033\246\363\232\371\201\024\255"
 662      CCBB6E1B 
 662      A6F39AF9 
 662      8114AD
 663 056e AC38E442 		.ascii	"\2548\344B3\244K\011\311$3\035q\314{x\254\317h_>s\376"
 663      33A44B09 
 663      C924331D 
 663      71CC7B78 
 663      ACCF685F 
 664 0585 C0DF2F92 		.ascii	"\300\337/\222\244\014\371TbW\336\334\264\320<\"5\243"
 664      A40CF954 
 664      6257DEDC 
 664      B4D03C22 
 664      35A3
 665 0597 D770CAF0 		.ascii	"\327p\312\360O\342\341\033\360\360]\364\360+\372v\263"
 665      4FE2E11B 
 665      F0F05DF4 
 665      F02BFA76 
 665      B3
 666 05a8 D8685DB6 		.ascii	"\330h]\266F?\3362/~t\323U\021q\2143\347\277xd\011\026"
 666      463FDE32 
 666      2F7E74D3 
 666      5511718C 
ARM GAS  /tmp/ccUx4H0Q.s 			page 52


 666      33E7BF78 
 667 05bf F10A0E98 		.ascii	"\361\012\016\230f7\355\031#S\365\266\203\337\232\016"
 667      6637ED19 
 667      2353F5B6 
 667      83DF9A0E 
 668 05cf 1C734265 		.ascii	"\034sBe\276_\361\032]\361A\023^\323\271\024\026\332"
 668      BE5FF11A 
 668      5DF14113 
 668      5ED3B914 
 668      16DA
 669 05e1 1D0366EA 		.ascii	"\035\003f\352\364p\242\005'\000\031\254\303\016\230"
 669      F470A205 
 669      270019AC 
 669      C30E98
 670 05f0 A9179544 		.ascii	"\251\027\225D\332\264`g\034\203\3519;\251\005\213\332"
 670      DAB46067 
 670      1C83E939 
 670      3BA9058B 
 670      DA
 671 0601 01CB30E7 		.ascii	"\001\3130\347\254C\013\366\271c0=g\247\265`]v\300\206"
 671      AC430BF6 
 671      B963303D 
 671      67A7B560 
 671      5D76C086 
 672 0615 98737656 		.ascii	"\230svV\013v\3051\230\236\263\353Z\260\257\354\200e"
 672      0B76C531 
 672      989EB3EB 
 672      5AB0AFEC 
 672      8065
 673 0627 1A70A67E 		.ascii	"\032p\246~\314\0263\027Y\325\3159\346\206\232\016\034"
 673      CC163317 
 673      59D5CD39 
 673      E6869A0E 
 673      1C
 674 0638 BA3413C3 		.ascii	"\2724\023\303\270\3558}\351\344\206y\364\3602v.,\217"
 674      B8ED387D 
 674      E9E48679 
 674      F4F03276 
 674      2E2C8F
 675 064b 872B73D9 		.ascii	"\207+s\331};\210\026\016\263E;1N\3668\005\323\233\345"
 675      7D3B8816 
 675      0EB3453B 
 675      314EF638 
 675      05D39BE5 
 676 065f 0402D365 		.ascii	"\004\002\323e\0322\031EWD\206,\212\245:\257\202\205"
 676      1A321945 
 676      5744862C 
 676      8AA53AAF 
 676      8285
 677 0671 2E50E5BC 		.ascii	".P\345\274\006\227[\234\332Y\0322\304\270/\317\276\313"
 677      06975B9C 
 677      DA591A32 
 677      C4B82FCF 
 677      BECB
 678 0683 3D05F574 		.ascii	"=\005\365t\316\247r!\267\225V\037\213\364\\\352a\343"
 678      CEA77221 
 678      B795561F 
ARM GAS  /tmp/ccUx4H0Q.s 			page 53


 678      8BF45CEA 
 678      61E3
 679 0695 B44F6C6A 		.ascii	"\264OljMj\346\011S9\215'\224\331Q\223E(\\7SSd\2324\235"
 679      4D6AE609 
 679      53398D27 
 679      94D95193 
 679      45285C37 
 680 06af 2D5EFF88 		.ascii	"-^\377\210\345j\023\222\363\243\037\340\344\374g\016"
 680      E56A1392 
 680      F3A31FE0 
 680      E4FC670E 
 681 06bf 4DDB0B3D 		.ascii	"M\333\013=\206\363\277-\254\252\331G\225\305D\031\006"
 681      86F3BF2D 
 681      ACAAD947 
 681      95C54419 
 681      06
 682 06d0 ABED3F58 		.ascii	"\253\355?XM]\313#h\3618\027\003}\350\241\247\014\037"
 682      4D5DCB23 
 682      68F13817 
 682      037DE8A1 
 682      A70C1F
 683 06e3 B598F0E9 		.ascii	"\265\230\360\351\247{\237/\326\350S>z+\376Ui\314,?K"
 683      A77B9F2F 
 683      D6E8533E 
 683      7A2BFE55 
 683      69CC2C3F 
 684 06f8 6BF92D8E 		.ascii	"k\371-\216-\257\013\220he\347Y\327B)R\354\322\270\272"
 684      2DAF0B90 
 684      6865E759 
 684      D7422952 
 684      ECD2B8BA 
 685 070c 655CA04B 		.ascii	"e\\\240K\331]\377\204\347\373EX\257\273\215\015d\003"
 685      D95DFF84 
 685      E7FB4558 
 685      AFBB8D0D 
 685      6403
 686 071e A86AF647 		.ascii	"\250j\366G\277\300@\025\030\250\251\337@u\345\325\362"
 686      BFC04015 
 686      18A8A9DF 
 686      4075E5D5 
 686      F2
 687 072f 656C3506 		.ascii	"el5\006j\211\2634KY\232\325[\200\365\305\032q\326\372"
 687      6A89B334 
 687      4B599AD5 
 687      5B80F5C5 
 687      1A71D6FA 
 688 0743 1EFB72CC 		.ascii	"\036\373r\314i\332\\:q,f\006%\335v^\230\313\336,\221"
 688      69DA5C3A 
 688      712C6606 
 688      25DD765E 
 688      98CBDE2C 
 689 0758 160D7760 		.ascii	"\026\015w`\257Rb\257eX;\027\342\264S\3019S\017\307\\"
 689      AF5262AF 
 689      65583B17 
 689      E2B453C1 
 689      39530FC7 
 690 076d 732C8657 		.ascii	"s,\206W/F\305\245~\210\321 \213\261\012\213q\353{\020"
ARM GAS  /tmp/ccUx4H0Q.s 			page 54


 690      2F46C5A5 
 690      7E88D120 
 690      8BB10A8B 
 690      71EB7B10 
 691 0781 A3D7B118 		.ascii	"\243\327\261\030\031\0321\320\265\360\255y\362\3447"
 691      191A31D0 
 691      B5F0AD79 
 691      F2E437
 692 0790 9829B75E 		.ascii	"\230)\267^\274\343\033L\334`\375\365\377\355\243\350"
 692      BCE31B4C 
 692      DC60FDF5 
 692      FFEDA3E8 
 693 07a0 FA1F1D4E 		.ascii	"\372\037\035N|\375?\267Es\211g\363\226\223z\211\267"
 693      7CFD3FB7 
 693      45738967 
 693      F396937A 
 693      89B7
 694 07b2 0EAB6C72 		.ascii	"\016\253lr\022\255\262Mt`8\270\337\302130\036b\277?"
 694      12ADB24D 
 694      746038B8 
 694      DFC23133 
 694      301E62BF 
 695 07c7 4B6A740D 		.ascii	"Kjt\015~h\236\262v"
 695      7E689EB2 
 695      76
 696 07d0 90392CFB 		.ascii	"\2209,\373N\210%\221\206r\345\"}$Z=\274\377\035\341"
 696      4E882591 
 696      8672E522 
 696      7D245A3D 
 696      BCFF1DE1 
 697 07e4 F0725337 		.ascii	"\360rS7-R\027-\315&yW\275\015\323\250Lf\3339\304PM\234"
 697      2D52172D 
 697      CD267957 
 697      BD0DD3A8 
 697      4C66DB39 
 698 07fc 059A58EA 		.ascii	"\005\232X\352\272\005\035\320t1\363\245:\355$\260\361"
 698      BA051DD0 
 698      7431F3A5 
 698      3AED24B0 
 698      F1
 699 080d BBC90986 		.ascii	"\273\311\011\2068\267\\6\004%_\203\211|\210\203\006"
 699      38B75C36 
 699      04255F83 
 699      897C8883 
 699      06
 700 081e 2D0775DF 		.ascii	"-\007u\337Q\323\325\255\264\246\015\256G%V\273\342\343"
 700      51D3D5AD 
 700      B4A60DAE 
 700      472556BB 
 700      E2E3
 701 0830 98081E74 		.ascii	"\230\010\036t/G]\217n\354>\360.\271\265\203\316%\016"
 701      2F475D8F 
 701      6EEC3EF0 
 701      2EB9B583 
 701      CE250E
 702 0843 ADDBF8D6 		.ascii	"\255\333\370\326\232r\253\354\232\212j\264\262H,J\317"
 702      9A72ABEC 
ARM GAS  /tmp/ccUx4H0Q.s 			page 55


 702      9A8A6AB4 
 702      B2482C4A 
 702      CF
 703 0854 E5832C86 		.ascii	"\345\203,\206\223W\260\267h8\207Wv\275\002e\225\204"
 703      9357B0B7 
 703      68388757 
 703      76BD0265 
 703      9584
 704 0866 8A919D2F 		.ascii	"\212\221\235/r\352\"J.\2078$So\234\337\311\232\321\370"
 704      72EA224A 
 704      2E873824 
 704      536F9CDF 
 704      C99AD1F8 
 705 087a 5D4C8D3C 		.ascii	"]L\215<\273\017/i\033\271\237B}\000\327MP\253\0373\217"
 705      BB0F2F69 
 705      1BB99F42 
 705      7D00D74D 
 705      50AB1F33 
 706 088f 68D67AC4 		.ascii	"h\326z\304\224d\247rgR\3261\033f\217v\230\322\344\357"
 706      9464A772 
 706      6752D631 
 706      1B668F76 
 706      98D2E4EF 
 707 08a3 E6FA959D 		.ascii	"\346\372\225\235_\273\361e\275\203[g\315\373\224\274"
 707      5FBBF165 
 707      BD835B67 
 707      CDFB94BC 
 708 08b3 DA82B356 		.ascii	"\332\202\263Vy2\255\335St^\265s'\251\272\277\242\250"
 708      7932ADDD 
 708      53745EB5 
 708      7327A9BA 
 708      BFA2A8
 709 08c6 1F8E5991 		.ascii	"\037\216Y\221lc9\230i\240u5%\337!)9\341\355(%\307\265"
 709      6C633998 
 709      69A07535 
 709      25DF2129 
 709      39E1ED28 
 710 08dd 1D2A26B7 		.ascii	"\035*&\267\232Ob_[Mi\303\306}\255m\230\244\223\016\344"
 710      9A4F625F 
 710      5B4D69C3 
 710      C67DAD6D 
 710      98A4930E 
 711 08f2 AA8A5BCA 		.ascii	"\252\212[\312\255\346N\033\201\\\022i-\325\336\243\005"
 711      ADE64E1B 
 711      815C1269 
 711      2DD5DEA3 
 711      05
 712 0903 F3B01CC1 		.ascii	"\363\260\034\301\355\257FuF\354\324\204\310\031\034"
 712      EDAF4675 
 712      46ECD484 
 712      C8191C
 713 0912 2267B561 		.ascii	"\"g\265a\3011\007\354h\377gf\316(EzZ+Y\231\1779\025"
 713      C13107EC 
 713      68FF6766 
 713      CE28457A 
 713      5A2B5999 
 714 0929 B5D07846 		.ascii	"\265\320xF\251H\207\247\263f\244\254\015_J\313s\353"
ARM GAS  /tmp/ccUx4H0Q.s 			page 56


 714      A94887A7 
 714      B366A4AC 
 714      0D5F4ACB 
 714      73EB
 715 093b 193BCC0D 		.ascii	"\031;\314\0157\003+\211T\312`\262\313\177n\007l\204"
 715      37032B89 
 715      54CA60B2 
 715      CB7F6E07 
 715      6C84
 716 094d 99A42591 		.ascii	"\231\244%\221\035\013\024K\355\301\023\343W\216\361"
 716      1D0B144B 
 716      EDC113E3 
 716      578EF1
 717 095c F4CCB5B6 		.ascii	"\364\314\265\266U\022<\371n\366];x/\233\363wc\201n!"
 717      55123CF9 
 717      6EF65D3B 
 717      782F9BF3 
 717      7763816E 
 718 0971 31D9EB14 		.ascii	"1\331\353\024No\210o\333\220ag\0151z`\021Q\2237\272"
 718      4E6F886F 
 718      DB906167 
 718      0D317A60 
 718      11519337 
 719 0986 4C2351B5 		.ascii	"L#Q\265\265\366\306P9\305|\211\203\352#o\342'\037z "
 719      B5F6C650 
 719      39C57C89 
 719      83EA236F 
 719      E2271F7A 
 720 099b E4B0D7A9 		.ascii	"\344\260\327\251\210\212\254oLC\027\304\327mE\323\306"
 720      888AAC6F 
 720      4C4317C4 
 720      D76D45D3 
 720      C6
 721 09ac 46C70F15 		.ascii	"F\307\017\025\232\353\345%\372M\354$\021\357\367\222"
 721      9AEBE525 
 721      FA4DEC24 
 721      11EFF792 
 722 09bc 170F6098 		.ascii	"\027\017`\230\353\316\243\230\244\370\255\265\307\207"
 722      EBCEA398 
 722      A4F8ADB5 
 722      C787
 723 09ca D66D90A4 		.ascii	"\326m\220\244\031I\012c\207\035#\352\275mK#\016\005"
 723      19490A63 
 723      871D23EA 
 723      BD6D4B23 
 723      0E05
 724 09dc 19ACD50E 		.ascii	"\031\254\325\016\230\305\004\277\015\2019yp\263_\231"
 724      98C504BF 
 724      0D813979 
 724      70B35F99 
 725 09ec 7D7AF1F8 		.ascii	"}z\361\370'\277\037-\237s,\206N'\240\345\313C\3536I"
 725      27BF1F2D 
 725      9F732C86 
 725      4E27A0E5 
 725      CB43EB36 
 726 0a01 D2FAB79C 		.ascii	"\322\372\267\234\334\356Y_\272S\366\030t\003\202c>\213"
 726      DCEE595F 
ARM GAS  /tmp/ccUx4H0Q.s 			page 57


 726      BA53F618 
 726      74038263 
 726      3E8B
 727 0a13 93A58CBE 		.ascii	"\223\245\214\276\250\263y\363\204c\256\320\002\031%"
 727      A8B379F3 
 727      8463AED0 
 727      021925
 728 0a22 4FA3FB90 		.ascii	"O\243\373\220F\037m,\361\354\015\234\374\277\301+\243"
 728      461F6D2C 
 728      F1EC0D9C 
 728      FCBFC12B 
 728      A3
 729 0a33 3BB8EEC1 		.ascii	";\270\356\301\365}\\K.\335\244p\233\316\035\3728%\315"
 729      F57D5C4B 
 729      2EDDA470 
 729      9BCE1DFA 
 729      3825CD
 730 0a46 D76D3312 		.ascii	"\327m3\022{\224\311\263\307X\304\310q\026\015\333\212"
 730      7B94C9B3 
 730      C758C4C8 
 730      71160DDB 
 730      8A
 731 0a57 EB4F711D 		.ascii	"\353Oq\035\305\265\204\331)\301\365\024\\\227\342z!"
 731      C5B584D9 
 731      29C1F514 
 731      5C97E27A 
 731      21
 732 0a68 AE6B71FD 		.ascii	"\256kq\375\027\\\257\301u;\256\243\270>\217\353\013"
 732      175CAFC1 
 732      753BAEA3 
 732      B83E8FEB 
 732      0B
 733 0a79 B8EEC2F5 		.ascii	"\270\356\302\365\027\270\276\202\353kv\226\203\324\225"
 733      17B8BE82 
 733      EB6B7696 
 733      83D495
 734 0a88 8C321D37 		.ascii	"\2142\0357\366\373\021LUgo\255\366^3\317\236p\214\230"
 734      F6FB114C 
 734      55676FAD 
 734      F65E33CF 
 734      9E708C98 
 735 0a9c 69A5DA46 		.ascii	"i\245\332F\215j\017`\325\036\304\212\234\246\267\350"
 735      8D6A0F60 
 735      D51EC48A 
 735      9CA6B7E8 
 736 0aac B75EE569 		.ascii	"\267^\345i~\177\256\020\244hE\323\326\227\310\243$y"
 736      7E7FAE10 
 736      A46845D3 
 736      D697C8A3 
 736      2479
 737 0abe 2FC8541F 		.ascii	"/\310T\037\005h7\205\030\213\321\240\021c7\026c\017"
 737      05683785 
 737      188BD1A0 
 737      11633716 
 737      630F
 738 0ad0 1663BACB 		.ascii	"\026c\272\313\206\325v\304.Hc\273\220\260\330\245>}"
 738      86D576C4 
ARM GAS  /tmp/ccUx4H0Q.s 			page 58


 738      2E4863BB 
 738      90B0D8A5 
 738      3E7D
 739 0ae2 703EC92C 		.ascii	"p>\311,\223\244\362Hg\323f\230&8\231\222c*q\257\265"
 739      93A4F248 
 739      67D36698 
 739      26389992 
 739      632A71AF 
 740 0af7 ECE38623 		.ascii	"\354\343\206#\250\370dGN\347\2057_\227\265\300XP\021"
 740      A8F86447 
 740      4EE78537 
 740      5F97B5C0 
 740      585011
 741 0b0a 6E66BA8C 		.ascii	"nf\272\214\366\377\234yw\001\214_\022\351\353k\210d"
 741      F6FF9C79 
 741      77018C5F 
 741      12E9EB6B 
 741      8864
 742 0b1c 32F6F75A 		.ascii	"2\366\367Z\315v\351\366\205\310\234Q\"/1\024Y:.\274"
 742      CD76E9F6 
 742      85C89C51 
 742      222F3114 
 742      593A2EBC 
 743 0b30 AE749FE5 		.ascii	"\256t\237\345B\036\370\236\313\236\270\247\2447\207"
 743      421EF89E 
 743      CB9EB8A7 
 743      A43787
 744 0b3f A81B9010 		.ascii	"\250\033\220\020\221\316ns\342\345\253\211Dw~x\343\307"
 744      91CE6E73 
 744      E2E5AB89 
 744      44777E78 
 744      E3C7
 745 0b51 0B94FD47 		.ascii	"\013\224\375G\031\366\345\233\357r\264\357%\242>\354"
 745      19F6E59B 
 745      EF72B4EF 
 745      25A23EEC 
 746 0b61 450B4A92 		.ascii	"E\013J\222\236\217\177|j\210<\327,r\241eH7\245\217\204"
 746      9E8F7F7C 
 746      6A883CD7 
 746      2C72A165 
 746      4837A58F 
 747 0b76 38F8BE9C 		.ascii	"8\370\276\234\213Z\205\334\0202\345\243\211\327 7\345"
 747      8B5A85DC 
 747      1032E5A3 
 747      89D72037 
 747      E5
 748 0b87 8B69EAB6 		.ascii	"\213i\352\266\004Z\320\232\211]\355\322\\\035J),a\240"
 748      045AD09A 
 748      895DEDD2 
 748      5C1D4A29 
 748      2C61A0
 749 0b9a 5F1927D2 		.ascii	"_\031'\322-\240\\\203 9f\246c\254L\035\326=\015\326"
 749      2DA05C83 
 749      203966A6 
 749      63AC4C1D 
 749      D63D0DD6 
 750 0bae 1C3B5809 		.ascii	"\034;X\011n\012(X\213\035ci\371\222\"}\344\356\207\274"
ARM GAS  /tmp/ccUx4H0Q.s 			page 59


 750      6E0A2858 
 750      8B1D6369 
 750      F992227D 
 750      E4EE87BC 
 751 0bc2 B769198D 		.ascii	"\267i\031\215\366\226\002\221\026C3}z'E\312_E+#\031"
 751      F6960291 
 751      1643337D 
 751      7A2745CA 
 751      5F452B23 
 752 0bd7 EB633B58 		.ascii	"\353c;XF\317&\214>Z?\342\331J\027JkU.\224\326jp]\213"
 752      46CF268C 
 752      3E5A3FE2 
 752      D94A174A 
 752      6B552E94 
 753 0bf0 EBE5B85E 		.ascii	"\353\345\270^\211\353Uv\322\335\302\230\273\250\211"
 753      89EB5576 
 753      D2DDC298 
 753      BBA889
 754 0bff 80B890FA 		.ascii	"\200\270\220\372[NOtn\330\236b\224\033p\270\036\200"
 754      5B4E4F74 
 754      6ED89E62 
 754      941B70B8 
 754      1E80
 755 0c11 D5A64FC6 		.ascii	"\325\246O\306\346\230\203\270\337<\323\014\2019 \211"
 755      E69883B8 
 755      DF3CD30C 
 755      81392089 
 756 0c21 A50E2516 		.ascii	"\245\016%\026\331\254\207\023\220U\253de\3229\201$Q"
 756      D9AC8713 
 756      9055AB64 
 756      65D23981 
 756      2451
 757 0c33 9EEDE338 		.ascii	"\236\355\3438K2\"\013\311G\177\226\246f\260jB\232G'"
 757      4B32220B 
 757      C9477F96 
 757      A666B06A 
 757      429A4727 
 758 0c47 A435F109 		.ascii	"\2445\361\011)z,rw?\331p\351`c\353&:\331\"\251)\205"
 758      297A2C72 
 758      773FD970 
 758      E96063EB 
 758      263AD922 
 759 0c5e 1E3754A8 		.ascii	"\0367T\250\324\223\375\272\322\375c\234l7Z\253\322D"
 759      D493FDBA 
 759      D2FD639C 
 759      6C375AAB 
 759      D244
 760 0c70 B88DB470 		.ascii	"\270\215\264p[\214\262md\213*\234\3144\307\2346f\353"
 760      5B8CB26D 
 760      648B2A9C 
 760      CC34C79C 
 760      3666EB
 761 0c83 0ECD565D 		.ascii	"\016\315V]\277\330\252\243\331\332n\250\363s\315\315"
 761      BFD8AAA3 
 761      D9DA6EA8 
 761      F373CDCD 
 762 0c93 9007A5DE 		.ascii	"\220\007\245\336\276\276\311nz\216\263\312\206\273\214"
ARM GAS  /tmp/ccUx4H0Q.s 			page 60


 762      BEBEC96E 
 762      7A8EB3CA 
 762      86BB8C
 763 0ca2 F4AEFE58 		.ascii	"\364\256\376X'/\256\311o\373\327 \367\3336\377\034\257"
 763      272FAEC9 
 763      6FFBD720 
 763      F7DB36FF 
 763      1CAF
 764 0cb4 DAF7E055 		.ascii	"\332\367\340U{\027\245\241~]\2010q\001v\335,\300z\236"
 764      7B17A5A1 
 764      7E5D8130 
 764      710176DD 
 764      2CC07A9E 
 765 0cc8 AE8F0598 		.ascii	"\256\217\005\230\242\376\2356\002\254LZ\202\"E\276\037"
 765      A2FE9D36 
 765      02AC4C5A 
 765      822245BE 
 765      1F
 766 0cd9 720FC39B 		.ascii	"r\017\303\233\223a\345\020c\237Ad\262\260\017\022\220"
 766      9361E510 
 766      639F4164 
 766      B2B00F12 
 766      90
 767 0cea A15E3163 		.ascii	"\241^1c\257\23565\303\255(\332\234\214\210\277\317\320"
 767      AF9D3635 
 767      C3AD28DA 
 767      9C8C88BF 
 767      CFD0
 768 0cfc 256F35C5 		.ascii	"%o5\305\\r\027v\311i\251\366\\\362\220-\235T):\201E"
 768      5C721776 
 768      C969A9F6 
 768      5CF2902D 
 768      9D54293A 
 769 0d12 6F0232AD 		.ascii	"o\0022\255N:\025\235\300b<\001\231\245N\314\310\210"
 769      4E3A159D 
 769      C0623C01 
 769      99A54ECC 
 769      C888
 770 0d24 4E0E1BEA 		.ascii	"N\016\033\352\004mX0\314AV\301\320j'\030('\234m\254"
 770      046D5830 
 770      CC4156C1 
 770      D06A2718 
 770      28279C6D 
 771 0d39 EAB8A4D4 		.ascii	"\352\270\244\324\342\314\375\024U\233\223\021v\214u"
 771      E2CCFD14 
 771      559B9311 
 771      768C75
 772 0d48 66464604 		.ascii	"fFF\004m3\314!\335-\264\037\275o,\334\\\201\022\256"
 772      6D33CC21 
 772      DD2DB41F 
 772      BD6F2CDC 
 772      5C8112AE 
 773 0d5c C3967075 		.ascii	"\303\226pu\264p\346dZ?\272C\373\2219\231\245\037\231"
 773      B470E664 
 773      5A3FBA43 
 773      FB913999 
 773      A51F99
ARM GAS  /tmp/ccUx4H0Q.s 			page 61


 774 0d6f 91119D74 		.ascii	"\221\021\235t\032\372Q\357QZ'\253\214u2\207\326I\324"
 774      1AFA51EF 
 774      515A27AB 
 774      8C753287 
 774      D649D4
 775 0d82 964EB6D2 		.ascii	"\226N\266\322:1'\323\352\3446\255\023s2K\235\230\221"
 775      3A3127D3 
 775      EAE436AD 
 775      1373324B 
 775      9D9891
 776 0d95 119D7C66 		.ascii	"\021\235|f\250\223\273\2551\235\264b\235l\261\351']"
 776      A893BBAD 
 776      319DB462 
 776      9D6CB1E9 
 776      275D
 777 0da7 FDF31373 		.ascii	"\375\363\023s2\313 0##\302]2\014\202\336\366~$\216k"
 777      32CB2030 
 777      2323C25D 
 777      320C82DE 
 777      F67E248E 
 778 0dbc 9689835E 		.ascii	"\226\211\203^.\022\213P\211d\237\261\016\357\323\211"
 778      2E128B50 
 778      89649FB1 
 778      0EEFD389 
 779 0dcc E4AAAD85 		.ascii	"\344\252\255\205\342\306\330B\361\030\0066'\253\326"
 779      E2C6D842 
 779      F1180636 
 779      27ABD6
 780 0ddb 90DDA4FD 		.ascii	"\220\335\244\375\312\234\314\322\257\314\310\210\276"
 780      CA9CCCD2 
 780      AFCCC888 
 780      BE
 781 0de8 AE1BFA55 		.ascii	"\256\033\372Uy{\314\257\256a\277\372\324fr\355\266\245"
 781      797BCCAF 
 781      AE61BFFA 
 781      D46672ED 
 781      B6A5
 782 0dfa 93F58A4E 		.ascii	"\223\365\212Nx\366f\0022\255Nn\320:1'\263\324\211\031"
 782      78F66602 
 782      32AD4E6E 
 782      D03A3127 
 782      B3D48919 
 783 0e0e 19D1C91D 		.ascii	"\031\321\311\035C\235<\350\350\207;~k\307\035)\367;"
 783      439D3CE8 
 783      E8873B7E 
 783      6BC71D29 
 783      F73B
 784 0e20 67D3FD7A 		.ascii	"g\323\375z\235\271\237\242js\262j\335\342\227\322\231"
 784      9DB99FA2 
 784      6A73B26A 
 784      DDE297D2 
 784      99
 785 0e31 19191154 		.ascii	"\031\031\021Tr\307\207pYts\303\356_/\332 M\231!=\350"
 785      72C78770 
 785      597473C3 
 785      EE5F2FDA 
 785      204D9921 
ARM GAS  /tmp/ccUx4H0Q.s 			page 62


 786 0e47 7B8755DE 		.ascii	"{\207U\336\371\232\235\246\027P\301\230j\210\361\340"
 786      F99A9DA6 
 786      1750C198 
 786      6A88F1E0 
 787 0e57 7CCFD0F7 		.ascii	"|\317\320\367\245=\350\275\264w\030\005\342\023\023"
 787      A53DE8BD 
 787      B4771805 
 787      E21313
 788 0e66 88770D21 		.ascii	"\210w\015!\266Mkw\253\020\366\257\204f\270)\343\241"
 788      B64D6B77 
 788      AB10F6AF 
 788      8466B829 
 788      E3A1
 789 0e78 8D9C94B1 		.ascii	"\215\234\224\261\316\2330Rj\"\313\356\037\307\311r\315"
 789      CE9B3052 
 789      6A22CBEE 
 789      1FC7C972 
 789      CD
 790 0e89 04E2CF86 		.ascii	"\004\342\317\206\020\233\032\016\376:\016b\306C\306"
 790      109B1A0E 
 790      FE3A0E62 
 790      C643C6
 791 0e98 10B38D20 		.ascii	"\020\263\215 \"\275GfI,\366\345\307\025\200\012\023"
 791      22BD4766 
 791      492CF6E5 
 791      C715800A 
 791      13
 792 0ea9 8039863C 		.ascii	"\2009\206<,n:\303\366C\237si}\242;n\011.\335\327\230"
 792      2C6E3AC3 
 792      F6439F73 
 792      697DA23B 
 792      6E092EDD 
 793 0ebf 30B6C050 		.ascii	"0\266\300P\262{\215\032\311\320p\034So\002\260\310P"
 793      B27B8D1A 
 793      C9D0701C 
 793      536F02B0 
 793      C850
 794 0ed1 B2CACEF6 		.ascii	"\262\312\316\366!q\332=`\002\261\330D9\027Y\015\304"
 794      2171DA3D 
 794      6002B1D8 
 794      44391759 
 794      0DC4
 795 0ee3 6C9C3E4F 		.ascii	"l\234>O\231@T\032\2121w\377\254\241\322Rt\237t\244\223"
 795      9940541A 
 795      8A3177FF 
 795      ACA1D252 
 795      749F74A4 
 796 0ef8 2BC86A4B 		.ascii	"+\310jK\375\032\317u]&\214-5\211\347\036\203x\276k\202"
 796      FD1ACF75 
 796      5D268C2D 
 796      3589E71E 
 796      8378BE6B 
 797 0f0d B14C8FF1 		.ascii	"\261L\217\361\004\263\024aTu\036\032\262\246D\232\262"
 797      04B31461 
 797      54751E1A 
 797      B2A6449A 
 797      B2
ARM GAS  /tmp/ccUx4H0Q.s 			page 63


 798 0f1e 1EA4EA63 		.ascii	"\036\244\352c\373F\032>\037\375\037E\266\223(%\251{"
 798      FB461A3E 
 798      1FFD1F45 
 798      B6932825 
 798      A97B
 799 0f30 B46E2D25 		.ascii	"\264n-%\317\323V\270\321]\253\031\3516\036\265\352\241"
 799      CFD356B8 
 799      D15DAB19 
 799      E9361EB5 
 799      EAA1
 800 0f42 38663E26 		.ascii	"8f>&Z\345\216\177\313L\331\212\204\316%\272\337)E\252"
 800      5AE58E7F 
 800      CB4CD98A 
 800      84CE25BA 
 800      DF2945AA 
 801 0f56 CECA3B00 		.ascii	"\316\312;\000\014n\254F\325\307F\217h\270ok\377\214"
 801      0C6EAC46 
 801      D5C7468F 
 801      68B86F6B 
 801      FF8C
 802 0f68 70BF0673 		.ascii	"p\277\006s\277\304\204{S \210\006L\2626\236\367\023"
 802      BFC4847B 
 802      53208806 
 802      4CB2369E 
 802      F713
 803 0f7a D308EF6B 		.ascii	"\323\010\357km\361\336\332\241\337\275\260]\305%\003"
 803      6DF1DEDA 
 803      A1DFBDB0 
 803      5DC52503 
 804 0f8a 3B7A4C52 		.ascii	";zLR\0229\321\201\237\262\312\017\364\367\320`\216\356"
 804      1239D181 
 804      9FB2CA0F 
 804      F4F7D060 
 804      8EEE
 805 0f9c 984A9193 		.ascii	"\230J\221\223"
 806 0fa0 32D86798 		.ascii	"2\330g\230\263\203\216\3012u\234\235[\254\177\027\360"
 806      B3838EC1 
 806      32759C9D 
 806      5BAC7F17 
 806      F0
 807 0fb1 A81D3C8B 		.ascii	"\250\035<\213W\036\256wh^yhw\014\246g\256[\013v\316"
 807      571EAE77 
 807      685E7968 
 807      770CA667 
 807      AE5B0B76 
 808 0fc6 0E98D18B 		.ascii	"\016\230\321\213\001F\037\255\223@ju\243[\260\033\334"
 808      01461FAD 
 808      93406A75 
 808      A35BB01B 
 808      DC
 809 0fd7 E856EB26 		.ascii	"\350V\353&\\o\301\3656\\o\307u\275[\367\340\354\262"
 809      5C6FC1F5 
 809      365C6FC7 
 809      75BD5BF7 
 809      E0ECB2
 810 0fea 1A2586AE 		.ascii	"\032%\206\256\230\310%\244\310f\363\3600\332\003\007"
 810      98C825A4 
ARM GAS  /tmp/ccUx4H0Q.s 			page 64


 810      C866F3F0 
 810      30DA0307 
 811 0ffa C17DA998 		.ascii	"\301}\251\230\235\212"
 811      9D8A
 812 1000 7D3882C3 		.ascii	"}8\202\303\343\353\304\341A\3572\234:\000od\213\013"
 812      E3EBC4E1 
 812      41EF329C 
 812      3A006F64 
 812      8B0B
 813 1012 8FCE6FA7 		.ascii	"\217\316o\247*\273\014m\204GI\244g\241\305{\260\332"
 813      2ABB0C6D 
 813      844749A4 
 813      67A1C57B 
 813      B0DA
 814 1024 B7EED4F1 		.ascii	"\267\356\324\361\037\326\010\322vAy\241\367\000\026"
 814      1FD608D2 
 814      764179A1 
 814      F70016
 815 1033 A4724042 		.ascii	"\244r@BA\364@\020\347\230\2449^\220/\025A\232m\011R"
 815      41F44010 
 815      E798A439 
 815      5E902F15 
 815      419A6D09 
 816 1048 B750F1FE 		.ascii	"\267P\361\376\375n\344c;U\\\013\03735jId{;vX\031l\237"
 816      FD6EE463 
 816      3B555C0B 
 816      1F33356A 
 816      49647B3B 
 817 1061 6330BDF7 		.ascii	"c0\275\367\357lW6\002\311\267\353\016\333\301\263x\322"
 817      EF6C5736 
 817      02C9B7EB 
 817      0EDBC1B3 
 817      78D2
 818 1073 B2AB9DDE 		.ascii	"\262\253\235\336\230j\177i\322FO\235#\251\225\236\021"
 818      986A7F69 
 818      D2464F9D 
 818      23A9959E 
 818      11
 819 1084 A1EAB967 		.ascii	"\241\352\271g\213\311\326\341O\261b\332(\203S\217\304"
 819      8BC9D6E1 
 819      4FB162DA 
 819      2883538F 
 819      C4
 820 1095 D058667C 		.ascii	"\320Xf|t\270SM\214\032w\0162\206c\205\351\014\200\366"
 820      74B8534D 
 820      8C1A770E 
 820      32866385 
 820      E90C80F6 
 821 10a9 C4AF501E 		.ascii	"\304\257P\036\322\343\275S\227\354\000\332\337\207\321"
 821      D2E3BD53 
 821      97EC00DA 
 821      DF87D1
 822 10b8 AC494187 		.ascii	"\254IA\207q\012:\202S\3151\\\267\340\372\004\256Ok\223"
 822      710A3A82 
 822      53CD315C 
 822      B7E0FA04 
 822      AE4F6B93 
ARM GAS  /tmp/ccUx4H0Q.s 			page 65


 823 10cc 8F996E90 		.ascii	"\217\231n\220\327\251\330G\335\034\011\365\376yro\314"
 823      D7A9D847 
 823      DD1C09F5 
 823      FE79726F 
 823      CC
 824 10dd 9379F6B8 		.ascii	"\223y\366\270c0\235\"#s:\264\236\314\263\255v\360,<"
 824      63309D22 
 824      23733AB4 
 824      9ECCB3AD 
 824      76F02C3C 
 825 10f1 799D3C2F 		.ascii	"y\235</\310a\361\225\232\324\034Z\331\330({5F\331\207"
 825      C861F195 
 825      9AD41C5A 
 825      D9D8287B 
 825      3546D987 
 826 1105 8DD2884D 		.ascii	"\215\322\210Mp\026\327\347p\035\325\317\005\367\006"
 826      7016D7E7 
 826      701DD5CF 
 826      05F706
 827 1114 5073813E 		.ascii	"Ps\201>\357\032MMZ\375H\221\372?\224\361FY\357\025\205"
 827      EF1A4D4D 
 827      5AFD4891 
 827      FA3F94F1 
 827      4659EF15 
 828 1129 769EF61F 		.ascii	"v\236\366\037\"\264}\251\354R\275\200\363gqF\342\374"
 828      22B47DA9 
 828      EC52BD80 
 828      F3677146 
 828      E2FC
 829 113b A947E298 		.ascii	"\251G\342\2302Ls)~\241tQY(]J\234@\247L\216l\256X\031"
 829      324C7329 
 829      7EA17451 
 829      59285D4A 
 829      9C40A74C 
 830 1154 9B0926AB 		.ascii	"\233\011&\253!<\315b\025\256{\333\257F\345\243?n*E\032"
 830      213CCD62 
 830      15AE7BDB 
 830      AF46E5A3 
 830      3F6E2A45 
 831 1169 3A15CF92 		.ascii	":\025\317\222\267\237|\340\030Oo\211\266N\354Y2\330"
 831      B79F7CE0 
 831      184F6F89 
 831      B64EEC59 
 831      32D8
 832 117b 063B6016 		.ascii	"\006;`\026\013\265o\376\333\320\254\021u\3618]c\326"
 832      0BB56FFE 
 832      DBD0AC11 
 832      75F1385D 
 832      63D6
 833 118d CD0D9F3D 		.ascii	"\315\015\237=&\257~\277\301V\335\221\330\252\024\020"
 833      26AF7EBF 
 833      C156DD91 
 833      D8AA1410 
 834 119d 52EE6DCA 		.ascii	"R\356m\312\242\221%\373\3616\311\333\266\246\303\255"
 834      A29125FB 
 834      F136C9DB 
 834      B6A6C3AD 
ARM GAS  /tmp/ccUx4H0Q.s 			page 66


 835 11ad FB156D7A 		.ascii	"\373\025mz\360\204\203Y\270\335\357\034\322\360\256"
 835      F0848359 
 835      B8DDEF1C 
 835      D2F0AE
 836 11bc BD6582E1 		.ascii	"\275e\202\341\236\377\371\373\331L\236\275\217u\361"
 836      9EFFF9FB 
 836      D94C9EBD 
 836      8F75F1
 837 11cb 69625DE8 		.ascii	"ib]\3501\220\250\017hU\264\312;F\037\330REg\243~\362"
 837      3190A80F 
 837      6855B4CA 
 837      3B461FD8 
 837      524567A3 
 838 11e1 BD805978 		.ascii	"\275\200Yx\320o]\334\234\246_g_s\214\227\251\303\273"
 838      D06F5DDC 
 838      9CA65F67 
 838      5F738C97 
 838      A9C3BB
 839 11f4 27EFDBC4 		.ascii	"'\357\333\304\323\3227v\260,\322\351\334\375\225?\222"
 839      D3D23776 
 839      B02CD2E9 
 839      DCFD953F 
 839      92
 840 1205 A2115679 		.ascii	"\242\021Vy{\261\227\3063z\227\314~F}\240\311\250}8\243"
 840      7BB197C6 
 840      337A97CC 
 840      7E467DA0 
 840      C9A87D38 
 841 121a 4A1EBC9B 		.ascii	"J\036\274\233\017\327Sp=\315cc\202\273\347\326d\216"
 841      0FD75370 
 841      3DCD6363 
 841      82BBE7D6 
 841      648E
 842 122c A9039D3A 		.ascii	"\251\003\235:\247V\201\020\351\257\225\361\003\2312"
 842      A7568110 
 842      E9AF95F1 
 842      039932
 843 123b E247B2A7 		.ascii	"\342G\262\247)\276\244\306\225\244\304\325L\317@\334"
 843      29BEA4C6 
 843      95A4C4D5 
 843      4CCF40DC 
 844 124b D2BDB286 		.ascii	"\322\275\262\206\273\2301[\352\211\275\012\235\346\213"
 844      BB98315B 
 844      EA89BD0A 
 844      9DE68B
 845 125a 3546AA12 		.ascii	"5F\252\022\314\242%\240\306\2650\234\261\242ok\024\335"
 845      CCA225A0 
 845      C6B5309C 
 845      B1A26F6B 
 845      14DD
 846 126c 8D157D07 		.ascii	"\215\025}\007OW=\270\236\341\321MZ\013\006R\311\215"
 846      4F573DB8 
 846      9EE1D14D 
 846      5A0B0652 
 846      C98D
 847 127e CA268ECD 		.ascii	"\312&\216\315|I3\372e<\372\025<\356\227\270\376\032"
 847      7C4933FA 
ARM GAS  /tmp/ccUx4H0Q.s 			page 67


 847      653CFA15 
 847      3CEE97B8 
 847      FE1A
 848 1290 D737F413 		.ascii	"\3277\364\023\347\262\201\324\304I\315S\244m\376Z@\264"
 848      E7B281D4 
 848      C449CD53 
 848      A46DFE5A 
 848      40B4
 849 12a2 B2E2D3E4 		.ascii	"\262\342\323\344b)\262h\270\362\177u\376BC\352\377\211"
 849      6229B268 
 849      B8F27F75 
 849      FE4243EA 
 849      FF89
 850 12b4 0E69462C 		.ascii	"\016iF,\262\366\331\263ij\332N\370\312\310\326\332\313"
 850      B2F6D9B3 
 850      696ADA4E 
 850      F8CAC8D6 
 850      DACB
 851 12c6 2FE2ED03 		.ascii	"/\342\355\003\345\0364\372\206\201\206\211\312\372]"
 851      E51E34FA 
 851      86818689 
 851      CAFA5D
 852 12d5 CAF91EA3 		.ascii	"\312\371\036\243Me\350\250\215+\261\213\344\015-y\003"
 852      4D65E8A8 
 852      8D2BB18B 
 852      E40D2D79 
 852      03
 853 12e6 F75E3C3E 		.ascii	"\367^<>\"u\230\245\214M\032\343\214g\027x\220I\027\352"
 853      227598A5 
 853      8C4D1AE3 
 853      8C671778 
 853      904917EA 
 854 12fa 9DA889D6 		.ascii	"\235\250\211\326\266\321x5\261@\240\225\215\336\331"
 854      B6D17835 
 854      B140A095 
 854      8DDED9
 855 1309 96ED6778 		.ascii	"\226\355gxk\312\245@\214\210i\274\357|\217\254\361\012"
 855      6BCAA540 
 855      8C8869BC 
 855      EF7C8FAC 
 855      F10A
 856 131b ACF1C3C6 		.ascii	"\254\361\303\306\032\267\300\301w\002\015U^mK\3457\025"
 856      1AB7C0C1 
 856      77020D55 
 856      5E6D4BE5 
 856      3715
 857 132d 95CB7BD6 		.ascii	"\225\313{\326Oc\006\252\235\253\234\300\335\302\373"
 857      4F6306AA 
 857      9DAB9CC0 
 857      DDC2FB
 858 133c DF64ACF3 		.ascii	"\337d\254\363\216\2612\265\332\214t{\246ONR\336\263"
 858      8EB132B5 
 858      DA8C747B 
 858      A64F4E52 
 858      DEB3
 859 134e B84A8319 		.ascii	"\270J\203\031n\326\266\010\204{Z\264n[h\231\266]\253"
 859      6ED6B608 
ARM GAS  /tmp/ccUx4H0Q.s 			page 68


 859      847B5AB4 
 859      6E5B6899 
 859      B65DAB
 860 1361 5AE35A4B 		.ascii	"Z\343ZK\260k\325\340\211\240\026\327\313q\275R\357l"
 860      B06BD5E0 
 860      89A016D7 
 860      CB71BD52 
 860      EF6C
 861 1373 C5832867 		.ascii	"\305\203(g\323\333\2254WYx[U\347\305\027\261\267)\211"
 861      D3DB9534 
 861      5759785B 
 861      55E7C517 
 861      B1B72989 
 862 1387 1FBC44FE 		.ascii	"\037\274D\376O\017\012\342\000\005\006\375\373F\314"
 862      4F0F0AE2 
 862      000506FD 
 862      FB46CC
 863 1396 E8078E33 		.ascii	"\350\007\2163\377\207&\231\3771U\222\367\342$\321\217"
 863      FF872699 
 863      FF315592 
 863      F7E224D1 
 863      8F
 864 13a7 4BDA5123 		.ascii	"K\332Q#Q\214\325\271J\223|?\300\311\367C\234p\033p\375"
 864      518CD5B9 
 864      4A937C3F 
 864      C0C9F743 
 864      9C701B70 
 865 13bc 39AE6763 		.ascii	"9\256gc\245\316\301\365b\\\257\326+\270j\220\022K\012"
 865      A5CEC1F5 
 865      625CAFD6 
 865      2BB86A90 
 865      124B0A
 866 13cf 5BFA7BC3 		.ascii	"[\372{\303h\240\217<\352=kt\277\372\330\261\350\266"
 866      68A08F3C 
 866      EA3D6B74 
 866      BFFAD8B1 
 866      E8B6
 867 13e1 C6AF3DC5 		.ascii	"\306\257=\305e\221)5hK\027\313*\252]\244\277\014xKA"
 867      65912935 
 867      684B17CB 
 867      2AAA5DA4 
 867      BF0C784B 
 868 13f6 4AC3B4DA 		.ascii	"J\303\264\332^\323M{\361\354:\307\332_o\242}\355\273"
 868      5ED34D7B 
 868      F1EC3AC7 
 868      DA5F6FA2 
 868      7DEDBB
 869 1409 C9B15EE8 		.ascii	"\311\261^\350\022\004K\275&\266_\233b\202cV\017\222"
 869      12044BBD 
 869      26B65F9B 
 869      62826356 
 869      0F92
 870 141b 9DE13166 		.ascii	"\235\3411f\353\240*\224z\326b\256\210\374\365\037\356"
 870      EBA02A94 
 870      7AD662AE 
 870      88FCF51F 
 870      EE
ARM GAS  /tmp/ccUx4H0Q.s 			page 69


 871 142c FE4962F9 		.ascii	"\376Ib\371'*\240\003\254\344\247z\361\354V\307\362o"
 871      272AA003 
 871      ACE4A77A 
 871      F1EC56C7 
 871      F26F
 872 143e 33913F5D 		.ascii	"3\221?]'\277\322\013\232\033<\3246K\212\011\216\371"
 872      27BFD20B 
 872      9A1B3CD4 
 872      364B8A09 
 872      8EF9
 873 1450 4495BF45 		.ascii	"D\225\277E\226\177\213F\376\310\203\375\222\267\254"
 873      967F8B46 
 873      FEC883FD 
 873      92B7AC
 874 145f 783A7A9C 		.ascii	"x:z\234c\"\373\357\36560\221\235\352\305\263;\035\313"
 874      6322FBEF 
 874      F5363091 
 874      9DEAC5B3 
 874      3B1DCB
 875 1472 BECB44F6 		.ascii	"\276\313D\366\024\235\354\273h\3315\2730)& %\253\262"
 875      149DECBB 
 875      68D935BB 
 875      30292620 
 875      25ABB2
 876 1485 5F9765AF 		.ascii	"_\227e\257\327\312\336\335\234H\3667\365<\230\310N\365"
 876      D7CADEDD 
 876      9C48F637 
 876      F53C98C8 
 876      4EF5
 877 1497 E2D9BD8E 		.ascii	"\342\331\275\216e\377\304Dvm\342\210\365Re\327l\343"
 877      65FFC444 
 877      766DE288 
 877      F55265D7 
 877      6CE3
 878 14a9 A39880EB 		.ascii	"\243\230\200\353\000U\366\231\203\261\354{t\262\037"
 878      0055F699 
 878      83B1EC7B 
 878      74B21F
 879 14b8 516597CF 		.ascii	"Qe\227\317(\220-\026\220\363\007+\220\313\014 \037\264"
 879      28902D16 
 879      90F3072B 
 879      90CB0C20 
 879      1FB4
 880 14ca 6820B768 		.ascii	"h \267h ;,\274\363c\025\262~\260\201w\266\232@vY@\036"
 880      203B2CBC 
 880      F36315B2 
 880      7EB08177 
 880      B69A4076 
 881 14e1 52213B0C 		.ascii	"R!;\014 \347uh \3535\220W-\374\350\212\012ywp\274\037"
 881      20E77568 
 881      20EB3590 
 881      572DFCE8 
 881      8A0A7977 
 882 14f8 CDEB3481 		.ascii	"\315\3534\201\354\265\200\234\362\260\002Y\376\260\006"
 882      ECB5809C 
 882      F2B00259 
 882      FEB006
ARM GAS  /tmp/ccUx4H0Q.s 			page 70


 883 1507 92B858CD 		.ascii	"\222\270X\315\313\224\217e(\364\034q\2006\307>\326n"
 883      CB948F65 
 883      28F41C71 
 883      8036C73E 
 883      D66E
 884 1519 E2632CF1 		.ascii	"\342c,\361/\023\357\036\241\364K&8'\035\217|\312d\344"
 884      2F13EF1E 
 884      A1F44B26 
 884      38271D8F 
 884      7CCA64E4 
 885 152d 243232F9 		.ascii	"$22\371\017\267\337\236o\231\305\316Y;MB\317\270\337"
 885      0FB7DF9E 
 885      6F99C5CE 
 885      593B4D42 
 885      CFB8DF
 886 1540 59122973 		.ascii	"Y\022)s\333\277\305\335\351\241nq\237\302\273\320uO"
 886      DBBFC5DD 
 886      E9A16E71 
 886      9FC2BBD0 
 886      754F
 887 1552 838F3CAC 		.ascii	"\203\217<\254]m\342\236\260\002$vP_\251\201KsV\371\007"
 887      5D6DE29E 
 887      B0022476 
 887      505FA981 
 887      4B7356F9 
 888 1567 92573045 		.ascii	"\222W0E\207\307lO\311)\335&\366\233\305\232\227j\020"
 888      87C76C4F 
 888      C929DD26 
 888      F69BC59A 
 888      976A10
 889 157a 912E78CF 		.ascii	"\221.x\317xt\317\213\251\333\346\350Y\263\231l\237{"
 889      7874CF8B 
 889      A9DBE6E8 
 889      59B3996C 
 889      9F7B
 890 158c 524DA856 		.ascii	"RM\250V\230\254\335\021\325\005S\252\275\026\377L\343"
 890      98ACDD11 
 890      D50553AA 
 890      BD16FF4C 
 890      E3
 891 159d A229D50C 		.ascii	"\242)\325\014\213\033\373]\246Th\2625\243\272\024\243"
 891      8B1BFB5D 
 891      A65468B2 
 891      35A3BA14 
 891      A3
 892 15ae CA6496A0 		.ascii	"\312d\226\240%^\305\3143\203\244)^U\211k\265\377\032"
 892      255EC5CC 
 892      3383A429 
 892      5E55896B 
 892      B5FF1A
 893 15c1 9942DE62 		.ascii	"\231B\336b\201|\331\224\237\271\026R\\1\245\252\267"
 893      817CD994 
 893      9FB91652 
 893      5C31A5AA 
 893      B7
 894 15d2 18EBAA29 		.ascii	"\030\353\252)\025\332\266oFu\315\224j\217\305X_\232"
 894      15DAB66F 
ARM GAS  /tmp/ccUx4H0Q.s 			page 71


 894      4675CD94 
 894      6A8FC558 
 894      5F9A
 895 15e4 52555BC8 		.ascii	"RU[\310\365\225)\325l\013\016\277\216\263\016\254\225"
 895      F59529D5 
 895      6C0B0EBF 
 895      8EB30EAC 
 895      95
 896 15f5 5ED25A67 		.ascii	"^\322Zg\247\313\334:\273,\220o\320\310\221y\245\022"
 896      A7CBDC3A 
 896      BB2C906F 
 896      D0C89179 
 896      A512
 897 1607 C7A9B887 		.ascii	"\307\251\270\207,p\327Y\304\311\3158\334\015\263\265"
 897      2C70D759 
 897      C4C9CD38 
 897      DC0DB3B5 
 898 1617 B82D5A5C 		.ascii	"\270-Z\\\322c\333\\m\217\016\203\036\225\345\332\036"
 898      D263DB5C 
 898      6D8F0E83 
 898      1E95E5DA 
 898      1E
 899 1628 51238C05 		.ascii	"Q#\214\005\332\036]\006=v-\326\366\270j!\3375\013\275"
 899      DA1E5D06 
 899      3D762DD6 
 899      F6B86A21 
 899      DF350BBD 
 900 163c F5C4CBB7 		.ascii	"\365\304\313\267P\213\333m4r\205\266G\257\356%\217_"
 900      508BDB6D 
 900      347285B6 
 900      47AFEE25 
 900      8F5F
 901 164e 3EFDF430 		.ascii	">\375\3640\365\257 <,$\016+,\010\211\341a\257\374\366"
 901      F5AF203C 
 901      2C240E2B 
 901      2C0889E1 
 901      61AFFCF6 
 902 1662 8D516F4C 		.ascii	"\215QoL\034\026\310\011\024\204\004\377\370\027\363"
 902      1C16C809 
 902      148404FF 
 902      F817F3
 903 1671 9ECE617C 		.ascii	"\236\316a|\350\224?X\020x;\351\265\177\377]\346(&\025"
 903      E8943F58 
 903      10783BE9 
 903      B57FFF5D 
 903      E6282615 
 904 1685 1F28CA47 		.ascii	"\037(\312G\207\236\210G\312\315\017\004\213\262\005"
 904      879E8847 
 904      CACD0F04 
 904      8BB205
 905 1694 00094F0A 		.ascii	"\000\011O\012#\372@\316\230I\341\177\203\316\251\270"
 905      23FA40CE 
 905      9849E17F 
 905      83CEA9B8 
 906 16a4 F53B1B84 		.ascii	"\365;\033\204\002\032\370\305D\\\026\344\025\346\006"
 906      021AF8C5 
 906      445C16E4 
ARM GAS  /tmp/ccUx4H0Q.s 			page 72


 906      15E606
 907 16b3 855078D8 		.ascii	"\205Px\330k\243F\001\2258\251P@\003z\002\371\242_|t"
 907      6BA34601 
 907      9538A950 
 907      40037A02 
 907      F9A25F7C 
 908 16c8 585138A4 		.ascii	"XQ8\244b\346\013\023\202\271Y\303\302bvn\276\010}\222"
 908      62E60B13 
 908      82B959C3 
 908      C262766E 
 908      BE087D92 
 909 16dc E1EBB967 		.ascii	"\341\353\271g\375\342?\030\365\312\343\0039\271\371"
 909      FDE23F18 
 909      F5CAE303 
 909      39B9F9
 910 16eb C2307FB6 		.ascii	"\3020\177\2660\226/\012\002\030A\366\371\375\204.\025"
 910      30962F0A 
 910      021841F6 
 910      F9FD842E 
 910      15
 911 16fc 58E40B73 		.ascii	"X\344\013s\220\226\304\264@\216_\375\371w\011\024\242"
 911      9096C4B4 
 911      408E5FFD 
 911      F9770914 
 911      A2
 912 170d 400D1073 		.ascii	"@\015\020sB\002\237\035\366\377\251H(\002\220\014\000"
 912      42029F1D 
 912      F6FFA948 
 912      2802900C 
 912      00
 913 171e D11DFA1B 		.ascii	"\321\035\372\033K\240@N6\200xe\012\277\350S\251\223"
 913      4BA0404E 
 913      36807865 
 913      0ABFE853 
 913      A993
 914 1730 0AFDF9C2 		.ascii	"\012\375\371\302D\021\276\012C\302\370d\2610\224[\340"
 914      4411BE0A 
 914      43C2F864 
 914      B130945B 
 914      E0
 915 1741 17BD4584 		.ascii	"\027\275E\204\357\024\277_i\342.\271\005\311\201\202"
 915      EF14BF5F 
 915      69E22EB9 
 915      05C98182 
 916 1751 7C11287E 		.ascii	"|\021(~f\313'`P\331\374\000\022\020'zC\3028>\224\347"
 916      66CB2760 
 916      50D9FC00 
 916      1210277A 
 916      43C2383E 
 917 1767 17B9D0AF 		.ascii	"\027\271\320\257\270\320\363\\\350\005.\364\"\027\032"
 917      B8D0F35C 
 917      E8052EF4 
 917      22171A
 918 1776 C1855E72 		.ascii	"\301\205^r\205\236\031\016\345\031.\030\202\257\347"
 918      859E190E 
 918      E5192E18 
 918      82AFE7
ARM GAS  /tmp/ccUx4H0Q.s 			page 73


 919 1785 3C857EE8 		.ascii	"<\205~\350\237\214\270\233 \204\340\273 \230-\204\334"
 919      9F8CB89B 
 919      2084E0BB 
 919      20982D84 
 919      DC
 920 1796 811C3E84 		.ascii	"\201\034>\204X\346\363\204\224\260\3706\037\314\035"
 920      58E6F384 
 920      94B0F836 
 920      1FCC1D
 921 17a5 974FD87D 		.ascii	"\227O\330}\341W*\273\270Y\350\207\016\301\334\274\\"
 921      E1572ABB 
 921      B859E887 
 921      0EC1DCBC 
 921      5C
 922 17b6 D12B8645 		.ascii	"\321+\206E^\004\245%\243\223#@|\271\033\264\222Q/8\227"
 922      5E04A525 
 922      A3932340 
 922      7CB91BB4 
 922      92512F38 
 923 17cb 2CE61564 		.ascii	",\346\025d\013"
 923      0B
 924 17d0 F8F7D820 		.ascii	"\370\367\330 ?.\234,\206\204\261a,4jx\362\302\343\340"
 924      3F2E9C2C 
 924      8684B161 
 924      2C346A78 
 924      F2C2E3E0 
 925 17e4 47287B12 		.ascii	"G({\0224\274\302\304\\1\000\335\223&\210\005Y\177,\034"
 925      34BCC2C4 
 925      5C3100DD 
 925      93268805 
 925      597F2C1C 
 926 17f8 44B40A1D 		.ascii	"D\264\012\035\205\220\220\037\000\030\317\004Q\014\025"
 926      8590901F 
 926      0018CF04 
 926      510C15
 927 1807 C279B073 		.ascii	"\302y\260s\241\027\224\235W\004:\263\364\341<q\"\362"
 927      A117949D 
 927      57043AB3 
 927      F4E13C71 
 927      22F2
 928 1819 B33CD99A 		.ascii	"\263<\331\232\360]0!\037\004\307\2040t\236l\246\011"
 928      F05D3021 
 928      1F04C784 
 928      30749E6C 
 928      A609
 929 182b 22F42B4C 		.ascii	"\"\364+L\025\306\013\371b\036\037~\033\316\010\023P"
 929      15C60BF9 
 929      621E1F7E 
 929      1BCE0813 
 929      50
 930 183c C355E82F 		.ascii	"\303U\350/JW\034\"\230\033\006'\034\240q\021t\304W\350"
 930      4A571C22 
 930      981B0627 
 930      1CA07111 
 930      74C457E8 
 931 1850 9FC0E78A 		.ascii	"\237\300\347\212\271\371\343@7 \007\036\310\203\233"
 931      B9F9E340 
ARM GAS  /tmp/ccUx4H0Q.s 			page 74


 931      3720071E 
 931      C8839B
 932 185f 70402814 		.ascii	"p@(\024\362\301\331\307A/\030\002\365OA\262\363Alt8"
 932      F2C1D9C7 
 932      412F1802 
 932      F54F41B2 
 932      F3416C74 
 933 1874 58585010 		.ascii	"XXP\020\374\251\225\004\"\012\302Abn\236\340\317\023"
 933      FCA99504 
 933      220AC241 
 933      626E9EE0 
 933      CF13
 934 1886 F8705148 		.ascii	"\370pQH\310\023Pd%\207D\034a\356,!\014\232)\010\205"
 934      C8135064 
 934      2587441C 
 934      61EE2C21 
 934      0C9A2908 
 935 189b 4577900F 		.ascii	"Ew\220\017\213IE\3700\233\357\015\211\230JL\011\024"
 935      8B4945F8 
 935      309BEF0D 
 935      89984A4C 
 935      0914
 936 18ad E5150579 		.ascii	"\345\025\005y1w\274@\014\023N&\356\355\011\373\2417"
 936      3177BC40 
 936      0C134E26 
 936      EEED09FB 
 936      A137
 937 18bf 78FD1821 		.ascii	"x\375\030!\3575A\034UP\004^\030\032\315\205\013\323"
 937      EF35411C 
 937      5550045E 
 937      181ACD85 
 937      0BD3
 938 18d1 F1B15701 		.ascii	"\361\261W\001\360\277@\272\321\006,\206C\001\244\340"
 938      F0BF40BA 
 938      D1062C86 
 938      4301A4E0 
 939 18e1 AC828910 		.ascii	"\254\202\211\020J\001\346)K3\310\275 v\363\370\334 "
 939      4A01E629 
 939      4B33C8BD 
 939      2076F3F8 
 939      DC20
 940 18f3 FC006FC9 		.ascii	"\374\000o\311\313\362g\025\215\005\343&AK,(\364\302"
 940      CBF26715 
 940      8D05E326 
 940      414B2C28 
 940      F4C2
 941 1905 D78450A1 		.ascii	"\327\204P\241\030B\215P64R\2401\266(\030\004s\247B\023"
 941      18428D50 
 941      363452A0 
 941      31B62818 
 941      0473A742 
 942 191a 8C2E4E82 		.ascii	"\214.N\2026\260\366\306o\376#\353\217B@\034\235\237"
 942      36B0F6C6 
 942      6FFE23EB 
 942      8F42401C 
 942      9D9F
 943 192c 2BBAF2B2 		.ascii	"+\272\362\262\012]\200\224\202\016\377V\010\013\342"
ARM GAS  /tmp/ccUx4H0Q.s 			page 75


 943      0A5D8094 
 943      820EFF56 
 943      080BE2
 944 193b 689FDAF4 		.ascii	"h\237\332\364\241`\307Z\300\307\336,\010\213c\\`\232"
 944      A160C75A 
 944      C0C7DE2C 
 944      088B635C 
 944      609A
 945 194d 6474B0A0 		.ascii	"dt\260\240H\364*G\325\323\243\323\225\326+9`\3441\017"
 945      48F42A47 
 945      D5D3A3D3 
 945      95D62B39 
 945      60E4310F 
 946 1961 E97EEA4F 		.ascii	"\351~\352O\216\306c\276*\210\240,7\240\026\372\324\337"
 946      8EC663BE 
 946      2A88A02C 
 946      37A016FA 
 946      D4DF
 947 1973 B133A39F 		.ascii	"\2613\243\237\264\322L\266\220U4\016e\"\177v\3268\177"
 947      B4D24CB6 
 947      9055340E 
 947      65227F76 
 947      D6387F
 948 1986 204708BC 		.ascii	" G\010\274\215\263\274%\021\266!\020=*[\023\325\220"
 948      8DB3BC25 
 948      11B62110 
 948      3D2A5B13 
 948      D590
 949 1998 0C887BF8 		.ascii	"\014\210{\370\003\241\\p\200\234l9\345\277\316\007\305"
 949      03A15C70 
 949      809C6C39 
 949      E5BFCE07 
 949      C5
 950 19a9 47D47E05 		.ascii	"G\324~\005\205q\335\006jF\226\247\023\360\207\177\311"
 950      8571DD06 
 950      6A4696A7 
 950      13F0877F 
 950      C9
 951 19ba 1A370A1D 		.ascii	"\0327\012\035\031\005.\025\036=\000;CL\345\251\370\267"
 951      19052E15 
 951      1E3D003B 
 951      434CE5A9 
 951      F8B7
 952 19cc AC6BE43C 		.ascii	"\254k\344<\201\034h\003BvQP\030\223\206O\216\201\024"
 952      811C6803 
 952      42765150 
 952      1893864F 
 952      8E8114
 953 19df C207470F 		.ascii	"\302\007G\017\304?\220\013\375\247\254\36014\370\230"
 953      C43F900B 
 953      FDA7ACF0 
 953      3134F898 
 954 19ef 5494B8C1 		.ascii	"T\224\270\301JB\236\234A\345v\032\212\260I$\346\300"
 954      4A429E9C 
 954      41E5761A 
 954      8AB04924 
 954      E6C0
ARM GAS  /tmp/ccUx4H0Q.s 			page 76


 955 1a01 06FED8EF 		.ascii	"\006\376\330\357\344\220\354\274I!\234:=!\234\323B$"
 955      E490ECBC 
 955      49219C3A 
 955      3D219CD3 
 955      4224
 956 1a13 A785E49C 		.ascii	"\247\205\344\234\346\203\243E!H\034\242'\204\210~0>"
 956      E683A345 
 956      21481CA2 
 956      2784887E 
 956      303E
 957 1a25 372416F1 		.ascii	"7$\026\361A?2|H\011\346\037\002\260\301\211\001\272"
 957      413F327C 
 957      4809E61F 
 957      02B0C189 
 957      01BA
 958 1a37 63F2B4A0 		.ascii	"c\362\264\240;\224<^\304\231\003}\243\014\357\205\357"
 958      3B943C5E 
 958      C499037D 
 958      A30CEF85 
 958      EF
 959 1a48 6C2128F2 		.ascii	"l!(\362\320\030[\224\037\360\3433\250\225\204z\360\241"
 959      D0185B94 
 959      1FF0E333 
 959      A895847A 
 959      F0A1
 960 1a5a 54F842D1 		.ascii	"T\370B\321\211\250\341\020\032$\235\010\215=@\316+\332"
 960      89A8E110 
 960      1A249D08 
 960      8D3D40CE 
 960      2BDA
 961 1a6c 23BE423E 		.ascii	"#\276B>?7\200\322Hrn8\204\302\324\213l\203\032\003Q"
 961      3F3780D2 
 961      48726E38 
 961      84C2D48B 
 961      6C831A03 
 962 1a81 0A0AF190 		.ascii	"\012\012\361\220\022\345\000\202\321\304,\1778\367\177"
 962      12E50082 
 962      D1C42C7F 
 962      38F77F
 963 1a90 85740432 		.ascii	"\205t\0042!\340\307\231\014\016\207\005\314\257\007"
 963      21E0C799 
 963      0C0E8705 
 963      CCAF07
 964 1a9f 7D17FAA0 		.ascii	"}\027\372\240\226s\253\027Z8A'\001\035\004\232OTb1M"
 964      9673AB17 
 964      5A384127 
 964      011D049A 
 964      4F546231 
 965 1ab4 8BEB02C7 		.ascii	"\213\353\002\307H\201\200\315\227\363]\206\230\347\017"
 965      488180CD 
 965      97F35D86 
 965      98E70F
 966 1ac3 C0DC9015 		.ascii	"\300\334\220\025\202\\R\000\023DR\301\330\261\340\002"
 966      825C5200 
 966      134452C1 
 966      D8B1E002 
 967 1ad3 9C9897FE 		.ascii	"\234\230\227\376\266\020\312\027\202\304\315DO\276?"
ARM GAS  /tmp/ccUx4H0Q.s 			page 77


 967      B610CA17 
 967      82C4CD44 
 967      4FBE3F
 968 1ae2 37F4276F 		.ascii	"7\364'o>2\014\260\223\222\247:\233\322\004\221\322\264"
 968      3E320CB0 
 968      9392A73A 
 968      9BD20491 
 968      D2B4
 969 1af4 34E9B9D9 		.ascii	"4\351\271\331A\201\344U\310\247\\ \307\353\307\372\363"
 969      4181E455 
 969      C8A75C20 
 969      C7EBC7FA 
 969      F3
 970 1b05 FB1F521A 		.ascii	"\373\037R\032O?\377\3223\317\247iV/L\354\324\013/<\363"
 970      4F3FFFD2 
 970      33CFA769 
 970      562F4CEC 
 970      D40B2F3C 
 971 1b1a FC007D5E 		.ascii	"\374\000}^\320\235}\366\331\324Xz\320\235y\356\371\024"
 971      D09D7DF6 
 971      D9D4587A 
 971      D09D79EE 
 971      F914
 972 1b2c 3533E84E 		.ascii	"53\350N\374j\270zBO\361\374s\003\364)B\177v\204\376"
 972      FC6AB87A 
 972      424FF1FC 
 972      7303F429 
 972      427F7684 
 973 1b41 AC9EF6C5 		.ascii	"\254\236\366\305gRc)C\177\346\205\330\231\321\3140*"
 973      67526329 
 973      437FE685 
 973      D899D1CC 
 973      302A
 974 1b53 FCC1D786 		.ascii	"\374\301\327\206\215zc\314\3501\261,\200V=\201\274W"
 974      8D7A63CC 
 974      E831B12C 
 974      80563D81 
 974      BC57
 975 1b65 811E3201 		.ascii	"\201\0362\001 \201d\376\337\2742\346_\337\374\355\350"
 975      208164FE 
 975      DFBC32E6 
 975      5FDFFCED 
 975      E8
 976 1b76 87F8E004 		.ascii	"\207\370\340\004~R\030\226\007AXAy\306\363\301\"\341"
 976      7E521896 
 976      07415841 
 976      79C6F3C1 
 976      22E1
 977 1b88 FF003399 		.ascii	"\377\0003\231\033\021"
 977      1B11
 978              		.text
 979              		.section	.gnu.lto_.symtab.1f3e49778d43deae,"",%progbits
 980 0000 63684D42 		.ascii	"chMBObjectInit\000\000\000\000\000\000\000\000\000\000"
 980      4F626A65 
 980      6374496E 
 980      69740000 
 980      00000000 
ARM GAS  /tmp/ccUx4H0Q.s 			page 78


 981 0018 00009401 		.ascii	"\000\000\224\001\000\000chMBResetI\000\000\000\000\000"
 981      00006368 
 981      4D425265 
 981      73657449 
 981      00000000 
 982 002d 00000000 		.ascii	"\000\000\000\000\000\000\000\263\001\000\000chMBRes"
 982      000000B3 
 982      01000063 
 982      684D4252 
 982      6573
 983 003f 65740000 		.ascii	"et\000\000\000\000\000\000\000\000\000\000\000\000\271"
 983      00000000 
 983      00000000 
 983      0000B9
 984 004e 01000063 		.ascii	"\001\000\000chMBPostS\000\000\000\000\000\000\000\000"
 984      684D4250 
 984      6F737453 
 984      00000000 
 984      00000000 
 985 0062 00000000 		.ascii	"\000\000\000\000\275\001\000\000chMBPost\000\000\000"
 985      BD010000 
 985      63684D42 
 985      506F7374 
 985      000000
 986 0075 00000000 		.ascii	"\000\000\000\000\000\000\000\000\000\314\001\000\000"
 986      00000000 
 986      00CC0100 
 986      00
 987 0082 63684D42 		.ascii	"chMBPostI\000\000\000\000\000\000\000\000\000\000\000"
 987      506F7374 
 987      49000000 
 987      00000000 
 987      00000000 
 988 0096 00D20100 		.ascii	"\000\322\001\000\000chMBPostAheadS\000\000\000\000\000"
 988      0063684D 
 988      42506F73 
 988      74416865 
 988      61645300 
 989 00ae 00000000 		.ascii	"\000\000\000\000\000\000\000\332\001\000\000chMBPos"
 989      000000DA 
 989      01000063 
 989      684D4250 
 989      6F73
 990 00c0 74416865 		.ascii	"tAhead\000\000\000\000\000\000\000\000\000\000\000\000"
 990      61640000 
 990      00000000 
 990      00000000 
 990      0000
 991 00d2 E0010000 		.ascii	"\340\001\000\000chMBPostAheadI\000\000\000\000\000\000"
 991      63684D42 
 991      506F7374 
 991      41686561 
 991      64490000 
 992 00ea 00000000 		.ascii	"\000\000\000\000\000\000\346\001\000\000chMBFetchS\000"
 992      0000E601 
 992      00006368 
 992      4D424665 
ARM GAS  /tmp/ccUx4H0Q.s 			page 79


 992      74636853 
 993 00ff 00000000 		.ascii	"\000\000\000\000\000\000\000\000\000\000\000\353\001"
 993      00000000 
 993      000000EB 
 993      01
 994 010c 00006368 		.ascii	"\000\000chMBFetch\000\000\000\000\000\000\000\000\000"
 994      4D424665 
 994      74636800 
 994      00000000 
 994      00000000 
 995 0120 000000F6 		.ascii	"\000\000\000\366\001\000\000chMBFetchI\000\000\000\000"
 995      01000063 
 995      684D4246 
 995      65746368 
 995      49000000 
 996 0135 00000000 		.ascii	"\000\000\000\000\000\000\000\000\374\001\000\000ch\000"
 996      00000000 
 996      FC010000 
 996      636800
 997 0144 00020000 		.ascii	"\000\002\000\000\000\000\000\000\000\000\000$\002\000"
 997      00000000 
 997      00000024 
 997      0200
 998 0152 005F6462 		.ascii	"\000_dbg_check_lock\000\000\002\000\000\000\000\000"
 998      675F6368 
 998      65636B5F 
 998      6C6F636B 
 998      00000200 
 999 016a 00000000 		.ascii	"\000\000\000\000\004\002\000\000_stats_start_measur"
 999      04020000 
 999      5F737461 
 999      74735F73 
 999      74617274 
 1000 0185 655F6372 		.ascii	"e_crit_thd\000\000\002\000\000\000\000\000\000\000\000"
 1000      69745F74 
 1000      68640000 
 1000      02000000 
 1000      00000000 
 1001 019a 00060200 		.ascii	"\000\006\002\000\000chSysHalt\000\000\002\000\000\000"
 1001      00636853 
 1001      79734861 
 1001      6C740000 
 1001      02000000 
 1002 01ae 00000000 		.ascii	"\000\000\000\000\000\000\010\002\000\000_stats_stop"
 1002      00000802 
 1002      00005F73 
 1002      74617473 
 1002      5F73746F 
 1003 01c3 5F6D6561 		.ascii	"_measure_crit_thd\000\000\002\000\000\000\000\000\000"
 1003      73757265 
 1003      5F637269 
 1003      745F7468 
 1003      64000002 
 1004 01dd 0000000C 		.ascii	"\000\000\000\014\002\000\000_dbg_check_unlock\000\000"
 1004      0200005F 
 1004      6462675F 
 1004      63686563 
ARM GAS  /tmp/ccUx4H0Q.s 			page 80


 1004      6B5F756E 
 1005 01f7 02000000 		.ascii	"\002\000\000\000\000\000\000\000\000\000\016\002\000"
 1005      00000000 
 1005      00000E02 
 1005      00
 1006 0204 00636844 		.ascii	"\000chDbgCheckClassI\000\000\002\000\000\000\000\000"
 1006      62674368 
 1006      65636B43 
 1006      6C617373 
 1006      49000002 
 1007 021d 00000000 		.ascii	"\000\000\000\000\020\002\000\000chSemObjectInit\000"
 1007      10020000 
 1007      63685365 
 1007      6D4F626A 
 1007      65637449 
 1008 0235 00020000 		.ascii	"\000\002\000\000\000\000\000\000\000\000\000\022\002"
 1008      00000000 
 1008      00000012 
 1008      02
 1009 0242 00006368 		.ascii	"\000\000chSemResetI\000\000\002\000\000\000\000\000"
 1009      53656D52 
 1009      65736574 
 1009      49000002 
 1009      00000000 
 1010 0257 00000000 		.ascii	"\000\000\000\000\027\002\000\000chSchRescheduleS\000"
 1010      17020000 
 1010      63685363 
 1010      68526573 
 1010      63686564 
 1011 0270 00020000 		.ascii	"\000\002\000\000\000\000\000\000\000\000\000\031\002"
 1011      00000000 
 1011      00000019 
 1011      02
 1012 027d 00006368 		.ascii	"\000\000chSemSignalI\000\000\002\000\000\000\000\000"
 1012      53656D53 
 1012      69676E61 
 1012      6C490000 
 1012      02000000 
 1013 0293 00000000 		.ascii	"\000\000\000\000\033\002\000\000chSemWaitTimeoutS\000"
 1013      1B020000 
 1013      63685365 
 1013      6D576169 
 1013      7454696D 
 1014 02ad 00020000 		.ascii	"\000\002\000\000\000\000\000\000\000\000\000\035\002"
 1014      00000000 
 1014      0000001D 
 1014      02
 1015 02ba 00006368 		.ascii	"\000\000chDbgCheckClassS\000\000\002\000\000\000\000"
 1015      44626743 
 1015      6865636B 
 1015      436C6173 
 1015      73530000 
 1016 02d3 00000000 		.ascii	"\000\000\000\000\000\"\002\000\000"
 1016      00220200 
 1016      00
 1017              		.text
 1018              		.section	.gnu.lto_.opts,"",%progbits
ARM GAS  /tmp/ccUx4H0Q.s 			page 81


 1019 0000 272D6D63 		.ascii	"'-mcpu=cortex-m4' '-mno-thumb-interwork' '-mthumb' "
 1019      70753D63 
 1019      6F727465 
 1019      782D6D34 
 1019      2720272D 
 1020 0033 272D6767 		.ascii	"'-ggdb' '-O0' '-fomit-frame-pointer' '-falign-funct"
 1020      64622720 
 1020      272D4F30 
 1020      2720272D 
 1020      666F6D69 
 1021 0066 696F6E73 		.ascii	"ions=16' '-ffunction-sections' '-fdata-sections' '-"
 1021      3D313627 
 1021      20272D66 
 1021      66756E63 
 1021      74696F6E 
 1022 0099 666E6F2D 		.ascii	"fno-common' '-flto'\000"
 1022      636F6D6D 
 1022      6F6E2720 
 1022      272D666C 
 1022      746F2700 
 1023              		.text
 1024              		.cfi_sections	.debug_frame
 1025              		.section	.text.port_lock,"ax",%progbits
 1026              		.align	2
 1027              		.p2align 4,,15
 1028              		.thumb
 1029              		.thumb_func
 1030              		.type	port_lock, %function
 1031              	port_lock:
 1032              	.LFB127:
 1033              		.file 1 "../../../../os/rt/ports/ARMCMx/chcore_v7m.h"
 1034              		.loc 1 456 0
 1035              		.cfi_startproc
 1036              		@ args = 0, pretend = 0, frame = 8
 1037              		@ frame_needed = 0, uses_anonymous_args = 0
 1038              		@ link register save eliminated.
 1039 0000 82B0     		sub	sp, sp, #8
 1040              		.cfi_def_cfa_offset 8
 1041 0002 2023     		movs	r3, #32
 1042 0004 0193     		str	r3, [sp, #4]
 1043              	.LBB6:
 1044              	.LBB7:
 1045              		.file 2 "../../../../os/ext/CMSIS/include/core_cmFunc.h"
 1046              		.loc 2 548 0
 1047 0006 019B     		ldr	r3, [sp, #4]
 1048              	@ 548 "../../../../os/ext/CMSIS/include/core_cmFunc.h" 1
 1049 0008 83F31188 		MSR basepri, r3
 1050              	@ 0 "" 2
 1051              		.thumb
 1052              	.LBE7:
 1053              	.LBE6:
 1054              		.loc 1 473 0
 1055 000c 02B0     		add	sp, sp, #8
 1056              		@ sp needed
 1057 000e 7047     		bx	lr
 1058              		.cfi_endproc
 1059              	.LFE127:
ARM GAS  /tmp/ccUx4H0Q.s 			page 82


 1060              		.size	port_lock, .-port_lock
 1061              		.section	.text.port_unlock,"ax",%progbits
 1062              		.align	2
 1063              		.p2align 4,,15
 1064              		.thumb
 1065              		.thumb_func
 1066              		.type	port_unlock, %function
 1067              	port_unlock:
 1068              	.LFB128:
 1069              		.loc 1 480 0
 1070              		.cfi_startproc
 1071              		@ args = 0, pretend = 0, frame = 8
 1072              		@ frame_needed = 0, uses_anonymous_args = 0
 1073              		@ link register save eliminated.
 1074 0000 82B0     		sub	sp, sp, #8
 1075              		.cfi_def_cfa_offset 8
 1076 0002 0023     		movs	r3, #0
 1077 0004 0193     		str	r3, [sp, #4]
 1078              	.LBB8:
 1079              	.LBB9:
 1080              		.loc 2 548 0
 1081 0006 019B     		ldr	r3, [sp, #4]
 1082              	@ 548 "../../../../os/ext/CMSIS/include/core_cmFunc.h" 1
 1083 0008 83F31188 		MSR basepri, r3
 1084              	@ 0 "" 2
 1085              		.thumb
 1086              	.LBE9:
 1087              	.LBE8:
 1088              		.loc 1 487 0
 1089 000c 02B0     		add	sp, sp, #8
 1090              		@ sp needed
 1091 000e 7047     		bx	lr
 1092              		.cfi_endproc
 1093              	.LFE128:
 1094              		.size	port_unlock, .-port_unlock
 1095              		.section	.text.chSysLock,"ax",%progbits
 1096              		.align	2
 1097              		.p2align 4,,15
 1098              		.thumb
 1099              		.thumb_func
 1100              		.type	chSysLock, %function
 1101              	chSysLock:
 1102              	.LFB167:
 1103              		.file 3 "../../../../os/rt/include/chsys.h"
 1104              		.loc 3 346 0
 1105              		.cfi_startproc
 1106              		@ args = 0, pretend = 0, frame = 0
 1107              		@ frame_needed = 0, uses_anonymous_args = 0
 1108 0000 08B5     		push	{r3, lr}
 1109              		.cfi_def_cfa_offset 8
 1110              		.cfi_offset 3, -8
 1111              		.cfi_offset 14, -4
 1112              		.loc 3 348 0
 1113 0002 FFF7FEFF 		bl	port_lock
 1114              		.loc 3 349 0
 1115 0006 FFF7FEFF 		bl	_stats_start_measure_crit_thd
 1116              		.loc 3 350 0
ARM GAS  /tmp/ccUx4H0Q.s 			page 83


 1117 000a FFF7FEFF 		bl	_dbg_check_lock
 1118              		.loc 3 351 0
 1119 000e 08BD     		pop	{r3, pc}
 1120              		.cfi_endproc
 1121              	.LFE167:
 1122              		.size	chSysLock, .-chSysLock
 1123              		.section	.text.chSysUnlock,"ax",%progbits
 1124              		.align	2
 1125              		.p2align 4,,15
 1126              		.thumb
 1127              		.thumb_func
 1128              		.type	chSysUnlock, %function
 1129              	chSysUnlock:
 1130              	.LFB168:
 1131              		.loc 3 358 0
 1132              		.cfi_startproc
 1133              		@ args = 0, pretend = 0, frame = 0
 1134              		@ frame_needed = 0, uses_anonymous_args = 0
 1135 0000 08B5     		push	{r3, lr}
 1136              		.cfi_def_cfa_offset 8
 1137              		.cfi_offset 3, -8
 1138              		.cfi_offset 14, -4
 1139              		.loc 3 360 0
 1140 0002 FFF7FEFF 		bl	_dbg_check_unlock
 1141              		.loc 3 361 0
 1142 0006 FFF7FEFF 		bl	_stats_stop_measure_crit_thd
 1143              		.loc 3 367 0
 1144 000a 40F20003 		movw	r3, #:lower16:ch
 1145 000e C0F20003 		movt	r3, #:upper16:ch
 1146 0012 1A68     		ldr	r2, [r3]
 1147 0014 40F20003 		movw	r3, #:lower16:ch
 1148 0018 C0F20003 		movt	r3, #:upper16:ch
 1149 001c 9A42     		cmp	r2, r3
 1150 001e 13D0     		beq	.L5
 1151              		.loc 3 367 0 is_stmt 0 discriminator 1
 1152 0020 40F20003 		movw	r3, #:lower16:ch
 1153 0024 C0F20003 		movt	r3, #:upper16:ch
 1154 0028 9B69     		ldr	r3, [r3, #24]
 1155 002a 9A68     		ldr	r2, [r3, #8]
 1156 002c 40F20003 		movw	r3, #:lower16:ch
 1157 0030 C0F20003 		movt	r3, #:upper16:ch
 1158 0034 1B68     		ldr	r3, [r3]
 1159 0036 9B68     		ldr	r3, [r3, #8]
 1160 0038 9A42     		cmp	r2, r3
 1161 003a 05D2     		bcs	.L5
 1162 003c 40F20000 		movw	r0, #:lower16:__func__.5915
 1163 0040 C0F20000 		movt	r0, #:upper16:__func__.5915
 1164 0044 FFF7FEFF 		bl	chSysHalt
 1165              	.L5:
 1166              		.loc 3 371 0 is_stmt 1
 1167 0048 FFF7FEFF 		bl	port_unlock
 1168              		.loc 3 372 0
 1169 004c 08BD     		pop	{r3, pc}
 1170              		.cfi_endproc
 1171              	.LFE168:
 1172              		.size	chSysUnlock, .-chSysUnlock
 1173 004e 00BF     		.section	.text.chSemFastWaitI,"ax",%progbits
ARM GAS  /tmp/ccUx4H0Q.s 			page 84


 1174              		.align	2
 1175              		.p2align 4,,15
 1176              		.thumb
 1177              		.thumb_func
 1178              		.type	chSemFastWaitI, %function
 1179              	chSemFastWaitI:
 1180              	.LFB201:
 1181              		.file 4 "../../../../os/rt/include/chsem.h"
 1182              		.loc 4 118 0
 1183              		.cfi_startproc
 1184              		@ args = 0, pretend = 0, frame = 8
 1185              		@ frame_needed = 0, uses_anonymous_args = 0
 1186 0000 00B5     		push	{lr}
 1187              		.cfi_def_cfa_offset 4
 1188              		.cfi_offset 14, -4
 1189 0002 83B0     		sub	sp, sp, #12
 1190              		.cfi_def_cfa_offset 16
 1191 0004 0190     		str	r0, [sp, #4]
 1192              		.loc 4 120 0
 1193 0006 FFF7FEFF 		bl	chDbgCheckClassI
 1194              		.loc 4 122 0
 1195 000a 019B     		ldr	r3, [sp, #4]
 1196 000c 9B68     		ldr	r3, [r3, #8]
 1197 000e 5A1E     		subs	r2, r3, #1
 1198 0010 019B     		ldr	r3, [sp, #4]
 1199 0012 9A60     		str	r2, [r3, #8]
 1200              		.loc 4 123 0
 1201 0014 03B0     		add	sp, sp, #12
 1202              		@ sp needed
 1203 0016 5DF804FB 		ldr	pc, [sp], #4
 1204              		.cfi_endproc
 1205              	.LFE201:
 1206              		.size	chSemFastWaitI, .-chSemFastWaitI
 1207 001a 00BFAFF3 		.section	.text.chSemGetCounterI,"ax",%progbits
 1207      0080
 1208              		.align	2
 1209              		.p2align 4,,15
 1210              		.thumb
 1211              		.thumb_func
 1212              		.type	chSemGetCounterI, %function
 1213              	chSemGetCounterI:
 1214              	.LFB203:
 1215              		.loc 4 149 0
 1216              		.cfi_startproc
 1217              		@ args = 0, pretend = 0, frame = 8
 1218              		@ frame_needed = 0, uses_anonymous_args = 0
 1219 0000 00B5     		push	{lr}
 1220              		.cfi_def_cfa_offset 4
 1221              		.cfi_offset 14, -4
 1222 0002 83B0     		sub	sp, sp, #12
 1223              		.cfi_def_cfa_offset 16
 1224 0004 0190     		str	r0, [sp, #4]
 1225              		.loc 4 151 0
 1226 0006 FFF7FEFF 		bl	chDbgCheckClassI
 1227              		.loc 4 153 0
 1228 000a 019B     		ldr	r3, [sp, #4]
 1229 000c 9B68     		ldr	r3, [r3, #8]
ARM GAS  /tmp/ccUx4H0Q.s 			page 85


 1230              		.loc 4 154 0
 1231 000e 1846     		mov	r0, r3
 1232 0010 03B0     		add	sp, sp, #12
 1233              		@ sp needed
 1234 0012 5DF804FB 		ldr	pc, [sp], #4
 1235              		.cfi_endproc
 1236              	.LFE203:
 1237              		.size	chSemGetCounterI, .-chSemGetCounterI
 1238 0016 00BFAFF3 		.section	.text.chMBObjectInit,"ax",%progbits
 1238      0080AFF3 
 1238      0080
 1239              		.align	2
 1240              		.p2align 4,,15
 1241              		.global	chMBObjectInit
 1242              		.thumb
 1243              		.thumb_func
 1244              		.type	chMBObjectInit, %function
 1245              	chMBObjectInit:
 1246              	.LFB241:
 1247              		.file 5 "../../../../os/rt/src/chmboxes.c"
 1248              		.loc 5 86 0
 1249              		.cfi_startproc
 1250              		@ args = 0, pretend = 0, frame = 16
 1251              		@ frame_needed = 0, uses_anonymous_args = 0
 1252 0000 00B5     		push	{lr}
 1253              		.cfi_def_cfa_offset 4
 1254              		.cfi_offset 14, -4
 1255 0002 85B0     		sub	sp, sp, #20
 1256              		.cfi_def_cfa_offset 24
 1257 0004 0390     		str	r0, [sp, #12]
 1258 0006 0291     		str	r1, [sp, #8]
 1259 0008 0192     		str	r2, [sp, #4]
 1260              		.loc 5 88 0
 1261 000a 039B     		ldr	r3, [sp, #12]
 1262 000c 002B     		cmp	r3, #0
 1263 000e 05D0     		beq	.L10
 1264              		.loc 5 88 0 is_stmt 0 discriminator 2
 1265 0010 029B     		ldr	r3, [sp, #8]
 1266 0012 002B     		cmp	r3, #0
 1267 0014 02D0     		beq	.L10
 1268              		.loc 5 88 0 discriminator 1
 1269 0016 019B     		ldr	r3, [sp, #4]
 1270 0018 002B     		cmp	r3, #0
 1271 001a 05DC     		bgt	.L11
 1272              	.L10:
 1273 001c 40F20000 		movw	r0, #:lower16:__func__.6615
 1274 0020 C0F20000 		movt	r0, #:upper16:__func__.6615
 1275 0024 FFF7FEFF 		bl	chSysHalt
 1276              	.L11:
 1277              		.loc 5 90 0 is_stmt 1
 1278 0028 039B     		ldr	r3, [sp, #12]
 1279 002a 029A     		ldr	r2, [sp, #8]
 1280 002c 1A60     		str	r2, [r3]
 1281              		.loc 5 91 0
 1282 002e 039B     		ldr	r3, [sp, #12]
 1283 0030 029A     		ldr	r2, [sp, #8]
 1284 0032 DA60     		str	r2, [r3, #12]
ARM GAS  /tmp/ccUx4H0Q.s 			page 86


 1285              		.loc 5 92 0
 1286 0034 039B     		ldr	r3, [sp, #12]
 1287 0036 029A     		ldr	r2, [sp, #8]
 1288 0038 9A60     		str	r2, [r3, #8]
 1289              		.loc 5 93 0
 1290 003a 019B     		ldr	r3, [sp, #4]
 1291 003c 9B00     		lsls	r3, r3, #2
 1292 003e 029A     		ldr	r2, [sp, #8]
 1293 0040 1A44     		add	r2, r2, r3
 1294 0042 039B     		ldr	r3, [sp, #12]
 1295 0044 5A60     		str	r2, [r3, #4]
 1296              		.loc 5 94 0
 1297 0046 039B     		ldr	r3, [sp, #12]
 1298 0048 1C33     		adds	r3, r3, #28
 1299 004a 1846     		mov	r0, r3
 1300 004c 0199     		ldr	r1, [sp, #4]
 1301 004e FFF7FEFF 		bl	chSemObjectInit
 1302              		.loc 5 95 0
 1303 0052 039B     		ldr	r3, [sp, #12]
 1304 0054 1033     		adds	r3, r3, #16
 1305 0056 1846     		mov	r0, r3
 1306 0058 0021     		movs	r1, #0
 1307 005a FFF7FEFF 		bl	chSemObjectInit
 1308              		.loc 5 96 0
 1309 005e 05B0     		add	sp, sp, #20
 1310              		@ sp needed
 1311 0060 5DF804FB 		ldr	pc, [sp], #4
 1312              		.cfi_endproc
 1313              	.LFE241:
 1314              		.size	chMBObjectInit, .-chMBObjectInit
 1315 0064 AFF30080 		.section	.text.chMBReset,"ax",%progbits
 1315      AFF30080 
 1315      AFF30080 
 1316              		.align	2
 1317              		.p2align 4,,15
 1318              		.global	chMBReset
 1319              		.thumb
 1320              		.thumb_func
 1321              		.type	chMBReset, %function
 1322              	chMBReset:
 1323              	.LFB242:
 1324              		.loc 5 107 0
 1325              		.cfi_startproc
 1326              		@ args = 0, pretend = 0, frame = 8
 1327              		@ frame_needed = 0, uses_anonymous_args = 0
 1328 0000 00B5     		push	{lr}
 1329              		.cfi_def_cfa_offset 4
 1330              		.cfi_offset 14, -4
 1331 0002 83B0     		sub	sp, sp, #12
 1332              		.cfi_def_cfa_offset 16
 1333 0004 0190     		str	r0, [sp, #4]
 1334              		.loc 5 109 0
 1335 0006 FFF7FEFF 		bl	chSysLock
 1336              		.loc 5 110 0
 1337 000a 0198     		ldr	r0, [sp, #4]
 1338 000c FFF7FEFF 		bl	chMBResetI
 1339              		.loc 5 111 0
ARM GAS  /tmp/ccUx4H0Q.s 			page 87


 1340 0010 FFF7FEFF 		bl	chSchRescheduleS
 1341              		.loc 5 112 0
 1342 0014 FFF7FEFF 		bl	chSysUnlock
 1343              		.loc 5 113 0
 1344 0018 03B0     		add	sp, sp, #12
 1345              		@ sp needed
 1346 001a 5DF804FB 		ldr	pc, [sp], #4
 1347              		.cfi_endproc
 1348              	.LFE242:
 1349              		.size	chMBReset, .-chMBReset
 1350 001e 00BF     		.section	.text.chMBResetI,"ax",%progbits
 1351              		.align	2
 1352              		.p2align 4,,15
 1353              		.global	chMBResetI
 1354              		.thumb
 1355              		.thumb_func
 1356              		.type	chMBResetI, %function
 1357              	chMBResetI:
 1358              	.LFB243:
 1359              		.loc 5 124 0
 1360              		.cfi_startproc
 1361              		@ args = 0, pretend = 0, frame = 8
 1362              		@ frame_needed = 0, uses_anonymous_args = 0
 1363 0000 00B5     		push	{lr}
 1364              		.cfi_def_cfa_offset 4
 1365              		.cfi_offset 14, -4
 1366 0002 83B0     		sub	sp, sp, #12
 1367              		.cfi_def_cfa_offset 16
 1368 0004 0190     		str	r0, [sp, #4]
 1369              		.loc 5 126 0
 1370 0006 FFF7FEFF 		bl	chDbgCheckClassI
 1371              		.loc 5 127 0
 1372 000a 019B     		ldr	r3, [sp, #4]
 1373 000c 002B     		cmp	r3, #0
 1374 000e 05D1     		bne	.L14
 1375              		.loc 5 127 0 is_stmt 0 discriminator 1
 1376 0010 40F20000 		movw	r0, #:lower16:__func__.6622
 1377 0014 C0F20000 		movt	r0, #:upper16:__func__.6622
 1378 0018 FFF7FEFF 		bl	chSysHalt
 1379              	.L14:
 1380              		.loc 5 129 0 is_stmt 1
 1381 001c 019B     		ldr	r3, [sp, #4]
 1382 001e 1A68     		ldr	r2, [r3]
 1383 0020 019B     		ldr	r3, [sp, #4]
 1384 0022 9A60     		str	r2, [r3, #8]
 1385              		.loc 5 130 0
 1386 0024 019B     		ldr	r3, [sp, #4]
 1387 0026 1A68     		ldr	r2, [r3]
 1388 0028 019B     		ldr	r3, [sp, #4]
 1389 002a DA60     		str	r2, [r3, #12]
 1390              		.loc 5 131 0
 1391 002c 019B     		ldr	r3, [sp, #4]
 1392 002e 03F11C02 		add	r2, r3, #28
 1393 0032 019B     		ldr	r3, [sp, #4]
 1394 0034 5B68     		ldr	r3, [r3, #4]
 1395 0036 1946     		mov	r1, r3
 1396 0038 019B     		ldr	r3, [sp, #4]
ARM GAS  /tmp/ccUx4H0Q.s 			page 88


 1397 003a 1B68     		ldr	r3, [r3]
 1398 003c CB1A     		subs	r3, r1, r3
 1399 003e 9B10     		asrs	r3, r3, #2
 1400 0040 1046     		mov	r0, r2
 1401 0042 1946     		mov	r1, r3
 1402 0044 FFF7FEFF 		bl	chSemResetI
 1403              		.loc 5 132 0
 1404 0048 019B     		ldr	r3, [sp, #4]
 1405 004a 1033     		adds	r3, r3, #16
 1406 004c 1846     		mov	r0, r3
 1407 004e 0021     		movs	r1, #0
 1408 0050 FFF7FEFF 		bl	chSemResetI
 1409              		.loc 5 133 0
 1410 0054 03B0     		add	sp, sp, #12
 1411              		@ sp needed
 1412 0056 5DF804FB 		ldr	pc, [sp], #4
 1413              		.cfi_endproc
 1414              	.LFE243:
 1415              		.size	chMBResetI, .-chMBResetI
 1416 005a 00BFAFF3 		.section	.text.chMBPost,"ax",%progbits
 1416      0080
 1417              		.align	2
 1418              		.p2align 4,,15
 1419              		.global	chMBPost
 1420              		.thumb
 1421              		.thumb_func
 1422              		.type	chMBPost, %function
 1423              	chMBPost:
 1424              	.LFB244:
 1425              		.loc 5 154 0
 1426              		.cfi_startproc
 1427              		@ args = 0, pretend = 0, frame = 24
 1428              		@ frame_needed = 0, uses_anonymous_args = 0
 1429 0000 00B5     		push	{lr}
 1430              		.cfi_def_cfa_offset 4
 1431              		.cfi_offset 14, -4
 1432 0002 87B0     		sub	sp, sp, #28
 1433              		.cfi_def_cfa_offset 32
 1434 0004 0390     		str	r0, [sp, #12]
 1435 0006 0291     		str	r1, [sp, #8]
 1436 0008 0192     		str	r2, [sp, #4]
 1437              		.loc 5 157 0
 1438 000a FFF7FEFF 		bl	chSysLock
 1439              		.loc 5 158 0
 1440 000e 0398     		ldr	r0, [sp, #12]
 1441 0010 0299     		ldr	r1, [sp, #8]
 1442 0012 019A     		ldr	r2, [sp, #4]
 1443 0014 FFF7FEFF 		bl	chMBPostS
 1444 0018 0590     		str	r0, [sp, #20]
 1445              		.loc 5 159 0
 1446 001a FFF7FEFF 		bl	chSysUnlock
 1447              		.loc 5 161 0
 1448 001e 059B     		ldr	r3, [sp, #20]
 1449              		.loc 5 162 0
 1450 0020 1846     		mov	r0, r3
 1451 0022 07B0     		add	sp, sp, #28
 1452              		@ sp needed
ARM GAS  /tmp/ccUx4H0Q.s 			page 89


 1453 0024 5DF804FB 		ldr	pc, [sp], #4
 1454              		.cfi_endproc
 1455              	.LFE244:
 1456              		.size	chMBPost, .-chMBPost
 1457 0028 AFF30080 		.section	.text.chMBPostS,"ax",%progbits
 1457      AFF30080 
 1458              		.align	2
 1459              		.p2align 4,,15
 1460              		.global	chMBPostS
 1461              		.thumb
 1462              		.thumb_func
 1463              		.type	chMBPostS, %function
 1464              	chMBPostS:
 1465              	.LFB245:
 1466              		.loc 5 183 0
 1467              		.cfi_startproc
 1468              		@ args = 0, pretend = 0, frame = 24
 1469              		@ frame_needed = 0, uses_anonymous_args = 0
 1470 0000 00B5     		push	{lr}
 1471              		.cfi_def_cfa_offset 4
 1472              		.cfi_offset 14, -4
 1473 0002 87B0     		sub	sp, sp, #28
 1474              		.cfi_def_cfa_offset 32
 1475 0004 0390     		str	r0, [sp, #12]
 1476 0006 0291     		str	r1, [sp, #8]
 1477 0008 0192     		str	r2, [sp, #4]
 1478              		.loc 5 186 0
 1479 000a FFF7FEFF 		bl	chDbgCheckClassS
 1480              		.loc 5 187 0
 1481 000e 039B     		ldr	r3, [sp, #12]
 1482 0010 002B     		cmp	r3, #0
 1483 0012 05D1     		bne	.L18
 1484              		.loc 5 187 0 is_stmt 0 discriminator 1
 1485 0014 40F20000 		movw	r0, #:lower16:__func__.6635
 1486 0018 C0F20000 		movt	r0, #:upper16:__func__.6635
 1487 001c FFF7FEFF 		bl	chSysHalt
 1488              	.L18:
 1489              		.loc 5 189 0 is_stmt 1
 1490 0020 039B     		ldr	r3, [sp, #12]
 1491 0022 1C33     		adds	r3, r3, #28
 1492 0024 1846     		mov	r0, r3
 1493 0026 0199     		ldr	r1, [sp, #4]
 1494 0028 FFF7FEFF 		bl	chSemWaitTimeoutS
 1495 002c 0590     		str	r0, [sp, #20]
 1496              		.loc 5 190 0
 1497 002e 059B     		ldr	r3, [sp, #20]
 1498 0030 002B     		cmp	r3, #0
 1499 0032 17D1     		bne	.L19
 1500              		.loc 5 191 0
 1501 0034 039B     		ldr	r3, [sp, #12]
 1502 0036 9B68     		ldr	r3, [r3, #8]
 1503 0038 191D     		adds	r1, r3, #4
 1504 003a 039A     		ldr	r2, [sp, #12]
 1505 003c 9160     		str	r1, [r2, #8]
 1506 003e 029A     		ldr	r2, [sp, #8]
 1507 0040 1A60     		str	r2, [r3]
 1508              		.loc 5 192 0
ARM GAS  /tmp/ccUx4H0Q.s 			page 90


 1509 0042 039B     		ldr	r3, [sp, #12]
 1510 0044 9A68     		ldr	r2, [r3, #8]
 1511 0046 039B     		ldr	r3, [sp, #12]
 1512 0048 5B68     		ldr	r3, [r3, #4]
 1513 004a 9A42     		cmp	r2, r3
 1514 004c 03D3     		bcc	.L20
 1515              		.loc 5 193 0
 1516 004e 039B     		ldr	r3, [sp, #12]
 1517 0050 1A68     		ldr	r2, [r3]
 1518 0052 039B     		ldr	r3, [sp, #12]
 1519 0054 9A60     		str	r2, [r3, #8]
 1520              	.L20:
 1521              		.loc 5 195 0
 1522 0056 039B     		ldr	r3, [sp, #12]
 1523 0058 1033     		adds	r3, r3, #16
 1524 005a 1846     		mov	r0, r3
 1525 005c FFF7FEFF 		bl	chSemSignalI
 1526              		.loc 5 196 0
 1527 0060 FFF7FEFF 		bl	chSchRescheduleS
 1528              	.L19:
 1529              		.loc 5 199 0
 1530 0064 059B     		ldr	r3, [sp, #20]
 1531              		.loc 5 200 0
 1532 0066 1846     		mov	r0, r3
 1533 0068 07B0     		add	sp, sp, #28
 1534              		@ sp needed
 1535 006a 5DF804FB 		ldr	pc, [sp], #4
 1536              		.cfi_endproc
 1537              	.LFE245:
 1538              		.size	chMBPostS, .-chMBPostS
 1539 006e 00BF     		.section	.text.chMBPostI,"ax",%progbits
 1540              		.align	2
 1541              		.p2align 4,,15
 1542              		.global	chMBPostI
 1543              		.thumb
 1544              		.thumb_func
 1545              		.type	chMBPostI, %function
 1546              	chMBPostI:
 1547              	.LFB246:
 1548              		.loc 5 216 0
 1549              		.cfi_startproc
 1550              		@ args = 0, pretend = 0, frame = 8
 1551              		@ frame_needed = 0, uses_anonymous_args = 0
 1552 0000 00B5     		push	{lr}
 1553              		.cfi_def_cfa_offset 4
 1554              		.cfi_offset 14, -4
 1555 0002 83B0     		sub	sp, sp, #12
 1556              		.cfi_def_cfa_offset 16
 1557 0004 0190     		str	r0, [sp, #4]
 1558 0006 0091     		str	r1, [sp]
 1559              		.loc 5 218 0
 1560 0008 FFF7FEFF 		bl	chDbgCheckClassI
 1561              		.loc 5 219 0
 1562 000c 019B     		ldr	r3, [sp, #4]
 1563 000e 002B     		cmp	r3, #0
 1564 0010 05D1     		bne	.L23
 1565              		.loc 5 219 0 is_stmt 0 discriminator 1
ARM GAS  /tmp/ccUx4H0Q.s 			page 91


 1566 0012 40F20000 		movw	r0, #:lower16:__func__.6640
 1567 0016 C0F20000 		movt	r0, #:upper16:__func__.6640
 1568 001a FFF7FEFF 		bl	chSysHalt
 1569              	.L23:
 1570              		.loc 5 221 0 is_stmt 1
 1571 001e 019B     		ldr	r3, [sp, #4]
 1572 0020 1C33     		adds	r3, r3, #28
 1573 0022 1846     		mov	r0, r3
 1574 0024 FFF7FEFF 		bl	chSemGetCounterI
 1575 0028 0346     		mov	r3, r0
 1576 002a 002B     		cmp	r3, #0
 1577 002c 02DC     		bgt	.L24
 1578              		.loc 5 222 0
 1579 002e 4FF0FF33 		mov	r3, #-1
 1580 0032 1BE0     		b	.L25
 1581              	.L24:
 1582              		.loc 5 225 0
 1583 0034 019B     		ldr	r3, [sp, #4]
 1584 0036 1C33     		adds	r3, r3, #28
 1585 0038 1846     		mov	r0, r3
 1586 003a FFF7FEFF 		bl	chSemFastWaitI
 1587              		.loc 5 226 0
 1588 003e 019B     		ldr	r3, [sp, #4]
 1589 0040 9B68     		ldr	r3, [r3, #8]
 1590 0042 191D     		adds	r1, r3, #4
 1591 0044 019A     		ldr	r2, [sp, #4]
 1592 0046 9160     		str	r1, [r2, #8]
 1593 0048 009A     		ldr	r2, [sp]
 1594 004a 1A60     		str	r2, [r3]
 1595              		.loc 5 227 0
 1596 004c 019B     		ldr	r3, [sp, #4]
 1597 004e 9A68     		ldr	r2, [r3, #8]
 1598 0050 019B     		ldr	r3, [sp, #4]
 1599 0052 5B68     		ldr	r3, [r3, #4]
 1600 0054 9A42     		cmp	r2, r3
 1601 0056 03D3     		bcc	.L26
 1602              		.loc 5 228 0
 1603 0058 019B     		ldr	r3, [sp, #4]
 1604 005a 1A68     		ldr	r2, [r3]
 1605 005c 019B     		ldr	r3, [sp, #4]
 1606 005e 9A60     		str	r2, [r3, #8]
 1607              	.L26:
 1608              		.loc 5 230 0
 1609 0060 019B     		ldr	r3, [sp, #4]
 1610 0062 1033     		adds	r3, r3, #16
 1611 0064 1846     		mov	r0, r3
 1612 0066 FFF7FEFF 		bl	chSemSignalI
 1613              		.loc 5 232 0
 1614 006a 0023     		movs	r3, #0
 1615              	.L25:
 1616              		.loc 5 233 0
 1617 006c 1846     		mov	r0, r3
 1618 006e 03B0     		add	sp, sp, #12
 1619              		@ sp needed
 1620 0070 5DF804FB 		ldr	pc, [sp], #4
 1621              		.cfi_endproc
 1622              	.LFE246:
ARM GAS  /tmp/ccUx4H0Q.s 			page 92


 1623              		.size	chMBPostI, .-chMBPostI
 1624 0074 AFF30080 		.section	.text.chMBPostAhead,"ax",%progbits
 1624      AFF30080 
 1624      AFF30080 
 1625              		.align	2
 1626              		.p2align 4,,15
 1627              		.global	chMBPostAhead
 1628              		.thumb
 1629              		.thumb_func
 1630              		.type	chMBPostAhead, %function
 1631              	chMBPostAhead:
 1632              	.LFB247:
 1633              		.loc 5 254 0
 1634              		.cfi_startproc
 1635              		@ args = 0, pretend = 0, frame = 24
 1636              		@ frame_needed = 0, uses_anonymous_args = 0
 1637 0000 00B5     		push	{lr}
 1638              		.cfi_def_cfa_offset 4
 1639              		.cfi_offset 14, -4
 1640 0002 87B0     		sub	sp, sp, #28
 1641              		.cfi_def_cfa_offset 32
 1642 0004 0390     		str	r0, [sp, #12]
 1643 0006 0291     		str	r1, [sp, #8]
 1644 0008 0192     		str	r2, [sp, #4]
 1645              		.loc 5 257 0
 1646 000a FFF7FEFF 		bl	chSysLock
 1647              		.loc 5 258 0
 1648 000e 0398     		ldr	r0, [sp, #12]
 1649 0010 0299     		ldr	r1, [sp, #8]
 1650 0012 019A     		ldr	r2, [sp, #4]
 1651 0014 FFF7FEFF 		bl	chMBPostAheadS
 1652 0018 0590     		str	r0, [sp, #20]
 1653              		.loc 5 259 0
 1654 001a FFF7FEFF 		bl	chSysUnlock
 1655              		.loc 5 261 0
 1656 001e 059B     		ldr	r3, [sp, #20]
 1657              		.loc 5 262 0
 1658 0020 1846     		mov	r0, r3
 1659 0022 07B0     		add	sp, sp, #28
 1660              		@ sp needed
 1661 0024 5DF804FB 		ldr	pc, [sp], #4
 1662              		.cfi_endproc
 1663              	.LFE247:
 1664              		.size	chMBPostAhead, .-chMBPostAhead
 1665 0028 AFF30080 		.section	.text.chMBPostAheadS,"ax",%progbits
 1665      AFF30080 
 1666              		.align	2
 1667              		.p2align 4,,15
 1668              		.global	chMBPostAheadS
 1669              		.thumb
 1670              		.thumb_func
 1671              		.type	chMBPostAheadS, %function
 1672              	chMBPostAheadS:
 1673              	.LFB248:
 1674              		.loc 5 283 0
 1675              		.cfi_startproc
 1676              		@ args = 0, pretend = 0, frame = 24
ARM GAS  /tmp/ccUx4H0Q.s 			page 93


 1677              		@ frame_needed = 0, uses_anonymous_args = 0
 1678 0000 00B5     		push	{lr}
 1679              		.cfi_def_cfa_offset 4
 1680              		.cfi_offset 14, -4
 1681 0002 87B0     		sub	sp, sp, #28
 1682              		.cfi_def_cfa_offset 32
 1683 0004 0390     		str	r0, [sp, #12]
 1684 0006 0291     		str	r1, [sp, #8]
 1685 0008 0192     		str	r2, [sp, #4]
 1686              		.loc 5 286 0
 1687 000a FFF7FEFF 		bl	chDbgCheckClassS
 1688              		.loc 5 287 0
 1689 000e 039B     		ldr	r3, [sp, #12]
 1690 0010 002B     		cmp	r3, #0
 1691 0012 05D1     		bne	.L30
 1692              		.loc 5 287 0 is_stmt 0 discriminator 1
 1693 0014 40F20000 		movw	r0, #:lower16:__func__.6653
 1694 0018 C0F20000 		movt	r0, #:upper16:__func__.6653
 1695 001c FFF7FEFF 		bl	chSysHalt
 1696              	.L30:
 1697              		.loc 5 289 0 is_stmt 1
 1698 0020 039B     		ldr	r3, [sp, #12]
 1699 0022 1C33     		adds	r3, r3, #28
 1700 0024 1846     		mov	r0, r3
 1701 0026 0199     		ldr	r1, [sp, #4]
 1702 0028 FFF7FEFF 		bl	chSemWaitTimeoutS
 1703 002c 0590     		str	r0, [sp, #20]
 1704              		.loc 5 290 0
 1705 002e 059B     		ldr	r3, [sp, #20]
 1706 0030 002B     		cmp	r3, #0
 1707 0032 1AD1     		bne	.L31
 1708              		.loc 5 291 0
 1709 0034 039B     		ldr	r3, [sp, #12]
 1710 0036 DB68     		ldr	r3, [r3, #12]
 1711 0038 1A1F     		subs	r2, r3, #4
 1712 003a 039B     		ldr	r3, [sp, #12]
 1713 003c DA60     		str	r2, [r3, #12]
 1714 003e 039B     		ldr	r3, [sp, #12]
 1715 0040 DA68     		ldr	r2, [r3, #12]
 1716 0042 039B     		ldr	r3, [sp, #12]
 1717 0044 1B68     		ldr	r3, [r3]
 1718 0046 9A42     		cmp	r2, r3
 1719 0048 04D2     		bcs	.L32
 1720              		.loc 5 292 0
 1721 004a 039B     		ldr	r3, [sp, #12]
 1722 004c 5B68     		ldr	r3, [r3, #4]
 1723 004e 1A1F     		subs	r2, r3, #4
 1724 0050 039B     		ldr	r3, [sp, #12]
 1725 0052 DA60     		str	r2, [r3, #12]
 1726              	.L32:
 1727              		.loc 5 294 0
 1728 0054 039B     		ldr	r3, [sp, #12]
 1729 0056 DB68     		ldr	r3, [r3, #12]
 1730 0058 029A     		ldr	r2, [sp, #8]
 1731 005a 1A60     		str	r2, [r3]
 1732              		.loc 5 295 0
 1733 005c 039B     		ldr	r3, [sp, #12]
ARM GAS  /tmp/ccUx4H0Q.s 			page 94


 1734 005e 1033     		adds	r3, r3, #16
 1735 0060 1846     		mov	r0, r3
 1736 0062 FFF7FEFF 		bl	chSemSignalI
 1737              		.loc 5 296 0
 1738 0066 FFF7FEFF 		bl	chSchRescheduleS
 1739              	.L31:
 1740              		.loc 5 299 0
 1741 006a 059B     		ldr	r3, [sp, #20]
 1742              		.loc 5 300 0
 1743 006c 1846     		mov	r0, r3
 1744 006e 07B0     		add	sp, sp, #28
 1745              		@ sp needed
 1746 0070 5DF804FB 		ldr	pc, [sp], #4
 1747              		.cfi_endproc
 1748              	.LFE248:
 1749              		.size	chMBPostAheadS, .-chMBPostAheadS
 1750 0074 AFF30080 		.section	.text.chMBPostAheadI,"ax",%progbits
 1750      AFF30080 
 1750      AFF30080 
 1751              		.align	2
 1752              		.p2align 4,,15
 1753              		.global	chMBPostAheadI
 1754              		.thumb
 1755              		.thumb_func
 1756              		.type	chMBPostAheadI, %function
 1757              	chMBPostAheadI:
 1758              	.LFB249:
 1759              		.loc 5 316 0
 1760              		.cfi_startproc
 1761              		@ args = 0, pretend = 0, frame = 8
 1762              		@ frame_needed = 0, uses_anonymous_args = 0
 1763 0000 00B5     		push	{lr}
 1764              		.cfi_def_cfa_offset 4
 1765              		.cfi_offset 14, -4
 1766 0002 83B0     		sub	sp, sp, #12
 1767              		.cfi_def_cfa_offset 16
 1768 0004 0190     		str	r0, [sp, #4]
 1769 0006 0091     		str	r1, [sp]
 1770              		.loc 5 318 0
 1771 0008 FFF7FEFF 		bl	chDbgCheckClassI
 1772              		.loc 5 319 0
 1773 000c 019B     		ldr	r3, [sp, #4]
 1774 000e 002B     		cmp	r3, #0
 1775 0010 05D1     		bne	.L35
 1776              		.loc 5 319 0 is_stmt 0 discriminator 1
 1777 0012 40F20000 		movw	r0, #:lower16:__func__.6658
 1778 0016 C0F20000 		movt	r0, #:upper16:__func__.6658
 1779 001a FFF7FEFF 		bl	chSysHalt
 1780              	.L35:
 1781              		.loc 5 321 0 is_stmt 1
 1782 001e 019B     		ldr	r3, [sp, #4]
 1783 0020 1C33     		adds	r3, r3, #28
 1784 0022 1846     		mov	r0, r3
 1785 0024 FFF7FEFF 		bl	chSemGetCounterI
 1786 0028 0346     		mov	r3, r0
 1787 002a 002B     		cmp	r3, #0
 1788 002c 02DC     		bgt	.L36
ARM GAS  /tmp/ccUx4H0Q.s 			page 95


 1789              		.loc 5 322 0
 1790 002e 4FF0FF33 		mov	r3, #-1
 1791 0032 1EE0     		b	.L37
 1792              	.L36:
 1793              		.loc 5 324 0
 1794 0034 019B     		ldr	r3, [sp, #4]
 1795 0036 1C33     		adds	r3, r3, #28
 1796 0038 1846     		mov	r0, r3
 1797 003a FFF7FEFF 		bl	chSemFastWaitI
 1798              		.loc 5 325 0
 1799 003e 019B     		ldr	r3, [sp, #4]
 1800 0040 DB68     		ldr	r3, [r3, #12]
 1801 0042 1A1F     		subs	r2, r3, #4
 1802 0044 019B     		ldr	r3, [sp, #4]
 1803 0046 DA60     		str	r2, [r3, #12]
 1804 0048 019B     		ldr	r3, [sp, #4]
 1805 004a DA68     		ldr	r2, [r3, #12]
 1806 004c 019B     		ldr	r3, [sp, #4]
 1807 004e 1B68     		ldr	r3, [r3]
 1808 0050 9A42     		cmp	r2, r3
 1809 0052 04D2     		bcs	.L38
 1810              		.loc 5 326 0
 1811 0054 019B     		ldr	r3, [sp, #4]
 1812 0056 5B68     		ldr	r3, [r3, #4]
 1813 0058 1A1F     		subs	r2, r3, #4
 1814 005a 019B     		ldr	r3, [sp, #4]
 1815 005c DA60     		str	r2, [r3, #12]
 1816              	.L38:
 1817              		.loc 5 328 0
 1818 005e 019B     		ldr	r3, [sp, #4]
 1819 0060 DB68     		ldr	r3, [r3, #12]
 1820 0062 009A     		ldr	r2, [sp]
 1821 0064 1A60     		str	r2, [r3]
 1822              		.loc 5 329 0
 1823 0066 019B     		ldr	r3, [sp, #4]
 1824 0068 1033     		adds	r3, r3, #16
 1825 006a 1846     		mov	r0, r3
 1826 006c FFF7FEFF 		bl	chSemSignalI
 1827              		.loc 5 331 0
 1828 0070 0023     		movs	r3, #0
 1829              	.L37:
 1830              		.loc 5 332 0
 1831 0072 1846     		mov	r0, r3
 1832 0074 03B0     		add	sp, sp, #12
 1833              		@ sp needed
 1834 0076 5DF804FB 		ldr	pc, [sp], #4
 1835              		.cfi_endproc
 1836              	.LFE249:
 1837              		.size	chMBPostAheadI, .-chMBPostAheadI
 1838 007a 00BFAFF3 		.section	.text.chMBFetch,"ax",%progbits
 1838      0080
 1839              		.align	2
 1840              		.p2align 4,,15
 1841              		.global	chMBFetch
 1842              		.thumb
 1843              		.thumb_func
 1844              		.type	chMBFetch, %function
ARM GAS  /tmp/ccUx4H0Q.s 			page 96


 1845              	chMBFetch:
 1846              	.LFB250:
 1847              		.loc 5 353 0
 1848              		.cfi_startproc
 1849              		@ args = 0, pretend = 0, frame = 24
 1850              		@ frame_needed = 0, uses_anonymous_args = 0
 1851 0000 00B5     		push	{lr}
 1852              		.cfi_def_cfa_offset 4
 1853              		.cfi_offset 14, -4
 1854 0002 87B0     		sub	sp, sp, #28
 1855              		.cfi_def_cfa_offset 32
 1856 0004 0390     		str	r0, [sp, #12]
 1857 0006 0291     		str	r1, [sp, #8]
 1858 0008 0192     		str	r2, [sp, #4]
 1859              		.loc 5 356 0
 1860 000a FFF7FEFF 		bl	chSysLock
 1861              		.loc 5 357 0
 1862 000e 0398     		ldr	r0, [sp, #12]
 1863 0010 0299     		ldr	r1, [sp, #8]
 1864 0012 019A     		ldr	r2, [sp, #4]
 1865 0014 FFF7FEFF 		bl	chMBFetchS
 1866 0018 0590     		str	r0, [sp, #20]
 1867              		.loc 5 358 0
 1868 001a FFF7FEFF 		bl	chSysUnlock
 1869              		.loc 5 360 0
 1870 001e 059B     		ldr	r3, [sp, #20]
 1871              		.loc 5 361 0
 1872 0020 1846     		mov	r0, r3
 1873 0022 07B0     		add	sp, sp, #28
 1874              		@ sp needed
 1875 0024 5DF804FB 		ldr	pc, [sp], #4
 1876              		.cfi_endproc
 1877              	.LFE250:
 1878              		.size	chMBFetch, .-chMBFetch
 1879 0028 AFF30080 		.section	.text.chMBFetchS,"ax",%progbits
 1879      AFF30080 
 1880              		.align	2
 1881              		.p2align 4,,15
 1882              		.global	chMBFetchS
 1883              		.thumb
 1884              		.thumb_func
 1885              		.type	chMBFetchS, %function
 1886              	chMBFetchS:
 1887              	.LFB251:
 1888              		.loc 5 382 0
 1889              		.cfi_startproc
 1890              		@ args = 0, pretend = 0, frame = 24
 1891              		@ frame_needed = 0, uses_anonymous_args = 0
 1892 0000 00B5     		push	{lr}
 1893              		.cfi_def_cfa_offset 4
 1894              		.cfi_offset 14, -4
 1895 0002 87B0     		sub	sp, sp, #28
 1896              		.cfi_def_cfa_offset 32
 1897 0004 0390     		str	r0, [sp, #12]
 1898 0006 0291     		str	r1, [sp, #8]
 1899 0008 0192     		str	r2, [sp, #4]
 1900              		.loc 5 385 0
ARM GAS  /tmp/ccUx4H0Q.s 			page 97


 1901 000a FFF7FEFF 		bl	chDbgCheckClassS
 1902              		.loc 5 386 0
 1903 000e 039B     		ldr	r3, [sp, #12]
 1904 0010 002B     		cmp	r3, #0
 1905 0012 02D0     		beq	.L42
 1906              		.loc 5 386 0 is_stmt 0 discriminator 2
 1907 0014 029B     		ldr	r3, [sp, #8]
 1908 0016 002B     		cmp	r3, #0
 1909 0018 05D1     		bne	.L43
 1910              	.L42:
 1911              		.loc 5 386 0 discriminator 1
 1912 001a 40F20000 		movw	r0, #:lower16:__func__.6671
 1913 001e C0F20000 		movt	r0, #:upper16:__func__.6671
 1914 0022 FFF7FEFF 		bl	chSysHalt
 1915              	.L43:
 1916              		.loc 5 388 0 is_stmt 1
 1917 0026 039B     		ldr	r3, [sp, #12]
 1918 0028 1033     		adds	r3, r3, #16
 1919 002a 1846     		mov	r0, r3
 1920 002c 0199     		ldr	r1, [sp, #4]
 1921 002e FFF7FEFF 		bl	chSemWaitTimeoutS
 1922 0032 0590     		str	r0, [sp, #20]
 1923              		.loc 5 389 0
 1924 0034 059B     		ldr	r3, [sp, #20]
 1925 0036 002B     		cmp	r3, #0
 1926 0038 18D1     		bne	.L44
 1927              		.loc 5 390 0
 1928 003a 039B     		ldr	r3, [sp, #12]
 1929 003c DB68     		ldr	r3, [r3, #12]
 1930 003e 191D     		adds	r1, r3, #4
 1931 0040 039A     		ldr	r2, [sp, #12]
 1932 0042 D160     		str	r1, [r2, #12]
 1933 0044 1A68     		ldr	r2, [r3]
 1934 0046 029B     		ldr	r3, [sp, #8]
 1935 0048 1A60     		str	r2, [r3]
 1936              		.loc 5 391 0
 1937 004a 039B     		ldr	r3, [sp, #12]
 1938 004c DA68     		ldr	r2, [r3, #12]
 1939 004e 039B     		ldr	r3, [sp, #12]
 1940 0050 5B68     		ldr	r3, [r3, #4]
 1941 0052 9A42     		cmp	r2, r3
 1942 0054 03D3     		bcc	.L45
 1943              		.loc 5 392 0
 1944 0056 039B     		ldr	r3, [sp, #12]
 1945 0058 1A68     		ldr	r2, [r3]
 1946 005a 039B     		ldr	r3, [sp, #12]
 1947 005c DA60     		str	r2, [r3, #12]
 1948              	.L45:
 1949              		.loc 5 394 0
 1950 005e 039B     		ldr	r3, [sp, #12]
 1951 0060 1C33     		adds	r3, r3, #28
 1952 0062 1846     		mov	r0, r3
 1953 0064 FFF7FEFF 		bl	chSemSignalI
 1954              		.loc 5 395 0
 1955 0068 FFF7FEFF 		bl	chSchRescheduleS
 1956              	.L44:
 1957              		.loc 5 398 0
ARM GAS  /tmp/ccUx4H0Q.s 			page 98


 1958 006c 059B     		ldr	r3, [sp, #20]
 1959              		.loc 5 399 0
 1960 006e 1846     		mov	r0, r3
 1961 0070 07B0     		add	sp, sp, #28
 1962              		@ sp needed
 1963 0072 5DF804FB 		ldr	pc, [sp], #4
 1964              		.cfi_endproc
 1965              	.LFE251:
 1966              		.size	chMBFetchS, .-chMBFetchS
 1967 0076 00BFAFF3 		.section	.text.chMBFetchI,"ax",%progbits
 1967      0080AFF3 
 1967      0080
 1968              		.align	2
 1969              		.p2align 4,,15
 1970              		.global	chMBFetchI
 1971              		.thumb
 1972              		.thumb_func
 1973              		.type	chMBFetchI, %function
 1974              	chMBFetchI:
 1975              	.LFB252:
 1976              		.loc 5 415 0
 1977              		.cfi_startproc
 1978              		@ args = 0, pretend = 0, frame = 8
 1979              		@ frame_needed = 0, uses_anonymous_args = 0
 1980 0000 00B5     		push	{lr}
 1981              		.cfi_def_cfa_offset 4
 1982              		.cfi_offset 14, -4
 1983 0002 83B0     		sub	sp, sp, #12
 1984              		.cfi_def_cfa_offset 16
 1985 0004 0190     		str	r0, [sp, #4]
 1986 0006 0091     		str	r1, [sp]
 1987              		.loc 5 417 0
 1988 0008 FFF7FEFF 		bl	chDbgCheckClassI
 1989              		.loc 5 418 0
 1990 000c 019B     		ldr	r3, [sp, #4]
 1991 000e 002B     		cmp	r3, #0
 1992 0010 02D0     		beq	.L48
 1993              		.loc 5 418 0 is_stmt 0 discriminator 2
 1994 0012 009B     		ldr	r3, [sp]
 1995 0014 002B     		cmp	r3, #0
 1996 0016 05D1     		bne	.L49
 1997              	.L48:
 1998              		.loc 5 418 0 discriminator 1
 1999 0018 40F20000 		movw	r0, #:lower16:__func__.6676
 2000 001c C0F20000 		movt	r0, #:upper16:__func__.6676
 2001 0020 FFF7FEFF 		bl	chSysHalt
 2002              	.L49:
 2003              		.loc 5 420 0 is_stmt 1
 2004 0024 019B     		ldr	r3, [sp, #4]
 2005 0026 1033     		adds	r3, r3, #16
 2006 0028 1846     		mov	r0, r3
 2007 002a FFF7FEFF 		bl	chSemGetCounterI
 2008 002e 0346     		mov	r3, r0
 2009 0030 002B     		cmp	r3, #0
 2010 0032 02DC     		bgt	.L50
 2011              		.loc 5 421 0
 2012 0034 4FF0FF33 		mov	r3, #-1
ARM GAS  /tmp/ccUx4H0Q.s 			page 99


 2013 0038 1CE0     		b	.L51
 2014              	.L50:
 2015              		.loc 5 423 0
 2016 003a 019B     		ldr	r3, [sp, #4]
 2017 003c 1033     		adds	r3, r3, #16
 2018 003e 1846     		mov	r0, r3
 2019 0040 FFF7FEFF 		bl	chSemFastWaitI
 2020              		.loc 5 424 0
 2021 0044 019B     		ldr	r3, [sp, #4]
 2022 0046 DB68     		ldr	r3, [r3, #12]
 2023 0048 191D     		adds	r1, r3, #4
 2024 004a 019A     		ldr	r2, [sp, #4]
 2025 004c D160     		str	r1, [r2, #12]
 2026 004e 1A68     		ldr	r2, [r3]
 2027 0050 009B     		ldr	r3, [sp]
 2028 0052 1A60     		str	r2, [r3]
 2029              		.loc 5 425 0
 2030 0054 019B     		ldr	r3, [sp, #4]
 2031 0056 DA68     		ldr	r2, [r3, #12]
 2032 0058 019B     		ldr	r3, [sp, #4]
 2033 005a 5B68     		ldr	r3, [r3, #4]
 2034 005c 9A42     		cmp	r2, r3
 2035 005e 03D3     		bcc	.L52
 2036              		.loc 5 426 0
 2037 0060 019B     		ldr	r3, [sp, #4]
 2038 0062 1A68     		ldr	r2, [r3]
 2039 0064 019B     		ldr	r3, [sp, #4]
 2040 0066 DA60     		str	r2, [r3, #12]
 2041              	.L52:
 2042              		.loc 5 428 0
 2043 0068 019B     		ldr	r3, [sp, #4]
 2044 006a 1C33     		adds	r3, r3, #28
 2045 006c 1846     		mov	r0, r3
 2046 006e FFF7FEFF 		bl	chSemSignalI
 2047              		.loc 5 430 0
 2048 0072 0023     		movs	r3, #0
 2049              	.L51:
 2050              		.loc 5 431 0
 2051 0074 1846     		mov	r0, r3
 2052 0076 03B0     		add	sp, sp, #12
 2053              		@ sp needed
 2054 0078 5DF804FB 		ldr	pc, [sp], #4
 2055              		.cfi_endproc
 2056              	.LFE252:
 2057              		.size	chMBFetchI, .-chMBFetchI
 2058 007c AFF30080 		.section	.rodata.__func__.6615,"a",%progbits
 2059              		.align	2
 2060              		.type	__func__.6615, %object
 2061              		.size	__func__.6615, 15
 2062              	__func__.6615:
 2063 0000 63684D42 		.ascii	"chMBObjectInit\000"
 2063      4F626A65 
 2063      6374496E 
 2063      697400
 2064 000f 00       		.section	.rodata.__func__.5915,"a",%progbits
 2065              		.align	2
 2066              		.type	__func__.5915, %object
ARM GAS  /tmp/ccUx4H0Q.s 			page 100


 2067              		.size	__func__.5915, 12
 2068              	__func__.5915:
 2069 0000 63685379 		.ascii	"chSysUnlock\000"
 2069      73556E6C 
 2069      6F636B00 
 2070              		.section	.rodata.__func__.6622,"a",%progbits
 2071              		.align	2
 2072              		.type	__func__.6622, %object
 2073              		.size	__func__.6622, 11
 2074              	__func__.6622:
 2075 0000 63684D42 		.ascii	"chMBResetI\000"
 2075      52657365 
 2075      744900
 2076 000b 00       		.section	.rodata.__func__.6635,"a",%progbits
 2077              		.align	2
 2078              		.type	__func__.6635, %object
 2079              		.size	__func__.6635, 10
 2080              	__func__.6635:
 2081 0000 63684D42 		.ascii	"chMBPostS\000"
 2081      506F7374 
 2081      5300
 2082 000a 0000     		.section	.rodata.__func__.6640,"a",%progbits
 2083              		.align	2
 2084              		.type	__func__.6640, %object
 2085              		.size	__func__.6640, 10
 2086              	__func__.6640:
 2087 0000 63684D42 		.ascii	"chMBPostI\000"
 2087      506F7374 
 2087      4900
 2088 000a 0000     		.section	.rodata.__func__.6653,"a",%progbits
 2089              		.align	2
 2090              		.type	__func__.6653, %object
 2091              		.size	__func__.6653, 15
 2092              	__func__.6653:
 2093 0000 63684D42 		.ascii	"chMBPostAheadS\000"
 2093      506F7374 
 2093      41686561 
 2093      645300
 2094 000f 00       		.section	.rodata.__func__.6658,"a",%progbits
 2095              		.align	2
 2096              		.type	__func__.6658, %object
 2097              		.size	__func__.6658, 15
 2098              	__func__.6658:
 2099 0000 63684D42 		.ascii	"chMBPostAheadI\000"
 2099      506F7374 
 2099      41686561 
 2099      644900
 2100 000f 00       		.section	.rodata.__func__.6671,"a",%progbits
 2101              		.align	2
 2102              		.type	__func__.6671, %object
 2103              		.size	__func__.6671, 11
 2104              	__func__.6671:
 2105 0000 63684D42 		.ascii	"chMBFetchS\000"
 2105      46657463 
 2105      685300
 2106 000b 00       		.section	.rodata.__func__.6676,"a",%progbits
 2107              		.align	2
ARM GAS  /tmp/ccUx4H0Q.s 			page 101


 2108              		.type	__func__.6676, %object
 2109              		.size	__func__.6676, 11
 2110              	__func__.6676:
 2111 0000 63684D42 		.ascii	"chMBFetchI\000"
 2111      46657463 
 2111      684900
 2112 000b 00       		.text
 2113              	.Letext0:
 2114              		.file 6 "/usr/include/newlib/machine/_default_types.h"
 2115              		.file 7 "/usr/include/newlib/stdint.h"
 2116              		.file 8 "../../../../os/rt/ports/ARMCMx/compilers/GCC/chtypes.h"
 2117              		.file 9 "../../../../os/rt/include/chsystypes.h"
 2118              		.file 10 "../../../../os/rt/include/chschd.h"
 2119              		.file 11 "../../../../os/rt/ports/ARMCMx/chcore.h"
 2120              		.file 12 "../../../../os/rt/include/chdebug.h"
 2121              		.file 13 "../../../../os/rt/include/chtm.h"
 2122              		.file 14 "../../../../os/rt/include/chstats.h"
 2123              		.file 15 "../../../../os/rt/include/chmtx.h"
 2124              		.file 16 "../../../../os/rt/include/chmboxes.h"
 2125              		.file 17 "../../../../os/ext/CMSIS/include/core_cm4.h"
 2126              		.section	.debug_info,"",%progbits
 2127              	.Ldebug_info0:
 2128 0000 450D0000 		.4byte	0xd45
 2129 0004 0400     		.2byte	0x4
 2130 0006 00000000 		.4byte	.Ldebug_abbrev0
 2131 000a 04       		.byte	0x4
 2132 000b 01       		.uleb128 0x1
 2133 000c 5E030000 		.4byte	.LASF164
 2134 0010 01       		.byte	0x1
 2135 0011 3A060000 		.4byte	.LASF165
 2136 0015 F2020000 		.4byte	.LASF166
 2137 0019 00000000 		.4byte	.Ldebug_ranges0+0
 2138 001d 00000000 		.4byte	0
 2139 0021 00000000 		.4byte	.Ldebug_line0
 2140 0025 02       		.uleb128 0x2
 2141 0026 04       		.byte	0x4
 2142 0027 05       		.byte	0x5
 2143 0028 696E7400 		.ascii	"int\000"
 2144 002c 03       		.uleb128 0x3
 2145 002d 04       		.byte	0x4
 2146 002e 07       		.byte	0x7
 2147 002f 5D020000 		.4byte	.LASF0
 2148 0033 03       		.uleb128 0x3
 2149 0034 01       		.byte	0x1
 2150 0035 06       		.byte	0x6
 2151 0036 74010000 		.4byte	.LASF1
 2152 003a 04       		.uleb128 0x4
 2153 003b 4D000000 		.4byte	.LASF5
 2154 003f 06       		.byte	0x6
 2155 0040 1C       		.byte	0x1c
 2156 0041 45000000 		.4byte	0x45
 2157 0045 03       		.uleb128 0x3
 2158 0046 01       		.byte	0x1
 2159 0047 08       		.byte	0x8
 2160 0048 7B050000 		.4byte	.LASF2
 2161 004c 03       		.uleb128 0x3
 2162 004d 02       		.byte	0x2
ARM GAS  /tmp/ccUx4H0Q.s 			page 102


 2163 004e 05       		.byte	0x5
 2164 004f A7050000 		.4byte	.LASF3
 2165 0053 03       		.uleb128 0x3
 2166 0054 02       		.byte	0x2
 2167 0055 07       		.byte	0x7
 2168 0056 53010000 		.4byte	.LASF4
 2169 005a 04       		.uleb128 0x4
 2170 005b 2E040000 		.4byte	.LASF6
 2171 005f 06       		.byte	0x6
 2172 0060 37       		.byte	0x37
 2173 0061 65000000 		.4byte	0x65
 2174 0065 03       		.uleb128 0x3
 2175 0066 04       		.byte	0x4
 2176 0067 05       		.byte	0x5
 2177 0068 BA010000 		.4byte	.LASF7
 2178 006c 04       		.uleb128 0x4
 2179 006d 41020000 		.4byte	.LASF8
 2180 0071 06       		.byte	0x6
 2181 0072 38       		.byte	0x38
 2182 0073 77000000 		.4byte	0x77
 2183 0077 03       		.uleb128 0x3
 2184 0078 04       		.byte	0x4
 2185 0079 07       		.byte	0x7
 2186 007a 6B060000 		.4byte	.LASF9
 2187 007e 03       		.uleb128 0x3
 2188 007f 08       		.byte	0x8
 2189 0080 05       		.byte	0x5
 2190 0081 66010000 		.4byte	.LASF10
 2191 0085 04       		.uleb128 0x4
 2192 0086 15050000 		.4byte	.LASF11
 2193 008a 06       		.byte	0x6
 2194 008b 4E       		.byte	0x4e
 2195 008c 90000000 		.4byte	0x90
 2196 0090 03       		.uleb128 0x3
 2197 0091 08       		.byte	0x8
 2198 0092 07       		.byte	0x7
 2199 0093 CE000000 		.4byte	.LASF12
 2200 0097 04       		.uleb128 0x4
 2201 0098 7A070000 		.4byte	.LASF13
 2202 009c 07       		.byte	0x7
 2203 009d 2A       		.byte	0x2a
 2204 009e 3A000000 		.4byte	0x3a
 2205 00a2 04       		.uleb128 0x4
 2206 00a3 73050000 		.4byte	.LASF14
 2207 00a7 07       		.byte	0x7
 2208 00a8 41       		.byte	0x41
 2209 00a9 5A000000 		.4byte	0x5a
 2210 00ad 04       		.uleb128 0x4
 2211 00ae 22060000 		.4byte	.LASF15
 2212 00b2 07       		.byte	0x7
 2213 00b3 42       		.byte	0x42
 2214 00b4 6C000000 		.4byte	0x6c
 2215 00b8 04       		.uleb128 0x4
 2216 00b9 37000000 		.4byte	.LASF16
 2217 00bd 07       		.byte	0x7
 2218 00be 4E       		.byte	0x4e
 2219 00bf 85000000 		.4byte	0x85
ARM GAS  /tmp/ccUx4H0Q.s 			page 103


 2220 00c3 04       		.uleb128 0x4
 2221 00c4 23070000 		.4byte	.LASF17
 2222 00c8 08       		.byte	0x8
 2223 00c9 39       		.byte	0x39
 2224 00ca AD000000 		.4byte	0xad
 2225 00ce 04       		.uleb128 0x4
 2226 00cf 43010000 		.4byte	.LASF18
 2227 00d3 08       		.byte	0x8
 2228 00d4 3A       		.byte	0x3a
 2229 00d5 B8000000 		.4byte	0xb8
 2230 00d9 04       		.uleb128 0x4
 2231 00da 01040000 		.4byte	.LASF19
 2232 00de 08       		.byte	0x8
 2233 00df 3C       		.byte	0x3c
 2234 00e0 97000000 		.4byte	0x97
 2235 00e4 04       		.uleb128 0x4
 2236 00e5 C3010000 		.4byte	.LASF20
 2237 00e9 08       		.byte	0x8
 2238 00ea 3D       		.byte	0x3d
 2239 00eb 97000000 		.4byte	0x97
 2240 00ef 04       		.uleb128 0x4
 2241 00f0 39050000 		.4byte	.LASF21
 2242 00f4 08       		.byte	0x8
 2243 00f5 3E       		.byte	0x3e
 2244 00f6 97000000 		.4byte	0x97
 2245 00fa 04       		.uleb128 0x4
 2246 00fb 62050000 		.4byte	.LASF22
 2247 00ff 08       		.byte	0x8
 2248 0100 40       		.byte	0x40
 2249 0101 AD000000 		.4byte	0xad
 2250 0105 04       		.uleb128 0x4
 2251 0106 E7020000 		.4byte	.LASF23
 2252 010a 08       		.byte	0x8
 2253 010b 41       		.byte	0x41
 2254 010c A2000000 		.4byte	0xa2
 2255 0110 04       		.uleb128 0x4
 2256 0111 22040000 		.4byte	.LASF24
 2257 0115 08       		.byte	0x8
 2258 0116 43       		.byte	0x43
 2259 0117 AD000000 		.4byte	0xad
 2260 011b 04       		.uleb128 0x4
 2261 011c 4C020000 		.4byte	.LASF25
 2262 0120 08       		.byte	0x8
 2263 0121 45       		.byte	0x45
 2264 0122 A2000000 		.4byte	0xa2
 2265 0126 04       		.uleb128 0x4
 2266 0127 36030000 		.4byte	.LASF26
 2267 012b 08       		.byte	0x8
 2268 012c 46       		.byte	0x46
 2269 012d AD000000 		.4byte	0xad
 2270 0131 04       		.uleb128 0x4
 2271 0132 97060000 		.4byte	.LASF27
 2272 0136 09       		.byte	0x9
 2273 0137 33       		.byte	0x33
 2274 0138 AD000000 		.4byte	0xad
 2275 013c 04       		.uleb128 0x4
 2276 013d 82060000 		.4byte	.LASF28
ARM GAS  /tmp/ccUx4H0Q.s 			page 104


 2277 0141 09       		.byte	0x9
 2278 0142 3F       		.byte	0x3f
 2279 0143 47010000 		.4byte	0x147
 2280 0147 05       		.uleb128 0x5
 2281 0148 C7020000 		.4byte	.LASF50
 2282 014c 60       		.byte	0x60
 2283 014d 0A       		.byte	0xa
 2284 014e C2       		.byte	0xc2
 2285 014f 4D020000 		.4byte	0x24d
 2286 0153 06       		.uleb128 0x6
 2287 0154 C7050000 		.4byte	.LASF29
 2288 0158 0A       		.byte	0xa
 2289 0159 C3       		.byte	0xc3
 2290 015a 58020000 		.4byte	0x258
 2291 015e 00       		.byte	0
 2292 015f 06       		.uleb128 0x6
 2293 0160 5B050000 		.4byte	.LASF30
 2294 0164 0A       		.byte	0xa
 2295 0165 C5       		.byte	0xc5
 2296 0166 58020000 		.4byte	0x258
 2297 016a 04       		.byte	0x4
 2298 016b 06       		.uleb128 0x6
 2299 016c 4C010000 		.4byte	.LASF31
 2300 0170 0A       		.byte	0xa
 2301 0171 C7       		.byte	0xc7
 2302 0172 FA000000 		.4byte	0xfa
 2303 0176 08       		.byte	0x8
 2304 0177 06       		.uleb128 0x6
 2305 0178 E5070000 		.4byte	.LASF32
 2306 017c 0A       		.byte	0xa
 2307 017d C8       		.byte	0xc8
 2308 017e C1040000 		.4byte	0x4c1
 2309 0182 0C       		.byte	0xc
 2310 0183 06       		.uleb128 0x6
 2311 0184 D2010000 		.4byte	.LASF33
 2312 0188 0A       		.byte	0xa
 2313 0189 CA       		.byte	0xca
 2314 018a 58020000 		.4byte	0x258
 2315 018e 10       		.byte	0x10
 2316 018f 06       		.uleb128 0x6
 2317 0190 C5040000 		.4byte	.LASF34
 2318 0194 0A       		.byte	0xa
 2319 0195 CB       		.byte	0xcb
 2320 0196 58020000 		.4byte	0x258
 2321 019a 14       		.byte	0x14
 2322 019b 06       		.uleb128 0x6
 2323 019c 89070000 		.4byte	.LASF35
 2324 01a0 0A       		.byte	0xa
 2325 01a1 D2       		.byte	0xd2
 2326 01a2 65070000 		.4byte	0x765
 2327 01a6 18       		.byte	0x18
 2328 01a7 06       		.uleb128 0x6
 2329 01a8 52020000 		.4byte	.LASF36
 2330 01ac 0A       		.byte	0xa
 2331 01ad D8       		.byte	0xd8
 2332 01ae 77070000 		.4byte	0x777
 2333 01b2 1C       		.byte	0x1c
ARM GAS  /tmp/ccUx4H0Q.s 			page 105


 2334 01b3 06       		.uleb128 0x6
 2335 01b4 B1050000 		.4byte	.LASF37
 2336 01b8 0A       		.byte	0xa
 2337 01b9 DD       		.byte	0xdd
 2338 01ba E4000000 		.4byte	0xe4
 2339 01be 20       		.byte	0x20
 2340 01bf 06       		.uleb128 0x6
 2341 01c0 CE050000 		.4byte	.LASF38
 2342 01c4 0A       		.byte	0xa
 2343 01c5 E1       		.byte	0xe1
 2344 01c6 D9000000 		.4byte	0xd9
 2345 01ca 21       		.byte	0x21
 2346 01cb 06       		.uleb128 0x6
 2347 01cc 65070000 		.4byte	.LASF39
 2348 01d0 0A       		.byte	0xa
 2349 01d1 E6       		.byte	0xe6
 2350 01d2 EF000000 		.4byte	0xef
 2351 01d6 22       		.byte	0x22
 2352 01d7 07       		.uleb128 0x7
 2353 01d8 705F7500 		.ascii	"p_u\000"
 2354 01dc 0A       		.byte	0xa
 2355 01dd 3101     		.2byte	0x131
 2356 01df A0060000 		.4byte	0x6a0
 2357 01e3 24       		.byte	0x24
 2358 01e4 08       		.uleb128 0x8
 2359 01e5 48040000 		.4byte	.LASF40
 2360 01e9 0A       		.byte	0xa
 2361 01ea 3601     		.2byte	0x136
 2362 01ec 5E020000 		.4byte	0x25e
 2363 01f0 28       		.byte	0x28
 2364 01f1 08       		.uleb128 0x8
 2365 01f2 82020000 		.4byte	.LASF41
 2366 01f6 0A       		.byte	0xa
 2367 01f7 3C01     		.2byte	0x13c
 2368 01f9 82020000 		.4byte	0x282
 2369 01fd 2C       		.byte	0x2c
 2370 01fe 08       		.uleb128 0x8
 2371 01ff B8070000 		.4byte	.LASF42
 2372 0203 0A       		.byte	0xa
 2373 0204 4001     		.2byte	0x140
 2374 0206 05010000 		.4byte	0x105
 2375 020a 34       		.byte	0x34
 2376 020b 08       		.uleb128 0x8
 2377 020c 17060000 		.4byte	.LASF43
 2378 0210 0A       		.byte	0xa
 2379 0211 4601     		.2byte	0x146
 2380 0213 10010000 		.4byte	0x110
 2381 0217 38       		.byte	0x38
 2382 0218 08       		.uleb128 0x8
 2383 0219 9D050000 		.4byte	.LASF44
 2384 021d 0A       		.byte	0xa
 2385 021e 4D01     		.2byte	0x14d
 2386 0220 5F070000 		.4byte	0x75f
 2387 0224 3C       		.byte	0x3c
 2388 0225 08       		.uleb128 0x8
 2389 0226 A1060000 		.4byte	.LASF45
 2390 022a 0A       		.byte	0xa
ARM GAS  /tmp/ccUx4H0Q.s 			page 106


 2391 022b 5101     		.2byte	0x151
 2392 022d FA000000 		.4byte	0xfa
 2393 0231 40       		.byte	0x40
 2394 0232 08       		.uleb128 0x8
 2395 0233 F3010000 		.4byte	.LASF46
 2396 0237 0A       		.byte	0xa
 2397 0238 5801     		.2byte	0x158
 2398 023a 35030000 		.4byte	0x335
 2399 023e 44       		.byte	0x44
 2400 023f 08       		.uleb128 0x8
 2401 0240 D6050000 		.4byte	.LASF47
 2402 0244 0A       		.byte	0xa
 2403 0245 5E01     		.2byte	0x15e
 2404 0247 51060000 		.4byte	0x651
 2405 024b 48       		.byte	0x48
 2406 024c 00       		.byte	0
 2407 024d 04       		.uleb128 0x4
 2408 024e 5B040000 		.4byte	.LASF48
 2409 0252 09       		.byte	0x9
 2410 0253 44       		.byte	0x44
 2411 0254 58020000 		.4byte	0x258
 2412 0258 09       		.uleb128 0x9
 2413 0259 04       		.byte	0x4
 2414 025a 3C010000 		.4byte	0x13c
 2415 025e 04       		.uleb128 0x4
 2416 025f 90070000 		.4byte	.LASF49
 2417 0263 09       		.byte	0x9
 2418 0264 49       		.byte	0x49
 2419 0265 69020000 		.4byte	0x269
 2420 0269 05       		.uleb128 0x5
 2421 026a 5B060000 		.4byte	.LASF51
 2422 026e 04       		.byte	0x4
 2423 026f 0A       		.byte	0xa
 2424 0270 B0       		.byte	0xb0
 2425 0271 82020000 		.4byte	0x282
 2426 0275 06       		.uleb128 0x6
 2427 0276 C7050000 		.4byte	.LASF29
 2428 027a 0A       		.byte	0xa
 2429 027b B1       		.byte	0xb1
 2430 027c 58020000 		.4byte	0x258
 2431 0280 00       		.byte	0
 2432 0281 00       		.byte	0
 2433 0282 04       		.uleb128 0x4
 2434 0283 4C070000 		.4byte	.LASF52
 2435 0287 09       		.byte	0x9
 2436 0288 50       		.byte	0x50
 2437 0289 8D020000 		.4byte	0x28d
 2438 028d 05       		.uleb128 0x5
 2439 028e 6D000000 		.4byte	.LASF53
 2440 0292 08       		.byte	0x8
 2441 0293 0A       		.byte	0xa
 2442 0294 B7       		.byte	0xb7
 2443 0295 B2020000 		.4byte	0x2b2
 2444 0299 06       		.uleb128 0x6
 2445 029a C7050000 		.4byte	.LASF29
 2446 029e 0A       		.byte	0xa
 2447 029f B8       		.byte	0xb8
ARM GAS  /tmp/ccUx4H0Q.s 			page 107


 2448 02a0 58020000 		.4byte	0x258
 2449 02a4 00       		.byte	0
 2450 02a5 06       		.uleb128 0x6
 2451 02a6 5B050000 		.4byte	.LASF30
 2452 02aa 0A       		.byte	0xa
 2453 02ab B9       		.byte	0xb9
 2454 02ac 58020000 		.4byte	0x258
 2455 02b0 04       		.byte	0x4
 2456 02b1 00       		.byte	0
 2457 02b2 04       		.uleb128 0x4
 2458 02b3 07000000 		.4byte	.LASF54
 2459 02b7 09       		.byte	0x9
 2460 02b8 57       		.byte	0x57
 2461 02b9 BD020000 		.4byte	0x2bd
 2462 02bd 0A       		.uleb128 0xa
 2463 02be 14040000 		.4byte	.LASF55
 2464 02c2 1C       		.byte	0x1c
 2465 02c3 0A       		.byte	0xa
 2466 02c4 9001     		.2byte	0x190
 2467 02c6 19030000 		.4byte	0x319
 2468 02ca 08       		.uleb128 0x8
 2469 02cb 32060000 		.4byte	.LASF56
 2470 02cf 0A       		.byte	0xa
 2471 02d0 9101     		.2byte	0x191
 2472 02d2 82020000 		.4byte	0x282
 2473 02d6 00       		.byte	0
 2474 02d7 08       		.uleb128 0x8
 2475 02d8 B9050000 		.4byte	.LASF57
 2476 02dc 0A       		.byte	0xa
 2477 02dd 9201     		.2byte	0x192
 2478 02df FA000000 		.4byte	0xfa
 2479 02e3 08       		.byte	0x8
 2480 02e4 08       		.uleb128 0x8
 2481 02e5 CD040000 		.4byte	.LASF58
 2482 02e9 0A       		.byte	0xa
 2483 02ea 9401     		.2byte	0x194
 2484 02ec C1040000 		.4byte	0x4c1
 2485 02f0 0C       		.byte	0xc
 2486 02f1 08       		.uleb128 0x8
 2487 02f2 3D030000 		.4byte	.LASF59
 2488 02f6 0A       		.byte	0xa
 2489 02f7 9701     		.2byte	0x197
 2490 02f9 58020000 		.4byte	0x258
 2491 02fd 10       		.byte	0x10
 2492 02fe 08       		.uleb128 0x8
 2493 02ff 0D050000 		.4byte	.LASF60
 2494 0303 0A       		.byte	0xa
 2495 0304 9801     		.2byte	0x198
 2496 0306 58020000 		.4byte	0x258
 2497 030a 14       		.byte	0x14
 2498 030b 08       		.uleb128 0x8
 2499 030c 03050000 		.4byte	.LASF61
 2500 0310 0A       		.byte	0xa
 2501 0311 9B01     		.2byte	0x19b
 2502 0313 58020000 		.4byte	0x258
 2503 0317 18       		.byte	0x18
 2504 0318 00       		.byte	0
ARM GAS  /tmp/ccUx4H0Q.s 			page 108


 2505 0319 04       		.uleb128 0x4
 2506 031a AC060000 		.4byte	.LASF62
 2507 031e 09       		.byte	0x9
 2508 031f 5C       		.byte	0x5c
 2509 0320 24030000 		.4byte	0x324
 2510 0324 09       		.uleb128 0x9
 2511 0325 04       		.byte	0x4
 2512 0326 2A030000 		.4byte	0x32a
 2513 032a 0B       		.uleb128 0xb
 2514 032b 35030000 		.4byte	0x335
 2515 032f 0C       		.uleb128 0xc
 2516 0330 35030000 		.4byte	0x335
 2517 0334 00       		.byte	0
 2518 0335 0D       		.uleb128 0xd
 2519 0336 04       		.byte	0x4
 2520 0337 04       		.uleb128 0x4
 2521 0338 4B050000 		.4byte	.LASF63
 2522 033c 09       		.byte	0x9
 2523 033d 61       		.byte	0x61
 2524 033e 42030000 		.4byte	0x342
 2525 0342 0A       		.uleb128 0xa
 2526 0343 F9050000 		.4byte	.LASF64
 2527 0347 14       		.byte	0x14
 2528 0348 0A       		.byte	0xa
 2529 0349 6B01     		.2byte	0x16b
 2530 034b 91030000 		.4byte	0x391
 2531 034f 08       		.uleb128 0x8
 2532 0350 6A020000 		.4byte	.LASF65
 2533 0354 0A       		.byte	0xa
 2534 0355 6C01     		.2byte	0x16c
 2535 0357 7D070000 		.4byte	0x77d
 2536 035b 00       		.byte	0
 2537 035c 08       		.uleb128 0x8
 2538 035d 04020000 		.4byte	.LASF66
 2539 0361 0A       		.byte	0xa
 2540 0362 6D01     		.2byte	0x16d
 2541 0364 7D070000 		.4byte	0x77d
 2542 0368 04       		.byte	0x4
 2543 0369 08       		.uleb128 0x8
 2544 036a 79020000 		.4byte	.LASF67
 2545 036e 0A       		.byte	0xa
 2546 036f 6E01     		.2byte	0x16e
 2547 0371 31010000 		.4byte	0x131
 2548 0375 08       		.byte	0x8
 2549 0376 08       		.uleb128 0x8
 2550 0377 EB070000 		.4byte	.LASF68
 2551 037b 0A       		.byte	0xa
 2552 037c 6F01     		.2byte	0x16f
 2553 037e 19030000 		.4byte	0x319
 2554 0382 0C       		.byte	0xc
 2555 0383 08       		.uleb128 0x8
 2556 0384 2B070000 		.4byte	.LASF69
 2557 0388 0A       		.byte	0xa
 2558 0389 7101     		.2byte	0x171
 2559 038b 35030000 		.4byte	0x335
 2560 038f 10       		.byte	0x10
 2561 0390 00       		.byte	0
ARM GAS  /tmp/ccUx4H0Q.s 			page 109


 2562 0391 04       		.uleb128 0x4
 2563 0392 24010000 		.4byte	.LASF70
 2564 0396 09       		.byte	0x9
 2565 0397 66       		.byte	0x66
 2566 0398 9C030000 		.4byte	0x39c
 2567 039c 0A       		.uleb128 0xa
 2568 039d 7F040000 		.4byte	.LASF71
 2569 03a1 10       		.byte	0x10
 2570 03a2 0A       		.byte	0xa
 2571 03a3 7B01     		.2byte	0x17b
 2572 03a5 DE030000 		.4byte	0x3de
 2573 03a9 08       		.uleb128 0x8
 2574 03aa 6A020000 		.4byte	.LASF65
 2575 03ae 0A       		.byte	0xa
 2576 03af 7C01     		.2byte	0x17c
 2577 03b1 7D070000 		.4byte	0x77d
 2578 03b5 00       		.byte	0
 2579 03b6 08       		.uleb128 0x8
 2580 03b7 04020000 		.4byte	.LASF66
 2581 03bb 0A       		.byte	0xa
 2582 03bc 7E01     		.2byte	0x17e
 2583 03be 7D070000 		.4byte	0x77d
 2584 03c2 04       		.byte	0x4
 2585 03c3 08       		.uleb128 0x8
 2586 03c4 79020000 		.4byte	.LASF67
 2587 03c8 0A       		.byte	0xa
 2588 03c9 8001     		.2byte	0x180
 2589 03cb 31010000 		.4byte	0x131
 2590 03cf 08       		.byte	0x8
 2591 03d0 08       		.uleb128 0x8
 2592 03d1 B9040000 		.4byte	.LASF72
 2593 03d5 0A       		.byte	0xa
 2594 03d6 8801     		.2byte	0x188
 2595 03d8 31010000 		.4byte	0x131
 2596 03dc 0C       		.byte	0xc
 2597 03dd 00       		.byte	0
 2598 03de 04       		.uleb128 0x4
 2599 03df 7E000000 		.4byte	.LASF73
 2600 03e3 09       		.byte	0x9
 2601 03e4 6B       		.byte	0x6b
 2602 03e5 E9030000 		.4byte	0x3e9
 2603 03e9 0E       		.uleb128 0xe
 2604 03ea 0C020000 		.4byte	.LASF74
 2605 03ee 1404     		.2byte	0x414
 2606 03f0 0A       		.byte	0xa
 2607 03f1 A201     		.2byte	0x1a2
 2608 03f3 2C040000 		.4byte	0x42c
 2609 03f7 08       		.uleb128 0x8
 2610 03f8 D4060000 		.4byte	.LASF75
 2611 03fc 0A       		.byte	0xa
 2612 03fd AA01     		.2byte	0x1aa
 2613 03ff 83070000 		.4byte	0x783
 2614 0403 00       		.byte	0
 2615 0404 08       		.uleb128 0x8
 2616 0405 6C070000 		.4byte	.LASF76
 2617 0409 0A       		.byte	0xa
 2618 040a AF01     		.2byte	0x1af
ARM GAS  /tmp/ccUx4H0Q.s 			page 110


 2619 040c 1B010000 		.4byte	0x11b
 2620 0410 04       		.byte	0x4
 2621 0411 08       		.uleb128 0x8
 2622 0412 38020000 		.4byte	.LASF77
 2623 0416 0A       		.byte	0xa
 2624 0417 B301     		.2byte	0x1b3
 2625 0419 1B010000 		.4byte	0x11b
 2626 041d 08       		.byte	0x8
 2627 041e 08       		.uleb128 0x8
 2628 041f 9F070000 		.4byte	.LASF78
 2629 0423 0A       		.byte	0xa
 2630 0424 B901     		.2byte	0x1b9
 2631 0426 E3050000 		.4byte	0x5e3
 2632 042a 0C       		.byte	0xc
 2633 042b 00       		.byte	0
 2634 042c 04       		.uleb128 0x4
 2635 042d 09070000 		.4byte	.LASF79
 2636 0431 09       		.byte	0x9
 2637 0432 70       		.byte	0x70
 2638 0433 37040000 		.4byte	0x437
 2639 0437 0E       		.uleb128 0xe
 2640 0438 E8050000 		.4byte	.LASF80
 2641 043c D805     		.2byte	0x5d8
 2642 043e 0A       		.byte	0xa
 2643 043f C201     		.2byte	0x1c2
 2644 0441 A4040000 		.4byte	0x4a4
 2645 0445 08       		.uleb128 0x8
 2646 0446 74070000 		.4byte	.LASF81
 2647 044a 0A       		.byte	0xa
 2648 044b C601     		.2byte	0x1c6
 2649 044d B2020000 		.4byte	0x2b2
 2650 0451 00       		.byte	0
 2651 0452 08       		.uleb128 0x8
 2652 0453 9E010000 		.4byte	.LASF82
 2653 0457 0A       		.byte	0xa
 2654 0458 CA01     		.2byte	0x1ca
 2655 045a 91030000 		.4byte	0x391
 2656 045e 1C       		.byte	0x1c
 2657 045f 07       		.uleb128 0x7
 2658 0460 64626700 		.ascii	"dbg\000"
 2659 0464 0A       		.byte	0xa
 2660 0465 CE01     		.2byte	0x1ce
 2661 0467 DE030000 		.4byte	0x3de
 2662 046b 2C       		.byte	0x2c
 2663 046c 0F       		.uleb128 0xf
 2664 046d D1020000 		.4byte	.LASF83
 2665 0471 0A       		.byte	0xa
 2666 0472 D201     		.2byte	0x1d2
 2667 0474 3C010000 		.4byte	0x13c
 2668 0478 4004     		.2byte	0x440
 2669 047a 10       		.uleb128 0x10
 2670 047b 746D00   		.ascii	"tm\000"
 2671 047e 0A       		.byte	0xa
 2672 047f D701     		.2byte	0x1d7
 2673 0481 03060000 		.4byte	0x603
 2674 0485 A004     		.2byte	0x4a0
 2675 0487 0F       		.uleb128 0xf
ARM GAS  /tmp/ccUx4H0Q.s 			page 111


 2676 0488 40000000 		.4byte	.LASF84
 2677 048c 0A       		.byte	0xa
 2678 048d DD01     		.2byte	0x1dd
 2679 048f 95060000 		.4byte	0x695
 2680 0493 A804     		.2byte	0x4a8
 2681 0495 0F       		.uleb128 0xf
 2682 0496 8D000000 		.4byte	.LASF85
 2683 049a 0A       		.byte	0xa
 2684 049b E301     		.2byte	0x1e3
 2685 049d 88070000 		.4byte	0x788
 2686 04a1 E004     		.2byte	0x4e0
 2687 04a3 00       		.byte	0
 2688 04a4 03       		.uleb128 0x3
 2689 04a5 04       		.byte	0x4
 2690 04a6 07       		.byte	0x7
 2691 04a7 52040000 		.4byte	.LASF86
 2692 04ab 04       		.uleb128 0x4
 2693 04ac FB010000 		.4byte	.LASF87
 2694 04b0 0B       		.byte	0xb
 2695 04b1 65       		.byte	0x65
 2696 04b2 35030000 		.4byte	0x335
 2697 04b6 04       		.uleb128 0x4
 2698 04b7 3D040000 		.4byte	.LASF88
 2699 04bb 0B       		.byte	0xb
 2700 04bc 6D       		.byte	0x6d
 2701 04bd B8000000 		.4byte	0xb8
 2702 04c1 05       		.uleb128 0x5
 2703 04c2 F3060000 		.4byte	.LASF89
 2704 04c6 04       		.byte	0x4
 2705 04c7 0B       		.byte	0xb
 2706 04c8 89       		.byte	0x89
 2707 04c9 DA040000 		.4byte	0x4da
 2708 04cd 11       		.uleb128 0x11
 2709 04ce 72313300 		.ascii	"r13\000"
 2710 04d2 0B       		.byte	0xb
 2711 04d3 8A       		.byte	0x8a
 2712 04d4 55050000 		.4byte	0x555
 2713 04d8 00       		.byte	0
 2714 04d9 00       		.byte	0
 2715 04da 05       		.uleb128 0x5
 2716 04db 61000000 		.4byte	.LASF90
 2717 04df 24       		.byte	0x24
 2718 04e0 01       		.byte	0x1
 2719 04e1 FD       		.byte	0xfd
 2720 04e2 55050000 		.4byte	0x555
 2721 04e6 07       		.uleb128 0x7
 2722 04e7 723400   		.ascii	"r4\000"
 2723 04ea 01       		.byte	0x1
 2724 04eb 1001     		.2byte	0x110
 2725 04ed AB040000 		.4byte	0x4ab
 2726 04f1 00       		.byte	0
 2727 04f2 07       		.uleb128 0x7
 2728 04f3 723500   		.ascii	"r5\000"
 2729 04f6 01       		.byte	0x1
 2730 04f7 1101     		.2byte	0x111
 2731 04f9 AB040000 		.4byte	0x4ab
 2732 04fd 04       		.byte	0x4
ARM GAS  /tmp/ccUx4H0Q.s 			page 112


 2733 04fe 07       		.uleb128 0x7
 2734 04ff 723600   		.ascii	"r6\000"
 2735 0502 01       		.byte	0x1
 2736 0503 1201     		.2byte	0x112
 2737 0505 AB040000 		.4byte	0x4ab
 2738 0509 08       		.byte	0x8
 2739 050a 07       		.uleb128 0x7
 2740 050b 723700   		.ascii	"r7\000"
 2741 050e 01       		.byte	0x1
 2742 050f 1301     		.2byte	0x113
 2743 0511 AB040000 		.4byte	0x4ab
 2744 0515 0C       		.byte	0xc
 2745 0516 07       		.uleb128 0x7
 2746 0517 723800   		.ascii	"r8\000"
 2747 051a 01       		.byte	0x1
 2748 051b 1401     		.2byte	0x114
 2749 051d AB040000 		.4byte	0x4ab
 2750 0521 10       		.byte	0x10
 2751 0522 07       		.uleb128 0x7
 2752 0523 723900   		.ascii	"r9\000"
 2753 0526 01       		.byte	0x1
 2754 0527 1501     		.2byte	0x115
 2755 0529 AB040000 		.4byte	0x4ab
 2756 052d 14       		.byte	0x14
 2757 052e 07       		.uleb128 0x7
 2758 052f 72313000 		.ascii	"r10\000"
 2759 0533 01       		.byte	0x1
 2760 0534 1601     		.2byte	0x116
 2761 0536 AB040000 		.4byte	0x4ab
 2762 053a 18       		.byte	0x18
 2763 053b 07       		.uleb128 0x7
 2764 053c 72313100 		.ascii	"r11\000"
 2765 0540 01       		.byte	0x1
 2766 0541 1701     		.2byte	0x117
 2767 0543 AB040000 		.4byte	0x4ab
 2768 0547 1C       		.byte	0x1c
 2769 0548 07       		.uleb128 0x7
 2770 0549 6C7200   		.ascii	"lr\000"
 2771 054c 01       		.byte	0x1
 2772 054d 1801     		.2byte	0x118
 2773 054f AB040000 		.4byte	0x4ab
 2774 0553 20       		.byte	0x20
 2775 0554 00       		.byte	0
 2776 0555 09       		.uleb128 0x9
 2777 0556 04       		.byte	0x4
 2778 0557 DA040000 		.4byte	0x4da
 2779 055b 12       		.uleb128 0x12
 2780 055c 10       		.byte	0x10
 2781 055d 0C       		.byte	0xc
 2782 055e 51       		.byte	0x51
 2783 055f 94050000 		.4byte	0x594
 2784 0563 06       		.uleb128 0x6
 2785 0564 80010000 		.4byte	.LASF91
 2786 0568 0C       		.byte	0xc
 2787 0569 55       		.byte	0x55
 2788 056a 31010000 		.4byte	0x131
 2789 056e 00       		.byte	0
ARM GAS  /tmp/ccUx4H0Q.s 			page 113


 2790 056f 06       		.uleb128 0x6
 2791 0570 CC010000 		.4byte	.LASF92
 2792 0574 0C       		.byte	0xc
 2793 0575 59       		.byte	0x59
 2794 0576 58020000 		.4byte	0x258
 2795 057a 04       		.byte	0x4
 2796 057b 06       		.uleb128 0x6
 2797 057c DB070000 		.4byte	.LASF93
 2798 0580 0C       		.byte	0xc
 2799 0581 5D       		.byte	0x5d
 2800 0582 35030000 		.4byte	0x335
 2801 0586 08       		.byte	0x8
 2802 0587 06       		.uleb128 0x6
 2803 0588 F7000000 		.4byte	.LASF94
 2804 058c 0C       		.byte	0xc
 2805 058d 61       		.byte	0x61
 2806 058e 97000000 		.4byte	0x97
 2807 0592 0C       		.byte	0xc
 2808 0593 00       		.byte	0
 2809 0594 04       		.uleb128 0x4
 2810 0595 AA040000 		.4byte	.LASF95
 2811 0599 0C       		.byte	0xc
 2812 059a 62       		.byte	0x62
 2813 059b 5B050000 		.4byte	0x55b
 2814 059f 13       		.uleb128 0x13
 2815 05a0 0804     		.2byte	0x408
 2816 05a2 0C       		.byte	0xc
 2817 05a3 67       		.byte	0x67
 2818 05a4 CD050000 		.4byte	0x5cd
 2819 05a8 06       		.uleb128 0x6
 2820 05a9 E2010000 		.4byte	.LASF96
 2821 05ad 0C       		.byte	0xc
 2822 05ae 6B       		.byte	0x6b
 2823 05af 2C000000 		.4byte	0x2c
 2824 05b3 00       		.byte	0
 2825 05b4 06       		.uleb128 0x6
 2826 05b5 00000000 		.4byte	.LASF97
 2827 05b9 0C       		.byte	0xc
 2828 05ba 6F       		.byte	0x6f
 2829 05bb CD050000 		.4byte	0x5cd
 2830 05bf 04       		.byte	0x4
 2831 05c0 06       		.uleb128 0x6
 2832 05c1 41050000 		.4byte	.LASF98
 2833 05c5 0C       		.byte	0xc
 2834 05c6 73       		.byte	0x73
 2835 05c7 D3050000 		.4byte	0x5d3
 2836 05cb 08       		.byte	0x8
 2837 05cc 00       		.byte	0
 2838 05cd 09       		.uleb128 0x9
 2839 05ce 04       		.byte	0x4
 2840 05cf 94050000 		.4byte	0x594
 2841 05d3 14       		.uleb128 0x14
 2842 05d4 94050000 		.4byte	0x594
 2843 05d8 E3050000 		.4byte	0x5e3
 2844 05dc 15       		.uleb128 0x15
 2845 05dd A4040000 		.4byte	0x4a4
 2846 05e1 3F       		.byte	0x3f
ARM GAS  /tmp/ccUx4H0Q.s 			page 114


 2847 05e2 00       		.byte	0
 2848 05e3 04       		.uleb128 0x4
 2849 05e4 E5000000 		.4byte	.LASF99
 2850 05e8 0C       		.byte	0xc
 2851 05e9 74       		.byte	0x74
 2852 05ea 9F050000 		.4byte	0x59f
 2853 05ee 12       		.uleb128 0x12
 2854 05ef 04       		.byte	0x4
 2855 05f0 0D       		.byte	0xd
 2856 05f1 38       		.byte	0x38
 2857 05f2 03060000 		.4byte	0x603
 2858 05f6 06       		.uleb128 0x6
 2859 05f7 DE060000 		.4byte	.LASF100
 2860 05fb 0D       		.byte	0xd
 2861 05fc 3C       		.byte	0x3c
 2862 05fd C3000000 		.4byte	0xc3
 2863 0601 00       		.byte	0
 2864 0602 00       		.byte	0
 2865 0603 04       		.uleb128 0x4
 2866 0604 6E040000 		.4byte	.LASF101
 2867 0608 0D       		.byte	0xd
 2868 0609 3D       		.byte	0x3d
 2869 060a EE050000 		.4byte	0x5ee
 2870 060e 12       		.uleb128 0x12
 2871 060f 18       		.byte	0x18
 2872 0610 0D       		.byte	0xd
 2873 0611 48       		.byte	0x48
 2874 0612 51060000 		.4byte	0x651
 2875 0616 06       		.uleb128 0x6
 2876 0617 8B060000 		.4byte	.LASF102
 2877 061b 0D       		.byte	0xd
 2878 061c 49       		.byte	0x49
 2879 061d C3000000 		.4byte	0xc3
 2880 0621 00       		.byte	0
 2881 0622 06       		.uleb128 0x6
 2882 0623 A6000000 		.4byte	.LASF103
 2883 0627 0D       		.byte	0xd
 2884 0628 4A       		.byte	0x4a
 2885 0629 C3000000 		.4byte	0xc3
 2886 062d 04       		.byte	0x4
 2887 062e 06       		.uleb128 0x6
 2888 062f ED020000 		.4byte	.LASF104
 2889 0633 0D       		.byte	0xd
 2890 0634 4B       		.byte	0x4b
 2891 0635 C3000000 		.4byte	0xc3
 2892 0639 08       		.byte	0x8
 2893 063a 11       		.uleb128 0x11
 2894 063b 6E00     		.ascii	"n\000"
 2895 063d 0D       		.byte	0xd
 2896 063e 4C       		.byte	0x4c
 2897 063f 26010000 		.4byte	0x126
 2898 0643 0C       		.byte	0xc
 2899 0644 06       		.uleb128 0x6
 2900 0645 20050000 		.4byte	.LASF105
 2901 0649 0D       		.byte	0xd
 2902 064a 4D       		.byte	0x4d
 2903 064b CE000000 		.4byte	0xce
ARM GAS  /tmp/ccUx4H0Q.s 			page 115


 2904 064f 10       		.byte	0x10
 2905 0650 00       		.byte	0
 2906 0651 04       		.uleb128 0x4
 2907 0652 AC000000 		.4byte	.LASF106
 2908 0656 0D       		.byte	0xd
 2909 0657 4E       		.byte	0x4e
 2910 0658 0E060000 		.4byte	0x60e
 2911 065c 12       		.uleb128 0x12
 2912 065d 38       		.byte	0x38
 2913 065e 0E       		.byte	0xe
 2914 065f 38       		.byte	0x38
 2915 0660 95060000 		.4byte	0x695
 2916 0664 06       		.uleb128 0x6
 2917 0665 A1020000 		.4byte	.LASF107
 2918 0669 0E       		.byte	0xe
 2919 066a 39       		.byte	0x39
 2920 066b 26010000 		.4byte	0x126
 2921 066f 00       		.byte	0
 2922 0670 06       		.uleb128 0x6
 2923 0671 6A050000 		.4byte	.LASF108
 2924 0675 0E       		.byte	0xe
 2925 0676 3A       		.byte	0x3a
 2926 0677 26010000 		.4byte	0x126
 2927 067b 04       		.byte	0x4
 2928 067c 06       		.uleb128 0x6
 2929 067d C8070000 		.4byte	.LASF109
 2930 0681 0E       		.byte	0xe
 2931 0682 3B       		.byte	0x3b
 2932 0683 51060000 		.4byte	0x651
 2933 0687 08       		.byte	0x8
 2934 0688 06       		.uleb128 0x6
 2935 0689 09040000 		.4byte	.LASF110
 2936 068d 0E       		.byte	0xe
 2937 068e 3D       		.byte	0x3d
 2938 068f 51060000 		.4byte	0x651
 2939 0693 20       		.byte	0x20
 2940 0694 00       		.byte	0
 2941 0695 04       		.uleb128 0x4
 2942 0696 B8020000 		.4byte	.LASF111
 2943 069a 0E       		.byte	0xe
 2944 069b 3F       		.byte	0x3f
 2945 069c 5C060000 		.4byte	0x65c
 2946 06a0 16       		.uleb128 0x16
 2947 06a1 04       		.byte	0x4
 2948 06a2 0A       		.byte	0xa
 2949 06a3 FA       		.byte	0xfa
 2950 06a4 FD060000 		.4byte	0x6fd
 2951 06a8 17       		.uleb128 0x17
 2952 06a9 F2050000 		.4byte	.LASF112
 2953 06ad 0A       		.byte	0xa
 2954 06ae 0101     		.2byte	0x101
 2955 06b0 05010000 		.4byte	0x105
 2956 06b4 17       		.uleb128 0x17
 2957 06b5 0C010000 		.4byte	.LASF113
 2958 06b9 0A       		.byte	0xa
 2959 06ba 0801     		.2byte	0x108
 2960 06bc 05010000 		.4byte	0x105
ARM GAS  /tmp/ccUx4H0Q.s 			page 116


 2961 06c0 17       		.uleb128 0x17
 2962 06c1 82070000 		.4byte	.LASF114
 2963 06c5 0A       		.byte	0xa
 2964 06c6 0F01     		.2byte	0x10f
 2965 06c8 35030000 		.4byte	0x335
 2966 06cc 17       		.uleb128 0x17
 2967 06cd 23000000 		.4byte	.LASF115
 2968 06d1 0A       		.byte	0xa
 2969 06d2 1601     		.2byte	0x116
 2970 06d4 FD060000 		.4byte	0x6fd
 2971 06d8 17       		.uleb128 0x17
 2972 06d9 72020000 		.4byte	.LASF116
 2973 06dd 0A       		.byte	0xa
 2974 06de 1E01     		.2byte	0x11e
 2975 06e0 28070000 		.4byte	0x728
 2976 06e4 17       		.uleb128 0x17
 2977 06e5 2B060000 		.4byte	.LASF117
 2978 06e9 0A       		.byte	0xa
 2979 06ea 2701     		.2byte	0x127
 2980 06ec 5F070000 		.4byte	0x75f
 2981 06f0 17       		.uleb128 0x17
 2982 06f1 C0050000 		.4byte	.LASF118
 2983 06f5 0A       		.byte	0xa
 2984 06f6 2F01     		.2byte	0x12f
 2985 06f8 10010000 		.4byte	0x110
 2986 06fc 00       		.byte	0
 2987 06fd 09       		.uleb128 0x9
 2988 06fe 04       		.byte	0x4
 2989 06ff 4D020000 		.4byte	0x24d
 2990 0703 05       		.uleb128 0x5
 2991 0704 0A060000 		.4byte	.LASF119
 2992 0708 0C       		.byte	0xc
 2993 0709 04       		.byte	0x4
 2994 070a 34       		.byte	0x34
 2995 070b 28070000 		.4byte	0x728
 2996 070f 06       		.uleb128 0x6
 2997 0710 DA010000 		.4byte	.LASF120
 2998 0714 04       		.byte	0x4
 2999 0715 35       		.byte	0x35
 3000 0716 82020000 		.4byte	0x282
 3001 071a 00       		.byte	0
 3002 071b 06       		.uleb128 0x6
 3003 071c A7020000 		.4byte	.LASF121
 3004 0720 04       		.byte	0x4
 3005 0721 37       		.byte	0x37
 3006 0722 1B010000 		.4byte	0x11b
 3007 0726 08       		.byte	0x8
 3008 0727 00       		.byte	0
 3009 0728 09       		.uleb128 0x9
 3010 0729 04       		.byte	0x4
 3011 072a 03070000 		.4byte	0x703
 3012 072e 05       		.uleb128 0x5
 3013 072f 5C070000 		.4byte	.LASF122
 3014 0733 10       		.byte	0x10
 3015 0734 0F       		.byte	0xf
 3016 0735 39       		.byte	0x39
 3017 0736 5F070000 		.4byte	0x75f
ARM GAS  /tmp/ccUx4H0Q.s 			page 117


 3018 073a 06       		.uleb128 0x6
 3019 073b 96010000 		.4byte	.LASF123
 3020 073f 0F       		.byte	0xf
 3021 0740 3A       		.byte	0x3a
 3022 0741 82020000 		.4byte	0x282
 3023 0745 00       		.byte	0
 3024 0746 06       		.uleb128 0x6
 3025 0747 D3070000 		.4byte	.LASF124
 3026 074b 0F       		.byte	0xf
 3027 074c 3C       		.byte	0x3c
 3028 074d 58020000 		.4byte	0x258
 3029 0751 08       		.byte	0x8
 3030 0752 06       		.uleb128 0x6
 3031 0753 90060000 		.4byte	.LASF125
 3032 0757 0F       		.byte	0xf
 3033 0758 3E       		.byte	0x3e
 3034 0759 AE070000 		.4byte	0x7ae
 3035 075d 0C       		.byte	0xc
 3036 075e 00       		.byte	0
 3037 075f 09       		.uleb128 0x9
 3038 0760 04       		.byte	0x4
 3039 0761 2E070000 		.4byte	0x72e
 3040 0765 09       		.uleb128 0x9
 3041 0766 04       		.byte	0x4
 3042 0767 6B070000 		.4byte	0x76b
 3043 076b 18       		.uleb128 0x18
 3044 076c 70070000 		.4byte	0x770
 3045 0770 03       		.uleb128 0x3
 3046 0771 01       		.byte	0x1
 3047 0772 08       		.byte	0x8
 3048 0773 7D060000 		.4byte	.LASF126
 3049 0777 09       		.uleb128 0x9
 3050 0778 04       		.byte	0x4
 3051 0779 B6040000 		.4byte	0x4b6
 3052 077d 09       		.uleb128 0x9
 3053 077e 04       		.byte	0x4
 3054 077f 37030000 		.4byte	0x337
 3055 0783 19       		.uleb128 0x19
 3056 0784 65070000 		.4byte	0x765
 3057 0788 14       		.uleb128 0x14
 3058 0789 B6040000 		.4byte	0x4b6
 3059 078d 98070000 		.4byte	0x798
 3060 0791 15       		.uleb128 0x15
 3061 0792 A4040000 		.4byte	0x4a4
 3062 0796 1E       		.byte	0x1e
 3063 0797 00       		.byte	0
 3064 0798 04       		.uleb128 0x4
 3065 0799 00010000 		.4byte	.LASF127
 3066 079d 04       		.byte	0x4
 3067 079e 38       		.byte	0x38
 3068 079f 03070000 		.4byte	0x703
 3069 07a3 04       		.uleb128 0x4
 3070 07a4 2A020000 		.4byte	.LASF128
 3071 07a8 0F       		.byte	0xf
 3072 07a9 34       		.byte	0x34
 3073 07aa 2E070000 		.4byte	0x72e
 3074 07ae 09       		.uleb128 0x9
ARM GAS  /tmp/ccUx4H0Q.s 			page 118


 3075 07af 04       		.byte	0x4
 3076 07b0 A3070000 		.4byte	0x7a3
 3077 07b4 12       		.uleb128 0x12
 3078 07b5 28       		.byte	0x28
 3079 07b6 10       		.byte	0x10
 3080 07b7 38       		.byte	0x38
 3081 07b8 05080000 		.4byte	0x805
 3082 07bc 06       		.uleb128 0x6
 3083 07bd EB040000 		.4byte	.LASF129
 3084 07c1 10       		.byte	0x10
 3085 07c2 39       		.byte	0x39
 3086 07c3 05080000 		.4byte	0x805
 3087 07c7 00       		.byte	0
 3088 07c8 06       		.uleb128 0x6
 3089 07c9 89050000 		.4byte	.LASF130
 3090 07cd 10       		.byte	0x10
 3091 07ce 3B       		.byte	0x3b
 3092 07cf 05080000 		.4byte	0x805
 3093 07d3 04       		.byte	0x4
 3094 07d4 06       		.uleb128 0x6
 3095 07d5 3A010000 		.4byte	.LASF131
 3096 07d9 10       		.byte	0x10
 3097 07da 3D       		.byte	0x3d
 3098 07db 05080000 		.4byte	0x805
 3099 07df 08       		.byte	0x8
 3100 07e0 06       		.uleb128 0x6
 3101 07e1 EA010000 		.4byte	.LASF132
 3102 07e5 10       		.byte	0x10
 3103 07e6 3E       		.byte	0x3e
 3104 07e7 05080000 		.4byte	0x805
 3105 07eb 0C       		.byte	0xc
 3106 07ec 06       		.uleb128 0x6
 3107 07ed 41070000 		.4byte	.LASF133
 3108 07f1 10       		.byte	0x10
 3109 07f2 3F       		.byte	0x3f
 3110 07f3 98070000 		.4byte	0x798
 3111 07f7 10       		.byte	0x10
 3112 07f8 06       		.uleb128 0x6
 3113 07f9 95020000 		.4byte	.LASF134
 3114 07fd 10       		.byte	0x10
 3115 07fe 41       		.byte	0x41
 3116 07ff 98070000 		.4byte	0x798
 3117 0803 1C       		.byte	0x1c
 3118 0804 00       		.byte	0
 3119 0805 09       		.uleb128 0x9
 3120 0806 04       		.byte	0x4
 3121 0807 05010000 		.4byte	0x105
 3122 080b 04       		.uleb128 0x4
 3123 080c D3040000 		.4byte	.LASF135
 3124 0810 10       		.byte	0x10
 3125 0811 43       		.byte	0x43
 3126 0812 B4070000 		.4byte	0x7b4
 3127 0816 1A       		.uleb128 0x1a
 3128 0817 C6060000 		.4byte	.LASF167
 3129 081b 02       		.byte	0x2
 3130 081c 2202     		.2byte	0x222
 3131 081e 03       		.byte	0x3
ARM GAS  /tmp/ccUx4H0Q.s 			page 119


 3132 081f 30080000 		.4byte	0x830
 3133 0823 1B       		.uleb128 0x1b
 3134 0824 32020000 		.4byte	.LASF168
 3135 0828 02       		.byte	0x2
 3136 0829 2202     		.2byte	0x222
 3137 082b AD000000 		.4byte	0xad
 3138 082f 00       		.byte	0
 3139 0830 1C       		.uleb128 0x1c
 3140 0831 9C000000 		.4byte	.LASF136
 3141 0835 01       		.byte	0x1
 3142 0836 C801     		.2byte	0x1c8
 3143 0838 00000000 		.4byte	.LFB127
 3144 083c 10000000 		.4byte	.LFE127-.LFB127
 3145 0840 01       		.uleb128 0x1
 3146 0841 9C       		.byte	0x9c
 3147 0842 60080000 		.4byte	0x860
 3148 0846 1D       		.uleb128 0x1d
 3149 0847 16080000 		.4byte	0x816
 3150 084b 06000000 		.4byte	.LBB6
 3151 084f 06000000 		.4byte	.LBE6-.LBB6
 3152 0853 01       		.byte	0x1
 3153 0854 D001     		.2byte	0x1d0
 3154 0856 1E       		.uleb128 0x1e
 3155 0857 23080000 		.4byte	0x823
 3156 085b 02       		.uleb128 0x2
 3157 085c 91       		.byte	0x91
 3158 085d 7C       		.sleb128 -4
 3159 085e 00       		.byte	0
 3160 085f 00       		.byte	0
 3161 0860 1C       		.uleb128 0x1c
 3162 0861 A5010000 		.4byte	.LASF137
 3163 0865 01       		.byte	0x1
 3164 0866 E001     		.2byte	0x1e0
 3165 0868 00000000 		.4byte	.LFB128
 3166 086c 10000000 		.4byte	.LFE128-.LFB128
 3167 0870 01       		.uleb128 0x1
 3168 0871 9C       		.byte	0x9c
 3169 0872 90080000 		.4byte	0x890
 3170 0876 1D       		.uleb128 0x1d
 3171 0877 16080000 		.4byte	0x816
 3172 087b 06000000 		.4byte	.LBB8
 3173 087f 06000000 		.4byte	.LBE8-.LBB8
 3174 0883 01       		.byte	0x1
 3175 0884 E301     		.2byte	0x1e3
 3176 0886 1E       		.uleb128 0x1e
 3177 0887 23080000 		.4byte	0x823
 3178 088b 02       		.uleb128 0x2
 3179 088c 91       		.byte	0x91
 3180 088d 7C       		.sleb128 -4
 3181 088e 00       		.byte	0
 3182 088f 00       		.byte	0
 3183 0890 1F       		.uleb128 0x1f
 3184 0891 DE050000 		.4byte	.LASF169
 3185 0895 03       		.byte	0x3
 3186 0896 5A01     		.2byte	0x15a
 3187 0898 00000000 		.4byte	.LFB167
 3188 089c 10000000 		.4byte	.LFE167-.LFB167
ARM GAS  /tmp/ccUx4H0Q.s 			page 120


 3189 08a0 01       		.uleb128 0x1
 3190 08a1 9C       		.byte	0x9c
 3191 08a2 20       		.uleb128 0x20
 3192 08a3 AC070000 		.4byte	.LASF138
 3193 08a7 03       		.byte	0x3
 3194 08a8 6601     		.2byte	0x166
 3195 08aa 00000000 		.4byte	.LFB168
 3196 08ae 4E000000 		.4byte	.LFE168-.LFB168
 3197 08b2 01       		.uleb128 0x1
 3198 08b3 9C       		.byte	0x9c
 3199 08b4 C8080000 		.4byte	0x8c8
 3200 08b8 21       		.uleb128 0x21
 3201 08b9 2B050000 		.4byte	.LASF140
 3202 08bd D8080000 		.4byte	0x8d8
 3203 08c1 05       		.uleb128 0x5
 3204 08c2 03       		.byte	0x3
 3205 08c3 00000000 		.4byte	__func__.5915
 3206 08c7 00       		.byte	0
 3207 08c8 14       		.uleb128 0x14
 3208 08c9 70070000 		.4byte	0x770
 3209 08cd D8080000 		.4byte	0x8d8
 3210 08d1 15       		.uleb128 0x15
 3211 08d2 A4040000 		.4byte	0x4a4
 3212 08d6 0B       		.byte	0xb
 3213 08d7 00       		.byte	0
 3214 08d8 18       		.uleb128 0x18
 3215 08d9 C8080000 		.4byte	0x8c8
 3216 08dd 22       		.uleb128 0x22
 3217 08de 32070000 		.4byte	.LASF139
 3218 08e2 04       		.byte	0x4
 3219 08e3 76       		.byte	0x76
 3220 08e4 00000000 		.4byte	.LFB201
 3221 08e8 1A000000 		.4byte	.LFE201-.LFB201
 3222 08ec 01       		.uleb128 0x1
 3223 08ed 9C       		.byte	0x9c
 3224 08ee 00090000 		.4byte	0x900
 3225 08f2 23       		.uleb128 0x23
 3226 08f3 737000   		.ascii	"sp\000"
 3227 08f6 04       		.byte	0x4
 3228 08f7 76       		.byte	0x76
 3229 08f8 00090000 		.4byte	0x900
 3230 08fc 02       		.uleb128 0x2
 3231 08fd 91       		.byte	0x91
 3232 08fe 74       		.sleb128 -12
 3233 08ff 00       		.byte	0
 3234 0900 09       		.uleb128 0x9
 3235 0901 04       		.byte	0x4
 3236 0902 98070000 		.4byte	0x798
 3237 0906 24       		.uleb128 0x24
 3238 0907 B5060000 		.4byte	.LASF170
 3239 090b 04       		.byte	0x4
 3240 090c 95       		.byte	0x95
 3241 090d 1B010000 		.4byte	0x11b
 3242 0911 00000000 		.4byte	.LFB203
 3243 0915 16000000 		.4byte	.LFE203-.LFB203
 3244 0919 01       		.uleb128 0x1
 3245 091a 9C       		.byte	0x9c
ARM GAS  /tmp/ccUx4H0Q.s 			page 121


 3246 091b 2D090000 		.4byte	0x92d
 3247 091f 23       		.uleb128 0x23
 3248 0920 737000   		.ascii	"sp\000"
 3249 0923 04       		.byte	0x4
 3250 0924 95       		.byte	0x95
 3251 0925 00090000 		.4byte	0x900
 3252 0929 02       		.uleb128 0x2
 3253 092a 91       		.byte	0x91
 3254 092b 74       		.sleb128 -12
 3255 092c 00       		.byte	0
 3256 092d 25       		.uleb128 0x25
 3257 092e 14000000 		.4byte	.LASF142
 3258 0932 05       		.byte	0x5
 3259 0933 56       		.byte	0x56
 3260 0934 00000000 		.4byte	.LFB241
 3261 0938 64000000 		.4byte	.LFE241-.LFB241
 3262 093c 01       		.uleb128 0x1
 3263 093d 9C       		.byte	0x9c
 3264 093e 7A090000 		.4byte	0x97a
 3265 0942 23       		.uleb128 0x23
 3266 0943 6D627000 		.ascii	"mbp\000"
 3267 0947 05       		.byte	0x5
 3268 0948 56       		.byte	0x56
 3269 0949 7A090000 		.4byte	0x97a
 3270 094d 02       		.uleb128 0x2
 3271 094e 91       		.byte	0x91
 3272 094f 74       		.sleb128 -12
 3273 0950 23       		.uleb128 0x23
 3274 0951 62756600 		.ascii	"buf\000"
 3275 0955 05       		.byte	0x5
 3276 0956 56       		.byte	0x56
 3277 0957 05080000 		.4byte	0x805
 3278 095b 02       		.uleb128 0x2
 3279 095c 91       		.byte	0x91
 3280 095d 70       		.sleb128 -16
 3281 095e 23       		.uleb128 0x23
 3282 095f 6E00     		.ascii	"n\000"
 3283 0961 05       		.byte	0x5
 3284 0962 56       		.byte	0x56
 3285 0963 1B010000 		.4byte	0x11b
 3286 0967 02       		.uleb128 0x2
 3287 0968 91       		.byte	0x91
 3288 0969 6C       		.sleb128 -20
 3289 096a 21       		.uleb128 0x21
 3290 096b 29000000 		.4byte	.LASF141
 3291 096f 90090000 		.4byte	0x990
 3292 0973 05       		.uleb128 0x5
 3293 0974 03       		.byte	0x3
 3294 0975 00000000 		.4byte	__func__.6615
 3295 0979 00       		.byte	0
 3296 097a 09       		.uleb128 0x9
 3297 097b 04       		.byte	0x4
 3298 097c 0B080000 		.4byte	0x80b
 3299 0980 14       		.uleb128 0x14
 3300 0981 70070000 		.4byte	0x770
 3301 0985 90090000 		.4byte	0x990
 3302 0989 15       		.uleb128 0x15
ARM GAS  /tmp/ccUx4H0Q.s 			page 122


 3303 098a A4040000 		.4byte	0x4a4
 3304 098e 0E       		.byte	0xe
 3305 098f 00       		.byte	0
 3306 0990 18       		.uleb128 0x18
 3307 0991 80090000 		.4byte	0x980
 3308 0995 25       		.uleb128 0x25
 3309 0996 A0040000 		.4byte	.LASF143
 3310 099a 05       		.byte	0x5
 3311 099b 6B       		.byte	0x6b
 3312 099c 00000000 		.4byte	.LFB242
 3313 09a0 1E000000 		.4byte	.LFE242-.LFB242
 3314 09a4 01       		.uleb128 0x1
 3315 09a5 9C       		.byte	0x9c
 3316 09a6 B9090000 		.4byte	0x9b9
 3317 09aa 23       		.uleb128 0x23
 3318 09ab 6D627000 		.ascii	"mbp\000"
 3319 09af 05       		.byte	0x5
 3320 09b0 6B       		.byte	0x6b
 3321 09b1 7A090000 		.4byte	0x97a
 3322 09b5 02       		.uleb128 0x2
 3323 09b6 91       		.byte	0x91
 3324 09b7 74       		.sleb128 -12
 3325 09b8 00       		.byte	0
 3326 09b9 25       		.uleb128 0x25
 3327 09ba AD020000 		.4byte	.LASF144
 3328 09be 05       		.byte	0x5
 3329 09bf 7C       		.byte	0x7c
 3330 09c0 00000000 		.4byte	.LFB243
 3331 09c4 5A000000 		.4byte	.LFE243-.LFB243
 3332 09c8 01       		.uleb128 0x1
 3333 09c9 9C       		.byte	0x9c
 3334 09ca EC090000 		.4byte	0x9ec
 3335 09ce 23       		.uleb128 0x23
 3336 09cf 6D627000 		.ascii	"mbp\000"
 3337 09d3 05       		.byte	0x5
 3338 09d4 7C       		.byte	0x7c
 3339 09d5 7A090000 		.4byte	0x97a
 3340 09d9 02       		.uleb128 0x2
 3341 09da 91       		.byte	0x91
 3342 09db 74       		.sleb128 -12
 3343 09dc 21       		.uleb128 0x21
 3344 09dd 88010000 		.4byte	.LASF145
 3345 09e1 FC090000 		.4byte	0x9fc
 3346 09e5 05       		.uleb128 0x5
 3347 09e6 03       		.byte	0x3
 3348 09e7 00000000 		.4byte	__func__.6622
 3349 09eb 00       		.byte	0
 3350 09ec 14       		.uleb128 0x14
 3351 09ed 70070000 		.4byte	0x770
 3352 09f1 FC090000 		.4byte	0x9fc
 3353 09f5 15       		.uleb128 0x15
 3354 09f6 A4040000 		.4byte	0x4a4
 3355 09fa 0A       		.byte	0xa
 3356 09fb 00       		.byte	0
 3357 09fc 18       		.uleb128 0x18
 3358 09fd EC090000 		.4byte	0x9ec
 3359 0a01 26       		.uleb128 0x26
ARM GAS  /tmp/ccUx4H0Q.s 			page 123


 3360 0a02 B1010000 		.4byte	.LASF147
 3361 0a06 05       		.byte	0x5
 3362 0a07 9A       		.byte	0x9a
 3363 0a08 05010000 		.4byte	0x105
 3364 0a0c 00000000 		.4byte	.LFB244
 3365 0a10 28000000 		.4byte	.LFE244-.LFB244
 3366 0a14 01       		.uleb128 0x1
 3367 0a15 9C       		.byte	0x9c
 3368 0a16 530A0000 		.4byte	0xa53
 3369 0a1a 23       		.uleb128 0x23
 3370 0a1b 6D627000 		.ascii	"mbp\000"
 3371 0a1f 05       		.byte	0x5
 3372 0a20 9A       		.byte	0x9a
 3373 0a21 7A090000 		.4byte	0x97a
 3374 0a25 02       		.uleb128 0x2
 3375 0a26 91       		.byte	0x91
 3376 0a27 6C       		.sleb128 -20
 3377 0a28 23       		.uleb128 0x23
 3378 0a29 6D736700 		.ascii	"msg\000"
 3379 0a2d 05       		.byte	0x5
 3380 0a2e 9A       		.byte	0x9a
 3381 0a2f 05010000 		.4byte	0x105
 3382 0a33 02       		.uleb128 0x2
 3383 0a34 91       		.byte	0x91
 3384 0a35 68       		.sleb128 -24
 3385 0a36 27       		.uleb128 0x27
 3386 0a37 8D020000 		.4byte	.LASF146
 3387 0a3b 05       		.byte	0x5
 3388 0a3c 9A       		.byte	0x9a
 3389 0a3d 31010000 		.4byte	0x131
 3390 0a41 02       		.uleb128 0x2
 3391 0a42 91       		.byte	0x91
 3392 0a43 64       		.sleb128 -28
 3393 0a44 28       		.uleb128 0x28
 3394 0a45 F2050000 		.4byte	.LASF112
 3395 0a49 05       		.byte	0x5
 3396 0a4a 9B       		.byte	0x9b
 3397 0a4b 05010000 		.4byte	0x105
 3398 0a4f 02       		.uleb128 0x2
 3399 0a50 91       		.byte	0x91
 3400 0a51 74       		.sleb128 -12
 3401 0a52 00       		.byte	0
 3402 0a53 26       		.uleb128 0x26
 3403 0a54 BE070000 		.4byte	.LASF148
 3404 0a58 05       		.byte	0x5
 3405 0a59 B7       		.byte	0xb7
 3406 0a5a 05010000 		.4byte	0x105
 3407 0a5e 00000000 		.4byte	.LFB245
 3408 0a62 6E000000 		.4byte	.LFE245-.LFB245
 3409 0a66 01       		.uleb128 0x1
 3410 0a67 9C       		.byte	0x9c
 3411 0a68 B40A0000 		.4byte	0xab4
 3412 0a6c 23       		.uleb128 0x23
 3413 0a6d 6D627000 		.ascii	"mbp\000"
 3414 0a71 05       		.byte	0x5
 3415 0a72 B7       		.byte	0xb7
 3416 0a73 7A090000 		.4byte	0x97a
ARM GAS  /tmp/ccUx4H0Q.s 			page 124


 3417 0a77 02       		.uleb128 0x2
 3418 0a78 91       		.byte	0x91
 3419 0a79 6C       		.sleb128 -20
 3420 0a7a 23       		.uleb128 0x23
 3421 0a7b 6D736700 		.ascii	"msg\000"
 3422 0a7f 05       		.byte	0x5
 3423 0a80 B7       		.byte	0xb7
 3424 0a81 05010000 		.4byte	0x105
 3425 0a85 02       		.uleb128 0x2
 3426 0a86 91       		.byte	0x91
 3427 0a87 68       		.sleb128 -24
 3428 0a88 27       		.uleb128 0x27
 3429 0a89 8D020000 		.4byte	.LASF146
 3430 0a8d 05       		.byte	0x5
 3431 0a8e B7       		.byte	0xb7
 3432 0a8f 31010000 		.4byte	0x131
 3433 0a93 02       		.uleb128 0x2
 3434 0a94 91       		.byte	0x91
 3435 0a95 64       		.sleb128 -28
 3436 0a96 28       		.uleb128 0x28
 3437 0a97 F2050000 		.4byte	.LASF112
 3438 0a9b 05       		.byte	0x5
 3439 0a9c B8       		.byte	0xb8
 3440 0a9d 05010000 		.4byte	0x105
 3441 0aa1 02       		.uleb128 0x2
 3442 0aa2 91       		.byte	0x91
 3443 0aa3 74       		.sleb128 -12
 3444 0aa4 21       		.uleb128 0x21
 3445 0aa5 1C020000 		.4byte	.LASF149
 3446 0aa9 C40A0000 		.4byte	0xac4
 3447 0aad 05       		.uleb128 0x5
 3448 0aae 03       		.byte	0x3
 3449 0aaf 00000000 		.4byte	__func__.6635
 3450 0ab3 00       		.byte	0
 3451 0ab4 14       		.uleb128 0x14
 3452 0ab5 70070000 		.4byte	0x770
 3453 0ab9 C40A0000 		.4byte	0xac4
 3454 0abd 15       		.uleb128 0x15
 3455 0abe A4040000 		.4byte	0x4a4
 3456 0ac2 09       		.byte	0x9
 3457 0ac3 00       		.byte	0
 3458 0ac4 18       		.uleb128 0x18
 3459 0ac5 B40A0000 		.4byte	0xab4
 3460 0ac9 26       		.uleb128 0x26
 3461 0aca 57000000 		.4byte	.LASF150
 3462 0ace 05       		.byte	0x5
 3463 0acf D8       		.byte	0xd8
 3464 0ad0 05010000 		.4byte	0x105
 3465 0ad4 00000000 		.4byte	.LFB246
 3466 0ad8 74000000 		.4byte	.LFE246-.LFB246
 3467 0adc 01       		.uleb128 0x1
 3468 0add 9C       		.byte	0x9c
 3469 0ade 0E0B0000 		.4byte	0xb0e
 3470 0ae2 23       		.uleb128 0x23
 3471 0ae3 6D627000 		.ascii	"mbp\000"
 3472 0ae7 05       		.byte	0x5
 3473 0ae8 D8       		.byte	0xd8
ARM GAS  /tmp/ccUx4H0Q.s 			page 125


 3474 0ae9 7A090000 		.4byte	0x97a
 3475 0aed 02       		.uleb128 0x2
 3476 0aee 91       		.byte	0x91
 3477 0aef 74       		.sleb128 -12
 3478 0af0 23       		.uleb128 0x23
 3479 0af1 6D736700 		.ascii	"msg\000"
 3480 0af5 05       		.byte	0x5
 3481 0af6 D8       		.byte	0xd8
 3482 0af7 05010000 		.4byte	0x105
 3483 0afb 02       		.uleb128 0x2
 3484 0afc 91       		.byte	0x91
 3485 0afd 70       		.sleb128 -16
 3486 0afe 21       		.uleb128 0x21
 3487 0aff 45030000 		.4byte	.LASF151
 3488 0b03 0E0B0000 		.4byte	0xb0e
 3489 0b07 05       		.uleb128 0x5
 3490 0b08 03       		.byte	0x3
 3491 0b09 00000000 		.4byte	__func__.6640
 3492 0b0d 00       		.byte	0
 3493 0b0e 18       		.uleb128 0x18
 3494 0b0f B40A0000 		.4byte	0xab4
 3495 0b13 26       		.uleb128 0x26
 3496 0b14 15070000 		.4byte	.LASF152
 3497 0b18 05       		.byte	0x5
 3498 0b19 FE       		.byte	0xfe
 3499 0b1a 05010000 		.4byte	0x105
 3500 0b1e 00000000 		.4byte	.LFB247
 3501 0b22 28000000 		.4byte	.LFE247-.LFB247
 3502 0b26 01       		.uleb128 0x1
 3503 0b27 9C       		.byte	0x9c
 3504 0b28 650B0000 		.4byte	0xb65
 3505 0b2c 23       		.uleb128 0x23
 3506 0b2d 6D627000 		.ascii	"mbp\000"
 3507 0b31 05       		.byte	0x5
 3508 0b32 FE       		.byte	0xfe
 3509 0b33 7A090000 		.4byte	0x97a
 3510 0b37 02       		.uleb128 0x2
 3511 0b38 91       		.byte	0x91
 3512 0b39 6C       		.sleb128 -20
 3513 0b3a 23       		.uleb128 0x23
 3514 0b3b 6D736700 		.ascii	"msg\000"
 3515 0b3f 05       		.byte	0x5
 3516 0b40 FE       		.byte	0xfe
 3517 0b41 05010000 		.4byte	0x105
 3518 0b45 02       		.uleb128 0x2
 3519 0b46 91       		.byte	0x91
 3520 0b47 68       		.sleb128 -24
 3521 0b48 27       		.uleb128 0x27
 3522 0b49 8D020000 		.4byte	.LASF146
 3523 0b4d 05       		.byte	0x5
 3524 0b4e FE       		.byte	0xfe
 3525 0b4f 31010000 		.4byte	0x131
 3526 0b53 02       		.uleb128 0x2
 3527 0b54 91       		.byte	0x91
 3528 0b55 64       		.sleb128 -28
 3529 0b56 28       		.uleb128 0x28
 3530 0b57 F2050000 		.4byte	.LASF112
ARM GAS  /tmp/ccUx4H0Q.s 			page 126


 3531 0b5b 05       		.byte	0x5
 3532 0b5c FF       		.byte	0xff
 3533 0b5d 05010000 		.4byte	0x105
 3534 0b61 02       		.uleb128 0x2
 3535 0b62 91       		.byte	0x91
 3536 0b63 74       		.sleb128 -12
 3537 0b64 00       		.byte	0
 3538 0b65 29       		.uleb128 0x29
 3539 0b66 15010000 		.4byte	.LASF153
 3540 0b6a 05       		.byte	0x5
 3541 0b6b 1B01     		.2byte	0x11b
 3542 0b6d 05010000 		.4byte	0x105
 3543 0b71 00000000 		.4byte	.LFB248
 3544 0b75 74000000 		.4byte	.LFE248-.LFB248
 3545 0b79 01       		.uleb128 0x1
 3546 0b7a 9C       		.byte	0x9c
 3547 0b7b CB0B0000 		.4byte	0xbcb
 3548 0b7f 2A       		.uleb128 0x2a
 3549 0b80 6D627000 		.ascii	"mbp\000"
 3550 0b84 05       		.byte	0x5
 3551 0b85 1B01     		.2byte	0x11b
 3552 0b87 7A090000 		.4byte	0x97a
 3553 0b8b 02       		.uleb128 0x2
 3554 0b8c 91       		.byte	0x91
 3555 0b8d 6C       		.sleb128 -20
 3556 0b8e 2A       		.uleb128 0x2a
 3557 0b8f 6D736700 		.ascii	"msg\000"
 3558 0b93 05       		.byte	0x5
 3559 0b94 1B01     		.2byte	0x11b
 3560 0b96 05010000 		.4byte	0x105
 3561 0b9a 02       		.uleb128 0x2
 3562 0b9b 91       		.byte	0x91
 3563 0b9c 68       		.sleb128 -24
 3564 0b9d 2B       		.uleb128 0x2b
 3565 0b9e 8D020000 		.4byte	.LASF146
 3566 0ba2 05       		.byte	0x5
 3567 0ba3 1B01     		.2byte	0x11b
 3568 0ba5 31010000 		.4byte	0x131
 3569 0ba9 02       		.uleb128 0x2
 3570 0baa 91       		.byte	0x91
 3571 0bab 64       		.sleb128 -28
 3572 0bac 2C       		.uleb128 0x2c
 3573 0bad F2050000 		.4byte	.LASF112
 3574 0bb1 05       		.byte	0x5
 3575 0bb2 1C01     		.2byte	0x11c
 3576 0bb4 05010000 		.4byte	0x105
 3577 0bb8 02       		.uleb128 0x2
 3578 0bb9 91       		.byte	0x91
 3579 0bba 74       		.sleb128 -12
 3580 0bbb 21       		.uleb128 0x21
 3581 0bbc DD040000 		.4byte	.LASF154
 3582 0bc0 CB0B0000 		.4byte	0xbcb
 3583 0bc4 05       		.uleb128 0x5
 3584 0bc5 03       		.byte	0x3
 3585 0bc6 00000000 		.4byte	__func__.6653
 3586 0bca 00       		.byte	0
 3587 0bcb 18       		.uleb128 0x18
ARM GAS  /tmp/ccUx4H0Q.s 			page 127


 3588 0bcc 80090000 		.4byte	0x980
 3589 0bd0 29       		.uleb128 0x29
 3590 0bd1 BF000000 		.4byte	.LASF155
 3591 0bd5 05       		.byte	0x5
 3592 0bd6 3C01     		.2byte	0x13c
 3593 0bd8 05010000 		.4byte	0x105
 3594 0bdc 00000000 		.4byte	.LFB249
 3595 0be0 7A000000 		.4byte	.LFE249-.LFB249
 3596 0be4 01       		.uleb128 0x1
 3597 0be5 9C       		.byte	0x9c
 3598 0be6 180C0000 		.4byte	0xc18
 3599 0bea 2A       		.uleb128 0x2a
 3600 0beb 6D627000 		.ascii	"mbp\000"
 3601 0bef 05       		.byte	0x5
 3602 0bf0 3C01     		.2byte	0x13c
 3603 0bf2 7A090000 		.4byte	0x97a
 3604 0bf6 02       		.uleb128 0x2
 3605 0bf7 91       		.byte	0x91
 3606 0bf8 74       		.sleb128 -12
 3607 0bf9 2A       		.uleb128 0x2a
 3608 0bfa 6D736700 		.ascii	"msg\000"
 3609 0bfe 05       		.byte	0x5
 3610 0bff 3C01     		.2byte	0x13c
 3611 0c01 05010000 		.4byte	0x105
 3612 0c05 02       		.uleb128 0x2
 3613 0c06 91       		.byte	0x91
 3614 0c07 70       		.sleb128 -16
 3615 0c08 21       		.uleb128 0x21
 3616 0c09 F5040000 		.4byte	.LASF156
 3617 0c0d 180C0000 		.4byte	0xc18
 3618 0c11 05       		.uleb128 0x5
 3619 0c12 03       		.byte	0x3
 3620 0c13 00000000 		.4byte	__func__.6658
 3621 0c17 00       		.byte	0
 3622 0c18 18       		.uleb128 0x18
 3623 0c19 80090000 		.4byte	0x980
 3624 0c1d 29       		.uleb128 0x29
 3625 0c1e 96040000 		.4byte	.LASF157
 3626 0c22 05       		.byte	0x5
 3627 0c23 6101     		.2byte	0x161
 3628 0c25 05010000 		.4byte	0x105
 3629 0c29 00000000 		.4byte	.LFB250
 3630 0c2d 28000000 		.4byte	.LFE250-.LFB250
 3631 0c31 01       		.uleb128 0x1
 3632 0c32 9C       		.byte	0x9c
 3633 0c33 740C0000 		.4byte	0xc74
 3634 0c37 2A       		.uleb128 0x2a
 3635 0c38 6D627000 		.ascii	"mbp\000"
 3636 0c3c 05       		.byte	0x5
 3637 0c3d 6101     		.2byte	0x161
 3638 0c3f 7A090000 		.4byte	0x97a
 3639 0c43 02       		.uleb128 0x2
 3640 0c44 91       		.byte	0x91
 3641 0c45 6C       		.sleb128 -20
 3642 0c46 2B       		.uleb128 0x2b
 3643 0c47 38040000 		.4byte	.LASF158
 3644 0c4b 05       		.byte	0x5
ARM GAS  /tmp/ccUx4H0Q.s 			page 128


 3645 0c4c 6101     		.2byte	0x161
 3646 0c4e 05080000 		.4byte	0x805
 3647 0c52 02       		.uleb128 0x2
 3648 0c53 91       		.byte	0x91
 3649 0c54 68       		.sleb128 -24
 3650 0c55 2B       		.uleb128 0x2b
 3651 0c56 8D020000 		.4byte	.LASF146
 3652 0c5a 05       		.byte	0x5
 3653 0c5b 6101     		.2byte	0x161
 3654 0c5d 31010000 		.4byte	0x131
 3655 0c61 02       		.uleb128 0x2
 3656 0c62 91       		.byte	0x91
 3657 0c63 64       		.sleb128 -28
 3658 0c64 2C       		.uleb128 0x2c
 3659 0c65 F2050000 		.4byte	.LASF112
 3660 0c69 05       		.byte	0x5
 3661 0c6a 6201     		.2byte	0x162
 3662 0c6c 05010000 		.4byte	0x105
 3663 0c70 02       		.uleb128 0x2
 3664 0c71 91       		.byte	0x91
 3665 0c72 74       		.sleb128 -12
 3666 0c73 00       		.byte	0
 3667 0c74 29       		.uleb128 0x29
 3668 0c75 53030000 		.4byte	.LASF159
 3669 0c79 05       		.byte	0x5
 3670 0c7a 7E01     		.2byte	0x17e
 3671 0c7c 05010000 		.4byte	0x105
 3672 0c80 00000000 		.4byte	.LFB251
 3673 0c84 76000000 		.4byte	.LFE251-.LFB251
 3674 0c88 01       		.uleb128 0x1
 3675 0c89 9C       		.byte	0x9c
 3676 0c8a DA0C0000 		.4byte	0xcda
 3677 0c8e 2A       		.uleb128 0x2a
 3678 0c8f 6D627000 		.ascii	"mbp\000"
 3679 0c93 05       		.byte	0x5
 3680 0c94 7E01     		.2byte	0x17e
 3681 0c96 7A090000 		.4byte	0x97a
 3682 0c9a 02       		.uleb128 0x2
 3683 0c9b 91       		.byte	0x91
 3684 0c9c 6C       		.sleb128 -20
 3685 0c9d 2B       		.uleb128 0x2b
 3686 0c9e 38040000 		.4byte	.LASF158
 3687 0ca2 05       		.byte	0x5
 3688 0ca3 7E01     		.2byte	0x17e
 3689 0ca5 05080000 		.4byte	0x805
 3690 0ca9 02       		.uleb128 0x2
 3691 0caa 91       		.byte	0x91
 3692 0cab 68       		.sleb128 -24
 3693 0cac 2B       		.uleb128 0x2b
 3694 0cad 8D020000 		.4byte	.LASF146
 3695 0cb1 05       		.byte	0x5
 3696 0cb2 7E01     		.2byte	0x17e
 3697 0cb4 31010000 		.4byte	0x131
 3698 0cb8 02       		.uleb128 0x2
 3699 0cb9 91       		.byte	0x91
 3700 0cba 64       		.sleb128 -28
 3701 0cbb 2C       		.uleb128 0x2c
ARM GAS  /tmp/ccUx4H0Q.s 			page 129


 3702 0cbc F2050000 		.4byte	.LASF112
 3703 0cc0 05       		.byte	0x5
 3704 0cc1 7F01     		.2byte	0x17f
 3705 0cc3 05010000 		.4byte	0x105
 3706 0cc7 02       		.uleb128 0x2
 3707 0cc8 91       		.byte	0x91
 3708 0cc9 74       		.sleb128 -12
 3709 0cca 21       		.uleb128 0x21
 3710 0ccb E5060000 		.4byte	.LASF160
 3711 0ccf DA0C0000 		.4byte	0xcda
 3712 0cd3 05       		.uleb128 0x5
 3713 0cd4 03       		.byte	0x3
 3714 0cd5 00000000 		.4byte	__func__.6671
 3715 0cd9 00       		.byte	0
 3716 0cda 18       		.uleb128 0x18
 3717 0cdb EC090000 		.4byte	0x9ec
 3718 0cdf 29       		.uleb128 0x29
 3719 0ce0 DC020000 		.4byte	.LASF161
 3720 0ce4 05       		.byte	0x5
 3721 0ce5 9F01     		.2byte	0x19f
 3722 0ce7 05010000 		.4byte	0x105
 3723 0ceb 00000000 		.4byte	.LFB252
 3724 0cef 7C000000 		.4byte	.LFE252-.LFB252
 3725 0cf3 01       		.uleb128 0x1
 3726 0cf4 9C       		.byte	0x9c
 3727 0cf5 270D0000 		.4byte	0xd27
 3728 0cf9 2A       		.uleb128 0x2a
 3729 0cfa 6D627000 		.ascii	"mbp\000"
 3730 0cfe 05       		.byte	0x5
 3731 0cff 9F01     		.2byte	0x19f
 3732 0d01 7A090000 		.4byte	0x97a
 3733 0d05 02       		.uleb128 0x2
 3734 0d06 91       		.byte	0x91
 3735 0d07 74       		.sleb128 -12
 3736 0d08 2B       		.uleb128 0x2b
 3737 0d09 38040000 		.4byte	.LASF158
 3738 0d0d 05       		.byte	0x5
 3739 0d0e 9F01     		.2byte	0x19f
 3740 0d10 05080000 		.4byte	0x805
 3741 0d14 02       		.uleb128 0x2
 3742 0d15 91       		.byte	0x91
 3743 0d16 70       		.sleb128 -16
 3744 0d17 21       		.uleb128 0x21
 3745 0d18 FB060000 		.4byte	.LASF162
 3746 0d1c 270D0000 		.4byte	0xd27
 3747 0d20 05       		.uleb128 0x5
 3748 0d21 03       		.byte	0x3
 3749 0d22 00000000 		.4byte	__func__.6676
 3750 0d26 00       		.byte	0
 3751 0d27 18       		.uleb128 0x18
 3752 0d28 EC090000 		.4byte	0x9ec
 3753 0d2c 2D       		.uleb128 0x2d
 3754 0d2d 90050000 		.4byte	.LASF163
 3755 0d31 11       		.byte	0x11
 3756 0d32 FA06     		.2byte	0x6fa
 3757 0d34 380D0000 		.4byte	0xd38
 3758 0d38 19       		.uleb128 0x19
ARM GAS  /tmp/ccUx4H0Q.s 			page 130


 3759 0d39 A2000000 		.4byte	0xa2
 3760 0d3d 2E       		.uleb128 0x2e
 3761 0d3e 636800   		.ascii	"ch\000"
 3762 0d41 0A       		.byte	0xa
 3763 0d42 0902     		.2byte	0x209
 3764 0d44 2C040000 		.4byte	0x42c
 3765 0d48 00       		.byte	0
 3766              		.section	.debug_abbrev,"",%progbits
 3767              	.Ldebug_abbrev0:
 3768 0000 01       		.uleb128 0x1
 3769 0001 11       		.uleb128 0x11
 3770 0002 01       		.byte	0x1
 3771 0003 25       		.uleb128 0x25
 3772 0004 0E       		.uleb128 0xe
 3773 0005 13       		.uleb128 0x13
 3774 0006 0B       		.uleb128 0xb
 3775 0007 03       		.uleb128 0x3
 3776 0008 0E       		.uleb128 0xe
 3777 0009 1B       		.uleb128 0x1b
 3778 000a 0E       		.uleb128 0xe
 3779 000b 55       		.uleb128 0x55
 3780 000c 17       		.uleb128 0x17
 3781 000d 11       		.uleb128 0x11
 3782 000e 01       		.uleb128 0x1
 3783 000f 10       		.uleb128 0x10
 3784 0010 17       		.uleb128 0x17
 3785 0011 00       		.byte	0
 3786 0012 00       		.byte	0
 3787 0013 02       		.uleb128 0x2
 3788 0014 24       		.uleb128 0x24
 3789 0015 00       		.byte	0
 3790 0016 0B       		.uleb128 0xb
 3791 0017 0B       		.uleb128 0xb
 3792 0018 3E       		.uleb128 0x3e
 3793 0019 0B       		.uleb128 0xb
 3794 001a 03       		.uleb128 0x3
 3795 001b 08       		.uleb128 0x8
 3796 001c 00       		.byte	0
 3797 001d 00       		.byte	0
 3798 001e 03       		.uleb128 0x3
 3799 001f 24       		.uleb128 0x24
 3800 0020 00       		.byte	0
 3801 0021 0B       		.uleb128 0xb
 3802 0022 0B       		.uleb128 0xb
 3803 0023 3E       		.uleb128 0x3e
 3804 0024 0B       		.uleb128 0xb
 3805 0025 03       		.uleb128 0x3
 3806 0026 0E       		.uleb128 0xe
 3807 0027 00       		.byte	0
 3808 0028 00       		.byte	0
 3809 0029 04       		.uleb128 0x4
 3810 002a 16       		.uleb128 0x16
 3811 002b 00       		.byte	0
 3812 002c 03       		.uleb128 0x3
 3813 002d 0E       		.uleb128 0xe
 3814 002e 3A       		.uleb128 0x3a
 3815 002f 0B       		.uleb128 0xb
ARM GAS  /tmp/ccUx4H0Q.s 			page 131


 3816 0030 3B       		.uleb128 0x3b
 3817 0031 0B       		.uleb128 0xb
 3818 0032 49       		.uleb128 0x49
 3819 0033 13       		.uleb128 0x13
 3820 0034 00       		.byte	0
 3821 0035 00       		.byte	0
 3822 0036 05       		.uleb128 0x5
 3823 0037 13       		.uleb128 0x13
 3824 0038 01       		.byte	0x1
 3825 0039 03       		.uleb128 0x3
 3826 003a 0E       		.uleb128 0xe
 3827 003b 0B       		.uleb128 0xb
 3828 003c 0B       		.uleb128 0xb
 3829 003d 3A       		.uleb128 0x3a
 3830 003e 0B       		.uleb128 0xb
 3831 003f 3B       		.uleb128 0x3b
 3832 0040 0B       		.uleb128 0xb
 3833 0041 01       		.uleb128 0x1
 3834 0042 13       		.uleb128 0x13
 3835 0043 00       		.byte	0
 3836 0044 00       		.byte	0
 3837 0045 06       		.uleb128 0x6
 3838 0046 0D       		.uleb128 0xd
 3839 0047 00       		.byte	0
 3840 0048 03       		.uleb128 0x3
 3841 0049 0E       		.uleb128 0xe
 3842 004a 3A       		.uleb128 0x3a
 3843 004b 0B       		.uleb128 0xb
 3844 004c 3B       		.uleb128 0x3b
 3845 004d 0B       		.uleb128 0xb
 3846 004e 49       		.uleb128 0x49
 3847 004f 13       		.uleb128 0x13
 3848 0050 38       		.uleb128 0x38
 3849 0051 0B       		.uleb128 0xb
 3850 0052 00       		.byte	0
 3851 0053 00       		.byte	0
 3852 0054 07       		.uleb128 0x7
 3853 0055 0D       		.uleb128 0xd
 3854 0056 00       		.byte	0
 3855 0057 03       		.uleb128 0x3
 3856 0058 08       		.uleb128 0x8
 3857 0059 3A       		.uleb128 0x3a
 3858 005a 0B       		.uleb128 0xb
 3859 005b 3B       		.uleb128 0x3b
 3860 005c 05       		.uleb128 0x5
 3861 005d 49       		.uleb128 0x49
 3862 005e 13       		.uleb128 0x13
 3863 005f 38       		.uleb128 0x38
 3864 0060 0B       		.uleb128 0xb
 3865 0061 00       		.byte	0
 3866 0062 00       		.byte	0
 3867 0063 08       		.uleb128 0x8
 3868 0064 0D       		.uleb128 0xd
 3869 0065 00       		.byte	0
 3870 0066 03       		.uleb128 0x3
 3871 0067 0E       		.uleb128 0xe
 3872 0068 3A       		.uleb128 0x3a
ARM GAS  /tmp/ccUx4H0Q.s 			page 132


 3873 0069 0B       		.uleb128 0xb
 3874 006a 3B       		.uleb128 0x3b
 3875 006b 05       		.uleb128 0x5
 3876 006c 49       		.uleb128 0x49
 3877 006d 13       		.uleb128 0x13
 3878 006e 38       		.uleb128 0x38
 3879 006f 0B       		.uleb128 0xb
 3880 0070 00       		.byte	0
 3881 0071 00       		.byte	0
 3882 0072 09       		.uleb128 0x9
 3883 0073 0F       		.uleb128 0xf
 3884 0074 00       		.byte	0
 3885 0075 0B       		.uleb128 0xb
 3886 0076 0B       		.uleb128 0xb
 3887 0077 49       		.uleb128 0x49
 3888 0078 13       		.uleb128 0x13
 3889 0079 00       		.byte	0
 3890 007a 00       		.byte	0
 3891 007b 0A       		.uleb128 0xa
 3892 007c 13       		.uleb128 0x13
 3893 007d 01       		.byte	0x1
 3894 007e 03       		.uleb128 0x3
 3895 007f 0E       		.uleb128 0xe
 3896 0080 0B       		.uleb128 0xb
 3897 0081 0B       		.uleb128 0xb
 3898 0082 3A       		.uleb128 0x3a
 3899 0083 0B       		.uleb128 0xb
 3900 0084 3B       		.uleb128 0x3b
 3901 0085 05       		.uleb128 0x5
 3902 0086 01       		.uleb128 0x1
 3903 0087 13       		.uleb128 0x13
 3904 0088 00       		.byte	0
 3905 0089 00       		.byte	0
 3906 008a 0B       		.uleb128 0xb
 3907 008b 15       		.uleb128 0x15
 3908 008c 01       		.byte	0x1
 3909 008d 27       		.uleb128 0x27
 3910 008e 19       		.uleb128 0x19
 3911 008f 01       		.uleb128 0x1
 3912 0090 13       		.uleb128 0x13
 3913 0091 00       		.byte	0
 3914 0092 00       		.byte	0
 3915 0093 0C       		.uleb128 0xc
 3916 0094 05       		.uleb128 0x5
 3917 0095 00       		.byte	0
 3918 0096 49       		.uleb128 0x49
 3919 0097 13       		.uleb128 0x13
 3920 0098 00       		.byte	0
 3921 0099 00       		.byte	0
 3922 009a 0D       		.uleb128 0xd
 3923 009b 0F       		.uleb128 0xf
 3924 009c 00       		.byte	0
 3925 009d 0B       		.uleb128 0xb
 3926 009e 0B       		.uleb128 0xb
 3927 009f 00       		.byte	0
 3928 00a0 00       		.byte	0
 3929 00a1 0E       		.uleb128 0xe
ARM GAS  /tmp/ccUx4H0Q.s 			page 133


 3930 00a2 13       		.uleb128 0x13
 3931 00a3 01       		.byte	0x1
 3932 00a4 03       		.uleb128 0x3
 3933 00a5 0E       		.uleb128 0xe
 3934 00a6 0B       		.uleb128 0xb
 3935 00a7 05       		.uleb128 0x5
 3936 00a8 3A       		.uleb128 0x3a
 3937 00a9 0B       		.uleb128 0xb
 3938 00aa 3B       		.uleb128 0x3b
 3939 00ab 05       		.uleb128 0x5
 3940 00ac 01       		.uleb128 0x1
 3941 00ad 13       		.uleb128 0x13
 3942 00ae 00       		.byte	0
 3943 00af 00       		.byte	0
 3944 00b0 0F       		.uleb128 0xf
 3945 00b1 0D       		.uleb128 0xd
 3946 00b2 00       		.byte	0
 3947 00b3 03       		.uleb128 0x3
 3948 00b4 0E       		.uleb128 0xe
 3949 00b5 3A       		.uleb128 0x3a
 3950 00b6 0B       		.uleb128 0xb
 3951 00b7 3B       		.uleb128 0x3b
 3952 00b8 05       		.uleb128 0x5
 3953 00b9 49       		.uleb128 0x49
 3954 00ba 13       		.uleb128 0x13
 3955 00bb 38       		.uleb128 0x38
 3956 00bc 05       		.uleb128 0x5
 3957 00bd 00       		.byte	0
 3958 00be 00       		.byte	0
 3959 00bf 10       		.uleb128 0x10
 3960 00c0 0D       		.uleb128 0xd
 3961 00c1 00       		.byte	0
 3962 00c2 03       		.uleb128 0x3
 3963 00c3 08       		.uleb128 0x8
 3964 00c4 3A       		.uleb128 0x3a
 3965 00c5 0B       		.uleb128 0xb
 3966 00c6 3B       		.uleb128 0x3b
 3967 00c7 05       		.uleb128 0x5
 3968 00c8 49       		.uleb128 0x49
 3969 00c9 13       		.uleb128 0x13
 3970 00ca 38       		.uleb128 0x38
 3971 00cb 05       		.uleb128 0x5
 3972 00cc 00       		.byte	0
 3973 00cd 00       		.byte	0
 3974 00ce 11       		.uleb128 0x11
 3975 00cf 0D       		.uleb128 0xd
 3976 00d0 00       		.byte	0
 3977 00d1 03       		.uleb128 0x3
 3978 00d2 08       		.uleb128 0x8
 3979 00d3 3A       		.uleb128 0x3a
 3980 00d4 0B       		.uleb128 0xb
 3981 00d5 3B       		.uleb128 0x3b
 3982 00d6 0B       		.uleb128 0xb
 3983 00d7 49       		.uleb128 0x49
 3984 00d8 13       		.uleb128 0x13
 3985 00d9 38       		.uleb128 0x38
 3986 00da 0B       		.uleb128 0xb
ARM GAS  /tmp/ccUx4H0Q.s 			page 134


 3987 00db 00       		.byte	0
 3988 00dc 00       		.byte	0
 3989 00dd 12       		.uleb128 0x12
 3990 00de 13       		.uleb128 0x13
 3991 00df 01       		.byte	0x1
 3992 00e0 0B       		.uleb128 0xb
 3993 00e1 0B       		.uleb128 0xb
 3994 00e2 3A       		.uleb128 0x3a
 3995 00e3 0B       		.uleb128 0xb
 3996 00e4 3B       		.uleb128 0x3b
 3997 00e5 0B       		.uleb128 0xb
 3998 00e6 01       		.uleb128 0x1
 3999 00e7 13       		.uleb128 0x13
 4000 00e8 00       		.byte	0
 4001 00e9 00       		.byte	0
 4002 00ea 13       		.uleb128 0x13
 4003 00eb 13       		.uleb128 0x13
 4004 00ec 01       		.byte	0x1
 4005 00ed 0B       		.uleb128 0xb
 4006 00ee 05       		.uleb128 0x5
 4007 00ef 3A       		.uleb128 0x3a
 4008 00f0 0B       		.uleb128 0xb
 4009 00f1 3B       		.uleb128 0x3b
 4010 00f2 0B       		.uleb128 0xb
 4011 00f3 01       		.uleb128 0x1
 4012 00f4 13       		.uleb128 0x13
 4013 00f5 00       		.byte	0
 4014 00f6 00       		.byte	0
 4015 00f7 14       		.uleb128 0x14
 4016 00f8 01       		.uleb128 0x1
 4017 00f9 01       		.byte	0x1
 4018 00fa 49       		.uleb128 0x49
 4019 00fb 13       		.uleb128 0x13
 4020 00fc 01       		.uleb128 0x1
 4021 00fd 13       		.uleb128 0x13
 4022 00fe 00       		.byte	0
 4023 00ff 00       		.byte	0
 4024 0100 15       		.uleb128 0x15
 4025 0101 21       		.uleb128 0x21
 4026 0102 00       		.byte	0
 4027 0103 49       		.uleb128 0x49
 4028 0104 13       		.uleb128 0x13
 4029 0105 2F       		.uleb128 0x2f
 4030 0106 0B       		.uleb128 0xb
 4031 0107 00       		.byte	0
 4032 0108 00       		.byte	0
 4033 0109 16       		.uleb128 0x16
 4034 010a 17       		.uleb128 0x17
 4035 010b 01       		.byte	0x1
 4036 010c 0B       		.uleb128 0xb
 4037 010d 0B       		.uleb128 0xb
 4038 010e 3A       		.uleb128 0x3a
 4039 010f 0B       		.uleb128 0xb
 4040 0110 3B       		.uleb128 0x3b
 4041 0111 0B       		.uleb128 0xb
 4042 0112 01       		.uleb128 0x1
 4043 0113 13       		.uleb128 0x13
ARM GAS  /tmp/ccUx4H0Q.s 			page 135


 4044 0114 00       		.byte	0
 4045 0115 00       		.byte	0
 4046 0116 17       		.uleb128 0x17
 4047 0117 0D       		.uleb128 0xd
 4048 0118 00       		.byte	0
 4049 0119 03       		.uleb128 0x3
 4050 011a 0E       		.uleb128 0xe
 4051 011b 3A       		.uleb128 0x3a
 4052 011c 0B       		.uleb128 0xb
 4053 011d 3B       		.uleb128 0x3b
 4054 011e 05       		.uleb128 0x5
 4055 011f 49       		.uleb128 0x49
 4056 0120 13       		.uleb128 0x13
 4057 0121 00       		.byte	0
 4058 0122 00       		.byte	0
 4059 0123 18       		.uleb128 0x18
 4060 0124 26       		.uleb128 0x26
 4061 0125 00       		.byte	0
 4062 0126 49       		.uleb128 0x49
 4063 0127 13       		.uleb128 0x13
 4064 0128 00       		.byte	0
 4065 0129 00       		.byte	0
 4066 012a 19       		.uleb128 0x19
 4067 012b 35       		.uleb128 0x35
 4068 012c 00       		.byte	0
 4069 012d 49       		.uleb128 0x49
 4070 012e 13       		.uleb128 0x13
 4071 012f 00       		.byte	0
 4072 0130 00       		.byte	0
 4073 0131 1A       		.uleb128 0x1a
 4074 0132 2E       		.uleb128 0x2e
 4075 0133 01       		.byte	0x1
 4076 0134 03       		.uleb128 0x3
 4077 0135 0E       		.uleb128 0xe
 4078 0136 3A       		.uleb128 0x3a
 4079 0137 0B       		.uleb128 0xb
 4080 0138 3B       		.uleb128 0x3b
 4081 0139 05       		.uleb128 0x5
 4082 013a 27       		.uleb128 0x27
 4083 013b 19       		.uleb128 0x19
 4084 013c 20       		.uleb128 0x20
 4085 013d 0B       		.uleb128 0xb
 4086 013e 01       		.uleb128 0x1
 4087 013f 13       		.uleb128 0x13
 4088 0140 00       		.byte	0
 4089 0141 00       		.byte	0
 4090 0142 1B       		.uleb128 0x1b
 4091 0143 05       		.uleb128 0x5
 4092 0144 00       		.byte	0
 4093 0145 03       		.uleb128 0x3
 4094 0146 0E       		.uleb128 0xe
 4095 0147 3A       		.uleb128 0x3a
 4096 0148 0B       		.uleb128 0xb
 4097 0149 3B       		.uleb128 0x3b
 4098 014a 05       		.uleb128 0x5
 4099 014b 49       		.uleb128 0x49
 4100 014c 13       		.uleb128 0x13
ARM GAS  /tmp/ccUx4H0Q.s 			page 136


 4101 014d 00       		.byte	0
 4102 014e 00       		.byte	0
 4103 014f 1C       		.uleb128 0x1c
 4104 0150 2E       		.uleb128 0x2e
 4105 0151 01       		.byte	0x1
 4106 0152 03       		.uleb128 0x3
 4107 0153 0E       		.uleb128 0xe
 4108 0154 3A       		.uleb128 0x3a
 4109 0155 0B       		.uleb128 0xb
 4110 0156 3B       		.uleb128 0x3b
 4111 0157 05       		.uleb128 0x5
 4112 0158 27       		.uleb128 0x27
 4113 0159 19       		.uleb128 0x19
 4114 015a 11       		.uleb128 0x11
 4115 015b 01       		.uleb128 0x1
 4116 015c 12       		.uleb128 0x12
 4117 015d 06       		.uleb128 0x6
 4118 015e 40       		.uleb128 0x40
 4119 015f 18       		.uleb128 0x18
 4120 0160 9742     		.uleb128 0x2117
 4121 0162 19       		.uleb128 0x19
 4122 0163 01       		.uleb128 0x1
 4123 0164 13       		.uleb128 0x13
 4124 0165 00       		.byte	0
 4125 0166 00       		.byte	0
 4126 0167 1D       		.uleb128 0x1d
 4127 0168 1D       		.uleb128 0x1d
 4128 0169 01       		.byte	0x1
 4129 016a 31       		.uleb128 0x31
 4130 016b 13       		.uleb128 0x13
 4131 016c 11       		.uleb128 0x11
 4132 016d 01       		.uleb128 0x1
 4133 016e 12       		.uleb128 0x12
 4134 016f 06       		.uleb128 0x6
 4135 0170 58       		.uleb128 0x58
 4136 0171 0B       		.uleb128 0xb
 4137 0172 59       		.uleb128 0x59
 4138 0173 05       		.uleb128 0x5
 4139 0174 00       		.byte	0
 4140 0175 00       		.byte	0
 4141 0176 1E       		.uleb128 0x1e
 4142 0177 05       		.uleb128 0x5
 4143 0178 00       		.byte	0
 4144 0179 31       		.uleb128 0x31
 4145 017a 13       		.uleb128 0x13
 4146 017b 02       		.uleb128 0x2
 4147 017c 18       		.uleb128 0x18
 4148 017d 00       		.byte	0
 4149 017e 00       		.byte	0
 4150 017f 1F       		.uleb128 0x1f
 4151 0180 2E       		.uleb128 0x2e
 4152 0181 00       		.byte	0
 4153 0182 03       		.uleb128 0x3
 4154 0183 0E       		.uleb128 0xe
 4155 0184 3A       		.uleb128 0x3a
 4156 0185 0B       		.uleb128 0xb
 4157 0186 3B       		.uleb128 0x3b
ARM GAS  /tmp/ccUx4H0Q.s 			page 137


 4158 0187 05       		.uleb128 0x5
 4159 0188 27       		.uleb128 0x27
 4160 0189 19       		.uleb128 0x19
 4161 018a 11       		.uleb128 0x11
 4162 018b 01       		.uleb128 0x1
 4163 018c 12       		.uleb128 0x12
 4164 018d 06       		.uleb128 0x6
 4165 018e 40       		.uleb128 0x40
 4166 018f 18       		.uleb128 0x18
 4167 0190 9642     		.uleb128 0x2116
 4168 0192 19       		.uleb128 0x19
 4169 0193 00       		.byte	0
 4170 0194 00       		.byte	0
 4171 0195 20       		.uleb128 0x20
 4172 0196 2E       		.uleb128 0x2e
 4173 0197 01       		.byte	0x1
 4174 0198 03       		.uleb128 0x3
 4175 0199 0E       		.uleb128 0xe
 4176 019a 3A       		.uleb128 0x3a
 4177 019b 0B       		.uleb128 0xb
 4178 019c 3B       		.uleb128 0x3b
 4179 019d 05       		.uleb128 0x5
 4180 019e 27       		.uleb128 0x27
 4181 019f 19       		.uleb128 0x19
 4182 01a0 11       		.uleb128 0x11
 4183 01a1 01       		.uleb128 0x1
 4184 01a2 12       		.uleb128 0x12
 4185 01a3 06       		.uleb128 0x6
 4186 01a4 40       		.uleb128 0x40
 4187 01a5 18       		.uleb128 0x18
 4188 01a6 9642     		.uleb128 0x2116
 4189 01a8 19       		.uleb128 0x19
 4190 01a9 01       		.uleb128 0x1
 4191 01aa 13       		.uleb128 0x13
 4192 01ab 00       		.byte	0
 4193 01ac 00       		.byte	0
 4194 01ad 21       		.uleb128 0x21
 4195 01ae 34       		.uleb128 0x34
 4196 01af 00       		.byte	0
 4197 01b0 03       		.uleb128 0x3
 4198 01b1 0E       		.uleb128 0xe
 4199 01b2 49       		.uleb128 0x49
 4200 01b3 13       		.uleb128 0x13
 4201 01b4 34       		.uleb128 0x34
 4202 01b5 19       		.uleb128 0x19
 4203 01b6 02       		.uleb128 0x2
 4204 01b7 18       		.uleb128 0x18
 4205 01b8 00       		.byte	0
 4206 01b9 00       		.byte	0
 4207 01ba 22       		.uleb128 0x22
 4208 01bb 2E       		.uleb128 0x2e
 4209 01bc 01       		.byte	0x1
 4210 01bd 03       		.uleb128 0x3
 4211 01be 0E       		.uleb128 0xe
 4212 01bf 3A       		.uleb128 0x3a
 4213 01c0 0B       		.uleb128 0xb
 4214 01c1 3B       		.uleb128 0x3b
ARM GAS  /tmp/ccUx4H0Q.s 			page 138


 4215 01c2 0B       		.uleb128 0xb
 4216 01c3 27       		.uleb128 0x27
 4217 01c4 19       		.uleb128 0x19
 4218 01c5 11       		.uleb128 0x11
 4219 01c6 01       		.uleb128 0x1
 4220 01c7 12       		.uleb128 0x12
 4221 01c8 06       		.uleb128 0x6
 4222 01c9 40       		.uleb128 0x40
 4223 01ca 18       		.uleb128 0x18
 4224 01cb 9642     		.uleb128 0x2116
 4225 01cd 19       		.uleb128 0x19
 4226 01ce 01       		.uleb128 0x1
 4227 01cf 13       		.uleb128 0x13
 4228 01d0 00       		.byte	0
 4229 01d1 00       		.byte	0
 4230 01d2 23       		.uleb128 0x23
 4231 01d3 05       		.uleb128 0x5
 4232 01d4 00       		.byte	0
 4233 01d5 03       		.uleb128 0x3
 4234 01d6 08       		.uleb128 0x8
 4235 01d7 3A       		.uleb128 0x3a
 4236 01d8 0B       		.uleb128 0xb
 4237 01d9 3B       		.uleb128 0x3b
 4238 01da 0B       		.uleb128 0xb
 4239 01db 49       		.uleb128 0x49
 4240 01dc 13       		.uleb128 0x13
 4241 01dd 02       		.uleb128 0x2
 4242 01de 18       		.uleb128 0x18
 4243 01df 00       		.byte	0
 4244 01e0 00       		.byte	0
 4245 01e1 24       		.uleb128 0x24
 4246 01e2 2E       		.uleb128 0x2e
 4247 01e3 01       		.byte	0x1
 4248 01e4 03       		.uleb128 0x3
 4249 01e5 0E       		.uleb128 0xe
 4250 01e6 3A       		.uleb128 0x3a
 4251 01e7 0B       		.uleb128 0xb
 4252 01e8 3B       		.uleb128 0x3b
 4253 01e9 0B       		.uleb128 0xb
 4254 01ea 27       		.uleb128 0x27
 4255 01eb 19       		.uleb128 0x19
 4256 01ec 49       		.uleb128 0x49
 4257 01ed 13       		.uleb128 0x13
 4258 01ee 11       		.uleb128 0x11
 4259 01ef 01       		.uleb128 0x1
 4260 01f0 12       		.uleb128 0x12
 4261 01f1 06       		.uleb128 0x6
 4262 01f2 40       		.uleb128 0x40
 4263 01f3 18       		.uleb128 0x18
 4264 01f4 9642     		.uleb128 0x2116
 4265 01f6 19       		.uleb128 0x19
 4266 01f7 01       		.uleb128 0x1
 4267 01f8 13       		.uleb128 0x13
 4268 01f9 00       		.byte	0
 4269 01fa 00       		.byte	0
 4270 01fb 25       		.uleb128 0x25
 4271 01fc 2E       		.uleb128 0x2e
ARM GAS  /tmp/ccUx4H0Q.s 			page 139


 4272 01fd 01       		.byte	0x1
 4273 01fe 3F       		.uleb128 0x3f
 4274 01ff 19       		.uleb128 0x19
 4275 0200 03       		.uleb128 0x3
 4276 0201 0E       		.uleb128 0xe
 4277 0202 3A       		.uleb128 0x3a
 4278 0203 0B       		.uleb128 0xb
 4279 0204 3B       		.uleb128 0x3b
 4280 0205 0B       		.uleb128 0xb
 4281 0206 27       		.uleb128 0x27
 4282 0207 19       		.uleb128 0x19
 4283 0208 11       		.uleb128 0x11
 4284 0209 01       		.uleb128 0x1
 4285 020a 12       		.uleb128 0x12
 4286 020b 06       		.uleb128 0x6
 4287 020c 40       		.uleb128 0x40
 4288 020d 18       		.uleb128 0x18
 4289 020e 9642     		.uleb128 0x2116
 4290 0210 19       		.uleb128 0x19
 4291 0211 01       		.uleb128 0x1
 4292 0212 13       		.uleb128 0x13
 4293 0213 00       		.byte	0
 4294 0214 00       		.byte	0
 4295 0215 26       		.uleb128 0x26
 4296 0216 2E       		.uleb128 0x2e
 4297 0217 01       		.byte	0x1
 4298 0218 3F       		.uleb128 0x3f
 4299 0219 19       		.uleb128 0x19
 4300 021a 03       		.uleb128 0x3
 4301 021b 0E       		.uleb128 0xe
 4302 021c 3A       		.uleb128 0x3a
 4303 021d 0B       		.uleb128 0xb
 4304 021e 3B       		.uleb128 0x3b
 4305 021f 0B       		.uleb128 0xb
 4306 0220 27       		.uleb128 0x27
 4307 0221 19       		.uleb128 0x19
 4308 0222 49       		.uleb128 0x49
 4309 0223 13       		.uleb128 0x13
 4310 0224 11       		.uleb128 0x11
 4311 0225 01       		.uleb128 0x1
 4312 0226 12       		.uleb128 0x12
 4313 0227 06       		.uleb128 0x6
 4314 0228 40       		.uleb128 0x40
 4315 0229 18       		.uleb128 0x18
 4316 022a 9642     		.uleb128 0x2116
 4317 022c 19       		.uleb128 0x19
 4318 022d 01       		.uleb128 0x1
 4319 022e 13       		.uleb128 0x13
 4320 022f 00       		.byte	0
 4321 0230 00       		.byte	0
 4322 0231 27       		.uleb128 0x27
 4323 0232 05       		.uleb128 0x5
 4324 0233 00       		.byte	0
 4325 0234 03       		.uleb128 0x3
 4326 0235 0E       		.uleb128 0xe
 4327 0236 3A       		.uleb128 0x3a
 4328 0237 0B       		.uleb128 0xb
ARM GAS  /tmp/ccUx4H0Q.s 			page 140


 4329 0238 3B       		.uleb128 0x3b
 4330 0239 0B       		.uleb128 0xb
 4331 023a 49       		.uleb128 0x49
 4332 023b 13       		.uleb128 0x13
 4333 023c 02       		.uleb128 0x2
 4334 023d 18       		.uleb128 0x18
 4335 023e 00       		.byte	0
 4336 023f 00       		.byte	0
 4337 0240 28       		.uleb128 0x28
 4338 0241 34       		.uleb128 0x34
 4339 0242 00       		.byte	0
 4340 0243 03       		.uleb128 0x3
 4341 0244 0E       		.uleb128 0xe
 4342 0245 3A       		.uleb128 0x3a
 4343 0246 0B       		.uleb128 0xb
 4344 0247 3B       		.uleb128 0x3b
 4345 0248 0B       		.uleb128 0xb
 4346 0249 49       		.uleb128 0x49
 4347 024a 13       		.uleb128 0x13
 4348 024b 02       		.uleb128 0x2
 4349 024c 18       		.uleb128 0x18
 4350 024d 00       		.byte	0
 4351 024e 00       		.byte	0
 4352 024f 29       		.uleb128 0x29
 4353 0250 2E       		.uleb128 0x2e
 4354 0251 01       		.byte	0x1
 4355 0252 3F       		.uleb128 0x3f
 4356 0253 19       		.uleb128 0x19
 4357 0254 03       		.uleb128 0x3
 4358 0255 0E       		.uleb128 0xe
 4359 0256 3A       		.uleb128 0x3a
 4360 0257 0B       		.uleb128 0xb
 4361 0258 3B       		.uleb128 0x3b
 4362 0259 05       		.uleb128 0x5
 4363 025a 27       		.uleb128 0x27
 4364 025b 19       		.uleb128 0x19
 4365 025c 49       		.uleb128 0x49
 4366 025d 13       		.uleb128 0x13
 4367 025e 11       		.uleb128 0x11
 4368 025f 01       		.uleb128 0x1
 4369 0260 12       		.uleb128 0x12
 4370 0261 06       		.uleb128 0x6
 4371 0262 40       		.uleb128 0x40
 4372 0263 18       		.uleb128 0x18
 4373 0264 9642     		.uleb128 0x2116
 4374 0266 19       		.uleb128 0x19
 4375 0267 01       		.uleb128 0x1
 4376 0268 13       		.uleb128 0x13
 4377 0269 00       		.byte	0
 4378 026a 00       		.byte	0
 4379 026b 2A       		.uleb128 0x2a
 4380 026c 05       		.uleb128 0x5
 4381 026d 00       		.byte	0
 4382 026e 03       		.uleb128 0x3
 4383 026f 08       		.uleb128 0x8
 4384 0270 3A       		.uleb128 0x3a
 4385 0271 0B       		.uleb128 0xb
ARM GAS  /tmp/ccUx4H0Q.s 			page 141


 4386 0272 3B       		.uleb128 0x3b
 4387 0273 05       		.uleb128 0x5
 4388 0274 49       		.uleb128 0x49
 4389 0275 13       		.uleb128 0x13
 4390 0276 02       		.uleb128 0x2
 4391 0277 18       		.uleb128 0x18
 4392 0278 00       		.byte	0
 4393 0279 00       		.byte	0
 4394 027a 2B       		.uleb128 0x2b
 4395 027b 05       		.uleb128 0x5
 4396 027c 00       		.byte	0
 4397 027d 03       		.uleb128 0x3
 4398 027e 0E       		.uleb128 0xe
 4399 027f 3A       		.uleb128 0x3a
 4400 0280 0B       		.uleb128 0xb
 4401 0281 3B       		.uleb128 0x3b
 4402 0282 05       		.uleb128 0x5
 4403 0283 49       		.uleb128 0x49
 4404 0284 13       		.uleb128 0x13
 4405 0285 02       		.uleb128 0x2
 4406 0286 18       		.uleb128 0x18
 4407 0287 00       		.byte	0
 4408 0288 00       		.byte	0
 4409 0289 2C       		.uleb128 0x2c
 4410 028a 34       		.uleb128 0x34
 4411 028b 00       		.byte	0
 4412 028c 03       		.uleb128 0x3
 4413 028d 0E       		.uleb128 0xe
 4414 028e 3A       		.uleb128 0x3a
 4415 028f 0B       		.uleb128 0xb
 4416 0290 3B       		.uleb128 0x3b
 4417 0291 05       		.uleb128 0x5
 4418 0292 49       		.uleb128 0x49
 4419 0293 13       		.uleb128 0x13
 4420 0294 02       		.uleb128 0x2
 4421 0295 18       		.uleb128 0x18
 4422 0296 00       		.byte	0
 4423 0297 00       		.byte	0
 4424 0298 2D       		.uleb128 0x2d
 4425 0299 34       		.uleb128 0x34
 4426 029a 00       		.byte	0
 4427 029b 03       		.uleb128 0x3
 4428 029c 0E       		.uleb128 0xe
 4429 029d 3A       		.uleb128 0x3a
 4430 029e 0B       		.uleb128 0xb
 4431 029f 3B       		.uleb128 0x3b
 4432 02a0 05       		.uleb128 0x5
 4433 02a1 49       		.uleb128 0x49
 4434 02a2 13       		.uleb128 0x13
 4435 02a3 3F       		.uleb128 0x3f
 4436 02a4 19       		.uleb128 0x19
 4437 02a5 3C       		.uleb128 0x3c
 4438 02a6 19       		.uleb128 0x19
 4439 02a7 00       		.byte	0
 4440 02a8 00       		.byte	0
 4441 02a9 2E       		.uleb128 0x2e
 4442 02aa 34       		.uleb128 0x34
ARM GAS  /tmp/ccUx4H0Q.s 			page 142


 4443 02ab 00       		.byte	0
 4444 02ac 03       		.uleb128 0x3
 4445 02ad 08       		.uleb128 0x8
 4446 02ae 3A       		.uleb128 0x3a
 4447 02af 0B       		.uleb128 0xb
 4448 02b0 3B       		.uleb128 0x3b
 4449 02b1 05       		.uleb128 0x5
 4450 02b2 49       		.uleb128 0x49
 4451 02b3 13       		.uleb128 0x13
 4452 02b4 3F       		.uleb128 0x3f
 4453 02b5 19       		.uleb128 0x19
 4454 02b6 3C       		.uleb128 0x3c
 4455 02b7 19       		.uleb128 0x19
 4456 02b8 00       		.byte	0
 4457 02b9 00       		.byte	0
 4458 02ba 00       		.byte	0
 4459              		.section	.debug_aranges,"",%progbits
 4460 0000 A4000000 		.4byte	0xa4
 4461 0004 0200     		.2byte	0x2
 4462 0006 00000000 		.4byte	.Ldebug_info0
 4463 000a 04       		.byte	0x4
 4464 000b 00       		.byte	0
 4465 000c 0000     		.2byte	0
 4466 000e 0000     		.2byte	0
 4467 0010 00000000 		.4byte	.LFB127
 4468 0014 10000000 		.4byte	.LFE127-.LFB127
 4469 0018 00000000 		.4byte	.LFB128
 4470 001c 10000000 		.4byte	.LFE128-.LFB128
 4471 0020 00000000 		.4byte	.LFB167
 4472 0024 10000000 		.4byte	.LFE167-.LFB167
 4473 0028 00000000 		.4byte	.LFB168
 4474 002c 4E000000 		.4byte	.LFE168-.LFB168
 4475 0030 00000000 		.4byte	.LFB201
 4476 0034 1A000000 		.4byte	.LFE201-.LFB201
 4477 0038 00000000 		.4byte	.LFB203
 4478 003c 16000000 		.4byte	.LFE203-.LFB203
 4479 0040 00000000 		.4byte	.LFB241
 4480 0044 64000000 		.4byte	.LFE241-.LFB241
 4481 0048 00000000 		.4byte	.LFB242
 4482 004c 1E000000 		.4byte	.LFE242-.LFB242
 4483 0050 00000000 		.4byte	.LFB243
 4484 0054 5A000000 		.4byte	.LFE243-.LFB243
 4485 0058 00000000 		.4byte	.LFB244
 4486 005c 28000000 		.4byte	.LFE244-.LFB244
 4487 0060 00000000 		.4byte	.LFB245
 4488 0064 6E000000 		.4byte	.LFE245-.LFB245
 4489 0068 00000000 		.4byte	.LFB246
 4490 006c 74000000 		.4byte	.LFE246-.LFB246
 4491 0070 00000000 		.4byte	.LFB247
 4492 0074 28000000 		.4byte	.LFE247-.LFB247
 4493 0078 00000000 		.4byte	.LFB248
 4494 007c 74000000 		.4byte	.LFE248-.LFB248
 4495 0080 00000000 		.4byte	.LFB249
 4496 0084 7A000000 		.4byte	.LFE249-.LFB249
 4497 0088 00000000 		.4byte	.LFB250
 4498 008c 28000000 		.4byte	.LFE250-.LFB250
 4499 0090 00000000 		.4byte	.LFB251
ARM GAS  /tmp/ccUx4H0Q.s 			page 143


 4500 0094 76000000 		.4byte	.LFE251-.LFB251
 4501 0098 00000000 		.4byte	.LFB252
 4502 009c 7C000000 		.4byte	.LFE252-.LFB252
 4503 00a0 00000000 		.4byte	0
 4504 00a4 00000000 		.4byte	0
 4505              		.section	.debug_ranges,"",%progbits
 4506              	.Ldebug_ranges0:
 4507 0000 00000000 		.4byte	.LFB127
 4508 0004 10000000 		.4byte	.LFE127
 4509 0008 00000000 		.4byte	.LFB128
 4510 000c 10000000 		.4byte	.LFE128
 4511 0010 00000000 		.4byte	.LFB167
 4512 0014 10000000 		.4byte	.LFE167
 4513 0018 00000000 		.4byte	.LFB168
 4514 001c 4E000000 		.4byte	.LFE168
 4515 0020 00000000 		.4byte	.LFB201
 4516 0024 1A000000 		.4byte	.LFE201
 4517 0028 00000000 		.4byte	.LFB203
 4518 002c 16000000 		.4byte	.LFE203
 4519 0030 00000000 		.4byte	.LFB241
 4520 0034 64000000 		.4byte	.LFE241
 4521 0038 00000000 		.4byte	.LFB242
 4522 003c 1E000000 		.4byte	.LFE242
 4523 0040 00000000 		.4byte	.LFB243
 4524 0044 5A000000 		.4byte	.LFE243
 4525 0048 00000000 		.4byte	.LFB244
 4526 004c 28000000 		.4byte	.LFE244
 4527 0050 00000000 		.4byte	.LFB245
 4528 0054 6E000000 		.4byte	.LFE245
 4529 0058 00000000 		.4byte	.LFB246
 4530 005c 74000000 		.4byte	.LFE246
 4531 0060 00000000 		.4byte	.LFB247
 4532 0064 28000000 		.4byte	.LFE247
 4533 0068 00000000 		.4byte	.LFB248
 4534 006c 74000000 		.4byte	.LFE248
 4535 0070 00000000 		.4byte	.LFB249
 4536 0074 7A000000 		.4byte	.LFE249
 4537 0078 00000000 		.4byte	.LFB250
 4538 007c 28000000 		.4byte	.LFE250
 4539 0080 00000000 		.4byte	.LFB251
 4540 0084 76000000 		.4byte	.LFE251
 4541 0088 00000000 		.4byte	.LFB252
 4542 008c 7C000000 		.4byte	.LFE252
 4543 0090 00000000 		.4byte	0
 4544 0094 00000000 		.4byte	0
 4545              		.section	.debug_line,"",%progbits
 4546              	.Ldebug_line0:
 4547 0000 E5030000 		.section	.debug_str,"MS",%progbits,1
 4547      0200C501 
 4547      00000201 
 4547      FB0E0D00 
 4547      01010101 
 4548              	.LASF97:
 4549 0000 74625F70 		.ascii	"tb_ptr\000"
 4549      747200
 4550              	.LASF54:
 4551 0007 72656164 		.ascii	"ready_list_t\000"
ARM GAS  /tmp/ccUx4H0Q.s 			page 144


 4551      795F6C69 
 4551      73745F74 
 4551      00
 4552              	.LASF142:
 4553 0014 63684D42 		.ascii	"chMBObjectInit\000"
 4553      4F626A65 
 4553      6374496E 
 4553      697400
 4554              	.LASF115:
 4555 0023 77747472 		.ascii	"wttrp\000"
 4555      7000
 4556              	.LASF141:
 4557 0029 5F5F6675 		.ascii	"__func__.6615\000"
 4557      6E635F5F 
 4557      2E363631 
 4557      3500
 4558              	.LASF16:
 4559 0037 75696E74 		.ascii	"uint64_t\000"
 4559      36345F74 
 4559      00
 4560              	.LASF84:
 4561 0040 6B65726E 		.ascii	"kernel_stats\000"
 4561      656C5F73 
 4561      74617473 
 4561      00
 4562              	.LASF5:
 4563 004d 5F5F7569 		.ascii	"__uint8_t\000"
 4563      6E74385F 
 4563      7400
 4564              	.LASF150:
 4565 0057 63684D42 		.ascii	"chMBPostI\000"
 4565      506F7374 
 4565      4900
 4566              	.LASF90:
 4567 0061 706F7274 		.ascii	"port_intctx\000"
 4567      5F696E74 
 4567      63747800 
 4568              	.LASF53:
 4569 006d 63685F74 		.ascii	"ch_threads_queue\000"
 4569      68726561 
 4569      64735F71 
 4569      75657565 
 4569      00
 4570              	.LASF73:
 4571 007e 73797374 		.ascii	"system_debug_t\000"
 4571      656D5F64 
 4571      65627567 
 4571      5F7400
 4572              	.LASF85:
 4573 008d 69646C65 		.ascii	"idle_thread_wa\000"
 4573      5F746872 
 4573      6561645F 
 4573      776100
 4574              	.LASF136:
 4575 009c 706F7274 		.ascii	"port_lock\000"
 4575      5F6C6F63 
 4575      6B00
ARM GAS  /tmp/ccUx4H0Q.s 			page 145


 4576              	.LASF103:
 4577 00a6 776F7273 		.ascii	"worst\000"
 4577      7400
 4578              	.LASF106:
 4579 00ac 74696D65 		.ascii	"time_measurement_t\000"
 4579      5F6D6561 
 4579      73757265 
 4579      6D656E74 
 4579      5F7400
 4580              	.LASF155:
 4581 00bf 63684D42 		.ascii	"chMBPostAheadI\000"
 4581      506F7374 
 4581      41686561 
 4581      644900
 4582              	.LASF12:
 4583 00ce 6C6F6E67 		.ascii	"long long unsigned int\000"
 4583      206C6F6E 
 4583      6720756E 
 4583      7369676E 
 4583      65642069 
 4584              	.LASF99:
 4585 00e5 63685F74 		.ascii	"ch_trace_buffer_t\000"
 4585      72616365 
 4585      5F627566 
 4585      6665725F 
 4585      7400
 4586              	.LASF94:
 4587 00f7 73655F73 		.ascii	"se_state\000"
 4587      74617465 
 4587      00
 4588              	.LASF127:
 4589 0100 73656D61 		.ascii	"semaphore_t\000"
 4589      70686F72 
 4589      655F7400 
 4590              	.LASF113:
 4591 010c 65786974 		.ascii	"exitcode\000"
 4591      636F6465 
 4591      00
 4592              	.LASF153:
 4593 0115 63684D42 		.ascii	"chMBPostAheadS\000"
 4593      506F7374 
 4593      41686561 
 4593      645300
 4594              	.LASF70:
 4595 0124 76697274 		.ascii	"virtual_timers_list_t\000"
 4595      75616C5F 
 4595      74696D65 
 4595      72735F6C 
 4595      6973745F 
 4596              	.LASF131:
 4597 013a 6D625F77 		.ascii	"mb_wrptr\000"
 4597      72707472 
 4597      00
 4598              	.LASF18:
 4599 0143 72747469 		.ascii	"rttime_t\000"
 4599      6D655F74 
 4599      00
ARM GAS  /tmp/ccUx4H0Q.s 			page 146


 4600              	.LASF31:
 4601 014c 705F7072 		.ascii	"p_prio\000"
 4601      696F00
 4602              	.LASF4:
 4603 0153 73686F72 		.ascii	"short unsigned int\000"
 4603      7420756E 
 4603      7369676E 
 4603      65642069 
 4603      6E7400
 4604              	.LASF10:
 4605 0166 6C6F6E67 		.ascii	"long long int\000"
 4605      206C6F6E 
 4605      6720696E 
 4605      7400
 4606              	.LASF1:
 4607 0174 7369676E 		.ascii	"signed char\000"
 4607      65642063 
 4607      68617200 
 4608              	.LASF91:
 4609 0180 73655F74 		.ascii	"se_time\000"
 4609      696D6500 
 4610              	.LASF145:
 4611 0188 5F5F6675 		.ascii	"__func__.6622\000"
 4611      6E635F5F 
 4611      2E363632 
 4611      3200
 4612              	.LASF123:
 4613 0196 6D5F7175 		.ascii	"m_queue\000"
 4613      65756500 
 4614              	.LASF82:
 4615 019e 76746C69 		.ascii	"vtlist\000"
 4615      737400
 4616              	.LASF137:
 4617 01a5 706F7274 		.ascii	"port_unlock\000"
 4617      5F756E6C 
 4617      6F636B00 
 4618              	.LASF147:
 4619 01b1 63684D42 		.ascii	"chMBPost\000"
 4619      506F7374 
 4619      00
 4620              	.LASF7:
 4621 01ba 6C6F6E67 		.ascii	"long int\000"
 4621      20696E74 
 4621      00
 4622              	.LASF20:
 4623 01c3 74737461 		.ascii	"tstate_t\000"
 4623      74655F74 
 4623      00
 4624              	.LASF92:
 4625 01cc 73655F74 		.ascii	"se_tp\000"
 4625      7000
 4626              	.LASF33:
 4627 01d2 705F6E65 		.ascii	"p_newer\000"
 4627      77657200 
 4628              	.LASF120:
 4629 01da 735F7175 		.ascii	"s_queue\000"
 4629      65756500 
ARM GAS  /tmp/ccUx4H0Q.s 			page 147


 4630              	.LASF96:
 4631 01e2 74625F73 		.ascii	"tb_size\000"
 4631      697A6500 
 4632              	.LASF132:
 4633 01ea 6D625F72 		.ascii	"mb_rdptr\000"
 4633      64707472 
 4633      00
 4634              	.LASF46:
 4635 01f3 705F6D70 		.ascii	"p_mpool\000"
 4635      6F6F6C00 
 4636              	.LASF87:
 4637 01fb 72656761 		.ascii	"regarm_t\000"
 4637      726D5F74 
 4637      00
 4638              	.LASF66:
 4639 0204 76745F70 		.ascii	"vt_prev\000"
 4639      72657600 
 4640              	.LASF74:
 4641 020c 63685F73 		.ascii	"ch_system_debug\000"
 4641      79737465 
 4641      6D5F6465 
 4641      62756700 
 4642              	.LASF149:
 4643 021c 5F5F6675 		.ascii	"__func__.6635\000"
 4643      6E635F5F 
 4643      2E363633 
 4643      3500
 4644              	.LASF128:
 4645 022a 6D757465 		.ascii	"mutex_t\000"
 4645      785F7400 
 4646              	.LASF168:
 4647 0232 76616C75 		.ascii	"value\000"
 4647      6500
 4648              	.LASF77:
 4649 0238 6C6F636B 		.ascii	"lock_cnt\000"
 4649      5F636E74 
 4649      00
 4650              	.LASF8:
 4651 0241 5F5F7569 		.ascii	"__uint32_t\000"
 4651      6E743332 
 4651      5F7400
 4652              	.LASF25:
 4653 024c 636E745F 		.ascii	"cnt_t\000"
 4653      7400
 4654              	.LASF36:
 4655 0252 705F7374 		.ascii	"p_stklimit\000"
 4655      6B6C696D 
 4655      697400
 4656              	.LASF0:
 4657 025d 756E7369 		.ascii	"unsigned int\000"
 4657      676E6564 
 4657      20696E74 
 4657      00
 4658              	.LASF65:
 4659 026a 76745F6E 		.ascii	"vt_next\000"
 4659      65787400 
 4660              	.LASF116:
ARM GAS  /tmp/ccUx4H0Q.s 			page 148


 4661 0272 77747365 		.ascii	"wtsemp\000"
 4661      6D7000
 4662              	.LASF67:
 4663 0279 76745F64 		.ascii	"vt_delta\000"
 4663      656C7461 
 4663      00
 4664              	.LASF41:
 4665 0282 705F6D73 		.ascii	"p_msgqueue\000"
 4665      67717565 
 4665      756500
 4666              	.LASF146:
 4667 028d 74696D65 		.ascii	"timeout\000"
 4667      6F757400 
 4668              	.LASF134:
 4669 0295 6D625F65 		.ascii	"mb_emptysem\000"
 4669      6D707479 
 4669      73656D00 
 4670              	.LASF107:
 4671 02a1 6E5F6972 		.ascii	"n_irq\000"
 4671      7100
 4672              	.LASF121:
 4673 02a7 735F636E 		.ascii	"s_cnt\000"
 4673      7400
 4674              	.LASF144:
 4675 02ad 63684D42 		.ascii	"chMBResetI\000"
 4675      52657365 
 4675      744900
 4676              	.LASF111:
 4677 02b8 6B65726E 		.ascii	"kernel_stats_t\000"
 4677      656C5F73 
 4677      74617473 
 4677      5F7400
 4678              	.LASF50:
 4679 02c7 63685F74 		.ascii	"ch_thread\000"
 4679      68726561 
 4679      6400
 4680              	.LASF83:
 4681 02d1 6D61696E 		.ascii	"mainthread\000"
 4681      74687265 
 4681      616400
 4682              	.LASF161:
 4683 02dc 63684D42 		.ascii	"chMBFetchI\000"
 4683      46657463 
 4683      684900
 4684              	.LASF23:
 4685 02e7 6D73675F 		.ascii	"msg_t\000"
 4685      7400
 4686              	.LASF104:
 4687 02ed 6C617374 		.ascii	"last\000"
 4687      00
 4688              	.LASF166:
 4689 02f2 2F686F6D 		.ascii	"/home/jerker/chibios/ChibiOS_16.1.4/testhal/STM32/S"
 4689      652F6A65 
 4689      726B6572 
 4689      2F636869 
 4689      62696F73 
 4690 0325 544D3332 		.ascii	"TM32F4xx/USB_CDC\000"
ARM GAS  /tmp/ccUx4H0Q.s 			page 149


 4690      46347878 
 4690      2F555342 
 4690      5F434443 
 4690      00
 4691              	.LASF26:
 4692 0336 75636E74 		.ascii	"ucnt_t\000"
 4692      5F7400
 4693              	.LASF59:
 4694 033d 725F6E65 		.ascii	"r_newer\000"
 4694      77657200 
 4695              	.LASF151:
 4696 0345 5F5F6675 		.ascii	"__func__.6640\000"
 4696      6E635F5F 
 4696      2E363634 
 4696      3000
 4697              	.LASF159:
 4698 0353 63684D42 		.ascii	"chMBFetchS\000"
 4698      46657463 
 4698      685300
 4699              	.LASF164:
 4700 035e 474E5520 		.ascii	"GNU C 4.8.2 -mcpu=cortex-m4 -mno-thumb-interwork -m"
 4700      4320342E 
 4700      382E3220 
 4700      2D6D6370 
 4700      753D636F 
 4701 0391 7468756D 		.ascii	"thumb -ggdb -O0 -fomit-frame-pointer -falign-functi"
 4701      62202D67 
 4701      67646220 
 4701      2D4F3020 
 4701      2D666F6D 
 4702 03c4 6F6E733D 		.ascii	"ons=16 -ffunction-sections -fdata-sections -fno-com"
 4702      3136202D 
 4702      6666756E 
 4702      6374696F 
 4702      6E2D7365 
 4703 03f7 6D6F6E20 		.ascii	"mon -flto\000"
 4703      2D666C74 
 4703      6F00
 4704              	.LASF19:
 4705 0401 746D6F64 		.ascii	"tmode_t\000"
 4705      655F7400 
 4706              	.LASF110:
 4707 0409 6D5F6372 		.ascii	"m_crit_isr\000"
 4707      69745F69 
 4707      737200
 4708              	.LASF55:
 4709 0414 63685F72 		.ascii	"ch_ready_list\000"
 4709      65616479 
 4709      5F6C6973 
 4709      7400
 4710              	.LASF24:
 4711 0422 6576656E 		.ascii	"eventmask_t\000"
 4711      746D6173 
 4711      6B5F7400 
 4712              	.LASF6:
 4713 042e 5F5F696E 		.ascii	"__int32_t\000"
 4713      7433325F 
ARM GAS  /tmp/ccUx4H0Q.s 			page 150


 4713      7400
 4714              	.LASF158:
 4715 0438 6D736770 		.ascii	"msgp\000"
 4715      00
 4716              	.LASF88:
 4717 043d 73746B61 		.ascii	"stkalign_t\000"
 4717      6C69676E 
 4717      5F7400
 4718              	.LASF40:
 4719 0448 705F7761 		.ascii	"p_waiting\000"
 4719      6974696E 
 4719      6700
 4720              	.LASF86:
 4721 0452 73697A65 		.ascii	"sizetype\000"
 4721      74797065 
 4721      00
 4722              	.LASF48:
 4723 045b 74687265 		.ascii	"thread_reference_t\000"
 4723      61645F72 
 4723      65666572 
 4723      656E6365 
 4723      5F7400
 4724              	.LASF101:
 4725 046e 746D5F63 		.ascii	"tm_calibration_t\000"
 4725      616C6962 
 4725      72617469 
 4725      6F6E5F74 
 4725      00
 4726              	.LASF71:
 4727 047f 63685F76 		.ascii	"ch_virtual_timers_list\000"
 4727      69727475 
 4727      616C5F74 
 4727      696D6572 
 4727      735F6C69 
 4728              	.LASF157:
 4729 0496 63684D42 		.ascii	"chMBFetch\000"
 4729      46657463 
 4729      6800
 4730              	.LASF143:
 4731 04a0 63684D42 		.ascii	"chMBReset\000"
 4731      52657365 
 4731      7400
 4732              	.LASF95:
 4733 04aa 63685F73 		.ascii	"ch_swc_event_t\000"
 4733      77635F65 
 4733      76656E74 
 4733      5F7400
 4734              	.LASF72:
 4735 04b9 76745F6C 		.ascii	"vt_lasttime\000"
 4735      61737474 
 4735      696D6500 
 4736              	.LASF34:
 4737 04c5 705F6F6C 		.ascii	"p_older\000"
 4737      64657200 
 4738              	.LASF58:
 4739 04cd 725F6374 		.ascii	"r_ctx\000"
 4739      7800
ARM GAS  /tmp/ccUx4H0Q.s 			page 151


 4740              	.LASF135:
 4741 04d3 6D61696C 		.ascii	"mailbox_t\000"
 4741      626F785F 
 4741      7400
 4742              	.LASF154:
 4743 04dd 5F5F6675 		.ascii	"__func__.6653\000"
 4743      6E635F5F 
 4743      2E363635 
 4743      3300
 4744              	.LASF129:
 4745 04eb 6D625F62 		.ascii	"mb_buffer\000"
 4745      75666665 
 4745      7200
 4746              	.LASF156:
 4747 04f5 5F5F6675 		.ascii	"__func__.6658\000"
 4747      6E635F5F 
 4747      2E363635 
 4747      3800
 4748              	.LASF61:
 4749 0503 725F6375 		.ascii	"r_current\000"
 4749      7272656E 
 4749      7400
 4750              	.LASF60:
 4751 050d 725F6F6C 		.ascii	"r_older\000"
 4751      64657200 
 4752              	.LASF11:
 4753 0515 5F5F7569 		.ascii	"__uint64_t\000"
 4753      6E743634 
 4753      5F7400
 4754              	.LASF105:
 4755 0520 63756D75 		.ascii	"cumulative\000"
 4755      6C617469 
 4755      766500
 4756              	.LASF140:
 4757 052b 5F5F6675 		.ascii	"__func__.5915\000"
 4757      6E635F5F 
 4757      2E353931 
 4757      3500
 4758              	.LASF21:
 4759 0539 74726566 		.ascii	"trefs_t\000"
 4759      735F7400 
 4760              	.LASF98:
 4761 0541 74625F62 		.ascii	"tb_buffer\000"
 4761      75666665 
 4761      7200
 4762              	.LASF63:
 4763 054b 76697274 		.ascii	"virtual_timer_t\000"
 4763      75616C5F 
 4763      74696D65 
 4763      725F7400 
 4764              	.LASF30:
 4765 055b 705F7072 		.ascii	"p_prev\000"
 4765      657600
 4766              	.LASF22:
 4767 0562 74707269 		.ascii	"tprio_t\000"
 4767      6F5F7400 
 4768              	.LASF108:
ARM GAS  /tmp/ccUx4H0Q.s 			page 152


 4769 056a 6E5F6374 		.ascii	"n_ctxswc\000"
 4769      78737763 
 4769      00
 4770              	.LASF14:
 4771 0573 696E7433 		.ascii	"int32_t\000"
 4771      325F7400 
 4772              	.LASF2:
 4773 057b 756E7369 		.ascii	"unsigned char\000"
 4773      676E6564 
 4773      20636861 
 4773      7200
 4774              	.LASF130:
 4775 0589 6D625F74 		.ascii	"mb_top\000"
 4775      6F7000
 4776              	.LASF163:
 4777 0590 49544D5F 		.ascii	"ITM_RxBuffer\000"
 4777      52784275 
 4777      66666572 
 4777      00
 4778              	.LASF44:
 4779 059d 705F6D74 		.ascii	"p_mtxlist\000"
 4779      786C6973 
 4779      7400
 4780              	.LASF3:
 4781 05a7 73686F72 		.ascii	"short int\000"
 4781      7420696E 
 4781      7400
 4782              	.LASF37:
 4783 05b1 705F7374 		.ascii	"p_state\000"
 4783      61746500 
 4784              	.LASF57:
 4785 05b9 725F7072 		.ascii	"r_prio\000"
 4785      696F00
 4786              	.LASF118:
 4787 05c0 65776D61 		.ascii	"ewmask\000"
 4787      736B00
 4788              	.LASF29:
 4789 05c7 705F6E65 		.ascii	"p_next\000"
 4789      787400
 4790              	.LASF38:
 4791 05ce 705F666C 		.ascii	"p_flags\000"
 4791      61677300 
 4792              	.LASF47:
 4793 05d6 705F7374 		.ascii	"p_stats\000"
 4793      61747300 
 4794              	.LASF169:
 4795 05de 63685379 		.ascii	"chSysLock\000"
 4795      734C6F63 
 4795      6B00
 4796              	.LASF80:
 4797 05e8 63685F73 		.ascii	"ch_system\000"
 4797      79737465 
 4797      6D00
 4798              	.LASF112:
 4799 05f2 7264796D 		.ascii	"rdymsg\000"
 4799      736700
 4800              	.LASF64:
ARM GAS  /tmp/ccUx4H0Q.s 			page 153


 4801 05f9 63685F76 		.ascii	"ch_virtual_timer\000"
 4801      69727475 
 4801      616C5F74 
 4801      696D6572 
 4801      00
 4802              	.LASF119:
 4803 060a 63685F73 		.ascii	"ch_semaphore\000"
 4803      656D6170 
 4803      686F7265 
 4803      00
 4804              	.LASF43:
 4805 0617 705F6570 		.ascii	"p_epending\000"
 4805      656E6469 
 4805      6E6700
 4806              	.LASF15:
 4807 0622 75696E74 		.ascii	"uint32_t\000"
 4807      33325F74 
 4807      00
 4808              	.LASF117:
 4809 062b 77746D74 		.ascii	"wtmtxp\000"
 4809      787000
 4810              	.LASF56:
 4811 0632 725F7175 		.ascii	"r_queue\000"
 4811      65756500 
 4812              	.LASF165:
 4813 063a 2E2E2F2E 		.ascii	"../../../../os/rt/src/chmboxes.c\000"
 4813      2E2F2E2E 
 4813      2F2E2E2F 
 4813      6F732F72 
 4813      742F7372 
 4814              	.LASF51:
 4815 065b 63685F74 		.ascii	"ch_threads_list\000"
 4815      68726561 
 4815      64735F6C 
 4815      69737400 
 4816              	.LASF9:
 4817 066b 6C6F6E67 		.ascii	"long unsigned int\000"
 4817      20756E73 
 4817      69676E65 
 4817      6420696E 
 4817      7400
 4818              	.LASF126:
 4819 067d 63686172 		.ascii	"char\000"
 4819      00
 4820              	.LASF28:
 4821 0682 74687265 		.ascii	"thread_t\000"
 4821      61645F74 
 4821      00
 4822              	.LASF102:
 4823 068b 62657374 		.ascii	"best\000"
 4823      00
 4824              	.LASF125:
 4825 0690 6D5F6E65 		.ascii	"m_next\000"
 4825      787400
 4826              	.LASF27:
 4827 0697 73797374 		.ascii	"systime_t\000"
 4827      696D655F 
ARM GAS  /tmp/ccUx4H0Q.s 			page 154


 4827      7400
 4828              	.LASF45:
 4829 06a1 705F7265 		.ascii	"p_realprio\000"
 4829      616C7072 
 4829      696F00
 4830              	.LASF62:
 4831 06ac 76746675 		.ascii	"vtfunc_t\000"
 4831      6E635F74 
 4831      00
 4832              	.LASF170:
 4833 06b5 63685365 		.ascii	"chSemGetCounterI\000"
 4833      6D476574 
 4833      436F756E 
 4833      74657249 
 4833      00
 4834              	.LASF167:
 4835 06c6 5F5F7365 		.ascii	"__set_BASEPRI\000"
 4835      745F4241 
 4835      53455052 
 4835      4900
 4836              	.LASF75:
 4837 06d4 70616E69 		.ascii	"panic_msg\000"
 4837      635F6D73 
 4837      6700
 4838              	.LASF100:
 4839 06de 6F666673 		.ascii	"offset\000"
 4839      657400
 4840              	.LASF160:
 4841 06e5 5F5F6675 		.ascii	"__func__.6671\000"
 4841      6E635F5F 
 4841      2E363637 
 4841      3100
 4842              	.LASF89:
 4843 06f3 636F6E74 		.ascii	"context\000"
 4843      65787400 
 4844              	.LASF162:
 4845 06fb 5F5F6675 		.ascii	"__func__.6676\000"
 4845      6E635F5F 
 4845      2E363637 
 4845      3600
 4846              	.LASF79:
 4847 0709 63685F73 		.ascii	"ch_system_t\000"
 4847      79737465 
 4847      6D5F7400 
 4848              	.LASF152:
 4849 0715 63684D42 		.ascii	"chMBPostAhead\000"
 4849      506F7374 
 4849      41686561 
 4849      6400
 4850              	.LASF17:
 4851 0723 7274636E 		.ascii	"rtcnt_t\000"
 4851      745F7400 
 4852              	.LASF69:
 4853 072b 76745F70 		.ascii	"vt_par\000"
 4853      617200
 4854              	.LASF139:
 4855 0732 63685365 		.ascii	"chSemFastWaitI\000"
ARM GAS  /tmp/ccUx4H0Q.s 			page 155


 4855      6D466173 
 4855      74576169 
 4855      744900
 4856              	.LASF133:
 4857 0741 6D625F66 		.ascii	"mb_fullsem\000"
 4857      756C6C73 
 4857      656D00
 4858              	.LASF52:
 4859 074c 74687265 		.ascii	"threads_queue_t\000"
 4859      6164735F 
 4859      71756575 
 4859      655F7400 
 4860              	.LASF122:
 4861 075c 63685F6D 		.ascii	"ch_mutex\000"
 4861      75746578 
 4861      00
 4862              	.LASF39:
 4863 0765 705F7265 		.ascii	"p_refs\000"
 4863      667300
 4864              	.LASF76:
 4865 076c 6973725F 		.ascii	"isr_cnt\000"
 4865      636E7400 
 4866              	.LASF81:
 4867 0774 726C6973 		.ascii	"rlist\000"
 4867      7400
 4868              	.LASF13:
 4869 077a 75696E74 		.ascii	"uint8_t\000"
 4869      385F7400 
 4870              	.LASF114:
 4871 0782 77746F62 		.ascii	"wtobjp\000"
 4871      6A7000
 4872              	.LASF35:
 4873 0789 705F6E61 		.ascii	"p_name\000"
 4873      6D6500
 4874              	.LASF49:
 4875 0790 74687265 		.ascii	"threads_list_t\000"
 4875      6164735F 
 4875      6C697374 
 4875      5F7400
 4876              	.LASF78:
 4877 079f 74726163 		.ascii	"trace_buffer\000"
 4877      655F6275 
 4877      66666572 
 4877      00
 4878              	.LASF138:
 4879 07ac 63685379 		.ascii	"chSysUnlock\000"
 4879      73556E6C 
 4879      6F636B00 
 4880              	.LASF42:
 4881 07b8 705F6D73 		.ascii	"p_msg\000"
 4881      6700
 4882              	.LASF148:
 4883 07be 63684D42 		.ascii	"chMBPostS\000"
 4883      506F7374 
 4883      5300
 4884              	.LASF109:
 4885 07c8 6D5F6372 		.ascii	"m_crit_thd\000"
ARM GAS  /tmp/ccUx4H0Q.s 			page 156


 4885      69745F74 
 4885      686400
 4886              	.LASF124:
 4887 07d3 6D5F6F77 		.ascii	"m_owner\000"
 4887      6E657200 
 4888              	.LASF93:
 4889 07db 73655F77 		.ascii	"se_wtobjp\000"
 4889      746F626A 
 4889      7000
 4890              	.LASF32:
 4891 07e5 705F6374 		.ascii	"p_ctx\000"
 4891      7800
 4892              	.LASF68:
 4893 07eb 76745F66 		.ascii	"vt_func\000"
 4893      756E6300 
 4894              		.comm	__gnu_lto_v1,1,1
 4895              		.ident	"GCC: (4.8.2-14ubuntu1+6) 4.8.2"
ARM GAS  /tmp/ccUx4H0Q.s 			page 157


DEFINED SYMBOLS
                            *ABS*:0000000000000000 chmboxes.c
     /tmp/ccUx4H0Q.s:1026   .text.port_lock:0000000000000000 $t
     /tmp/ccUx4H0Q.s:1031   .text.port_lock:0000000000000000 port_lock
     /tmp/ccUx4H0Q.s:1062   .text.port_unlock:0000000000000000 $t
     /tmp/ccUx4H0Q.s:1067   .text.port_unlock:0000000000000000 port_unlock
     /tmp/ccUx4H0Q.s:1096   .text.chSysLock:0000000000000000 $t
     /tmp/ccUx4H0Q.s:1101   .text.chSysLock:0000000000000000 chSysLock
     /tmp/ccUx4H0Q.s:1124   .text.chSysUnlock:0000000000000000 $t
     /tmp/ccUx4H0Q.s:1129   .text.chSysUnlock:0000000000000000 chSysUnlock
     /tmp/ccUx4H0Q.s:2068   .rodata.__func__.5915:0000000000000000 __func__.5915
     /tmp/ccUx4H0Q.s:1174   .text.chSemFastWaitI:0000000000000000 $t
     /tmp/ccUx4H0Q.s:1179   .text.chSemFastWaitI:0000000000000000 chSemFastWaitI
     /tmp/ccUx4H0Q.s:1208   .text.chSemGetCounterI:0000000000000000 $t
     /tmp/ccUx4H0Q.s:1213   .text.chSemGetCounterI:0000000000000000 chSemGetCounterI
     /tmp/ccUx4H0Q.s:1239   .text.chMBObjectInit:0000000000000000 $t
     /tmp/ccUx4H0Q.s:1245   .text.chMBObjectInit:0000000000000000 chMBObjectInit
     /tmp/ccUx4H0Q.s:2062   .rodata.__func__.6615:0000000000000000 __func__.6615
     /tmp/ccUx4H0Q.s:1316   .text.chMBReset:0000000000000000 $t
     /tmp/ccUx4H0Q.s:1322   .text.chMBReset:0000000000000000 chMBReset
     /tmp/ccUx4H0Q.s:1357   .text.chMBResetI:0000000000000000 chMBResetI
     /tmp/ccUx4H0Q.s:1351   .text.chMBResetI:0000000000000000 $t
     /tmp/ccUx4H0Q.s:2074   .rodata.__func__.6622:0000000000000000 __func__.6622
     /tmp/ccUx4H0Q.s:1417   .text.chMBPost:0000000000000000 $t
     /tmp/ccUx4H0Q.s:1423   .text.chMBPost:0000000000000000 chMBPost
     /tmp/ccUx4H0Q.s:1464   .text.chMBPostS:0000000000000000 chMBPostS
     /tmp/ccUx4H0Q.s:1458   .text.chMBPostS:0000000000000000 $t
     /tmp/ccUx4H0Q.s:2080   .rodata.__func__.6635:0000000000000000 __func__.6635
     /tmp/ccUx4H0Q.s:1540   .text.chMBPostI:0000000000000000 $t
     /tmp/ccUx4H0Q.s:1546   .text.chMBPostI:0000000000000000 chMBPostI
     /tmp/ccUx4H0Q.s:2086   .rodata.__func__.6640:0000000000000000 __func__.6640
     /tmp/ccUx4H0Q.s:1625   .text.chMBPostAhead:0000000000000000 $t
     /tmp/ccUx4H0Q.s:1631   .text.chMBPostAhead:0000000000000000 chMBPostAhead
     /tmp/ccUx4H0Q.s:1672   .text.chMBPostAheadS:0000000000000000 chMBPostAheadS
     /tmp/ccUx4H0Q.s:1666   .text.chMBPostAheadS:0000000000000000 $t
     /tmp/ccUx4H0Q.s:2092   .rodata.__func__.6653:0000000000000000 __func__.6653
     /tmp/ccUx4H0Q.s:1751   .text.chMBPostAheadI:0000000000000000 $t
     /tmp/ccUx4H0Q.s:1757   .text.chMBPostAheadI:0000000000000000 chMBPostAheadI
     /tmp/ccUx4H0Q.s:2098   .rodata.__func__.6658:0000000000000000 __func__.6658
     /tmp/ccUx4H0Q.s:1839   .text.chMBFetch:0000000000000000 $t
     /tmp/ccUx4H0Q.s:1845   .text.chMBFetch:0000000000000000 chMBFetch
     /tmp/ccUx4H0Q.s:1886   .text.chMBFetchS:0000000000000000 chMBFetchS
     /tmp/ccUx4H0Q.s:1880   .text.chMBFetchS:0000000000000000 $t
     /tmp/ccUx4H0Q.s:2104   .rodata.__func__.6671:0000000000000000 __func__.6671
     /tmp/ccUx4H0Q.s:1968   .text.chMBFetchI:0000000000000000 $t
     /tmp/ccUx4H0Q.s:1974   .text.chMBFetchI:0000000000000000 chMBFetchI
     /tmp/ccUx4H0Q.s:2110   .rodata.__func__.6676:0000000000000000 __func__.6676
     /tmp/ccUx4H0Q.s:2059   .rodata.__func__.6615:0000000000000000 $d
     /tmp/ccUx4H0Q.s:2065   .rodata.__func__.5915:0000000000000000 $d
     /tmp/ccUx4H0Q.s:2071   .rodata.__func__.6622:0000000000000000 $d
     /tmp/ccUx4H0Q.s:2077   .rodata.__func__.6635:0000000000000000 $d
     /tmp/ccUx4H0Q.s:2083   .rodata.__func__.6640:0000000000000000 $d
     /tmp/ccUx4H0Q.s:2089   .rodata.__func__.6653:0000000000000000 $d
     /tmp/ccUx4H0Q.s:2095   .rodata.__func__.6658:0000000000000000 $d
     /tmp/ccUx4H0Q.s:2101   .rodata.__func__.6671:0000000000000000 $d
     /tmp/ccUx4H0Q.s:2107   .rodata.__func__.6676:0000000000000000 $d
                            *COM*:0000000000000001 __gnu_lto_v1
ARM GAS  /tmp/ccUx4H0Q.s 			page 158


                     .debug_frame:0000000000000010 $d

UNDEFINED SYMBOLS
_stats_start_measure_crit_thd
_dbg_check_lock
_dbg_check_unlock
_stats_stop_measure_crit_thd
ch
chSysHalt
chDbgCheckClassI
chSemObjectInit
chSchRescheduleS
chSemResetI
chDbgCheckClassS
chSemWaitTimeoutS
chSemSignalI
