ARM GAS  /tmp/cc4zkXz1.s 			page 1


   1              		.syntax unified
   2              		.cpu cortex-m4
   3              		.fpu softvfp
   4              		.eabi_attribute 20, 1
   5              		.eabi_attribute 21, 1
   6              		.eabi_attribute 23, 3
   7              		.eabi_attribute 24, 1
   8              		.eabi_attribute 25, 1
   9              		.eabi_attribute 26, 1
  10              		.eabi_attribute 30, 6
  11              		.eabi_attribute 34, 1
  12              		.eabi_attribute 18, 4
  13              		.thumb
  14              		.file	"chmemcore.c"
  15              		.text
  16              	.Ltext0:
  17              		.section	.gnu.lto_.inline.ac29710df2be475b,"",%progbits
  18 0000 789C6362 		.ascii	"x\234cb`b\300\006NCi\016\006\006\026f\006\006&\226\017"
  18      6062C006 
  18      4E43690E 
  18      06061666 
  18      06062696 
  19 0015 7A0C2C10 		.ascii	"z\014,\020\265\214\030\"L\014l\012@\222i\201<\\\015"
  19      B58C1822 
  19      4C0C6C0A 
  19      40926981 
  19      3C5C0D
  20 0028 170AC1CC 		.ascii	"\027\012\301\314 h\002T \362a5#\212\012&n\024el\014"
  20      20680254 
  20      20F26135 
  20      238A0A26 
  20      6E14656C 
  21 003d 1CEC4041 		.ascii	"\034\354@A\236\015\2710U\334\014\374\342@\021\211\011"
  21      9E0DB930 
  21      55DC0CFC 
  21      E2401189 
  21      09
  22 004e A75135F2 		.ascii	"\247Q5\3620p(a\261\221\231\007\306\342e`c\005*\340\230"
  22      30702861 
  22      B1919907 
  22      C6E26560 
  22      63052AE0 
  23 0063 E00753C0 		.ascii	"\340\007S\300\000\000@3\013\243"
  23      00004033 
  23      0BA3
  24              		.text
  25              		.section	.gnu.lto_port_lock.ac29710df2be475b,"",%progbits
  26 0000 789C6362 		.ascii	"x\234cb`b@\007\"@,\314\310\3000\001\304af`\004\252`"
  26      60624007 
  26      22402CCC 
  26      C8C03001 
  26      C4616660 
  27 0017 6462040A 		.ascii	"db\004\012002\32431\326G\202\230\014\214J\014\013\033"
  27      303032D4 
  27      3331D647 
  27      82980C8C 
  27      4A0C0B1B 
ARM GAS  /tmp/cc4zkXz1.s 			page 2


  28 002b 1A263D68 		.ascii	"\032&=h}\366\230if\303\201\226\005\015\177\376\377g"
  28      7DF69869 
  28      66C38196 
  28      050D7FFE 
  28      FF67
  29 003d 64CC6404 		.ascii	"d\314d\004\232h\316\310\220\314\310\020\001\3440*\200"
  29      9A68CEC8 
  29      90CCC810 
  29      01E4302A 
  29      80
  30 004e 29261654 		.ascii	")&\026T+\3263\035x\360\377\377\211\316\347{\201&3$2"
  30      2BD6331D 
  30      78F0FFFF 
  30      89CEE77B 
  30      81263324 
  31 0063 2E049A06 		.ascii	".\004\232\006\004\254\014-\015\015\023\024\030@\272"
  31      04AC0C2D 
  31      0D0D1314 
  31      1840BA
  32 0072 8120044C 		.ascii	"\201 \004L\206\202\034\300|\226\241i\007\220Ngd\004"
  32      86821CC0 
  32      7C96A169 
  32      07904E67 
  32      6404
  33 0084 99C70054 		.ascii	"\231\307\000T\303p\216\241\351\343\337\031\217%\340"
  33      C3708EA1 
  33      E9E3DF19 
  33      8F25E0
  34 0093 BAC08C86 		.ascii	"\272\300\214\206\003\335W\332YaF&2.fd\005\032\007q2"
  34      03DD57DA 
  34      59614626 
  34      322E6664 
  34      051A0771 
  35 00a8 10963283 		.ascii	"\020\2262\203|\314\014\361\266\034C\033\343\334\206"
  35      7CCC0CF1 
  35      B61C431B 
  35      E3DC86
  36 00b7 190E998C 		.ascii	"\031\016\231\214\314 n:X\031\\\256\023*\007u\373E\206"
  36      CC206E3A 
  36      58195CAE 
  36      132A0775 
  36      FB4586
  37 00ca C6073BF5 		.ascii	"\306\007;\365!\006\302@\010H\007H\271INf\222\276sFf"
  37      2106C240 
  37      08480748 
  37      B9494E66 
  37      92BE7346 
  38 00df 52A67F70 		.ascii	"R\246\177p\274\241\231\236\241\236\211\276~~\261~Q\211"
  38      BCA1999E 
  38      A19E89BE 
  38      7E7EB17E 
  38      5189
  39 00f1 7E417E51 		.ascii	"~A~QI\261\276c\220\257\263o\205~rFr~Qj|\231y\256^\006"
  39      49B1BE63 
  39      90AFB36F 
  39      857E7246 
  39      727E516A 
ARM GAS  /tmp/cc4zkXz1.s 			page 3


  40 010b 036B5962 		.ascii	"\003kYbNi\2529\016\255\251\025%\372\316\276\301\236"
  40      4E69AA39 
  40      0EADA915 
  40      25FACEBE 
  40      C19E
  41 011d C1FA9979 		.ascii	"\301\372\231y\3119\245)\251\372`\255\311\271n\245y\311"
  41      C939A529 
  41      A9FA60AD 
  41      C9B96EA5 
  41      79C9
  42 012f 40DD02BE 		.ascii	"@\335\002\276\301A\012I\211\305\251\005E\231:\012\252"
  42      C1410A49 
  42      89C5A905 
  42      45993A0A 
  42      AA
  43 0140 060C4C45 		.ascii	"\006\014LE\014\354\271\251\271\371E\225\014\000\027"
  43      0CECB9A9 
  43      B9F94595 
  43      0C0017
  44 014f 1D670F   		.ascii	"\035g\017"
  45              		.text
  46              		.section	.gnu.lto_port_unlock.ac29710df2be475b,"",%progbits
  47 0000 789C6362 		.ascii	"x\234cb`b@\007\"@,\314\310\3000\001\304af`\004\252`"
  47      60624007 
  47      22402CCC 
  47      C8C03001 
  47      C4616660 
  48 0017 6462040A 		.ascii	"db\004\012002\32431\326G\202\230\014\214J\014\013\033"
  48      303032D4 
  48      3331D647 
  48      82980C8C 
  48      4A0C0B1B 
  49 002b 1A263D68 		.ascii	"\032&=h\375\364\230if\303\201\226\005\015\177\376\377"
  49      FDF49869 
  49      66C38196 
  49      050D7FFE 
  49      FF
  50 003c 6764CC64 		.ascii	"gd\314d\004\232h\316\310\220\314\310\020\001\3440*\200"
  50      049A68CE 
  50      C890CCC8 
  50      1001E430 
  50      2A80
  51 004e 29261654 		.ascii	")&\026T+\3263\035x\360\377\377\213\316\375\373\200&"
  51      2BD6331D 
  51      78F0FFFF 
  51      8BCEFDFB 
  51      8026
  52 0060 3324322E 		.ascii	"3$2.\004\232\006\004\254\014-\015\015\023\024\030@\272"
  52      049A0604 
  52      AC0C2D0D 
  52      0D131418 
  52      40BA
  53 0072 8120044C 		.ascii	"\201 \004L\206\202\034\300|\226\241i\007\220Ngd\004"
  53      86821CC0 
  53      7C96A169 
  53      07904E67 
  53      6404
ARM GAS  /tmp/cc4zkXz1.s 			page 4


  54 0084 990736E4 		.ascii	"\231\0076\344\034C\323\307\2773\036K\300u\201\031\015"
  54      1C43D3C7 
  54      BF331E4B 
  54      C0758119 
  54      0D
  55 0095 074E3F6D 		.ascii	"\007N?mg\205\031\231\310\270\230\221\025h\034\304\311"
  55      67851999 
  55      C8B89891 
  55      15681CC4 
  55      C9
  56 00a6 4058CA0C 		.ascii	"@X\312\014\36213\304\333r\014m\214s\033f8d22\203\270"
  56      F23133C4 
  56      DB720C6D 
  56      8C731B66 
  56      38643232 
  57 00bc E9606570 		.ascii	"\351`ep\271N\250\034\324\355\027\031\032\037\234\327"
  57      B94EA81C 
  57      D4ED1719 
  57      1A1F9CD7 
  58 00cc 87180803 		.ascii	"\207\030\010\003! \035 \345&9\231I\372\316\031\231I"
  58      21201D20 
  58      E5263999 
  58      49FACE19 
  58      9949
  59 00de 99FEC1F1 		.ascii	"\231\376\301\361\206fz\206z&\372\372\371\305\372E%\372"
  59      86667A86 
  59      7A26FAFA 
  59      F9C5FA45 
  59      25FA
  60 00f0 05F94525 		.ascii	"\005\371E%\305\372\216A\276\316\276\025\372\311\031"
  60      C5FA8E41 
  60      BECEBE15 
  60      FAC919
  61 00ff C9F945A9 		.ascii	"\311\371E\251\361e\346\271z\031\014\254e\2119\245\251"
  61      F165E6B9 
  61      7A190CAC 
  61      658939A5 
  61      A9
  62 0110 E638B4A6 		.ascii	"\3468\264\246V\224\350;\373\006{\006\353g\346%\347\224"
  62      5694E83B 
  62      FB067B06 
  62      EB67E625 
  62      E794
  63 0122 A6A4EA83 		.ascii	"\246\244\352\203\265&\347\272\225\346%\003u\013\370"
  63      B526E7BA 
  63      95E62503 
  63      750BF8
  64 0131 06072924 		.ascii	"\006\007)$%\026\247\026\024e\352(\250\03200\0251\260"
  64      2516A716 
  64      1465EA28 
  64      A81A3030 
  64      1531B0
  65 0144 E7A6E6E6 		.ascii	"\347\246\346\346\027U2\000\000]Vg["
  65      17553200 
  65      005D5667 
  65      5B
  66              		.text
ARM GAS  /tmp/cc4zkXz1.s 			page 5


  67              		.section	.gnu.lto_chSysLock.ac29710df2be475b,"",%progbits
  68 0000 789C6362 		.ascii	"x\234cb`b@\007\"@|\010\210u@\034f\006F\240\012F&FF "
  68      60624007 
  68      22407C08 
  68      8875401C 
  68      660646A0 
  69 001a 8791A19E 		.ascii	"\207\221\241\236\211\261>\222\021\254l=\323\201\007"
  69      89B13E92 
  69      11AC6C3D 
  69      D38107
  70 0029 FFFFAFFB 		.ascii	"\377\377\257\3732m\331\037\306\333L 1V\206\226\206\206"
  70      326DD91F 
  70      C6DB4C20 
  70      31568696 
  70      8686
  71 003b 090A0C0C 		.ascii	"\011\012\014\014\311`\025!`2\024\244\237\371<C\363\203"
  71      C9601521 
  71      603214A4 
  71      9FF93C43 
  71      F383
  72 004d 3DDDEC89 		.ascii	"=\335\354\211\214\013\031Y\201\202\325\014\277\032:"
  72      8C0B1959 
  72      8182D50C 
  72      BF1A3A
  73 005c 1A043219 		.ascii	"\032\0042\031\201J!\246e\202h\220\252\275\335B\330T"
  73      814A21A6 
  73      65826890 
  73      AABDDD42 
  73      D854
  74 006e 31A1AADA 		.ascii	"1\241\252\332w\232\013\233*f\204\252\213\014\215\017"
  74      779A0B9B 
  74      2A6684AA 
  74      8B0C8D0F 
  75 007e F66BC314 		.ascii	"\366k\303\024A@\010H\002d\222VNf\222\276sFfR\246\177"
  75      41400848 
  75      02649256 
  75      4E6692BE 
  75      73466652 
  76 0094 70BCA199 		.ascii	"p\274\241\231\236\241\236\211\276~~\261~Q\211~f^rNi"
  76      9EA19E89 
  76      BE7E7EB1 
  76      7E51897E 
  76      665E724E 
  77 00a9 4AAA7E72 		.ascii	"J\252~rFqe\261^\006\003\000\204\275;\363"
  77      467165B1 
  77      5E060300 
  77      84BD3BF3 
  78              		.text
  79              		.section	.gnu.lto_chSysUnlock.ac29710df2be475b,"",%progbits
  80 0000 789CCD92 		.ascii	"x\234\315\222\275/DA\020\300gv\367\275s\276\033\011"
  80      BD2F4441 
  80      10C06776 
  80      F7BD73BE 
  80      1B09
  81 0012 2A513AB9 		.ascii	"*Q:\271\027\211\250t\376\000\005\0224\342\036q\233\334"
  81      1789A874 
  81      FE000512 
ARM GAS  /tmp/cc4zkXz1.s 			page 6


  81      34E21E71 
  81      9BDC
  82 0024 91380A51 		.ascii	"\2218\012Q\330;W\010\215(ihD'\321\351\024\012\211\210"
  82      D83B5708 
  82      8D286968 
  82      4427D1E9 
  82      140A8988 
  83 0038 E8505D24 		.ascii	"\350P]$*\327\023\021\317\354\276\367\316s\256!\012\223"
  83      2AD71311 
  83      CFECBEF7 
  83      CE73AE21 
  83      0A93
  84 004a BC99DD7D 		.ascii	"\274\231\335}3\277\231\335\031\006\014\252e\220>[\000"
  84      33BF99DD 
  84      19060CAA 
  84      65903E5B 
  84      00
  85 005b F4EA4D0C 		.ascii	"\364\352M\014\220<\220!'\315\031\035+f\223\022\202Y"
  85      903C9021 
  85      27CD191D 
  85      2B669312 
  85      8259
  86 006d 95B58564 		.ascii	"\225\265\205d\320F\244\000\2045\306\205e\343\332\204"
  86      D046A400 
  86      8435C685 
  86      65E3DA84 
  87 007d DE82DD0D 		.ascii	"\336\202\335\015\007J\355\224\036\237w;6\367\013\333"
  87      074AED94 
  87      1E9F773B 
  87      36F70BDB 
  88 008d EADDF350 		.ascii	"\352\335\363P\352_.\3028\255\260\313\030\215\216\212"
  88      EA5F2EC2 
  88      38ADB0CB 
  88      188D8E8A 
  89 009d 1FA64E8E 		.ascii	"\037\246N\216T|_\275y\036\377]\014\377/y\262\010\307"
  89      547C5FBD 
  89      791EFF5D 
  89      0CFF2F79 
  89      B208C7
  90 00b0 ECACE479 		.ascii	"\354\254\344y\345\323\323\2072\266\331\010\224\211i"
  90      E5D3D387 
  90      32B6D908 
  90      948969
  91 00bf C54971A1 		.ascii	"\305Iq\241W\026\030\022\331\242R\333]\331\240\024\222"
  91      57161812 
  91      D9A252DB 
  91      5DD9A014 
  91      92
  92 00d0 51A3C774 		.ascii	"Q\243\307t3\3705\254\227n\267\032\246\361\020\251\007"
  92      33F835AC 
  92      976EB71A 
  92      A6F110A9 
  92      07
  93 00e1 B00AAF6A 		.ascii	"\260\012\257jC\265J\024\256\351\000\020\204\316\265"
  93      43B54A14 
  93      AEE90010 
  93      84CEB5
ARM GAS  /tmp/cc4zkXz1.s 			page 7


  94 00f0 D7DD534B 		.ascii	"\327\335SK-/\366\351\345S)'\277\202\302\375\313s\247"
  94      2D2FF6E9 
  94      E5532927 
  94      BF82C2FD 
  94      CB73A7
  95 0103 EF3F8798 		.ascii	"\357?\207\230\200\036\252\310h\333\350\330\036\354\346"
  95      801EAAC8 
  95      68DBE8D8 
  95      1EECE6
  96 0112 9546D455 		.ascii	"\225F\324U`\361\254I\251/\0347\254\224_\001Y\014l8`"
  96      60F1AC49 
  96      A92F1C37 
  96      AC945F01 
  96      590C6C38 
  97 0127 17502C63 		.ascii	"\027P,c\205\256\011u\022\353\243|bU\207\177\2211\024"
  97      85AE0975 
  97      12EBA37C 
  97      6255877F 
  97      913114
  98 013a 7E9D9321 		.ascii	"~\235\223!\206E\212\374ay<\200Fq\334\200\032\010D\001"
  98      86458AFC 
  98      61793C80 
  98      4671DC80 
  98      1A084401 
  99 014e 8D841FF7 		.ascii	"\215\204\037\367'\325\004\210\032\001\342\257\037)\012"
  99      27D50488 
  99      1A01E2AF 
  99      1F290A
 100 015d B7AAAA11 		.ascii	"\267\252\252\021\265\252\271\200\363\307\312\253\362"
 100      B5AAB980 
 100      F3C7CAAB 
 100      F2
 101 016a B9B0A5FE 		.ascii	"\271\260\245\376sYfX\304\267\021hr\203\353\353\223v"
 101      73596658 
 101      C4B71168 
 101      7283EBEB 
 101      9376
 102 017c 89CD3468 		.ascii	"\211\3154h\201\223\304\2260\332\016F\355\3512Vk\210"
 102      8193C496 
 102      30DA0E46 
 102      EDE93256 
 102      6B88
 103 018e C4E710DD 		.ascii	"\304\347\020\335@\276TN\204N\276\214\352\273\351k\365"
 103      40BE544E 
 103      844EBE8C 
 103      EABBE96B 
 103      F5
 104 019f 6464CA19 		.ascii	"dd\312\031J\313\224\034\036\231\352\033H\366%\373\035"
 104      4ACB941C 
 104      1E99EA1B 
 104      48F625FB 
 104      1D
 105 01b0 6721E72C 		.ascii	"g!\347,.9r\336\315,\317\314:n:\267\222K\246\341\003"
 105      2E3972DE 
 105      CD2CCFCC 
 105      3A6E3AB7 
 105      924BA6E1 
ARM GAS  /tmp/cc4zkXz1.s 			page 8


 106 01c5 7DC6D102 		.ascii	"}\306\321\002"
 107              		.text
 108              		.section	.gnu.lto__core_init.ac29710df2be475b,"",%progbits
 109 0000 789CB552 		.ascii	"x\234\265R=h\024Q\020\236yow\357\002\232\030Hc\027b"
 109      3D681451 
 109      109E796F 
 109      77EF029A 
 109      18486317 
 110 0015 27B8EBA9 		.ascii	"'\270\353\251\210M\260Haia\024\255\226\275u\311-\270"
 110      884DB048 
 110      61696114 
 110      AD96BD75 
 110      C92DB8
 111 0028 89DC0551 		.ascii	"\211\334\005QR\334\313\335)\207\0208\377\020\265I\012"
 111      52DCCBDD 
 111      29871038 
 111      FF10B549 
 111      0A
 112 0039 51443498 		.ascii	"QD4\230B$B\266\012Z\004\022[\233\013\244\213\004K\021"
 112      422442B6 
 112      0A5A0412 
 112      5B9B0BA4 
 112      8B044B11 
 113 004d F139EFED 		.ascii	"\3619\357\355\255wY\177\272\014\354\316\233\371\346"
 113      AD77597F 
 113      BA0CECCE 
 113      9BF9E6
 114 005c 9BF9E6F1 		.ascii	"\233\371\346\361\0300\310\332\020}\3678\300\015\025"
 114      1830C8DA 
 114      107DF738 
 114      C00D15
 115 006b 7040AA40 		.ascii	"p@\252@\206H\001B\225a\365\222:Bn\004\026\204\270\333"
 115      86480142 
 115      9561F592 
 115      3A426E04 
 115      1684B8DB 
 116 007f BEB91DF3 		.ascii	"\276\271\035\363G\367\343\306\274\370!%b\210\324\361"
 116      47F7E3C6 
 116      BCF82125 
 116      6288D4F1 
 117 008f 08828F70 		.ascii	"\010\202\217p\221\002\034\326\216\031\273G$\\\361\346"
 117      91021CD6 
 117      8E19BB47 
 117      245CF1E6 
 118 009f B9E8D33C 		.ascii	"\271\350\323<\036\252\236{\306Y\336Z7>\210F,\345\351"
 118      1EAA9E7B 
 118      C659DE5A 
 118      373E8846 
 118      2CE5E9
 119 00b2 103983D1 		.ascii	"\0209\203\321\277\352\2130K\214?\257><x{\276\326\022"
 119      BFEA8B30 
 119      4B8C3FAF 
 119      3E3C787B 
 119      BED612
 120 00c5 3F6937BD 		.ascii	"?i7\275\332\231=\\\355]F\346\205\177\310\354\352|\315"
 120      DA993D5C 
 120      ED5D46E6 
ARM GAS  /tmp/cc4zkXz1.s 			page 9


 120      857FC8EC 
 120      EA7CCD
 121 00d8 E2B6945F 		.ascii	"\342\266\224_\226\336o\256\340`\036\301\303\005\034"
 121      96DE6FAE 
 121      E0601EC1 
 121      C3051C
 122 00e7 21953493 		.ascii	"!\2254\223\253\237A\231\247\2241\311?#o\251d\216\202"
 122      AB9F4199 
 122      A79431C9 
 122      3F236FA9 
 122      648E82
 123 00fa 17149099 		.ascii	"\027\024\220\231\320\020\2425\254\346\267[\361\306\255"
 123      D010A235 
 123      ACE6B75B 
 123      F1C6AD
 124 0109 072836C5 		.ascii	"\007(6\305\235\316\266\006\003W+H\315\303W\310z5\023"
 124      9DCEB606 
 124      03572B48 
 124      CDC357C8 
 124      7A3513
 125 011c E7D3AA10 		.ascii	"\347\323\252\020\270\0307\205\224UM\2112\224E\354ya"
 125      B8183785 
 125      94554D89 
 125      329445EC 
 125      7961
 126 012e 0932AEFF 		.ascii	"\0112\256\377\347\025\300\327\240\266S_\232;\345\341"
 126      E715C0D7 
 126      A0B6535F 
 126      9A3BE5E1 
 127 013e 4B346102 		.ascii	"K4a\002q\006\276\213|\210f\324\341\255A\275\311S\224"
 127      7106BE8B 
 127      7C8866D4 
 127      E1AD41BD 
 127      C95394
 128 0151 5181BA08 		.ascii	"Q\201\272\010\332A#\313\277\021N\240F\276I)\0074Z\333"
 128      DA4123CB 
 128      BF114EA0 
 128      46BE4929 
 128      07345ADB 
 129 0165 AE5F4B61 		.ascii	"\256_Ka\203*t\356\343W+\311=\201\307\263B\034\240\213"
 129      832A74EE 
 129      E3572BC9 
 129      3D81C7B3 
 129      421CA08B 
 130 0179 56139BEA 		.ascii	"V\023\233\352d%/@\265\261\364l\342i\322N\375\355\234"
 130      64252F40 
 130      B5B1F46C 
 130      E269D24E 
 130      FDED9C
 131 018c 93B632BB 		.ascii	"\223\2662\273\012y\252\260\253\303\242\202?u\224S87"
 131      0A79AAB0 
 131      ABC3A282 
 131      3F759453 
 131      3837
 132 019e A15A2B1D 		.ascii	"\241Z+\035\353\377\325\201\031\035\264\357\006\314\266"
 132      EBFFD581 
 132      191DB4EF 
ARM GAS  /tmp/cc4zkXz1.s 			page 10


 132      06CCB6
 133 01ad 570E25A4 		.ascii	"W\016%\244\324\306U\241\272\247\303W\302\2423V\012\213"
 133      D4C655A1 
 133      BAA7C357 
 133      C2A23356 
 133      0A8B
 134 01bf E1D9736E 		.ascii	"\341\331sn\341\244]\260O8\316T\305)O;\225\262\357\370"
 134      E1A45DB0 
 134      4F38CE54 
 134      C5294F3B 
 134      95B2EFF8 
 135 01d3 A52888FC 		.ascii	"\245(\210\374\251r`\3730\340\272\245\300\273\352\026"
 135      A97260FB 
 135      30E0BAA5 
 135      C0BBEA16 
 136 01e3 BD4AE0BA 		.ascii	"\275J\340\272\366\321\276\311\340\3724\301v\241\277"
 136      F6D1BEC9 
 136      E0FA34C1 
 136      76A1BF
 137 01f2 83049397 		.ascii	"\203\004\223\227\0118\226'\257\362\307\367\357b\354"
 137      09389627 
 137      AFF2C7F7 
 137      EF62EC
 138 0201 EBADFA05 		.ascii	"\353\255\372\005]\257\377\224"
 138      5DAFFF94 
 139              		.text
 140              		.section	.gnu.lto_chCoreAllocI.ac29710df2be475b,"",%progbits
 141 0000 789C9D53 		.ascii	"x\234\235SMh\023Q\020\236\331\267\233\277&M\020/\361"
 141      4D681351 
 141      109ED9B7 
 141      9BBF264D 
 141      102FF1
 142 0013 20A53705 		.ascii	" \2457\005\263\024j\324\223\007O=y\250\005=\210$i\334"
 142      B3146AD4 
 142      93074F3D 
 142      79A8053D 
 142      882469DC 
 143 0027 2C9856D2 		.ascii	",\230V\322\036\004\017\335\374T\352/\245\024\264\325"
 143      1E040FDD 
 143      FC54EA2F 
 143      A514B4D5 
 144 0037 432B2529 		.ascii	"C+%)\005\011*BE\301\034<4Q\221 \202\275\005\245'\241"
 144      05092A42 
 144      45C11C3C 
 144      34519120 
 144      82BD05A5 
 145 004d 78AC22AE 		.ascii	"x\254\"\256\363\336v7\261\026]\372 ;\363f\276o\346\315"
 145      F3DE7637 
 145      B1165DFA 
 145      203BF366 
 145      BE6FE6CD 
 146 0061 F75E2490 		.ascii	"\367^$\220`\347R\351wQ\001\310\360\215\007\220\020("
 146      60E752E9 
 146      775101C8 
 146      F08D0790 
 146      1028
 147 0073 490CC090 		.ascii	"I\014\300\220d\372\310\014)\211\262\370*\210\004B\230"
ARM GAS  /tmp/cc4zkXz1.s 			page 11


 147      64FAC80C 
 147      2989B2F8 
 147      2A880442 
 147      98
 148 0084 9098ACE0 		.ascii	"\220\230\254\340\3049\276\203\256^X4\214\231\326d\271"
 148      C439BE83 
 148      AE5E5834 
 148      8C99D664 
 148      B9
 149 0095 8973B3B5 		.ascii	"\211s\263\265\322\202\361\3234\021u\236L!\234%\017{"
 149      D282F1D3 
 149      3411759E 
 149      4C219C25 
 149      0F7B
 150 00a7 84E1053B 		.ascii	"\204\341\005;\227E\254=k\334\215\336X(L\033\277\210"
 150      9745AC3D 
 150      6BDC8DDE 
 150      58284C1B 
 150      BF88
 151 00b9 A72393E0 		.ascii	"\247#\223\340\010\272aN\033O\226\015\277h\307t\224%"
 151      08BA614E 
 151      1B4F960D 
 151      BF68C774 
 151      9425
 152 00cb 88BBA2CD 		.ascii	"\210\273\242\315\374A\243n'\367\326m`/4w\222\030\325"
 152      FC41A36E 
 152      27F7D66D 
 152      602F3477 
 152      9218D5
 153 00de 6B939192 		.ascii	"k\223\221\222Mr\247\343|\355y\243\261\210D\316\1773"
 153      4D72A7E3 
 153      7CED79A3 
 153      B18844CE 
 153      7F33
 154 00f0 CDB0CE2F 		.ascii	"\315\260\316/\314\225\374\257\032\267w\310?\350Z\307"
 154      CC95FCAF 
 154      1AB777C8 
 154      3FE85AC7 
 155 0100 42A78EE7 		.ascii	"B\247\216\347w\245e\361\257\216s\215[Q\243\335Q\221"
 155      77A565F1 
 155      AF8E738D 
 155      5B51A3DD 
 155      5191
 156 0112 40FB5FC7 		.ascii	"@\373_\307\252Tk\231\346\313\346\322\347\025\334\027"
 156      AA546B99 
 156      E6CBE6D2 
 156      E715DC17 
 157 0122 41E02CCC 		.ascii	"A\340,\314\"2\362@\246&4n\002\037b/=\341\004.\221\365"
 157      2232F240 
 157      A626346E 
 157      021F622F 
 157      3DE1042E 
 158 0138 922D93F5 		.ascii	"\222-\223\365\221]&\353'\244\034\340\360.\316\016R\370"
 158      915D26EB 
 158      27A41CE0 
 158      F02ECE0E 
 158      52F8
ARM GAS  /tmp/cc4zkXz1.s 			page 12


 159 014a 31854364 		.ascii	"1\205Cd\037\221\355&[%\033\006\241\034(P\242\313\353"
 159      1F91ED26 
 159      5B251B06 
 159      A11C2850 
 159      A2CBEB
 160 015d B1404249 		.ascii	"\261@BIZg\304w\210\377G\330{(\266\356l\004\022\370T"
 160      5A67C477 
 160      88FF47D8 
 160      7B28B6EE 
 160      6C0412F8 
 161 0172 E0AFC20F 		.ascii	"\340\257\302\017c\312\210\350\350I\2415\261\216^\200"
 161      63CA88E8 
 161      E849A135 
 161      B18E5E80 
 162 0182 77509C2A 		.ascii	"wP\234*~\231=`\3014d\032J|>\037\345x\362E1i\247d\312"
 162      7E993D60 
 162      C134641A 
 162      4A7C3E1F 
 162      E578F245 
 163 019b 8AD49649 		.ascii	"\212\324\226I\367'\322\205\372\247\362w\311\006(\367"
 163      F727D285 
 163      FAA7F277 
 163      C90628F7 
 164 01ab 613E6FF0 		.ascii	"a>o\360\036\314\351\346\317\362\303\010\311\374\333"
 164      1ECCE9E6 
 164      CFF2C308 
 164      C9FCDB
 165 01ba 5211ED2B 		.ascii	"R\021\355+\2639\036\215\237\216B\003v\304\273{\025\370"
 165      B3391E8D 
 165      9F8E4203 
 165      76C4BB7B 
 165      15F8
 166 01cc 57159FB6 		.ascii	"W\025\237\266=\313u'\344\027\265}\002\270Y<h\207\003"
 166      3DCB7527 
 166      E417B57D 
 166      02B8593C 
 166      688703
 167 01df 1AAFB006 		.ascii	"\032\257\260\006\2577\362\241\216X\307m\016\321\235"
 167      AF37F2A1 
 167      8E58C76D 
 167      0ED19D
 168 01ee 0123D6EA 		.ascii	"\001#\326\352\275\312!\033\322\305[+m\210lA\352k\025"
 168      BDCA211B 
 168      D2C55B2B 
 168      6D886C41 
 168      EA6B15
 169 0201 B42141D7 		.ascii	"\264!A\327\347\256oU\326\035Z\310-\255x\323\231\255"
 169      E7AE6F55 
 169      D61D5AC8 
 169      2DAD78D3 
 169      99AD
 170 0213 9B68E2CC 		.ascii	"\233h\342\314m\335\334T!\242\325\177u%j\227\012\323"
 170      6DDDDC54 
 170      21A2D57F 
 170      75256A97 
 170      0AD3
 171 0225 C1EDA168 		.ascii	"\301\355\241h>\366\006\362\244\3310\327\240)\\\315z"
ARM GAS  /tmp/cc4zkXz1.s 			page 13


 171      3EF606F2 
 171      A4D930D7 
 171      A0295CCD 
 171      7A
 172 0236 2DEB80A4 		.ascii	"-\353\200\244\002{\373a?q\344\007\037\203\374\261Q\206"
 172      027BFB61 
 172      3F71E407 
 172      1F83FCB1 
 172      5186
 173 0248 5FEEE14B 		.ascii	"_\356\341KzR=\225\321\223\372\351\301\013}\361X_\254"
 173      7A523D95 
 173      D193FAE9 
 173      C10B7DF1 
 173      585FAC
 174 025b 5F5547C7 		.ascii	"_UG\307\324\334\270:\226K\251\251L6\235M\215\346\322"
 174      D4DCB83A 
 174      964BA9A9 
 174      4C369D4D 
 174      8DE6D2
 175 026e B114F8D2 		.ascii	"\261\024\370\322#\303\264\213\365\333\316Q\377H\372"
 175      23C3B48B 
 175      F5DBCE51 
 175      FF48FA
 176 027d CA38F7E2 		.ascii	"\3128\367\342\216w\314\361\216;\336\011\274\374\033"
 176      8E77CCF1 
 176      8E3BDE09 
 176      BCFC1B
 177 028c 6A0A5223 		.ascii	"j\012R#"
 178              		.text
 179              		.section	.gnu.lto_chCoreAlloc.ac29710df2be475b,"",%progbits
 180 0000 789C6362 		.ascii	"x\234cb`b@\007\322@\\\306\310\300\240\007\342\26000"
 180      60624007 
 180      D2405CC6 
 180      C8C0A007 
 180      E2B03030 
 181 0014 02553032 		.ascii	"\002U0212\003IfF\2400\003#C=\0233c}$\210\315\300\244"
 181      31320349 
 181      6646A030 
 181      0323433D 
 181      1333637D 
 182 002d C4B0B0A1 		.ascii	"\304\260\260\241a\326\203\326\3373$\273\0264Mh\370\367"
 182      61D683D6 
 182      DF3324BB 
 182      16344D68 
 182      F8F7
 183 003f FF3F6326 		.ascii	"\377?c&H*\231\221!\002\310bT\000SL,\250\226\200\265"
 183      482A9991 
 183      2102C862 
 183      5400534C 
 183      2CA89680 
 184 0054 4D3AB0F7 		.ascii	"M:\260\367x\217d\003\2226&\006]F\002:\3273\035x\360"
 184      788F6403 
 184      92362606 
 184      5D46023A 
 184      D7331D78 
 185 0069 FFFF9DDD 		.ascii	"\377\377\235\335\013\036\275e\024dad\314\005\351Jd\\"
 185      0B1EBD65 
ARM GAS  /tmp/cc4zkXz1.s 			page 14


 185      14646164 
 185      CC05E94A 
 185      645C
 186 007b C4A8C4C0 		.ascii	"\304\250\304\300\314\000\266\231\201\225\241\245\241"
 186      CC00B699 
 186      8195A1A5 
 186      A1
 187 0088 61820244 		.ascii	"a\202\002D\020\354\022 \010\001\223\241 \3570\237gh"
 187      10EC1220 
 187      080193A1 
 187      20EF309F 
 187      6768
 188 009a 7EF0A299 		.ascii	"~\360\242\231=\221q\011#+P\260\232\341WCG\203@&#s2\330"
 188      3D917109 
 188      232B50B0 
 188      9AE15743 
 188      47834026 
 189 00b2 870C4073 		.ascii	"\207\014@s\200\266\236ghy\360r1#DU:#\023\\\031k2#$\330"
 189      80B69E67 
 189      6879F072 
 189      31234455 
 189      3A23135C 
 190 00cc D219810E 		.ascii	"\322\031\201\016d\003\251l~\360\3520V\363\230\021\346"
 190      6403A96C 
 190      7EF0EA30 
 190      56F39811 
 190      E6
 191 00dd 9D65683A 		.ascii	"\235eh:9\343\267\004\314<\346t\250)@G\001U1\237fh\344"
 191      39E3B704 
 191      CC3CE674 
 191      A8294047 
 191      0155319F 
 192 00f4 60604801 		.ascii	"``H\001\271\340\"\003\334V\210~\240\353\201\302 \345"
 192      B9E02203 
 192      DC56887E 
 192      A0EB81C2 
 192      20E5
 193 0106 5A399949 		.ascii	"Z9\231I\372\316\031\231I\231\376\301\361\206fz\206z"
 193      FACE1999 
 193      4999FEC1 
 193      F186667A 
 193      867A
 194 0118 26FAFAF9 		.ascii	"&\372\372\371\305\372E%\372\305E\311\372\311\031\271"
 194      C5FA4525 
 194      FAC545C9 
 194      FAC919B9 
 195 0128 A9B9C9F9 		.ascii	"\251\271\311\371E\251z\311\014\214\005\000qba+"
 195      45A97AC9 
 195      0C8C0500 
 195      7162612B 
 196              		.text
 197              		.section	.gnu.lto_chCoreGetStatusX.ac29710df2be475b,"",%progbits
 198 0000 789C6362 		.ascii	"x\234cb`b@\007\322@\334\013\024\016\003qX\030\030\201"
 198      60624007 
 198      D240DC0B 
 198      140E0371 
 198      58181881 
ARM GAS  /tmp/cc4zkXz1.s 			page 15


 199 0014 4C462646 		.ascii	"LF&Ff \311\314\310\010\024bd\250gbf\254\217\004\261"
 199      6620C9CC 
 199      C8081462 
 199      64A86762 
 199      66AC8F04 
 200 0029 19D89418 		.ascii	"\031\330\224\030\02664\314zpt\375L\311\256\005M\023"
 200      163634CC 
 200      7A7074FD 
 200      4CC9AE05 
 200      4D13
 201 003b 1AFEFDFF 		.ascii	"\032\376\375\377\317\230\011\222Jfd\210\000\262\030"
 201      CF980992 
 201      4A666488 
 201      00B218
 202 004a 15C01413 		.ascii	"\025\300\024\023\013\252%`m\223\032\276>\0118\321\320"
 202      0BAA2560 
 202      6D931ABE 
 202      3E0938D1 
 202      D0
 203 005b 72E0FF7F 		.ascii	"r\340\377\177\373LFf&\006]Fb\264Mh\330\264\242\201s"
 203      FB4C4666 
 203      26065D46 
 203      62B44D68 
 203      D8B4A281 
 204 0070 41C39FFF 		.ascii	"A\303\237\377\377\2313\031Y\230\030\314\211\3226\011"
 204      FF993319 
 204      599818CC 
 204      89D23609 
 205 0080 451BD036 		.ascii	"E\033\3206G\362l\363!G\033\241\360X\317t\340\301\377"
 205      47F26CF3 
 205      21471BA1 
 205      F058CF74 
 205      E0C1FF
 206 0093 FF7BAEFF 		.ascii	"\377{\256\377yx\202Q\210\235\221!\221q\021\243\0220"
 206      79788251 
 206      889D9121 
 206      917111A3 
 206      1230
 207 00a5 72121997 		.ascii	"r\022\031\227\000if \275\014H\263\000\351\025@\232\225"
 207      00696620 
 207      BD0C48B3 
 207      00E91540 
 207      9A95
 208 00b7 0168241B 		.ascii	"\001h$\033\0038\234\201\234\026\240u\012`\033\200 \004"
 208      03389C81 
 208      9C16A075 
 208      0A601B80 
 208      2004
 209 00c9 4C8682A2 		.ascii	"L\206\202\242\215\371,C\323\311\033\353/2'2\256fdeH"
 209      8DF92C43 
 209      D3C91BEB 
 209      2F322732 
 209      AE666465 
 210 00de 67649CCD 		.ascii	"gd\234\3150\253\261\241A\000\350\375j\206_\015\035 "
 210      30ABB1A1 
 210      4100E8FD 
 210      6A865F0D 
ARM GAS  /tmp/cc4zkXz1.s 			page 16


 210      1D20
 211 00f0 166B2E58 		.ascii	"\026k.X\003\310Q\254P\307\000\265\275\206\353aJ\007"
 211      03C851AC 
 211      50C700B5 
 211      BD86EB61 
 211      4A07
 212 0102 C53A50C8 		.ascii	"\305:P\310\023&\302\214\335\024F|\246\260\244\203R\320"
 212      1326C28C 
 212      DD14467C 
 212      A6B0A483 
 212      52D0
 213 0114 5986E64E 		.ascii	"Y\206\346N\270\020+\330l\026\260\302w\315|0a\266t\230"
 213      B8102BD8 
 213      6C16B0C2 
 213      77CD7C30 
 213      61B67498 
 214 0128 09A1202D 		.ascii	"\011\241 -\314\247\031\0329\030\030R@\376\271\310\300"
 214      CCA7191A 
 214      39181852 
 214      40FEB9C8 
 214      C0
 215 0139 08570551 		.ascii	"\010W\005Q\022\002\262\025\224\204\265r2\223\364\235"
 215      1202B215 
 215      9484B572 
 215      3293F49D 
 216 0149 33329332 		.ascii	"32\2232\375\203\343\015\315\364\014\365L\364\365\363"
 216      FD83E30D 
 216      CDF40CF5 
 216      4CF4F5F3 
 217 0159 8BF58B4A 		.ascii	"\213\365\213J\364\213\213\222\365\2233rSs\223\363\213"
 217      F48B8B92 
 217      F5933372 
 217      537393F3 
 217      8B
 218 016a 52F59219 		.ascii	"R\365\222\0318S\363R\200<=C\0038\313\220+/\265\242\004"
 218      3853F352 
 218      803C3D43 
 218      0338CB90 
 218      2B2FB5A2 
 219 017f CC344230 		.ascii	"\3144B0\215\001\346#\246\024"
 219      8D01E623 
 219      A614
 220              		.text
 221              		.section	.gnu.lto_.symbol_nodes.ac29710df2be475b,"",%progbits
 222 0000 789C4DCC 		.ascii	"x\234M\3149R\303@\020\205\341\367\2725f\2210\333\001"
 222      3952C340 
 222      1085E1F7 
 222      BA356691 
 222      30DB01
 223 0013 B892AFC0 		.ascii	"\270\222\257\300I\236\012W\271\034\222\370\002v\000"
 223      499E0A57 
 223      B91C92F8 
 223      027600
 224 0022 E7103921 		.ascii	"\347\0209!1\007 a1x\301\262%\015\305h\222\277\276\351"
 224      31072061 
 224      3178C1B2 
 224      250DC568 
ARM GAS  /tmp/cc4zkXz1.s 			page 17


 224      92BFBEE9 
 225 0036 99361846 		.ascii	"\2316\030FD<\266\207\200\373g@\232Mo\255\244\330\343"
 225      443CB687 
 225      80FB6740 
 225      9A4D6FAD 
 225      A4D8E3
 226 0049 03653D3E 		.ascii	"\003e=>R\236\030v\315\026!\354\311Ln\237T\3667|\231"
 226      529E1876 
 226      CD1621EC 
 226      C94C6E9F 
 226      54F6377C 
 227 005e 32FCD0DA 		.ascii	"2\374\320\332\341;} \017+f\255>\030\032\331\222\012"
 227      E13B7D20 
 227      0F2B66AD 
 227      3E181AD9 
 227      920A
 228 0070 E9A97D51 		.ascii	"\351\251}Q\203\036\277\251\243Dn\250\343\310\262$\327"
 228      831EBFA9 
 228      A3446EA8 
 228      E3C8B224 
 228      D7
 229 0081 D449524D 		.ascii	"\324IRM\235&\375Ry\322\226*\222J\323\331\277\334\200"
 229      9D26FD52 
 229      79D2962A 
 229      924AD3D9 
 229      BFDC80
 230 0094 BBD7BAE9 		.ascii	"\273\327\272\3519\026]\207xj\353W\030w\275\214\367~"
 230      39165D87 
 230      786AEB57 
 230      1877BD8C 
 230      F77E
 231 00a6 81C5E4ED 		.ascii	"\201\305\344\355\306\235\250\332\346\327q^X\374_\344"
 231      C69DA8DA 
 231      E6D7715E 
 231      58FC5FE4 
 232 00b6 98777554 		.ascii	"\230wuTMq\000zDh\026"
 232      4D71007A 
 232      446816
 233              		.text
 234              		.section	.gnu.lto_.refs.ac29710df2be475b,"",%progbits
 235 0000 789C2587 		.ascii	"x\234%\207\301\021\000 \010\303J\005A<\007q\377\005"
 235      C1110020 
 235      08C34A05 
 235      413C0771 
 235      FF05
 236 0012 454D3E09 		.ascii	"EM>\011Al|\254A\251(i\332\351\022\034\2226\221\210k"
 236      416C7CAC 
 236      41A92869 
 236      DAE9121C 
 236      92369188 
 237 0027 FD7A7D00 		.ascii	"\375z}\000\025\345\000\335"
 237      15E500DD 
 238              		.text
 239              		.section	.gnu.lto_.decls.ac29710df2be475b,"",%progbits
 240 0000 789CBD5C 		.ascii	"x\234\275\\\013t\024U\232\256\252\356\364#i\222\340"
 240      0B741455 
 240      9AAEAAEE 
ARM GAS  /tmp/cc4zkXz1.s 			page 18


 240      F4236992 
 240      E0
 241 0011 ECB8308B 		.ascii	"\354\2700\213\232\2313\263g\307]\011\370\304\231\035"
 241      9A9933B3 
 241      67C75D09 
 241      F8C4991D 
 242 0021 C16156F1 		.ascii	"\301aV\361\3548;+\353\256\273s\234\266\322)H\017\335"
 242      EC383B2B 
 242      EBAEBB73 
 242      9CB6D229 
 242      480FDD
 243 0034 9D9EEA0A 		.ascii	"\235\236\352\012\217\331=\307\"\201\310\303\301\010"
 243      8FD93DC7 
 243      2281C8C3 
 243      C108
 244 0042 22882841 		.ascii	"\"\210(A\004EYP^\032DR0\002\001F\014\004H$\012m\020"
 244      04455950 
 244      5E1A4452 
 244      30020146 
 244      0C044824 
 245 0059 0746C420 		.ascii	"\007F\304 \017\003\023\315\376\367\257[\335U\325U\235"
 245      0F0313CD 
 245      FEF7AF5B 
 245      DD55D555 
 245      9D
 246 006a AAA8DB27 		.ascii	"\252\250\333'\367\366\355[\367~\377\363\376\367QU\341"
 246      F7F6ED5B 
 246      F77EFFF3 
 246      FEF75155 
 246      E1
 247 007b 188E613C 		.ascii	"\030\216a<\014\323\007\237\361w1\014\023\304?\346\016"
 247      0CD3079F 
 247      F177310C 
 247      13C43FE6 
 247      0E
 248 008c 26FB2986 		.ascii	"&\373)\206\264\034\322*H\253!\255\201\264\016\322zH"
 248      B41CD22A 
 248      48AB21AD 
 248      81B40ED2 
 248      7A48
 249 009e 5B212990 		.ascii	"[!)\220\336\202\264\013R\013\244\003\220\332 \035\206"
 249      DE82B40B 
 249      520BA403 
 249      90DA201D 
 249      86
 250 00af E483D40E 		.ascii	"\344\203\324\016\351& \363#H?\2014\006\322O9\306\360"
 250      E92620F3 
 250      23483F81 
 250      3406D24F 
 250      39C6F0
 251 00c2 21F80590 		.ascii	"!\370\005\220z)\275\020\244\237A\233\273h;\216\266\031"
 251      7A29BD10 
 251      A49F419B 
 251      BB683B8E 
 251      B619
 252 00d4 67EAC750 		.ascii	"g\352\307P\276\372\353\273\312\246\357jz\375_!{\216"
 252      BEFAEBBB 
ARM GAS  /tmp/cc4zkXz1.s 			page 19


 252      CAA6EF6A 
 252      7AFD5F21 
 252      7B8E
 253 00e6 D67969FD 		.ascii	"\326yi\375r*\323[\271\335P\007\245\220>\321\321\364"
 253      722AD35B 
 253      B9DD5007 
 253      A5903ED1 
 253      D1F4
 254 00f8 EB703E82 		.ascii	"\353p>\202t\034R\007\244\373\240n<\244\313P>\013\351"
 254      741C5207 
 254      A4FBA06E 
 254      3CA4CB50 
 254      3E0BE9
 255 010b DFA07C3F 		.ascii	"\337\240|?\244=\224\357c\220NB:\003i\033\3130=\264~"
 255      A43D94EF 
 255      63904E42 
 255      3A03691B 
 255      CB303DB4 
 256 0120 0DD5E301 		.ascii	"\015\325\343\001\252\327U\224W\242\313v\023?\353(\375"
 256      AAD75594 
 256      57A2CB76 
 256      133FEB28 
 256      FD
 257 0131 021D3F77 		.ascii	"\002\035?w@\273\037C\372wH\377Aegi[\"\343O\250\035~"
 257      40BB1F43 
 257      FA7748FF 
 257      41656769 
 257      5B22E34F 
 258 0148 446DA2FF 		.ascii	"Dm\242\377\020\333\026Z\340\221~\243urnb\262\330\034"
 258      10DB165A 
 258      E0917EA3 
 258      75726E62 
 258      B2D81C
 259 015b ED775887 		.ascii	"\355wX\207\337\304\2504\0360\341o\245\374\216\326\341"
 259      DFC4A834 
 259      1E30E16F 
 259      A5FC8ED6 
 259      E1
 260 016c 6B98FF09 		.ascii	"k\230\377\011\337\033t\266\330J\355\261\236\352\204"
 260      DF1B74B6 
 260      D84AEDB1 
 260      9EEA84
 261 017b 406D83F4 		.ascii	"@m\203\364_&L\205Q\375m\223\005\317z\371I;\017\345\213"
 261      5F264C85 
 261      51FD6D93 
 261      05CF7AF9 
 261      493B0FE5 
 262 0190 F0F82B13 		.ascii	"\360\370+\023\316u\314\263\262\322\232\236\371\321\011"
 262      CE75CCB3 
 262      B2D29A9E 
 262      F9D109
 263 019f EE295999 		.ascii	"\356)Y\231!\303\320\220\331\262\253\231\2052|\032\353"
 263      21C3D090 
 263      D9B2AB99 
 263      85327C1A 
 263      EB
 264 01b0 65999578 		.ascii	"e\231\225x\366\216o3\017\260<[\034d\312\260\020\012"
ARM GAS  /tmp/cc4zkXz1.s 			page 20


 264      F68E6F33 
 264      0FB03C5B 
 264      1C64CAB0 
 264      100A
 265 01c2 221D86E1 		.ascii	"\"\035\206\341\331\347\330\253i\351~\217\246\231\333"
 265      D9E7D8AB 
 265      69E97E8F 
 265      A699DB
 266 01d1 58E67A66 		.ascii	"X\346zf5\364o\220\345\347\276\3072V\237\277eV\022\012"
 266      35F46F90 
 266      E5E7BEC7 
 266      32569FBF 
 266      6556120A 
 267 01e5 F28BB207 		.ascii	"\362\213\262\007\361\011\302r\366:}\023\236]\301\032"
 267      F109C272 
 267      F63A7D13 
 267      9E5DC11A 
 268 01f5 B8557955 		.ascii	"\270UyU\032\216\207\032\246\247\373\372\2265\226\252"
 268      1A8E871A 
 268      A6A7FBFA 
 268      963596AA 
 269 0205 F439661C 		.ascii	"\3649f\034\013\255\237g\257\317\013\277\312\014\377"
 269      0BAD9F67 
 269      AFCF0BBF 
 269      CA0CFF
 270 0214 82157CBA 		.ascii	"\202\025|\272\243\376\375\002\235*4\022\017;!\261\332"
 270      A3FEFD02 
 270      9D2A3412 
 270      0F3B21B1 
 270      DA
 271 0225 4CE2254B 		.ascii	"L\342%K\011\226\266\347H0\233u\202\277\306\214\377\277"
 271      0996B6E7 
 271      48309B75 
 271      82BFC68C 
 271      FFBF
 272 0237 B9F88D4A 		.ascii	"\271\370\215J\272s\316;|V\004F\243\2418\242\261\316"
 272      BA73CE3B 
 272      7C560446 
 272      A3A138A2 
 272      B1CE
 273 0249 4CE3955C 		.ascii	"L\343\225\\\032\351Ve\321\336}\254<_\356\355\353\253"
 273      1AE95665 
 273      D1DE7DAC 
 273      3C5FEEED 
 273      EBAB
 274 025b F332267F 		.ascii	"\3632&\177\031]d\353/\033\250\277x\320\263!\374\316"
 274      195D64EB 
 274      2F1BA8BF 
 274      78D0B321 
 274      FCCE
 275 026d 92E55AD2 		.ascii	"\222\345Z\322q\\\013\270\261U\257\0370\317\203'\245"
 275      715C0BB8 
 275      B155AF1F 
 275      30CF8327 
 275      A5
 276 027e 5F9B77E4 		.ascii	"_\233w\344<[\013\370<\273\211\015B\357/M\322\360lA\320"
 276      3C5B0BF8 
ARM GAS  /tmp/cc4zkXz1.s 			page 21


 276      3CBB890D 
 276      42EF2F4D 
 276      D2F06C41 
 277 0293 C838FCD6 		.ascii	"\3108\374\326\032\020<\274L\013d\012(\321{-C\034w&g"
 277      1A103CBC 
 277      4C0B640A 
 277      28D17B2D 
 277      431C7726 
 278 02a8 84FC3EB3 		.ascii	"\204\374>\263B\226\347\247;\367\356\\\317.\250\223\307"
 278      4296E7A7 
 278      3BF7EE5C 
 278      CF2EA893 
 278      C7
 279 02b9 69A4E763 		.ascii	"i\244\347c\273\365\240(+\206\325V\232vk\345u\3653K\275"
 279      BBF5A028 
 279      2B86D556 
 279      9A766BE5 
 279      75F5334B 
 280 02ce A814264F 		.ascii	"\250\024&O/\312\363\353V\006U\266\354\246\016S\246j"
 280      2FCAF3EB 
 280      560655B6 
 280      ECA60E53 
 280      A66A
 281 02e0 90631659 		.ascii	"\220c\026Y\262*_\254\244L\362\354\026@\342\331\255\003"
 281      B22A5FAC 
 281      A44CF2EC 
 281      1640E2D9 
 281      AD03
 282 02f2 62D2AE17 		.ascii	"b\322\256\027e\362MK&?\237\363\350P\271\261V\351\353"
 282      65F24D4B 
 282      263F9FF3 
 282      E850B9B1 
 282      56E9EB
 283 0305 6B1E63F6 		.ascii	"k\036c\366\010B\314\316%\266[\204\220\025\234\245\253"
 283      0842CCCE 
 283      25B65B84 
 283      90159CA5 
 283      AB
 284 0316 D6CAEB5F 		.ascii	"\326\312\353_\224\203\032\357<\253\344\347s\207\205"
 284      94831AEF 
 284      3CABE4E7 
 284      738785
 285 0325 E736A43B 		.ascii	"\3476\244;\026\274\347yJ\336AF\307\303\231\261\361A"
 285      16BCE779 
 285      4ADE4146 
 285      C7C399B1 
 285      F141
 286 0337 0E411562 		.ascii	"\016A\025b\247%\304\301\366w\330\034\210g=\326\020\273"
 286      A725C4C1 
 286      F677D81C 
 286      88673DD6 
 286      10BB
 287 0349 ADB9A86F 		.ascii	"\255\271\250o\367f \234\307\333=\306\361S\304\314\311"
 287      F766209C 
 287      C7DB3DC6 
 287      F153C4CC 
 287      C9
ARM GAS  /tmp/cc4zkXz1.s 			page 22


 288 035a 8E1F3A98 		.ascii	"\216\037:\230\322+\225!\213\263\203)\240A\220@\214\203"
 288      D22B9521 
 288      8BB38329 
 288      A0419040 
 288      8C83
 289 036c 89C4652E 		.ascii	"\211\304e.\323X\0362\304\272-\317\276\315\376\000\362"
 289      D3581E32 
 289      C4BA2DCF 
 289      BECDFE00 
 289      F2
 290 037d FDAAA3E0 		.ascii	"\375\252\243\340%\265\254\225\372Xb\253\255\036\353"
 290      25B5AC95 
 290      FA5862AB 
 290      AD1EEB
 291 038c 10DF6F57 		.ascii	"\020\337oW;\031\367\261EY\010\303\000\335n\243\342V"
 291      3B19F7B1 
 291      455908C3 
 291      00DD6EA3 
 291      E256
 292 039e 6B2B2D3A 		.ascii	"k+-:\224k\245}6\020\007\255\255\324f\341+\247l \016"
 292      946BA57D 
 292      361007AD 
 292      ADD466E1 
 292      2BA76C20 
 293 03b3 594128BD 		.ascii	"YA(\275\373\037\225Y\034\275\327i\000Wl\000\216\030"
 293      FB1F9559 
 293      1CBDD769 
 293      00576C00 
 293      8E18
 294 03c5 01BEC72C 		.ascii	"\001\276\307,'<\274\326\3252\233\335\276RV\032\300="
 294      273CBCD6 
 294      D5329BDD 
 294      BE52561A 
 294      C03D
 295 03d7 BAD9BE3E 		.ascii	"\272\331\276>\377U\314\343\304]\312f\235\310jQyPSc\007"
 295      FF55CCE3 
 295      C45DCA66 
 295      9DC86A51 
 295      79505363 
 296 03ec D11E8D9A 		.ascii	"\321\036\215\232\307O(\327n\221e\230f:\330\253\200\362"
 296      C74F28D7 
 296      6E916598 
 296      663AD8AB 
 296      80F2
 297 03fe 9FBC46CA 		.ascii	"\237\274F\312\016\2208\346<v\352\004\000\265\253\352"
 297      0E9038E6 
 297      3C76EA04 
 297      00B5ABEA 
 298 040e 44C057EB 		.ascii	"D\300W\353\324\305\210M.1\026\022\321\317w\231Fh\257"
 298      D4C5884D 
 298      2E311612 
 298      D1CF7799 
 298      4668AF
 299 0421 3C736C29 		.ascii	"<sl)+7\356`5\232\272\200\237f5\222\303\364\274\367|"
 299      2B37EE60 
 299      359ABA80 
 299      9F663592 
ARM GAS  /tmp/cc4zkXz1.s 			page 23


 299      C3F4BCF7 
 300 0436 671BE21F 		.ascii	"g\033\342\037G\336\277\260\341\335\026\207c\346\024"
 300      47DEBFB0 
 300      E1DD1687 
 300      63E614
 301 0445 902E5DB9 		.ascii	"\220.]\271\234+\277Q9\357r\304y\333Q[\316\307h\004\003"
 301      9C2BBF51 
 301      39EF72C4 
 301      79DB515B 
 301      CEC76804 
 302 045a 06A57F67 		.ascii	"\006\245\177g\017\302\177\204\214/.\260d\274q\214\035"
 302      0FC27F84 
 302      8C2F2EB0 
 302      64BC718C 
 302      1D
 303 046b 0EC7BC88 		.ascii	"\016\307\274\210]N\3472\3363\\e\374\264\003\306k\225"
 303      5D4EE732 
 303      DE335C65 
 303      FCB403C6 
 303      6B95
 304 047d 73739F19 		.ascii	"ss\237\031J\0307\204\011+\233\313>\215\376CY9\216\235"
 304      4A183784 
 304      092B9BCB 
 304      3E8DFE43 
 304      59398E9D 
 305 0491 E8F1CB72 		.ascii	"\350\361\313r\200g\317\242\030M\326b\344\301\341\230"
 305      8067CFA2 
 305      184DD662 
 305      E4C1E198 
 306 04a1 1DD8E79C 		.ascii	"\035\330\347\234\205\353\214R\3458\347H\216E\363T9x"
 306      85EB8C52 
 306      E538E748 
 306      8E45F354 
 306      3978
 307 04b3 F6139085 		.ascii	"\366\023\220\205c\376\230\201\265\212!\264\250~h\003"
 307      63FE9881 
 307      B58A21B4 
 307      A87E6803 
 308 04c3 23DE92FD 		.ascii	"#\336\222\375\241\006^\003ks\015Vf\000[\266\177)2\347"
 308      A1065E03 
 308      6B730D56 
 308      66005BB6 
 308      7F2932E7 
 309 04d7 7C2D73F1 		.ascii	"|-s\361\2542\344M\024\3772\256'\226\370\214\232u\216"
 309      AC32E44D 
 309      14FF32AE 
 309      2796F88C 
 309      9A758E
 310 04ea B4F07CEB 		.ascii	"\264\360|\353\2205\210\324\213H\312\200\2216\\R\026"
 310      903588D4 
 310      8B48CA80 
 310      91365C52 
 310      16
 311 04fb B175B8BE 		.ascii	"\261u\270\276\352C\250\317}\346\365\225\337\264\276"
 311      EA43A8CF 
 311      7DE6F595 
 311      DFB4BE
ARM GAS  /tmp/cc4zkXz1.s 			page 24


 312 050a F21BD757 		.ascii	"\362\033\327W\376`\266@\327W\337ls\216\251\365;0]\300"
 312      FE60B640 
 312      D757DF6C 
 312      738EA9F5 
 312      3B305DC0 
 313 051e CE0FE4F4 		.ascii	"\316\017\344\364\346.\345v\262P\366hC\322g\247%X\241"
 313      E62EE576 
 313      B250F668 
 313      43D267A7 
 313      2558A1
 314 0531 23AD199C 		.ascii	"#\255\031\234\311\225\333\256\264\374Puer\251\177W\336"
 314      C995DBAE 
 314      B4FC5075 
 314      6572A97F 
 314      57DE
 315 0543 B47791FD 		.ascii	"\264w\221\375\220\324Qo\3444\362\337G\362;\220\374l"
 315      90D4516F 
 315      E434F2DF 
 315      47F23B90 
 315      FC6C
 316 0555 33F9957D 		.ascii	"3\371\225}\333Y\034\243\263\035Q?p\360\211\\\352\266"
 316      DB591CA3 
 316      B31D513F 
 316      70F0895C 
 316      EAB6
 317 0567 0B0EEA1A 		.ascii	"\013\016\352\032mWN\015[\206\"\376\236#\003f\277\337"
 317      6D574E0D 
 317      5B8622FE 
 317      9E230366 
 317      BFDF
 318 0579 EC19A38B 		.ascii	"\354\031\243\213\364\264\360\267\256\001\307\264g\230"
 318      F4B4F0B7 
 318      AE01C7B4 
 318      6798
 319 0587 1FD0784D 		.ascii	"\037\320xM\257|i/nO=\032\013G]\003\226\031\364p\350"
 319      AF7C692F 
 319      6E4F3D1A 
 319      0B475D03 
 319      9619F470 
 320 059c 20060015 		.ascii	" \006\000\025\354}'`\266^T\253\034\321\203\245]\203"
 320      EC7D2760 
 320      B65E54AB 
 320      1CD183A5 
 320      5D83
 321 05ae 1939EBD0 		.ascii	"\0319\353\320\203\235p\002Vj\317\331Q=\330G\256\301"
 321      839D7002 
 321      566ACFD9 
 321      513DD847 
 321      AEC1
 322 05c0 8C9CBDA7 		.ascii	"\214\234\275\247\007;\355\004l\210=g\307\364`\237\270"
 322      073BED04 
 322      6C883D67 
 322      C7F4609F 
 322      B8
 323 05d1 063372D6 		.ascii	"\0063r\326\255\007;\347\004\254\314\202\263\314\307"
 323      AD073BE7 
 323      04ACCC82 
ARM GAS  /tmp/cc4zkXz1.s 			page 25


 323      B3CCC7
 324 05e0 6E5D3A8B 		.ascii	"n]:\213\313\2709\307\\\310\204\003\227.\315d1z\\\207"
 324      CBB839C7 
 324      5CC88403 
 324      972ECD64 
 324      317A5C87 
 325 05f4 2F83DC64 		.ascii	"/\203\334d\032\275}\313zY\236\355\323\346\262/\235 "
 325      1ABD7DCB 
 325      7A599EED 
 325      D3E6B22F 
 325      9D20
 326 0606 E67198CD 		.ascii	"\346q\230\315\372\211\261>\340\026\314h\226C*\330>\004"
 326      FA89B13E 
 326      E016CC68 
 326      96432AD8 
 326      3E04
 327 0618 9BE7042C 		.ascii	"\233\347\004,\217\303t\0230\253\355\216R/\317b\247\277"
 327      8FC37413 
 327      30ABED8E 
 327      522FCF62 
 327      A7BF
 328 062a 3A2CEF92 		.ascii	":,\357\222\014B\3305/a\010{\231#\223\333\302\200\345"
 328      0C42D835 
 328      2F61087B 
 328      992393DB 
 328      C280E5
 329 063d 3CE9086B 		.ascii	"<\351\010k\341\371\356\241\352\234\273\026\261\032\007"
 329      E1F9EEA1 
 329      EA9CBB16 
 329      B11A07
 330 064c 8ED5B8E1 		.ascii	"\216\325\270\341R\213\007\303\367\253\010\265:`\216"
 330      528B07C3 
 330      F7AB08B5 
 330      3A608E
 331 065b AC41D39C 		.ascii	"\254A\323\234\0334\316\212\301`\266\320\247}\214\333"
 331      1B34CE8A 
 331      C160B6D0 
 331      A77D8CDB 
 332 066b B16FB48F 		.ascii	"\261o\264\217\335PyI?T6\2726\275\321\3157w\235\372\361"
 332      DD507949 
 332      3F5436BA 
 332      36BDD1CD 
 332      37779DFA 
 333 0680 225999EE 		.ascii	"\"Y\231\356\321\355Y\363np\311\012\353T;]\315lF\315"
 333      D1ED59F3 
 333      6E70C90A 
 333      EB543B5D 
 333      CD6C46CD 
 334 0694 365B1BC9 		.ascii	"6[\033\311\001\024,\2616\321\203\247&\204j\0310\324"
 334      01142CB1 
 334      36D183A7 
 334      26846A19 
 334      30D4
 335 06a6 864BE93A 		.ascii	"\206K\351:\312\325V\204j\315\2617k\2627k\264Cf\017M"
 335      CAD55684 
 335      6ACDB137 
 335      6BB2376B 
ARM GAS  /tmp/cc4zkXz1.s 			page 26


 335      B443660F 
 336 06bb B7D0DF54 		.ascii	"\267\320\337T[\230a\315F3\010\224'\214fbS\313?6\255"
 336      5B9861CD 
 336      46330894 
 336      278C6662 
 336      53CB3F36 
 337 06d0 95E53A9F 		.ascii	"\225\345:\237\033\253\2455\253mG\375t\345\350\207\230"
 337      1BABA535 
 337      AB6D47FD 
 337      74E5E887 
 337      98
 338 06e1 C09D207F 		.ascii	"\300\235 \177v-H\300$H\367\000\004\351\326\004\331\205"
 338      762D48C0 
 338      2448F700 
 338      04E9D604 
 338      D985
 339 06f3 827CF635 		.ascii	"\202|\3665\010r\305\265 \245:A\310\246\253\345\027M"
 339      0872C5B5 
 339      20A53A41 
 339      C8A6ABE5 
 339      174D
 340 0705 385B7C8B 		.ascii	"8[|\213\231\237\177\265\213\2470\334\267\014KM\345\342"
 340      999F7FB5 
 340      8BA730DC 
 340      B70C4B4D 
 340      E5E2
 341 0717 3BE4349C 		.ascii	";\3444\234T\367\277c^pP\267'\222\235\355\211Z\350\236"
 341      54F7BF63 
 341      5E7050B7 
 341      27929DED 
 341      895AE89E 
 342 072b 683F6A6C 		.ascii	"h?jlz\320b\2249Aj\\x\276\203\303\230z\000\201\036\031"
 342      7AD06294 
 342      39416A5C 
 342      78BE83C3 
 342      987A0081 
 343 0741 28100CD7 		.ascii	"(\020\014\327\236zj\305C\010\365X\320lE\237\311\210"
 343      9E7A6AC5 
 343      4308F558 
 343      D06C459F 
 343      C988
 344 0753 3EA311E1 		.ascii	">\243\021\341'\241\325\203\321\362aZC~\370\231\377\367"
 344      27A1D583 
 344      D1F2615A 
 344      437EF899 
 344      FFF7
 345 0765 7E1CF314 		.ascii	"~\034\363\024\262O\0148\220U8\036\233\334\323D\227\033"
 345      B24F0C38 
 345      9055381E 
 345      9BDCD344 
 345      971B
 346 0777 AA911ABF 		.ascii	"\252\221\032\277\022b\255\322<_\333\327\217&k\204\325"
 346      1262ADD2 
 346      3C5FDBD7 
 346      8F266B84 
 346      D5
 347 0788 5F110E57 		.ascii	"_\021\016W\250\2065\202i\237s\326f\016\312\034\334\244"
ARM GAS  /tmp/cc4zkXz1.s 			page 27


 347      A8863582 
 347      699F73D6 
 347      660ECA1C 
 347      DCA4
 348 079a E96EFA18 		.ascii	"\351n\372\030.%_\311\261\367'\254i\247C*tM\354\006\323"
 348      2E255FC9 
 348      B1F727AC 
 348      69A7432A 
 348      744DEC06 
 349 07af FBFAF9F0 		.ascii	"\373\372\371\360\017_ML\022\221\376Y]\366\365\267\211"
 349      0F5F4D4C 
 349      1291FE59 
 349      5DF6F5B7 
 349      89
 350 07c0 7C48430B 		.ascii	"|HC\013!\341=H\370C\363\036\362\375\265\037"
 350      21E13D48 
 350      F843F31E 
 350      F2FDB51F 
 351 07d0 D4D319EE 		.ascii	"\324\323\031\356C\007\273HY\351<\031\224\347\207\264"
 351      4307BB48 
 351      59E93C19 
 351      94E787B4 
 352 07e0 E3ADE985 		.ascii	"\343\255\351\205\032\252\325B\247_\267R\216\011-#\334"
 352      1AAAD542 
 352      A75FB752 
 352      8E092D23 
 352      DC
 353 07f1 C4895334 		.ascii	"\304\211S4N\374\031]pv\241\331F\007\314\221\325\325"
 353      4EFC195D 
 353      7076A1D9 
 353      4607CC91 
 353      D5D5
 354 0803 2079CC2C 		.ascii	" y\314,\215\323\315`\346c\347\003'\364>\260\260\360"
 354      8DD3CD60 
 354      E663E703 
 354      27F43EB0 
 354      B0F0
 355 0815 ABFA40CF 		.ascii	"\253\372@\317\317\235\371\200\2349\023-E\312K\221\362"
 355      CF9DF980 
 355      9C39132D 
 355      45CA4B91 
 355      F2
 356 0826 39B3133C 		.ascii	"9\263\023<\275a\317#\354tt\202s\216\234\340\242\301"
 356      BD61CF23 
 356      EC747482 
 356      738E9CE0 
 356      A2C1
 357 0838 095A33A8 		.ascii	"\011Z3\250\003q\202Z\345\362\351=,\302\251[\217\016"
 357      0371825A 
 357      E5F2E93D 
 357      2CC2A95B 
 357      8F0E
 358 084a 339CCB2D 		.ascii	"3\234\313-y/\370\224;\305\250\356\245\274{\222LrW8\""
 358      792FF894 
 358      3BC5A8EE 
 358      A5BC7B92 
 358      4C725738 
ARM GAS  /tmp/cc4zkXz1.s 			page 28


 359 085f 533AC7B5 		.ascii	"S:\307\265T\315\350\\+\253F\236=\317\221\273%\027\270"
 359      54CDE85C 
 359      2BAB469E 
 359      3DCF91BB 
 359      2517B8
 360 0872 EF427E09 		.ascii	"\357B~\011\363\036\310\373u\213\313z\2678\345Z\3562"
 360      F31EC8FB 
 360      758BCB7A 
 360      B738E55A 
 360      EE32
 361 0884 87DED7AD 		.ascii	"\207\336\327\255'\363\351W\364\276\315]=\367\342y\214"
 361      27F3E957 
 361      F4BECD5D 
 361      3DF7E279 
 361      8C
 362 0895 9B33CF0E 		.ascii	"\2333\317\016:ne\017\031\267\227r\224\333k^\373::\001"
 362      3A6E650F 
 362      19B79772 
 362      94DB6B5E 
 362      FB3A3A01 
 363 08a9 2C1AA024 		.ascii	",\032\240$\231\017\204\220\"\007\373\2232\013\245g\346"
 363      990F8490 
 363      2207FB93 
 363      320BA567 
 363      E6
 364 08ba C56EBAB0 		.ascii	"\305n\272\260\352\367\03013\321\264\014mAe\324{\210"
 364      EAF71831 
 364      33D1B40C 
 364      6D4165D4 
 364      7B88
 365 08cc A7FDBEC8 		.ascii	"\247\375\276\310\372\016A\236\343\310\245\330e\266'"
 365      FA0E419E 
 365      E3C8A5D8 
 365      65B627
 366 08db F7D606BD 		.ascii	"\367\326\006\275C@.\365\177 \3306W\177\262\316\263\027"
 366      43402EF5 
 366      7F20D836 
 366      577FB2CE 
 366      B317
 367 08ed F1AE31E9 		.ascii	"\361\2561\351;P}\032L\230\345\217g\347z\310\370x\324"
 367      3B507D1A 
 367      4C98E58F 
 367      67E77AC8 
 367      F878D4
 368 0900 A31B131C 		.ascii	"\243\033\023\034\263\306\211\356\377\316\316\023e\345"
 368      B3C689EE 
 368      FFCECE13 
 368      65E5
 369 090e 729B7A6B 		.ascii	"r\233zkF\213C\233\315xVq\310\200g\260\245\322p\004\317"
 369      468B439B 
 369      CD785671 
 369      C88067B0 
 369      A5D27004 
 370 0923 2CD4E5CD 		.ascii	",\324\345\315v'\314\215\260\003\253U\226\252`\252\303"
 370      7627CC8D 
 370      B003AB55 
 370      96AA60AA 
ARM GAS  /tmp/cc4zkXz1.s 			page 29


 370      C3
 371 0934 EF760236 		.ascii	"\357v\0026\312N\322Z\345\215'5Ku\343\342\344\240k<#"
 371      CA4ED25A 
 371      E58D2735 
 371      4B75E3E2 
 371      E4A06B3C 
 372 0949 736D4796 		.ascii	"smG\226R<\365&\304{N\360\306\330\363w\356I\303Z\356"
 372      523CF526 
 372      C47B4EF0 
 372      C6D8F377 
 372      EE49C35A 
 373 095e 4FAEE18C 		.ascii	"O\256\341\214\206\370\342\0101\354\243C,\357Pf\"795"
 373      86F8E208 
 373      31ECA343 
 373      2CEF5066 
 373      22373935 
 374 0972 A063AAB9 		.ascii	"\240c\252\271\371\334Pu\261\3764\216\251\247B\016nu"
 374      F9DC5075 
 374      B1FE348E 
 374      A9A7420E 
 374      6E75
 375 0984 1A8088C3 		.ascii	"\032\200\210\303>k\032P\312\253\273B\262W\255\357\177"
 375      3E6B1A50 
 375      CAABBB42 
 375      B257ADEF 
 375      7F
 376 0995 346DD8E5 		.ascii	"4m\330\345\376VP\213\266S\\\216n\262&\364\265\304\305"
 376      FE56508B 
 376      B6535C8E 
 376      6EB226F4 
 376      B5C4C5
 377 09a8 8D08F3AC 		.ascii	"\215\010\363\254\373qL#|s\363\201\241\332Z_e\254\311"
 377      FB714C23 
 377      7C73F381 
 377      A1DA5A5F 
 377      65ACC9
 378 09bb 35A2D1DF 		.ascii	"5\242\321\3376\357\302\301\240\2025;\001\3133\277\277"
 378      36EFC2C1 
 378      A082353B 
 378      01CB33BF 
 378      BF
 379 09cc 4EC0DC68 		.ascii	"N\300\334h\271\233N>/!\371\267\276\036%\357s-\205A%"
 379      B99B4E3E 
 379      2F21F9B7 
 379      BE1E25EF 
 379      732D8541 
 380 09e1 A0E4D343 		.ascii	"\240\344\323C\2336\312\362\253\017\2719\177\274x\266"
 380      9B36CAF2 
 380      AB0FB939 
 380      7FBC78B6 
 381 09f1 55739975 		.ascii	"Us\231u(\315\3339\322\2545/\201\035\036\347q\314\021"
 381      28CDDB39 
 381      D2AC352F 
 381      811D1EE7 
 381      71CC11
 382 0a04 B34856F1 		.ascii	"\263HV\361\323\352\000\331\352\243\037N<\273\014\343"
 382      D3EA00D9 
ARM GAS  /tmp/cc4zkXz1.s 			page 30


 382      EAA31F4E 
 382      3CBB0CE3 
 383 0a14 7FA387AC 		.ascii	"\177\243\207\254\214Vb\376\002\346\2531_k\234\027>\010"
 383      8C5662FE 
 383      02E6AB31 
 383      5F6B9C17 
 383      3E08
 384 0a26 99C28771 		.ascii	"\231\302\207q\250\322\3428\307\214doA\303B\015\037k"
 384      A8D2E238 
 384      C78C646F 
 384      41C3420D 
 384      1F6B
 385 0a38 B9C0E242 		.ascii	"\271\300\342B\015\363\036\314\353p\321\266\002\363\225"
 385      0DF31ECC 
 385      EB70D1B6 
 385      02F395
 386 0a47 98BF80F9 		.ascii	"\230\277\200\371j\3147a\256`\276\023\363\275\230\317"
 386      6ACC3761 
 386      AE60BE13 
 386      F3BD98CF 
 387 0a57 44F6E761 		.ascii	"D\366\347a\336\200\371|\314\237\300\374I\314\027c\276"
 387      DE80F97C 
 387      CC9FC0FC 
 387      49CC1763 
 387      BE
 388 0a68 442FA2DD 		.ascii	"D/\242\335:\315\264\241\324f\344\323\003\275\327M\216"
 388      3ACDB4A1 
 388      D466E4D3 
 388      03BDD74D 
 388      8E
 389 0a79 7DCAF537 		.ascii	"}\312\3657\011x\366s\327\210e\371T{Z\247\332\217Q\265"
 389      0978F673 
 389      D78865F9 
 389      547B5AA7 
 389      DA8F51B5 
 390 0a8d 67509D1B 		.ascii	"gP\235\033\215\026=\035\322\236\305\030\330\016\341"
 390      8D163D1D 
 390      D29EC518 
 390      D80EE1
 391 0a9c F051E37C 		.ascii	"\360Q\343|u\316\214\347*\204\310J\307Q\214G3p\251\337"
 391      75CE8CE7 
 391      2A84C84A 
 391      C7518C47 
 391      3370A9DF 
 392 0ab0 E31AACCC 		.ascii	"\343\032\254\314\300\334\361%\306\007\024\276t\202\227"
 392      C0DCF125 
 392      C60714BE 
 392      748297
 393 0abf E73E4CF7 		.ascii	"\347>L\367Q\375}\230An\301\214\314]\322\203\315s\002"
 393      51FD7D98 
 393      416EC18C 
 393      CC5DD283 
 393      CD7302
 394 0ad2 66751FC6 		.ascii	"fu\037\306\332\370]:\343\177\210\306?\211\306\337\214"
 394      DAF85D3A 
 394      E37F88C6 
 394      3F89C6DF 
ARM GAS  /tmp/cc4zkXz1.s 			page 31


 394      8C
 395 0ae3 1EFF3AE6 		.ascii	"\036\377:\346[0\337\212\3716\243S,\036\244=ZD\211\031"
 395      5B30DF8A 
 395      F936A353 
 395      2C1EA43D 
 395      5A448919 
 396 0af7 9FE0E9CF 		.ascii	"\237\340\351\317+de\223\375CEV\373;Xyw\017\353\300\231"
 396      2B646593 
 396      FD434556 
 396      FB3B5879 
 396      770FEBC0 
 397 0b0c 6007AE12 		.ascii	"`\007\256\022\236\035\324\357CE\346\015\364F\354\262"
 397      9E1DD4EF 
 397      4345E60D 
 397      F446ECB2 
 398 0b1c 3377E5DD 		.ascii	"3w\345\335\021VW\336;\035\255\025./\312\363l\216\376"
 398      115657DE 
 398      3B1DAD15 
 398      2E2FCAF3 
 398      6C8EFE
 399 0b2f 41800CF9 		.ascii	"A\200\014\371\277\322\213\3212L}\304h/\212\261\257\177"
 399      BFD28BD1 
 399      324C7DC4 
 399      682F8AB1 
 399      AF7F
 400 0b41 318C381C 		.ascii	"1\2148\034\323\211]\336\266\020\343AU\214\267\035\211"
 400      D3895DDE 
 400      B610E341 
 400      558CB71D 
 400      89
 401 0b52 D1B448F3 		.ascii	"\321\264H\363\374=\036\342_g2\260\003\012W\312\226v"
 401      FC3D1EE2 
 401      5F6732B0 
 401      030A57CA 
 401      9676
 402 0b64 745615EC 		.ascii	"tV\025\354\202k0\243\347\277\331\356v=v\374D\307*z\026"
 402      826B30A3 
 402      E7BFD9EE 
 402      763D76FC 
 402      44C72A7A 
 403 0b79 761827D7 		.ascii	"v\030'\327^\223f\007\270T\250/v \211\375\202\207\234"
 403      5E936607 
 403      B854A82F 
 403      762089FD 
 403      82879C
 404 0b8c F73CD894 		.ascii	"\367<\330\224{\336\343\374\301\321N\217\341\301Q\372"
 404      7BDEE3FC 
 404      C1D14E8F 
 404      E1C151FA 
 405 0b9c 8C86EEE9 		.ascii	"\214\206\356\351\312\274JI\377\315\213\350\023G\321"
 405      CABC4A49 
 405      FFCD8BE8 
 405      1347D1
 406 0bab 2C8F151B 		.ascii	",\217\025\033ub:e%\244\354\3308\356)\262q\251\234k\020"
 406      75623A65 
 406      25A4ECD8 
 406      38EE29B2 
ARM GAS  /tmp/cc4zkXz1.s 			page 32


 406      71A99C6B 
 407 0bc0 1D5C2BCD 		.ascii	"\035\\+\315`~2\365\375Z\233\372pS\322\350\004\320\371"
 407      607E32F5 
 407      FD5A9BFA 
 407      7053D2E8 
 407      04D0F9
 408 0bd3 EAE66DDD 		.ascii	"\352\346m\335\352\346\035\\\335\264b\220;\210\371!\314"
 408      EAE61D5C 
 408      DDB46290 
 408      3B88F921 
 408      CC
 409 0be4 DFC5FC03 		.ascii	"\337\305\374\003'S?\361\371\014\366\001\017G\243\314"
 409      27533FF1 
 409      F90CF601 
 409      0F47A3CC 
 410 0bf4 C0C6516F 		.ascii	"\300\306Qov\034\361l\233k0\203\"\225\3073s/\031\024"
 410      761CF16C 
 410      9B6B3083 
 410      2295C733 
 410      732F1914 
 411 0c08 3CDBE104 		.ascii	"<\333\341\004/\317\362\375\025uFRG\330\013\305\254K"
 411      2FCFF2FD 
 411      15754652 
 411      47D80BC5 
 411      AC4B
 412 0c1a B0B27C46 		.ascii	"\260\262|F\331\2513\312n4J\013\232\340\004\346\037b"
 412      D9A933CA 
 412      6E344A0B 
 412      9AE004E6 
 412      1F62
 413 0c2c 7ED2380B 		.ascii	"~\3228\013m(6\315B\306\220o5)\352\365#+[\177\335\300"
 413      6D2836CD 
 413      42C6906F 
 413      3529EAF5 
 413      232B5B7F 
 414 0c42 5B85DC3B 		.ascii	"[\205\334;\265\276O\030\036\017\355\270F=\3749\215\261"
 414      B5BE4F18 
 414      1E0FEDB8 
 414      463DFC39 
 414      8DB1
 415 0c54 7B4B71FF 		.ascii	"{Kq\377\261\333\010\3041{\260\317\231\334\340\335\032"
 415      B1DB08C4 
 415      317BB0CF 
 415      99DCE0DD 
 415      1A
 416 0c65 5383F799 		.ascii	"S\203\367\231\376\203\367\214:e\323\323\253\262sP]f"
 416      FE83F78C 
 416      3A65D3D3 
 416      ABB27350 
 416      5D66
 417 0c77 00FF31CF 		.ascii	"\000\3771\317\323\372\272\207\2639\346\335\014\033\003"
 417      D3FABA87 
 417      B339E6DD 
 417      0C1B03
 418 0c86 71525969 		.ascii	"qRYi\356\324\374J=\314?\341\032\317h\207#\235\350W*"
 418      EED4FC4A 
 418      3DCC3FE1 
ARM GAS  /tmp/cc4zkXz1.s 			page 33


 418      1ACF6887 
 418      239DE857 
 419 0c9b D8C74EC0 		.ascii	"\330\307N\300\362,\020?\373\225\245Q\225\314\272u\226"
 419      F22C103F 
 419      FB95A551 
 419      95CCBA75 
 419      96
 420 0cac CEA8EF2E 		.ascii	"\316\250\357.\2704\022o:~\2166\275\320\277MM8D\267W"
 420      B834126F 
 420      3A7E8E36 
 420      BDD0BF4D 
 420      4D3844B7 
 421 0cc1 CC870FCB 		.ascii	"\314\207\017\313v\343\341\303\025G3\361k\2735e\026\020"
 421      76E3E1C3 
 421      154733F1 
 421      6BBB3565 
 421      1610
 422 0cd3 F1EB4B58 		.ascii	"\361\353KX\0129\260\000\322\374\210\263\365\211\345"
 422      0A39B000 
 422      D2FC88B3 
 422      F589E5
 423 0ce2 31FAC2DD 		.ascii	"1\372\302\335\344\030]\366\022]\314+q\271\304\"\242"
 423      E4185DF6 
 423      125DCC2B 
 423      71B9C422 
 423      A2
 424 0cf3 D6794DAA 		.ascii	"\326yM\252hS\317aH}\377\252\350\334\245\217W\034\363"
 424      6853CF61 
 424      487DFFAA 
 424      E8DCA58F 
 424      571CF3
 425 0d06 0CB240FA 		.ascii	"\014\262@\372\016L\027\347\353\215\313\373\225\256\361"
 425      0E4C17E7 
 425      EB8DCBFB 
 425      95AEF1
 426 0d15 CA0C7857 		.ascii	"\312\014xW\324\263\020\234\223^v\202\225'\226.\330\275"
 426      D4B3109C 
 426      935E7682 
 426      9527962E 
 426      D8BD
 427 0d27 F4AFE5B4 		.ascii	"\364\257\345\264\302j\217\247l2\343Y=&\340<\234f\015"
 427      C26A8FA7 
 427      6C32E359 
 427      3D26E03C 
 427      9C660D
 428 0d3a 017B252F 		.ascii	"\001{%/\011\2473\275$\204>\202\371l\314\347z\035\314"
 428      09A733BD 
 428      24843E82 
 428      F96CCCE7 
 428      7A1DCC
 429 0d4d 6E7D1E5D 		.ascii	"n}\036]\340\330\346\3329\365\012\204\201~w\003?\230"
 429      E0D8E6DA 
 429      39F50A84 
 429      817E7703 
 429      3F98
 430 0d5f 69A07EA4 		.ascii	"i\240~\244z\232\346K\231q%k\343\3521\357`,\031\3562"
 430      7A9AE64B 
ARM GAS  /tmp/cc4zkXz1.s 			page 34


 430      9971256B 
 430      E3EA31EF 
 430      602C19EE 
 431 0d74 62133B66 		.ascii	"b\023;f\033\274\331\027WB\301latF\202\235f\011Lt\363"
 431      1BBCD917 
 431      5742C16C 
 431      61744682 
 431      9D66094C 
 432 0d8a 18CE5AD1 		.ascii	"\030\316Z\321Wt\363\326_p\336\352\305\271\352K\365|"
 432      5774F3D6 
 432      5F70DEEA 
 432      C5B9EA4B 
 432      F57C
 433 0d9c C16B98B1 		.ascii	"\301k\230\261\336)1\3056S4qm\3463:\352g\221\372\247"
 433      DE2931C5 
 433      36533471 
 433      6DE6333A 
 433      EA6791FA 
 434 0db1 48F733CC 		.ascii	"H\3673\314/`~\3118k\276Wb\2325M\263\024-\333\037\266"
 434      2F607EC9 
 434      386BBE57 
 434      629A354D 
 434      B3142DDB 
 435 0dc7 A73777B5 		.ascii	"\2477w\265\376n\272\254,\036\241\275b\2206C\032\337"
 435      FE6EBAAC 
 435      2C1EA1BD 
 435      62903643 
 435      1ADF
 436 0dd9 27A04525 		.ascii	"'\240E%O\320>v,\224\211\332\375\336\206in>}\033\006"
 436      4FD03E76 
 436      2C9489DA 
 436      FDDE8669 
 436      6E3E7D1B 
 437 0dee ED4518A8 		.ascii	"\355E\030\250>\266\016T\371\037\223Yb\016T\347\2042"
 437      3EB60E54 
 437      F91F9359 
 437      620E54E7 
 437      8432
 438 0e00 B5D6C116 		.ascii	"\265\326\301\026\360$\275\351\251\036\212\366\"\375"
 438      F024BDE9 
 438      A91E8AF6 
 438      22FD
 439 0e0e 25EEA394 		.ascii	"%\356\243\224\265I\227\350F\356\3238r\227\032\235\250"
 439      B54997E8 
 439      46EED338 
 439      72971A9D 
 439      A8
 440 0e1f AED4A46D 		.ascii	"\256\324\244m+z\215\331\201`V6y0\357\277\321~\226g\353"
 440      2B7A8DD9 
 440      81605636 
 440      7930EFBF 
 440      D17E9667 
 441 0e34 1E0D6254 		.ascii	"\036\015bTV\343m\355\315\352\363\216\215\250\361\372"
 441      56E36DED 
 441      CDEAF38E 
 441      8DA8F1FA 
 442 0e44 520767F4 		.ascii	"R\007g\364\006\034|-\330R\345+\034\251\374\274\246r"
ARM GAS  /tmp/cc4zkXz1.s 			page 35


 442      061C7C2D 
 442      D852E52B 
 442      1CA9FCBC 
 442      A672
 443 0e56 F5207821 		.ascii	"\365 x!2\260b\300\023\303\005\241e\204\206\365\264k"
 443      32B062C0 
 443      13C305A1 
 443      658486F5 
 443      B46B
 444 0e68 AC32BD36 		.ascii	"\2542\2756\225K\005\263\352|\332\335\213\347\315`\226"
 444      954B05B3 
 444      EA7CDADD 
 444      8BE7CD60 
 444      96
 445 0e79 E79F7906 		.ascii	"\347\237y\006\302\025=\332:Ghe\216]k\205\316\265\236"
 445      C2153DDA 
 445      3A476865 
 445      8E5D6B85 
 445      CEB59E
 446 0e8c 47D75A89 		.ascii	"G\327Z\211\023\301\013\230\257\306\374e\243\263m1;\233"
 446      13C10B98 
 446      AFC6FC65 
 446      A3B36D31 
 446      3B9B
 447 0e9e D1AEB4F8 		.ascii	"\321\256\264\370b\036o{\255\253\343\177\026\3102\210"
 447      621E6F7B 
 447      ADABE37F 
 447      16C83288 
 448 0eae A5457E70 		.ascii	"\245E~p\023\365\201^\015\262D\303\351a)\247\353\\\207"
 448      13F5815E 
 448      0DB244C3 
 448      E96129A7 
 448      EB5C87
 449 0ec1 FE576C42 		.ascii	"\376WlB\377\265\031Qv\347\210b\244K\313i+Y\254\365\331"
 449      FFB51951 
 449      76E78862 
 449      A44BCB69 
 449      2B59ACF5 
 450 0ed6 A93B457B 		.ascii	"\251;E{\037O\321\216\341)\332v\214\273\247\324\363d"
 450      1F4FD18E 
 450      E129DA76 
 450      8CBBA7D4 
 450      F364
 451 0ee8 D4EA9398 		.ascii	"\324\352\223\230/\303|\255Q\303G2\203Ic\313\370\"\037"
 451      2FC37CAD 
 451      51C34732 
 451      834963CB 
 451      F8221F
 452 0efb BE7DECCD 		.ascii	"\276}\354\315\274aH\336.lmMw\354\372\264`z\2032\243"
 452      BC6148DE 
 452      2E6C6D4D 
 452      77ECFAB4 
 452      607A8332 
 453 0f10 91BCCACD 		.ascii	"\221\274\312\315\262\232j\027\033\267\001\017iH!\354"
 453      B29A6A17 
 453      1BB7010F 
 453      694821EC 
ARM GAS  /tmp/cc4zkXz1.s 			page 36


 454 0f20 AB6FB5DF 		.ascii	"\253o\265\337\266\025\317nr\255\375\3156\332\327?v\225"
 454      B615CF6E 
 454      72ADFDCD 
 454      36DAD73F 
 454      7695
 455 0f32 6D45B620 		.ascii	"mE\266 (\365\232\354\213\300&&8\246\253Tu\206k\231\356"
 455      28F59AEC 
 455      8BC02626 
 455      38A6AB54 
 455      75866B99 
 456 0f47 D26748EC 		.ascii	"\322gH\354\331\210\\\321\267+;\347\034Z\316\316\227"
 456      D9885CD1 
 456      B72B3BE7 
 456      1C5ACECE 
 456      97
 457 0f58 1B61DBA4 		.ascii	"\033a\333\244\200\002\256\323\213\246\177F\223g\337"
 457      8002AED3 
 457      8BA67F46 
 457      9367DF
 458 0f67 A0C26414 		.ascii	"\240\302d\024\376\005\005\326\032l5*W>\250|\261\222"
 458      FE0505D6 
 458      1A6C352A 
 458      573EA87C 
 458      B192
 459 0f79 441B59EE 		.ascii	"D\033Y\356\356\353+1\035\2224q\366J\330\346\325-\225"
 459      EEEB2B31 
 459      1D923471 
 459      F64AD8E6 
 459      D52D95
 460 0f8c E60E3699 		.ascii	"\346\0166\2315\247y\263\221n\272Ai\253_\310\312\037"
 460      35A779B3 
 460      916EBA41 
 460      69AB5FC8 
 460      CA1F
 461 0f9e 8018     		.ascii	"\200\030"
 462 0fa0 5F82482A 		.ascii	"_\202H*\347\034\263`\260\221\335\3559\354\366\351\330"
 462      E71CB360 
 462      B091DDED 
 462      39ECF6E9 
 462      D8
 463 0fb1 55B9E098 		.ascii	"U\271\340\230\306~\311\377!\213C\225\3278\306\344\030"
 463      C67EC9FF 
 463      218B4395 
 463      D738C6E4 
 463      18
 464 0fc2 A55A1F8E 		.ascii	"\245Z\037\216\366y\313\265c\354\264q\014\326H\332\354"
 464      F679CBB5 
 464      63ECB471 
 464      0CD648DA 
 464      EC
 465 0fd3 92A3B476 		.ascii	"\222\243\264v~\212\263\3135\345\3356\224}\2242\375\277"
 465      7E8AB3CB 
 465      35E5DD36 
 465      947D9432 
 465      FDBF
 466 0fe5 11CB5E3E 		.ascii	"\021\313^>\370(\373\370\272z\231\274\353\373\3602\245"
 466      F828FBF8 
ARM GAS  /tmp/cc4zkXz1.s 			page 37


 466      BA7A99BC 
 466      EBFBF032 
 466      A5
 467 0ff6 C1EBE2AD 		.ascii	"\301\353\342\255n\257\351p\256\027"
 467      6EAFE970 
 467      AE17
 468 1000 9F0636BC 		.ascii	"\237\0066\274\373||\260~\256\304\226\034\363\211fS\372"
 468      FB7C7CB0 
 468      7EAEC496 
 468      1CF38966 
 468      53FA
 469 1012 FEFF01D8 		.ascii	"\376\377\001\330X\260\332\313\200\177\301\036-^\273"
 469      58B0DACB 
 469      807FC11E 
 469      2D5EBB
 470 1021 FF00D0AB 		.ascii	"\377\000\320\253\373\017\000\262|~\372/\207d\376\011"
 470      FB0F00B2 
 470      7C7EFA2F 
 470      8764FE09 
 471 1031 04E96470 		.ascii	"\004\351dp\226}^\303\253\311&g&\2575\333\311v \353\314"
 471      967D5EC3 
 471      ABC92667 
 471      26AF35DB 
 471      C97620EB 
 472 1046 A65E1D36 		.ascii	"\246^\0356+\017|\035\333\266\327Gyz\265\331\366\332"
 472      2B0F7C1D 
 472      DBB6D747 
 472      797AB5D9 
 472      F6DA
 473 1058 9387C343 		.ascii	"\223\207\303C\266\275H\244\260\353u\330\266\327\033"
 473      B6BD48A4 
 473      B0EB75D8 
 473      B6D71B
 474 1067 797A1DB1 		.ascii	"yz\035\261\355E\206\233]\257\366l\2572f\031\231\014"
 474      ED45869B 
 474      5DAFF66C 
 474      AF326619 
 474      990C
 475 1079 3BE71CBE 		.ascii	";\347\034\276J\236\021\310\030l\275\376\277v\230\220"
 475      4A9E11C8 
 475      186CBDFE 
 475      BF769890 
 476 1089 37E491FD 		.ascii	"7\344\221\375]\257\341\314UEW\216>\"s\\\006{\253\036"
 476      5DAFE1CC 
 476      5545578E 
 476      3E22735C 
 476      067BAB1E 
 477 109d 9BB66898 		.ascii	"\233\266h\230\253o\241\030\376g\310\315\261hE\371\330"
 477      AB6FA118 
 477      FE67C8CD 
 477      B16845F9 
 477      D8
 478 10ae AA6845F4 		.ascii	"\252hE\364_\306\207G\336:|\344\360\233\313\313\253S"
 478      5FC68747 
 478      DE3A7CE4 
 478      F09BCBCB 
 478      AB53
ARM GAS  /tmp/cc4zkXz1.s 			page 38


 479 10c0 E5A2549E 		.ascii	"\345\242T\236\254\026\245T\371\235\367\335;\366\336"
 479      AC16A554 
 479      F99DF7DD 
 479      3BF6DE
 480 10cf A9E591AA 		.ascii	"\251\345\221\252H\265(\204'\337\026\037^\305\004\311"
 480      48B52884 
 480      27DF161F 
 480      5EC504C9 
 481 10df A570AC3A 		.ascii	"\245p\254:2\311w\367/\356/\033\313\024aEM\202T]o\217"
 481      32C977F7 
 481      2FEE2F1B 
 481      CB146145 
 481      4D82545D 
 482 10f5 184D4462 		.ascii	"\030MDb5\225\002\200\245\246\245\010N\244j\374\264\324"
 482      35950280 
 482      A5A6A508 
 482      4EA46AFC 
 482      B4D4
 483 1107 CFA15311 		.ascii	"\317\241S\021\226\356\357\017 %F\240s\\\210\023f\206"
 483      96EEEF0F 
 483      202546A0 
 483      735C8813 
 483      6686
 484 1119 4798C230 		.ascii	"G\230\3020r\025MD\245\033\313kRb9\351:1\022)\347\305"
 484      72154D44 
 484      A51BCB6B 
 484      526239E9 
 484      3A311229 
 485 112f F80D89EA 		.ascii	"\370\015\211\352\204p\203\300WD\313o\036>j\370\215\031"
 485      847083C0 
 485      5744CB6F 
 485      1E3E6AF8 
 485      8D19
 486 1141 EA29A9B2 		.ascii	"\352)\251\262R\230\000\344}\251\350\357\204\260\024"
 486      529800E4 
 486      7DA9E8EF 
 486      84B014
 487 1150 8A548D05 		.ascii	"\212T\215\005\224;c@\374\036/\251+\322\325\224\252\345"
 487      943B6340 
 487      FC1E2FA9 
 487      2BD2D594 
 487      AAE5
 488 1162 BB0569BC 		.ascii	"\273\005i\274\304K5\251\007\376\301\211|\225BE\315D"
 488      C44B35A9 
 488      07FEC189 
 488      7C954245 
 488      CD44
 489 1174 205112AE 		.ascii	" Q\022\256\254\230\030\216T\011\221I\250/G\235S@\210"
 489      AC98188E 
 489      54099149 
 489      A82F479D 
 489      534088
 490 1187 A8E79A30 		.ascii	"\250\347\2320\226H\016\332\215\013|\252\006\204\215"
 490      96480EDA 
 490      8D0B7CAA 
 490      06848D
 491 1196 8851292C 		.ascii	"\210Q),UUz#U\274\250jp\034\037\223\206e\032W's\332\016"
ARM GAS  /tmp/cc4zkXz1.s 			page 39


 491      55557A23 
 491      55BCA86A 
 491      701C1F93 
 491      86651A57 
 492 11ae D6B1A15A 		.ascii	"\326\261\241Z\011\304\372Y\305\304\261\244fl\214O\245"
 492      09C4FA59 
 492      C5C4B1A4 
 492      666C8C4F 
 492      A5
 493 11bf EEF97B47 		.ascii	"\356\371{G\234\201d\300X\271C\023K\323\222\002\021\004"
 493      9C8164C0 
 493      58B94313 
 493      4BD39202 
 493      1104
 494 11d1 F419263F 		.ascii	"\364\031&?\205xX\012f\312!Q\340+\247\205c\321\024\360"
 494      8578580A 
 494      66CA2151 
 494      E02BA785 
 494      63D114F0 
 495 11e5 3808AAB3 		.ascii	"8\010\252\263\277K\244*\362#\025\376m\215P\003&\002"
 495      BF4BA42A 
 495      F22315FE 
 495      6D8D5003 
 495      2602
 496 11f7 6EC386AA 		.ascii	"n\303\206\252\200\372K\205S\313\276d8!L\225\340+)\012"
 496      80FA4B85 
 496      53CBBE64 
 496      38214C95 
 496      E02B290A 
 497 120b 93473BF5 		.ascii	"\223G;\365\353\352x2\032\023\304T\371\335c\307\002\327"
 497      EBEA7832 
 497      1A13C454 
 497      F9DD63C7 
 497      02D7
 498 121d 1ACB7E29 		.ascii	"\032\313~))F\253\303\3225\350V\232T\011a\012\301\005"
 498      2946ABC3 
 498      D235E856 
 498      9A540961 
 498      0AC105
 499 1230 0F8A2624 		.ascii	"\017\212&$h\025\250\201\357\233n\014K7X5\213\363\221"
 499      6815A881 
 499      EF9B6E0C 
 499      4B375835 
 499      8BF391
 500 1243 AA684228 		.ascii	"\252hB(\017\203\273\36151\220\222\202\027\206\303ZG"
 500      0F83BBF1 
 500      35319092 
 500      821786C3 
 500      5A47
 501 1255 64375AED 		.ascii	"d7Z\355\217T'$\340~\204\253\341HT\213#\017\300\"\322"
 501      8F542724 
 501      E07E84AB 
 501      E148548B 
 501      230FC022 
 502 126a D480284C 		.ascii	"\324\200(L\004\307\017K\234x3'\336\302\211\267r\342"
 502      04C70F4B 
 502      9C783327 
ARM GAS  /tmp/cc4zkXz1.s 			page 40


 502      DEC289B7 
 502      72E2
 503 127c 6D9C388A 		.ascii	"m\2348\212\023o\367\210#G@\032\311\305D\370\272\251"
 503      136FF788 
 503      2347401A 
 503      C9C544F8 
 503      BAA9
 504 128e 201986F6 		.ascii	" \031\206\366~\242\261)\202\010\337\325\261JA$\032\344"
 504      7EA2B129 
 504      8208DFD5 
 504      B14A4124 
 504      1AE4
 505 12a0 E342614A 		.ascii	"\343BaJ\232\304\307\242\023\023a\011\345\273\365\346"
 505      9AC4C7A2 
 505      13136109 
 505      E5BBF5E6 
 506 12b0 B04439C6 		.ascii	"\260D9\306b\022|lR,\032\217J\001\211\370\034\330\307"
 506      62127C6C 
 506      522C1A8F 
 506      4A0189F8 
 506      1CD8C7
 507 12c3 4F2E8E02 		.ascii	"O.\216\002k\250\315\240\344O\242?\012~)^])\340\357\011"
 507      6BA8CDA0 
 507      E44FA23F 
 507      0A7E295E 
 507      5D29E0EF 
 508 12d8 317E62CA 		.ascii	"1~b\312/\211\302\204\024\312M\012\005\361\324D\270H"
 508      2F89C284 
 508      14CA4D0A 
 508      05F1D444 
 508      B848
 509 12ea 9501DD35 		.ascii	"\225\001\3355\265\210\225\323\340R@\230\032\225\"\000"
 509      B58895D3 
 509      E0524098 
 509      1A952200 
 510 12fa E09B2255 		.ascii	"\340\233\"UW\374&y\0255;t\025D!\021\001\340\202)\222"
 510      57FC2679 
 510      15353B74 
 510      15442111 
 510      01E08229 
 511 130f 242643C4 		.ascii	"$&C\304\253\2048\237\254\002\2658\213@\002\211d~\352"
 511      AB84389F 
 511      AC02B538 
 511      8B400289 
 511      647EEA
 512 1322 4F059104 		.ascii	"O\005\221\004\230\247 \025\206o\240\005\027\223\001"
 512      98A72015 
 512      866FA005 
 512      179301
 513 1331 808CD780 		.ascii	"\200\214\327\200Q\034\301\305\245\251\004.\256\302\301"
 513      511CC1C5 
 513      A5A9042E 
 513      AEC2C1
 514 1340 77F59404 		.ascii	"w\365\224\004h\026\001@\234\270\352\233S$h\227,\022"
 514      68160140 
 514      9CB8EA9B 
 514      53246897 
ARM GAS  /tmp/cc4zkXz1.s 			page 41


 514      2C12
 515 1352 260B0929 		.ascii	"&\013\011)\316\247&\301\025a\012)x\222\341\232b\315"
 515      CEA726C1 
 515      15610A29 
 515      7892E19A 
 515      62CD
 516 1364 C3D51151 		.ascii	"\303\325\021Q\242\363yR\023L\206\247\360Q)\232\230\010"
 516      A2F37952 
 516      134C86A7 
 516      F051299A 
 516      9808
 517 1376 1600DDA8 		.ascii	"\026\000\335\250|c\021*\204\244\220\000\247\234\010"
 517      7C63112A 
 517      84A49000 
 517      A79C08
 518 1385 AD800469 		.ascii	"\255\200\004i_H4\314\307\320\273\2402Y]\035\373\241"
 518      5F4834CC 
 518      C7D0BBA0 
 518      32595D1D 
 518      FBA1
 519 1397 134924A2 		.ascii	"\023I$\242\227\253\244h\\\320\302H\\ \312\361\213\022"
 519      97ABA468 
 519      5CD0C248 
 519      5C20CAF1 
 519      8B12
 520 13a9 2AC95B21 		.ascii	"*\311[!\244@\353\325bJ\362B\344\220|5X\315&\002\242"
 520      A440EBD5 
 520      624AF242 
 520      E4907C35 
 520      58CD2602 
 521 13be 84BDA4C2 		.ascii	"\204\275\244\302HM\274&\306K\321\311\002u\203\224_T"
 521      484DBC26 
 521      C64BD1C9 
 521      02758394 
 521      5F54
 522 13d0 15E313D1 		.ascii	"\025\343\023\321\335\013D\364?\221\372\237\250\372_"
 522      DD0B44F4 
 522      3F91FA9F 
 522      A8FA5F
 523 13df 106A6B44 		.ascii	"\020jkD\260\253T \022\011\276=9*J5|,L`EM/W\203^,.\224"
 523      B0AB5420 
 523      1209BE3D 
 523      392A4A35 
 523      7C2C4C60 
 524 13fc 18EAD490 		.ascii	"\030\352\324\220a\250\362O\226\320\010\344\233D\210"
 524      61A8F24F 
 524      96D008E4 
 524      9B4488
 525 140b 208942C8 		.ascii	" \211B\310o\000j*\205\230\304CaBM\"\022\3066\244\344"
 525      6F006A2A 
 525      8598C443 
 525      61424D22 
 525      12C636A4 
 526 1420 236D79B1 		.ascii	"#my\261\010\276\210\250\2449T\021r\3054\236a\240W\215"
 526      08BE88A8 
 526      A4395411 
 526      72C5349E 
ARM GAS  /tmp/cc4zkXz1.s 			page 42


 526      61A0578D 
 527 1434 A5AF0926 		.ascii	"\245\257\011&\371D4Bl\343\217\246D\342U\001\022uIa0"
 527      F9443442 
 527      6CE38FA6 
 527      44E25501 
 527      12754961 
 528 1449 B1ABC883 		.ascii	"\261\253\310\203\357V\324L\230@X\365K\025a2\355\024"
 528      EF56D44C 
 528      984058F5 
 528      4B156132 
 528      ED14
 529 145b 13902991 		.ascii	"\023\220)\2210\272\007T\247\004\344\274\200|'\203\220"
 529      30BA0754 
 529      A704E4BC 
 529      807C2783 
 529      90
 530 146c AB832000 		.ascii	"\253\203 \000%\034[>\350\227\224\304 |\251P!=\256\007"
 530      251C5B3E 
 530      E89794C4 
 530      207CA950 
 530      213DAE07 
 531 1480 427E619C 		.ascii	"B~a\234\207\001\205NT*\305\303\021\030\326\025\"\030"
 531      8701854E 
 531      542AC5C3 
 531      1118D615 
 531      2218
 532 1492 A61AC6B6 		.ascii	"\246\032\306\266\257z\302\204\224 qR\274x\222 &\204"
 532      AF7AC284 
 532      94207152 
 532      BC789220 
 532      2684
 533 14a4 189D40A4 		.ascii	"\030\235@\244\202D8*\3766\220 &\002v\012\343\231iD+"
 533      8244382A 
 533      FE369020 
 533      2602760A 
 533      E3996944 
 534 14b9 8248217D 		.ascii	"\202H!}\237\342heL\240\316\012N\312E\252\002a\324_8"
 534      9FE26865 
 534      4CA0CE0A 
 534      4ECA45AA 
 534      0261D45F 
 535 14ce 3C482B0C 		.ascii	"<H+\014\277\345\366\221\267\204t\323<\003\227\252\004"
 535      BFE5F691 
 535      B78474D3 
 535      3C0397AA 
 535      04
 536 14df 3E19AEE0 		.ascii	">\031\256\340A\240\260\237\330\006f\366\020\255\005"
 536      41A0B09F 
 536      D80666F6 
 536      10AD05
 537 14ee 770E877D 		.ascii	"w\016\207}\220C\335m6~\013=\312\307\336;\376\236\361"
 537      9043DD6D 
 537      367E0B3D 
 537      CAC7DE3B 
 537      FE9EF1
 538 1501 59F725CB 		.ascii	"Y\367%\313\201H\374. \011^\014\024@\302\360O\357\034"
 538      8148FC2E 
ARM GAS  /tmp/cc4zkXz1.s 			page 43


 538      20095E0C 
 538      1440C2F0 
 538      4FEF1C
 539 1514 FF4FBFBC 		.ascii	"\377O\277\274\357\236A|l\012?-\005!&\006Q\271`2\037"
 539      EF9E417C 
 539      6C0A3F2D 
 539      05212606 
 539      51B96032 
 540 1529 AB11FE0F 		.ascii	"\253\021\376\017#l\240E"
 540      236CA045 
 541              		.text
 542              		.section	.gnu.lto_.symtab.ac29710df2be475b,"",%progbits
 543 0000 5F636F72 		.ascii	"_core_init\000\000\000\000\000\000\000\000\000\000\000"
 543      655F696E 
 543      69740000 
 543      00000000 
 543      00000000 
 544 0015 00AF0000 		.ascii	"\000\257\000\000\000chCoreAllocI\000\000\000\000\000"
 544      00636843 
 544      6F726541 
 544      6C6C6F63 
 544      49000000 
 545 002b 00000000 		.ascii	"\000\000\000\000\000\000\000\262\000\000\000chCoreA"
 545      000000B2 
 545      00000063 
 545      68436F72 
 545      6541
 546 003d 6C6C6F63 		.ascii	"lloc\000\000\000\000\000\000\000\000\000\000\000\000"
 546      00000000 
 546      00000000 
 546      00000000 
 547 004d BC000000 		.ascii	"\274\000\000\000chCoreGetStatusX\000\000\000\000\000"
 547      6368436F 
 547      72654765 
 547      74537461 
 547      74757358 
 548 0066 00000000 		.ascii	"\000\000\000\000\000\000\000\300\000\000\000ch\000\000"
 548      000000C0 
 548      00000063 
 548      680000
 549 0075 02000000 		.ascii	"\002\000\000\000\000\000\000\000\000\000\327\000\000"
 549      00000000 
 549      0000D700 
 549      00
 550 0082 005F5F68 		.ascii	"\000__heap_base__\000\000\002\000\000\000\000\000\000"
 550      6561705F 
 550      62617365 
 550      5F5F0000 
 550      02000000 
 551 0099 0000003A 		.ascii	"\000\000\000:\002\000\000__heap_end__\000\000\002\000"
 551      0200005F 
 551      5F686561 
 551      705F656E 
 551      645F5F00 
 552 00b0 00000000 		.ascii	"\000\000\000\000\000\000\000\000@\002\000\000_dbg_c"
 552      00000000 
 552      40020000 
ARM GAS  /tmp/cc4zkXz1.s 			page 44


 552      5F646267 
 552      5F63
 553 00c2 6865636B 		.ascii	"heck_lock\000\000\002\000\000\000\000\000\000\000\000"
 553      5F6C6F63 
 553      6B000002 
 553      00000000 
 553      00000000 
 554 00d6 00C40000 		.ascii	"\000\304\000\000\000_stats_start_measure_crit_thd\000"
 554      005F7374 
 554      6174735F 
 554      73746172 
 554      745F6D65 
 555 00f9 00020000 		.ascii	"\000\002\000\000\000\000\000\000\000\000\000\306\000"
 555      00000000 
 555      000000C6 
 555      00
 556 0106 00006368 		.ascii	"\000\000chSysHalt\000\000\002\000\000\000\000\000\000"
 556      53797348 
 556      616C7400 
 556      00020000 
 556      00000000 
 557 011a 000000C8 		.ascii	"\000\000\000\310\000\000\000_stats_stop_measure_cri"
 557      0000005F 
 557      73746174 
 557      735F7374 
 557      6F705F6D 
 558 0138 745F7468 		.ascii	"t_thd\000\000\002\000\000\000\000\000\000\000\000\000"
 558      64000002 
 558      00000000 
 558      00000000 
 558      00
 559 0149 D1000000 		.ascii	"\321\000\000\000_dbg_check_unlock\000\000\002\000\000"
 559      5F646267 
 559      5F636865 
 559      636B5F75 
 559      6E6C6F63 
 560 0163 00000000 		.ascii	"\000\000\000\000\000\000\000\323\000\000\000chDbgCh"
 560      000000D3 
 560      00000063 
 560      68446267 
 560      4368
 561 0175 65636B43 		.ascii	"eckClassI\000\000\002\000\000\000\000\000\000\000\000"
 561      6C617373 
 561      49000002 
 561      00000000 
 561      00000000 
 562 0189 00D50000 		.ascii	"\000\325\000\000\000"
 562      00
 563              		.text
 564              		.section	.gnu.lto_.opts,"",%progbits
 565 0000 272D6D63 		.ascii	"'-mcpu=cortex-m4' '-mno-thumb-interwork' '-mthumb' "
 565      70753D63 
 565      6F727465 
 565      782D6D34 
 565      2720272D 
 566 0033 272D6767 		.ascii	"'-ggdb' '-O0' '-fomit-frame-pointer' '-falign-funct"
 566      64622720 
ARM GAS  /tmp/cc4zkXz1.s 			page 45


 566      272D4F30 
 566      2720272D 
 566      666F6D69 
 567 0066 696F6E73 		.ascii	"ions=16' '-ffunction-sections' '-fdata-sections' '-"
 567      3D313627 
 567      20272D66 
 567      66756E63 
 567      74696F6E 
 568 0099 666E6F2D 		.ascii	"fno-common' '-flto'\000"
 568      636F6D6D 
 568      6F6E2720 
 568      272D666C 
 568      746F2700 
 569              		.text
 570              		.cfi_sections	.debug_frame
 571              		.section	.text.port_lock,"ax",%progbits
 572              		.align	2
 573              		.p2align 4,,15
 574              		.thumb
 575              		.thumb_func
 576              		.type	port_lock, %function
 577              	port_lock:
 578              	.LFB127:
 579              		.file 1 "lib/ChibiOS_16.1.4//os/rt/ports/ARMCMx/chcore_v7m.h"
 580              		.loc 1 456 0
 581              		.cfi_startproc
 582              		@ args = 0, pretend = 0, frame = 8
 583              		@ frame_needed = 0, uses_anonymous_args = 0
 584              		@ link register save eliminated.
 585 0000 82B0     		sub	sp, sp, #8
 586              		.cfi_def_cfa_offset 8
 587 0002 2023     		movs	r3, #32
 588 0004 0193     		str	r3, [sp, #4]
 589              	.LBB6:
 590              	.LBB7:
 591              		.file 2 "lib/ChibiOS_16.1.4//os/ext/CMSIS/include/core_cmFunc.h"
 592              		.loc 2 548 0
 593 0006 019B     		ldr	r3, [sp, #4]
 594              	@ 548 "lib/ChibiOS_16.1.4//os/ext/CMSIS/include/core_cmFunc.h" 1
 595 0008 83F31188 		MSR basepri, r3
 596              	@ 0 "" 2
 597              		.thumb
 598              	.LBE7:
 599              	.LBE6:
 600              		.loc 1 473 0
 601 000c 02B0     		add	sp, sp, #8
 602              		@ sp needed
 603 000e 7047     		bx	lr
 604              		.cfi_endproc
 605              	.LFE127:
 606              		.size	port_lock, .-port_lock
 607              		.section	.text.port_unlock,"ax",%progbits
 608              		.align	2
 609              		.p2align 4,,15
 610              		.thumb
 611              		.thumb_func
 612              		.type	port_unlock, %function
ARM GAS  /tmp/cc4zkXz1.s 			page 46


 613              	port_unlock:
 614              	.LFB128:
 615              		.loc 1 480 0
 616              		.cfi_startproc
 617              		@ args = 0, pretend = 0, frame = 8
 618              		@ frame_needed = 0, uses_anonymous_args = 0
 619              		@ link register save eliminated.
 620 0000 82B0     		sub	sp, sp, #8
 621              		.cfi_def_cfa_offset 8
 622 0002 0023     		movs	r3, #0
 623 0004 0193     		str	r3, [sp, #4]
 624              	.LBB8:
 625              	.LBB9:
 626              		.loc 2 548 0
 627 0006 019B     		ldr	r3, [sp, #4]
 628              	@ 548 "lib/ChibiOS_16.1.4//os/ext/CMSIS/include/core_cmFunc.h" 1
 629 0008 83F31188 		MSR basepri, r3
 630              	@ 0 "" 2
 631              		.thumb
 632              	.LBE9:
 633              	.LBE8:
 634              		.loc 1 487 0
 635 000c 02B0     		add	sp, sp, #8
 636              		@ sp needed
 637 000e 7047     		bx	lr
 638              		.cfi_endproc
 639              	.LFE128:
 640              		.size	port_unlock, .-port_unlock
 641              		.section	.text.chSysLock,"ax",%progbits
 642              		.align	2
 643              		.p2align 4,,15
 644              		.thumb
 645              		.thumb_func
 646              		.type	chSysLock, %function
 647              	chSysLock:
 648              	.LFB167:
 649              		.file 3 "lib/ChibiOS_16.1.4//os/rt/include/chsys.h"
 650              		.loc 3 346 0
 651              		.cfi_startproc
 652              		@ args = 0, pretend = 0, frame = 0
 653              		@ frame_needed = 0, uses_anonymous_args = 0
 654 0000 08B5     		push	{r3, lr}
 655              		.cfi_def_cfa_offset 8
 656              		.cfi_offset 3, -8
 657              		.cfi_offset 14, -4
 658              		.loc 3 348 0
 659 0002 FFF7FEFF 		bl	port_lock
 660              		.loc 3 349 0
 661 0006 FFF7FEFF 		bl	_stats_start_measure_crit_thd
 662              		.loc 3 350 0
 663 000a FFF7FEFF 		bl	_dbg_check_lock
 664              		.loc 3 351 0
 665 000e 08BD     		pop	{r3, pc}
 666              		.cfi_endproc
 667              	.LFE167:
 668              		.size	chSysLock, .-chSysLock
 669              		.section	.text.chSysUnlock,"ax",%progbits
ARM GAS  /tmp/cc4zkXz1.s 			page 47


 670              		.align	2
 671              		.p2align 4,,15
 672              		.thumb
 673              		.thumb_func
 674              		.type	chSysUnlock, %function
 675              	chSysUnlock:
 676              	.LFB168:
 677              		.loc 3 358 0
 678              		.cfi_startproc
 679              		@ args = 0, pretend = 0, frame = 0
 680              		@ frame_needed = 0, uses_anonymous_args = 0
 681 0000 08B5     		push	{r3, lr}
 682              		.cfi_def_cfa_offset 8
 683              		.cfi_offset 3, -8
 684              		.cfi_offset 14, -4
 685              		.loc 3 360 0
 686 0002 FFF7FEFF 		bl	_dbg_check_unlock
 687              		.loc 3 361 0
 688 0006 FFF7FEFF 		bl	_stats_stop_measure_crit_thd
 689              		.loc 3 367 0
 690 000a 40F20003 		movw	r3, #:lower16:ch
 691 000e C0F20003 		movt	r3, #:upper16:ch
 692 0012 1A68     		ldr	r2, [r3]
 693 0014 40F20003 		movw	r3, #:lower16:ch
 694 0018 C0F20003 		movt	r3, #:upper16:ch
 695 001c 9A42     		cmp	r2, r3
 696 001e 13D0     		beq	.L5
 697              		.loc 3 367 0 is_stmt 0 discriminator 1
 698 0020 40F20003 		movw	r3, #:lower16:ch
 699 0024 C0F20003 		movt	r3, #:upper16:ch
 700 0028 9B69     		ldr	r3, [r3, #24]
 701 002a 9A68     		ldr	r2, [r3, #8]
 702 002c 40F20003 		movw	r3, #:lower16:ch
 703 0030 C0F20003 		movt	r3, #:upper16:ch
 704 0034 1B68     		ldr	r3, [r3]
 705 0036 9B68     		ldr	r3, [r3, #8]
 706 0038 9A42     		cmp	r2, r3
 707 003a 05D2     		bcs	.L5
 708 003c 40F20000 		movw	r0, #:lower16:__func__.5915
 709 0040 C0F20000 		movt	r0, #:upper16:__func__.5915
 710 0044 FFF7FEFF 		bl	chSysHalt
 711              	.L5:
 712              		.loc 3 371 0 is_stmt 1
 713 0048 FFF7FEFF 		bl	port_unlock
 714              		.loc 3 372 0
 715 004c 08BD     		pop	{r3, pc}
 716              		.cfi_endproc
 717              	.LFE168:
 718              		.size	chSysUnlock, .-chSysUnlock
 719 004e 00BF     		.section	.bss.nextmem,"aw",%nobits
 720              		.align	2
 721              		.type	nextmem, %object
 722              		.size	nextmem, 4
 723              	nextmem:
 724 0000 00000000 		.space	4
 725              		.section	.bss.endmem,"aw",%nobits
 726              		.align	2
ARM GAS  /tmp/cc4zkXz1.s 			page 48


 727              		.type	endmem, %object
 728              		.size	endmem, 4
 729              	endmem:
 730 0000 00000000 		.space	4
 731              		.section	.text._core_init,"ax",%progbits
 732              		.align	2
 733              		.p2align 4,,15
 734              		.global	_core_init
 735              		.thumb
 736              		.thumb_func
 737              		.type	_core_init, %function
 738              	_core_init:
 739              	.LFB241:
 740              		.file 4 "lib/ChibiOS_16.1.4//os/rt/src/chmemcore.c"
 741              		.loc 4 78 0
 742              		.cfi_startproc
 743              		@ args = 0, pretend = 0, frame = 0
 744              		@ frame_needed = 0, uses_anonymous_args = 0
 745              		@ link register save eliminated.
 746              		.loc 4 84 0
 747 0000 40F20003 		movw	r3, #:lower16:__heap_base__
 748 0004 C0F20003 		movt	r3, #:upper16:__heap_base__
 749 0008 0733     		adds	r3, r3, #7
 750 000a 23F00703 		bic	r3, r3, #7
 751 000e 1A46     		mov	r2, r3
 752 0010 40F20003 		movw	r3, #:lower16:nextmem
 753 0014 C0F20003 		movt	r3, #:upper16:nextmem
 754 0018 1A60     		str	r2, [r3]
 755              		.loc 4 85 0
 756 001a 40F20003 		movw	r3, #:lower16:__heap_end__
 757 001e C0F20003 		movt	r3, #:upper16:__heap_end__
 758 0022 23F00703 		bic	r3, r3, #7
 759 0026 1A46     		mov	r2, r3
 760 0028 40F20003 		movw	r3, #:lower16:endmem
 761 002c C0F20003 		movt	r3, #:upper16:endmem
 762 0030 1A60     		str	r2, [r3]
 763              		.loc 4 95 0
 764 0032 7047     		bx	lr
 765              		.cfi_endproc
 766              	.LFE241:
 767              		.size	_core_init, .-_core_init
 768 0034 AFF30080 		.section	.text.chCoreAlloc,"ax",%progbits
 768      AFF30080 
 768      AFF30080 
 769              		.align	2
 770              		.p2align 4,,15
 771              		.global	chCoreAlloc
 772              		.thumb
 773              		.thumb_func
 774              		.type	chCoreAlloc, %function
 775              	chCoreAlloc:
 776              	.LFB242:
 777              		.loc 4 109 0
 778              		.cfi_startproc
 779              		@ args = 0, pretend = 0, frame = 16
 780              		@ frame_needed = 0, uses_anonymous_args = 0
 781 0000 00B5     		push	{lr}
ARM GAS  /tmp/cc4zkXz1.s 			page 49


 782              		.cfi_def_cfa_offset 4
 783              		.cfi_offset 14, -4
 784 0002 85B0     		sub	sp, sp, #20
 785              		.cfi_def_cfa_offset 24
 786 0004 0190     		str	r0, [sp, #4]
 787              		.loc 4 112 0
 788 0006 FFF7FEFF 		bl	chSysLock
 789              		.loc 4 113 0
 790 000a 0198     		ldr	r0, [sp, #4]
 791 000c FFF7FEFF 		bl	chCoreAllocI
 792 0010 0390     		str	r0, [sp, #12]
 793              		.loc 4 114 0
 794 0012 FFF7FEFF 		bl	chSysUnlock
 795              		.loc 4 116 0
 796 0016 039B     		ldr	r3, [sp, #12]
 797              		.loc 4 117 0
 798 0018 1846     		mov	r0, r3
 799 001a 05B0     		add	sp, sp, #20
 800              		@ sp needed
 801 001c 5DF804FB 		ldr	pc, [sp], #4
 802              		.cfi_endproc
 803              	.LFE242:
 804              		.size	chCoreAlloc, .-chCoreAlloc
 805              		.section	.text.chCoreAllocI,"ax",%progbits
 806              		.align	2
 807              		.p2align 4,,15
 808              		.global	chCoreAllocI
 809              		.thumb
 810              		.thumb_func
 811              		.type	chCoreAllocI, %function
 812              	chCoreAllocI:
 813              	.LFB243:
 814              		.loc 4 131 0
 815              		.cfi_startproc
 816              		@ args = 0, pretend = 0, frame = 16
 817              		@ frame_needed = 0, uses_anonymous_args = 0
 818 0000 00B5     		push	{lr}
 819              		.cfi_def_cfa_offset 4
 820              		.cfi_offset 14, -4
 821 0002 85B0     		sub	sp, sp, #20
 822              		.cfi_def_cfa_offset 24
 823 0004 0190     		str	r0, [sp, #4]
 824              		.loc 4 134 0
 825 0006 FFF7FEFF 		bl	chDbgCheckClassI
 826              		.loc 4 136 0
 827 000a 019B     		ldr	r3, [sp, #4]
 828 000c 0733     		adds	r3, r3, #7
 829 000e 23F00703 		bic	r3, r3, #7
 830 0012 0193     		str	r3, [sp, #4]
 831              		.loc 4 138 0
 832 0014 40F20003 		movw	r3, #:lower16:endmem
 833 0018 C0F20003 		movt	r3, #:upper16:endmem
 834 001c 1B68     		ldr	r3, [r3]
 835 001e 1A46     		mov	r2, r3
 836 0020 40F20003 		movw	r3, #:lower16:nextmem
 837 0024 C0F20003 		movt	r3, #:upper16:nextmem
 838 0028 1B68     		ldr	r3, [r3]
ARM GAS  /tmp/cc4zkXz1.s 			page 50


 839 002a D31A     		subs	r3, r2, r3
 840 002c 1A46     		mov	r2, r3
 841 002e 019B     		ldr	r3, [sp, #4]
 842 0030 9A42     		cmp	r2, r3
 843 0032 01D2     		bcs	.L10
 844              		.loc 4 140 0
 845 0034 0023     		movs	r3, #0
 846 0036 12E0     		b	.L11
 847              	.L10:
 848              		.loc 4 142 0
 849 0038 40F20003 		movw	r3, #:lower16:nextmem
 850 003c C0F20003 		movt	r3, #:upper16:nextmem
 851 0040 1B68     		ldr	r3, [r3]
 852 0042 0393     		str	r3, [sp, #12]
 853              		.loc 4 143 0
 854 0044 40F20003 		movw	r3, #:lower16:nextmem
 855 0048 C0F20003 		movt	r3, #:upper16:nextmem
 856 004c 1A68     		ldr	r2, [r3]
 857 004e 019B     		ldr	r3, [sp, #4]
 858 0050 1A44     		add	r2, r2, r3
 859 0052 40F20003 		movw	r3, #:lower16:nextmem
 860 0056 C0F20003 		movt	r3, #:upper16:nextmem
 861 005a 1A60     		str	r2, [r3]
 862              		.loc 4 145 0
 863 005c 039B     		ldr	r3, [sp, #12]
 864              	.L11:
 865              		.loc 4 146 0
 866 005e 1846     		mov	r0, r3
 867 0060 05B0     		add	sp, sp, #20
 868              		@ sp needed
 869 0062 5DF804FB 		ldr	pc, [sp], #4
 870              		.cfi_endproc
 871              	.LFE243:
 872              		.size	chCoreAllocI, .-chCoreAllocI
 873 0066 00BFAFF3 		.section	.text.chCoreGetStatusX,"ax",%progbits
 873      0080AFF3 
 873      0080
 874              		.align	2
 875              		.p2align 4,,15
 876              		.global	chCoreGetStatusX
 877              		.thumb
 878              		.thumb_func
 879              		.type	chCoreGetStatusX, %function
 880              	chCoreGetStatusX:
 881              	.LFB244:
 882              		.loc 4 155 0
 883              		.cfi_startproc
 884              		@ args = 0, pretend = 0, frame = 0
 885              		@ frame_needed = 0, uses_anonymous_args = 0
 886              		@ link register save eliminated.
 887              		.loc 4 158 0
 888 0000 40F20003 		movw	r3, #:lower16:endmem
 889 0004 C0F20003 		movt	r3, #:upper16:endmem
 890 0008 1B68     		ldr	r3, [r3]
 891 000a 1A46     		mov	r2, r3
 892 000c 40F20003 		movw	r3, #:lower16:nextmem
 893 0010 C0F20003 		movt	r3, #:upper16:nextmem
ARM GAS  /tmp/cc4zkXz1.s 			page 51


 894 0014 1B68     		ldr	r3, [r3]
 895 0016 D31A     		subs	r3, r2, r3
 896              		.loc 4 160 0
 897 0018 1846     		mov	r0, r3
 898 001a 7047     		bx	lr
 899              		.cfi_endproc
 900              	.LFE244:
 901              		.size	chCoreGetStatusX, .-chCoreGetStatusX
 902 001c AFF30080 		.section	.rodata.__func__.5915,"a",%progbits
 903              		.align	2
 904              		.type	__func__.5915, %object
 905              		.size	__func__.5915, 12
 906              	__func__.5915:
 907 0000 63685379 		.ascii	"chSysUnlock\000"
 907      73556E6C 
 907      6F636B00 
 908              		.text
 909              	.Letext0:
 910              		.file 5 "/usr/lib/gcc/arm-none-eabi/4.8.2/include/stddef.h"
 911              		.file 6 "/usr/include/newlib/machine/_default_types.h"
 912              		.file 7 "/usr/include/newlib/stdint.h"
 913              		.file 8 "lib/ChibiOS_16.1.4//os/rt/ports/ARMCMx/compilers/GCC/chtypes.h"
 914              		.file 9 "lib/ChibiOS_16.1.4//os/rt/include/chsystypes.h"
 915              		.file 10 "lib/ChibiOS_16.1.4//os/rt/include/chschd.h"
 916              		.file 11 "lib/ChibiOS_16.1.4//os/rt/ports/ARMCMx/chcore.h"
 917              		.file 12 "lib/ChibiOS_16.1.4//os/rt/include/chdebug.h"
 918              		.file 13 "lib/ChibiOS_16.1.4//os/rt/include/chtm.h"
 919              		.file 14 "lib/ChibiOS_16.1.4//os/rt/include/chstats.h"
 920              		.file 15 "lib/ChibiOS_16.1.4//os/rt/include/chsem.h"
 921              		.file 16 "lib/ChibiOS_16.1.4//os/rt/include/chmtx.h"
 922              		.file 17 "lib/ChibiOS_16.1.4//os/ext/CMSIS/include/core_cm4.h"
 923              		.section	.debug_info,"",%progbits
 924              	.Ldebug_info0:
 925 0000 86090000 		.4byte	0x986
 926 0004 0400     		.2byte	0x4
 927 0006 00000000 		.4byte	.Ldebug_abbrev0
 928 000a 04       		.byte	0x4
 929 000b 01       		.uleb128 0x1
 930 000c DF020000 		.4byte	.LASF140
 931 0010 01       		.byte	0x1
 932 0011 4D020000 		.4byte	.LASF141
 933 0015 40010000 		.4byte	.LASF142
 934 0019 00000000 		.4byte	.Ldebug_ranges0+0
 935 001d 00000000 		.4byte	0
 936 0021 00000000 		.4byte	.Ldebug_line0
 937 0025 02       		.uleb128 0x2
 938 0026 04       		.byte	0x4
 939 0027 05       		.byte	0x5
 940 0028 696E7400 		.ascii	"int\000"
 941 002c 03       		.uleb128 0x3
 942 002d 1C000000 		.4byte	.LASF2
 943 0031 05       		.byte	0x5
 944 0032 D4       		.byte	0xd4
 945 0033 37000000 		.4byte	0x37
 946 0037 04       		.uleb128 0x4
 947 0038 04       		.byte	0x4
 948 0039 07       		.byte	0x7
ARM GAS  /tmp/cc4zkXz1.s 			page 52


 949 003a 40020000 		.4byte	.LASF0
 950 003e 04       		.uleb128 0x4
 951 003f 01       		.byte	0x1
 952 0040 06       		.byte	0x6
 953 0041 34010000 		.4byte	.LASF1
 954 0045 03       		.uleb128 0x3
 955 0046 4C000000 		.4byte	.LASF3
 956 004a 06       		.byte	0x6
 957 004b 1C       		.byte	0x1c
 958 004c 50000000 		.4byte	0x50
 959 0050 04       		.uleb128 0x4
 960 0051 01       		.byte	0x1
 961 0052 08       		.byte	0x8
 962 0053 BA040000 		.4byte	.LASF4
 963 0057 04       		.uleb128 0x4
 964 0058 02       		.byte	0x2
 965 0059 05       		.byte	0x5
 966 005a DD040000 		.4byte	.LASF5
 967 005e 04       		.uleb128 0x4
 968 005f 02       		.byte	0x2
 969 0060 07       		.byte	0x7
 970 0061 95020000 		.4byte	.LASF6
 971 0065 03       		.uleb128 0x3
 972 0066 AF030000 		.4byte	.LASF7
 973 006a 06       		.byte	0x6
 974 006b 37       		.byte	0x37
 975 006c 70000000 		.4byte	0x70
 976 0070 04       		.uleb128 0x4
 977 0071 04       		.byte	0x4
 978 0072 05       		.byte	0x5
 979 0073 A3010000 		.4byte	.LASF8
 980 0077 03       		.uleb128 0x3
 981 0078 D7050000 		.4byte	.LASF9
 982 007c 06       		.byte	0x6
 983 007d 38       		.byte	0x38
 984 007e 82000000 		.4byte	0x82
 985 0082 04       		.uleb128 0x4
 986 0083 04       		.byte	0x4
 987 0084 07       		.byte	0x7
 988 0085 85050000 		.4byte	.LASF10
 989 0089 04       		.uleb128 0x4
 990 008a 08       		.byte	0x8
 991 008b 05       		.byte	0x5
 992 008c 26010000 		.4byte	.LASF11
 993 0090 03       		.uleb128 0x3
 994 0091 54040000 		.4byte	.LASF12
 995 0095 06       		.byte	0x6
 996 0096 4E       		.byte	0x4e
 997 0097 9B000000 		.4byte	0x9b
 998 009b 04       		.uleb128 0x4
 999 009c 08       		.byte	0x8
 1000 009d 07       		.byte	0x7
 1001 009e A5000000 		.4byte	.LASF13
 1002 00a2 03       		.uleb128 0x3
 1003 00a3 54060000 		.4byte	.LASF14
 1004 00a7 07       		.byte	0x7
 1005 00a8 2A       		.byte	0x2a
ARM GAS  /tmp/cc4zkXz1.s 			page 53


 1006 00a9 45000000 		.4byte	0x45
 1007 00ad 03       		.uleb128 0x3
 1008 00ae B2040000 		.4byte	.LASF15
 1009 00b2 07       		.byte	0x7
 1010 00b3 41       		.byte	0x41
 1011 00b4 65000000 		.4byte	0x65
 1012 00b8 03       		.uleb128 0x3
 1013 00b9 54050000 		.4byte	.LASF16
 1014 00bd 07       		.byte	0x7
 1015 00be 42       		.byte	0x42
 1016 00bf 77000000 		.4byte	0x77
 1017 00c3 03       		.uleb128 0x3
 1018 00c4 2A000000 		.4byte	.LASF17
 1019 00c8 07       		.byte	0x7
 1020 00c9 4E       		.byte	0x4e
 1021 00ca 90000000 		.4byte	0x90
 1022 00ce 03       		.uleb128 0x3
 1023 00cf 09060000 		.4byte	.LASF18
 1024 00d3 08       		.byte	0x8
 1025 00d4 39       		.byte	0x39
 1026 00d5 B8000000 		.4byte	0xb8
 1027 00d9 03       		.uleb128 0x3
 1028 00da 0E010000 		.4byte	.LASF19
 1029 00de 08       		.byte	0x8
 1030 00df 3A       		.byte	0x3a
 1031 00e0 C3000000 		.4byte	0xc3
 1032 00e4 03       		.uleb128 0x3
 1033 00e5 82030000 		.4byte	.LASF20
 1034 00e9 08       		.byte	0x8
 1035 00ea 3C       		.byte	0x3c
 1036 00eb A2000000 		.4byte	0xa2
 1037 00ef 03       		.uleb128 0x3
 1038 00f0 AC010000 		.4byte	.LASF21
 1039 00f4 08       		.byte	0x8
 1040 00f5 3D       		.byte	0x3d
 1041 00f6 A2000000 		.4byte	0xa2
 1042 00fa 03       		.uleb128 0x3
 1043 00fb 78040000 		.4byte	.LASF22
 1044 00ff 08       		.byte	0x8
 1045 0100 3E       		.byte	0x3e
 1046 0101 A2000000 		.4byte	0xa2
 1047 0105 03       		.uleb128 0x3
 1048 0106 A1040000 		.4byte	.LASF23
 1049 010a 08       		.byte	0x8
 1050 010b 40       		.byte	0x40
 1051 010c B8000000 		.4byte	0xb8
 1052 0110 03       		.uleb128 0x3
 1053 0111 C1020000 		.4byte	.LASF24
 1054 0115 08       		.byte	0x8
 1055 0116 41       		.byte	0x41
 1056 0117 AD000000 		.4byte	0xad
 1057 011b 03       		.uleb128 0x3
 1058 011c A3030000 		.4byte	.LASF25
 1059 0120 08       		.byte	0x8
 1060 0121 43       		.byte	0x43
 1061 0122 B8000000 		.4byte	0xb8
 1062 0126 03       		.uleb128 0x3
ARM GAS  /tmp/cc4zkXz1.s 			page 54


 1063 0127 2F020000 		.4byte	.LASF26
 1064 012b 08       		.byte	0x8
 1065 012c 45       		.byte	0x45
 1066 012d AD000000 		.4byte	0xad
 1067 0131 03       		.uleb128 0x3
 1068 0132 CC020000 		.4byte	.LASF27
 1069 0136 08       		.byte	0x8
 1070 0137 46       		.byte	0x46
 1071 0138 B8000000 		.4byte	0xb8
 1072 013c 03       		.uleb128 0x3
 1073 013d B9050000 		.4byte	.LASF28
 1074 0141 09       		.byte	0x9
 1075 0142 33       		.byte	0x33
 1076 0143 B8000000 		.4byte	0xb8
 1077 0147 03       		.uleb128 0x3
 1078 0148 9C050000 		.4byte	.LASF29
 1079 014c 09       		.byte	0x9
 1080 014d 3F       		.byte	0x3f
 1081 014e 52010000 		.4byte	0x152
 1082 0152 05       		.uleb128 0x5
 1083 0153 B7020000 		.4byte	.LASF51
 1084 0157 60       		.byte	0x60
 1085 0158 0A       		.byte	0xa
 1086 0159 C2       		.byte	0xc2
 1087 015a 58020000 		.4byte	0x258
 1088 015e 06       		.uleb128 0x6
 1089 015f 0A050000 		.4byte	.LASF30
 1090 0163 0A       		.byte	0xa
 1091 0164 C3       		.byte	0xc3
 1092 0165 63020000 		.4byte	0x263
 1093 0169 00       		.byte	0
 1094 016a 06       		.uleb128 0x6
 1095 016b 9A040000 		.4byte	.LASF31
 1096 016f 0A       		.byte	0xa
 1097 0170 C5       		.byte	0xc5
 1098 0171 63020000 		.4byte	0x263
 1099 0175 04       		.byte	0x4
 1100 0176 06       		.uleb128 0x6
 1101 0177 17010000 		.4byte	.LASF32
 1102 017b 0A       		.byte	0xa
 1103 017c C7       		.byte	0xc7
 1104 017d 05010000 		.4byte	0x105
 1105 0181 08       		.byte	0x8
 1106 0182 06       		.uleb128 0x6
 1107 0183 BA060000 		.4byte	.LASF33
 1108 0187 0A       		.byte	0xa
 1109 0188 C8       		.byte	0xc8
 1110 0189 CC040000 		.4byte	0x4cc
 1111 018d 0C       		.byte	0xc
 1112 018e 06       		.uleb128 0x6
 1113 018f BB010000 		.4byte	.LASF34
 1114 0193 0A       		.byte	0xa
 1115 0194 CA       		.byte	0xca
 1116 0195 63020000 		.4byte	0x263
 1117 0199 10       		.byte	0x10
 1118 019a 06       		.uleb128 0x6
 1119 019b 23040000 		.4byte	.LASF35
ARM GAS  /tmp/cc4zkXz1.s 			page 55


 1120 019f 0A       		.byte	0xa
 1121 01a0 CB       		.byte	0xcb
 1122 01a1 63020000 		.4byte	0x263
 1123 01a5 14       		.byte	0x14
 1124 01a6 06       		.uleb128 0x6
 1125 01a7 63060000 		.4byte	.LASF36
 1126 01ab 0A       		.byte	0xa
 1127 01ac D2       		.byte	0xd2
 1128 01ad 70070000 		.4byte	0x770
 1129 01b1 18       		.byte	0x18
 1130 01b2 06       		.uleb128 0x6
 1131 01b3 35020000 		.4byte	.LASF37
 1132 01b7 0A       		.byte	0xa
 1133 01b8 D8       		.byte	0xd8
 1134 01b9 82070000 		.4byte	0x782
 1135 01bd 1C       		.byte	0x1c
 1136 01be 06       		.uleb128 0x6
 1137 01bf E7040000 		.4byte	.LASF38
 1138 01c3 0A       		.byte	0xa
 1139 01c4 DD       		.byte	0xdd
 1140 01c5 EF000000 		.4byte	0xef
 1141 01c9 20       		.byte	0x20
 1142 01ca 06       		.uleb128 0x6
 1143 01cb 11050000 		.4byte	.LASF39
 1144 01cf 0A       		.byte	0xa
 1145 01d0 E1       		.byte	0xe1
 1146 01d1 E4000000 		.4byte	0xe4
 1147 01d5 21       		.byte	0x21
 1148 01d6 06       		.uleb128 0x6
 1149 01d7 3F060000 		.4byte	.LASF40
 1150 01db 0A       		.byte	0xa
 1151 01dc E6       		.byte	0xe6
 1152 01dd FA000000 		.4byte	0xfa
 1153 01e1 22       		.byte	0x22
 1154 01e2 07       		.uleb128 0x7
 1155 01e3 705F7500 		.ascii	"p_u\000"
 1156 01e7 0A       		.byte	0xa
 1157 01e8 3101     		.2byte	0x131
 1158 01ea AB060000 		.4byte	0x6ab
 1159 01ee 24       		.byte	0x24
 1160 01ef 08       		.uleb128 0x8
 1161 01f0 C4030000 		.4byte	.LASF41
 1162 01f4 0A       		.byte	0xa
 1163 01f5 3601     		.2byte	0x136
 1164 01f7 69020000 		.4byte	0x269
 1165 01fb 28       		.byte	0x28
 1166 01fc 08       		.uleb128 0x8
 1167 01fd 7E020000 		.4byte	.LASF42
 1168 0201 0A       		.byte	0xa
 1169 0202 3C01     		.2byte	0x13c
 1170 0204 8D020000 		.4byte	0x28d
 1171 0208 2C       		.byte	0x2c
 1172 0209 08       		.uleb128 0x8
 1173 020a 97060000 		.4byte	.LASF43
 1174 020e 0A       		.byte	0xa
 1175 020f 4001     		.2byte	0x140
 1176 0211 10010000 		.4byte	0x110
ARM GAS  /tmp/cc4zkXz1.s 			page 56


 1177 0215 34       		.byte	0x34
 1178 0216 08       		.uleb128 0x8
 1179 0217 49050000 		.4byte	.LASF44
 1180 021b 0A       		.byte	0xa
 1181 021c 4601     		.2byte	0x146
 1182 021e 1B010000 		.4byte	0x11b
 1183 0222 38       		.byte	0x38
 1184 0223 08       		.uleb128 0x8
 1185 0224 D3040000 		.4byte	.LASF45
 1186 0228 0A       		.byte	0xa
 1187 0229 4D01     		.2byte	0x14d
 1188 022b 6A070000 		.4byte	0x76a
 1189 022f 3C       		.byte	0x3c
 1190 0230 08       		.uleb128 0x8
 1191 0231 C3050000 		.4byte	.LASF46
 1192 0235 0A       		.byte	0xa
 1193 0236 5101     		.2byte	0x151
 1194 0238 05010000 		.4byte	0x105
 1195 023c 40       		.byte	0x40
 1196 023d 08       		.uleb128 0x8
 1197 023e 5F010000 		.4byte	.LASF47
 1198 0242 0A       		.byte	0xa
 1199 0243 5801     		.2byte	0x158
 1200 0245 40030000 		.4byte	0x340
 1201 0249 44       		.byte	0x44
 1202 024a 08       		.uleb128 0x8
 1203 024b 19050000 		.4byte	.LASF48
 1204 024f 0A       		.byte	0xa
 1205 0250 5E01     		.2byte	0x15e
 1206 0252 5C060000 		.4byte	0x65c
 1207 0256 48       		.byte	0x48
 1208 0257 00       		.byte	0
 1209 0258 03       		.uleb128 0x3
 1210 0259 D7030000 		.4byte	.LASF49
 1211 025d 09       		.byte	0x9
 1212 025e 44       		.byte	0x44
 1213 025f 63020000 		.4byte	0x263
 1214 0263 09       		.uleb128 0x9
 1215 0264 04       		.byte	0x4
 1216 0265 47010000 		.4byte	0x147
 1217 0269 03       		.uleb128 0x3
 1218 026a 6F060000 		.4byte	.LASF50
 1219 026e 09       		.byte	0x9
 1220 026f 49       		.byte	0x49
 1221 0270 74020000 		.4byte	0x274
 1222 0274 05       		.uleb128 0x5
 1223 0275 75050000 		.4byte	.LASF52
 1224 0279 04       		.byte	0x4
 1225 027a 0A       		.byte	0xa
 1226 027b B0       		.byte	0xb0
 1227 027c 8D020000 		.4byte	0x28d
 1228 0280 06       		.uleb128 0x6
 1229 0281 0A050000 		.4byte	.LASF30
 1230 0285 0A       		.byte	0xa
 1231 0286 B1       		.byte	0xb1
 1232 0287 63020000 		.4byte	0x263
 1233 028b 00       		.byte	0
ARM GAS  /tmp/cc4zkXz1.s 			page 57


 1234 028c 00       		.byte	0
 1235 028d 03       		.uleb128 0x3
 1236 028e 26060000 		.4byte	.LASF53
 1237 0292 09       		.byte	0x9
 1238 0293 50       		.byte	0x50
 1239 0294 98020000 		.4byte	0x298
 1240 0298 05       		.uleb128 0x5
 1241 0299 62000000 		.4byte	.LASF54
 1242 029d 08       		.byte	0x8
 1243 029e 0A       		.byte	0xa
 1244 029f B7       		.byte	0xb7
 1245 02a0 BD020000 		.4byte	0x2bd
 1246 02a4 06       		.uleb128 0x6
 1247 02a5 0A050000 		.4byte	.LASF30
 1248 02a9 0A       		.byte	0xa
 1249 02aa B8       		.byte	0xb8
 1250 02ab 63020000 		.4byte	0x263
 1251 02af 00       		.byte	0
 1252 02b0 06       		.uleb128 0x6
 1253 02b1 9A040000 		.4byte	.LASF31
 1254 02b5 0A       		.byte	0xa
 1255 02b6 B9       		.byte	0xb9
 1256 02b7 63020000 		.4byte	0x263
 1257 02bb 04       		.byte	0x4
 1258 02bc 00       		.byte	0
 1259 02bd 03       		.uleb128 0x3
 1260 02be 07000000 		.4byte	.LASF55
 1261 02c2 09       		.byte	0x9
 1262 02c3 57       		.byte	0x57
 1263 02c4 C8020000 		.4byte	0x2c8
 1264 02c8 0A       		.uleb128 0xa
 1265 02c9 95030000 		.4byte	.LASF56
 1266 02cd 1C       		.byte	0x1c
 1267 02ce 0A       		.byte	0xa
 1268 02cf 9001     		.2byte	0x190
 1269 02d1 24030000 		.4byte	0x324
 1270 02d5 08       		.uleb128 0x8
 1271 02d6 64050000 		.4byte	.LASF57
 1272 02da 0A       		.byte	0xa
 1273 02db 9101     		.2byte	0x191
 1274 02dd 8D020000 		.4byte	0x28d
 1275 02e1 00       		.byte	0
 1276 02e2 08       		.uleb128 0x8
 1277 02e3 FC040000 		.4byte	.LASF58
 1278 02e7 0A       		.byte	0xa
 1279 02e8 9201     		.2byte	0x192
 1280 02ea 05010000 		.4byte	0x105
 1281 02ee 08       		.byte	0x8
 1282 02ef 08       		.uleb128 0x8
 1283 02f0 2B040000 		.4byte	.LASF59
 1284 02f4 0A       		.byte	0xa
 1285 02f5 9401     		.2byte	0x194
 1286 02f7 CC040000 		.4byte	0x4cc
 1287 02fb 0C       		.byte	0xc
 1288 02fc 08       		.uleb128 0x8
 1289 02fd E0010000 		.4byte	.LASF60
 1290 0301 0A       		.byte	0xa
ARM GAS  /tmp/cc4zkXz1.s 			page 58


 1291 0302 9701     		.2byte	0x197
 1292 0304 63020000 		.4byte	0x263
 1293 0308 10       		.byte	0x10
 1294 0309 08       		.uleb128 0x8
 1295 030a 4C040000 		.4byte	.LASF61
 1296 030e 0A       		.byte	0xa
 1297 030f 9801     		.2byte	0x198
 1298 0311 63020000 		.4byte	0x263
 1299 0315 14       		.byte	0x14
 1300 0316 08       		.uleb128 0x8
 1301 0317 42040000 		.4byte	.LASF62
 1302 031b 0A       		.byte	0xa
 1303 031c 9B01     		.2byte	0x19b
 1304 031e 63020000 		.4byte	0x263
 1305 0322 18       		.byte	0x18
 1306 0323 00       		.byte	0
 1307 0324 03       		.uleb128 0x3
 1308 0325 CE050000 		.4byte	.LASF63
 1309 0329 09       		.byte	0x9
 1310 032a 5C       		.byte	0x5c
 1311 032b 2F030000 		.4byte	0x32f
 1312 032f 09       		.uleb128 0x9
 1313 0330 04       		.byte	0x4
 1314 0331 35030000 		.4byte	0x335
 1315 0335 0B       		.uleb128 0xb
 1316 0336 40030000 		.4byte	0x340
 1317 033a 0C       		.uleb128 0xc
 1318 033b 40030000 		.4byte	0x340
 1319 033f 00       		.byte	0
 1320 0340 0D       		.uleb128 0xd
 1321 0341 04       		.byte	0x4
 1322 0342 03       		.uleb128 0x3
 1323 0343 8A040000 		.4byte	.LASF64
 1324 0347 09       		.byte	0x9
 1325 0348 61       		.byte	0x61
 1326 0349 4D030000 		.4byte	0x34d
 1327 034d 0A       		.uleb128 0xa
 1328 034e 2B050000 		.4byte	.LASF65
 1329 0352 14       		.byte	0x14
 1330 0353 0A       		.byte	0xa
 1331 0354 6B01     		.2byte	0x16b
 1332 0356 9C030000 		.4byte	0x39c
 1333 035a 08       		.uleb128 0x8
 1334 035b 09020000 		.4byte	.LASF66
 1335 035f 0A       		.byte	0xa
 1336 0360 6C01     		.2byte	0x16c
 1337 0362 88070000 		.4byte	0x788
 1338 0366 00       		.byte	0
 1339 0367 08       		.uleb128 0x8
 1340 0368 F1010000 		.4byte	.LASF67
 1341 036c 0A       		.byte	0xa
 1342 036d 6D01     		.2byte	0x16d
 1343 036f 88070000 		.4byte	0x788
 1344 0373 04       		.byte	0x4
 1345 0374 08       		.uleb128 0x8
 1346 0375 6C050000 		.4byte	.LASF68
 1347 0379 0A       		.byte	0xa
ARM GAS  /tmp/cc4zkXz1.s 			page 59


 1348 037a 6E01     		.2byte	0x16e
 1349 037c 3C010000 		.4byte	0x13c
 1350 0380 08       		.byte	0x8
 1351 0381 08       		.uleb128 0x8
 1352 0382 C0060000 		.4byte	.LASF69
 1353 0386 0A       		.byte	0xa
 1354 0387 6F01     		.2byte	0x16f
 1355 0389 24030000 		.4byte	0x324
 1356 038d 0C       		.byte	0xc
 1357 038e 08       		.uleb128 0x8
 1358 038f 11060000 		.4byte	.LASF70
 1359 0393 0A       		.byte	0xa
 1360 0394 7101     		.2byte	0x171
 1361 0396 40030000 		.4byte	0x340
 1362 039a 10       		.byte	0x10
 1363 039b 00       		.byte	0
 1364 039c 03       		.uleb128 0x3
 1365 039d EB000000 		.4byte	.LASF71
 1366 03a1 09       		.byte	0x9
 1367 03a2 66       		.byte	0x66
 1368 03a3 A7030000 		.4byte	0x3a7
 1369 03a7 0A       		.uleb128 0xa
 1370 03a8 EA030000 		.4byte	.LASF72
 1371 03ac 10       		.byte	0x10
 1372 03ad 0A       		.byte	0xa
 1373 03ae 7B01     		.2byte	0x17b
 1374 03b0 E9030000 		.4byte	0x3e9
 1375 03b4 08       		.uleb128 0x8
 1376 03b5 09020000 		.4byte	.LASF66
 1377 03b9 0A       		.byte	0xa
 1378 03ba 7C01     		.2byte	0x17c
 1379 03bc 88070000 		.4byte	0x788
 1380 03c0 00       		.byte	0
 1381 03c1 08       		.uleb128 0x8
 1382 03c2 F1010000 		.4byte	.LASF67
 1383 03c6 0A       		.byte	0xa
 1384 03c7 7E01     		.2byte	0x17e
 1385 03c9 88070000 		.4byte	0x788
 1386 03cd 04       		.byte	0x4
 1387 03ce 08       		.uleb128 0x8
 1388 03cf 6C050000 		.4byte	.LASF68
 1389 03d3 0A       		.byte	0xa
 1390 03d4 8001     		.2byte	0x180
 1391 03d6 3C010000 		.4byte	0x13c
 1392 03da 08       		.byte	0x8
 1393 03db 08       		.uleb128 0x8
 1394 03dc 17040000 		.4byte	.LASF73
 1395 03e0 0A       		.byte	0xa
 1396 03e1 8801     		.2byte	0x188
 1397 03e3 3C010000 		.4byte	0x13c
 1398 03e7 0C       		.byte	0xc
 1399 03e8 00       		.byte	0
 1400 03e9 03       		.uleb128 0x3
 1401 03ea 73000000 		.4byte	.LASF74
 1402 03ee 09       		.byte	0x9
 1403 03ef 6B       		.byte	0x6b
 1404 03f0 F4030000 		.4byte	0x3f4
ARM GAS  /tmp/cc4zkXz1.s 			page 60


 1405 03f4 0E       		.uleb128 0xe
 1406 03f5 F9010000 		.4byte	.LASF75
 1407 03f9 1404     		.2byte	0x414
 1408 03fb 0A       		.byte	0xa
 1409 03fc A201     		.2byte	0x1a2
 1410 03fe 37040000 		.4byte	0x437
 1411 0402 08       		.uleb128 0x8
 1412 0403 F0050000 		.4byte	.LASF76
 1413 0407 0A       		.byte	0xa
 1414 0408 AA01     		.2byte	0x1aa
 1415 040a 8E070000 		.4byte	0x78e
 1416 040e 00       		.byte	0
 1417 040f 08       		.uleb128 0x8
 1418 0410 46060000 		.4byte	.LASF77
 1419 0414 0A       		.byte	0xa
 1420 0415 AF01     		.2byte	0x1af
 1421 0417 26010000 		.4byte	0x126
 1422 041b 04       		.byte	0x4
 1423 041c 08       		.uleb128 0x8
 1424 041d 17020000 		.4byte	.LASF78
 1425 0421 0A       		.byte	0xa
 1426 0422 B301     		.2byte	0x1b3
 1427 0424 26010000 		.4byte	0x126
 1428 0428 08       		.byte	0x8
 1429 0429 08       		.uleb128 0x8
 1430 042a 7E060000 		.4byte	.LASF79
 1431 042e 0A       		.byte	0xa
 1432 042f B901     		.2byte	0x1b9
 1433 0431 EE050000 		.4byte	0x5ee
 1434 0435 0C       		.byte	0xc
 1435 0436 00       		.byte	0
 1436 0437 03       		.uleb128 0x3
 1437 0438 D3020000 		.4byte	.LASF80
 1438 043c 09       		.byte	0x9
 1439 043d 70       		.byte	0x70
 1440 043e 42040000 		.4byte	0x442
 1441 0442 0E       		.uleb128 0xe
 1442 0443 99010000 		.4byte	.LASF81
 1443 0447 D805     		.2byte	0x5d8
 1444 0449 0A       		.byte	0xa
 1445 044a C201     		.2byte	0x1c2
 1446 044c AF040000 		.4byte	0x4af
 1447 0450 08       		.uleb128 0x8
 1448 0451 4E060000 		.4byte	.LASF82
 1449 0455 0A       		.byte	0xa
 1450 0456 C601     		.2byte	0x1c6
 1451 0458 BD020000 		.4byte	0x2bd
 1452 045c 00       		.byte	0
 1453 045d 08       		.uleb128 0x8
 1454 045e 6F010000 		.4byte	.LASF83
 1455 0462 0A       		.byte	0xa
 1456 0463 CA01     		.2byte	0x1ca
 1457 0465 9C030000 		.4byte	0x39c
 1458 0469 1C       		.byte	0x1c
 1459 046a 07       		.uleb128 0x7
 1460 046b 64626700 		.ascii	"dbg\000"
 1461 046f 0A       		.byte	0xa
ARM GAS  /tmp/cc4zkXz1.s 			page 61


 1462 0470 CE01     		.2byte	0x1ce
 1463 0472 E9030000 		.4byte	0x3e9
 1464 0476 2C       		.byte	0x2c
 1465 0477 0F       		.uleb128 0xf
 1466 0478 E0000000 		.4byte	.LASF84
 1467 047c 0A       		.byte	0xa
 1468 047d D201     		.2byte	0x1d2
 1469 047f 47010000 		.4byte	0x147
 1470 0483 4004     		.2byte	0x440
 1471 0485 10       		.uleb128 0x10
 1472 0486 746D00   		.ascii	"tm\000"
 1473 0489 0A       		.byte	0xa
 1474 048a D701     		.2byte	0x1d7
 1475 048c 0E060000 		.4byte	0x60e
 1476 0490 A004     		.2byte	0x4a0
 1477 0492 0F       		.uleb128 0xf
 1478 0493 33000000 		.4byte	.LASF85
 1479 0497 0A       		.byte	0xa
 1480 0498 DD01     		.2byte	0x1dd
 1481 049a A0060000 		.4byte	0x6a0
 1482 049e A804     		.2byte	0x4a8
 1483 04a0 0F       		.uleb128 0xf
 1484 04a1 20020000 		.4byte	.LASF86
 1485 04a5 0A       		.byte	0xa
 1486 04a6 E301     		.2byte	0x1e3
 1487 04a8 93070000 		.4byte	0x793
 1488 04ac E004     		.2byte	0x4e0
 1489 04ae 00       		.byte	0
 1490 04af 04       		.uleb128 0x4
 1491 04b0 04       		.byte	0x4
 1492 04b1 07       		.byte	0x7
 1493 04b2 CE030000 		.4byte	.LASF87
 1494 04b6 03       		.uleb128 0x3
 1495 04b7 E8010000 		.4byte	.LASF88
 1496 04bb 0B       		.byte	0xb
 1497 04bc 65       		.byte	0x65
 1498 04bd 40030000 		.4byte	0x340
 1499 04c1 03       		.uleb128 0x3
 1500 04c2 B9030000 		.4byte	.LASF89
 1501 04c6 0B       		.byte	0xb
 1502 04c7 6D       		.byte	0x6d
 1503 04c8 C3000000 		.4byte	0xc3
 1504 04cc 05       		.uleb128 0x5
 1505 04cd 01060000 		.4byte	.LASF90
 1506 04d1 04       		.byte	0x4
 1507 04d2 0B       		.byte	0xb
 1508 04d3 89       		.byte	0x89
 1509 04d4 E5040000 		.4byte	0x4e5
 1510 04d8 11       		.uleb128 0x11
 1511 04d9 72313300 		.ascii	"r13\000"
 1512 04dd 0B       		.byte	0xb
 1513 04de 8A       		.byte	0x8a
 1514 04df 60050000 		.4byte	0x560
 1515 04e3 00       		.byte	0
 1516 04e4 00       		.byte	0
 1517 04e5 05       		.uleb128 0x5
 1518 04e6 56000000 		.4byte	.LASF91
ARM GAS  /tmp/cc4zkXz1.s 			page 62


 1519 04ea 24       		.byte	0x24
 1520 04eb 01       		.byte	0x1
 1521 04ec FD       		.byte	0xfd
 1522 04ed 60050000 		.4byte	0x560
 1523 04f1 07       		.uleb128 0x7
 1524 04f2 723400   		.ascii	"r4\000"
 1525 04f5 01       		.byte	0x1
 1526 04f6 1001     		.2byte	0x110
 1527 04f8 B6040000 		.4byte	0x4b6
 1528 04fc 00       		.byte	0
 1529 04fd 07       		.uleb128 0x7
 1530 04fe 723500   		.ascii	"r5\000"
 1531 0501 01       		.byte	0x1
 1532 0502 1101     		.2byte	0x111
 1533 0504 B6040000 		.4byte	0x4b6
 1534 0508 04       		.byte	0x4
 1535 0509 07       		.uleb128 0x7
 1536 050a 723600   		.ascii	"r6\000"
 1537 050d 01       		.byte	0x1
 1538 050e 1201     		.2byte	0x112
 1539 0510 B6040000 		.4byte	0x4b6
 1540 0514 08       		.byte	0x8
 1541 0515 07       		.uleb128 0x7
 1542 0516 723700   		.ascii	"r7\000"
 1543 0519 01       		.byte	0x1
 1544 051a 1301     		.2byte	0x113
 1545 051c B6040000 		.4byte	0x4b6
 1546 0520 0C       		.byte	0xc
 1547 0521 07       		.uleb128 0x7
 1548 0522 723800   		.ascii	"r8\000"
 1549 0525 01       		.byte	0x1
 1550 0526 1401     		.2byte	0x114
 1551 0528 B6040000 		.4byte	0x4b6
 1552 052c 10       		.byte	0x10
 1553 052d 07       		.uleb128 0x7
 1554 052e 723900   		.ascii	"r9\000"
 1555 0531 01       		.byte	0x1
 1556 0532 1501     		.2byte	0x115
 1557 0534 B6040000 		.4byte	0x4b6
 1558 0538 14       		.byte	0x14
 1559 0539 07       		.uleb128 0x7
 1560 053a 72313000 		.ascii	"r10\000"
 1561 053e 01       		.byte	0x1
 1562 053f 1601     		.2byte	0x116
 1563 0541 B6040000 		.4byte	0x4b6
 1564 0545 18       		.byte	0x18
 1565 0546 07       		.uleb128 0x7
 1566 0547 72313100 		.ascii	"r11\000"
 1567 054b 01       		.byte	0x1
 1568 054c 1701     		.2byte	0x117
 1569 054e B6040000 		.4byte	0x4b6
 1570 0552 1C       		.byte	0x1c
 1571 0553 07       		.uleb128 0x7
 1572 0554 6C7200   		.ascii	"lr\000"
 1573 0557 01       		.byte	0x1
 1574 0558 1801     		.2byte	0x118
 1575 055a B6040000 		.4byte	0x4b6
ARM GAS  /tmp/cc4zkXz1.s 			page 63


 1576 055e 20       		.byte	0x20
 1577 055f 00       		.byte	0
 1578 0560 09       		.uleb128 0x9
 1579 0561 04       		.byte	0x4
 1580 0562 E5040000 		.4byte	0x4e5
 1581 0566 12       		.uleb128 0x12
 1582 0567 10       		.byte	0x10
 1583 0568 0C       		.byte	0xc
 1584 0569 51       		.byte	0x51
 1585 056a 9F050000 		.4byte	0x59f
 1586 056e 06       		.uleb128 0x6
 1587 056f 14000000 		.4byte	.LASF92
 1588 0573 0C       		.byte	0xc
 1589 0574 55       		.byte	0x55
 1590 0575 3C010000 		.4byte	0x13c
 1591 0579 00       		.byte	0
 1592 057a 06       		.uleb128 0x6
 1593 057b B5010000 		.4byte	.LASF93
 1594 057f 0C       		.byte	0xc
 1595 0580 59       		.byte	0x59
 1596 0581 63020000 		.4byte	0x263
 1597 0585 04       		.byte	0x4
 1598 0586 06       		.uleb128 0x6
 1599 0587 B0060000 		.4byte	.LASF94
 1600 058b 0C       		.byte	0xc
 1601 058c 5D       		.byte	0x5d
 1602 058d 40030000 		.4byte	0x340
 1603 0591 08       		.byte	0x8
 1604 0592 06       		.uleb128 0x6
 1605 0593 CE000000 		.4byte	.LASF95
 1606 0597 0C       		.byte	0xc
 1607 0598 61       		.byte	0x61
 1608 0599 A2000000 		.4byte	0xa2
 1609 059d 0C       		.byte	0xc
 1610 059e 00       		.byte	0
 1611 059f 03       		.uleb128 0x3
 1612 05a0 08040000 		.4byte	.LASF96
 1613 05a4 0C       		.byte	0xc
 1614 05a5 62       		.byte	0x62
 1615 05a6 66050000 		.4byte	0x566
 1616 05aa 13       		.uleb128 0x13
 1617 05ab 0804     		.2byte	0x408
 1618 05ad 0C       		.byte	0xc
 1619 05ae 67       		.byte	0x67
 1620 05af D8050000 		.4byte	0x5d8
 1621 05b3 06       		.uleb128 0x6
 1622 05b4 D8010000 		.4byte	.LASF97
 1623 05b8 0C       		.byte	0xc
 1624 05b9 6B       		.byte	0x6b
 1625 05ba 37000000 		.4byte	0x37
 1626 05be 00       		.byte	0
 1627 05bf 06       		.uleb128 0x6
 1628 05c0 01040000 		.4byte	.LASF98
 1629 05c4 0C       		.byte	0xc
 1630 05c5 6F       		.byte	0x6f
 1631 05c6 D8050000 		.4byte	0x5d8
 1632 05ca 04       		.byte	0x4
ARM GAS  /tmp/cc4zkXz1.s 			page 64


 1633 05cb 06       		.uleb128 0x6
 1634 05cc 80040000 		.4byte	.LASF99
 1635 05d0 0C       		.byte	0xc
 1636 05d1 73       		.byte	0x73
 1637 05d2 DE050000 		.4byte	0x5de
 1638 05d6 08       		.byte	0x8
 1639 05d7 00       		.byte	0
 1640 05d8 09       		.uleb128 0x9
 1641 05d9 04       		.byte	0x4
 1642 05da 9F050000 		.4byte	0x59f
 1643 05de 14       		.uleb128 0x14
 1644 05df 9F050000 		.4byte	0x59f
 1645 05e3 EE050000 		.4byte	0x5ee
 1646 05e7 15       		.uleb128 0x15
 1647 05e8 AF040000 		.4byte	0x4af
 1648 05ec 3F       		.byte	0x3f
 1649 05ed 00       		.byte	0
 1650 05ee 03       		.uleb128 0x3
 1651 05ef BC000000 		.4byte	.LASF100
 1652 05f3 0C       		.byte	0xc
 1653 05f4 74       		.byte	0x74
 1654 05f5 AA050000 		.4byte	0x5aa
 1655 05f9 12       		.uleb128 0x12
 1656 05fa 04       		.byte	0x4
 1657 05fb 0D       		.byte	0xd
 1658 05fc 38       		.byte	0x38
 1659 05fd 0E060000 		.4byte	0x60e
 1660 0601 06       		.uleb128 0x6
 1661 0602 FA050000 		.4byte	.LASF101
 1662 0606 0D       		.byte	0xd
 1663 0607 3C       		.byte	0x3c
 1664 0608 CE000000 		.4byte	0xce
 1665 060c 00       		.byte	0
 1666 060d 00       		.byte	0
 1667 060e 03       		.uleb128 0x3
 1668 060f 31040000 		.4byte	.LASF102
 1669 0613 0D       		.byte	0xd
 1670 0614 3D       		.byte	0x3d
 1671 0615 F9050000 		.4byte	0x5f9
 1672 0619 12       		.uleb128 0x12
 1673 061a 18       		.byte	0x18
 1674 061b 0D       		.byte	0xd
 1675 061c 48       		.byte	0x48
 1676 061d 5C060000 		.4byte	0x65c
 1677 0621 06       		.uleb128 0x6
 1678 0622 A5050000 		.4byte	.LASF103
 1679 0626 0D       		.byte	0xd
 1680 0627 49       		.byte	0x49
 1681 0628 CE000000 		.4byte	0xce
 1682 062c 00       		.byte	0
 1683 062d 06       		.uleb128 0x6
 1684 062e 8C000000 		.4byte	.LASF104
 1685 0632 0D       		.byte	0xd
 1686 0633 4A       		.byte	0x4a
 1687 0634 CE000000 		.4byte	0xce
 1688 0638 04       		.byte	0x4
 1689 0639 06       		.uleb128 0x6
ARM GAS  /tmp/cc4zkXz1.s 			page 65


 1690 063a C7020000 		.4byte	.LASF105
 1691 063e 0D       		.byte	0xd
 1692 063f 4B       		.byte	0x4b
 1693 0640 CE000000 		.4byte	0xce
 1694 0644 08       		.byte	0x8
 1695 0645 11       		.uleb128 0x11
 1696 0646 6E00     		.ascii	"n\000"
 1697 0648 0D       		.byte	0xd
 1698 0649 4C       		.byte	0x4c
 1699 064a 31010000 		.4byte	0x131
 1700 064e 0C       		.byte	0xc
 1701 064f 06       		.uleb128 0x6
 1702 0650 5F040000 		.4byte	.LASF106
 1703 0654 0D       		.byte	0xd
 1704 0655 4D       		.byte	0x4d
 1705 0656 D9000000 		.4byte	0xd9
 1706 065a 10       		.byte	0x10
 1707 065b 00       		.byte	0
 1708 065c 03       		.uleb128 0x3
 1709 065d 92000000 		.4byte	.LASF107
 1710 0661 0D       		.byte	0xd
 1711 0662 4E       		.byte	0x4e
 1712 0663 19060000 		.4byte	0x619
 1713 0667 12       		.uleb128 0x12
 1714 0668 38       		.byte	0x38
 1715 0669 0E       		.byte	0xe
 1716 066a 38       		.byte	0x38
 1717 066b A0060000 		.4byte	0x6a0
 1718 066f 06       		.uleb128 0x6
 1719 0670 89020000 		.4byte	.LASF108
 1720 0674 0E       		.byte	0xe
 1721 0675 39       		.byte	0x39
 1722 0676 31010000 		.4byte	0x131
 1723 067a 00       		.byte	0
 1724 067b 06       		.uleb128 0x6
 1725 067c A9040000 		.4byte	.LASF109
 1726 0680 0E       		.byte	0xe
 1727 0681 3A       		.byte	0x3a
 1728 0682 31010000 		.4byte	0x131
 1729 0686 04       		.byte	0x4
 1730 0687 06       		.uleb128 0x6
 1731 0688 9D060000 		.4byte	.LASF110
 1732 068c 0E       		.byte	0xe
 1733 068d 3B       		.byte	0x3b
 1734 068e 5C060000 		.4byte	0x65c
 1735 0692 08       		.byte	0x8
 1736 0693 06       		.uleb128 0x6
 1737 0694 8A030000 		.4byte	.LASF111
 1738 0698 0E       		.byte	0xe
 1739 0699 3D       		.byte	0x3d
 1740 069a 5C060000 		.4byte	0x65c
 1741 069e 20       		.byte	0x20
 1742 069f 00       		.byte	0
 1743 06a0 03       		.uleb128 0x3
 1744 06a1 A8020000 		.4byte	.LASF112
 1745 06a5 0E       		.byte	0xe
 1746 06a6 3F       		.byte	0x3f
ARM GAS  /tmp/cc4zkXz1.s 			page 66


 1747 06a7 67060000 		.4byte	0x667
 1748 06ab 16       		.uleb128 0x16
 1749 06ac 04       		.byte	0x4
 1750 06ad 0A       		.byte	0xa
 1751 06ae FA       		.byte	0xfa
 1752 06af 08070000 		.4byte	0x708
 1753 06b3 17       		.uleb128 0x17
 1754 06b4 23000000 		.4byte	.LASF113
 1755 06b8 0A       		.byte	0xa
 1756 06b9 0101     		.2byte	0x101
 1757 06bb 10010000 		.4byte	0x110
 1758 06bf 17       		.uleb128 0x17
 1759 06c0 D7000000 		.4byte	.LASF114
 1760 06c4 0A       		.byte	0xa
 1761 06c5 0801     		.2byte	0x108
 1762 06c7 10010000 		.4byte	0x110
 1763 06cb 17       		.uleb128 0x17
 1764 06cc 5C060000 		.4byte	.LASF115
 1765 06d0 0A       		.byte	0xa
 1766 06d1 0F01     		.2byte	0x10f
 1767 06d3 40030000 		.4byte	0x340
 1768 06d7 17       		.uleb128 0x17
 1769 06d8 93010000 		.4byte	.LASF116
 1770 06dc 0A       		.byte	0xa
 1771 06dd 1601     		.2byte	0x116
 1772 06df 08070000 		.4byte	0x708
 1773 06e3 17       		.uleb128 0x17
 1774 06e4 77020000 		.4byte	.LASF117
 1775 06e8 0A       		.byte	0xa
 1776 06e9 1E01     		.2byte	0x11e
 1777 06eb 33070000 		.4byte	0x733
 1778 06ef 17       		.uleb128 0x17
 1779 06f0 5D050000 		.4byte	.LASF118
 1780 06f4 0A       		.byte	0xa
 1781 06f5 2701     		.2byte	0x127
 1782 06f7 6A070000 		.4byte	0x76a
 1783 06fb 17       		.uleb128 0x17
 1784 06fc 03050000 		.4byte	.LASF119
 1785 0700 0A       		.byte	0xa
 1786 0701 2F01     		.2byte	0x12f
 1787 0703 1B010000 		.4byte	0x11b
 1788 0707 00       		.byte	0
 1789 0708 09       		.uleb128 0x9
 1790 0709 04       		.byte	0x4
 1791 070a 58020000 		.4byte	0x258
 1792 070e 05       		.uleb128 0x5
 1793 070f 3C050000 		.4byte	.LASF120
 1794 0713 0C       		.byte	0xc
 1795 0714 0F       		.byte	0xf
 1796 0715 34       		.byte	0x34
 1797 0716 33070000 		.4byte	0x733
 1798 071a 06       		.uleb128 0x6
 1799 071b C3010000 		.4byte	.LASF121
 1800 071f 0F       		.byte	0xf
 1801 0720 35       		.byte	0x35
 1802 0721 8D020000 		.4byte	0x28d
 1803 0725 00       		.byte	0
ARM GAS  /tmp/cc4zkXz1.s 			page 67


 1804 0726 06       		.uleb128 0x6
 1805 0727 8F020000 		.4byte	.LASF122
 1806 072b 0F       		.byte	0xf
 1807 072c 37       		.byte	0x37
 1808 072d 26010000 		.4byte	0x126
 1809 0731 08       		.byte	0x8
 1810 0732 00       		.byte	0
 1811 0733 09       		.uleb128 0x9
 1812 0734 04       		.byte	0x4
 1813 0735 0E070000 		.4byte	0x70e
 1814 0739 05       		.uleb128 0x5
 1815 073a 36060000 		.4byte	.LASF123
 1816 073e 10       		.byte	0x10
 1817 073f 10       		.byte	0x10
 1818 0740 39       		.byte	0x39
 1819 0741 6A070000 		.4byte	0x76a
 1820 0745 06       		.uleb128 0x6
 1821 0746 67010000 		.4byte	.LASF124
 1822 074a 10       		.byte	0x10
 1823 074b 3A       		.byte	0x3a
 1824 074c 8D020000 		.4byte	0x28d
 1825 0750 00       		.byte	0
 1826 0751 06       		.uleb128 0x6
 1827 0752 A8060000 		.4byte	.LASF125
 1828 0756 10       		.byte	0x10
 1829 0757 3C       		.byte	0x3c
 1830 0758 63020000 		.4byte	0x263
 1831 075c 08       		.byte	0x8
 1832 075d 06       		.uleb128 0x6
 1833 075e B2050000 		.4byte	.LASF126
 1834 0762 10       		.byte	0x10
 1835 0763 3E       		.byte	0x3e
 1836 0764 AE070000 		.4byte	0x7ae
 1837 0768 0C       		.byte	0xc
 1838 0769 00       		.byte	0
 1839 076a 09       		.uleb128 0x9
 1840 076b 04       		.byte	0x4
 1841 076c 39070000 		.4byte	0x739
 1842 0770 09       		.uleb128 0x9
 1843 0771 04       		.byte	0x4
 1844 0772 76070000 		.4byte	0x776
 1845 0776 18       		.uleb128 0x18
 1846 0777 7B070000 		.4byte	0x77b
 1847 077b 04       		.uleb128 0x4
 1848 077c 01       		.byte	0x1
 1849 077d 08       		.byte	0x8
 1850 077e 97050000 		.4byte	.LASF127
 1851 0782 09       		.uleb128 0x9
 1852 0783 04       		.byte	0x4
 1853 0784 C1040000 		.4byte	0x4c1
 1854 0788 09       		.uleb128 0x9
 1855 0789 04       		.byte	0x4
 1856 078a 42030000 		.4byte	0x342
 1857 078e 19       		.uleb128 0x19
 1858 078f 70070000 		.4byte	0x770
 1859 0793 14       		.uleb128 0x14
 1860 0794 C1040000 		.4byte	0x4c1
ARM GAS  /tmp/cc4zkXz1.s 			page 68


 1861 0798 A3070000 		.4byte	0x7a3
 1862 079c 15       		.uleb128 0x15
 1863 079d AF040000 		.4byte	0x4af
 1864 07a1 1E       		.byte	0x1e
 1865 07a2 00       		.byte	0
 1866 07a3 03       		.uleb128 0x3
 1867 07a4 1E010000 		.4byte	.LASF128
 1868 07a8 10       		.byte	0x10
 1869 07a9 34       		.byte	0x34
 1870 07aa 39070000 		.4byte	0x739
 1871 07ae 09       		.uleb128 0x9
 1872 07af 04       		.byte	0x4
 1873 07b0 A3070000 		.4byte	0x7a3
 1874 07b4 09       		.uleb128 0x9
 1875 07b5 04       		.byte	0x4
 1876 07b6 A2000000 		.4byte	0xa2
 1877 07ba 1A       		.uleb128 0x1a
 1878 07bb E2050000 		.4byte	.LASF143
 1879 07bf 02       		.byte	0x2
 1880 07c0 2202     		.2byte	0x222
 1881 07c2 03       		.byte	0x3
 1882 07c3 D4070000 		.4byte	0x7d4
 1883 07c7 1B       		.uleb128 0x1b
 1884 07c8 11020000 		.4byte	.LASF144
 1885 07cc 02       		.byte	0x2
 1886 07cd 2202     		.2byte	0x222
 1887 07cf B8000000 		.4byte	0xb8
 1888 07d3 00       		.byte	0
 1889 07d4 1C       		.uleb128 0x1c
 1890 07d5 82000000 		.4byte	.LASF129
 1891 07d9 01       		.byte	0x1
 1892 07da C801     		.2byte	0x1c8
 1893 07dc 00000000 		.4byte	.LFB127
 1894 07e0 10000000 		.4byte	.LFE127-.LFB127
 1895 07e4 01       		.uleb128 0x1
 1896 07e5 9C       		.byte	0x9c
 1897 07e6 04080000 		.4byte	0x804
 1898 07ea 1D       		.uleb128 0x1d
 1899 07eb BA070000 		.4byte	0x7ba
 1900 07ef 06000000 		.4byte	.LBB6
 1901 07f3 06000000 		.4byte	.LBE6-.LBB6
 1902 07f7 01       		.byte	0x1
 1903 07f8 D001     		.2byte	0x1d0
 1904 07fa 1E       		.uleb128 0x1e
 1905 07fb C7070000 		.4byte	0x7c7
 1906 07ff 02       		.uleb128 0x2
 1907 0800 91       		.byte	0x91
 1908 0801 7C       		.sleb128 -4
 1909 0802 00       		.byte	0
 1910 0803 00       		.byte	0
 1911 0804 1C       		.uleb128 0x1c
 1912 0805 76010000 		.4byte	.LASF130
 1913 0809 01       		.byte	0x1
 1914 080a E001     		.2byte	0x1e0
 1915 080c 00000000 		.4byte	.LFB128
 1916 0810 10000000 		.4byte	.LFE128-.LFB128
 1917 0814 01       		.uleb128 0x1
ARM GAS  /tmp/cc4zkXz1.s 			page 69


 1918 0815 9C       		.byte	0x9c
 1919 0816 34080000 		.4byte	0x834
 1920 081a 1D       		.uleb128 0x1d
 1921 081b BA070000 		.4byte	0x7ba
 1922 081f 06000000 		.4byte	.LBB8
 1923 0823 06000000 		.4byte	.LBE8-.LBB8
 1924 0827 01       		.byte	0x1
 1925 0828 E301     		.2byte	0x1e3
 1926 082a 1E       		.uleb128 0x1e
 1927 082b C7070000 		.4byte	0x7c7
 1928 082f 02       		.uleb128 0x2
 1929 0830 91       		.byte	0x91
 1930 0831 7C       		.sleb128 -4
 1931 0832 00       		.byte	0
 1932 0833 00       		.byte	0
 1933 0834 1F       		.uleb128 0x1f
 1934 0835 21050000 		.4byte	.LASF145
 1935 0839 03       		.byte	0x3
 1936 083a 5A01     		.2byte	0x15a
 1937 083c 00000000 		.4byte	.LFB167
 1938 0840 10000000 		.4byte	.LFE167-.LFB167
 1939 0844 01       		.uleb128 0x1
 1940 0845 9C       		.byte	0x9c
 1941 0846 20       		.uleb128 0x20
 1942 0847 8B060000 		.4byte	.LASF131
 1943 084b 03       		.byte	0x3
 1944 084c 6601     		.2byte	0x166
 1945 084e 00000000 		.4byte	.LFB168
 1946 0852 4E000000 		.4byte	.LFE168-.LFB168
 1947 0856 01       		.uleb128 0x1
 1948 0857 9C       		.byte	0x9c
 1949 0858 6C080000 		.4byte	0x86c
 1950 085c 21       		.uleb128 0x21
 1951 085d 6A040000 		.4byte	.LASF146
 1952 0861 7C080000 		.4byte	0x87c
 1953 0865 05       		.uleb128 0x5
 1954 0866 03       		.byte	0x3
 1955 0867 00000000 		.4byte	__func__.5915
 1956 086b 00       		.byte	0
 1957 086c 14       		.uleb128 0x14
 1958 086d 7B070000 		.4byte	0x77b
 1959 0871 7C080000 		.4byte	0x87c
 1960 0875 15       		.uleb128 0x15
 1961 0876 AF040000 		.4byte	0x4af
 1962 087a 0B       		.byte	0xb
 1963 087b 00       		.byte	0
 1964 087c 18       		.uleb128 0x18
 1965 087d 6C080000 		.4byte	0x86c
 1966 0881 22       		.uleb128 0x22
 1967 0882 C8040000 		.4byte	.LASF147
 1968 0886 04       		.byte	0x4
 1969 0887 4E       		.byte	0x4e
 1970 0888 00000000 		.4byte	.LFB241
 1971 088c 34000000 		.4byte	.LFE241-.LFB241
 1972 0890 01       		.uleb128 0x1
 1973 0891 9C       		.byte	0x9c
 1974 0892 AD080000 		.4byte	0x8ad
ARM GAS  /tmp/cc4zkXz1.s 			page 70


 1975 0896 23       		.uleb128 0x23
 1976 0897 18060000 		.4byte	.LASF132
 1977 089b 04       		.byte	0x4
 1978 089c 50       		.byte	0x50
 1979 089d AD080000 		.4byte	0x8ad
 1980 08a1 23       		.uleb128 0x23
 1981 08a2 EF040000 		.4byte	.LASF133
 1982 08a6 04       		.byte	0x4
 1983 08a7 51       		.byte	0x51
 1984 08a8 AD080000 		.4byte	0x8ad
 1985 08ac 00       		.byte	0
 1986 08ad 14       		.uleb128 0x14
 1987 08ae A2000000 		.4byte	0xa2
 1988 08b2 B8080000 		.4byte	0x8b8
 1989 08b6 24       		.uleb128 0x24
 1990 08b7 00       		.byte	0
 1991 08b8 25       		.uleb128 0x25
 1992 08b9 40000000 		.4byte	.LASF134
 1993 08bd 04       		.byte	0x4
 1994 08be 6D       		.byte	0x6d
 1995 08bf 40030000 		.4byte	0x340
 1996 08c3 00000000 		.4byte	.LFB242
 1997 08c7 20000000 		.4byte	.LFE242-.LFB242
 1998 08cb 01       		.uleb128 0x1
 1999 08cc 9C       		.byte	0x9c
 2000 08cd EC080000 		.4byte	0x8ec
 2001 08d1 26       		.uleb128 0x26
 2002 08d2 6A060000 		.4byte	.LASF136
 2003 08d6 04       		.byte	0x4
 2004 08d7 6D       		.byte	0x6d
 2005 08d8 2C000000 		.4byte	0x2c
 2006 08dc 02       		.uleb128 0x2
 2007 08dd 91       		.byte	0x91
 2008 08de 6C       		.sleb128 -20
 2009 08df 27       		.uleb128 0x27
 2010 08e0 7000     		.ascii	"p\000"
 2011 08e2 04       		.byte	0x4
 2012 08e3 6E       		.byte	0x6e
 2013 08e4 40030000 		.4byte	0x340
 2014 08e8 02       		.uleb128 0x2
 2015 08e9 91       		.byte	0x91
 2016 08ea 74       		.sleb128 -12
 2017 08eb 00       		.byte	0
 2018 08ec 25       		.uleb128 0x25
 2019 08ed CB010000 		.4byte	.LASF135
 2020 08f1 04       		.byte	0x4
 2021 08f2 83       		.byte	0x83
 2022 08f3 40030000 		.4byte	0x340
 2023 08f7 00000000 		.4byte	.LFB243
 2024 08fb 66000000 		.4byte	.LFE243-.LFB243
 2025 08ff 01       		.uleb128 0x1
 2026 0900 9C       		.byte	0x9c
 2027 0901 20090000 		.4byte	0x920
 2028 0905 26       		.uleb128 0x26
 2029 0906 6A060000 		.4byte	.LASF136
 2030 090a 04       		.byte	0x4
 2031 090b 83       		.byte	0x83
ARM GAS  /tmp/cc4zkXz1.s 			page 71


 2032 090c 2C000000 		.4byte	0x2c
 2033 0910 02       		.uleb128 0x2
 2034 0911 91       		.byte	0x91
 2035 0912 6C       		.sleb128 -20
 2036 0913 27       		.uleb128 0x27
 2037 0914 7000     		.ascii	"p\000"
 2038 0916 04       		.byte	0x4
 2039 0917 84       		.byte	0x84
 2040 0918 40030000 		.4byte	0x340
 2041 091c 02       		.uleb128 0x2
 2042 091d 91       		.byte	0x91
 2043 091e 74       		.sleb128 -12
 2044 091f 00       		.byte	0
 2045 0920 28       		.uleb128 0x28
 2046 0921 82010000 		.4byte	.LASF148
 2047 0925 04       		.byte	0x4
 2048 0926 9B       		.byte	0x9b
 2049 0927 2C000000 		.4byte	0x2c
 2050 092b 00000000 		.4byte	.LFB244
 2051 092f 1C000000 		.4byte	.LFE244-.LFB244
 2052 0933 01       		.uleb128 0x1
 2053 0934 9C       		.byte	0x9c
 2054 0935 29       		.uleb128 0x29
 2055 0936 AA050000 		.4byte	.LASF137
 2056 093a 04       		.byte	0x4
 2057 093b 3E       		.byte	0x3e
 2058 093c B4070000 		.4byte	0x7b4
 2059 0940 05       		.uleb128 0x5
 2060 0941 03       		.byte	0x3
 2061 0942 00000000 		.4byte	nextmem
 2062 0946 29       		.uleb128 0x29
 2063 0947 00000000 		.4byte	.LASF138
 2064 094b 04       		.byte	0x4
 2065 094c 3F       		.byte	0x3f
 2066 094d B4070000 		.4byte	0x7b4
 2067 0951 05       		.uleb128 0x5
 2068 0952 03       		.byte	0x3
 2069 0953 00000000 		.4byte	endmem
 2070 0957 2A       		.uleb128 0x2a
 2071 0958 01010000 		.4byte	.LASF139
 2072 095c 11       		.byte	0x11
 2073 095d FA06     		.2byte	0x6fa
 2074 095f 63090000 		.4byte	0x963
 2075 0963 19       		.uleb128 0x19
 2076 0964 AD000000 		.4byte	0xad
 2077 0968 2B       		.uleb128 0x2b
 2078 0969 636800   		.ascii	"ch\000"
 2079 096c 0A       		.byte	0xa
 2080 096d 0902     		.2byte	0x209
 2081 096f 37040000 		.4byte	0x437
 2082 0973 23       		.uleb128 0x23
 2083 0974 18060000 		.4byte	.LASF132
 2084 0978 04       		.byte	0x4
 2085 0979 50       		.byte	0x50
 2086 097a AD080000 		.4byte	0x8ad
 2087 097e 23       		.uleb128 0x23
 2088 097f EF040000 		.4byte	.LASF133
ARM GAS  /tmp/cc4zkXz1.s 			page 72


 2089 0983 04       		.byte	0x4
 2090 0984 51       		.byte	0x51
 2091 0985 AD080000 		.4byte	0x8ad
 2092 0989 00       		.byte	0
 2093              		.section	.debug_abbrev,"",%progbits
 2094              	.Ldebug_abbrev0:
 2095 0000 01       		.uleb128 0x1
 2096 0001 11       		.uleb128 0x11
 2097 0002 01       		.byte	0x1
 2098 0003 25       		.uleb128 0x25
 2099 0004 0E       		.uleb128 0xe
 2100 0005 13       		.uleb128 0x13
 2101 0006 0B       		.uleb128 0xb
 2102 0007 03       		.uleb128 0x3
 2103 0008 0E       		.uleb128 0xe
 2104 0009 1B       		.uleb128 0x1b
 2105 000a 0E       		.uleb128 0xe
 2106 000b 55       		.uleb128 0x55
 2107 000c 17       		.uleb128 0x17
 2108 000d 11       		.uleb128 0x11
 2109 000e 01       		.uleb128 0x1
 2110 000f 10       		.uleb128 0x10
 2111 0010 17       		.uleb128 0x17
 2112 0011 00       		.byte	0
 2113 0012 00       		.byte	0
 2114 0013 02       		.uleb128 0x2
 2115 0014 24       		.uleb128 0x24
 2116 0015 00       		.byte	0
 2117 0016 0B       		.uleb128 0xb
 2118 0017 0B       		.uleb128 0xb
 2119 0018 3E       		.uleb128 0x3e
 2120 0019 0B       		.uleb128 0xb
 2121 001a 03       		.uleb128 0x3
 2122 001b 08       		.uleb128 0x8
 2123 001c 00       		.byte	0
 2124 001d 00       		.byte	0
 2125 001e 03       		.uleb128 0x3
 2126 001f 16       		.uleb128 0x16
 2127 0020 00       		.byte	0
 2128 0021 03       		.uleb128 0x3
 2129 0022 0E       		.uleb128 0xe
 2130 0023 3A       		.uleb128 0x3a
 2131 0024 0B       		.uleb128 0xb
 2132 0025 3B       		.uleb128 0x3b
 2133 0026 0B       		.uleb128 0xb
 2134 0027 49       		.uleb128 0x49
 2135 0028 13       		.uleb128 0x13
 2136 0029 00       		.byte	0
 2137 002a 00       		.byte	0
 2138 002b 04       		.uleb128 0x4
 2139 002c 24       		.uleb128 0x24
 2140 002d 00       		.byte	0
 2141 002e 0B       		.uleb128 0xb
 2142 002f 0B       		.uleb128 0xb
 2143 0030 3E       		.uleb128 0x3e
 2144 0031 0B       		.uleb128 0xb
 2145 0032 03       		.uleb128 0x3
ARM GAS  /tmp/cc4zkXz1.s 			page 73


 2146 0033 0E       		.uleb128 0xe
 2147 0034 00       		.byte	0
 2148 0035 00       		.byte	0
 2149 0036 05       		.uleb128 0x5
 2150 0037 13       		.uleb128 0x13
 2151 0038 01       		.byte	0x1
 2152 0039 03       		.uleb128 0x3
 2153 003a 0E       		.uleb128 0xe
 2154 003b 0B       		.uleb128 0xb
 2155 003c 0B       		.uleb128 0xb
 2156 003d 3A       		.uleb128 0x3a
 2157 003e 0B       		.uleb128 0xb
 2158 003f 3B       		.uleb128 0x3b
 2159 0040 0B       		.uleb128 0xb
 2160 0041 01       		.uleb128 0x1
 2161 0042 13       		.uleb128 0x13
 2162 0043 00       		.byte	0
 2163 0044 00       		.byte	0
 2164 0045 06       		.uleb128 0x6
 2165 0046 0D       		.uleb128 0xd
 2166 0047 00       		.byte	0
 2167 0048 03       		.uleb128 0x3
 2168 0049 0E       		.uleb128 0xe
 2169 004a 3A       		.uleb128 0x3a
 2170 004b 0B       		.uleb128 0xb
 2171 004c 3B       		.uleb128 0x3b
 2172 004d 0B       		.uleb128 0xb
 2173 004e 49       		.uleb128 0x49
 2174 004f 13       		.uleb128 0x13
 2175 0050 38       		.uleb128 0x38
 2176 0051 0B       		.uleb128 0xb
 2177 0052 00       		.byte	0
 2178 0053 00       		.byte	0
 2179 0054 07       		.uleb128 0x7
 2180 0055 0D       		.uleb128 0xd
 2181 0056 00       		.byte	0
 2182 0057 03       		.uleb128 0x3
 2183 0058 08       		.uleb128 0x8
 2184 0059 3A       		.uleb128 0x3a
 2185 005a 0B       		.uleb128 0xb
 2186 005b 3B       		.uleb128 0x3b
 2187 005c 05       		.uleb128 0x5
 2188 005d 49       		.uleb128 0x49
 2189 005e 13       		.uleb128 0x13
 2190 005f 38       		.uleb128 0x38
 2191 0060 0B       		.uleb128 0xb
 2192 0061 00       		.byte	0
 2193 0062 00       		.byte	0
 2194 0063 08       		.uleb128 0x8
 2195 0064 0D       		.uleb128 0xd
 2196 0065 00       		.byte	0
 2197 0066 03       		.uleb128 0x3
 2198 0067 0E       		.uleb128 0xe
 2199 0068 3A       		.uleb128 0x3a
 2200 0069 0B       		.uleb128 0xb
 2201 006a 3B       		.uleb128 0x3b
 2202 006b 05       		.uleb128 0x5
ARM GAS  /tmp/cc4zkXz1.s 			page 74


 2203 006c 49       		.uleb128 0x49
 2204 006d 13       		.uleb128 0x13
 2205 006e 38       		.uleb128 0x38
 2206 006f 0B       		.uleb128 0xb
 2207 0070 00       		.byte	0
 2208 0071 00       		.byte	0
 2209 0072 09       		.uleb128 0x9
 2210 0073 0F       		.uleb128 0xf
 2211 0074 00       		.byte	0
 2212 0075 0B       		.uleb128 0xb
 2213 0076 0B       		.uleb128 0xb
 2214 0077 49       		.uleb128 0x49
 2215 0078 13       		.uleb128 0x13
 2216 0079 00       		.byte	0
 2217 007a 00       		.byte	0
 2218 007b 0A       		.uleb128 0xa
 2219 007c 13       		.uleb128 0x13
 2220 007d 01       		.byte	0x1
 2221 007e 03       		.uleb128 0x3
 2222 007f 0E       		.uleb128 0xe
 2223 0080 0B       		.uleb128 0xb
 2224 0081 0B       		.uleb128 0xb
 2225 0082 3A       		.uleb128 0x3a
 2226 0083 0B       		.uleb128 0xb
 2227 0084 3B       		.uleb128 0x3b
 2228 0085 05       		.uleb128 0x5
 2229 0086 01       		.uleb128 0x1
 2230 0087 13       		.uleb128 0x13
 2231 0088 00       		.byte	0
 2232 0089 00       		.byte	0
 2233 008a 0B       		.uleb128 0xb
 2234 008b 15       		.uleb128 0x15
 2235 008c 01       		.byte	0x1
 2236 008d 27       		.uleb128 0x27
 2237 008e 19       		.uleb128 0x19
 2238 008f 01       		.uleb128 0x1
 2239 0090 13       		.uleb128 0x13
 2240 0091 00       		.byte	0
 2241 0092 00       		.byte	0
 2242 0093 0C       		.uleb128 0xc
 2243 0094 05       		.uleb128 0x5
 2244 0095 00       		.byte	0
 2245 0096 49       		.uleb128 0x49
 2246 0097 13       		.uleb128 0x13
 2247 0098 00       		.byte	0
 2248 0099 00       		.byte	0
 2249 009a 0D       		.uleb128 0xd
 2250 009b 0F       		.uleb128 0xf
 2251 009c 00       		.byte	0
 2252 009d 0B       		.uleb128 0xb
 2253 009e 0B       		.uleb128 0xb
 2254 009f 00       		.byte	0
 2255 00a0 00       		.byte	0
 2256 00a1 0E       		.uleb128 0xe
 2257 00a2 13       		.uleb128 0x13
 2258 00a3 01       		.byte	0x1
 2259 00a4 03       		.uleb128 0x3
ARM GAS  /tmp/cc4zkXz1.s 			page 75


 2260 00a5 0E       		.uleb128 0xe
 2261 00a6 0B       		.uleb128 0xb
 2262 00a7 05       		.uleb128 0x5
 2263 00a8 3A       		.uleb128 0x3a
 2264 00a9 0B       		.uleb128 0xb
 2265 00aa 3B       		.uleb128 0x3b
 2266 00ab 05       		.uleb128 0x5
 2267 00ac 01       		.uleb128 0x1
 2268 00ad 13       		.uleb128 0x13
 2269 00ae 00       		.byte	0
 2270 00af 00       		.byte	0
 2271 00b0 0F       		.uleb128 0xf
 2272 00b1 0D       		.uleb128 0xd
 2273 00b2 00       		.byte	0
 2274 00b3 03       		.uleb128 0x3
 2275 00b4 0E       		.uleb128 0xe
 2276 00b5 3A       		.uleb128 0x3a
 2277 00b6 0B       		.uleb128 0xb
 2278 00b7 3B       		.uleb128 0x3b
 2279 00b8 05       		.uleb128 0x5
 2280 00b9 49       		.uleb128 0x49
 2281 00ba 13       		.uleb128 0x13
 2282 00bb 38       		.uleb128 0x38
 2283 00bc 05       		.uleb128 0x5
 2284 00bd 00       		.byte	0
 2285 00be 00       		.byte	0
 2286 00bf 10       		.uleb128 0x10
 2287 00c0 0D       		.uleb128 0xd
 2288 00c1 00       		.byte	0
 2289 00c2 03       		.uleb128 0x3
 2290 00c3 08       		.uleb128 0x8
 2291 00c4 3A       		.uleb128 0x3a
 2292 00c5 0B       		.uleb128 0xb
 2293 00c6 3B       		.uleb128 0x3b
 2294 00c7 05       		.uleb128 0x5
 2295 00c8 49       		.uleb128 0x49
 2296 00c9 13       		.uleb128 0x13
 2297 00ca 38       		.uleb128 0x38
 2298 00cb 05       		.uleb128 0x5
 2299 00cc 00       		.byte	0
 2300 00cd 00       		.byte	0
 2301 00ce 11       		.uleb128 0x11
 2302 00cf 0D       		.uleb128 0xd
 2303 00d0 00       		.byte	0
 2304 00d1 03       		.uleb128 0x3
 2305 00d2 08       		.uleb128 0x8
 2306 00d3 3A       		.uleb128 0x3a
 2307 00d4 0B       		.uleb128 0xb
 2308 00d5 3B       		.uleb128 0x3b
 2309 00d6 0B       		.uleb128 0xb
 2310 00d7 49       		.uleb128 0x49
 2311 00d8 13       		.uleb128 0x13
 2312 00d9 38       		.uleb128 0x38
 2313 00da 0B       		.uleb128 0xb
 2314 00db 00       		.byte	0
 2315 00dc 00       		.byte	0
 2316 00dd 12       		.uleb128 0x12
ARM GAS  /tmp/cc4zkXz1.s 			page 76


 2317 00de 13       		.uleb128 0x13
 2318 00df 01       		.byte	0x1
 2319 00e0 0B       		.uleb128 0xb
 2320 00e1 0B       		.uleb128 0xb
 2321 00e2 3A       		.uleb128 0x3a
 2322 00e3 0B       		.uleb128 0xb
 2323 00e4 3B       		.uleb128 0x3b
 2324 00e5 0B       		.uleb128 0xb
 2325 00e6 01       		.uleb128 0x1
 2326 00e7 13       		.uleb128 0x13
 2327 00e8 00       		.byte	0
 2328 00e9 00       		.byte	0
 2329 00ea 13       		.uleb128 0x13
 2330 00eb 13       		.uleb128 0x13
 2331 00ec 01       		.byte	0x1
 2332 00ed 0B       		.uleb128 0xb
 2333 00ee 05       		.uleb128 0x5
 2334 00ef 3A       		.uleb128 0x3a
 2335 00f0 0B       		.uleb128 0xb
 2336 00f1 3B       		.uleb128 0x3b
 2337 00f2 0B       		.uleb128 0xb
 2338 00f3 01       		.uleb128 0x1
 2339 00f4 13       		.uleb128 0x13
 2340 00f5 00       		.byte	0
 2341 00f6 00       		.byte	0
 2342 00f7 14       		.uleb128 0x14
 2343 00f8 01       		.uleb128 0x1
 2344 00f9 01       		.byte	0x1
 2345 00fa 49       		.uleb128 0x49
 2346 00fb 13       		.uleb128 0x13
 2347 00fc 01       		.uleb128 0x1
 2348 00fd 13       		.uleb128 0x13
 2349 00fe 00       		.byte	0
 2350 00ff 00       		.byte	0
 2351 0100 15       		.uleb128 0x15
 2352 0101 21       		.uleb128 0x21
 2353 0102 00       		.byte	0
 2354 0103 49       		.uleb128 0x49
 2355 0104 13       		.uleb128 0x13
 2356 0105 2F       		.uleb128 0x2f
 2357 0106 0B       		.uleb128 0xb
 2358 0107 00       		.byte	0
 2359 0108 00       		.byte	0
 2360 0109 16       		.uleb128 0x16
 2361 010a 17       		.uleb128 0x17
 2362 010b 01       		.byte	0x1
 2363 010c 0B       		.uleb128 0xb
 2364 010d 0B       		.uleb128 0xb
 2365 010e 3A       		.uleb128 0x3a
 2366 010f 0B       		.uleb128 0xb
 2367 0110 3B       		.uleb128 0x3b
 2368 0111 0B       		.uleb128 0xb
 2369 0112 01       		.uleb128 0x1
 2370 0113 13       		.uleb128 0x13
 2371 0114 00       		.byte	0
 2372 0115 00       		.byte	0
 2373 0116 17       		.uleb128 0x17
ARM GAS  /tmp/cc4zkXz1.s 			page 77


 2374 0117 0D       		.uleb128 0xd
 2375 0118 00       		.byte	0
 2376 0119 03       		.uleb128 0x3
 2377 011a 0E       		.uleb128 0xe
 2378 011b 3A       		.uleb128 0x3a
 2379 011c 0B       		.uleb128 0xb
 2380 011d 3B       		.uleb128 0x3b
 2381 011e 05       		.uleb128 0x5
 2382 011f 49       		.uleb128 0x49
 2383 0120 13       		.uleb128 0x13
 2384 0121 00       		.byte	0
 2385 0122 00       		.byte	0
 2386 0123 18       		.uleb128 0x18
 2387 0124 26       		.uleb128 0x26
 2388 0125 00       		.byte	0
 2389 0126 49       		.uleb128 0x49
 2390 0127 13       		.uleb128 0x13
 2391 0128 00       		.byte	0
 2392 0129 00       		.byte	0
 2393 012a 19       		.uleb128 0x19
 2394 012b 35       		.uleb128 0x35
 2395 012c 00       		.byte	0
 2396 012d 49       		.uleb128 0x49
 2397 012e 13       		.uleb128 0x13
 2398 012f 00       		.byte	0
 2399 0130 00       		.byte	0
 2400 0131 1A       		.uleb128 0x1a
 2401 0132 2E       		.uleb128 0x2e
 2402 0133 01       		.byte	0x1
 2403 0134 03       		.uleb128 0x3
 2404 0135 0E       		.uleb128 0xe
 2405 0136 3A       		.uleb128 0x3a
 2406 0137 0B       		.uleb128 0xb
 2407 0138 3B       		.uleb128 0x3b
 2408 0139 05       		.uleb128 0x5
 2409 013a 27       		.uleb128 0x27
 2410 013b 19       		.uleb128 0x19
 2411 013c 20       		.uleb128 0x20
 2412 013d 0B       		.uleb128 0xb
 2413 013e 01       		.uleb128 0x1
 2414 013f 13       		.uleb128 0x13
 2415 0140 00       		.byte	0
 2416 0141 00       		.byte	0
 2417 0142 1B       		.uleb128 0x1b
 2418 0143 05       		.uleb128 0x5
 2419 0144 00       		.byte	0
 2420 0145 03       		.uleb128 0x3
 2421 0146 0E       		.uleb128 0xe
 2422 0147 3A       		.uleb128 0x3a
 2423 0148 0B       		.uleb128 0xb
 2424 0149 3B       		.uleb128 0x3b
 2425 014a 05       		.uleb128 0x5
 2426 014b 49       		.uleb128 0x49
 2427 014c 13       		.uleb128 0x13
 2428 014d 00       		.byte	0
 2429 014e 00       		.byte	0
 2430 014f 1C       		.uleb128 0x1c
ARM GAS  /tmp/cc4zkXz1.s 			page 78


 2431 0150 2E       		.uleb128 0x2e
 2432 0151 01       		.byte	0x1
 2433 0152 03       		.uleb128 0x3
 2434 0153 0E       		.uleb128 0xe
 2435 0154 3A       		.uleb128 0x3a
 2436 0155 0B       		.uleb128 0xb
 2437 0156 3B       		.uleb128 0x3b
 2438 0157 05       		.uleb128 0x5
 2439 0158 27       		.uleb128 0x27
 2440 0159 19       		.uleb128 0x19
 2441 015a 11       		.uleb128 0x11
 2442 015b 01       		.uleb128 0x1
 2443 015c 12       		.uleb128 0x12
 2444 015d 06       		.uleb128 0x6
 2445 015e 40       		.uleb128 0x40
 2446 015f 18       		.uleb128 0x18
 2447 0160 9742     		.uleb128 0x2117
 2448 0162 19       		.uleb128 0x19
 2449 0163 01       		.uleb128 0x1
 2450 0164 13       		.uleb128 0x13
 2451 0165 00       		.byte	0
 2452 0166 00       		.byte	0
 2453 0167 1D       		.uleb128 0x1d
 2454 0168 1D       		.uleb128 0x1d
 2455 0169 01       		.byte	0x1
 2456 016a 31       		.uleb128 0x31
 2457 016b 13       		.uleb128 0x13
 2458 016c 11       		.uleb128 0x11
 2459 016d 01       		.uleb128 0x1
 2460 016e 12       		.uleb128 0x12
 2461 016f 06       		.uleb128 0x6
 2462 0170 58       		.uleb128 0x58
 2463 0171 0B       		.uleb128 0xb
 2464 0172 59       		.uleb128 0x59
 2465 0173 05       		.uleb128 0x5
 2466 0174 00       		.byte	0
 2467 0175 00       		.byte	0
 2468 0176 1E       		.uleb128 0x1e
 2469 0177 05       		.uleb128 0x5
 2470 0178 00       		.byte	0
 2471 0179 31       		.uleb128 0x31
 2472 017a 13       		.uleb128 0x13
 2473 017b 02       		.uleb128 0x2
 2474 017c 18       		.uleb128 0x18
 2475 017d 00       		.byte	0
 2476 017e 00       		.byte	0
 2477 017f 1F       		.uleb128 0x1f
 2478 0180 2E       		.uleb128 0x2e
 2479 0181 00       		.byte	0
 2480 0182 03       		.uleb128 0x3
 2481 0183 0E       		.uleb128 0xe
 2482 0184 3A       		.uleb128 0x3a
 2483 0185 0B       		.uleb128 0xb
 2484 0186 3B       		.uleb128 0x3b
 2485 0187 05       		.uleb128 0x5
 2486 0188 27       		.uleb128 0x27
 2487 0189 19       		.uleb128 0x19
ARM GAS  /tmp/cc4zkXz1.s 			page 79


 2488 018a 11       		.uleb128 0x11
 2489 018b 01       		.uleb128 0x1
 2490 018c 12       		.uleb128 0x12
 2491 018d 06       		.uleb128 0x6
 2492 018e 40       		.uleb128 0x40
 2493 018f 18       		.uleb128 0x18
 2494 0190 9642     		.uleb128 0x2116
 2495 0192 19       		.uleb128 0x19
 2496 0193 00       		.byte	0
 2497 0194 00       		.byte	0
 2498 0195 20       		.uleb128 0x20
 2499 0196 2E       		.uleb128 0x2e
 2500 0197 01       		.byte	0x1
 2501 0198 03       		.uleb128 0x3
 2502 0199 0E       		.uleb128 0xe
 2503 019a 3A       		.uleb128 0x3a
 2504 019b 0B       		.uleb128 0xb
 2505 019c 3B       		.uleb128 0x3b
 2506 019d 05       		.uleb128 0x5
 2507 019e 27       		.uleb128 0x27
 2508 019f 19       		.uleb128 0x19
 2509 01a0 11       		.uleb128 0x11
 2510 01a1 01       		.uleb128 0x1
 2511 01a2 12       		.uleb128 0x12
 2512 01a3 06       		.uleb128 0x6
 2513 01a4 40       		.uleb128 0x40
 2514 01a5 18       		.uleb128 0x18
 2515 01a6 9642     		.uleb128 0x2116
 2516 01a8 19       		.uleb128 0x19
 2517 01a9 01       		.uleb128 0x1
 2518 01aa 13       		.uleb128 0x13
 2519 01ab 00       		.byte	0
 2520 01ac 00       		.byte	0
 2521 01ad 21       		.uleb128 0x21
 2522 01ae 34       		.uleb128 0x34
 2523 01af 00       		.byte	0
 2524 01b0 03       		.uleb128 0x3
 2525 01b1 0E       		.uleb128 0xe
 2526 01b2 49       		.uleb128 0x49
 2527 01b3 13       		.uleb128 0x13
 2528 01b4 34       		.uleb128 0x34
 2529 01b5 19       		.uleb128 0x19
 2530 01b6 02       		.uleb128 0x2
 2531 01b7 18       		.uleb128 0x18
 2532 01b8 00       		.byte	0
 2533 01b9 00       		.byte	0
 2534 01ba 22       		.uleb128 0x22
 2535 01bb 2E       		.uleb128 0x2e
 2536 01bc 01       		.byte	0x1
 2537 01bd 3F       		.uleb128 0x3f
 2538 01be 19       		.uleb128 0x19
 2539 01bf 03       		.uleb128 0x3
 2540 01c0 0E       		.uleb128 0xe
 2541 01c1 3A       		.uleb128 0x3a
 2542 01c2 0B       		.uleb128 0xb
 2543 01c3 3B       		.uleb128 0x3b
 2544 01c4 0B       		.uleb128 0xb
ARM GAS  /tmp/cc4zkXz1.s 			page 80


 2545 01c5 27       		.uleb128 0x27
 2546 01c6 19       		.uleb128 0x19
 2547 01c7 11       		.uleb128 0x11
 2548 01c8 01       		.uleb128 0x1
 2549 01c9 12       		.uleb128 0x12
 2550 01ca 06       		.uleb128 0x6
 2551 01cb 40       		.uleb128 0x40
 2552 01cc 18       		.uleb128 0x18
 2553 01cd 9742     		.uleb128 0x2117
 2554 01cf 19       		.uleb128 0x19
 2555 01d0 01       		.uleb128 0x1
 2556 01d1 13       		.uleb128 0x13
 2557 01d2 00       		.byte	0
 2558 01d3 00       		.byte	0
 2559 01d4 23       		.uleb128 0x23
 2560 01d5 34       		.uleb128 0x34
 2561 01d6 00       		.byte	0
 2562 01d7 03       		.uleb128 0x3
 2563 01d8 0E       		.uleb128 0xe
 2564 01d9 3A       		.uleb128 0x3a
 2565 01da 0B       		.uleb128 0xb
 2566 01db 3B       		.uleb128 0x3b
 2567 01dc 0B       		.uleb128 0xb
 2568 01dd 49       		.uleb128 0x49
 2569 01de 13       		.uleb128 0x13
 2570 01df 3F       		.uleb128 0x3f
 2571 01e0 19       		.uleb128 0x19
 2572 01e1 3C       		.uleb128 0x3c
 2573 01e2 19       		.uleb128 0x19
 2574 01e3 00       		.byte	0
 2575 01e4 00       		.byte	0
 2576 01e5 24       		.uleb128 0x24
 2577 01e6 21       		.uleb128 0x21
 2578 01e7 00       		.byte	0
 2579 01e8 00       		.byte	0
 2580 01e9 00       		.byte	0
 2581 01ea 25       		.uleb128 0x25
 2582 01eb 2E       		.uleb128 0x2e
 2583 01ec 01       		.byte	0x1
 2584 01ed 3F       		.uleb128 0x3f
 2585 01ee 19       		.uleb128 0x19
 2586 01ef 03       		.uleb128 0x3
 2587 01f0 0E       		.uleb128 0xe
 2588 01f1 3A       		.uleb128 0x3a
 2589 01f2 0B       		.uleb128 0xb
 2590 01f3 3B       		.uleb128 0x3b
 2591 01f4 0B       		.uleb128 0xb
 2592 01f5 27       		.uleb128 0x27
 2593 01f6 19       		.uleb128 0x19
 2594 01f7 49       		.uleb128 0x49
 2595 01f8 13       		.uleb128 0x13
 2596 01f9 11       		.uleb128 0x11
 2597 01fa 01       		.uleb128 0x1
 2598 01fb 12       		.uleb128 0x12
 2599 01fc 06       		.uleb128 0x6
 2600 01fd 40       		.uleb128 0x40
 2601 01fe 18       		.uleb128 0x18
ARM GAS  /tmp/cc4zkXz1.s 			page 81


 2602 01ff 9642     		.uleb128 0x2116
 2603 0201 19       		.uleb128 0x19
 2604 0202 01       		.uleb128 0x1
 2605 0203 13       		.uleb128 0x13
 2606 0204 00       		.byte	0
 2607 0205 00       		.byte	0
 2608 0206 26       		.uleb128 0x26
 2609 0207 05       		.uleb128 0x5
 2610 0208 00       		.byte	0
 2611 0209 03       		.uleb128 0x3
 2612 020a 0E       		.uleb128 0xe
 2613 020b 3A       		.uleb128 0x3a
 2614 020c 0B       		.uleb128 0xb
 2615 020d 3B       		.uleb128 0x3b
 2616 020e 0B       		.uleb128 0xb
 2617 020f 49       		.uleb128 0x49
 2618 0210 13       		.uleb128 0x13
 2619 0211 02       		.uleb128 0x2
 2620 0212 18       		.uleb128 0x18
 2621 0213 00       		.byte	0
 2622 0214 00       		.byte	0
 2623 0215 27       		.uleb128 0x27
 2624 0216 34       		.uleb128 0x34
 2625 0217 00       		.byte	0
 2626 0218 03       		.uleb128 0x3
 2627 0219 08       		.uleb128 0x8
 2628 021a 3A       		.uleb128 0x3a
 2629 021b 0B       		.uleb128 0xb
 2630 021c 3B       		.uleb128 0x3b
 2631 021d 0B       		.uleb128 0xb
 2632 021e 49       		.uleb128 0x49
 2633 021f 13       		.uleb128 0x13
 2634 0220 02       		.uleb128 0x2
 2635 0221 18       		.uleb128 0x18
 2636 0222 00       		.byte	0
 2637 0223 00       		.byte	0
 2638 0224 28       		.uleb128 0x28
 2639 0225 2E       		.uleb128 0x2e
 2640 0226 00       		.byte	0
 2641 0227 3F       		.uleb128 0x3f
 2642 0228 19       		.uleb128 0x19
 2643 0229 03       		.uleb128 0x3
 2644 022a 0E       		.uleb128 0xe
 2645 022b 3A       		.uleb128 0x3a
 2646 022c 0B       		.uleb128 0xb
 2647 022d 3B       		.uleb128 0x3b
 2648 022e 0B       		.uleb128 0xb
 2649 022f 27       		.uleb128 0x27
 2650 0230 19       		.uleb128 0x19
 2651 0231 49       		.uleb128 0x49
 2652 0232 13       		.uleb128 0x13
 2653 0233 11       		.uleb128 0x11
 2654 0234 01       		.uleb128 0x1
 2655 0235 12       		.uleb128 0x12
 2656 0236 06       		.uleb128 0x6
 2657 0237 40       		.uleb128 0x40
 2658 0238 18       		.uleb128 0x18
ARM GAS  /tmp/cc4zkXz1.s 			page 82


 2659 0239 9742     		.uleb128 0x2117
 2660 023b 19       		.uleb128 0x19
 2661 023c 00       		.byte	0
 2662 023d 00       		.byte	0
 2663 023e 29       		.uleb128 0x29
 2664 023f 34       		.uleb128 0x34
 2665 0240 00       		.byte	0
 2666 0241 03       		.uleb128 0x3
 2667 0242 0E       		.uleb128 0xe
 2668 0243 3A       		.uleb128 0x3a
 2669 0244 0B       		.uleb128 0xb
 2670 0245 3B       		.uleb128 0x3b
 2671 0246 0B       		.uleb128 0xb
 2672 0247 49       		.uleb128 0x49
 2673 0248 13       		.uleb128 0x13
 2674 0249 02       		.uleb128 0x2
 2675 024a 18       		.uleb128 0x18
 2676 024b 00       		.byte	0
 2677 024c 00       		.byte	0
 2678 024d 2A       		.uleb128 0x2a
 2679 024e 34       		.uleb128 0x34
 2680 024f 00       		.byte	0
 2681 0250 03       		.uleb128 0x3
 2682 0251 0E       		.uleb128 0xe
 2683 0252 3A       		.uleb128 0x3a
 2684 0253 0B       		.uleb128 0xb
 2685 0254 3B       		.uleb128 0x3b
 2686 0255 05       		.uleb128 0x5
 2687 0256 49       		.uleb128 0x49
 2688 0257 13       		.uleb128 0x13
 2689 0258 3F       		.uleb128 0x3f
 2690 0259 19       		.uleb128 0x19
 2691 025a 3C       		.uleb128 0x3c
 2692 025b 19       		.uleb128 0x19
 2693 025c 00       		.byte	0
 2694 025d 00       		.byte	0
 2695 025e 2B       		.uleb128 0x2b
 2696 025f 34       		.uleb128 0x34
 2697 0260 00       		.byte	0
 2698 0261 03       		.uleb128 0x3
 2699 0262 08       		.uleb128 0x8
 2700 0263 3A       		.uleb128 0x3a
 2701 0264 0B       		.uleb128 0xb
 2702 0265 3B       		.uleb128 0x3b
 2703 0266 05       		.uleb128 0x5
 2704 0267 49       		.uleb128 0x49
 2705 0268 13       		.uleb128 0x13
 2706 0269 3F       		.uleb128 0x3f
 2707 026a 19       		.uleb128 0x19
 2708 026b 3C       		.uleb128 0x3c
 2709 026c 19       		.uleb128 0x19
 2710 026d 00       		.byte	0
 2711 026e 00       		.byte	0
 2712 026f 00       		.byte	0
 2713              		.section	.debug_aranges,"",%progbits
 2714 0000 54000000 		.4byte	0x54
 2715 0004 0200     		.2byte	0x2
ARM GAS  /tmp/cc4zkXz1.s 			page 83


 2716 0006 00000000 		.4byte	.Ldebug_info0
 2717 000a 04       		.byte	0x4
 2718 000b 00       		.byte	0
 2719 000c 0000     		.2byte	0
 2720 000e 0000     		.2byte	0
 2721 0010 00000000 		.4byte	.LFB127
 2722 0014 10000000 		.4byte	.LFE127-.LFB127
 2723 0018 00000000 		.4byte	.LFB128
 2724 001c 10000000 		.4byte	.LFE128-.LFB128
 2725 0020 00000000 		.4byte	.LFB167
 2726 0024 10000000 		.4byte	.LFE167-.LFB167
 2727 0028 00000000 		.4byte	.LFB168
 2728 002c 4E000000 		.4byte	.LFE168-.LFB168
 2729 0030 00000000 		.4byte	.LFB241
 2730 0034 34000000 		.4byte	.LFE241-.LFB241
 2731 0038 00000000 		.4byte	.LFB242
 2732 003c 20000000 		.4byte	.LFE242-.LFB242
 2733 0040 00000000 		.4byte	.LFB243
 2734 0044 66000000 		.4byte	.LFE243-.LFB243
 2735 0048 00000000 		.4byte	.LFB244
 2736 004c 1C000000 		.4byte	.LFE244-.LFB244
 2737 0050 00000000 		.4byte	0
 2738 0054 00000000 		.4byte	0
 2739              		.section	.debug_ranges,"",%progbits
 2740              	.Ldebug_ranges0:
 2741 0000 00000000 		.4byte	.LFB127
 2742 0004 10000000 		.4byte	.LFE127
 2743 0008 00000000 		.4byte	.LFB128
 2744 000c 10000000 		.4byte	.LFE128
 2745 0010 00000000 		.4byte	.LFB167
 2746 0014 10000000 		.4byte	.LFE167
 2747 0018 00000000 		.4byte	.LFB168
 2748 001c 4E000000 		.4byte	.LFE168
 2749 0020 00000000 		.4byte	.LFB241
 2750 0024 34000000 		.4byte	.LFE241
 2751 0028 00000000 		.4byte	.LFB242
 2752 002c 20000000 		.4byte	.LFE242
 2753 0030 00000000 		.4byte	.LFB243
 2754 0034 66000000 		.4byte	.LFE243
 2755 0038 00000000 		.4byte	.LFB244
 2756 003c 1C000000 		.4byte	.LFE244
 2757 0040 00000000 		.4byte	0
 2758 0044 00000000 		.4byte	0
 2759              		.section	.debug_line,"",%progbits
 2760              	.Ldebug_line0:
 2761 0000 E3020000 		.section	.debug_str,"MS",%progbits,1
 2761      02001502 
 2761      00000201 
 2761      FB0E0D00 
 2761      01010101 
 2762              	.LASF138:
 2763 0000 656E646D 		.ascii	"endmem\000"
 2763      656D00
 2764              	.LASF55:
 2765 0007 72656164 		.ascii	"ready_list_t\000"
 2765      795F6C69 
 2765      73745F74 
ARM GAS  /tmp/cc4zkXz1.s 			page 84


 2765      00
 2766              	.LASF92:
 2767 0014 73655F74 		.ascii	"se_time\000"
 2767      696D6500 
 2768              	.LASF2:
 2769 001c 73697A65 		.ascii	"size_t\000"
 2769      5F7400
 2770              	.LASF113:
 2771 0023 7264796D 		.ascii	"rdymsg\000"
 2771      736700
 2772              	.LASF17:
 2773 002a 75696E74 		.ascii	"uint64_t\000"
 2773      36345F74 
 2773      00
 2774              	.LASF85:
 2775 0033 6B65726E 		.ascii	"kernel_stats\000"
 2775      656C5F73 
 2775      74617473 
 2775      00
 2776              	.LASF134:
 2777 0040 6368436F 		.ascii	"chCoreAlloc\000"
 2777      7265416C 
 2777      6C6F6300 
 2778              	.LASF3:
 2779 004c 5F5F7569 		.ascii	"__uint8_t\000"
 2779      6E74385F 
 2779      7400
 2780              	.LASF91:
 2781 0056 706F7274 		.ascii	"port_intctx\000"
 2781      5F696E74 
 2781      63747800 
 2782              	.LASF54:
 2783 0062 63685F74 		.ascii	"ch_threads_queue\000"
 2783      68726561 
 2783      64735F71 
 2783      75657565 
 2783      00
 2784              	.LASF74:
 2785 0073 73797374 		.ascii	"system_debug_t\000"
 2785      656D5F64 
 2785      65627567 
 2785      5F7400
 2786              	.LASF129:
 2787 0082 706F7274 		.ascii	"port_lock\000"
 2787      5F6C6F63 
 2787      6B00
 2788              	.LASF104:
 2789 008c 776F7273 		.ascii	"worst\000"
 2789      7400
 2790              	.LASF107:
 2791 0092 74696D65 		.ascii	"time_measurement_t\000"
 2791      5F6D6561 
 2791      73757265 
 2791      6D656E74 
 2791      5F7400
 2792              	.LASF13:
 2793 00a5 6C6F6E67 		.ascii	"long long unsigned int\000"
ARM GAS  /tmp/cc4zkXz1.s 			page 85


 2793      206C6F6E 
 2793      6720756E 
 2793      7369676E 
 2793      65642069 
 2794              	.LASF100:
 2795 00bc 63685F74 		.ascii	"ch_trace_buffer_t\000"
 2795      72616365 
 2795      5F627566 
 2795      6665725F 
 2795      7400
 2796              	.LASF95:
 2797 00ce 73655F73 		.ascii	"se_state\000"
 2797      74617465 
 2797      00
 2798              	.LASF114:
 2799 00d7 65786974 		.ascii	"exitcode\000"
 2799      636F6465 
 2799      00
 2800              	.LASF84:
 2801 00e0 6D61696E 		.ascii	"mainthread\000"
 2801      74687265 
 2801      616400
 2802              	.LASF71:
 2803 00eb 76697274 		.ascii	"virtual_timers_list_t\000"
 2803      75616C5F 
 2803      74696D65 
 2803      72735F6C 
 2803      6973745F 
 2804              	.LASF139:
 2805 0101 49544D5F 		.ascii	"ITM_RxBuffer\000"
 2805      52784275 
 2805      66666572 
 2805      00
 2806              	.LASF19:
 2807 010e 72747469 		.ascii	"rttime_t\000"
 2807      6D655F74 
 2807      00
 2808              	.LASF32:
 2809 0117 705F7072 		.ascii	"p_prio\000"
 2809      696F00
 2810              	.LASF128:
 2811 011e 6D757465 		.ascii	"mutex_t\000"
 2811      785F7400 
 2812              	.LASF11:
 2813 0126 6C6F6E67 		.ascii	"long long int\000"
 2813      206C6F6E 
 2813      6720696E 
 2813      7400
 2814              	.LASF1:
 2815 0134 7369676E 		.ascii	"signed char\000"
 2815      65642063 
 2815      68617200 
 2816              	.LASF142:
 2817 0140 2F686F6D 		.ascii	"/home/jerker/git/AutoTux/stm32\000"
 2817      652F6A65 
 2817      726B6572 
 2817      2F676974 
ARM GAS  /tmp/cc4zkXz1.s 			page 86


 2817      2F417574 
 2818              	.LASF47:
 2819 015f 705F6D70 		.ascii	"p_mpool\000"
 2819      6F6F6C00 
 2820              	.LASF124:
 2821 0167 6D5F7175 		.ascii	"m_queue\000"
 2821      65756500 
 2822              	.LASF83:
 2823 016f 76746C69 		.ascii	"vtlist\000"
 2823      737400
 2824              	.LASF130:
 2825 0176 706F7274 		.ascii	"port_unlock\000"
 2825      5F756E6C 
 2825      6F636B00 
 2826              	.LASF148:
 2827 0182 6368436F 		.ascii	"chCoreGetStatusX\000"
 2827      72654765 
 2827      74537461 
 2827      74757358 
 2827      00
 2828              	.LASF116:
 2829 0193 77747472 		.ascii	"wttrp\000"
 2829      7000
 2830              	.LASF81:
 2831 0199 63685F73 		.ascii	"ch_system\000"
 2831      79737465 
 2831      6D00
 2832              	.LASF8:
 2833 01a3 6C6F6E67 		.ascii	"long int\000"
 2833      20696E74 
 2833      00
 2834              	.LASF21:
 2835 01ac 74737461 		.ascii	"tstate_t\000"
 2835      74655F74 
 2835      00
 2836              	.LASF93:
 2837 01b5 73655F74 		.ascii	"se_tp\000"
 2837      7000
 2838              	.LASF34:
 2839 01bb 705F6E65 		.ascii	"p_newer\000"
 2839      77657200 
 2840              	.LASF121:
 2841 01c3 735F7175 		.ascii	"s_queue\000"
 2841      65756500 
 2842              	.LASF135:
 2843 01cb 6368436F 		.ascii	"chCoreAllocI\000"
 2843      7265416C 
 2843      6C6F6349 
 2843      00
 2844              	.LASF97:
 2845 01d8 74625F73 		.ascii	"tb_size\000"
 2845      697A6500 
 2846              	.LASF60:
 2847 01e0 725F6E65 		.ascii	"r_newer\000"
 2847      77657200 
 2848              	.LASF88:
 2849 01e8 72656761 		.ascii	"regarm_t\000"
ARM GAS  /tmp/cc4zkXz1.s 			page 87


 2849      726D5F74 
 2849      00
 2850              	.LASF67:
 2851 01f1 76745F70 		.ascii	"vt_prev\000"
 2851      72657600 
 2852              	.LASF75:
 2853 01f9 63685F73 		.ascii	"ch_system_debug\000"
 2853      79737465 
 2853      6D5F6465 
 2853      62756700 
 2854              	.LASF66:
 2855 0209 76745F6E 		.ascii	"vt_next\000"
 2855      65787400 
 2856              	.LASF144:
 2857 0211 76616C75 		.ascii	"value\000"
 2857      6500
 2858              	.LASF78:
 2859 0217 6C6F636B 		.ascii	"lock_cnt\000"
 2859      5F636E74 
 2859      00
 2860              	.LASF86:
 2861 0220 69646C65 		.ascii	"idle_thread_wa\000"
 2861      5F746872 
 2861      6561645F 
 2861      776100
 2862              	.LASF26:
 2863 022f 636E745F 		.ascii	"cnt_t\000"
 2863      7400
 2864              	.LASF37:
 2865 0235 705F7374 		.ascii	"p_stklimit\000"
 2865      6B6C696D 
 2865      697400
 2866              	.LASF0:
 2867 0240 756E7369 		.ascii	"unsigned int\000"
 2867      676E6564 
 2867      20696E74 
 2867      00
 2868              	.LASF141:
 2869 024d 6C69622F 		.ascii	"lib/ChibiOS_16.1.4//os/rt/src/chmemcore.c\000"
 2869      43686962 
 2869      694F535F 
 2869      31362E31 
 2869      2E342F2F 
 2870              	.LASF117:
 2871 0277 77747365 		.ascii	"wtsemp\000"
 2871      6D7000
 2872              	.LASF42:
 2873 027e 705F6D73 		.ascii	"p_msgqueue\000"
 2873      67717565 
 2873      756500
 2874              	.LASF108:
 2875 0289 6E5F6972 		.ascii	"n_irq\000"
 2875      7100
 2876              	.LASF122:
 2877 028f 735F636E 		.ascii	"s_cnt\000"
 2877      7400
 2878              	.LASF6:
ARM GAS  /tmp/cc4zkXz1.s 			page 88


 2879 0295 73686F72 		.ascii	"short unsigned int\000"
 2879      7420756E 
 2879      7369676E 
 2879      65642069 
 2879      6E7400
 2880              	.LASF112:
 2881 02a8 6B65726E 		.ascii	"kernel_stats_t\000"
 2881      656C5F73 
 2881      74617473 
 2881      5F7400
 2882              	.LASF51:
 2883 02b7 63685F74 		.ascii	"ch_thread\000"
 2883      68726561 
 2883      6400
 2884              	.LASF24:
 2885 02c1 6D73675F 		.ascii	"msg_t\000"
 2885      7400
 2886              	.LASF105:
 2887 02c7 6C617374 		.ascii	"last\000"
 2887      00
 2888              	.LASF27:
 2889 02cc 75636E74 		.ascii	"ucnt_t\000"
 2889      5F7400
 2890              	.LASF80:
 2891 02d3 63685F73 		.ascii	"ch_system_t\000"
 2891      79737465 
 2891      6D5F7400 
 2892              	.LASF140:
 2893 02df 474E5520 		.ascii	"GNU C 4.8.2 -mcpu=cortex-m4 -mno-thumb-interwork -m"
 2893      4320342E 
 2893      382E3220 
 2893      2D6D6370 
 2893      753D636F 
 2894 0312 7468756D 		.ascii	"thumb -ggdb -O0 -fomit-frame-pointer -falign-functi"
 2894      62202D67 
 2894      67646220 
 2894      2D4F3020 
 2894      2D666F6D 
 2895 0345 6F6E733D 		.ascii	"ons=16 -ffunction-sections -fdata-sections -fno-com"
 2895      3136202D 
 2895      6666756E 
 2895      6374696F 
 2895      6E2D7365 
 2896 0378 6D6F6E20 		.ascii	"mon -flto\000"
 2896      2D666C74 
 2896      6F00
 2897              	.LASF20:
 2898 0382 746D6F64 		.ascii	"tmode_t\000"
 2898      655F7400 
 2899              	.LASF111:
 2900 038a 6D5F6372 		.ascii	"m_crit_isr\000"
 2900      69745F69 
 2900      737200
 2901              	.LASF56:
 2902 0395 63685F72 		.ascii	"ch_ready_list\000"
 2902      65616479 
 2902      5F6C6973 
ARM GAS  /tmp/cc4zkXz1.s 			page 89


 2902      7400
 2903              	.LASF25:
 2904 03a3 6576656E 		.ascii	"eventmask_t\000"
 2904      746D6173 
 2904      6B5F7400 
 2905              	.LASF7:
 2906 03af 5F5F696E 		.ascii	"__int32_t\000"
 2906      7433325F 
 2906      7400
 2907              	.LASF89:
 2908 03b9 73746B61 		.ascii	"stkalign_t\000"
 2908      6C69676E 
 2908      5F7400
 2909              	.LASF41:
 2910 03c4 705F7761 		.ascii	"p_waiting\000"
 2910      6974696E 
 2910      6700
 2911              	.LASF87:
 2912 03ce 73697A65 		.ascii	"sizetype\000"
 2912      74797065 
 2912      00
 2913              	.LASF49:
 2914 03d7 74687265 		.ascii	"thread_reference_t\000"
 2914      61645F72 
 2914      65666572 
 2914      656E6365 
 2914      5F7400
 2915              	.LASF72:
 2916 03ea 63685F76 		.ascii	"ch_virtual_timers_list\000"
 2916      69727475 
 2916      616C5F74 
 2916      696D6572 
 2916      735F6C69 
 2917              	.LASF98:
 2918 0401 74625F70 		.ascii	"tb_ptr\000"
 2918      747200
 2919              	.LASF96:
 2920 0408 63685F73 		.ascii	"ch_swc_event_t\000"
 2920      77635F65 
 2920      76656E74 
 2920      5F7400
 2921              	.LASF73:
 2922 0417 76745F6C 		.ascii	"vt_lasttime\000"
 2922      61737474 
 2922      696D6500 
 2923              	.LASF35:
 2924 0423 705F6F6C 		.ascii	"p_older\000"
 2924      64657200 
 2925              	.LASF59:
 2926 042b 725F6374 		.ascii	"r_ctx\000"
 2926      7800
 2927              	.LASF102:
 2928 0431 746D5F63 		.ascii	"tm_calibration_t\000"
 2928      616C6962 
 2928      72617469 
 2928      6F6E5F74 
 2928      00
ARM GAS  /tmp/cc4zkXz1.s 			page 90


 2929              	.LASF62:
 2930 0442 725F6375 		.ascii	"r_current\000"
 2930      7272656E 
 2930      7400
 2931              	.LASF61:
 2932 044c 725F6F6C 		.ascii	"r_older\000"
 2932      64657200 
 2933              	.LASF12:
 2934 0454 5F5F7569 		.ascii	"__uint64_t\000"
 2934      6E743634 
 2934      5F7400
 2935              	.LASF106:
 2936 045f 63756D75 		.ascii	"cumulative\000"
 2936      6C617469 
 2936      766500
 2937              	.LASF146:
 2938 046a 5F5F6675 		.ascii	"__func__.5915\000"
 2938      6E635F5F 
 2938      2E353931 
 2938      3500
 2939              	.LASF22:
 2940 0478 74726566 		.ascii	"trefs_t\000"
 2940      735F7400 
 2941              	.LASF99:
 2942 0480 74625F62 		.ascii	"tb_buffer\000"
 2942      75666665 
 2942      7200
 2943              	.LASF64:
 2944 048a 76697274 		.ascii	"virtual_timer_t\000"
 2944      75616C5F 
 2944      74696D65 
 2944      725F7400 
 2945              	.LASF31:
 2946 049a 705F7072 		.ascii	"p_prev\000"
 2946      657600
 2947              	.LASF23:
 2948 04a1 74707269 		.ascii	"tprio_t\000"
 2948      6F5F7400 
 2949              	.LASF109:
 2950 04a9 6E5F6374 		.ascii	"n_ctxswc\000"
 2950      78737763 
 2950      00
 2951              	.LASF15:
 2952 04b2 696E7433 		.ascii	"int32_t\000"
 2952      325F7400 
 2953              	.LASF4:
 2954 04ba 756E7369 		.ascii	"unsigned char\000"
 2954      676E6564 
 2954      20636861 
 2954      7200
 2955              	.LASF147:
 2956 04c8 5F636F72 		.ascii	"_core_init\000"
 2956      655F696E 
 2956      697400
 2957              	.LASF45:
 2958 04d3 705F6D74 		.ascii	"p_mtxlist\000"
 2958      786C6973 
ARM GAS  /tmp/cc4zkXz1.s 			page 91


 2958      7400
 2959              	.LASF5:
 2960 04dd 73686F72 		.ascii	"short int\000"
 2960      7420696E 
 2960      7400
 2961              	.LASF38:
 2962 04e7 705F7374 		.ascii	"p_state\000"
 2962      61746500 
 2963              	.LASF133:
 2964 04ef 5F5F6865 		.ascii	"__heap_end__\000"
 2964      61705F65 
 2964      6E645F5F 
 2964      00
 2965              	.LASF58:
 2966 04fc 725F7072 		.ascii	"r_prio\000"
 2966      696F00
 2967              	.LASF119:
 2968 0503 65776D61 		.ascii	"ewmask\000"
 2968      736B00
 2969              	.LASF30:
 2970 050a 705F6E65 		.ascii	"p_next\000"
 2970      787400
 2971              	.LASF39:
 2972 0511 705F666C 		.ascii	"p_flags\000"
 2972      61677300 
 2973              	.LASF48:
 2974 0519 705F7374 		.ascii	"p_stats\000"
 2974      61747300 
 2975              	.LASF145:
 2976 0521 63685379 		.ascii	"chSysLock\000"
 2976      734C6F63 
 2976      6B00
 2977              	.LASF65:
 2978 052b 63685F76 		.ascii	"ch_virtual_timer\000"
 2978      69727475 
 2978      616C5F74 
 2978      696D6572 
 2978      00
 2979              	.LASF120:
 2980 053c 63685F73 		.ascii	"ch_semaphore\000"
 2980      656D6170 
 2980      686F7265 
 2980      00
 2981              	.LASF44:
 2982 0549 705F6570 		.ascii	"p_epending\000"
 2982      656E6469 
 2982      6E6700
 2983              	.LASF16:
 2984 0554 75696E74 		.ascii	"uint32_t\000"
 2984      33325F74 
 2984      00
 2985              	.LASF118:
 2986 055d 77746D74 		.ascii	"wtmtxp\000"
 2986      787000
 2987              	.LASF57:
 2988 0564 725F7175 		.ascii	"r_queue\000"
 2988      65756500 
ARM GAS  /tmp/cc4zkXz1.s 			page 92


 2989              	.LASF68:
 2990 056c 76745F64 		.ascii	"vt_delta\000"
 2990      656C7461 
 2990      00
 2991              	.LASF52:
 2992 0575 63685F74 		.ascii	"ch_threads_list\000"
 2992      68726561 
 2992      64735F6C 
 2992      69737400 
 2993              	.LASF10:
 2994 0585 6C6F6E67 		.ascii	"long unsigned int\000"
 2994      20756E73 
 2994      69676E65 
 2994      6420696E 
 2994      7400
 2995              	.LASF127:
 2996 0597 63686172 		.ascii	"char\000"
 2996      00
 2997              	.LASF29:
 2998 059c 74687265 		.ascii	"thread_t\000"
 2998      61645F74 
 2998      00
 2999              	.LASF103:
 3000 05a5 62657374 		.ascii	"best\000"
 3000      00
 3001              	.LASF137:
 3002 05aa 6E657874 		.ascii	"nextmem\000"
 3002      6D656D00 
 3003              	.LASF126:
 3004 05b2 6D5F6E65 		.ascii	"m_next\000"
 3004      787400
 3005              	.LASF28:
 3006 05b9 73797374 		.ascii	"systime_t\000"
 3006      696D655F 
 3006      7400
 3007              	.LASF46:
 3008 05c3 705F7265 		.ascii	"p_realprio\000"
 3008      616C7072 
 3008      696F00
 3009              	.LASF63:
 3010 05ce 76746675 		.ascii	"vtfunc_t\000"
 3010      6E635F74 
 3010      00
 3011              	.LASF9:
 3012 05d7 5F5F7569 		.ascii	"__uint32_t\000"
 3012      6E743332 
 3012      5F7400
 3013              	.LASF143:
 3014 05e2 5F5F7365 		.ascii	"__set_BASEPRI\000"
 3014      745F4241 
 3014      53455052 
 3014      4900
 3015              	.LASF76:
 3016 05f0 70616E69 		.ascii	"panic_msg\000"
 3016      635F6D73 
 3016      6700
 3017              	.LASF101:
ARM GAS  /tmp/cc4zkXz1.s 			page 93


 3018 05fa 6F666673 		.ascii	"offset\000"
 3018      657400
 3019              	.LASF90:
 3020 0601 636F6E74 		.ascii	"context\000"
 3020      65787400 
 3021              	.LASF18:
 3022 0609 7274636E 		.ascii	"rtcnt_t\000"
 3022      745F7400 
 3023              	.LASF70:
 3024 0611 76745F70 		.ascii	"vt_par\000"
 3024      617200
 3025              	.LASF132:
 3026 0618 5F5F6865 		.ascii	"__heap_base__\000"
 3026      61705F62 
 3026      6173655F 
 3026      5F00
 3027              	.LASF53:
 3028 0626 74687265 		.ascii	"threads_queue_t\000"
 3028      6164735F 
 3028      71756575 
 3028      655F7400 
 3029              	.LASF123:
 3030 0636 63685F6D 		.ascii	"ch_mutex\000"
 3030      75746578 
 3030      00
 3031              	.LASF40:
 3032 063f 705F7265 		.ascii	"p_refs\000"
 3032      667300
 3033              	.LASF77:
 3034 0646 6973725F 		.ascii	"isr_cnt\000"
 3034      636E7400 
 3035              	.LASF82:
 3036 064e 726C6973 		.ascii	"rlist\000"
 3036      7400
 3037              	.LASF14:
 3038 0654 75696E74 		.ascii	"uint8_t\000"
 3038      385F7400 
 3039              	.LASF115:
 3040 065c 77746F62 		.ascii	"wtobjp\000"
 3040      6A7000
 3041              	.LASF36:
 3042 0663 705F6E61 		.ascii	"p_name\000"
 3042      6D6500
 3043              	.LASF136:
 3044 066a 73697A65 		.ascii	"size\000"
 3044      00
 3045              	.LASF50:
 3046 066f 74687265 		.ascii	"threads_list_t\000"
 3046      6164735F 
 3046      6C697374 
 3046      5F7400
 3047              	.LASF79:
 3048 067e 74726163 		.ascii	"trace_buffer\000"
 3048      655F6275 
 3048      66666572 
 3048      00
 3049              	.LASF131:
ARM GAS  /tmp/cc4zkXz1.s 			page 94


 3050 068b 63685379 		.ascii	"chSysUnlock\000"
 3050      73556E6C 
 3050      6F636B00 
 3051              	.LASF43:
 3052 0697 705F6D73 		.ascii	"p_msg\000"
 3052      6700
 3053              	.LASF110:
 3054 069d 6D5F6372 		.ascii	"m_crit_thd\000"
 3054      69745F74 
 3054      686400
 3055              	.LASF125:
 3056 06a8 6D5F6F77 		.ascii	"m_owner\000"
 3056      6E657200 
 3057              	.LASF94:
 3058 06b0 73655F77 		.ascii	"se_wtobjp\000"
 3058      746F626A 
 3058      7000
 3059              	.LASF33:
 3060 06ba 705F6374 		.ascii	"p_ctx\000"
 3060      7800
 3061              	.LASF69:
 3062 06c0 76745F66 		.ascii	"vt_func\000"
 3062      756E6300 
 3063              		.comm	__gnu_lto_v1,1,1
 3064              		.ident	"GCC: (4.8.2-14ubuntu1+6) 4.8.2"
ARM GAS  /tmp/cc4zkXz1.s 			page 95


DEFINED SYMBOLS
                            *ABS*:0000000000000000 chmemcore.c
     /tmp/cc4zkXz1.s:572    .text.port_lock:0000000000000000 $t
     /tmp/cc4zkXz1.s:577    .text.port_lock:0000000000000000 port_lock
     /tmp/cc4zkXz1.s:608    .text.port_unlock:0000000000000000 $t
     /tmp/cc4zkXz1.s:613    .text.port_unlock:0000000000000000 port_unlock
     /tmp/cc4zkXz1.s:642    .text.chSysLock:0000000000000000 $t
     /tmp/cc4zkXz1.s:647    .text.chSysLock:0000000000000000 chSysLock
     /tmp/cc4zkXz1.s:670    .text.chSysUnlock:0000000000000000 $t
     /tmp/cc4zkXz1.s:675    .text.chSysUnlock:0000000000000000 chSysUnlock
     /tmp/cc4zkXz1.s:906    .rodata.__func__.5915:0000000000000000 __func__.5915
     /tmp/cc4zkXz1.s:720    .bss.nextmem:0000000000000000 $d
     /tmp/cc4zkXz1.s:723    .bss.nextmem:0000000000000000 nextmem
     /tmp/cc4zkXz1.s:726    .bss.endmem:0000000000000000 $d
     /tmp/cc4zkXz1.s:729    .bss.endmem:0000000000000000 endmem
     /tmp/cc4zkXz1.s:732    .text._core_init:0000000000000000 $t
     /tmp/cc4zkXz1.s:738    .text._core_init:0000000000000000 _core_init
     /tmp/cc4zkXz1.s:769    .text.chCoreAlloc:0000000000000000 $t
     /tmp/cc4zkXz1.s:775    .text.chCoreAlloc:0000000000000000 chCoreAlloc
     /tmp/cc4zkXz1.s:812    .text.chCoreAllocI:0000000000000000 chCoreAllocI
     /tmp/cc4zkXz1.s:806    .text.chCoreAllocI:0000000000000000 $t
     /tmp/cc4zkXz1.s:874    .text.chCoreGetStatusX:0000000000000000 $t
     /tmp/cc4zkXz1.s:880    .text.chCoreGetStatusX:0000000000000000 chCoreGetStatusX
     /tmp/cc4zkXz1.s:903    .rodata.__func__.5915:0000000000000000 $d
                            *COM*:0000000000000001 __gnu_lto_v1
                     .debug_frame:0000000000000010 $d

UNDEFINED SYMBOLS
_stats_start_measure_crit_thd
_dbg_check_lock
_dbg_check_unlock
_stats_stop_measure_crit_thd
ch
chSysHalt
__heap_base__
__heap_end__
chDbgCheckClassI
