ARM GAS  /tmp/cc4zkXz1.s 			page 1


   1              		.syntax unified
   2              		.cpu cortex-m4
   3              		.fpu softvfp
   4              		.eabi_attribute 20, 1
   5              		.eabi_attribute 21, 1
   6              		.eabi_attribute 23, 3
   7              		.eabi_attribute 24, 1
   8              		.eabi_attribute 25, 1
   9              		.eabi_attribute 26, 1
  10              		.eabi_attribute 30, 6
  11              		.eabi_attribute 34, 1
  12              		.eabi_attribute 18, 4
  13              		.thumb
  14              		.file	"chmemcore.c"
  15              		.text
  16              	.Ltext0:
  17              		.section	.gnu.lto_.inline.ac29710df2be475b,"",%progbits
  18 0000 789C6362 		.ascii	"x\234cb`b\300\006NCi\016\006\006\026f\006\006&\226\017"
  18      6062C006 
  18      4E43690E 
  18      06061666 
  18      06062696 
  19 0015 7A0C2C10 		.ascii	"z\014,\020\265\214\030\"L\014l\012@\222i\201<\\\015"
  19      B58C1822 
  19      4C0C6C0A 
  19      40926981 
  19      3C5C0D
  20 0028 170AC1CC 		.ascii	"\027\012\301\314 h\002T \362a5#\212\012&n\024el\014"
  20      20680254 
  20      20F26135 
  20      238A0A26 
  20      6E14656C 
  21 003d 1CEC4041 		.ascii	"\034\354@A\236\015\2710U\334\014\374\342@\021\211\011"
  21      9E0DB930 
  21      55DC0CFC 
  21      E2401189 
  21      09
  22 004e A75135F2 		.ascii	"\247Q5\3620p(a\261\221\231\007\306\342e`c\005*\340\230"
  22      30702861 
  22      B1919907 
  22      C6E26560 
  22      63052AE0 
  23 0063 E00753C0 		.ascii	"\340\007S\300\000\000@3\013\243"
  23      00004033 
  23      0BA3
  24              		.text
  25              		.section	.gnu.lto_port_lock.ac29710df2be475b,"",%progbits
  26 0000 789C6362 		.ascii	"x\234cb`b@\007\"@,\314\310\3000\001\304af`\004\252`"
  26      60624007 
  26      22402CCC 
  26      C8C03001 
  26      C4616660 
  27 0017 6462040A 		.ascii	"db\004\012002\32431\326G\202\230\014\214J\014\013\033"
  27      303032D4 
  27      3331D647 
  27      82980C8C 
  27      4A0C0B1B 
ARM GAS  /tmp/cc4zkXz1.s 			page 2


  28 002b 1A263D68 		.ascii	"\032&=h}\366\230if\303\201\226\005\015\177\376\377g"
  28      7DF69869 
  28      66C38196 
  28      050D7FFE 
  28      FF67
  29 003d 64CC6404 		.ascii	"d\314d\004\232h\316\310\220\314\310\020\001\3440*\200"
  29      9A68CEC8 
  29      90CCC810 
  29      01E4302A 
  29      80
  30 004e 29261654 		.ascii	")&\026T+\3263\035x\360\377\377\211\316\347{\201&3$2"
  30      2BD6331D 
  30      78F0FFFF 
  30      89CEE77B 
  30      81263324 
  31 0063 2E049A06 		.ascii	".\004\232\006\004\254\014-\015\015\023\024\030@\272"
  31      04AC0C2D 
  31      0D0D1314 
  31      1840BA
  32 0072 8120044C 		.ascii	"\201 \004L\206\202\034\300|\226\241i\007\220Ngd\004"
  32      86821CC0 
  32      7C96A169 
  32      07904E67 
  32      6404
  33 0084 99C70054 		.ascii	"\231\307\000T\303p\216\241\351\343\337\031\217%\340"
  33      C3708EA1 
  33      E9E3DF19 
  33      8F25E0
  34 0093 BAC08C86 		.ascii	"\272\300\214\206\003\335W\332YaF&2.fd\005\032\007q2"
  34      03DD57DA 
  34      59614626 
  34      322E6664 
  34      051A0771 
  35 00a8 10963283 		.ascii	"\020\2262\203|\314\014\361\266\034C\033\343\334\206"
  35      7CCC0CF1 
  35      B61C431B 
  35      E3DC86
  36 00b7 190E998C 		.ascii	"\031\016\231\214\314 n:X\031\\\256\023*\007u\373E\206"
  36      CC206E3A 
  36      58195CAE 
  36      132A0775 
  36      FB4586
  37 00ca C6073BF5 		.ascii	"\306\007;\365!\006\302@\010H\007H\271INf\222\276sFf"
  37      2106C240 
  37      08480748 
  37      B9494E66 
  37      92BE7346 
  38 00df 52A67F70 		.ascii	"R\246\177p\274\241\231\236\241\236\211\276~~\261~Q\211"
  38      BCA1999E 
  38      A19E89BE 
  38      7E7EB17E 
  38      5189
  39 00f1 7E417E51 		.ascii	"~A~QI\261\276c\220\257\263o\205~rFr~Qj|\231y\256^\006"
  39      49B1BE63 
  39      90AFB36F 
  39      857E7246 
  39      727E516A 
ARM GAS  /tmp/cc4zkXz1.s 			page 3


  40 010b 036B5962 		.ascii	"\003kYbNi\2529\016\255\251\025%\372\316\276\301\236"
  40      4E69AA39 
  40      0EADA915 
  40      25FACEBE 
  40      C19E
  41 011d C1FA9979 		.ascii	"\301\372\231y\3119\245)\251\372`\255\311\271n\245y\311"
  41      C939A529 
  41      A9FA60AD 
  41      C9B96EA5 
  41      79C9
  42 012f 40DD02BE 		.ascii	"@\335\002\276\301A\012I\211\305\251\005E\231:\012\252"
  42      C1410A49 
  42      89C5A905 
  42      45993A0A 
  42      AA
  43 0140 060C4C45 		.ascii	"\006\014LE\014\354\271\251\271\371E\225\014\000\027"
  43      0CECB9A9 
  43      B9F94595 
  43      0C0017
  44 014f 1D670F   		.ascii	"\035g\017"
  45              		.text
  46              		.section	.gnu.lto_port_unlock.ac29710df2be475b,"",%progbits
  47 0000 789C6362 		.ascii	"x\234cb`b@\007\"@,\314\310\3000\001\304af`\004\252`"
  47      60624007 
  47      22402CCC 
  47      C8C03001 
  47      C4616660 
  48 0017 6462040A 		.ascii	"db\004\012002\32431\326G\202\230\014\214J\014\013\033"
  48      303032D4 
  48      3331D647 
  48      82980C8C 
  48      4A0C0B1B 
  49 002b 1A263D68 		.ascii	"\032&=h\375\364\230if\303\201\226\005\015\177\376\377"
  49      FDF49869 
  49      66C38196 
  49      050D7FFE 
  49      FF
  50 003c 6764CC64 		.ascii	"gd\314d\004\232h\316\310\220\314\310\020\001\3440*\200"
  50      049A68CE 
  50      C890CCC8 
  50      1001E430 
  50      2A80
  51 004e 29261654 		.ascii	")&\026T+\3263\035x\360\377\377\213\316\375\373\200&"
  51      2BD6331D 
  51      78F0FFFF 
  51      8BCEFDFB 
  51      8026
  52 0060 3324322E 		.ascii	"3$2.\004\232\006\004\254\014-\015\015\023\024\030@\272"
  52      049A0604 
  52      AC0C2D0D 
  52      0D131418 
  52      40BA
  53 0072 8120044C 		.ascii	"\201 \004L\206\202\034\300|\226\241i\007\220Ngd\004"
  53      86821CC0 
  53      7C96A169 
  53      07904E67 
  53      6404
ARM GAS  /tmp/cc4zkXz1.s 			page 4


  54 0084 990736E4 		.ascii	"\231\0076\344\034C\323\307\2773\036K\300u\201\031\015"
  54      1C43D3C7 
  54      BF331E4B 
  54      C0758119 
  54      0D
  55 0095 074E3F6D 		.ascii	"\007N?mg\205\031\231\310\270\230\221\025h\034\304\311"
  55      67851999 
  55      C8B89891 
  55      15681CC4 
  55      C9
  56 00a6 4058CA0C 		.ascii	"@X\312\014\36213\304\333r\014m\214s\033f8d22\203\270"
  56      F23133C4 
  56      DB720C6D 
  56      8C731B66 
  56      38643232 
  57 00bc E9606570 		.ascii	"\351`ep\271N\250\034\324\355\027\031\032\037\234\327"
  57      B94EA81C 
  57      D4ED1719 
  57      1A1F9CD7 
  58 00cc 87180803 		.ascii	"\207\030\010\003! \035 \345&9\231I\372\316\031\231I"
  58      21201D20 
  58      E5263999 
  58      49FACE19 
  58      9949
  59 00de 99FEC1F1 		.ascii	"\231\376\301\361\206fz\206z&\372\372\371\305\372E%\372"
  59      86667A86 
  59      7A26FAFA 
  59      F9C5FA45 
  59      25FA
  60 00f0 05F94525 		.ascii	"\005\371E%\305\372\216A\276\316\276\025\372\311\031"
  60      C5FA8E41 
  60      BECEBE15 
  60      FAC919
  61 00ff C9F945A9 		.ascii	"\311\371E\251\361e\346\271z\031\014\254e\2119\245\251"
  61      F165E6B9 
  61      7A190CAC 
  61      658939A5 
  61      A9
  62 0110 E638B4A6 		.ascii	"\3468\264\246V\224\350;\373\006{\006\353g\346%\347\224"
  62      5694E83B 
  62      FB067B06 
  62      EB67E625 
  62      E794
  63 0122 A6A4EA83 		.ascii	"\246\244\352\203\265&\347\272\225\346%\003u\013\370"
  63      B526E7BA 
  63      95E62503 
  63      750BF8
  64 0131 06072924 		.ascii	"\006\007)$%\026\247\026\024e\352(\250\03200\0251\260"
  64      2516A716 
  64      1465EA28 
  64      A81A3030 
  64      1531B0
  65 0144 E7A6E6E6 		.ascii	"\347\246\346\346\027U2\000\000]Vg["
  65      17553200 
  65      005D5667 
  65      5B
  66              		.text
ARM GAS  /tmp/cc4zkXz1.s 			page 5


  67              		.section	.gnu.lto_chSysLock.ac29710df2be475b,"",%progbits
  68 0000 789C6362 		.ascii	"x\234cb`b@\007\"@|\010\210u@\034f\006F\240\012F&FF "
  68      60624007 
  68      22407C08 
  68      8875401C 
  68      660646A0 
  69 001a 8791A19E 		.ascii	"\207\221\241\236\211\261>\222\021\254l=\323\201\007"
  69      89B13E92 
  69      11AC6C3D 
  69      D38107
  70 0029 FFFFAFFB 		.ascii	"\377\377\257\3732m\331\037\306\333L 1V\206\226\206\206"
  70      326DD91F 
  70      C6DB4C20 
  70      31568696 
  70      8686
  71 003b 090A0C0C 		.ascii	"\011\012\014\014\311`\025!`2\024\244\237\371<C\363\203"
  71      C9601521 
  71      603214A4 
  71      9FF93C43 
  71      F383
  72 004d 3DDDEC89 		.ascii	"=\335\354\211\214\013\031Y\201\202\325\014\277\032:"
  72      8C0B1959 
  72      8182D50C 
  72      BF1A3A
  73 005c 1A043219 		.ascii	"\032\0042\031\201J!\246e\202h\220\252\275\335B\330T"
  73      814A21A6 
  73      65826890 
  73      AABDDD42 
  73      D854
  74 006e 31A1AADA 		.ascii	"1\241\252\332w\232\013\233*f\204\252\213\014\215\017"
  74      779A0B9B 
  74      2A6684AA 
  74      8B0C8D0F 
  75 007e F66BC314 		.ascii	"\366k\303\024A@\010H\002d\222VNf\222\276sFfR\246\177"
  75      41400848 
  75      02649256 
  75      4E6692BE 
  75      73466652 
  76 0094 70BCA199 		.ascii	"p\274\241\231\236\241\236\211\276~~\261~Q\211~f^rNi"
  76      9EA19E89 
  76      BE7E7EB1 
  76      7E51897E 
  76      665E724E 
  77 00a9 4AAA7E72 		.ascii	"J\252~rFqe\261^\006\003\000\204\275;\363"
  77      467165B1 
  77      5E060300 
  77      84BD3BF3 
  78              		.text
  79              		.section	.gnu.lto_chSysUnlock.ac29710df2be475b,"",%progbits
  80 0000 789CCD92 		.ascii	"x\234\315\222\275/DA\020\300gv\367\275s\276\033\011"
  80      BD2F4441 
  80      10C06776 
  80      F7BD73BE 
  80      1B09
  81 0012 2A513AB9 		.ascii	"*Q:\271\027\211\250t\376\000\005\0224\342\036q\233\334"
  81      1789A874 
  81      FE000512 
ARM GAS  /tmp/cc4zkXz1.s 			page 6


  81      34E21E71 
  81      9BDC
  82 0024 91380A51 		.ascii	"\2218\012Q\330;W\010\215(ihD'\321\351\024\012\211\210"
  82      D83B5708 
  82      8D286968 
  82      4427D1E9 
  82      140A8988 
  83 0038 E8505D24 		.ascii	"\350P]$*\327\023\021\317\354\276\367\316s\256!\012\223"
  83      2AD71311 
  83      CFECBEF7 
  83      CE73AE21 
  83      0A93
  84 004a BC99DD7D 		.ascii	"\274\231\335}3\277\231\335\031\006\014\252e\220>[\000"
  84      33BF99DD 
  84      19060CAA 
  84      65903E5B 
  84      00
  85 005b F4EA4D0C 		.ascii	"\364\352M\014\220<\220!'\315\031\035+f\223\022\202Y"
  85      903C9021 
  85      27CD191D 
  85      2B669312 
  85      8259
  86 006d 95B58564 		.ascii	"\225\265\205d\320F\244\000\2045\306\205e\343\332\204"
  86      D046A400 
  86      8435C685 
  86      65E3DA84 
  87 007d DE82DD0D 		.ascii	"\336\202\335\015\007J\355\224\036\237w;6\367\013\333"
  87      074AED94 
  87      1E9F773B 
  87      36F70BDB 
  88 008d EADDF350 		.ascii	"\352\335\363P\352_.\3028\255\260\313\030\215\216\212"
  88      EA5F2EC2 
  88      38ADB0CB 
  88      188D8E8A 
  89 009d 1FA64E8E 		.ascii	"\037\246N\216T|_\275y\036\377]\014\377/y\262\010\307"
  89      547C5FBD 
  89      791EFF5D 
  89      0CFF2F79 
  89      B208C7
  90 00b0 ECACE479 		.ascii	"\354\254\344y\345\323\323\2072\266\331\010\224\211i"
  90      E5D3D387 
  90      32B6D908 
  90      948969
  91 00bf C54971A1 		.ascii	"\305Iq\241W\026\030\022\331\242R\333]\331\240\024\222"
  91      57161812 
  91      D9A252DB 
  91      5DD9A014 
  91      92
  92 00d0 51A3C774 		.ascii	"Q\243\307t3\3705\254\227n\267\032\246\361\020\251\007"
  92      33F835AC 
  92      976EB71A 
  92      A6F110A9 
  92      07
  93 00e1 B00AAF6A 		.ascii	"\260\012\257jC\265J\024\256\351\000\020\204\316\265"
  93      43B54A14 
  93      AEE90010 
  93      84CEB5
ARM GAS  /tmp/cc4zkXz1.s 			page 7


  94 00f0 D7DD534B 		.ascii	"\327\335SK-/\366\351\345S)'\277\202\302\375\313s\247"
  94      2D2FF6E9 
  94      E5532927 
  94      BF82C2FD 
  94      CB73A7
  95 0103 EF3F8798 		.ascii	"\357?\207\230\200\036\252\310h\333\350\330\036\354\346"
  95      801EAAC8 
  95      68DBE8D8 
  95      1EECE6
  96 0112 9546D455 		.ascii	"\225F\324U`\361\254I\251/\0347\254\224_\001Y\014l8`"
  96      60F1AC49 
  96      A92F1C37 
  96      AC945F01 
  96      590C6C38 
  97 0127 17502C63 		.ascii	"\027P,c\205\256\011u\022\353\243|bU\207\177\2211\024"
  97      85AE0975 
  97      12EBA37C 
  97      6255877F 
  97      913114
  98 013a 7E9D9321 		.ascii	"~\235\223!\206E\212\374ay<\200Fq\334\200\032\010D\001"
  98      86458AFC 
  98      61793C80 
  98      4671DC80 
  98      1A084401 
  99 014e 8D841FF7 		.ascii	"\215\204\037\367'\325\004\210\032\001\342\257\037)\012"
  99      27D50488 
  99      1A01E2AF 
  99      1F290A
 100 015d B7AAAA11 		.ascii	"\267\252\252\021\265\252\271\200\363\307\312\253\362"
 100      B5AAB980 
 100      F3C7CAAB 
 100      F2
 101 016a B9B0A5FE 		.ascii	"\271\260\245\376sYfX\304\267\021hr\203\353\353\223v"
 101      73596658 
 101      C4B71168 
 101      7283EBEB 
 101      9376
 102 017c 89CD3468 		.ascii	"\211\3154h\201\223\304\2260\332\016F\355\3512Vk\210"
 102      8193C496 
 102      30DA0E46 
 102      EDE93256 
 102      6B88
 103 018e C4E710DD 		.ascii	"\304\347\020\335@\276TN\204N\276\214\352\273\351k\365"
 103      40BE544E 
 103      844EBE8C 
 103      EABBE96B 
 103      F5
 104 019f 6464CA19 		.ascii	"dd\312\031J\313\224\034\036\231\352\033H\366%\373\035"
 104      4ACB941C 
 104      1E99EA1B 
 104      48F625FB 
 104      1D
 105 01b0 6721E72C 		.ascii	"g!\347,.9r\336\315,\317\314:n:\267\222K\246\341\003"
 105      2E3972DE 
 105      CD2CCFCC 
 105      3A6E3AB7 
 105      924BA6E1 
ARM GAS  /tmp/cc4zkXz1.s 			page 8


 106 01c5 7DC6D102 		.ascii	"}\306\321\002"
 107              		.text
 108              		.section	.gnu.lto__core_init.ac29710df2be475b,"",%progbits
 109 0000 789CB552 		.ascii	"x\234\265R=h\024Q\020\236yow\357\002\232\030Hc\027b"
 109      3D681451 
 109      109E796F 
 109      77EF029A 
 109      18486317 
 110 0015 27B8EBA9 		.ascii	"'\270\353\251\210M\260Haia\024\255\226\275u\311-\270"
 110      884DB048 
 110      61696114 
 110      AD96BD75 
 110      C92DB8
 111 0028 89DC0551 		.ascii	"\211\334\005QR\334\313\335)\207\0208\377\020\265I\012"
 111      52DCCBDD 
 111      29871038 
 111      FF10B549 
 111      0A
 112 0039 51443498 		.ascii	"QD4\230B$B\266\012Z\004\022[\233\013\244\213\004K\021"
 112      422442B6 
 112      0A5A0412 
 112      5B9B0BA4 
 112      8B044B11 
 113 004d F139EFED 		.ascii	"\3619\357\355\255wY\177\272\014\354\316\233\371\346"
 113      AD77597F 
 113      BA0CECCE 
 113      9BF9E6
 114 005c 9BF9E6F1 		.ascii	"\233\371\346\361\0300\310\332\020}\3678\300\015\025"
 114      1830C8DA 
 114      107DF738 
 114      C00D15
 115 006b 7040AA40 		.ascii	"p@\252@\206H\001B\225a\365\222:Bn\004\026\204\270\333"
 115      86480142 
 115      9561F592 
 115      3A426E04 
 115      1684B8DB 
 116 007f BEB91DF3 		.ascii	"\276\271\035\363G\367\343\306\274\370!%b\210\324\361"
 116      47F7E3C6 
 116      BCF82125 
 116      6288D4F1 
 117 008f 08828F70 		.ascii	"\010\202\217p\221\002\034\326\216\031\273G$\\\361\346"
 117      91021CD6 
 117      8E19BB47 
 117      245CF1E6 
 118 009f B9E8D33C 		.ascii	"\271\350\323<\036\252\236{\306Y\336Z7>\210F,\345\351"
 118      1EAA9E7B 
 118      C659DE5A 
 118      373E8846 
 118      2CE5E9
 119 00b2 103983D1 		.ascii	"\0209\203\321\277\352\2130K\214?\257><x{\276\326\022"
 119      BFEA8B30 
 119      4B8C3FAF 
 119      3E3C787B 
 119      BED612
 120 00c5 3F6937BD 		.ascii	"?i7\275\332\231=\\\355]F\346\205\177\310\354\352|\315"
 120      DA993D5C 
 120      ED5D46E6 
ARM GAS  /tmp/cc4zkXz1.s 			page 9


 120      857FC8EC 
 120      EA7CCD
 121 00d8 E2B6945F 		.ascii	"\342\266\224_\226\336o\256\340`\036\301\303\005\034"
 121      96DE6FAE 
 121      E0601EC1 
 121      C3051C
 122 00e7 21953493 		.ascii	"!\2254\223\253\237A\231\247\2241\311?#o\251d\216\202"
 122      AB9F4199 
 122      A79431C9 
 122      3F236FA9 
 122      648E82
 123 00fa 17149099 		.ascii	"\027\024\220\231\320\020\2425\254\346\267[\361\306\255"
 123      D010A235 
 123      ACE6B75B 
 123      F1C6AD
 124 0109 072836C5 		.ascii	"\007(6\305\235\316\266\006\003W+H\315\303W\310z5\023"
 124      9DCEB606 
 124      03572B48 
 124      CDC357C8 
 124      7A3513
 125 011c E7D3AA10 		.ascii	"\347\323\252\020\270\0307\205\224UM\2112\224E\354ya"
 125      B8183785 
 125      94554D89 
 125      329445EC 
 125      7961
 126 012e 0932AEFF 		.ascii	"\0112\256\377\347\025\300\327\240\266S_\232;\345\341"
 126      E715C0D7 
 126      A0B6535F 
 126      9A3BE5E1 
 127 013e 4B346102 		.ascii	"K4a\002q\006\276\213|\210f\324\341\255A\275\311S\224"
 127      7106BE8B 
 127      7C8866D4 
 127      E1AD41BD 
 127      C95394
 128 0151 5181BA08 		.ascii	"Q\201\272\010\332A#\313\277\021N\240F\276I)\0074Z\333"
 128      DA4123CB 
 128      BF114EA0 
 128      46BE4929 
 128      07345ADB 
 129 0165 AE5F4B61 		.ascii	"\256_Ka\203*t\356\343W+\311=\201\307\263B\034\240\213"
 129      832A74EE 
 129      E3572BC9 
 129      3D81C7B3 
 129      421CA08B 
 130 0179 56139BEA 		.ascii	"V\023\233\352d%/@\265\261\364l\342i\322N\375\355\234"
 130      64252F40 
 130      B5B1F46C 
 130      E269D24E 
 130      FDED9C
 131 018c 93B632BB 		.ascii	"\223\2662\273\012y\252\260\253\303\242\202?u\224S87"
 131      0A79AAB0 
 131      ABC3A282 
 131      3F759453 
 131      3837
 132 019e A15A2B1D 		.ascii	"\241Z+\035\353\377\325\201\031\035\264\357\006\314\266"
 132      EBFFD581 
 132      191DB4EF 
ARM GAS  /tmp/cc4zkXz1.s 			page 10


 132      06CCB6
 133 01ad 570E25A4 		.ascii	"W\016%\244\324\306U\241\272\247\303W\302\2423V\012\213"
 133      D4C655A1 
 133      BAA7C357 
 133      C2A23356 
 133      0A8B
 134 01bf E1D9736E 		.ascii	"\341\331sn\341\244]\260O8\316T\305)O;\225\262\357\370"
 134      E1A45DB0 
 134      4F38CE54 
 134      C5294F3B 
 134      95B2EFF8 
 135 01d3 A52888FC 		.ascii	"\245(\210\374\251r`\3730\340\272\245\300\273\352\026"
 135      A97260FB 
 135      30E0BAA5 
 135      C0BBEA16 
 136 01e3 BD4AE0BA 		.ascii	"\275J\340\272\366\321\276\311\340\3724\301v\241\277"
 136      F6D1BEC9 
 136      E0FA34C1 
 136      76A1BF
 137 01f2 83049397 		.ascii	"\203\004\223\227\0118\226'\257\362\307\367\357b\354"
 137      09389627 
 137      AFF2C7F7 
 137      EF62EC
 138 0201 EBADFA05 		.ascii	"\353\255\372\005]\257\377\224"
 138      5DAFFF94 
 139              		.text
 140              		.section	.gnu.lto_chCoreAllocI.ac29710df2be475b,"",%progbits
 141 0000 789C9D53 		.ascii	"x\234\235SMh\023Q\020\236\331\267\233\277&M\020/\361"
 141      4D681351 
 141      109ED9B7 
 141      9BBF264D 
 141      102FF1
 142 0013 20A53705 		.ascii	" \2457\005\263\024j\324\223\007O=y\250\005=\210$i\334"
 142      B3146AD4 
 142      93074F3D 
 142      79A8053D 
 142      882469DC 
 143 0027 2C9856D2 		.ascii	",\230V\322\036\004\017\335\374T\352/\245\024\264\325"
 143      1E040FDD 
 143      FC54EA2F 
 143      A514B4D5 
 144 0037 432B2529 		.ascii	"C+%)\005\011*BE\301\034<4Q\221 \202\275\005\245'\241"
 144      05092A42 
 144      45C11C3C 
 144      34519120 
 144      82BD05A5 
 145 004d 78AC22AE 		.ascii	"x\254\"\256\363\336v7\261\026]\372 ;\363f\276o\346\315"
 145      F3DE7637 
 145      B1165DFA 
 145      203BF366 
 145      BE6FE6CD 
 146 0061 F75E2490 		.ascii	"\367^$\220`\347R\351wQ\001\310\360\215\007\220\020("
 146      60E752E9 
 146      775101C8 
 146      F08D0790 
 146      1028
 147 0073 490CC090 		.ascii	"I\014\300\220d\372\310\014)\211\262\370*\210\004B\230"
ARM GAS  /tmp/cc4zkXz1.s 			page 11


 147      64FAC80C 
 147      2989B2F8 
 147      2A880442 
 147      98
 148 0084 9098ACE0 		.ascii	"\220\230\254\340\3049\276\203\256^X4\214\231\326d\271"
 148      C439BE83 
 148      AE5E5834 
 148      8C99D664 
 148      B9
 149 0095 8973B3B5 		.ascii	"\211s\263\265\322\202\361\3234\021u\236L!\234%\017{"
 149      D282F1D3 
 149      3411759E 
 149      4C219C25 
 149      0F7B
 150 00a7 84E1053B 		.ascii	"\204\341\005;\227E\254=k\334\215\336X(L\033\277\210"
 150      9745AC3D 
 150      6BDC8DDE 
 150      58284C1B 
 150      BF88
 151 00b9 A72393E0 		.ascii	"\247#\223\340\010\272aN\033O\226\015\277h\307t\224%"
 151      08BA614E 
 151      1B4F960D 
 151      BF68C774 
 151      9425
 152 00cb 88BBA2CD 		.ascii	"\210\273\242\315\374A\243n'\367\326m`/4w\222\030\325"
 152      FC41A36E 
 152      27F7D66D 
 152      602F3477 
 152      9218D5
 153 00de 6B939192 		.ascii	"k\223\221\222Mr\247\343|\355y\243\261\210D\316\1773"
 153      4D72A7E3 
 153      7CED79A3 
 153      B18844CE 
 153      7F33
 154 00f0 CDB0CE2F 		.ascii	"\315\260\316/\314\225\374\257\032\267w\310?\350Z\307"
 154      CC95FCAF 
 154      1AB777C8 
 154      3FE85AC7 
 155 0100 42A78EE7 		.ascii	"B\247\216\347w\245e\361\257\216s\215[Q\243\335Q\221"
 155      77A565F1 
 155      AF8E738D 
 155      5B51A3DD 
 155      5191
 156 0112 40FB5FC7 		.ascii	"@\373_\307\252Tk\231\346\313\346\322\347\025\334\027"
 156      AA546B99 
 156      E6CBE6D2 
 156      E715DC17 
 157 0122 41E02CCC 		.ascii	"A\340,\314\"2\362@\246&4n\002\037b/=\341\004.\221\365"
 157      2232F240 
 157      A626346E 
 157      021F622F 
 157      3DE1042E 
 158 0138 922D93F5 		.ascii	"\222-\223\365\221]&\353'\244\034\340\360.\316\016R\370"
 158      915D26EB 
 158      27A41CE0 
 158      F02ECE0E 
 158      52F8
ARM GAS  /tmp/cc4zkXz1.s 			page 12


 159 014a 31854364 		.ascii	"1\205Cd\037\221\355&[%\033\006\241\034(P\242\313\353"
 159      1F91ED26 
 159      5B251B06 
 159      A11C2850 
 159      A2CBEB
 160 015d B1404249 		.ascii	"\261@BIZg\304w\210\377G\330{(\266\356l\004\022\370T"
 160      5A67C477 
 160      88FF47D8 
 160      7B28B6EE 
 160      6C0412F8 
 161 0172 E0AFC20F 		.ascii	"\340\257\302\017c\312\210\350\350I\2415\261\216^\200"
 161      63CA88E8 
 161      E849A135 
 161      B18E5E80 
 162 0182 77509C2A 		.ascii	"wP\234*~\231=`\3014d\032J|>\037\345x\362E1i\247d\312"
 162      7E993D60 
 162      C134641A 
 162      4A7C3E1F 
 162      E578F245 
 163 019b 8AD49649 		.ascii	"\212\324\226I\367'\322\205\372\247\362w\311\006(\367"
 163      F727D285 
 163      FAA7F277 
 163      C90628F7 
 164 01ab 613E6FF0 		.ascii	"a>o\360\036\314\351\346\317\362\303\010\311\374\333"
 164      1ECCE9E6 
 164      CFF2C308 
 164      C9FCDB
 165 01ba 5211ED2B 		.ascii	"R\021\355+\2639\036\215\237\216B\003v\304\273{\025\370"
 165      B3391E8D 
 165      9F8E4203 
 165      76C4BB7B 
 165      15F8
 166 01cc 57159FB6 		.ascii	"W\025\237\266=\313u'\344\027\265}\002\270Y<h\207\003"
 166      3DCB7527 
 166      E417B57D 
 166      02B8593C 
 166      688703
 167 01df 1AAFB006 		.ascii	"\032\257\260\006\2577\362\241\216X\307m\016\321\235"
 167      AF37F2A1 
 167      8E58C76D 
 167      0ED19D
 168 01ee 0123D6EA 		.ascii	"\001#\326\352\275\312!\033\322\305[+m\210lA\352k\025"
 168      BDCA211B 
 168      D2C55B2B 
 168      6D886C41 
 168      EA6B15
 169 0201 B42141D7 		.ascii	"\264!A\327\347\256oU\326\035Z\310-\255x\323\231\255"
 169      E7AE6F55 
 169      D61D5AC8 
 169      2DAD78D3 
 169      99AD
 170 0213 9B68E2CC 		.ascii	"\233h\342\314m\335\334T!\242\325\177u%j\227\012\323"
 170      6DDDDC54 
 170      21A2D57F 
 170      75256A97 
 170      0AD3
 171 0225 C1EDA168 		.ascii	"\301\355\241h>\366\006\362\244\3310\327\240)\\\315z"
ARM GAS  /tmp/cc4zkXz1.s 			page 13


 171      3EF606F2 
 171      A4D930D7 
 171      A0295CCD 
 171      7A
 172 0236 2DEB80A4 		.ascii	"-\353\200\244\002{\373a?q\344\007\037\203\374\261Q\206"
 172      027BFB61 
 172      3F71E407 
 172      1F83FCB1 
 172      5186
 173 0248 5FEEE14B 		.ascii	"_\356\341KzR=\225\321\223\372\351\301\013}\361X_\254"
 173      7A523D95 
 173      D193FAE9 
 173      C10B7DF1 
 173      585FAC
 174 025b 5F5547C7 		.ascii	"_UG\307\324\334\270:\226K\251\251L6\235M\215\346\322"
 174      D4DCB83A 
 174      964BA9A9 
 174      4C369D4D 
 174      8DE6D2
 175 026e B114F8D2 		.ascii	"\261\024\370\322#\303\264\213\365\333\316Q\377H\372"
 175      23C3B48B 
 175      F5DBCE51 
 175      FF48FA
 176 027d CA38F7E2 		.ascii	"\3128\367\342\216w\314\361\216;\336\011\274\374\033"
 176      8E77CCF1 
 176      8E3BDE09 
 176      BCFC1B
 177 028c 6A0A5223 		.ascii	"j\012R#"
 178              		.text
 179              		.section	.gnu.lto_chCoreAlloc.ac29710df2be475b,"",%progbits
 180 0000 789C6362 		.ascii	"x\234cb`b@\007\322@\\\306\310\300\240\007\342\26000"
 180      60624007 
 180      D2405CC6 
 180      C8C0A007 
 180      E2B03030 
 181 0014 02553032 		.ascii	"\002U0212\003IfF\2400\003#C=\0233c}$\210\315\300\244"
 181      31320349 
 181      6646A030 
 181      0323433D 
 181      1333637D 
 182 002d C4B0B0A1 		.ascii	"\304\260\260\241a\326\203\326\3373$\273\0264Mh\370\367"
 182      61D683D6 
 182      DF3324BB 
 182      16344D68 
 182      F8F7
 183 003f FF3F6326 		.ascii	"\377?c&H*\231\221!\002\310bT\000SL,\250\226\200\265"
 183      482A9991 
 183      2102C862 
 183      5400534C 
 183      2CA89680 
 184 0054 4D3AB0F7 		.ascii	"M:\260\367x\217d\003\2226&\006]F\002:\3273\035x\360"
 184      788F6403 
 184      92362606 
 184      5D46023A 
 184      D7331D78 
 185 0069 FFFF9DDD 		.ascii	"\377\377\235\335\013\036\275e\024dad\314\005\351Jd\\"
 185      0B1EBD65 
ARM GAS  /tmp/cc4zkXz1.s 			page 14


 185      14646164 
 185      CC05E94A 
 185      645C
 186 007b C4A8C4C0 		.ascii	"\304\250\304\300\314\000\266\231\201\225\241\245\241"
 186      CC00B699 
 186      8195A1A5 
 186      A1
 187 0088 61820244 		.ascii	"a\202\002D\020\354\022 \010\001\223\241 \3570\237gh"
 187      10EC1220 
 187      080193A1 
 187      20EF309F 
 187      6768
 188 009a 7EF0A299 		.ascii	"~\360\242\231=\221q\011#+P\260\232\341WCG\203@&#s2\330"
 188      3D917109 
 188      232B50B0 
 188      9AE15743 
 188      47834026 
 189 00b2 870C4073 		.ascii	"\207\014@s\200\266\236ghy\360r1#DU:#\023\\\031k2#$\330"
 189      80B69E67 
 189      6879F072 
 189      31234455 
 189      3A23135C 
 190 00cc D219810E 		.ascii	"\322\031\201\016d\003\251l~\360\3520V\363\230\021\346"
 190      6403A96C 
 190      7EF0EA30 
 190      56F39811 
 190      E6
 191 00dd 9D65683A 		.ascii	"\235eh:9\343\267\004\314<\346t\250)@G\001U1\237fh\344"
 191      39E3B704 
 191      CC3CE674 
 191      A8294047 
 191      0155319F 
 192 00f4 60604801 		.ascii	"``H\001\271\340\"\003\334V\210~\240\353\201\302 \345"
 192      B9E02203 
 192      DC56887E 
 192      A0EB81C2 
 192      20E5
 193 0106 5A399949 		.ascii	"Z9\231I\372\316\031\231I\231\376\301\361\206fz\206z"
 193      FACE1999 
 193      4999FEC1 
 193      F186667A 
 193      867A
 194 0118 26FAFAF9 		.ascii	"&\372\372\371\305\372E%\372\305E\311\372\311\031\271"
 194      C5FA4525 
 194      FAC545C9 
 194      FAC919B9 
 195 0128 A9B9C9F9 		.ascii	"\251\271\311\371E\251z\311\014\214\005\000qba+"
 195      45A97AC9 
 195      0C8C0500 
 195      7162612B 
 196              		.text
 197              		.section	.gnu.lto_chCoreGetStatusX.ac29710df2be475b,"",%progbits
 198 0000 789C6362 		.ascii	"x\234cb`b@\007\322@\334\013\024\016\003qX\030\030\201"
 198      60624007 
 198      D240DC0B 
 198      140E0371 
 198      58181881 
ARM GAS  /tmp/cc4zkXz1.s 			page 15


 199 0014 4C462646 		.ascii	"LF&Ff \311\314\310\010\024bd\250gbf\254\217\004\261"
 199      6620C9CC 
 199      C8081462 
 199      64A86762 
 199      66AC8F04 
 200 0029 19D89418 		.ascii	"\031\330\224\030\02664\314zpt\375L\311\256\005M\023"
 200      163634CC 
 200      7A7074FD 
 200      4CC9AE05 
 200      4D13
 201 003b 1AFEFDFF 		.ascii	"\032\376\375\377\317\230\011\222Jfd\210\000\262\030"
 201      CF980992 
 201      4A666488 
 201      00B218
 202 004a 15C01413 		.ascii	"\025\300\024\023\013\252%`m\223\032\276>\0118\321\320"
 202      0BAA2560 
 202      6D931ABE 
 202      3E0938D1 
 202      D0
 203 005b 72E0FF7F 		.ascii	"r\340\377\177\373LFf&\006]Fb\264Mh\330\264\242\201s"
 203      FB4C4666 
 203      26065D46 
 203      62B44D68 
 203      D8B4A281 
 204 0070 41C39FFF 		.ascii	"A\303\237\377\377\2313\031Y\230\030\314\211\3226\011"
 204      FF993319 
 204      599818CC 
 204      89D23609 
 205 0080 451BD036 		.ascii	"E\033\3206G\362l\363!G\033\241\360X\317t\340\301\377"
 205      47F26CF3 
 205      21471BA1 
 205      F058CF74 
 205      E0C1FF
 206 0093 FF7BAEFF 		.ascii	"\377{\256\377yx\202Q\210\235\221!\221q\021\243\0220"
 206      79788251 
 206      889D9121 
 206      917111A3 
 206      1230
 207 00a5 72121997 		.ascii	"r\022\031\227\000if \275\014H\263\000\351\025@\232\225"
 207      00696620 
 207      BD0C48B3 
 207      00E91540 
 207      9A95
 208 00b7 0168241B 		.ascii	"\001h$\033\0038\234\201\234\026\240u\012`\033\200 \004"
 208      03389C81 
 208      9C16A075 
 208      0A601B80 
 208      2004
 209 00c9 4C8682A2 		.ascii	"L\206\202\242\215\371,C\323\311\033\353/2'2\256fdeH"
 209      8DF92C43 
 209      D3C91BEB 
 209      2F322732 
 209      AE666465 
 210 00de 67649CCD 		.ascii	"gd\234\3150\253\261\241A\000\350\375j\206_\015\035 "
 210      30ABB1A1 
 210      4100E8FD 
 210      6A865F0D 
ARM GAS  /tmp/cc4zkXz1.s 			page 16


 210      1D20
 211 00f0 166B2E58 		.ascii	"\026k.X\003\310Q\254P\307\000\265\275\206\353aJ\007"
 211      03C851AC 
 211      50C700B5 
 211      BD86EB61 
 211      4A07
 212 0102 C53A50C8 		.ascii	"\305:P\310\023&\302\214\335\024F|\246\260\244\203R\320"
 212      1326C28C 
 212      DD14467C 
 212      A6B0A483 
 212      52D0
 213 0114 5986E64E 		.ascii	"Y\206\346N\270\020+\330l\026\260\302w\315|0a\266t\230"
 213      B8102BD8 
 213      6C16B0C2 
 213      77CD7C30 
 213      61B67498 
 214 0128 09A1202D 		.ascii	"\011\241 -\314\247\031\0329\030\030R@\376\271\310\300"
 214      CCA7191A 
 214      39181852 
 214      40FEB9C8 
 214      C0
 215 0139 08570551 		.ascii	"\010W\005Q\022\002\262\025\224\204\265r2\223\364\235"
 215      1202B215 
 215      9484B572 
 215      3293F49D 
 216 0149 33329332 		.ascii	"32\2232\375\203\343\015\315\364\014\365L\364\365\363"
 216      FD83E30D 
 216      CDF40CF5 
 216      4CF4F5F3 
 217 0159 8BF58B4A 		.ascii	"\213\365\213J\364\213\213\222\365\2233rSs\223\363\213"
 217      F48B8B92 
 217      F5933372 
 217      537393F3 
 217      8B
 218 016a 52F59219 		.ascii	"R\365\222\0318S\363R\200<=C\0038\313\220+/\265\242\004"
 218      3853F352 
 218      803C3D43 
 218      0338CB90 
 218      2B2FB5A2 
 219 017f CC344230 		.ascii	"\3144B0\215\001\346#\246\024"
 219      8D01E623 
 219      A614
 220              		.text
 221              		.section	.gnu.lto_.symbol_nodes.ac29710df2be475b,"",%progbits
 222 0000 789C4DCC 		.ascii	"x\234M\3149R\303@\020\205\341\367\2725f\2210\333\001"
 222      3952C340 
 222      1085E1F7 
 222      BA356691 
 222      30DB01
 223 0013 B892AFC0 		.ascii	"\270\222\257\300I\236\012W\271\034\222\370\002v\000"
 223      499E0A57 
 223      B91C92F8 
 223      027600
 224 0022 E7103921 		.ascii	"\347\0209!1\007 a1x\301\262%\015\305h\222\277\276\351"
 224      31072061 
 224      3178C1B2 
 224      250DC568 
ARM GAS  /tmp/cc4zkXz1.s 			page 17


 224      92BFBEE9 
 225 0036 99361846 		.ascii	"\2316\030FD<\266\207\200\373g@\232Mo\255\244\330\343"
 225      443CB687 
 225      80FB6740 
 225      9A4D6FAD 
 225      A4D8E3
 226 0049 03653D3E 		.ascii	"\003e=>R\236\030v\315\026!\354\311Ln\237T\3667|\231"
 226      529E1876 
 226      CD1621EC 
 226      C94C6E9F 
 226      54F6377C 
 227 005e 32FCD0DA 		.ascii	"2\374\320\332\341;} \017+f\255>\030\032\331\222\012"
 227      E13B7D20 
 227      0F2B66AD 
 227      3E181AD9 
 227      920A
 228 0070 E9A97D51 		.ascii	"\351\251}Q\203\036\277\251\243Dn\250\343\310\262$\327"
 228      831EBFA9 
 228      A3446EA8 
 228      E3C8B224 
 228      D7
 229 0081 D449524D 		.ascii	"\324IRM\235&\375Ry\322\226*\222J\323\331\277\334\200"
 229      9D26FD52 
 229      79D2962A 
 229      924AD3D9 
 229      BFDC80
 230 0094 BBD7BAE9 		.ascii	"\273\327\272\3519\026]\207xj\353W\030w\275\214\367~"
 230      39165D87 
 230      786AEB57 
 230      1877BD8C 
 230      F77E
 231 00a6 81C5E4ED 		.ascii	"\201\305\344\355\306\235\250\332\346\327q^X\374_\344"
 231      C69DA8DA 
 231      E6D7715E 
 231      58FC5FE4 
 232 00b6 98777554 		.ascii	"\230wuTMq\000zDh\026"
 232      4D71007A 
 232      446816
 233              		.text
 234              		.section	.gnu.lto_.refs.ac29710df2be475b,"",%progbits
 235 0000 789C2587 		.ascii	"x\234%\207\301\021\000 \010\303J\005A<\007q\377\005"
 235      C1110020 
 235      08C34A05 
 235      413C0771 
 235      FF05
 236 0012 454D3E09 		.ascii	"EM>\011Al|\254A\251(i\332\351\022\034\2226\221\210k"
 236      416C7CAC 
 236      41A92869 
 236      DAE9121C 
 236      92369188 
 237 0027 FD7A7D00 		.ascii	"\375z}\000\025\345\000\335"
 237      15E500DD 
 238              		.text
 239              		.section	.gnu.lto_.decls.ac29710df2be475b,"",%progbits
 240 0000 789CBD5C 		.ascii	"x\234\275\\\013t\024U\232\256\252\356\364#i\222\340"
 240      0B741455 
 240      9AAEAAEE 
ARM GAS  /tmp/cc4zkXz1.s 			page 18


 240      F4236992 
 240      E0
 241 0011 ECB8308B 		.ascii	"\354\2700\213\232\2313\263g\307]\011\370\304\231\035"
 241      9A9933B3 
 241      67C75D09 
 241      F8C4991D 
 242 0021 C16156F1 		.ascii	"\301aV\361\3548;+\353\256\273s\234\266\322)H\017\335"
 242      EC383B2B 
 242      EBAEBB73 
 242      9CB6D229 
 242      480FDD
 243 0034 9D9EEA0A 		.ascii	"\235\236\352\012\217\331=\307\"\201\310\303\301\010"
 243      8FD93DC7 
 243      2281C8C3 
 243      C108
 244 0042 22882841 		.ascii	"\"\210(A\004EYP^\032DR0\002\001F\014\004H$\012m\020"
 244      04455950 
 244      5E1A4452 
 244      30020146 
 244      0C044824 
 245 0059 0746C420 		.ascii	"\007F\304 \017\003\023\315\376\367\257[\335U\325U\235"
 245      0F0313CD 
 245      FEF7AF5B 
 245      DD55D555 
 245      9D
 246 006a AAA8DB27 		.ascii	"\252\250\333'\367\366\355[\367~\377\363\376\367QU\341"
 246      F7F6ED5B 
 246      F77EFFF3 
 246      FEF75155 
 246      E1
 247 007b 188E613C 		.ascii	"\030\216a<\014\323\007\237\361w1\014\023\304?\346\016"
 247      0CD3079F 
 247      F177310C 
 247      13C43FE6 
 247      0E
 248 008c 26FB2986 		.ascii	"&\373)\206\264\034\322*H\253!\255\201\264\016\322zH"
 248      B41CD22A 
 248      48AB21AD 
 248      81B40ED2 
 248      7A48
 249 009e 5B212990 		.ascii	"[!)\220\336\202\264\013R\013\244\003\220\332 \035\206"
 249      DE82B40B 
 249      520BA403 
 249      90DA201D 
 249      86
 250 00af E483D40E 		.ascii	"\344\203\324\016\351& \363#H?\2014\006\322O9\306\360"
 250      E92620F3 
 250      23483F81 
 250      3406D24F 
 250      39C6F0
 251 00c2 21F80590 		.ascii	"!\370\005\220z)\275\020\244\237A\233\273h;\216\266\031"
 251      7A29BD10 
 251      A49F419B 
 251      BB683B8E 
 251      B619
 252 00d4 67EAC750 		.ascii	"g\352\307P\276\372\353\273\312\246\357jz\375_!{\216"
 252      BEFAEBBB 
ARM GAS  /tmp/cc4zkXz1.s 			page 19


 252      CAA6EF6A 
 252      7AFD5F21 
 252      7B8E
 253 00e6 D67969FD 		.ascii	"\326yi\375r*\323[\271\335P\007\245\220>\321\321\364"
 253      722AD35B 
 253      B9DD5007 
 253      A5903ED1 
 253      D1F4
 254 00f8 EB703E82 		.ascii	"\353p>\202t\034R\007\244\373\240n<\244\313P>\013\351"
 254      741C5207 
 254      A4FBA06E 
 254      3CA4CB50 
 254      3E0BE9
 255 010b DFA07C3F 		.ascii	"\337\240|?\244=\224\357c\220NB:\003i\033\3130=\264~"
 255      A43D94EF 
 255      63904E42 
 255      3A03691B 
 255      CB303DB4 
 256 0120 0DD5E301 		.ascii	"\015\325\343\001\252\327U\224W\242\313v\023?\353(\375"
 256      AAD75594 
 256      57A2CB76 
 256      133FEB28 
 256      FD
 257 0131 021D3F77 		.ascii	"\002\035?w@\273\037C\372wH\377Aegi[\"\343O\250\035~"
 257      40BB1F43 
 257      FA7748FF 
 257      41656769 
 257      5B22E34F 
 258 0148 446DA2FF 		.ascii	"Dm\242\377\020\333\026Z\340\221~\243urnb\262\330\034"
 258      10DB165A 
 258      E0917EA3 
 258      75726E62 
 258      B2D81C
 259 015b ED775887 		.ascii	"\355wX\207\337\304\2504\0360\341o\245\374\216\326\341"
 259      DFC4A834 
 259      1E30E16F 
 259      A5FC8ED6 
 259      E1
 260 016c 6B98FF09 		.ascii	"k\230\377\011\337\033t\266\330J\355\261\236\352\204"
 260      DF1B74B6 
 260      D84AEDB1 
 260      9EEA84
 261 017b 406D83F4 		.ascii	"@m\203\364_&L\205Q\375m\223\005\317z\371I;\017\345\213"
 261      5F264C85 
 261      51FD6D93 
 261      05CF7AF9 
 261      493B0FE5 
 262 0190 F0F82B13 		.ascii	"\360\370+\023\316u\314\263\262\322\232\236\371\321\011"
 262      CE75CCB3 
 262      B2D29A9E 
 262      F9D109
 263 019f EE295999 		.ascii	"\356)Y\231!\303\320\220\331\262\253\231\2052|\032\353"
 263      21C3D090 
 263      D9B2AB99 
 263      85327C1A 
 263      EB
 264 01b0 65999578 		.ascii	"e\231\225x\366\216o3\017\260<[\034d\312\260\020\012"
ARM GAS  /tmp/cc4zkXz1.s 			page 20


 264      F68E6F33 
 264      0FB03C5B 
 264      1C64CAB0 
 264      100A
 265 01c2 221D86E1 		.ascii	"\"\035\206\341\331\347\330\253i\351~\217\246\231\333"
 265      D9E7D8AB 
 265      69E97E8F 
 265      A699DB
 266 01d1 58E67A66 		.ascii	"X\346zf5\364o\220\345\347\276\3072V\237\277eV\022\012"
 266      35F46F90 
 266      E5E7BEC7 
 266      32569FBF 
 266      6556120A 
 267 01e5 F28BB207 		.ascii	"\362\213\262\007\361\011\302r\366:}\023\236]\301\032"
 267      F109C272 
 267      F63A7D13 
 267      9E5DC11A 
 268 01f5 B8557955 		.ascii	"\270UyU\032\216\207\032\246\247\373\372\2265\226\252"
 268      1A8E871A 
 268      A6A7FBFA 
 268      963596AA 
 269 0205 F439661C 		.ascii	"\3649f\034\013\255\237g\257\317\013\277\312\014\377"
 269      0BAD9F67 
 269      AFCF0BBF 
 269      CA0CFF
 270 0214 82157CBA 		.ascii	"\202\025|\272\243\376\375\002\235*4\022\017;!\261\332"
 270      A3FEFD02 
 270      9D2A3412 
 270      0F3B21B1 
 270      DA
 271 0225 4CE2254B 		.ascii	"L\342%K\011\226\266\347H0\233u\202\277\306\214\377\277"
 271      0996B6E7 
 271      48309B75 
 271      82BFC68C 
 271      FFBF
 272 0237 B9F88D4A 		.ascii	"\271\370\215J\272s\316;|V\004F\243\2418\242\261\316"
 272      BA73CE3B 
 272      7C560446 
 272      A3A138A2 
 272      B1CE
 273 0249 4CE3955C 		.ascii	"L\343\225\\\032\351Ve\321\336}\254<_\356\355\353\253"
 273      1AE95665 
 273      D1DE7DAC 
 273      3C5FEEED 
 273      EBAB
 274 025b F332267F 		.ascii	"\3632&\177\031]d\353/\033\250\277x\320\263!\374\316"
 274      195D64EB 
 274      2F1BA8BF 
 274      78D0B321 
 274      FCCE
 275 026d 92E55AD2 		.ascii	"\222\345Z\322q\\\013\270\261U\257\0370\317\203'\245"
 275      715C0BB8 
 275      B155AF1F 
 275      30CF8327 
 275      A5
 276 027e 5F9B77E4 		.ascii	"_\233w\344<[\013\370<\273\211\015B\357/M\322\360lA\320"
 276      3C5B0BF8 
ARM GAS  /tmp/cc4zkXz1.s 			page 21


 276      3CBB890D 
 276      42EF2F4D 
 276      D2F06C41 
 277 0293 C838FCD6 		.ascii	"\3108\374\326\032\020<\274L\013d\012(\321{-C\034w&g"
 277      1A103CBC 
 277      4C0B640A 
 277      28D17B2D 
 277      431C7726 
 278 02a8 84FC3EB3 		.ascii	"\204\374>\263B\226\347\247;\367\356\\\317.\250\223\307"
 278      4296E7A7 
 278      3BF7EE5C 
 278      CF2EA893 
 278      C7
 279 02b9 69A4E763 		.ascii	"i\244\347c\273\365\240(+\206\325V\232vk\345u\3653K\275"
 279      BBF5A028 
 279      2B86D556 
 279      9A766BE5 
 279      75F5334B 
 280 02ce A814264F 		.ascii	"\250\024&O/\312\363\353V\006U\266\354\246\016S\246j"
 280      2FCAF3EB 
 280      560655B6 
 280      ECA60E53 
 280      A66A
 281 02e0 90631659 		.ascii	"\220c\026Y\262*_\254\244L\362\354\026@\342\331\255\003"
 281      B22A5FAC 
 281      A44CF2EC 
 281      1640E2D9 
 281      AD03
 282 02f2 62D2AE17 		.ascii	"b\322\256\027e\362MK&?\237\363\350P\271\261V\351\353"
 282      65F24D4B 
 282      263F9FF3 
 282      E850B9B1 
 282      56E9EB
 283 0305 6B1E63F6 		.ascii	"k\036c\366\010B\314\316%\266[\204\220\025\234\245\253"
 283      0842CCCE 
 283      25B65B84 
 283      90159CA5 
 283      AB
 284 0316 D6CAEB5F 		.ascii	"\326\312\353_\224\203\032\357<\253\344\347s\207\205"
 284      94831AEF 
 284      3CABE4E7 
 284      738785
 285 0325 E736A43B 		.ascii	"\3476\244;\026\274\347yJ\336AF\307\303\231\261\361A"
 285      16BCE779 
 285      4ADE4146 
 285      C7C399B1 
 285      F141
 286 0337 0E411562 		.ascii	"\016A\025b\247%\304\301\366w\330\034\210g=\326\020\273"
 286      A725C4C1 
 286      F677D81C 
 286      88673DD6 
 286      10BB
 287 0349 ADB9A86F 		.ascii	"\255\271\250o\367f \234\307\333=\306\361S\304\314\311"
 287      F766209C 
 287      C7DB3DC6 
 287      F153C4CC 
 287      C9
ARM GAS  /tmp/cc4zkXz1.s 			page 22


 288 035a 8E1F3A98 		.ascii	"\216\037:\230\322+\225!\213\263\203)\240A\220@\214\203"
 288      D22B9521 
 288      8BB38329 
 288      A0419040 
 288      8C83
 289 036c 89C4652E 		.ascii	"\211\304e.\323X\0362\304\272-\317\276\315\376\000\362"
 289      D3581E32 
 289      C4BA2DCF 
 289      BECDFE00 
 289      F2
 290 037d FDAAA3E0 		.ascii	"\375\252\243\340%\265\254\225\372Xb\253\255\036\353"
 290      25B5AC95 
 290      FA5862AB 
 290      AD1EEB
 291 038c 10DF6F57 		.ascii	"\020\337oW;\031\367\261EY\010\303\000\335n\243\342V"
 291      3B19F7B1 
 291      455908C3 
 291      00DD6EA3 
 291      E256
 292 039e 6B2B2D3A 		.ascii	"k+-:\224k\245}6\020\007\255\255\324f\341+\247l \016"
 292      946BA57D 
 292      361007AD 
 292      ADD466E1 
 292      2BA76C20 
 293 03b3 594128BD 		.ascii	"YA(\275\373\037\225Y\034\275\327i\000Wl\000\216\030"
 293      FB1F9559 
 293      1CBDD769 
 293      00576C00 
 293      8E18
 294 03c5 01BEC72C 		.ascii	"\001\276\307,'<\274\326\3252\233\335\276RV\032\300="
 294      273CBCD6 
 294      D5329BDD 
 294      BE52561A 
 294      C03D
 295 03d7 BAD9BE3E 		.ascii	"\272\331\276>\377U\314\343\304]\312f\235\310jQyPSc\007"
 295      FF55CCE3 
 295      C45DCA66 
 295      9DC86A51 
 295      79505363 
 296 03ec D11E8D9A 		.ascii	"\321\036\215\232\307O(\327n\221e\230f:\330\253\200\362"
 296      C74F28D7 
 296      6E916598 
 296      663AD8AB 
 296      80F2
 297 03fe 9FBC46CA 		.ascii	"\237\274F\312\016\2208\346<v\352\004\000\265\253\352"
 297      0E9038E6 
 297      3C76EA04 
 297      00B5ABEA 
 298 040e 44C057EB 		.ascii	"D\300W\353\324\305\210M.1\026\022\321\317w\231Fh\257"
 298      D4C5884D 
 298      2E311612 
 298      D1CF7799 
 298      4668AF
 299 0421 3C736C29 		.ascii	"<sl)+7\356`5\232\272\200\237f5\222\303\364\274\367|"
 299      2B37EE60 
 299      359ABA80 
 299      9F663592 
ARM GAS  /tmp/cc4zkXz1.s 			page 23


 299      C3F4BCF7 
 300 0436 671BE21F 		.ascii	"g\033\342\037G\336\277\260\341\335\026\207c\346\024"
 300      47DEBFB0 
 300      E1DD1687 
 300      63E614
 301 0445 902E5DB9 		.ascii	"\220.]\271\234+\277Q9\357r\304y\333Q[\316\307h\004\003"
 301      9C2BBF51 
 301      39EF72C4 
 301      79DB515B 
 301      CEC76804 
 302 045a 06A57F67 		.ascii	"\006\245\177g\017\302\177\204\214/.\260d\274q\214\035"
 302      0FC27F84 
 302      8C2F2EB0 
 302      64BC718C 
 302      1D
 303 046b 0EC7BC88 		.ascii	"\016\307\274\210]N\3472\3363\\e\374\264\003\306k\225"
 303      5D4EE732 
 303      DE335C65 
 303      FCB403C6 
 303      6B95
 304 047d 73739F19 		.ascii	"ss\237\031J\0307\204\011+\233\313>\215\376CY9\216\235"
 304      4A183784 
 304      092B9BCB 
 304      3E8DFE43 
 304      59398E9D 
 305 0491 E8F1CB72 		.ascii	"\350\361\313r\200g\317\242\030M\326b\344\301\341\230"
 305      8067CFA2 
 305      184DD662 
 305      E4C1E198 
 306 04a1 1DD8E79C 		.ascii	"\035\330\347\234\205\353\214R\3458\347H\216E\363T9x"
 306      85EB8C52 
 306      E538E748 
 306      8E45F354 
 306      3978
 307 04b3 F6139085 		.ascii	"\366\023\220\205c\376\230\201\265\212!\264\250~h\003"
 307      63FE9881 
 307      B58A21B4 
 307      A87E6803 
 308 04c3 23DE92FD 		.ascii	"#\336\222\375\241\006^\003ks\015Vf\000[\266\177)2\347"
 308      A1065E03 
 308      6B730D56 
 308      66005BB6 
 308      7F2932E7 
 309 04d7 7C2D73F1 		.ascii	"|-s\361\2542\344M\024\3772\256'\226\370\214\232u\216"
 309      AC32E44D 
 309      14FF32AE 
 309      2796F88C 
 309      9A758E
 310 04ea B4F07CEB 		.ascii	"\264\360|\353\2205\210\324\213H\312\200\2216\\R\026"
 310      903588D4 
 310      8B48CA80 
 310      91365C52 
 310      16
 311 04fb B175B8BE 		.ascii	"\261u\270\276\352C\250\317}\346\365\225\337\264\276"
 311      EA43A8CF 
 311      7DE6F595 
 311      DFB4BE
ARM GAS  /tmp/cc4zkXz1.s 			page 24


 312 050a F21BD757 		.ascii	"\362\033\327W\376`\266@\327W\337ls\216\251\365;0]\300"
 312      FE60B640 
 312      D757DF6C 
 312      738EA9F5 
 312      3B305DC0 
 313 051e CE0FE4F4 		.ascii	"\316\017\344\364\346.\345v\262P\366hC\322g\247%X\241"
 313      E62EE576 
 313      B250F668 
 313      43D267A7 
 313      2558A1
 314 0531 23AD199C 		.ascii	"#\255\031\234\311\225\333\256\264\374Puer\251\177W\336"
 314      C995DBAE 
 314      B4FC5075 
 314      6572A97F 
 314      57DE
 315 0543 B47791FD 		.ascii	"\264w\221\375\220\324Qo\3444\362\337G\362;\220\374l"
 315      90D4516F 
 315      E434F2DF 
 315      47F23B90 
 315      FC6C
 316 0555 33F9957D 		.ascii	"3\371\225}\333Y\034\243\263\035Q?p\360\211\\\352\266"
 316      DB591CA3 
 316      B31D513F 
 316      70F0895C 
 316      EAB6
 317 0567 0B0EEA1A 		.ascii	"\013\016\352\032mWN\015[\206\"\376\236#\003f\277\337"
 317      6D574E0D 
 317      5B8622FE 
 317      9E230366 
 317      BFDF
 318 0579 EC19A38B 		.ascii	"\354\031\243\213\364\264\360\267\256\001\307\264g\230"
 318      F4B4F0B7 
 318      AE01C7B4 
 318      6798
 319 0587 1FD0784D 		.ascii	"\037\320xM\257|i/nO=\032\013G]\003\226\031\364p\350"
 319      AF7C692F 
 319      6E4F3D1A 
 319      0B475D03 
 319      9619F470 
 320 059c 20060015 		.ascii	" \006\000\025\354}'`\266^T\253\034\321\203\245]\203"
 320      EC7D2760 
 320      B65E54AB 
 320      1CD183A5 
 320      5D83
 321 05ae 1939EBD0 		.ascii	"\0319\353\320\203\235p\002Vj\317\331Q=\330G\256\301"
 321      839D7002 
 321      566ACFD9 
 321      513DD847 
 321      AEC1
 322 05c0 8C9CBDA7 		.ascii	"\214\234\275\247\007;\355\004l\210=g\307\364`\237\270"
 322      073BED04 
 322      6C883D67 
 322      C7F4609F 
 322      B8
 323 05d1 063372D6 		.ascii	"\0063r\326\255\007;\347\004\254\314\202\263\314\307"
 323      AD073BE7 
 323      04ACCC82 
ARM GAS  /tmp/cc4zkXz1.s 			page 25


 323      B3CCC7
 324 05e0 6E5D3A8B 		.ascii	"n]:\213\313\2709\307\\\310\204\003\227.\315d1z\\\207"
 324      CBB839C7 
 324      5CC88403 
 324      972ECD64 
 324      317A5C87 
 325 05f4 2F83DC64 		.ascii	"/\203\334d\032\275}\313zY\236\355\323\346\262/\235 "
 325      1ABD7DCB 
 325      7A599EED 
 325      D3E6B22F 
 325      9D20
 326 0606 E67198CD 		.ascii	"\346q\230\315\372\211\261>\340\026\314h\226C*\330>\004"
 326      FA89B13E 
 326      E016CC68 
 326      96432AD8 
 326      3E04
 327 0618 9BE7042C 		.ascii	"\233\347\004,\217\303t\0230\253\355\216R/\317b\247\277"
 327      8FC37413 
 327      30ABED8E 
 327      522FCF62 
 327      A7BF
 328 062a 3A2CEF92 		.ascii	":,\357\222\014B\3305/a\010{\231#\223\333\302\200\345"
 328      0C42D835 
 328      2F61087B 
 328      992393DB 
 328      C280E5
 329 063d 3CE9086B 		.ascii	"<\351\010k\341\371\356\241\352\234\273\026\261\032\007"
 329      E1F9EEA1 
 329      EA9CBB16 
 329      B11A07
 330 064c 8ED5B8E1 		.ascii	"\216\325\270\341R\213\007\303\367\253\010\265:`\216"
 330      528B07C3 
 330      F7AB08B5 
 330      3A608E
 331 065b AC41D39C 		.ascii	"\254A\323\234\0334\316\212\301`\266\320\247}\214\333"
 331      1B34CE8A 
 331      C160B6D0 
 331      A77D8CDB 
 332 066b B16FB48F 		.ascii	"\261o\264\217\335PyI?T6\2726\275\321\3157w\235\372\361"
 332      DD507949 
 332      3F5436BA 
 332      36BDD1CD 
 332      37779DFA 
 333 0680 225999EE 		.ascii	"\"Y\231\356\321\355Y\363np\311\012\353T;]\315lF\315"
 333      D1ED59F3 
 333      6E70C90A 
 333      EB543B5D 
 333      CD6C46CD 
 334 0694 365B1BC9 		.ascii	"6[\033\311\001\024,\2616\321\203\247&\204j\0310\324"
 334      01142CB1 
 334      36D183A7 
 334      26846A19 
 334      30D4
 335 06a6 864BE93A 		.ascii	"\206K\351:\312\325V\204j\315\2617k\2627k\264Cf\017M"
 335      CAD55684 
 335      6ACDB137 
 335      6BB2376B 
ARM GAS  /tmp/cc4zkXz1.s 			page 26


 335      B443660F 
 336 06bb B7D0DF54 		.ascii	"\267\320\337T[\230a\315F3\010\224'\214fbS\313?6\255"
 336      5B9861CD 
 336      46330894 
 336      278C6662 
 336      53CB3F36 
 337 06d0 95E53A9F 		.ascii	"\225\345:\237\033\253\2455\253mG\375t\345\350\207\230"
 337      1BABA535 
 337      AB6D47FD 
 337      74E5E887 
 337      98
 338 06e1 C09D207F 		.ascii	"\300\235 \177v-H\300$H\367\000\004\351\326\004\331\205"
 338      762D48C0 
 338      2448F700 
 338      04E9D604 
 338      D985
 339 06f3 827CF635 		.ascii	"\202|\3665\010r\305\265 \245:A\310\246\253\345\027M"
 339      0872C5B5 
 339      20A53A41 
 339      C8A6ABE5 
 339      174D
 340 0705 385B7C8B 		.ascii	"8[|\213\231\237\177\265\213\2470\334\267\014KM\345\342"
 340      999F7FB5 
 340      8BA730DC 
 340      B70C4B4D 
 340      E5E2
 341 0717 3BE4349C 		.ascii	";\3444\234T\367\277c^pP\267'\222\235\355\211Z\350\236"
 341      54F7BF63 
 341      5E7050B7 
 341      27929DED 
 341      895AE89E 
 342 072b 683F6A6C 		.ascii	"h?jlz\320b\2249Aj\\x\276\203\303\230z\000\201\036\031"
 342      7AD06294 
 342      39416A5C 
 342      78BE83C3 
 342      987A0081 
 343 0741 28100CD7 		.ascii	"(\020\014\327\236zj\305C\010\365X\320lE\237\311\210"
 343      9E7A6AC5 
 343      4308F558 
 343      D06C459F 
 343      C988
 344 0753 3EA311E1 		.ascii	">\243\021\341'\241\325\203\321\362aZC~\370\231\377\367"
 344      27A1D583 
 344      D1F2615A 
 344      437EF899 
 344      FFF7
 345 0765 7E1CF314 		.ascii	"~\034\363\024\262O\0148\220U8\036\233\334\323D\227\033"
 345      B24F0C38 
 345      9055381E 
 345      9BDCD344 
 345      971B
 346 0777 AA911ABF 		.ascii	"\252\221\032\277\022b\255\322<_\333\327\217&k\204\325"
 346      1262ADD2 
 346      3C5FDBD7 
 346      8F266B84 
 346      D5
 347 0788 5F110E57 		.ascii	"_\021\016W\250\2065\202i\237s\326f\016\312\034\334\244"
ARM GAS  /tmp/cc4zkXz1.s 			page 27


 347      A8863582 
 347      699F73D6 
 347      660ECA1C 
 347      DCA4
 348 079a E96EFA18 		.ascii	"\351n\372\030.%_\311\261\367'\254i\247C*tM\354\006\323"
 348      2E255FC9 
 348      B1F727AC 
 348      69A7432A 
 348      744DEC06 
 349 07af FBFAF9F0 		.ascii	"\373\372\371\360\017_ML\022\221\376Y]\366\365\267\211"
 349      0F5F4D4C 
 349      1291FE59 
 349      5DF6F5B7 
 349      89
 350 07c0 7C48430B 		.ascii	"|HC\013!\341=H\370C\363\036\362\375\265\037"
 350      21E13D48 
 350      F843F31E 
 350      F2FDB51F 
 351 07d0 D4D319EE 		.ascii	"\324\323\031\356C\007\273HY\351<\031\224\347\207\264"
 351      4307BB48 
 351      59E93C19 
 351      94E787B4 
 352 07e0 E3ADE985 		.ascii	"\343\255\351\205\032\252\325B\247_\267R\216\011-#\334"
 352      1AAAD542 
 352      A75FB752 
 352      8E092D23 
 352      DC
 353 07f1 C4895334 		.ascii	"\304\211S4N\374\031]pv\241\331F\007\314\221\325\325"
 353      4EFC195D 
 353      7076A1D9 
 353      4607CC91 
 353      D5D5
 354 0803 2079CC2C 		.ascii	" y\314,\215\323\315`\346c\347\003'\364>\260\260\360"
 354      8DD3CD60 
 354      E663E703 
 354      27F43EB0 
 354      B0F0
 355 0815 ABFA40CF 		.ascii	"\253\372@\317\317\235\371\200\2349\023-E\312K\221\362"
 355      CF9DF980 
 355      9C39132D 
 355      45CA4B91 
 355      F2
 356 0826 39B3133C 		.ascii	"9\263\023<\275a\317#\354tt\202s\216\234\340\242\301"
 356      BD61CF23 
 356      EC747482 
 356      738E9CE0 
 356      A2C1
 357 0838 095A33A8 		.ascii	"\011Z3\250\003q\202Z\345\362\351=,\302\251[\217\016"
 357      0371825A 
 357      E5F2E93D 
 357      2CC2A95B 
 357      8F0E
 358 084a 339CCB2D 		.ascii	"3\234\313-y/\370\224;\305\250\356\245\274{\222LrW8\""
 358      792FF894 
 358      3BC5A8EE 
 358      A5BC7B92 
 358      4C725738 
ARM GAS  /tmp/cc4zkXz1.s 			page 28


 359 085f 533AC7B5 		.ascii	"S:\307\265T\315\350\\+\253F\236=\317\221\273%\027\270"
 359      54CDE85C 
 359      2BAB469E 
 359      3DCF91BB 
 359      2517B8
 360 0872 EF427E09 		.ascii	"\357B~\011\363\036\310\373u\213\313z\2678\345Z\3562"
 360      F31EC8FB 
 360      758BCB7A 
 360      B738E55A 
 360      EE32
 361 0884 87DED7AD 		.ascii	"\207\336\327\255'\363\351W\364\276\315]=\367\342y\214"
 361      27F3E957 
 361      F4BECD5D 
 361      3DF7E279 
 361      8C
 362 0895 9B33CF0E 		.ascii	"\2333\317\016:ne\017\031\267\227r\224\333k^\373::\001"
 362      3A6E650F 
 362      19B79772 
 362      94DB6B5E 
 362      FB3A3A01 
 363 08a9 2C1AA024 		.ascii	",\032\240$\231\017\204\220\"\007\373\2232\013\245g\346"
 363      990F8490 
 363      2207FB93 
 363      320BA567 
 363      E6
 364 08ba C56EBAB0 		.ascii	"\305n\272\260\352\367\03013\321\264\014mAe\324{\210"
 364      EAF71831 
 364      33D1B40C 
 364      6D4165D4 
 364      7B88
 365 08cc A7FDBEC8 		.ascii	"\247\375\276\310\372\016A\236\343\310\245\330e\266'"
 365      FA0E419E 
 365      E3C8A5D8 
 365      65B627
 366 08db F7D606BD 		.ascii	"\367\326\006\275C@.\365\177 \3306W\177\262\316\263\027"
 366      43402EF5 
 366      7F20D836 
 366      577FB2CE 
 366      B317
 367 08ed F1AE31E9 		.ascii	"\361\2561\351;P}\032L\230\345\217g\347z\310\370x\324"
 367      3B507D1A 
 367      4C98E58F 
 367      67E77AC8 
 367      F878D4
 368 0900 A31B131C 		.ascii	"\243\033\023\034\263\306\211\356\377\316\316\023e\345"
 368      B3C689EE 
 368      FFCECE13 
 368      65E5
 369 090e 729B7A6B 		.ascii	"r\233zkF\213C\233\315xVq\310\200g\260\245\322p\004\317"
 369      468B439B 
 369      CD785671 
 369      C88067B0 
 369      A5D27004 
 370 0923 2CD4E5CD 		.ascii	",\324\345\315v'\314\215\260\003\253U\226\252`\252\303"
 370      7627CC8D 
 370      B003AB55 
 370      96AA60AA 
ARM GAS  /tmp/cc4zkXz1.s 			page 29


 370      C3
 371 0934 EF760236 		.ascii	"\357v\0026\312N\322Z\345\215'5Ku\343\342\344\240k<#"
 371      CA4ED25A 
 371      E58D2735 
 371      4B75E3E2 
 371      E4A06B3C 
 372 0949 736D4796 		.ascii	"smG\226R<\365&\304{N\360\306\330\363w\356I\303Z\356"
 372      523CF526 
 372      C47B4EF0 
 372      C6D8F377 
 372      EE49C35A 
 373 095e 4FAEE18C 		.ascii	"O\256\341\214\206\370\342\0101\354\243C,\357Pf\"795"
 373      86F8E208 
 373      31ECA343 
 373      2CEF5066 
 373      22373935 
 374 0972 A063AAB9 		.ascii	"\240c\252\271\371\334Pu\261\3764\216\251\247B\016nu"
 374      F9DC5075 
 374      B1FE348E 
 374      A9A7420E 
 374      6E75
 375 0984 1A8088C3 		.ascii	"\032\200\210\303>k\032P\312\253\273B\262W\255\357\177"
 375      3E6B1A50 
 375      CAABBB42 
 375      B257ADEF 
 375      7F
 376 0995 346DD8E5 		.ascii	"4m\330\345\376VP\213\266S\\\216n\262&\364\265\304\305"
 376      FE56508B 
 376      B6535C8E 
 376      6EB226F4 
 376      B5C4C5
 377 09a8 8D08F3AC 		.ascii	"\215\010\363\254\373qL#|s\363\201\241\332Z_e\254\311"
 377      FB714C23 
 377      7C73F381 
 377      A1DA5A5F 
 377      65ACC9
 378 09bb 35A2D1DF 		.ascii	"5\242\321\3376\357\302\301\240\2025;\001\3133\277\277"
 378      36EFC2C1 
 378      A082353B 
 378      01CB33BF 
 378      BF
 379 09cc 4EC0DC68 		.ascii	"N\300\334h\271\233N>/!\371\267\276\036%\357s-\205A%"
 379      B99B4E3E 
 379      2F21F9B7 
 379      BE1E25EF 
 379      732D8541 
 380 09e1 A0E4D343 		.ascii	"\240\344\323C\2336\312\362\253\017\2719\177\274x\266"
 380      9B36CAF2 
 380      AB0FB939 
 380      7FBC78B6 
 381 09f1 55739975 		.ascii	"Us\231u(\315\3339\322\2545/\201\035\036\347q\314\021"
 381      28CDDB39 
 381      D2AC352F 
 381      811D1EE7 
 381      71CC11
 382 0a04 B34856F1 		.ascii	"\263HV\361\323\352\000\331\352\243\037N<\273\014\343"
 382      D3EA00D9 
ARM GAS  /tmp/cc4zkXz1.s 			page 30


 382      EAA31F4E 
 382      3CBB0CE3 
 383 0a14 7FA387AC 		.ascii	"\177\243\207\254\214Vb\376\002\346\2531_k\234\027>\010"
 383      8C5662FE 
 383      02E6AB31 
 383      5F6B9C17 
 383      3E08
 384 0a26 99C28771 		.ascii	"\231\302\207q\250\322\3428\307\214doA\303B\015\037k"
 384      A8D2E238 
 384      C78C646F 
 384      41C3420D 
 384      1F6B
 385 0a38 B9C0E242 		.ascii	"\271\300\342B\015\363\036\314\353p\321\266\002\363\225"
 385      0DF31ECC 
 385      EB70D1B6 
 385      02F395
 386 0a47 98BF80F9 		.ascii	"\230\277\200\371j\3147a\256`\276\023\363\275\230\317"
 386      6ACC3761 
 386      AE60BE13 
 386      F3BD98CF 
 387 0a57 44F6E761 		.ascii	"D\366\347a\336\200\371|\314\237\300\374I\314\027c\276"
 387      DE80F97C 
 387      CC9FC0FC 
 387      49CC1763 
 387      BE
 388 0a68 442FA2DD 		.ascii	"D/\242\335:\315\264\241\324f\344\323\003\275\327M\216"
 388      3ACDB4A1 
 388      D466E4D3 
 388      03BDD74D 
 388      8E
 389 0a79 7DCAF537 		.ascii	"}\312\3657\011x\366s\327\210e\371T{Z\247\332\217Q\265"
 389      0978F673 
 389      D78865F9 
 389      547B5AA7 
 389      DA8F51B5 
 390 0a8d 67509D1B 		.ascii	"gP\235\033\215\026=\035\322\236\305\030\330\016\341"
 390      8D163D1D 
 390      D29EC518 
 390      D80EE1
 391 0a9c F051E37C 		.ascii	"\360Q\343|u\316\214\347*\204\310J\307Q\214G3p\251\337"
 391      75CE8CE7 
 391      2A84C84A 
 391      C7518C47 
 391      3370A9DF 
 392 0ab0 E31AACCC 		.ascii	"\343\032\254\314\300\334\361%\306\007\024\276t\202\227"
 392      C0DCF125 
 392      C60714BE 
 392      748297
 393 0abf E73E4CF7 		.ascii	"\347>L\367Q\375}\230An\301\214\314]\322\203\315s\002"
 393      51FD7D98 
 393      416EC18C 
 393      CC5DD283 
 393      CD7302
 394 0ad2 66751FC6 		.ascii	"fu\037\306\332\370]:\343\177\210\306?\211\306\337\214"
 394      DAF85D3A 
 394      E37F88C6 
 394      3F89C6DF 
ARM GAS  /tmp/cc4zkXz1.s 			page 31


 394      8C
 395 0ae3 1EFF3AE6 		.ascii	"\036\377:\346[0\337\212\3716\243S,\036\244=ZD\211\031"
 395      5B30DF8A 
 395      F936A353 
 395      2C1EA43D 
 395      5A448919 
 396 0af7 9FE0E9CF 		.ascii	"\237\340\351\317+de\223\375CEV\373;Xyw\017\353\300\231"
 396      2B646593 
 396      FD434556 
 396      FB3B5879 
 396      770FEBC0 
 397 0b0c 6007AE12 		.ascii	"`\007\256\022\236\035\324\357CE\346\015\364F\354\262"
 397      9E1DD4EF 
 397      4345E60D 
 397      F446ECB2 
 398 0b1c 3377E5DD 		.ascii	"3w\345\335\021VW\336;\035\255\025./\312\363l\216\376"
 398      115657DE 
 398      3B1DAD15 
 398      2E2FCAF3 
 398      6C8EFE
 399 0b2f 41800CF9 		.ascii	"A\200\014\371\277\322\213\3212L}\304h/\212\261\257\177"
 399      BFD28BD1 
 399      324C7DC4 
 399      682F8AB1 
 399      AF7F
 400 0b41 318C381C 		.ascii	"1\2148\034\323\211]\336\266\020\343AU\214\267\035\211"
 400      D3895DDE 
 400      B610E341 
 400      558CB71D 
 400      89
 401 0b52 D1B448F3 		.ascii	"\321\264H\363\374=\036\342_g2\260\003\012W\312\226v"
 401      FC3D1EE2 
 401      5F6732B0 
 401      030A57CA 
 401      9676
 402 0b64 745615EC 		.ascii	"tV\025\354\202k0\243\347\277\331\356v=v\374D\307*z\026"
 402      826B30A3 
 402      E7BFD9EE 
 402      763D76FC 
 402      44C72A7A 
 403 0b79 761827D7 		.ascii	"v\030'\327^\223f\007\270T\250/v \211\375\202\207\234"
 403      5E936607 
 403      B854A82F 
 403      762089FD 
 403      82879C
 404 0b8c F73CD894 		.ascii	"\367<\330\224{\336\343\374\301\321N\217\341\301Q\372"
 404      7BDEE3FC 
 404      C1D14E8F 
 404      E1C151FA 
 405 0b9c 8C86EEE9 		.ascii	"\214\206\356\351\312\274JI\377\315\213\350\023G\321"
 405      CABC4A49 
 405      FFCD8BE8 
 405      1347D1
 406 0bab 2C8F151B 		.ascii	",\217\025\033ub:e%\244\354\3308\356)\262q\251\234k\020"
 406      75623A65 
 406      25A4ECD8 
 406      38EE29B2 
ARM GAS  /tmp/cc4zkXz1.s 			page 32


 406      71A99C6B 
 407 0bc0 1D5C2BCD 		.ascii	"\035\\+\315`~2\365\375Z\233\372pS\322\350\004\320\371"
 407      607E32F5 
 407      FD5A9BFA 
 407      7053D2E8 
 407      04D0F9
 408 0bd3 EAE66DDD 		.ascii	"\352\346m\335\352\346\035\\\335\264b\220;\210\371!\314"
 408      EAE61D5C 
 408      DDB46290 
 408      3B88F921 
 408      CC
 409 0be4 DFC5FC03 		.ascii	"\337\305\374\003'S?\361\371\014\366\001\017G\243\314"
 409      27533FF1 
 409      F90CF601 
 409      0F47A3CC 
 410 0bf4 C0C6516F 		.ascii	"\300\306Qov\034\361l\233k0\203\"\225\3073s/\031\024"
 410      761CF16C 
 410      9B6B3083 
 410      2295C733 
 410      732F1914 
 411 0c08 3CDBE104 		.ascii	"<\333\341\004/\317\362\375\025uFRG\330\013\305\254K"
 411      2FCFF2FD 
 411      15754652 
 411      47D80BC5 
 411      AC4B
 412 0c1a B0B27C46 		.ascii	"\260\262|F\331\2513\312n4J\013\232\340\004\346\037b"
 412      D9A933CA 
 412      6E344A0B 
 412      9AE004E6 
 412      1F62
 413 0c2c 7ED2380B 		.ascii	"~\3228\013m(6\315B\306\220o5)\352\365#+[\177\335\300"
 413      6D2836CD 
 413      42C6906F 
 413      3529EAF5 
 413      232B5B7F 
 414 0c42 5B85DC3B 		.ascii	"[\205\334;\265\276O\030\036\017\355\270F=\3749\215\261"
 414      B5BE4F18 
 414      1E0FEDB8 
 414      463DFC39 
 414      8DB1
 415 0c54 7B4B71FF 		.ascii	"{Kq\377\261\333\010\3041{\260\317\231\334\340\335\032"
 415      B1DB08C4 
 415      317BB0CF 
 415      99DCE0DD 
 415      1A
 416 0c65 5383F799 		.ascii	"S\203\367\231\376\203\367\214:e\323\323\253\262sP]f"
 416      FE83F78C 
 416      3A65D3D3 
 416      ABB27350 
 416      5D66
 417 0c77 00FF31CF 		.ascii	"\000\3771\317\323\372\272\207\2639\346\335\014\033\003"
 417      D3FABA87 
 417      B339E6DD 
 417      0C1B03
 418 0c86 71525969 		.ascii	"qRYi\356\324\374J=\314?\341\032\317h\207#\235\350W*"
 418      EED4FC4A 
 418      3DCC3FE1 
ARM GAS  /tmp/cc4zkXz1.s 			page 33


 418      1ACF6887 
 418      239DE857 
 419 0c9b D8C74EC0 		.ascii	"\330\307N\300\362,\020?\373\225\245Q\225\314\272u\226"
 419      F22C103F 
 419      FB95A551 
 419      95CCBA75 
 419      96
 420 0cac CEA8EF2E 		.ascii	"\316\250\357.\2704\022o:~\2166\275\320\277MM8D\267W"
 420      B834126F 
 420      3A7E8E36 
 420      BDD0BF4D 
 420      4D3844B7 
 421 0cc1 CC870FCB 		.ascii	"\314\207\017\313v\343\341\303\025G3\361k\2735e\026\020"
 421      76E3E1C3 
 421      154733F1 
 421      6BBB3565 
 421      1610
 422 0cd3 F1EB4B58 		.ascii	"\361\353KX\0129\260\000\322\374\210\263\365\211\345"
 422      0A39B000 
 422      D2FC88B3 
 422      F589E5
 423 0ce2 31FAC2DD 		.ascii	"1\372\302\335\344\030]\366\022]\314+q\271\304\"\242"
 423      E4185DF6 
 423      125DCC2B 
 423      71B9C422 
 423      A2
 424 0cf3 D6794DAA 		.ascii	"\326yM\252hS\317aH}\377\252\350\334\245\217W\034\363"
 424      6853CF61 
 424      487DFFAA 
 424      E8DCA58F 
 424      571CF3
 425 0d06 0CB240FA 		.ascii	"\014\262@\372\016L\027\347\353\215\313\373\225\256\361"
 425      0E4C17E7 
 425      EB8DCBFB 
 425      95AEF1
 426 0d15 CA0C7857 		.ascii	"\312\014xW\324\263\020\234\223^v\202\225'\226.\330\275"
 426      D4B3109C 
 426      935E7682 
 426      9527962E 
 426      D8BD
 427 0d27 F4AFE5B4 		.ascii	"\364\257\345\264\302j\217\247l2\343Y=&\340<\234f\015"
 427      C26A8FA7 
 427      6C32E359 
 427      3D26E03C 
 427      9C660D
 428 0d3a 017B252F 		.ascii	"\001{%/\011\2473\275$\204>\202\371l\314\347z\035\314"
 428      09A733BD 
 428      24843E82 
 428      F96CCCE7 
 428      7A1DCC
 429 0d4d 6E7D1E5D 		.ascii	"n}\036]\340\330\346\3329\365\012\204\201~w\003?\230"
 429      E0D8E6DA 
 429      39F50A84 
 429      817E7703 
 429      3F98
 430 0d5f 69A07EA4 		.ascii	"i\240~\244z\232\346K\231q%k\343\3521\357`,\031\3562"
 430      7A9AE64B 
ARM GAS  /tmp/cc4zkXz1.s 			page 34


 430      9971256B 
 430      E3EA31EF 
 430      602C19EE 
 431 0d74 62133B66 		.ascii	"b\023;f\033\274\331\027WB\301latF\202\235f\011Lt\363"
 431      1BBCD917 
 431      5742C16C 
 431      61744682 
 431      9D66094C 
 432 0d8a 18CE5AD1 		.ascii	"\030\316Z\321Wt\363\326_p\336\352\305\271\352K\365|"
 432      5774F3D6 
 432      5F70DEEA 
 432      C5B9EA4B 
 432      F57C
 433 0d9c C16B98B1 		.ascii	"\301k\230\261\336)1\3056S4qm\3463:\352g\221\372\247"
 433      DE2931C5 
 433      36533471 
 433      6DE6333A 
 433      EA6791FA 
 434 0db1 48F733CC 		.ascii	"H\3673\314/`~\3118k\276Wb\2325M\263\024-\333\037\266"
 434      2F607EC9 
 434      386BBE57 
 434      629A354D 
 434      B3142DDB 
 435 0dc7 A73777B5 		.ascii	"\2477w\265\376n\272\254,\036\241\275b\2206C\032\337"
 435      FE6EBAAC 
 435      2C1EA1BD 
 435      62903643 
 435      1ADF
 436 0dd9 27A04525 		.ascii	"'\240E%O\320>v,\224\211\332\375\336\206in>}\033\006"
 436      4FD03E76 
 436      2C9489DA 
 436      FDDE8669 
 436      6E3E7D1B 
 437 0dee ED4518A8 		.ascii	"\355E\030\250>\266\016T\371\037\223Yb\016T\347\2042"
 437      3EB60E54 
 437      F91F9359 
 437      620E54E7 
 437      8432
 438 0e00 B5D6C116 		.ascii	"\265\326\301\026\360$\275\351\251\036\212\366\"\375"
 438      F024BDE9 
 438      A91E8AF6 
 438      22FD
 439 0e0e 25EEA394 		.ascii	"%\356\243\224\265I\227\350F\356\3238r\227\032\235\250"
 439      B54997E8 
 439      46EED338 
 439      72971A9D 
 439      A8
 440 0e1f AED4A46D 		.ascii	"\256\324\244m+z\215\331\201`V6y0\357\277\321~\226g\353"
 440      2B7A8DD9 
 440      81605636 
 440      7930EFBF 
 440      D17E9667 
 441 0e34 1E0D6254 		.ascii	"\036\015bTV\343m\355\315\352\363\216\215\250\361\372"
 441      56E36DED 
 441      CDEAF38E 
 441      8DA8F1FA 
 442 0e44 520767F4 		.ascii	"R\007g\364\006\034|-\330R\345+\034\251\374\274\246r"
ARM GAS  /tmp/cc4zkXz1.s 			page 35


 442      061C7C2D 
 442      D852E52B 
 442      1CA9FCBC 
 442      A672
 443 0e56 F5207821 		.ascii	"\365 x!2\260b\300\023\303\005\241e\204\206\365\264k"
 443      32B062C0 
 443      13C305A1 
 443      658486F5 
 443      B46B
 444 0e68 AC32BD36 		.ascii	"\2542\2756\225K\005\263\352|\332\335\213\347\315`\226"
 444      954B05B3 
 444      EA7CDADD 
 444      8BE7CD60 
 444      96
 445 0e79 E79F7906 		.ascii	"\347\237y\006\302\025=\332:Ghe\216]k\205\316\265\236"
 445      C2153DDA 
 445      3A476865 
 445      8E5D6B85 
 445      CEB59E
 446 0e8c 47D75A89 		.ascii	"G\327Z\211\023\301\013\230\257\306\374e\243\263m1;\233"
 446      13C10B98 
 446      AFC6FC65 
 446      A3B36D31 
 446      3B9B
 447 0e9e D1AEB4F8 		.ascii	"\321\256\264\370b\036o{\255\253\343\177\026\3102\210"
 447      621E6F7B 
 447      ADABE37F 
 447      16C83288 
 448 0eae A5457E70 		.ascii	"\245E~p\023\365\201^\015\262D\303\351a)\247\353\\\207"
 448      13F5815E 
 448      0DB244C3 
 448      E96129A7 
 448      EB5C87
 449 0ec1 FE576C42 		.ascii	"\376WlB\377\265\031Qv\347\210b\244K\313i+Y\254\365\331"
 449      FFB51951 
 449      76E78862 
 449      A44BCB69 
 449      2B59ACF5 
 450 0ed6 A93B457B 		.ascii	"\251;E{\037O\321\216\341)\332v\214\273\247\324\363d"
 450      1F4FD18E 
 450      E129DA76 
 450      8CBBA7D4 
 450      F364
 451 0ee8 D4EA9398 		.ascii	"\324\352\223\230/\303|\255Q\303G2\203Ic\313\370\"\037"
 451      2FC37CAD 
 451      51C34732 
 451      834963CB 
 451      F8221F
 452 0efb BE7DECCD 		.ascii	"\276}\354\315\274aH\336.lmMw\354\372\264`z\2032\243"
 452      BC6148DE 
 452      2E6C6D4D 
 452      77ECFAB4 
 452      607A8332 
 453 0f10 91BCCACD 		.ascii	"\221\274\312\315\262\232j\027\033\267\001\017iH!\354"
 453      B29A6A17 
 453      1BB7010F 
 453      694821EC 
ARM GAS  /tmp/cc4zkXz1.s 			page 36


 454 0f20 AB6FB5DF 		.ascii	"\253o\265\337\266\025\317nr\255\375\3156\332\327?v\225"
 454      B615CF6E 
 454      72ADFDCD 
 454      36DAD73F 
 454      7695
 455 0f32 6D45B620 		.ascii	"mE\266 (\365\232\354\213\300&&8\246\253Tu\206k\231\356"
 455      28F59AEC 
 455      8BC02626 
 455      38A6AB54 
 455      75866B99 
 456 0f47 D26748EC 		.ascii	"\322gH\354\331\210\\\321\267+;\347\034Z\316\316\227"
 456      D9885CD1 
 456      B72B3BE7 
 456      1C5ACECE 
 456      97
 457 0f58 1B61DBA4 		.ascii	"\033a\333\244\200\002\256\323\213\246\177F\223g\337"
 457      8002AED3 
 457      8BA67F46 
 457      9367DF
 458 0f67 A0C26414 		.ascii	"\240\302d\024\376\005\005\326\032l5*W>\250|\261\222"
 458      FE0505D6 
 458      1A6C352A 
 458      573EA87C 
 458      B192
 459 0f79 441B59EE 		.ascii	"D\033Y\356\356\353+1\035\2224q\366J\330\346\325-\225"
 459      EEEB2B31 
 459      1D923471 
 459      F64AD8E6 
 459      D52D95
 460 0f8c E60E3699 		.ascii	"\346\0166\2315\247y\263\221n\272Ai\253_\310\312\037"
 460      35A779B3 
 460      916EBA41 
 460      69AB5FC8 
 460      CA1F
 461 0f9e 8018     		.ascii	"\200\030"
 462 0fa0 5F82482A 		.ascii	"_\202H*\347\034\263`\260\221\335\3559\354\366\351\330"
 462      E71CB360 
 462      B091DDED 
 462      39ECF6E9 
 462      D8
 463 0fb1 55B9E098 		.ascii	"U\271\340\230\306~\311\377!\213C\225\3278\306\344\030"
 463      C67EC9FF 
 463      218B4395 
 463      D738C6E4 
 463      18
 464 0fc2 A55A1F8E 		.ascii	"\245Z\037\216\366y\313\265c\354\264q\014\326H\332\354"
 464      F679CBB5 
 464      63ECB471 
 464      0CD648DA 
 464      EC
 465 0fd3 92A3B476 		.ascii	"\222\243\264v~\212\263\3135\345\3356\224}\2242\375\277"
 465      7E8AB3CB 
 465      35E5DD36 
 465      947D9432 
 465      FDBF
 466 0fe5 11CB5E3E 		.ascii	"\021\313^>\370(\373\370\272z\231\274\353\373\3602\245"
 466      F828FBF8 
ARM GAS  /tmp/cc4zkXz1.s 			page 37


 466      BA7A99BC 
 466      EBFBF032 
 466      A5
 467 0ff6 C1EBE2AD 		.ascii	"\301\353\342\255n\257\351p\256\027"
 467      6EAFE970 
 467      AE17
 468 1000 9F0636BC 		.ascii	"\237\0066\274\373||\260~\256\304\226\034\363\211fS\372"
 468      FB7C7CB0 
 468      7EAEC496 
 468      1CF38966 
 468      53FA
 469 1012 FEFF01D8 		.ascii	"\376\377\001\330X\260\332\313\200\177\301\036-^\273"
 469      58B0DACB 
 469      807FC11E 
 469      2D5EBB
 470 1021 FF00D0AB 		.ascii	"\377\000\320\253\373\017\000\262|~\372/\207d\376\011"
 470      FB0F00B2 
 470      7C7EFA2F 
 470      8764FE09 
 471 1031 04E96470 		.ascii	"\004\351dp\226}^\303\253\311&g&\2575\333\311v \353\314"
 471      967D5EC3 
 471      ABC92667 
 471      26AF35DB 
 471      C97620EB 
 472 1046 A65E1D36 		.ascii	"\246^\0356+\017|\035\333\266\327Gyz\265\331\366\332"
 472      2B0F7C1D 
 472      DBB6D747 
 472      797AB5D9 
 472      F6DA
 473 1058 9387C343 		.ascii	"\223\207\303C\266\275H\244\260\353u\330\266\327\033"
 473      B6BD48A4 
 473      B0EB75D8 
 473      B6D71B
 474 1067 797A1DB1 		.ascii	"yz\035\261\355E\206\233]\257\366l\2572f\031\231\014"
 474      ED45869B 
 474      5DAFF66C 
 474      AF326619 
 474      990C
 475 1079 3BE71CBE 		.ascii	";\347\034\276J\236\021\310\030l\275\376\277v\230\220"
 475      4A9E11C8 
 475      186CBDFE 
 475      BF769890 
 476 1089 37E491FD 		.ascii	"7\344\221\375]\257\341\314UEW\216>\"s\\\006{\253\036"
 476      5DAFE1CC 
 476      5545578E 
 476      3E22735C 
 476      067BAB1E 
 477 109d 9BB66898 		.ascii	"\233\266h\230\253o\241\030\376g\310\315\261hE\371\330"
 477      AB6FA118 
 477      FE67C8CD 
 477      B16845F9 
 477      D8
 478 10ae AA6845F4 		.ascii	"\252hE\364_\306\207G\336:|\344\360\233\313\313\253S"
 478      5FC68747 
 478      DE3A7CE4 
 478      F09BCBCB 
 478      AB53
ARM GAS  /tmp/cc4zkXz1.s 			page 38


 479 10c0 E5A2549E 		.ascii	"\345\242T\236\254\026\245T\371\235\367\335;\366\336"
 479      AC16A554 
 479      F99DF7DD 
 479      3BF6DE
 480 10cf A9E591AA 		.ascii	"\251\345\221\252H\265(\204'\337\026\037^\305\004\311"
 480      48B52884 
 480      27DF161F 
 480      5EC504C9 
 481 10df A570AC3A 		.ascii	"\245p\254:2\311w\367/\356/\033\313\024aEM\202T]o\217"
 481      32C977F7 
 481      2FEE2F1B 
 481      CB146145 
 481      4D82545D 
 482 10f5 184D4462 		.ascii	"\030MDb5\225\002\200\245\246\245\010N\244j\374\264\324"
 482      35950280 
 482      A5A6A508 
 482      4EA46AFC 
 482      B4D4
 483 1107 CFA15311 		.ascii	"\317\241S\021\226\356\357\017 %F\240s\\\210\023f\206"
 483      96EEEF0F 
 483      202546A0 
 483      735C8813 
 483      6686
 484 1119 4798C230 		.ascii	"G\230\3020r\025MD\245\033\313kRb9\351:1\022)\347\305"
 484      72154D44 
 484      A51BCB6B 
 484      526239E9 
 484      3A311229 
 485 112f F80D89EA 		.ascii	"\370\015\211\352\204p\203\300WD\313o\036>j\370\215\031"
 485      847083C0 
 485      5744CB6F 
 485      1E3E6AF8 
 485      8D19
 486 1141 EA29A9B2 		.ascii	"\352)\251\262R\230\000\344}\251\350\357\204\260\024"
 486      529800E4 
 486      7DA9E8EF 
 486      84B014
 487 1150 8A548D05 		.ascii	"\212T\215\005\224;c@\374\036/\251+\322\325\224\252\345"
 487      943B6340 
 487      FC1E2FA9 
 487      2BD2D594 
 487      AAE5
 488 1162 BB0569BC 		.ascii	"\273\005i\274\304K5\251\007\376\301\211|\225BE\315D"
 488      C44B35A9 
 488      07FEC189 
 488      7C954245 
 488      CD44
 489 1174 205112AE 		.ascii	" Q\022\256\254\230\030\216T\011\221I\250/G\235S@\210"
 489      AC98188E 
 489      54099149 
 489      A82F479D 
 489      534088
 490 1187 A8E79A30 		.ascii	"\250\347\2320\226H\016\332\215\013|\252\006\204\215"
 490      96480EDA 
 490      8D0B7CAA 
 490      06848D
 491 1196 8851292C 		.ascii	"\210Q),UUz#U\274\250jp\034\037\223\206e\032W's\332\016"
ARM GAS  /tmp/cc4zkXz1.s 			page 39


 491      55557A23 
 491      55BCA86A 
 491      701C1F93 
 491      86651A57 
 492 11ae D6B1A15A 		.ascii	"\326\261\241Z\011\304\372Y\305\304\261\244fl\214O\245"
 492      09C4FA59 
 492      C5C4B1A4 
 492      666C8C4F 
 492      A5
 493 11bf EEF97B47 		.ascii	"\356\371{G\234\201d\300X\271C\023K\323\222\002\021\004"
 493      9C8164C0 
 493      58B94313 
 493      4BD39202 
 493      1104
 494 11d1 F419263F 		.ascii	"\364\031&?\205xX\012f\312!Q\340+\247\205c\321\024\360"
 494      8578580A 
 494      66CA2151 
 494      E02BA785 
 494      63D114F0 
 495 11e5 3808AAB3 		.ascii	"8\010\252\263\277K\244*\362#\025\376m\215P\003&\002"
 495      BF4BA42A 
 495      F22315FE 
 495      6D8D5003 
 495      2602
 496 11f7 6EC386AA 		.ascii	"n\303\206\252\200\372K\205S\313\276d8!L\225\340+)\012"
 496      80FA4B85 
 496      53CBBE64 
 496      38214C95 
 496      E02B290A 
 497 120b 93473BF5 		.ascii	"\223G;\365\353\352x2\032\023\304T\371\335c\307\002\327"
 497      EBEA7832 
 497      1A13C454 
 497      F9DD63C7 
 497      02D7
 498 121d 1ACB7E29 		.ascii	"\032\313~))F\253\303\3225\350V\232T\011a\012\301\005"
 498      2946ABC3 
 498      D235E856 
 498      9A540961 
 498      0AC105
 499 1230 0F8A2624 		.ascii	"\017\212&$h\025\250\201\357\233n\014K7X5\213\363\221"
 499      6815A881 
 499      EF9B6E0C 
 499      4B375835 
 499      8BF391
 500 1243 AA684228 		.ascii	"\252hB(\017\203\273\36151\220\222\202\027\206\303ZG"
 500      0F83BBF1 
 500      35319092 
 500      821786C3 
 500      5A47
 501 1255 64375AED 		.ascii	"d7Z\355\217T'$\340~\204\253\341HT\213#\017\300\"\322"
 501      8F542724 
 501      E07E84AB 
 501      E148548B 
 501      230FC022 
 502 126a D480284C 		.ascii	"\324\200(L\004\307\017K\234x3'\336\302\211\267r\342"
 502      04C70F4B 
 502      9C783327 
ARM GAS  /tmp/cc4zkXz1.s 			page 40


 502      DEC289B7 
 502      72E2
 503 127c 6D9C388A 		.ascii	"m\2348\212\023o\367\210#G@\032\311\305D\370\272\251"
 503      136FF788 
 503      2347401A 
 503      C9C544F8 
 503      BAA9
 504 128e 201986F6 		.ascii	" \031\206\366~\242\261)\202\010\337\325\261JA$\032\344"
 504      7EA2B129 
 504      8208DFD5 
 504      B14A4124 
 504      1AE4
 505 12a0 E342614A 		.ascii	"\343BaJ\232\304\307\242\023\023a\011\345\273\365\346"
 505      9AC4C7A2 
 505      13136109 
 505      E5BBF5E6 
 506 12b0 B04439C6 		.ascii	"\260D9\306b\022|lR,\032\217J\001\211\370\034\330\307"
 506      62127C6C 
 506      522C1A8F 
 506      4A0189F8 
 506      1CD8C7
 507 12c3 4F2E8E02 		.ascii	"O.\216\002k\250\315\240\344O\242?\012~)^])\340\357\011"
 507      6BA8CDA0 
 507      E44FA23F 
 507      0A7E295E 
 507      5D29E0EF 
 508 12d8 317E62CA 		.ascii	"1~b\312/\211\302\204\024\312M\012\005\361\324D\270H"
 508      2F89C284 
 508      14CA4D0A 
 508      05F1D444 
 508      B848
 509 12ea 9501DD35 		.ascii	"\225\001\3355\265\210\225\323\340R@\230\032\225\"\000"
 509      B58895D3 
 509      E0524098 
 509      1A952200 
 510 12fa E09B2255 		.ascii	"\340\233\"UW\374&y\0255;t\025D!\021\001\340\202)\222"
 510      57FC2679 
 510      15353B74 
 510      15442111 
 510      01E08229 
 511 130f 242643C4 		.ascii	"$&C\304\253\2048\237\254\002\2658\213@\002\211d~\352"
 511      AB84389F 
 511      AC02B538 
 511      8B400289 
 511      647EEA
 512 1322 4F059104 		.ascii	"O\005\221\004\230\247 \025\206o\240\005\027\223\001"
 512      98A72015 
 512      866FA005 
 512      179301
 513 1331 808CD780 		.ascii	"\200\214\327\200Q\034\301\305\245\251\004.\256\302\301"
 513      511CC1C5 
 513      A5A9042E 
 513      AEC2C1
 514 1340 77F59404 		.ascii	"w\365\224\004h\026\001@\234\270\352\233S$h\227,\022"
 514      68160140 
 514      9CB8EA9B 
 514      53246897 
ARM GAS  /tmp/cc4zkXz1.s 			page 41


 514      2C12
 515 1352 260B0929 		.ascii	"&\013\011)\316\247&\301\025a\012)x\222\341\232b\315"
 515      CEA726C1 
 515      15610A29 
 515      7892E19A 
 515      62CD
 516 1364 C3D51151 		.ascii	"\303\325\021Q\242\363yR\023L\206\247\360Q)\232\230\010"
 516      A2F37952 
 516      134C86A7 
 516      F051299A 
 516      9808
 517 1376 1600DDA8 		.ascii	"\026\000\335\250|c\021*\204\244\220\000\247\234\010"
 517      7C63112A 
 517      84A49000 
 517      A79C08
 518 1385 AD800469 		.ascii	"\255\200\004i_H4\314\307\320\273\2402Y]\035\373\241"
 518      5F4834CC 
 518      C7D0BBA0 
 518      32595D1D 
 518      FBA1
 519 1397 134924A2 		.ascii	"\023I$\242\227\253\244h\\\320\302H\\ \312\361\213\022"
 519      97ABA468 
 519      5CD0C248 
 519      5C20CAF1 
 519      8B12
 520 13a9 2AC95B21 		.ascii	"*\311[!\244@\353\325bJ\362B\344\220|5X\315&\002\242"
 520      A440EBD5 
 520      624AF242 
 520      E4907C35 
 520      58CD2602 
 521 13be 84BDA4C2 		.ascii	"\204\275\244\302HM\274&\306K\321\311\002u\203\224_T"
 521      484DBC26 
 521      C64BD1C9 
 521      02758394 
 521      5F54
 522 13d0 15E313D1 		.ascii	"\025\343\023\321\335\013D\364?\221\372\237\250\372_"
 522      DD0B44F4 
 522      3F91FA9F 
 522      A8FA5F
 523 13df 106A6B44 		.ascii	"\020jkD\260\253T \022\011\276=9*J5|,L`EM/W\203^,.\224"
 523      B0AB5420 
 523      1209BE3D 
 523      392A4A35 
 523      7C2C4C60 
 524 13fc 18EAD490 		.ascii	"\030\352\324\220a\250\362O\226\320\010\344\233D\210"
 524      61A8F24F 
 524      96D008E4 
 524      9B4488
 525 140b 208942C8 		.ascii	" \211B\310o\000j*\205\230\304CaBM\"\022\3066\244\344"
 525      6F006A2A 
 525      8598C443 
 525      61424D22 
 525      12C636A4 
 526 1420 236D79B1 		.ascii	"#my\261\010\276\210\250\2449T\021r\3054\236a\240W\215"
 526      08BE88A8 
 526      A4395411 
 526      72C5349E 
ARM GAS  /tmp/cc4zkXz1.s 			page 42


 526      61A0578D 
 527 1434 A5AF0926 		.ascii	"\245\257\011&\371D4Bl\343\217\246D\342U\001\022uIa0"
 527      F9443442 
 527      6CE38FA6 
 527      44E25501 
 527      12754961 
 528 1449 B1ABC883 		.ascii	"\261\253\310\203\357V\324L\230@X\365K\025a2\355\024"
 528      EF56D44C 
 528      984058F5 
 528      4B156132 
 528      ED14
 529 145b 13902991 		.ascii	"\023\220)\2210\272\007T\247\004\344\274\200|'\203\220"
 529      30BA0754 
 529      A704E4BC 
 529      807C2783 
 529      90
 530 146c AB832000 		.ascii	"\253\203 \000%\034[>\350\227\224\304 |\251P!=\256\007"
 530      251C5B3E 
 530      E89794C4 
 530      207CA950 
 530      213DAE07 
 531 1480 427E619C 		.ascii	"B~a\234\207\001\205NT*\305\303\021\030\326\025\"\030"
 531      8701854E 
 531      542AC5C3 
 531      1118D615 
 531      2218
 532 1492 A61AC6B6 		.ascii	"\246\032\306\266\257z\302\204\224 qR\274x\222 &\204"
 532      AF7AC284 
 532      94207152 
 532      BC789220 
 532      2684
 533 14a4 189D40A4 		.ascii	"\030\235@\244\202D8*\3766\220 &\002v\012\343\231iD+"
 533      8244382A 
 533      FE369020 
 533      2602760A 
 533      E3996944 
 534 14b9 8248217D 		.ascii	"\202H!}\237\342heL\240\316\012N\312E\252\002a\324_8"
 534      9FE26865 
 534      4CA0CE0A 
 534      4ECA45AA 
 534      0261D45F 
 535 14ce 3C482B0C 		.ascii	"<H+\014\277\345\366\221\267\204t\323<\003\227\252\004"
 535      BFE5F691 
 535      B78474D3 
 535      3C0397AA 
 535      04
 536 14df 3E19AEE0 		.ascii	">\031\256\340A\240\260\237\330\006f\366\020\255\005"
 536      41A0B09F 
 536      D80666F6 
 536      10AD05
 537 14ee 770E877D 		.ascii	"w\016\207}\220C\335m6~\013=\312\307\336;\376\236\361"
 537      9043DD6D 
 537      367E0B3D 
 537      CAC7DE3B 
 537      FE9EF1
 538 1501 59F725CB 		.ascii	"Y\367%\313\201H\374. \011^\014\024@\302\360O\357\034"
 538      8148FC2E 
ARM GAS  /tmp/cc4zkXz1.s 			page 43


 538      20095E0C 
 538      1440C2F0 
 538      4FEF1C
 539 1514 FF4FBFBC 		.ascii	"\377O\277\274\357\236A|l\012?-\005!&\006Q\271`2\037"
 539      EF9E417C 
 539      6C0A3F2D 
 539      05212606 
 539      51B96032 
 540 1529 AB11FE0F 		.ascii	"\253\021\376\017#l\240E"
 540      236CA045 
 541              		.text
 542              		.section	.gnu.lto_.symtab.ac29710df2be475b,"",%progbits
 543 0000 5F636F72 		.ascii	"_core_init\000\000\000\000\000\000\000\000\000\000\000"
 543      655F696E 
 543      69740000 
 543      00000000 
 543      00000000 
 544 0015 00AF0000 		.ascii	"\000\257\000\000\000chCoreAllocI\000\000\000\000\000"
 544      00636843 
 544      6F726541 
 544      6C6C6F63 
 544      49000000 
 545 002b 00000000 		.ascii	"\000\000\000\000\000\000\000\262\000\000\000chCoreA"
 545      000000B2 
 545      00000063 
 545      68436F72 
 545      6541
 546 003d 6C6C6F63 		.ascii	"lloc\000\000\000\000\000\000\000\000\000\000\000\000"
 546      00000000 
 546      00000000 
 546      00000000 
 547 004d BC000000 		.ascii	"\274\000\000\000chCoreGetStatusX\000\000\000\000\000"
 547      6368436F 
 547      72654765 
 547      74537461 
 547      74757358 
 548 0066 00000000 		.ascii	"\000\000\000\000\000\000\000\300\000\000\000ch\000\000"
 548      000000C0 
 548      00000063 
 548      680000
 549 0075 02000000 		.ascii	"\002\000\000\000\000\000\000\000\000\000\327\000\000"
 549      00000000 
 549      0000D700 
 549      00
 550 0082 005F5F68 		.ascii	"\000__heap_base__\000\000\002\000\000\000\000\000\000"
 550      6561705F 
 550      62617365 
 550      5F5F0000 
 550      02000000 
 551 0099 0000003A 		.ascii	"\000\000\000:\002\000\000__heap_end__\000\000\002\000"
 551      0200005F 
 551      5F686561 
 551      705F656E 
 551      645F5F00 
 552 00b0 00000000 		.ascii	"\000\000\000\000\000\000\000\000@\002\000\000_dbg_c"
 552      00000000 
 552      40020000 
ARM GAS  /tmp/cc4zkXz1.s 			page 44


 552      5F646267 
 552      5F63
 553 00c2 6865636B 		.ascii	"heck_lock\000\000\002\000\000\000\000\000\000\000\000"
 553      5F6C6F63 
 553      6B000002 
 553      00000000 
 553      00000000 
 554 00d6 00C40000 		.ascii	"\000\304\000\000\000_stats_start_measure_crit_thd\000"
 554      005F7374 
 554      6174735F 
 554      73746172 
 554      745F6D65 
 555 00f9 00020000 		.ascii	"\000\002\000\000\000\000\000\000\000\000\000\306\000"
 555      00000000 
 555      000000C6 
 555      00
 556 0106 00006368 		.ascii	"\000\000chSysHalt\000\000\002\000\000\000\000\000\000"
 556      53797348 
 556      616C7400 
 556      00020000 
 556      00000000 
 557 011a 000000C8 		.ascii	"\000\000\000\310\000\000\000_stats_stop_measure_cri"
 557      0000005F 
 557      73746174 
 557      735F7374 
 557      6F705F6D 
 558 0138 745F7468 		.ascii	"t_thd\000\000\002\000\000\000\000\000\000\000\000\000"
 558      64000002 
 558      00000000 
 558      00000000 
 558      00
 559 0149 D1000000 		.ascii	"\321\000\000\000_dbg_check_unlock\000\000\002\000\000"
 559      5F646267 
 559      5F636865 
 559      636B5F75 
 559      6E6C6F63 
 560 0163 00000000 		.ascii	"\000\000\000\000\000\000\000\323\000\000\000chDbgCh"
 560      000000D3 
 560      00000063 
 560      68446267 
 560      4368
 561 0175 65636B43 		.ascii	"eckClassI\000\000\002\000\000\000\000\000\000\000\000"
 561      6C617373 
 561      49000002 
 561      00000000 
 561      00000000 
 562 0189 00D50000 		.ascii	"\000\325\000\000\000"
 562      00
 563              		.text
 564              		.section	.gnu.lto_.opts,"",%progbits
 565 0000 272D6D63 		.ascii	"'-mcpu=cortex-m4' '-mno-thumb-interwork' '-mthumb' "
 565      70753D63 
 565      6F727465 
 565      782D6D34 
 565      2720272D 
 566 0033 272D6767 		.ascii	"'-ggdb' '-O0' '-fomit-frame-pointer' '-falign-funct"
 566      64622720 
ARM GAS  /tmp/cc4zkXz1.s 			page 45


 566      272D4F30 
 566      2720272D 
 566      666F6D69 
 567 0066 696F6E73 		.ascii	"ions=16' '-ffunction-sections' '-fdata-sections' '-"
 567      3D313627 
 567      20272D66 
 567      66756E63 
 567      74696F6E 
 568 0099 666E6F2D 		.ascii	"fno-common' '-flto'\000"
 568      636F6D6D 
 568      6F6E2720 
 568      272D666C 
 568      746F2700 
 569              		.text
 570              		.cfi_sections	.debug_frame
 571              		.section	.text.port_lock,"ax",%progbits
 572              		.align	2
 573              		.p2align 4,,15
 574              		.thumb
 575              		.thumb_func
 576              		.type	port_lock, %function
 577              	port_lock:
 578              	.LFB127:
 579              		.file 1 "lib/ChibiOS_16.1.4//os/rt/ports/ARMCMx/chcore_v7m.h"
 580              		.loc 1 456 0
 581              		.cfi_startproc
 582              		@ args = 0, pretend = 0, frame = 8
 583              		@ frame_needed = 0, uses_anonymous_args = 0
 584              		@ link register save eliminated.
 585 0000 82B0     		sub	sp, sp, #8
 586              		.cfi_def_cfa_offset 8
 587 0002 2023     		movs	r3, #32
 588 0004 0193     		str	r3, [sp, #4]
 589              	.LBB6:
 590              	.LBB7:
 591              		.file 2 "lib/ChibiOS_16.1.4//os/ext/CMSIS/include/core_cmFunc.h"
 592              		.loc 2 548 0
 593 0006 019B     		ldr	r3, [sp, #4]
 594              	@ 548 "lib/ChibiOS_16.1.4//os/ext/CMSIS/include/core_cmFunc.h" 1
 595 0008 83F31188 		MSR basepri, r3
 596              	@ 0 "" 2
 597              		.thumb
 598              	.LBE7:
 599              	.LBE6:
 600              		.loc 1 473 0
 601 000c 02B0     		add	sp, sp, #8
 602              		@ sp needed
 603 000e 7047     		bx	lr
 604              		.cfi_endproc
 605              	.LFE127:
 606              		.size	port_lock, .-port_lock
 607              		.section	.text.port_unlock,"ax",%progbits
 608              		.align	2
 609              		.p2align 4,,15
 610              		.thumb
 611              		.thumb_func
 612              		.type	port_unlock, %function
ARM GAS  /tmp/cc4zkXz1.s 			page 46


 613              	port_unlock:
 614              	.LFB128:
 615              		.loc 1 480 0
 616              		.cfi_startproc
 617              		@ args = 0, pretend = 0, frame = 8
 618              		@ frame_needed = 0, uses_anonymous_args = 0
 619              		@ link register save eliminated.
 620 0000 82B0     		sub	sp, sp, #8
 621              		.cfi_def_cfa_offset 8
 622 0002 0023     		movs	r3, #0
 623 0004 0193     		str	r3, [sp, #4]
 624              	.LBB8:
 625              	.LBB9:
 626              		.loc 2 548 0
 627 0006 019B     		ldr	r3, [sp, #4]
 628              	@ 548 "lib/ChibiOS_16.1.4//os/ext/CMSIS/include/core_cmFunc.h" 1
 629 0008 83F31188 		MSR basepri, r3
 630              	@ 0 "" 2
 631              		.thumb
 632              	.LBE9:
 633              	.LBE8:
 634              		.loc 1 487 0
 635 000c 02B0     		add	sp, sp, #8
 636              		@ sp needed
 637 000e 7047     		bx	lr
 638              		.cfi_endproc
 639              	.LFE128:
 640              		.size	port_unlock, .-port_unlock
 641              		.section	.text.chSysLock,"ax",%progbits
 642              		.align	2
 643              		.p2align 4,,15
 644              		.thumb
 645              		.thumb_func
 646              		.type	chSysLock, %function
 647              	chSysLock:
 648              	.LFB167:
 649              		.file 3 "lib/ChibiOS_16.1.4//os/rt/include/chsys.h"
 650              		.loc 3 346 0
 651              		.cfi_startproc
 652              		@ args = 0, pretend = 0, frame = 0
 653              		@ frame_needed = 0, uses_anonymous_args = 0
 654 0000 08B5     		push	{r3, lr}
 655              		.cfi_def_cfa_offset 8
 656              		.cfi_offset 3, -8
 657              		.cfi_offset 14, -4
 658              		.loc 3 348 0
 659 0002 FFF7FEFF 		bl	port_lock
 660              		.loc 3 349 0
 661 0006 FFF7FEFF 		bl	_stats_start_measure_crit_thd
 662              		.loc 3 350 0
 663 000a FFF7FEFF 		bl	_dbg_check_lock
 664              		.loc 3 351 0
 665 000e 08BD     		pop	{r3, pc}
 666              		.cfi_endproc
 667              	.LFE167:
 668              		.size	chSysLock, .-chSysLock
 669              		.section	.text.chSysUnlock,"ax",%progbits
ARM GAS  /tmp/cc4zkXz1.s 			page 47


 670              		.align	2
 671              		.p2align 4,,15
 672              		.thumb
 673              		.thumb_func
 674              		.type	chSysUnlock, %function
 675              	chSysUnlock:
 676              	.LFB168:
 677              		.loc 3 358 0
 678              		.cfi_startproc
 679              		@ args = 0, pretend = 0, frame = 0
 680              		@ frame_needed = 0, uses_anonymous_args = 0
 681 0000 08B5     		push	{r3, lr}
 682              		.cfi_def_cfa_offset 8
 683              		.cfi_offset 3, -8
 684              		.cfi_offset 14, -4
 685              		.loc 3 360 0
 686 0002 FFF7FEFF 		bl	_dbg_check_unlock
 687              		.loc 3 361 0
 688 0006 FFF7FEFF 		bl	_stats_stop_measure_crit_thd
 689              		.loc 3 367 0
 690 000a 40F20003 		movw	r3, #:lower16:ch
 691 000e C0F20003 		movt	r3, #:upper16:ch
 692 0012 1A68     		ldr	r2, [r3]
 693 0014 40F20003 		movw	r3, #:lower16:ch
 694 0018 C0F20003 		movt	r3, #:upper16:ch
 695 001c 9A42     		cmp	r2, r3
 696 001e 13D0     		beq	.L5
 697              		.loc 3 367 0 is_stmt 0 discriminator 1
 698 0020 40F20003 		movw	r3, #:lower16:ch
 699 0024 C0F20003 		movt	r3, #:upper16:ch
 700 0028 9B69     		ldr	r3, [r3, #24]
 701 002a 9A68     		ldr	r2, [r3, #8]
 702 002c 40F20003 		movw	r3, #:lower16:ch
 703 0030 C0F20003 		movt	r3, #:upper16:ch
 704 0034 1B68     		ldr	r3, [r3]
 705 0036 9B68     		ldr	r3, [r3, #8]
 706 0038 9A42     		cmp	r2, r3
 707 003a 05D2     		bcs	.L5
 708 003c 40F20000 		movw	r0, #:lower16:__func__.5915
 709 0040 C0F20000 		movt	r0, #:upper16:__func__.5915
 710 0044 FFF7FEFF 		bl	chSysHalt
 711              	.L5:
 712              		.loc 3 371 0 is_stmt 1
 713 0048 FFF7FEFF 		bl	port_unlock
 714              		.loc 3 372 0
 715 004c 08BD     		pop	{r3, pc}
 716              		.cfi_endproc
 717              	.LFE168:
 718              		.size	chSysUnlock, .-chSysUnlock
 719 004e 00BF     		.section	.bss.nextmem,"aw",%nobits
 720              		.align	2
 721              		.type	nextmem, %object
 722              		.size	nextmem, 4
 723              	nextmem:
 724 0000 00000000 		.space	4
 725              		.section	.bss.endmem,"aw",%nobits
 726              		.align	2
ARM GAS  /tmp/cc4zkXz1.s 			page 48


 727              		.type	endmem, %object
 728              		.size	endmem, 4
 729              	endmem:
 730 0000 00000000 		.space	4
 731              		.section	.text._core_init,"ax",%progbits
 732              		.align	2
 733              		.p2align 4,,15
 734              		.global	_core_init
 735              		.thumb
 736              		.thumb_func
 737              		.type	_core_init, %function
 738              	_core_init:
 739              	.LFB241:
 740              		.file 4 "lib/ChibiOS_16.1.4//os/rt/src/chmemcore.c"
 741              		.loc 4 78 0
 742              		.cfi_startproc
 743              		@ args = 0, pretend = 0, frame = 0
 744              		@ frame_needed = 0, uses_anonymous_args = 0
 745              		@ link register save eliminated.
 746              		.loc 4 84 0
 747 0000 40F20003 		movw	r3, #:lower16:__heap_base__
 748 0004 C0F20003 		movt	r3, #:upper16:__heap_base__
 749 0008 0733     		adds	r3, r3, #7
 750 000a 23F00703 		bic	r3, r3, #7
 751 000e 1A46     		mov	r2, r3
 752 0010 40F20003 		movw	r3, #:lower16:nextmem
 753 0014 C0F20003 		movt	r3, #:upper16:nextmem
 754 0018 1A60     		str	r2, [r3]
 755              		.loc 4 85 0
 756 001a 40F20003 		movw	r3, #:lower16:__heap_end__
 757 001e C0F20003 		movt	r3, #:upper16:__heap_end__
 758 0022 23F00703 		bic	r3, r3, #7
 759 0026 1A46     		mov	r2, r3
 760 0028 40F20003 		movw	r3, #:lower16:endmem
 761 002c C0F20003 		movt	r3, #:upper16:endmem
 762 0030 1A60     		str	r2, [r3]
 763              		.loc 4 95 0
 764 0032 7047     		bx	lr
 765              		.cfi_endproc
 766              	.LFE241:
 767              		.size	_core_init, .-_core_init
 768 0034 AFF30080 		.section	.text.chCoreAlloc,"ax",%progbits
 768      AFF30080 
 768      AFF30080 
 769              		.align	2
 770              		.p2align 4,,15
 771              		.global	chCoreAlloc
 772              		.thumb
 773              		.thumb_func
 774              		.type	chCoreAlloc, %function
 775              	chCoreAlloc:
 776              	.LFB242:
 777              		.loc 4 109 0
 778              		.cfi_startproc
 779              		@ args = 0, pretend = 0, frame = 16
 780              		@ frame_needed = 0, uses_anonymous_args = 0
 781 0000 00B5     		push	{lr}
ARM GAS  /tmp/cc4zkXz1.s 			page 49


 782              		.cfi_def_cfa_offset 4
 783              		.cfi_offset 14, -4
 784 0002 85B0     		sub	sp, sp, #20
 785              		.cfi_def_cfa_offset 24
 786 0004 0190     		str	r0, [sp, #4]
 787              		.loc 4 112 0
 788 0006 FFF7FEFF 		bl	chSysLock
 789              		.loc 4 113 0
 790 000a 0198     		ldr	r0, [sp, #4]
 791 000c FFF7FEFF 		bl	chCoreAllocI
 792 0010 0390     		str	r0, [sp, #12]
 793              		.loc 4 114 0
 794 0012 FFF7FEFF 		bl	chSysUnlock
 795              		.loc 4 116 0
 796 0016 039B     		ldr	r3, [sp, #12]
 797              		.loc 4 117 0
 798 0018 1846     		mov	r0, r3
 799 001a 05B0     		add	sp, sp, #20
 800              		@ sp needed
 801 001c 5DF804FB 		ldr	pc, [sp], #4
 802              		.cfi_endproc
 803              	.LFE242:
 804              		.size	chCoreAlloc, .-chCoreAlloc
 805              		.section	.text.chCoreAllocI,"ax",%progbits
 806              		.align	2
 807              		.p2align 4,,15
 808              		.global	chCoreAllocI
 809              		.thumb
 810              		.thumb_func
 811              		.type	chCoreAllocI, %function
 812              	chCoreAllocI:
 813              	.LFB243:
 814              		.loc 4 131 0
 815              		.cfi_startproc
 816              		@ args = 0, pretend = 0, frame = 16
 817              		@ frame_needed = 0, uses_anonymous_args = 0
 818 0000 00B5     		push	{lr}
 819              		.cfi_def_cfa_offset 4
 820              		.cfi_offset 14, -4
 821 0002 85B0     		sub	sp, sp, #20
 822              		.cfi_def_cfa_offset 24
 823 0004 0190     		str	r0, [sp, #4]
 824              		.loc 4 134 0
 825 0006 FFF7FEFF 		bl	chDbgCheckClassI
 826              		.loc 4 136 0
 827 000a 019B     		ldr	r3, [sp, #4]
 828 000c 0733     		adds	r3, r3, #7
 829 000e 23F00703 		bic	r3, r3, #7
 830 0012 0193     		str	r3, [sp, #4]
 831              		.loc 4 138 0
 832 0014 40F20003 		movw	r3, #:lower16:endmem
 833 0018 C0F20003 		movt	r3, #:upper16:endmem
 834 001c 1B68     		ldr	r3, [r3]
 835 001e 1A46     		mov	r2, r3
 836 0020 40F20003 		movw	r3, #:lower16:nextmem
 837 0024 C0F20003 		movt	r3, #:upper16:nextmem
 838 0028 1B68     		ldr	r3, [r3]
ARM GAS  /tmp/cc4zkXz1.s 			page 50


 839 002a D31A     		subs	r3, r2, r3
 840 002c 1A46     		mov	r2, r3
 841 002e 019B     		ldr	r3, [sp, #4]
 842 0030 9A42     		cmp	r2, r3
 843 0032 01D2     		bcs	.L10
 844              		.loc 4 140 0
 845 0034 0023     		movs	r3, #0
 846 0036 12E0     		b	.L11
 847              	.L10:
 848              		.loc 4 142 0
 849 0038 40F20003 		movw	r3, #:lower16:nextmem
 850 003c C0F20003 		movt	r3, #:upper16:nextmem
 851 0040 1B68     		ldr	r3, [r3]
 852 0042 0393     		str	r3, [sp, #12]
 853              		.loc 4 143 0
 854 0044 40F20003 		movw	r3, #:lower16:nextmem
 855 0048 C0F20003 		movt	r3, #:upper16:nextmem
 856 004c 1A68     		ldr	r2, [r3]
 857 004e 019B     		ldr	r3, [sp, #4]
 858 0050 1A44     		add	r2, r2, r3
 859 0052 40F20003 		movw	r3, #:lower16:nextmem
 860 0056 C0F20003 		movt	r3, #:upper16:nextmem
 861 005a 1A60     		str	r2, [r3]
 862              		.loc 4 145 0
 863 005c 039B     		ldr	r3, [sp, #12]
 864              	.L11:
 865              		.loc 4 146 0
 866 005e 1846     		mov	r0, r3
 867 0060 05B0     		add	sp, sp, #20
 868              		@ sp needed
 869 0062 5DF804FB 		ldr	pc, [sp], #4
 870              		.cfi_endproc
 871              	.LFE243:
 872              		.size	chCoreAllocI, .-chCoreAllocI
 873 0066 00BFAFF3 		.section	.text.chCoreGetStatusX,"ax",%progbits
 873      0080AFF3 
 873      0080
 874              		.align	2
 875              		.p2align 4,,15
 876              		.global	chCoreGetStatusX
 877              		.thumb
 878              		.thumb_func
 879              		.type	chCoreGetStatusX, %function
 880              	chCoreGetStatusX:
 881              	.LFB244:
 882              		.loc 4 155 0
 883              		.cfi_startproc
 884              		@ args = 0, pretend = 0, frame = 0
 885              		@ frame_needed = 0, uses_anonymous_args = 0
 886              		@ link register save eliminated.
 887              		.loc 4 158 0
 888 0000 40F20003 		movw	r3, #:lower16:endmem
 889 0004 C0F20003 		movt	r3, #:upper16:endmem
 890 0008 1B68     		ldr	r3, [r3]
 891 000a 1A46     		mov	r2, r3
 892 000c 40F20003 		movw	r3, #:lower16:nextmem
 893 0010 C0F20003 		movt	r3, #:upper16:nextmem
ARM GAS  /tmp/cc4zkXz1.s 			page 51


 894 0014 1B68     		ldr	r3, [r3]
 895 0016 D31A     		subs	r3, r2, r3
 896              		.loc 4 160 0
 897 0018 1846     		mov	r0, r3
 898 001a 7047     		bx	lr
 899              		.cfi_endproc
 900              	.LFE244:
 901              		.size	chCoreGetStatusX, .-chCoreGetStatusX
 902 001c AFF30080 		.section	.rodata.__func__.5915,"a",%progbits
 903              		.align	2
 904              		.type	__func__.5915, %object
 905              		.size	__func__.5915, 12
 906              	__func__.5915:
 907 0000 63685379 		.ascii	"chSysUnlock\000"
 907      73556E6C 
 907      6F636B00 
 908              		.text
 909              	.Letext0:
 910              		.file 5 "/usr/lib/gcc/arm-none-eabi/4.8.2/include/stddef.h"
 911              		.file 6 "/usr/include/newlib/machine/_default_types.h"
 912              		.file 7 "/usr/include/newlib/stdint.h"
 913              		.file 8 "lib/ChibiOS_16.1.4//os/rt/ports/ARMCMx/compilers/GCC/chtypes.h"
 914              		.file 9 "lib/ChibiOS_16.1.4//os/rt/include/chsystypes.h"
 915              		.file 10 "lib/ChibiOS_16.1.4//os/rt/include/chschd.h"
 916              		.file 11 "lib/ChibiOS_16.1.4//os/rt/ports/ARMCMx/chcore.h"
 917              		.file 12 "lib/ChibiOS_16.1.4//os/rt/include/chdebug.h"
 918              		.file 13 "lib/ChibiOS_16.1.4//os/rt/include/chtm.h"
 919              		.file 14 "lib/ChibiOS_16.1.4//os/rt/include/chstats.h"
 920              		.file 15 "lib/ChibiOS_16.1.4//os/rt/include/chsem.h"
 921              		.file 16 "lib/ChibiOS_16.1.4//os/rt/include/chmtx.h"
 922              		.file 17 "lib/ChibiOS_16.1.4//os/ext/CMSIS/include/core_cm4.h"