ARM GAS  /tmp/ccSwo4Z8.s 			page 1


   1              		.syntax unified
   2              		.cpu cortex-m4
   3              		.fpu softvfp
   4              		.eabi_attribute 20, 1
   5              		.eabi_attribute 21, 1
   6              		.eabi_attribute 23, 3
   7              		.eabi_attribute 24, 1
   8              		.eabi_attribute 25, 1
   9              		.eabi_attribute 26, 1
  10              		.eabi_attribute 30, 6
  11              		.eabi_attribute 34, 1
  12              		.eabi_attribute 18, 4
  13              		.thumb
  14              		.file	"chmemcore.c"
  15              		.text
  16              	.Ltext0:
  17              		.section	.gnu.lto_.inline.fcc6321428783cef,"",%progbits
  18 0000 789C6362 		.ascii	"x\234cb`b\300\006NCi\016\006\006\026f\006\006&\226\017"
  18      6062C006 
  18      4E43690E 
  18      06061666 
  18      06062696 
  19 0015 7A0C2C10 		.ascii	"z\014,\020\265\214\030\"L\014l\012@\222i\201<\\\015"
  19      B58C1822 
  19      4C0C6C0A 
  19      40926981 
  19      3C5C0D
  20 0028 170AC1CC 		.ascii	"\027\012\301\314 h\002T \362a5#\212\012&n\024el\014"
  20      20680254 
  20      20F26135 
  20      238A0A26 
  20      6E14656C 
  21 003d 1CEC4041 		.ascii	"\034\354@A\236\015\2710U\334\014\374\342@\021\211\011"
  21      9E0DB930 
  21      55DC0CFC 
  21      E2401189 
  21      09
  22 004e A75135F2 		.ascii	"\247Q5\3620p(a\261\221\231\007\306\342e`c\005*\340\230"
  22      30702861 
  22      B1919907 
  22      C6E26560 
  22      63052AE0 
  23 0063 E00753C0 		.ascii	"\340\007S\300\000\000@3\013\243"
  23      00004033 
  23      0BA3
  24              		.text
  25              		.section	.gnu.lto_port_lock.fcc6321428783cef,"",%progbits
  26 0000 789C6362 		.ascii	"x\234cb`b@\007\"@,\310\310\300\320\000\342030\002U0"
  26      60624007 
  26      22402CC8 
  26      C8C0D000 
  26      E2303330 
  27 0017 32310205 		.ascii	"21\002\005\030\030\031\352\231\030\353#AL\006F%\206"
  27      181819EA 
  27      9918EB23 
  27      414C0646 
  27      2586
ARM GAS  /tmp/ccSwo4Z8.s 			page 2


  28 0029 850D0D93 		.ascii	"\205\015\015\223\036\264>{\3144\263\341@\313\202\206"
  28      1EB43E7B 
  28      CC34B3E1 
  28      40CB8286 
  29 0039 3FFFFF33 		.ascii	"?\377\37732f2\002M\324gdHfd\210\000r\030\025\300\024"
  29      32663202 
  29      4DD46764 
  29      48666488 
  29      00721815 
  30 004f 130BAA15 		.ascii	"\023\013\252\025\353\231\016<\370\377\377D\347\363\275"
  30      EB990E3C 
  30      F8FFFF44 
  30      E7F3BD
  31 005e 40931912 		.ascii	"@\223\031\022\031\027\002M\003\002V\206\226\206\206"
  31      1917024D 
  31      03025686 
  31      968686
  32 006d 090A0C20 		.ascii	"\011\012\014 \335@\020\002&CA\016`>\313\320\264\003"
  32      DD401002 
  32      2643410E 
  32      603ECBD0 
  32      B403
  33 007f 48A73332 		.ascii	"H\24732\202\314c\000\252a8\307\320\364\361\355\214\307"
  33      82CC6300 
  33      AA6138C7 
  33      D0F4F1ED 
  33      8CC7
  34 0091 12705D60 		.ascii	"\022p]`F\303\201\356+\355\2540#\023\031\0273\262\002"
  34      46C381EE 
  34      2BEDAC30 
  34      23131917 
  34      33B202
  35 00a4 8D833819 		.ascii	"\215\2038\031\010S\231A>f\206x[\216\241ln\303\014\207"
  35      08539941 
  35      3E668678 
  35      5B8EA16C 
  35      6EC30C87 
  36 00b8 4C466610 		.ascii	"LFf\020/\035\254\012.U\011\221\202\272\374\"C\343\203"
  36      2F1DAC0A 
  36      2E550991 
  36      82BAFC22 
  36      43E383
  37 00cb 9DFA10E3 		.ascii	"\235\372\020\343` \004\244\001\244ZGOO\037\216\362\213"
  37      602004A4 
  37      01A45A47 
  37      4F4F1F8E 
  37      F28B
  38 00dd F58B4AF4 		.ascii	"\365\213J\364\013\362\213J\212\365\035\203|\235}+\364"
  38      0BF28B4A 
  38      8AF51D83 
  38      7C9D7D2B 
  38      F4
  39 00ee 933392F3 		.ascii	"\2233\222\363\213R\343\313\314s\3652\030X\313\022sJ"
  39      8B52E3CB 
  39      CC73F532 
  39      1858CB12 
  39      734A
ARM GAS  /tmp/ccSwo4Z8.s 			page 3


  40 0100 53F5D1B4 		.ascii	"S\365\321\264\244V\224\350;\373\006{\006\353g\346%\347"
  40      A45694E8 
  40      3BFB067B 
  40      06EB67E6 
  40      25E7
  41 0112 94A6A4EA 		.ascii	"\224\246\244\352\203\265$\347\272\225\346%\003u\011"
  41      83B524E7 
  41      BA95E625 
  41      037509
  42 0121 F8060729 		.ascii	"\370\006\007)$%\026\247\026\024e\352(\250\03200\025"
  42      242516A7 
  42      161465EA 
  42      28A81A30 
  42      3015
  43 0133 31B0E7A6 		.ascii	"1\260\347\246\346\346\027U2\000\000%\366_c"
  43      E6E61755 
  43      32000025 
  43      F65F63
  44              		.text
  45              		.section	.gnu.lto_port_unlock.fcc6321428783cef,"",%progbits
  46 0000 789C6362 		.ascii	"x\234cb`b@\007\"@,\310\310\300\320\000\342030\002U0"
  46      60624007 
  46      22402CC8 
  46      C8C0D000 
  46      E2303330 
  47 0017 32310205 		.ascii	"21\002\005\030\030\031\352\231\030\353#AL\006F%\206"
  47      181819EA 
  47      9918EB23 
  47      414C0646 
  47      2586
  48 0029 850D0D93 		.ascii	"\205\015\015\223\036\264~z\3144\263\341@\313\202\206"
  48      1EB47E7A 
  48      CC34B3E1 
  48      40CB8286 
  49 0039 3FFFFF33 		.ascii	"?\377\37732f2\002M\324gdHfd\210\000r\030\025\300\024"
  49      32663202 
  49      4DD46764 
  49      48666488 
  49      00721815 
  50 004f 130BAA15 		.ascii	"\023\013\252\025\353\231\016<\370\377\377E\347\376}"
  50      EB990E3C 
  50      F8FFFF45 
  50      E7FE7D
  51 005e 40931912 		.ascii	"@\223\031\022\031\027\002M\003\002V\206\226\206\206"
  51      1917024D 
  51      03025686 
  51      968686
  52 006d 090A0C20 		.ascii	"\011\012\014 \335@\020\002&CA\016`>\313\320\264\003"
  52      DD401002 
  52      2643410E 
  52      603ECBD0 
  52      B403
  53 007f 48A73332 		.ascii	"H\24732\202\314\003\033r\216\241\351\343\333\031\217"
  53      82CC031B 
  53      728EA1E9 
  53      E3DB198F 
  54 008f 25E0BAC0 		.ascii	"%\340\272\300\214\206\003\247\237\266\263\302\214Ld"
ARM GAS  /tmp/ccSwo4Z8.s 			page 4


  54      8C8603A7 
  54      9FB6B3C2 
  54      8C4C64
  55 009e 5CCCC80A 		.ascii	"\\\314\310\0124\016\342d Le\006\371\230\031\342m9\206"
  55      340EE264 
  55      204C6506 
  55      F99819E2 
  55      6D3986
  56 00b1 B2B90D33 		.ascii	"\262\271\0153\0342\031\231A\274t\260*\270T%D\012\352"
  56      1C321999 
  56      41BC74B0 
  56      2AB85425 
  56      440AEA
  57 00c4 F28B0C8D 		.ascii	"\362\213\014\215\017\316\353C\214\203\201\020\220\006"
  57      0FCEEB43 
  57      8C838110 
  57      9006
  58 00d2 906A1D3D 		.ascii	"\220j\035==}8\312/\326/*\321/\310/*)\326w\014\362u\366"
  58      3D7D38CA 
  58      2FD62F2A 
  58      D12FC82F 
  58      2A29D677 
  59 00ea ADD04FCE 		.ascii	"\255\320O\316H\316/J\215/3\317\325\313``-K\314)M\325"
  59      48CE2F4A 
  59      8D2F33CF 
  59      D5CB6060 
  59      2D4BCC29 
  60 0100 47D3925A 		.ascii	"G\323\222ZQ\242\357\354\033\354\031\254\237\231\227"
  60      51A2EFEC 
  60      1BEC19AC 
  60      9F9997
  61 010f 9C539A92 		.ascii	"\234S\232\222\252\017\326\222\234\353V\232\227\014\324"
  61      AA0FD692 
  61      9CEB569A 
  61      970CD4
  62 011e 25E01B1C 		.ascii	"%\340\033\034\244\220\224X\234ZP\224\251\243\240j\300"
  62      A4909458 
  62      9C5A5094 
  62      A9A3A06A 
  62      C0
  63 012f C054C4C0 		.ascii	"\300T\304\300\236\233\232\233_T\311\000\000g\003_\257"
  63      9E9B9A9B 
  63      5F54C900 
  63      0067035F 
  63      AF
  64              		.text
  65              		.section	.gnu.lto_chSysLock.fcc6321428783cef,"",%progbits
  66 0000 789C6362 		.ascii	"x\234cb`b@\007\"@|\010\210U@\034f\006F\240\012F&FF "
  66      60624007 
  66      22407C08 
  66      8855401C 
  66      660646A0 
  67 001a 8791A19E 		.ascii	"\207\221\241\236\211\261>\222\021\254l=\323\201\007"
  67      89B13E92 
  67      11AC6C3D 
  67      D38107
  68 0029 FFFFAFFB 		.ascii	"\377\377\257\3732m\331\037\306\333L 1V\206\226\206\206"
ARM GAS  /tmp/ccSwo4Z8.s 			page 5


  68      326DD91F 
  68      C6DB4C20 
  68      31568696 
  68      8686
  69 003b 090A0C0C 		.ascii	"\011\012\014\014\311`\025!`2\024\244\237\371<C\363\203"
  69      C9601521 
  69      603214A4 
  69      9FF93C43 
  69      F383
  70 004d 3DDDEC89 		.ascii	"=\335\354\211\214\013\031Y\201\202\325\014\277\032:"
  70      8C0B1959 
  70      8182D50C 
  70      BF1A3A
  71 005c 1A043219 		.ascii	"\032\0042\031\201J!\246e\202h\220\252\275\335B\330T"
  71      814A21A6 
  71      65826890 
  71      AABDDD42 
  71      D854
  72 006e 31A1AADA 		.ascii	"1\241\252\332w\232\013\233*f\204\252\213\014\215\017"
  72      779A0B9B 
  72      2A6684AA 
  72      8B0C8D0F 
  73 007e F66BC314 		.ascii	"\366k\303\024A@\010H\002d\222\222\236\236>\034\345\027"
  73      41400848 
  73      02649292 
  73      9E9E3E1C 
  73      E517
  74 0090 EB1795E8 		.ascii	"\353\027\225\350g\346%\347\224\246\244\352'g\024W\026"
  74      67E625E7 
  74      94A6A4EA 
  74      27671457 
  74      16
  75 00a1 EB653000 		.ascii	"\353e0\000\000\203q8C"
  75      00837138 
  75      43
  76              		.text
  77              		.section	.gnu.lto_chSysUnlock.fcc6321428783cef,"",%progbits
  78 0000 789CCD92 		.ascii	"x\234\315\222\275J\003A\020\200gv\367.\211Qc#\250U\010"
  78      BD4A0341 
  78      10806776 
  78      F72E8951 
  78      6323A855 
  79 0015 560AC90B 		.ascii	"V\012\311\013\370\030\011\250\235\236\222\034\030\005"
  79      F81809A8 
  79      9D9E921C 
  79      1805
  80 0023 A38558B8 		.ascii	"\243\205X\270j\012\321&Xj\023\033\261\023\354\322YX"
  80      6A0AD126 
  80      586A131B 
  80      B113ECD2 
  80      5958
  81 0035 0444C44E 		.ascii	"\004D\304N\255\202\220*\351#\"\236\263{?9c\032\305\302"
  81      AD82902A 
  81      E923229E 
  81      B37B3F39 
  81      631AC5C2 
  82 0049 E16E666F 		.ascii	"\341nfoo\346\233\331\235a\300\240Wf\3505\005\300\244"
ARM GAS  /tmp/ccSwo4Z8.s 			page 6


  82      6FE69BD9 
  82      9D61C0A0 
  82      5766E835 
  82      05C0A4
  83 005c FA880092 		.ascii	"\372\210\000\222\0072\344\2449\243m\311LRB0#X\033H\006"
  83      0732E4A4 
  83      39A36DC9 
  83      4C524230 
  83      23581B48 
  84 0071 4D440A40 		.ascii	"MD\012@\330a\\\030&\356\314\251O0Sp&\345q\243\3319\031"
  84      D8615C18 
  84      26EECCA9 
  84      4F305370 
  84      26E571A3 
  85 0088 3FACEE55 		.ascii	"?\254\356U\344\207\343\240\255~Y\010\263\264\302\244"
  85      E487E3A0 
  85      AD7E5908 
  85      B3B4C2A4 
  86 0098 360A1D16 		.ascii	"6\012\035\0267L^]\310XU\276;\016\377]\014\377/y\212"
  86      374C5E5D 
  86      C85855BE 
  86      3B0EFF5D 
  86      0CFF2F79 
  87 00ad 0897ECBA 		.ascii	"\010\227\354\272\3418\355Z\355\245\215\243&\002ebJq"
  87      E138ED5A 
  87      EDA58DA3 
  87      26026562 
  87      4A71
  88 00bf 525CA895 		.ascii	"R\\\250\225\001\232D\266,e%Y\364J!\311j\235S\315\340"
  88      019A44B6 
  88      2C652559 
  88      F44A21C9 
  88      6A9D53CD 
  89 00d4 F7B0DF78 		.ascii	"\367\260\337x<\212/\3409R\017`\033\336\344\201\034\261"
  89      3C8A2FE0 
  89      39520F60 
  89      1BDEE481 
  89      1CB1
  90 00e6 5158BA03 		.ascii	"QX\272\003@\020\332W^O\255D?/\326\365r\251\224\223\337"
  90      4010DA57 
  90      5E4FAD44 
  90      3F2FD6F5 
  90      72A99493 
  91 00fb C1DEF36B 		.ascii	"\301\336\363kg\302\365\317#N\303\024U\244\265\251u\344"
  91      67C2F5CF 
  91      234EC314 
  91      55A4B5A9 
  91      75E4
  92 010d 144E76A5 		.ascii	"\024Nv\245BD\003X\254\250S\252\003\3074k\321\255\200"
  92      42440358 
  92      ACA853AA 
  92      03C7346B 
  92      D1AD80
  93 0120 2C7AD61F 		.ascii	",z\326\037\260:\224\333\030\320\025!j\343@\230O\254"
  93      B03A94DB 
  93      18D01521 
  93      6AE34098 
ARM GAS  /tmp/ccSwo4Z8.s 			page 7


  93      4FAC
  94 0132 DEF02F92 		.ascii	"\336\360/\222C\341\3269\357cX\250\310\037\226\307=h"
  94      43E1D639 
  94      EF6358A8 
  94      C81F96C7 
  94      3D68
  95 0144 18C73528 		.ascii	"\030\3075(N \012\030$\374\254;\251:@\364\011\020\177"
  95      4E200A18 
  95      24FCAC3B 
  95      A93A40F4 
  95      09107F
  96 0157 7D4961B8 		.ascii	"}Ia\270\321S\215\350WM\035n\232\301\255\362\274\337"
  96      D1538DE8 
  96      574D1D6E 
  96      9AC1ADF2 
  96      BCDF
  97 0169 52F7BA0C 		.ascii	"R\367\272\014=,\342\333\010\014Y\336\361\325\316\230"
  97      3D2CE2DB 
  97      080C59DE 
  97      F1D5CE98 
  98 0179 8DC33468 		.ascii	"\215\3034h\236\223\215\011?\332\364F\255u\033\3517D"
  98      9E938D09 
  98      3FDAF446 
  98      AD751BE9 
  98      3744
  99 018b A23B440F 		.ascii	"\242;D\017\260\333hO\373N\256d\325\331\324\261R\351"
  99      B0DB684F 
  99      FB4EAE64 
  99      D5D9D4B1 
  99      52E9
 100 019d 742678D6 		.ascii	"t&x\326J\231\365\215\214\275j\255l.-g\254Bi\253\224"
 100      4A99F58D 
 100      8CBD6AAD 
 100      6C2E2D67 
 100      AC4269AB 
 101 01b2 2EC027B8 		.ascii	".\300'\270W\315R"
 101      57CD52
 102              		.text
 103              		.section	.gnu.lto__core_init.fcc6321428783cef,"",%progbits
 104 0000 789CB552 		.ascii	"x\234\265R\277k\024Q\020\236yow\357\002\321(\330\330"
 104      BF6B1451 
 104      109E796F 
 104      77EF02D1 
 104      28D8D8
 105 0013 8513DB5D 		.ascii	"\205\023\333]\177 \330\345?\260JP\253e\263.\311\025"
 105      7F20D8E5 
 105      3FB04A50 
 105      AB65B32E 
 105      C915
 106 0025 97E85D10 		.ascii	"\227\350]\020\301\342&w\247\034B\340\242\206\2406I!"
 106      C1E22677 
 106      A71C42E0 
 106      A286A036 
 106      4921
 107 0037 11110DA6 		.ascii	"\021\021\015\246\020\211\220\255B,\002\211m\232\013"
 107      108990AD 
 107      422C0289 
ARM GAS  /tmp/ccSwo4Z8.s 			page 8


 107      6D9A0B
 108 0046 A48B044B 		.ascii	"\244\213\004K\021\3619\357\355m\356\262\376\350\362"
 108      11F139EF 
 108      ED6DEEB2 
 108      FEE8F2
 109 0055 D87DF366 		.ascii	"\330}\363f\276\371f\276y<\001\002\262\353\014\377O$"
 109      BEF966BE 
 109      793C0102 
 109      B2EB0CFF 
 109      4F24
 110 0067 C01DED48 		.ascii	"\300\035\355H@\316@\201\310\016BU`\365\246>B\256\000"
 110      40CE4081 
 110      C80E4255 
 110      60F5A63E 
 110      42AE00
 111 007a 8B448FDB 		.ascii	"\213D\217\333\017\366c\371\354i\334X\240\237J!\026\221"
 111      0FF663F9 
 111      EC69DC58 
 111      A09F4A21 
 111      1691
 112 008c 2B9E4708 		.ascii	"+\236G\010\021n\260\203\203\306\010\353h\213\204K\357"
 112      116EB083 
 112      83C608EB 
 112      688B844B 
 112      EF
 113 009d 5F519FE1 		.ascii	"_Q\237\341\311\242\256yl\234\325\275-k\203\032\261R"
 113      C9A2AE79 
 113      6C9CD5BD 
 113      2D6B831A 
 113      B152
 114 00af 43459402 		.ascii	"CE\224\002\256\374U_\011\263\304xg}\376\354\243\205"
 114      AEFC555F 
 114      09B3C478 
 114      677DFEEC 
 114      A385
 115 00c1 5A8B7EF1 		.ascii	"Z\213~\361lf\264\241c\034\355cF\346\265\177\310\354"
 115      6C66B4A1 
 115      631CED63 
 115      46E6B57F 
 115      C8EC
 116 00d3 EA7C27E2 		.ascii	"\352|'\342\266R_W>\355\256\341\351<B\200\213X`\225\334"
 116      B6525F57 
 116      3EEDAEE1 
 116      E93C4280 
 116      8B586095 
 117 00e8 53EACDE2 		.ascii	"S\352\315\342\310K\216\330l\227\330::\230c\3475;\274"
 117      C84B8ED8 
 117      6C97D83A 
 117      3A9863E7 
 117      353BBC
 118 00fb 6C6810B5 		.ascii	"lh\020\265\006u\377v+\336~8\207\264K\263\235i-\001\327"
 118      0675FF76 
 118      2BDE7E38 
 118      87B44BB3 
 118      9D692D01 
 119 0110 8D827405 		.ascii	"\215\202t\005\370\026E\257f\346|Y'\302\345\270IJU\015"
 119      F81645AF 
ARM GAS  /tmp/ccSwo4Z8.s 			page 9


 119      66E67C59 
 119      27C2E5B8 
 119      494A550D 
 120 0124 25CA5096 		.ascii	"%\312P\226\261\347\205%\310\260\331G4 7\241vP_\231\271"
 120      B1E78525 
 120      C8B0D947 
 120      342037A1 
 120      76505F99 
 121 0139 1AE01BB4 		.ascii	"\032\340\033\264a\014\361>\374\240|\021\355R\207\267"
 121      610CF13E 
 121      FCA07C11 
 121      ED5287B7 
 122 0149 09F5A64C 		.ascii	"\011\365\246LQ\301\011\372\"x\006\203\254\036\"\222"
 122      51C109FA 
 122      22780683 
 122      AC1E2292 
 123 0159 41837C57 		.ascii	"A\203|WJ\015\030\264\266_\277\233\302\026g\230\330\347"
 123      4A0D18B4 
 123      B65FBF9B 
 123      C2166798 
 123      D8E7
 124 016b 6F4E127B 		.ascii	"oN\022{\001\317\247\211N\361E\353\216M}r\222\027\240"
 124      01CFA789 
 124      4EF145EB 
 124      8E4D7D72 
 124      9217A0
 125 017e CB38A637 		.ascii	"\3138\2467\363\014\351\240\376a\306KK\331]\2052U\330"
 125      F30CE9A0 
 125      FE61C64B 
 125      4BD95D85 
 125      3255D8
 126 0191 D5E170C2 		.ascii	"\325\341p\302\237:\312)\234\033\323\245\265\216\255"
 126      9F3ACA29 
 126      9C1BD3A5 
 126      B58EAD
 127 01a0 FFEAC08C 		.ascii	"\377\352\300\214\016\236w\033\246\333k\347\022R\272"
 127      0E9E771B 
 127      A6DB6BE7 
 127      1252BA
 128 01af 8675A2BE 		.ascii	"\206u\242\276\247\202\353z\207\337d\305+Oy\225r\350"
 128      A782EB7A 
 128      87DF64C5 
 128      2B4F7995 
 128      72E8
 129 01c1 85E3A5A8 		.ascii	"\205\343\245\250\024N\226#7\204\001\337\037\217\202"
 129      144E9623 
 129      378401DF 
 129      1F8F82
 130 01d0 DBFE6850 		.ascii	"\333\376hP\211|\337\275\3207\021\335\233b\330\275x\262"
 130      897CDFBD 
 130      D03711DD 
 130      9B62D8BD 
 130      78B2
 131 01e2 834413B7 		.ascii	"\203D\023\267\030\270\224g\253\343\227O\034a\364\367"
 131      18B89467 
 131      ABE3974F 
 131      1C61F4F7 
ARM GAS  /tmp/ccSwo4Z8.s 			page 10


 132 01f2 66FD065B 		.ascii	"f\375\006[\232\373\264"
 132      9AFBB4
 133              		.text
 134              		.section	.gnu.lto_chCoreAllocI.fcc6321428783cef,"",%progbits
 135 0000 789C9D53 		.ascii	"x\234\235SMh\023Q\020\236yo7\311\346\247\011\342%\036"
 135      4D681351 
 135      109E796F 
 135      37C9E6A7 
 135      09E2251E 
 136 0014 A4043C78 		.ascii	"\244\004<xI.j\365\350Q\274\032\320\223\3064\256{H+i"
 136      492E6AF5 
 136      E851BC1A 
 136      D093C634 
 136      AE7B482B 
 137 0029 0F82876E 		.ascii	"\017\202\207n\262\251\324_J)h\253\207VJR\012\022T\204"
 137      B2A9D45F 
 137      4A2968AB 
 137      87564A52 
 137      0A125484 
 138 003d 8A823978 		.ascii	"\212\2029xh\242\"A\004{\013JO\202x\254\"\256\363\336"
 138      68A22241 
 138      047B0B4A 
 138      4F8278AC 
 138      22AEF3DE 
 139 0051 7637B116 		.ascii	"v7\261\026]\372Hv\346\315|\337\314\233\357\3552`\260"
 139      5DFA4876 
 139      E6CD7CDF 
 139      CC9BEFED 
 139      3260B0
 140 0064 7D65E87F 		.ascii	"}e\350\177A\0058'6\001@B c\034\300d\012=\024\216\224"
 140      41053827 
 140      36014042 
 140      20631CC0 
 140      640A3D14 
 141 007a 44453E55 		.ascii	"DE>UD\002!L0\256\2508qF\354 \222\202E\323\234\351N\326"
 141      4402214C 
 141      30AEA838 
 141      7146EC20 
 141      928245D3 
 142 0092 3A3837DB 		.ascii	":87\333\254.\230?m\033\321\020\311<\302i\362pP\032Q"
 142      AC2E983F 
 142      6D1BD110 
 142      C93CC269 
 142      F270501A 
 143 00a7 B07F39C4 		.ascii	"\260\1779\304\346\323\366\235\344\365\205\312\264\371"
 143      E6D3F69D 
 143      E4F585CA 
 143      B4F9
 144 00b5 8B780672 		.ascii	"\213x\006r\006\007\320\017s\332|\274lj\262\0357Pa\220"
 144      0607D00F 
 144      73DA7CBC 
 144      6C6AB21D 
 144      37506190 
 145 00c9 F6459BF9 		.ascii	"\366E\233\371\203F\335\206v\327\355\370nh\376$1\033"
 145      8346DD86 
 145      76D7EDF8 
 145      6E68FE24 
ARM GAS  /tmp/ccSwo4Z8.s 			page 11


 145      311B
 146 00db 57271355 		.ascii	"W'\023U\227\344O\307\371\346\263v{\021\211\\\376f\333"
 146      97E44FC7 
 146      F9E6B376 
 146      7B11895C 
 146      FE66DB
 147 00ee 71435C98 		.ascii	"qC\\\230/\371_\266om\223\377\244o\035+\375:fw\244\025"
 147      2FF95FB6 
 147      6F6D93FF 
 147      A46F1D2B 
 147      FD3A6677 
 148 0104 F1AF8E73 		.ascii	"\361\257\216s\355\233I\263\327Qep\366\177\035\033\254"
 148      ED9B49B3 
 148      D7516570 
 148      F67F1D1B 
 148      AC
 149 0115 D9B5ED17 		.ascii	"\331\265\355\027\235\245O+\270'\201 XXD\344\344\201"
 149      9DA54F2B 
 149      B8278120 
 149      585844E4 
 149      E481
 150 0127 424D68DC 		.ascii	"BMh\334\034>\300\024\275\3029\\\"\033$[#\033\"\273L"
 150      1C3EC014 
 150      BDC2395C 
 150      221B245B 
 150      231B22BB 
 151 013c 5623A412 		.ascii	"V#\244\022\026\360\210`G)\374\210\3021\262\017\311\016"
 151      16F08860 
 151      4729FC88 
 151      C231B20F 
 151      C90E
 152 014e 906D908D 		.ascii	"\220m\220\215\203T\016T\250\322\345\015: \251$\255S"
 152      83540E54 
 152      A8D2E50D 
 152      3A20A924 
 152      AD53
 153 0160 F29915DF 		.ascii	"\362\231\025\337\010\177\007V\367\366F8\207O$\376\012"
 153      087F0756 
 153      F7F64638 
 153      874F24FE 
 153      0A
 154 0171 FC30A7CC 		.ascii	"\3740\247\314\204\201\201<:\023\033\030\004x\013\326"
 154      8481813C 
 154      3A131B18 
 154      04780BD6 
 155 0181 94F57976 		.ascii	"\224\365yv\237\003\323\221\353\310\304|!\312\211\344"
 155      9F03D391 
 155      EBC8C47C 
 155      21CA89E4 
 156 0191 73EBBC9B 		.ascii	"s\353\274\233R(+S\2336\335\237LWZ\037k\337\231\013P"
 156      52282B53 
 156      9B36DD9F 
 156      4C575A1F 
 156      6BDF990B 
 157 01a6 EFC17CD9 		.ascii	"\357\301|\331\024=\270\327M+\212\303H\311\264-\251\210"
 157      143DB8D7 
 157      4D2B8AC3 
ARM GAS  /tmp/ccSwo4Z8.s 			page 12


 157      48C9B42D 
 157      A988
 158 01b8 F685BB9C 		.ascii	"\366\205\273\234\200.NG\241\023n$\270s\025\370W\225"
 158      802E4E47 
 158      A1136E24 
 158      B87315F8 
 158      5795
 159 01ca 90BE35CB 		.ascii	"\220\2765\3135/\244\311\332!\011\374j\355w\303a]TX\203"
 159      352FA4C9 
 159      DA2109FC 
 159      6AED77C3 
 159      615D5458 
 160 01df 571BE558 		.ascii	"W\033\345X_\254\3576\263tg\300\211\265z\267~\320\205"
 160      5FACEF36 
 160      B37467C0 
 160      89B57AB7 
 160      7ED085
 161 01f2 44446BB5 		.ascii	"DDk\265\007Q\034Hk\255\216.$\352\373\334\255\315\372"
 161      07511C48 
 161      6BAD8E2E 
 161      24EAFBDC 
 161      ADCDFA
 162 0205 BA478BF9 		.ascii	"\272G\213\371\245Y7\274\331\006\210&\317\334\323\315"
 162      A55937BC 
 162      D9068826 
 162      CFDCD3CD 
 163 0215 4F15223A 		.ascii	"O\025\":\375WW\222n\2518\035\334\035\212\346\343\257"
 163      FD575792 
 163      6EA9381D 
 163      DC1D8AE6 
 163      E3AF
 164 0227 A14C9A0D 		.ascii	"\241L\232\015\013\015:\322\325\235\267e\035\220T\340"
 164      0B0D3AD2 
 164      D59DB765 
 164      1D9054E0 
 165 0237 6FDEEF25 		.ascii	"o\336\357%\216r\377CT\274l\224\021\227\233J\2473\336"
 165      8E72FF43 
 165      54BC6C94 
 165      11979B4A 
 165      A733DE
 166 024a 6F742C53 		.ascii	"ot,S\032\317\214\225\362\231\374\305b\241\230\037-\025"
 166      1ACF8C95 
 166      F299FCC5 
 166      62A1981F 
 166      2D15
 167 025c D2790815 		.ascii	"\322y\010\025F\206i\227>\344:\207\265\221\302\345q\341"
 167      46866997 
 167      3EE43A87 
 167      B591C2E5 
 167      71E1
 168 026e 1DF1BC21 		.ascii	"\035\361\274!\317;\352y\307\360\322oU\360N;"
 168      CF3BEA79 
 168      C7F0D26F 
 168      55F04E3B 
 169              		.text
 170              		.section	.gnu.lto_chCoreAlloc.fcc6321428783cef,"",%progbits
 171 0000 789C8550 		.ascii	"x\234\205P=K\003A\024\234\331\275\250\245v\006\233p"
ARM GAS  /tmp/ccSwo4Z8.s 			page 13


 171      3D4B0341 
 171      149CD9BD 
 171      A8A57606 
 171      9B70
 172 0012 A0E5DD9F 		.ascii	"\240\345\335\237Q\3202\254!\2468\"\211\330XdM\"\210"
 172      51D032AC 
 172      21A63822 
 172      89D85864 
 172      4D2288
 173 0025 5804AB60 		.ascii	"X\004\253`\025?z\177\200\010\001\013\021\221`oqX\251"
 173      153F7A7F 
 173      8008010B 
 173      1191606F 
 173      7158A9
 174 0038 E01F30E0 		.ascii	"\340\0370\340\371\366N\317\017\004\227\335\267o\337"
 174      F9F64ECF 
 174      0F0497DD 
 174      B76FDF
 175 0047 CECC9B5D 		.ascii	"\316\314\233]\005\205\337cN\326&\201\005w\360@APQK\324"
 175      0585DF63 
 175      4ED62681 
 175      0577F040 
 175      4150514B 
 176 005c 94328896 		.ascii	"\2242\210\226\322l\255\270\034\312\307\221\265\207\361"
 176      D26CADB8 
 176      1CCAC791 
 176      B587F1
 177 006b CEB85FDC 		.ascii	"\316\270_\334\033\264{\366-IXsW\206X\226\214\245tS\336"
 177      1BB47BF6 
 177      2D495873 
 177      57865896 
 177      8CA57453 
 178 0080 CF2629ED 		.ascii	"\317&)\355`xq\265_\264\337h\012\363\374\207y\246\206"
 178      607871B5 
 178      5FB4DF68 
 178      0AF3FC87 
 178      79A686
 179 0093 7192DC9F 		.ascii	"q\222\334\237\017\036^8\343\221\221c\225yL\037\032i"
 179      0F1E5E38 
 179      E3919163 
 179      95794C1F 
 179      1A69
 180 00a5 6714D0B5 		.ascii	"g\024\320\265\266W\312\212\251\023\031\213i\\r\317\321"
 180      B657CA8A 
 180      A913198B 
 180      695C72CF 
 180      D1
 181 00b6 2374E2C7 		.ascii	"#t\342\307\316d\231\247,Hq\013\257v\327N\327\250M\372"
 181      CE6499A7 
 181      2C48710B 
 181      AF76D74E 
 181      D7A84DFA 
 182 00ca 42888E74 		.ascii	"B\210\216t\035\241\033?\2350CU\251rX\3010\373\266*\305"
 182      1DA11B3F 
 182      9D304355 
 182      A97258C1 
 182      30FBB62A 
ARM GAS  /tmp/ccSwo4Z8.s 			page 14


 183 00df E0844376 		.ascii	"\340\204Cv\342\347\313?\365\364\227\336-\332\327\375"
 183      E2E7CB3F 
 183      F5F497DE 
 183      2DDAD7FD 
 184 00ef F1ECA79E 		.ascii	"\361\354\247\236\256~\250\210)A\351\033lO\001\253\316"
 184      AE7EA888 
 184      2941E91B 
 184      6C4F01AB 
 184      CE
 185 0100 C11DF2AE 		.ascii	"\301\035\362\256\031_\334K\331\301\375 \010\363Yo\206"
 185      195FDC4B 
 185      D9C1FD20 
 185      08F3596F 
 185      86
 186 0111 8D8DB0D9 		.ascii	"\215\215\260\3310\241Y\213*\221\2517*\201\001\327\337"
 186      30A1598B 
 186      2A91A937 
 186      2A8101D7 
 186      DF
 187 0122 0131AF5D 		.ascii	"\0011\257]s"
 187      73
 188              		.text
 189              		.section	.gnu.lto_chCoreGetStatusX.fcc6321428783cef,"",%progbits
 190 0000 789C6362 		.ascii	"x\234cb`b@\007\322@\334\013\024\366\003qX\030\030\201"
 190      60624007 
 190      D240DC0B 
 190      14F60371 
 190      58181881 
 191 0014 4C462646 		.ascii	"LF&Ff \311\314\310\010\024bd\250gbf\254\217\004\261"
 191      6620C9CC 
 191      C8081462 
 191      64A86762 
 191      66AC8F04 
 192 0029 19D89418 		.ascii	"\031\330\224\030\02664\314zpt\375L\311\256\005M\023"
 192      163634CC 
 192      7A7074FD 
 192      4CC9AE05 
 192      4D13
 193 003b 1AFEFDFF 		.ascii	"\032\376\375\377\317\230\011\222Jfd\210\000\262\030"
 193      CF980992 
 193      4A666488 
 193      00B218
 194 004a 15C01413 		.ascii	"\025\300\024\023\013\252%`m\223\032\276>\0118\321\320"
 194      0BAA2560 
 194      6D931ABE 
 194      3E0938D1 
 194      D0
 195 005b 72E0FF7F 		.ascii	"r\340\377\177\373LFf&\006UFb\264Mh\330\264\242\201s"
 195      FB4C4666 
 195      26065546 
 195      62B44D68 
 195      D8B4A281 
 196 0070 41C39FFF 		.ascii	"A\303\237\377\377\2313\031Y\230\030\364\211\3226\011"
 196      FF993319 
 196      599818F4 
 196      89D23609 
 197 0080 451BD036 		.ascii	"E\033\3206K\362ls!G\033\241\360X\317t\340\301\377\377"
ARM GAS  /tmp/ccSwo4Z8.s 			page 15


 197      4BF26C73 
 197      21471BA1 
 197      F058CF74 
 197      E0C1FFFF 
 198 0094 7BAEFF79 		.ascii	"{\256\377yx\202Q\210\235\221!\221q\021\243\0220r\022"
 198      78825188 
 198      9D912191 
 198      7111A312 
 198      307212
 199 00a7 19970069 		.ascii	"\031\227\000if \275\014H\263\000\351\025@\232\225\001"
 199      6620BD0C 
 199      48B300E9 
 199      15409A95 
 199      01
 200 00b8 68241B03 		.ascii	"h$\033\0038\234\201\234\026\240u\012`\033\200 \004L"
 200      389C819C 
 200      16A0750A 
 200      601B8020 
 200      044C
 201 00ca 8682A28D 		.ascii	"\206\202\242\215\371,C\323\311\033\353/2'2\256fdeHg"
 201      F92C43D3 
 201      C91BEB2F 
 201      322732AE 
 201      66646548 
 202 00df 649CCD30 		.ascii	"d\234\3150\253\261\241A\000\350\375j\206_\015\035 \026"
 202      ABB1A141 
 202      00E8FD6A 
 202      865F0D1D 
 202      2016
 203 00f1 6B2E5803 		.ascii	"k.X\003\310Q\254P\307\000\265\275\206\353aJ\007\305"
 203      C851AC50 
 203      C700B5BD 
 203      86EB614A 
 203      07C5
 204 0103 3A50C813 		.ascii	":P\310\023&\302\214\335\024F|\246\260\244\203R\320Y"
 204      26C28CDD 
 204      14467CA6 
 204      B0A48352 
 204      D059
 205 0115 86E64EB8 		.ascii	"\206\346N\270\020+\330l\026\260\302w\315|0a\266t\230"
 205      102BD86C 
 205      16B0C277 
 205      CD7C3061 
 205      B67498
 206 0128 09A1202D 		.ascii	"\011\241 -\314\247\031\0329\030\030R@\376\271\310\300"
 206      CCA7191A 
 206      39181852 
 206      40FEB9C8 
 206      C0
 207 0139 08570551 		.ascii	"\010W\005Q\022\002\262\025\224\204\225\364\364\364\341"
 207      1202B215 
 207      948495F4 
 207      F4F4E1
 208 0148 28BF58BF 		.ascii	"(\277X\277\250D\277\270(Y?9#7579\277(U/\231\20135/\005"
 208      A844BFB8 
 208      28593F39 
 208      23373537 
ARM GAS  /tmp/ccSwo4Z8.s 			page 16


 208      39BF2855 
 209 0163 C8D33334 		.ascii	"\310\32334\200\263\014\271\362R+J\300L#\004\323\030"
 209      80B30CB9 
 209      F2522B4A 
 209      C04C2304 
 209      D318
 210 0175 000D62A2 		.ascii	"\000\015b\242D"
 210      44
 211              		.text
 212              		.section	.gnu.lto_.symbol_nodes.fcc6321428783cef,"",%progbits
 213 0000 789C4DCC 		.ascii	"x\234M\3149R\303@\020\205\341\367\2725f\2210\333\001"
 213      3952C340 
 213      1085E1F7 
 213      BA356691 
 213      30DB01
 214 0013 B892AFC0 		.ascii	"\270\222\257\300I\236\012W\271\034\222\370\002v\000"
 214      499E0A57 
 214      B91C92F8 
 214      027600
 215 0022 E7103921 		.ascii	"\347\0209!1\007 a1x\301\262%\015\305h\222\277\276\351"
 215      31072061 
 215      3178C1B2 
 215      250DC568 
 215      92BFBEE9 
 216 0036 99361846 		.ascii	"\2316\030FD<\266\207\200\373g@\232Mo\255\244\330\343"
 216      443CB687 
 216      80FB6740 
 216      9A4D6FAD 
 216      A4D8E3
 217 0049 03653D3E 		.ascii	"\003e=>R\236\030v\315\026!\354\311Ln\237T\3667|\231"
 217      529E1876 
 217      CD1621EC 
 217      C94C6E9F 
 217      54F6377C 
 218 005e 32FCD0DA 		.ascii	"2\374\320\332\341;} \017+f\255>\030\032\331\222\012"
 218      E13B7D20 
 218      0F2B66AD 
 218      3E181AD9 
 218      920A
 219 0070 E9A97D51 		.ascii	"\351\251}Q\203\036\277\251\243Dn\250\343\310\262$\327"
 219      831EBFA9 
 219      A3446EA8 
 219      E3C8B224 
 219      D7
 220 0081 D449524D 		.ascii	"\324IRM\235&\375Ry\322\226*\222J\323\331\277\334\200"
 220      9D26FD52 
 220      79D2962A 
 220      924AD3D9 
 220      BFDC80
 221 0094 BBD7BAE9 		.ascii	"\273\327\272\3519\026]\207xj\353W\030w\275\214\367~"
 221      39165D87 
 221      786AEB57 
 221      1877BD8C 
 221      F77E
 222 00a6 81C5E4ED 		.ascii	"\201\305\344\355\306\235\250\332\346\327q^X\374_\344"
 222      C69DA8DA 
 222      E6D7715E 
ARM GAS  /tmp/ccSwo4Z8.s 			page 17


 222      58FC5FE4 
 223 00b6 98777554 		.ascii	"\230wuTMq\000zDh\026"
 223      4D71007A 
 223      446816
 224              		.text
 225              		.section	.gnu.lto_.refs.fcc6321428783cef,"",%progbits
 226 0000 789C2587 		.ascii	"x\234%\207\301\021\000 \010\303J\005A<\007q\377\005"
 226      C1110020 
 226      08C34A05 
 226      413C0771 
 226      FF05
 227 0012 454D3E09 		.ascii	"EM>\011Al|\254A\251(i\332\351\022\034\2226\221\210k"
 227      416C7CAC 
 227      41A92869 
 227      DAE9121C 
 227      92369188 
 228 0027 FD7A7D00 		.ascii	"\375z}\000\025\345\000\335"
 228      15E500DD 
 229              		.text
 230              		.section	.gnu.lto_.decls.fcc6321428783cef,"",%progbits
 231 0000 789CBD5C 		.ascii	"x\234\275\\{t\024U\232\257\252\356\364#i 8;.\314\242"
 231      7B741455 
 231      9AAFAAEE 
 231      F4236920 
 231      383B2ECC 
 232 0015 C6596777 		.ascii	"\306Ygwv\316J\36052\263g\004\207Y\037\347\254sfd\235"
 232      76CE4AF0 
 232      3532B367 
 232      0487591F 
 232      E7AC7366 
 233 002b 7577CE6E 		.ascii	"uw\316n[\351\024\244\227\356NOu\005d\377\261H \362\232"
 233      5BE914A4 
 233      97EE4E4F 
 233      750564FF 
 233      B14820F2 
 234 0040 31221004 		.ascii	"1\"\020\004$A$\012\262 `\030@\204\3025\020\020\020H"
 234      2441240A 
 234      B2206018 
 234      4084C235 
 234      10101048 
 235 0054 800863D2 		.ascii	"\200\010c\322\"\250\254 A\220\227q\262\337\375\352V"
 235      22A8AC20 
 235      41909771 
 235      B2DFFDEA 
 235      56
 236 0065 77557555 		.ascii	"wUuUwU\324\355\223{\373\366\255{\177\337\363~\367QU"
 236      7755D4ED 
 236      937BFBF6 
 236      AD7B7FDF 
 236      F37EF751 
 237 007a E1188E61 		.ascii	"\341\030\216a<\014\323\017\237\337<\3000\213\002\014"
 237      3C0CD30F 
 237      9FDF3CC0 
 237      308B020C 
 238 008a 136418E6 		.ascii	"\023d\030\346>&\373\031\014i9\244\026H\253 \255\201"
 238      3E26FB19 
 238      0C6939A4 
ARM GAS  /tmp/ccSwo4Z8.s 			page 18


 238      1648AB20 
 238      AD81
 239 009c B40ED206 		.ascii	"\264\016\322\006H\333 )\220\336\206\264\013R;\244C\220"
 239      48DB2029 
 239      90DE86B4 
 239      0B523BA4 
 239      4390
 240 00ae 3A201D81 		.ascii	": \035\201\344\203t\014\322]@\346\247\220~\006i,\244"
 240      E483740C 
 240      D25D40E6 
 240      A7907E06 
 240      692CA4
 241 00c1 9F738CE1 		.ascii	"\237s\214\341C\360\213 \365Qz!H\277\2006\017\320v\034"
 241      43F08B20 
 241      F5517A21 
 241      48BF8036 
 241      0FD0761C 
 242 00d5 6DF390A9 		.ascii	"m\363\220\251\037C\371*\324\267\305\246\357*z\375\327"
 242      1F43F92A 
 242      D4B7C5A6 
 242      EF2A7AFD 
 242      D7
 243 00e6 90BD48EB 		.ascii	"\220\275H\353\274\264~9\225\351\355\334n\250\203RH\347"
 243      BCB47E39 
 243      95E9EDDC 
 243      6EA88352 
 243      48E7
 244 00f8 7434FD3A 		.ascii	"t4\375:\234\217 \365@\352\202\364(\324\215\207t\015"
 244      9C8F20F5 
 244      40EA82F4 
 244      28D48D87 
 244      740D
 245 010a CA9F41FA 		.ascii	"\312\237A\372g(?\006i\017\345\273\033\322iHg!mg\031"
 245      67283F06 
 245      690FE5BB 
 245      1BD26948 
 245      67216D67 
 246 011f E62AAD5F 		.ascii	"\346*\255_C\365x\210\352\265\205\362Jty\314\304\317"
 246      43F57888 
 246      EAB585F2 
 246      4A7479CC 
 246      C4CF
 247 0131 3A4ABF48 		.ascii	":J\277H\307\317}\320\356\037 \375\006\322\277P\331Y"
 247      C7CF7DD0 
 247      EE1F20FD 
 247      06D2BF50 
 247      D959
 248 0143 DA96C8F8 		.ascii	"\332\226\310\3703j\207\237R\233\350?\304\266\305\026"
 248      336A879F 
 248      529BE83F 
 248      C4B6C516 
 249 0153 78A4DF18 		.ascii	"x\244\337\030\235\234\255L\026\233\243\375\216\350\360"
 249      9D9CAD4C 
 249      169BA3FD 
 249      8EE8F0
 250 0162 B7302A8D 		.ascii	"\2670*\215\307M\370\333(\277ct\370\032\346\277\302\367"
 250      C74DF8DB 
ARM GAS  /tmp/ccSwo4Z8.s 			page 19


 250      28BF6374 
 250      F81AE6BF 
 250      C2F7
 251 0174 469D2DB6 		.ascii	"F\235-\266Q{l\240:!P\333!\375\233\011SaT\177k\265\340"
 251      517B6CA0 
 251      3A2150DB 
 251      21FD9B09 
 251      5361547F 
 252 018b 592F3F69 		.ascii	"Y/?i\347\241|\021\036\177k\302\271\205Y&+\007\3233>"
 252      E7A17C11 
 252      1E7F6BC2 
 252      B9855926 
 252      2B07D333 
 253 01a0 FA907B5E 		.ascii	"\372\220{^V\246\31304d\266\354Ff\201\014\237\346zYf"
 253      56A6CB30 
 253      3464B6EC 
 253      4666810C 
 253      9FE67A59 
 254 01b5 259EBDEF 		.ascii	"%\236\275\357\273\314\343,\317\016\0162eX\010\005\221"
 254      BBCCE32C 
 254      CF0E0E32 
 254      65580805 
 254      91
 255 01c6 0EC3F0EC 		.ascii	"\016\303\360\354\213\354\215\264\364\230G\323L9\313"
 255      8BEC8DB4 
 255      F49847D3 
 255      4C39CB
 256 01d5 FC885905 		.ascii	"\374\210Y\005\375\033d\371\305\233\031\253\317\3370"
 256      FD1B64F9 
 256      C59B19AB 
 256      CFDF30
 257 01e4 2B0901F9 		.ascii	"+\011\001\371\025\331\203\360\004`9{\213\276\011\317"
 257      15D983F0 
 257      0460397B 
 257      8BBE09CF 
 258 01f4 AE600DCC 		.ascii	"\256`\015\314\252\254*\015=\241\206i\351\376\376\246"
 258      AAAC2A0D 
 258      3DA18669 
 258      E9FEFEA6 
 259 0204 E652953C 		.ascii	"\346R\225<\307\214e\241\365K\354\217\362\302\267\230"
 259      C78C65A1 
 259      F54BEC8F 
 259      F2C2B798 
 260 0214 E15FB682 		.ascii	"\341_\266\202Oo\256\177\277H\247\011\215D\265\023\022"
 260      4F6FAE7F 
 260      BF48A709 
 260      8D44B513 
 260      12
 261 0225 ABCC2456 		.ascii	"\253\314$V[J\260\364X\216\004S\235\300\2571\303\377"
 261      5B4AB0F4 
 261      588E0453 
 261      9DC0AF31 
 261      C3FF
 262 0237 772E7CB3 		.ascii	"w.|\263\222^2\373]>+\001\243\221x\205uBc\235\231\306"
 262      925E32FB 
 262      5D3E2B01 
 262      A3917885 
ARM GAS  /tmp/ccSwo4Z8.s 			page 20


 262      7542639D 
 263 024d 6BB934D2 		.ascii	"k\2714\322\007\225\306\275\357\260\362<\271\257\277"
 263      0795C6BD 
 263      EFB0F23C 
 263      B9AFBF
 264 025c BFCECB98 		.ascii	"\277\316\313\230\274eL\211\255\267l\244\336\342A\277"
 264      BC654C89 
 264      ADB76CA4 
 264      DEE241BF 
 265 026c 86E03B53 		.ascii	"\206\340;S\226kI\307\207\332\301\211\255z\375\200y\011"
 265      966B49C7 
 265      87DAC189 
 265      AD7AFD80 
 265      7909
 266 027e FC287D6C 		.ascii	"\374(}l\316\321\213l-\340\363l+\033\204\336\037\231"
 266      CED18B6C 
 266      2DE0F36C 
 266      2B1B84DE 
 266      1F99
 267 0290 A4E1D9A2 		.ascii	"\244\341\331\242\240\221q\370\2555 xx\231\026\310\004"
 267      A09171F8 
 267      AD352078 
 267      789916C8 
 267      04
 268 02a1 3044EFB3 		.ascii	"0D\357\263\014q\333s&\310\333\230\025\262</\275do\333"
 268      0C71DB73 
 268      26C8DB98 
 268      15B23C2F 
 268      BD646FDB 
 269 02b5 06F6B93A 		.ascii	"\006\366\271:\371!\215\364ul\267\001\024e\305\260\332"
 269      F9218DF4 
 269      756CB701 
 269      1465C5B0 
 269      DA
 270 02c6 4AD36EAD 		.ascii	"J\323n\255\274\256~F\251\027\225\302\344\351Ey\336l"
 270      BCAE7E46 
 270      A91795C2 
 270      E4E94579 
 270      DE6C
 271 02d8 655065EB 		.ascii	"ePe\353n\352/e\252\0069\246\337\222U\371\213J\312$\317"
 271      6EEA2F65 
 271      AA0639A6 
 271      DF9255F9 
 271      8B4ACA24 
 272 02ed 6E05249E 		.ascii	"n\005$\236\3356 &\355zQ&\337\264d\362\312\354\271\303"
 272      DD362026 
 272      ED7A5126 
 272      DFB464F2 
 272      CAECB9C3 
 273 0301 E5E65AA5 		.ascii	"\345\346Z\245\277\177\307X\263G\020bv.\261\323\"\200"
 273      BF7FC758 
 273      B3471062 
 273      762EB1D3 
 273      2280
 274 0313 CCE12C5D 		.ascii	"\314\341,]\265V\336\360\212\034\324x\347Y%?\237oYxn"
 274      B556DEF0 
 274      8A1CD478 
ARM GAS  /tmp/ccSwo4Z8.s 			page 21


 274      E759253F 
 274      9F6F5978 
 275 0328 43FAEABC 		.ascii	"C\372\352\274?y\236\227\337\"\243\343\251\314\330\330"
 275      3F799E97 
 275      DF22A3E3 
 275      A9CCD8D8 
 276 0338 99435085 		.ascii	"\231CP\205h\263\2048|\364]6\007\342\262\015\304nK\210"
 276      68B38438 
 276      7CF45D36 
 276      07E2B20D 
 276      C46E4B88 
 277 034c CDF5C7BC 		.ascii	"\315\365\307\274\031\010\347\321v\217q\374\2240\263"
 277      1908E7D1 
 277      768F71FC 
 277      9430B3
 278 035b B3E3870E 		.ascii	"\263\343\207\016\246\364Je\330\242\354`\012h\020d2\300"
 278      A6F44A65 
 278      D8A2EC60 
 278      0A681064 
 278      32C0
 279 036d C144A232 		.ascii	"\301D\2422\227i,\017\033f\335\226g\367\263?\200\374"
 279      97692C0F 
 279      1B66DD96 
 279      67F7B33F 
 279      80FC
 280 037f 80EA2878 		.ascii	"\200\352(xI-k\245~\226\330j\276\207e,?\205\272\332\311"
 280      492D6BA5 
 280      7E96D86A 
 280      BE87652C 
 280      3F85BADA 
 281 0394 F80E5B92 		.ascii	"\370\016[\222\2050\014\320\347=\326*>hm\245\205\235"
 281      85300CD0 
 281      E73DD62A 
 281      3E686DA5 
 281      859D
 282 03a6 B9565A61 		.ascii	"\271VZa\003q\330\332W\016[\370\212b\003\321i\005\241"
 282      0371D8DA 
 282      570E5BF8 
 282      8A6203D1 
 282      6905A1
 283 03b9 F41D982B 		.ascii	"\364\035\230+\2638zo\321\000\016\333\000\0345\002|\237"
 283      B3387A6F 
 283      D1000EDB 
 283      001C3502 
 283      7C9F
 284 03cb 594E7868 		.ascii	"YNxh\354\3317lM\255<}=X\256\237\355\037s\003\363,q\226"
 284      ECD9376C 
 284      4DAD3C7D 
 284      3D58AE9F 
 284      ED1F7303 
 285 03e3 B2991F66 		.ascii	"\262\231\037fu\250\374\273\246\304.\242;\0323\233N*"
 285      75A8FCBB 
 285      A6C42EA2 
 285      3B1A339B 
 285      4E2A
 286 03f5 376F9565 		.ascii	"7o\225e\230c\272\330\033\200\356:\257\221\256\003$\216"
 286      9863BAD8 
ARM GAS  /tmp/ccSwo4Z8.s 			page 22


 286      1B80EE3A 
 286      AF91AE03 
 286      248E
 287 0407 79033B9D 		.ascii	"y\003;\235\000\000\265\253\352B\351\306\246\266\247"
 287      0000B5AB 
 287      EA42E9C6 
 287      A6B6A7
 288 0416 D969188F 		.ascii	"\331i\030\217\3115\306B \372\271\225i\206\016\312\013"
 288      C935C642 
 288      20FAB995 
 288      69860ECA 
 288      0B
 289 0427 DD4B59B9 		.ascii	"\335KY\271\371-V#\252\213\367iV\2439B\317\374\325\357"
 289      F92D5623 
 289      AA8BF769 
 289      56A33942 
 289      CFFCD5EF 
 290 043b 6D47E67B 		.ascii	"mG\346{\220\3716\033\346mq@\317\330\345d.\353\235\365"
 290      90F9361B 
 290      E66D7140 
 290      CFD8E564 
 290      2EEB9DF5 
 291 044f 94F5938E 		.ascii	"\224\365\223\216X\3578n\313\372X\215b\300\240\366\357"
 291      58EF386E 
 291      CBFA588D 
 291      62C0A0F6 
 291      EF
 292 0460 ED41CE3F 		.ascii	"\355A\316?B\316\323\326\2347\217\265\303\341\230^\354"
 292      42CED3D6 
 292      9C378FB5 
 292      C3E1985E 
 292      EC
 293 0471 722687F3 		.ascii	"r&\207\363\236+\265\224\3633\0168\257U.\314ya8\341\334"
 293      9E2BB594 
 293      F3330E38 
 293      AF552ECC 
 293      796138E1 
 294 0486 1027ACCC 		.ascii	"\020'\254\314.\3734\006\236\310\012\262\354\344U\277"
 294      2EFB3406 
 294      9EC80AB2 
 294      ECE455BF 
 295 0496 2C0778F6 		.ascii	",\007x\3663\224cZQa\3671\342p\314l\354s\301\302{\352"
 295      3394635A 
 295      5161F731 
 295      E270CC6C 
 295      EC73C1C2 
 296 04ac A820171C 		.ascii	"\250 \027\034\011\322\370\007U\020\236=\007\302@\320"
 296      09D2F807 
 296      55109E3D 
 296      07C240D0 
 297 04bc C9E05A45 		.ascii	"\311\340ZE\021ZT?\264\201\021o\361\201P\003\257\201"
 297      115A543F 
 297      B481116F 
 297      F1815003 
 297      AF81
 298 04ce 2D710D56 		.ascii	"-q\015Vf\000k:\260\024\231s\276\232Y\360\2512\354Mt"
 298      66006B3A 
ARM GAS  /tmp/ccSwo4Z8.s 			page 23


 298      B0149973 
 298      BE9A59F0 
 298      A932EC4D 
 299 04e3 916BB8A2 		.ascii	"\221k\270\2428nR\255\013\244\363\007\207\255A\244>D"
 299      386E52AD 
 299      0BA4F307 
 299      87AD41A4 
 299      3E44
 300 04f5 927D0345 		.ascii	"\222}\003E\332\370\271\322\310\326\241M\372\021\352"
 300      DAF8B9D2 
 300      C8D6A14D 
 300      FA11EA
 301 0504 8F3EF30A 		.ascii	"\217>\363\012\313oZa\371\215+,\1770[\240+\254o\2679"
 301      CB6F5A61 
 301      F98D2B2C 
 301      7F305BA0 
 301      2BAC6FB7 
 302 0519 C7BCE573 		.ascii	"\307\274\345s`\272\200\235\037\310\351\205M\373<d\251"
 302      60BA809D 
 302      1FC8E985 
 302      4DFB3C64 
 302      A9
 303 052a ECD106A5 		.ascii	"\354\321\006\245\317NK\034\263\007iM\347L\276\334q\271"
 303      CF4E4B1C 
 303      B307694D 
 303      E74CBEDC 
 303      71B9
 304 053c FDEF16A1 		.ascii	"\375\357\026\241\005\310\245\302\256\334\272\267\321"
 304      05C8A5C2 
 304      AEDCBAB7 
 304      D1
 305 0549 7E4CEAA8 		.ascii	"~L\352\2507s\032\371\333\220\374u$?\313L~e\377N\026"
 305      37731AF9 
 305      DB90FC75 
 305      243FCB4C 
 305      7E65FF4E 
 306 055e 07E92C47 		.ascii	"\007\351,G\324\017\035\236\237K\335v\311A]\243\343\362"
 306      D40F1D9E 
 306      9F4BDD76 
 306      C9415DA3 
 306      E3F2
 307 0570 27239A50 		.ascii	"'#\232P\304\337sd\300\324\373\315\2361\246DO\013\177"
 307      C4DF7364 
 307      C0D4FBCD 
 307      9E31A644 
 307      4F0B7F
 308 0583 EB1A70CC 		.ascii	"\353\032p\3143~\215\371\001\215\327\364\312\325{q{\352"
 308      337E8DF9 
 308      018DD7F4 
 308      CAD57B71 
 308      7BEA
 309 0595 D15898E7 		.ascii	"\321X\230\347\032\260\314\240\207\316\303\030\000T\260"
 309      1AB0CCA0 
 309      87CEC318 
 309      0054B0
 310 05a4 054EC06C 		.ascii	"\005N\300l\275\250V9\252\007[\344\032\314\310Y\227\036"
 310      BDA85639 
ARM GAS  /tmp/ccSwo4Z8.s 			page 24


 310      AA075BE4 
 310      1ACCC859 
 310      971E
 311 05b6 6C8913B0 		.ascii	"l\211\023\260R{\316\216\353\301\226\271\0063r\366'="
 311      527BCE8E 
 311      EBC196B9 
 311      063372F6 
 311      273D
 312 05c8 D8722760 		.ascii	"\330r'`\303\3549\353\326\203\255t\015f\344\254W\017"
 312      C3EC39EB 
 312      D683AD74 
 312      0D66E4AC 
 312      570F
 313 05da B6CA0958 		.ascii	"\266\312\011X\231\005g\231\217\335\312t&\227qs\216Y"
 313      99056799 
 313      8FDDCA74 
 313      26977173 
 313      8E59
 314 05ec E3D7C281 		.ascii	"\343\327\302\201K\227f\262\030\257\371\335\206/\203"
 314      4B9766B2 
 314      18AFF9DD 
 314      862F83
 315 05fb DC308FEE 		.ascii	"\3340\217\356_A\266\246\355\243\264\271l\223\023\304"
 315      5F41B6A6 
 315      EDA3B4B9 
 315      6C9313C4 
 316 060b 3C0EB349 		.ascii	"<\016\263I?1nw\015f4K\247\012\366\016\202\355r\002\226"
 316      3F316E77 
 316      0D66344B 
 316      A70AF60E 
 316      82ED7202 
 317 0620 C7617A09 		.ascii	"\307az\011\230\325\206G\251\227g\262\323\326\217\310"
 317      98D58647 
 317      A99767B2 
 317      D3D68FC8 
 318 0630 BB288310 		.ascii	"\273(\203\020v\323j\014a\257rdr\333\357\267\234'\035"
 318      76D36A0C 
 318      61AF7264 
 318      72DBEFB7 
 318      9C271D
 319 0643 612D38DF 		.ascii	"a-8\337;\\\235s\327\"V\327\300\261\2327~\336\356\301"
 319      3B5C9D73 
 319      D72256D7 
 319      C0B19A37 
 319      7EDEEEC1 
 320 0657 F0BD1EA1 		.ascii	"\360\275\036\241>\310\211\254A\323\234\0334\316\212"
 320      3EC889AC 
 320      41D39C1B 
 320      34CE8A
 321 0666 C160B6D0 		.ascii	"\301`\266\320\257}\214\033\262o\265\217\335PY\255\037"
 321      AF7D8C1B 
 321      B26FB58F 
 321      DD5059AD 
 321      1F
 322 0677 2A675D9B 		.ascii	"*g]\233\336\350\346\013{\272=\215\2622\315\243\333\265"
 322      DEE8E60B 
 322      7BBA3D8D 
ARM GAS  /tmp/ccSwo4Z8.s 			page 25


 322      B232CDA3 
 322      DBB5
 323 0689 E6DDE292 		.ascii	"\346\335\342\222\025\326'\307\350jf\023j\366\212\265"
 323      15D627C7 
 323      E86A6613 
 323      6AF68AB5 
 324 0699 919C409D 		.ascii	"\221\234@\235?\330J\217\236\266 \224\034\030(\324\306"
 324      3FD84A8F 
 324      9EB62094 
 324      1C1828D4 
 324      C6
 325 06aa CFD37594 		.ascii	"\317\323u\224\253m\01053`\2667k\2627k\264Cf\027M7\321"
 325      AB6D0835 
 325      3360B637 
 325      6BB2376B 
 325      B4436617 
 326 06c1 DF565B98 		.ascii	"\337V[\230a\003&\243\031\004\312\023F\265\330\324s\352"
 326      610326A3 
 326      1904CA13 
 326      46B5D8D4 
 326      73EA
 327 06d3 39F662AD 		.ascii	"9\366b\255\274h\224\033\253\2455\253\355D\375,\316\321"
 327      BC68941B 
 327      ABA535AB 
 327      ED44FD2C 
 327      CED1
 328 06e5 0F31813B 		.ascii	"\0171\201;A^t-H\300(H\323\307\003\020\244W\023d\027"
 328      415E742D 
 328      48C02848 
 328      D3C70310 
 328      A4571364 
 329 06fa 0AB2FA1B 		.ascii	"\012\262\372\033\020d\203kAJu\202\220\355\343\245\371"
 329      1064836B 
 329      414A7582 
 329      90EDE3A5 
 329      F9
 330 070b EA6CF11D 		.ascii	"\352l\361\035f^\376\325.\236\303p\3371,5\225/\336%\307"
 330      665EFED5 
 330      2E9EC370 
 330      DF312C35 
 330      952FDE25 
 331 0720 E1A4BAF0 		.ascii	"\341\244\272\360\236\371\271\303\272=\221\354lO\324"
 331      9EF9B9C3 
 331      BA3D91EC 
 331      6C4FD4
 332 072f 4EF74407 		.ascii	"N\367D\007Pc[\254F\231\023\244\346\005\347\2738\214"
 332      50635BAC 
 332      469913A4 
 332      E605E7BB 
 332      388C
 333 0741 A9871068 		.ascii	"\251\207\020h\307@\201`\270^\255\247V\354D\250\3359"
 333      C7408160 
 333      B85EADA7 
 333      56EC44A8 
 333      DD39
 334 0753 56F4998C 		.ascii	"V\364\231\214\3503\032\021~\022ZW1Z>Ek\310\017?\363"
 334      E8331A11 
ARM GAS  /tmp/ccSwo4Z8.s 			page 26


 334      7E125A57 
 334      315A3E45 
 334      6BC80F3F 
 335 0768 FFDE8F63 		.ascii	"\377\336\217c\016!\373\304\200\003Y\205\223m\373\276"
 335      0E21FBC4 
 335      80035985 
 335      936DFBBE 
 336 0778 F9DA7243 		.ascii	"\371\332rC5R\327\327B\254Uv\314\323\366\365c\310\032"
 336      3552D7D7 
 336      42AC5576 
 336      CCD3F6F5 
 336      63C81A
 337 078b E183AF09 		.ascii	"\341\203\257\011\207+T\303\032\301\264\317\371\314f"
 337      872B54C3 
 337      1AC1B4CF 
 337      F9CC66
 338 079a 0ECA1CDD 		.ascii	"\016\312\034\335\244\351n\272\033\227\222\237\344\330"
 338      A4E96EBA 
 338      1B97929F 
 338      E4D8
 339 07a8 FB1C6BDA 		.ascii	"\373\034k\332\351\220\012]\023\273\301\364\276~>\374"
 339      E9900A5D 
 339      13BBC1F4 
 339      BE7E3EFC 
 340 07b8 F2EB8909 		.ascii	"\362\353\211\011v\350yI\265C\241M\344\023\032Z\010\011"
 340      76E87949 
 340      B543A14D 
 340      E4131A5A 
 340      0809
 341 07ca 4F0B12C2 		.ascii	"O\013\022\302\247\314"
 341      A7CC
 342 07d0 7BC83757 		.ascii	"{\3107W\177POg\270S\016v\221\262r\342tP\236\027\322"
 342      7F504F67 
 342      B8530E76 
 342      91B272E2 
 342      74509E17 
 343 07e5 0EB8D667 		.ascii	"\016\270\326gP\255\026:\005\335J\351\026\332G\271\211"
 343      50AD163A 
 343      05DD4AE9 
 343      16DA47B9 
 343      89
 344 07f6 139FD038 		.ascii	"\023\237\3208\361\277j\234\010\232mt\310\034Y]\015\222"
 344      F1BF6A9C 
 344      089A6D74 
 344      C81C595D 
 344      0D92
 345 0808 1D66699C 		.ascii	"\035fi\234n\0063\037;\037\370P\357\003m\301\257\351"
 345      6E06331F 
 345      3B1FF850 
 345      EF036DC1 
 345      AFE9
 346 081a 033D1F3B 		.ascii	"\003=\037;\364\0019s,Z\212\224\367!\345\013f'8\261v"
 346      F4013973 
 346      2C5A8A94 
 346      F721E50B 
 346      662738B1 
 347 082f 8F76A27B 		.ascii	"\217v\242{\301\221\023|ap\202\253\031\324\2018A\255"
ARM GAS  /tmp/ccSwo4Z8.s 			page 27


 347      C191137C 
 347      617082AB 
 347      19D48138 
 347      41AD
 348 0841 72EDCC1E 		.ascii	"r\355\314\036\026\341\324\255\207\\l\202s\271%\357\023"
 348      16E1D4AD 
 348      875C6C82 
 348      73B925EF 
 348      13
 349 0852 DC2A4675 		.ascii	"\334*Fu/\345\275\323d\222\273\316\021\231f\026\233]"
 349      2FE5BDD3 
 349      6492BBCE 
 349      11996616 
 349      9B5D
 350 0864 4BD58CCE 		.ascii	"K\325\214\316\265\262j\344\331\213\034\271_r\211\273"
 350      B5B26AE4 
 350      D98B1CB9 
 350      5F7289BB 
 351 0874 15F2CB98 		.ascii	"\025\362\313\230_\205\274\240[\\\323\273E\203k\271\313"
 351      5F85BCA0 
 351      5B5CD3BB 
 351      45836BB9 
 351      CB
 352 0885 1C7A5FAF 		.ascii	"\034z_\257\236Lc\361\327\363\276\205=\347\275x\036\343"
 352      9E4C63F1 
 352      D7F3BE85 
 352      3DE7BD78 
 352      1EE3
 353 0897 E6CCB38B 		.ascii	"\346\314\263\213\216[\331C\306\355\262\034\345\366\231"
 353      8E5BD943 
 353      C6EDB21C 
 353      E5F699
 354 08a6 D7BE4E4E 		.ascii	"\327\276NN\000W\017T\222\314\007\002X\261\203\375I\231"
 354      00570F54 
 354      92CC0702 
 354      58B183FD 
 354      4999
 355 08b8 85D233F3 		.ascii	"\205\3223\363\342\025:/\026<F\314L4\355\303\333Q\031"
 355      E2153A2F 
 355      163C46CC 
 355      4C34EDC3 
 355      DB5119
 356 08cb F51EE269 		.ascii	"\365\036\342i\255&e88\216|\033\273\314\362\344\034\255"
 356      AD266538 
 356      388E7C1B 
 356      BBCCF2E4 
 356      1CAD
 357 08dd 5FD2EE11 		.ascii	"_\322\356\021\220k\205O\004;\346\350\217\326y\366\013"
 357      906B854F 
 357      043BE6E8 
 357      8FD679F6 
 357      0B
 358 08ee BC714CFA 		.ascii	"\274qL\372\016T\241\006\033f\031\344\3319\0362@\346"
 358      0E54A106 
 358      1B6619E4 
 358      D9391E32 
 358      40E6
ARM GAS  /tmp/ccSwo4Z8.s 			page 28


 359 0900 7A748382 		.ascii	"zt\203\202c:\235(\377\207v\256(+\327:\324\2733Z \352"
 359      633A9D28 
 359      FF8776AE 
 359      282BD73A 
 359      D4BB335A 
 360 0916 36E35905 		.ascii	"6\343Y\005\"\003\236\301\230J\303Q<\264P\3277g\2340"
 360      22039EC1 
 360      984AC351 
 360      3CB450D7 
 360      37679C30 
 361 092a 37CA0EAC 		.ascii	"7\312\016\254VY\252\202\251\036\177\336\011\330h;Ik"
 361      5659AA82 
 361      A91E7FDE 
 361      09D8683B 
 361      496B
 362 093c 9537166A 		.ascii	"\2257\026j\226\352\305\325\311u\327xF\346:\216.\245"
 362      96EAC5D5 
 362      C975D778 
 362      46E63A8E 
 362      2EA5
 363 094e 78EA5D88 		.ascii	"x\352]\210\351%\016\360\306\332\363wa\241a1\367\214"
 363      E9250EF0 
 363      C6DAF377 
 363      61A16131 
 363      F78C
 364 0960 6B38A321 		.ascii	"k8\243!\276:J\014;w\230\345m\312L\350&\307\006tP\365"
 364      BE3A4A0C 
 364      3B7798E5 
 364      6DCA4CE8 
 364      26C70674 
 365 0976 6CBD305C 		.ascii	"l\2750\\]\255/\301A\265\245\304\301\375N\003\020q\330"
 365      5DAD2FC1 
 365      41B5A5C4 
 365      C1FD4E03 
 365      1071D8
 366 0989 65A611A5 		.ascii	"e\246\021\245\254\337\025\222\275j}\341\321\264q\227"
 366      ACDF1592 
 366      BD6A7DE1 
 366      D1B47197 
 367 0999 FB7B41ED 		.ascii	"\373{A\355\332Vq9\272\311\276\222o$0v\"\3142\367\343"
 367      DA567139 
 367      BAC9BE92 
 367      6F243076 
 367      22CC32F7 
 368 09ae 9886F89E 		.ascii	"\230\206\370\236\255\207\206o\331 \313\263|\032c\357"
 368      AD87866F 
 368      D920CBB3 
 368      7C1A63EF 
 369 09be B94634FA 		.ascii	"\271F4\372\333\246]8\030T\260\036'`y&\370\315\004\314"
 369      DBA65D38 
 369      1854B01E 
 369      27607926 
 369      F8CD04CC 
 370 09d2 8D967BE9 		.ascii	"\215\226{\351\354\263\032\311\237\372f\224\374\251k"
 370      ECB31AC9 
 370      9FFA6694 
 370      FCA96B
ARM GAS  /tmp/ccSwo4Z8.s 			page 29


 371 09e1 290C2A01 		.ascii	")\014*\001%\237\031\276\345uY^\377\204\253\003\310O"
 371      259F19BE 
 371      E575595E 
 371      FF84AB03 
 371      C84F
 372 09f3 0F6A2EB3 		.ascii	"\017j.\263\016\2459\227#\315Z\363\032\330\341y\036\307"
 372      0EA53997 
 372      23CD5AF3 
 372      1AD8E179 
 372      1EC7
 373 0a05 5C368B64 		.ascii	"\\6\213d\025?\255N\220\255>\372\341\304\263M\030\377"
 373      153FAD4E 
 373      90AD3EFA 
 373      E1C4B34D 
 373      18FF
 374 0a17 9B3D6469 		.ascii	"\233=di\264\022\363\2271_\205\371Z\343\2740-d\012\037"
 374      B412F397 
 374      315F85F9 
 374      5AE3BC30 
 374      2D640A1F 
 375 0a2b C6A14A8B 		.ascii	"\306\241J\213\0179f${\023\032Vj\370d\313%\026Wj\230"
 375      0F396624 
 375      7B131A56 
 375      6AF864CB 
 375      2516576A 
 376 0a40 5FC5BC0E 		.ascii	"_\305\274\016Wm+0_\211\371\313\230\257\302\274\025s"
 376      576D2B30 
 376      5F89F9CB 
 376      98AFC2BC 
 376      1573
 377 0a52 05F336CC 		.ascii	"\005\3636\314\367b>\003\331\377\003\346\015\230\317"
 377      F7623E03 
 377      D9FF03E6 
 377      0D98CF
 378 0a61 C37C3EE6 		.ascii	"\303|>\346\0131_\204\371b\275\210v\0135\323\216R\233"
 378      0B315F84 
 378      F962BD88 
 378      760B35D3 
 378      8E529B
 379 0a74 91CF0CF4 		.ascii	"\221\317\014\364f7l\025\372^\324\337%\340\331+\256\021"
 379      66376C15 
 379      FA5ED4DF 
 379      25E0D92B 
 379      AE11
 380 0a86 CBF2A9F6 		.ascii	"\313\362\251\366\214N\265\237\242j\317\242:_7ZtVH{\036"
 380      8C4EB59F 
 380      A26ACFA2 
 380      3A5F375A 
 380      7456487B 
 381 0a9b 63605B84 		.ascii	"c`[\204#\307\215\363\325\263f<W!DV\272\216c<\232\216"
 381      23C78DF3 
 381      D5B3663C 
 381      57214456 
 381      BA8E633C 
 382 0ab1 6BFD45AE 		.ascii	"k\375E\256\301\312\014\314\365,6>\241\260\314\011^\236"
 382      C1CA0CCC 
 382      F52C363E 
ARM GAS  /tmp/ccSwo4Z8.s 			page 30


 382      A1B0CC09 
 382      5E9E
 383 0ac3 1B31BDC7 		.ascii	"\0331\275\307u7bZ\\\203\031\231\273\254\007[\353\004"
 383      7537625A 
 383      5C831999 
 383      BBAC075B 
 383      EB04
 384 0ad5 CCEA468C 		.ascii	"\314\352F\214\265\361O\352\214\177\012\215\177\032\215"
 384      B5F14FEA 
 384      8C7F0A8D 
 384      7F1A8D
 385 0ae4 BF093D7E 		.ascii	"\277\011=~3\346[1\337\206\371v\243Sl\016i\317\027Qb"
 385      33E65B31 
 385      DF86F976 
 385      A3536C0E 
 385      69CF1751 
 386 0af9 C6A7780A 		.ascii	"\306\247x\012y\205\254\264\332?Xd\265\301\203\245w\357"
 386      7985ACB4 
 386      DA3F5864 
 386      B5C183A5 
 386      77EF
 387 0b0b 882E9C09 		.ascii	"\210.\234\011\336\302U\302\366P\301\007\213\314;\350"
 387      DEC255C2 
 387      F650C107 
 387      8BCC3BE8 
 388 0b1b 4EECD296 		.ascii	"N\354\322\226\263\364\356\371j\006]z\2679Z,\\k\314\363"
 388      B3F4EEF9 
 388      6A065D7A 
 388      B7395A2C 
 388      5C6BCCF3 
 389 0b2f 788EFE51 		.ascii	"x\216\376Q\200\014\375\277\320\313\321>B}\314h/\312"
 389      800CFDBF 
 389      D0CBD13E 
 389      427DCC68 
 389      2FCA
 390 0b41 F1696139 		.ascii	"\361ia9\2148\034\363%v\331\237+\3079M\216\375\216\344"
 390      8C381CF3 
 390      2576D99F 
 390      2BC7394D 
 390      8EFD8EE4 
 391 0b55 D8D2A8F9 		.ascii	"\330\322\250\371\376\036\017\361\260\271\2034\334\001"
 391      FE1E0FF1 
 391      B0B98334 
 391      DC01
 392 0b63 052C65EB 		.ascii	"\005,e\3531tW\025l\276k0\243\357\277y\314\355\212\254"
 392      31745715 
 392      6CBE6B30 
 392      A3EFBF79 
 392      CCED8AAC 
 393 0b77 E964570B 		.ascii	"\351dW\013=\016;\202\323\353\322A\337\310b\241\305\211"
 393      3D0E3B82 
 393      D3EBD241 
 393      DFC862A1 
 393      C589
 394 0b89 24F64B1E 		.ascii	"$\366K\036\260\313\371\005\026G>\316\237\036=\3411<"
 394      B0CBF905 
 394      16473ECE 
ARM GAS  /tmp/ccSwo4Z8.s 			page 31


 394      9F1E3DE1 
 394      313C
 395 0b9b 3D4A1FD3 		.ascii	"=J\037\323\320=b\231W)\351\277z\005\335\3558\232e\235"
 395      D03D6299 
 395      5729E9BF 
 395      7A05DDED 
 395      389A659D 
 396 0baf 4927A683 		.ascii	"I'\246\203VB\312\216\215\036O\211\215K\345\\\203\370"
 396      5642CA8E 
 396      8D1E4F89 
 396      8D4BE55C 
 396      83F8
 397 0bc1 E05A6906 		.ascii	"\340Zi\006\363\223\233\036+\265\311\017\267%\212\023"
 397      F3939B1E 
 397      2BB5C90F 
 397      B7258A13 
 398 0bd1 40E7EB9B 		.ascii	"@\347\353\233\375\272\365\315\273\270\2769\210a\356"
 398      FDBAF5CD 
 398      BBB8BE39 
 398      8861EE
 399 0be0 30E69D98 		.ascii	"0\346\235\230\277\207\371\007N&\177\342\363\031\354"
 399      BF87F907 
 399      4E267FE2 
 399      F319EC
 400 0bef 431E8EC6 		.ascii	"C\036\216\306\231\201\215\243\276\3548\342\331\016\327"
 400      99818DA3 
 400      BEEC38E2 
 400      D90ED7
 401 0bfe 6006452A 		.ascii	"`\006E*\317ff_2(x\266\313\011^\236\005\374k\352\234"
 401      CF66665F 
 401      322878B6 
 401      CB095E9E 
 401      05FC6BEA 
 402 0c13 A48EB0DD 		.ascii	"\244\216\260\335\203X\227`e\371\214\322\2463\312n4J"
 402      83589760 
 402      65F98CD2 
 402      A633CA6E 
 402      344A
 403 0c25 3B9AE043 		.ascii	";\232\340C\314Oa~\3328\017u\0142\315C\306\240o5-\352"
 403      CC4F617E 
 403      DA380F75 
 403      0C32CD43 
 403      C6A06F35 
 404 0c3b F5232BDB 		.ascii	"\365#+\333\376\243\201\267\212\271\367k}\347\033\236"
 404      FEA381B7 
 404      8AB9F76B 
 404      7DE71B9E 
 405 0c4b 11EDBA49 		.ascii	"\021\355\272I=\3779\203\301\373\370\240\302\301\333"
 405      3DFF3983 
 405      C1FBF8A0 
 405      C2C1DB
 406 0c5a 08C43167 		.ascii	"\010\3041g\260\317\331\334\003\240\323\332\343\255g"
 406      B0CFD9DC 
 406      03A0D3DA 
 406      E3AD67
 407 0c69 0B47EFE9 		.ascii	"\013G\357\351uJ\353\222\226\354,T\227\031\301\373\362"
 407      754AEB92 
ARM GAS  /tmp/ccSwo4Z8.s 			page 32


 407      96EC2C54 
 407      9719C1FB 
 407      F2
 408 0c7a 3CB3AF7B 		.ascii	"<\263\257{D\233c\256e\370\030\210\227\312\312\216\023"
 408      449B63AE 
 408      65F81888 
 408      97CACA8E 
 408      13
 409 0c8b 9A63A907 		.ascii	"\232c\251\007\372u\203\335\342\031\015q\364\004:\226"
 409      FA7583DD 
 409      E2190D71 
 409      F4043A96 
 410 0c9b 0A36C709 		.ascii	"\0126\307\011X\2365\342\347\277\265\264\252\222Y\272"
 410      589E35E2 
 410      E7BFB5B4 
 410      AA9259BA 
 411 0cab CED459F5 		.ascii	"\316\324Y\365\332\274\313w\340\215\307+h\324\371\203"
 411      DABCCB77 
 411      E08DC72B 
 411      68D4F983 
 412 0cbb 0B1AD584 		.ascii	"\013\032\325\204Ct{\335|\376\320\264\033\317\037\256"
 412      43747BDD 
 412      7CFED0B4 
 412      1BCF1FAE 
 413 0ccb 3B9A8AFF 		.ascii	";\232\212\377\270[Sf\021\021\277\005Y\270>\340\010\262"
 413      B85B5366 
 413      1111BF05 
 413      59B83EE0 
 413      08B2
 414 0cdd E369672B 		.ascii	"\343ig+\024\313\243\364\005\273\311Q\272\354%\272X["
 414      14CBA3F4 
 414      05BBC951 
 414      BAEC25BA 
 414      585B
 415 0cef 5817460C 		.ascii	"X\027F\014\"j\235\327\244\212\016\365(\206\324\027V"
 415      226A9DD7 
 415      A48A0EF5 
 415      2886D417 
 415      56
 416 0d00 C5895DFA 		.ascii	"\305\211]\372\200\3051o\"\013\244\357\300tq\261\336"
 416      80C5316F 
 416      220BA4EF 
 416      C07471B1 
 416      DE
 417 0d11 B8C26F73 		.ascii	"\270\302os\215Wf\300\273\256\036\207\340\244\364\216"
 417      8D5766C0 
 417      BBAE1E87 
 417      E0A4F48E 
 418 0d21 13AC3CC1 		.ascii	"\023\254<\301\364\271\335K\377RN+\254\366\210\312\021"
 418      F4B9DD4B 
 418      FF524E2B 
 418      ACF688CA 
 418      11
 419 0d32 339ED5A3 		.ascii	"3\236\325\243\002\316\343i\326\020\260]\362\222x:\303"
 419      02CEE369 
 419      D610B05D 
 419      F292783A 
ARM GAS  /tmp/ccSwo4Z8.s 			page 33


 419      C3
 420 0d43 4B62E8D3 		.ascii	"Kb\350\323\230\317\302|\216\327\301\364\326\357\321"
 420      98CFC27C 
 420      8ED7C1F4 
 420      D6EFD1
 421 0d52 058E6ED7 		.ascii	"\005\216n\327\316\251W \014\364\007\033\370\241L\003"
 421      CEA95720 
 421      0CF4071B 
 421      F8A14C03 
 422 0d62 F523D5D3 		.ascii	"\365#\325\3234_\312\214+Y\033W\317x\207b\311p\247\021"
 422      345FCA8C 
 422      2B591B57 
 422      CF788762 
 422      C970A711 
 423 0d76 9BD831DB 		.ascii	"\233\3301\333\340\315\276\276\022\012f\013c2\022\234"
 423      E0CDBEBE 
 423      120A660B 
 423      6332129C 
 424 0d86 364B60A2 		.ascii	"6K`\242\233\307p\326\212\276\256\233\270\276\304\211"
 424      9BC770D6 
 424      8ABEAE9B 
 424      B8BEC489 
 425 0d96 AB0F27AB 		.ascii	"\253\017'\253?\253G\014^\303\224u\336\034\333L\321\304"
 425      3FAB470C 
 425      5EC39475 
 425      DE1CDB4C 
 425      D1C4
 426 0da8 B599CFEA 		.ascii	"\265\231\317\352\250\177\206\324\317#\335\3171\277\204"
 426      A87F86D4 
 426      CF23DDCF 
 426      31BF84
 427 0db7 F965E3B4 		.ascii	"\371e\343\264\3317\3304m\232\246)Z\266?oO/l:\342\237"
 427      D937D834 
 427      6D9AA629 
 427      5AB63F6F 
 427      4F2F6C3A 
 428 0dcd 262B8B46 		.ascii	"&+\213Fi\357\031\310C\3143\261\341\245\002ZT\362\004"
 428      69EF19C8 
 428      43CC33B1 
 428      E1A5025A 
 428      54F204
 429 0de0 EDEEEE50 		.ascii	"\355\356\356P&j\027\274\025\323\263\365\314\275\030"
 429      266A17BC 
 429      15D3B3F5 
 429      CCBD18
 430 0def B41B3150 		.ascii	"\264\0331P\315\031\342\362N\014Q\334bs\240\272 \224"
 430      CD19E2F2 
 430      4E0C51DC 
 430      6273A0BA 
 430      2094
 431 0e01 A9B50E36 		.ascii	"\251\265\0166\201\247\351\215O\365\\t)\322_\354>JY\233"
 431      81A7E98D 
 431      4FF55C74 
 431      29D25FEC 
 431      3E4A599B 
 432 0e15 74B16EE4 		.ascii	"t\261n\344.\301\221\273\324\350D+\314\332\266\242\327"
 432      2EC191BB 
ARM GAS  /tmp/ccSwo4Z8.s 			page 34


 432      D4E8442B 
 432      CCDAB6A2 
 432      D7
 433 0e26 9C1D0866 		.ascii	"\234\035\010fe\223\207\363T\373Y\036\257{4\210\321Y"
 433      659387F3 
 433      54FB591E 
 433      AF7B3488 
 433      D159
 434 0e38 8D771CDD 		.ascii	"\215w\034\335\241>\363\330\214\032o\261\326x\036\034"
 434      A13EF3D8 
 434      8C1A6FB1 
 434      D6781E1C 
 435 0e48 22D80A4B 		.ascii	"\"\330\012K\225\257p\244\362\213\232\312\325\263\340"
 435      95AF70A4 
 435      F28B9ACA 
 435      D5B3E0
 436 0e57 566460C5 		.ascii	"Vd`\305\200'\206K\002\331\\\250Xo\270\306*\323kS\271"
 436      8027864B 
 436      02D95CA8 
 436      586FB8C6 
 436      2AD36B53 
 437 0e6c 5C34B3CE 		.ascii	"\\4\263\316\247\335\300x\333\014fy\004\232g \\\327\243"
 437      A7DDC078 
 437      DB0C6679 
 437      049A6720 
 437      5CD7A3
 438 0e7f BDEB08AD 		.ascii	"\275\353\010\255\314\261k\255\320\271\326K\350Z+q\""
 438      CCB16BAD 
 438      D0B9D64B 
 438      E85A2B71 
 438      22
 439 0e90 7819F355 		.ascii	"x\031\363U\230\277jt\266\343fg3\332\225\026_\311\343"
 439      98BF6A74 
 439      B6E36667 
 439      33DA9516 
 439      5FC9E3
 440 0ea3 6D8D3DA7 		.ascii	"m\215=\247\357Eo\323\002?x\211\372L\257\2068D\203\271"
 440      EF456FD3 
 440      023F7889 
 440      FA4CAF86 
 440      384483B9 
 441 0eb7 CA5246D7 		.ascii	"\312RF\327\271\216\374\257\331D\376\2333\222|\234#\211"
 441      B98EFCAF 
 441      D944FE9B 
 441      33927C9C 
 441      2389
 442 0ec9 912E2DA7 		.ascii	"\221.-\247\255D\261V\347\011\3359\332\373x\216\326\215"
 442      AD44B156 
 442      E709DD39 
 442      DAFB788E 
 442      D68D
 443 0edb E7683B31 		.ascii	"\347h;1\354~\242\236(\243R\027b\336\204\371Z\243\202"
 443      EC7EA29E 
 443      28A35217 
 443      62DE84F9 
 443      5AA382
 444 0eee 2F67C692 		.ascii	"/g\306\222\306\226\361}>|\005\331\233y\315\220\274b"
ARM GAS  /tmp/ccSwo4Z8.s 			page 35


 444      C696F17D 
 444      3E7C05D9 
 444      9B79CD90 
 444      BC62
 445 0f00 78F0607A 		.ascii	"x\360`z\363\256\363E\323\032\224\351\315\344}n\226\325"
 445      F3AEF345 
 445      D31A94E9 
 445      CDE47D6E 
 445      96D5
 446 0f12 54BBC8B8 		.ascii	"T\273\310\270\013xBC\012a_}\253\003\266\255x\266\325"
 446      0B784243 
 446      0A615F7D 
 446      AB03B6AD 
 446      78B6D5
 447 0f25 B5F637D9 		.ascii	"\265\3667\331h_\377\344U\266\025\331\201\240\324k\262"
 447      685FFFE4 
 447      55B615D9 
 447      81A0D46B 
 447      B2
 448 0f36 6F039B98 		.ascii	"o\003\233\230\340\230\332R\325\031nf\032J_ \241\347"
 448      E098DA52 
 448      D5196E66 
 448      1A4A5F20 
 448      A1E7
 449 0f48 75E48ABE 		.ascii	"u\344\212\276b\271dv\347rv\236\334\274\010\206\014("
 449      62B96476 
 449      E772769E 
 449      DCBC0886 
 449      0C28
 450 0f5a E016BD68 		.ascii	"\340\026\275h\372\3074y\366\015*LF\341/P`\255\3016\243"
 450      FAC73479 
 450      F60D2A4C 
 450      46E12F50 
 450      60ADC136 
 451 0f6f 72E5C3CA 		.ascii	"r\345\303\312W+I\260\221\345\336\376\376!\246C\222-"
 451      572B49B0 
 451      91E5DEFE 
 451      FE21A643 
 451      922D
 452 0f81 9CBD12B6 		.ascii	"\234\275\022\266{u+\245WKMf\315i\276\303H7\335\240t"
 452      7B752BA5 
 452      574B4D66 
 452      CD69BEC3 
 452      4837DDA0 
 453 0f96 D42F60E5 		.ascii	"\324/`\345\017@\214?\203H"
 453      0F408C3F 
 453      8348
 454 0fa0 2AE71CB3 		.ascii	"*\347\034\263\321\304\356\316\034v\373u\354\252\\p\214"
 454      D1C4EECE 
 454      1C76FB75 
 454      ECAA5C70 
 454      8C
 455 0fb1 5290FCFF 		.ascii	"R\220\374\377dq\250\362\232\307\232\034\243T\353\303"
 455      6471A8F2 
 455      9AC79A1C 
 455      A354EBC3 
 456 0fc1 D13E6FBB 		.ascii	"\321>o\273v\2146\033\307`\215\244\315.9Zk\347\2478\273"
ARM GAS  /tmp/ccSwo4Z8.s 			page 36


 456      768C361B 
 456      C7608DA4 
 456      CD2E395A 
 456      6BE7A738 
 457 0fd6 5C53DE6D 		.ascii	"\\S\336mC\331G)\323\377\035\321\324rx.\373\354\272z"
 457      43D94729 
 457      D3FF1DD1 
 457      D472782E 
 457      FBECBA7A 
 458 0fea 99BCF0FB 		.ascii	"\231\274\360\373T\223\322\340u\361j\267\327t8\327\207"
 458      5493D2E0 
 458      75F16AB7 
 458      D77438D7 
 458      87
 459 0ffb 0F041B5E 		.ascii	"\017\004\033^\200"
 459      80
 460 1000 BE52AA9F 		.ascii	"\276R\252\237*\261%\307\314\030J\345\247\377\004\340"
 460      2AB125C7 
 460      CC184AE5 
 460      A7FF04E0 
 461 1010 10EC2B58 		.ascii	"\020\354+X\355}\300\347\206\222\036\355^\273\177\003"
 461      ED7DC0E7 
 461      86921EED 
 461      5EBB7F03 
 462 1020 D0A7FB37 		.ascii	"\320\247\3737\000\262|q\332\257\206e\376\023\004\351"
 462      00B27C71 
 462      DAAF8665 
 462      FE1304E9 
 463 1030 64709677 		.ascii	"dp\226w\274\206\367\223M\316L\336m\266\223\355P\326"
 463      BC86F793 
 463      4DCE4CDE 
 463      6DB693ED 
 463      50D6
 464 1042 994DBDBA 		.ascii	"\231M\275\272l\026\036\370N\266m\257\217\362\364\352"
 464      6C161EF8 
 464      4EB66DAF 
 464      8FF2F4EA 
 465 1052 B0EDB527 		.ascii	"\260\355\265'\017\207\235\266\275H\244\260\353u\304"
 465      0F879DB6 
 465      BD48A4B0 
 465      EB75C4
 466 1061 B6D71B79 		.ascii	"\266\327\033yz\035\265\355E\206\233]\257c\331^eL\023"
 466      7A1DB5ED 
 466      45869B5D 
 466      AF63D95E 
 466      654C13
 467 1074 990B97CC 		.ascii	"\231\013\227\314>r\203<=\2201\330\006\375\277\3560!"
 467      3E72833C 
 467      3D9031D8 
 467      06FDBFEE 
 467      3021
 468 1086 6FCC23FB 		.ascii	"o\314#\373{^\303\231\253\212\256\034\177Z\346\270\014"
 468      7B5EC399 
 468      AB8AAE1C 
 468      7F5AE6B8 
 468      0C
 469 1097 F6363D36 		.ascii	"\3666=6m\3210G\337B1\374\343\220\277\0379\262<\363W"
ARM GAS  /tmp/ccSwo4Z8.s 			page 37


 469      6DD13047 
 469      DF4231FC 
 469      E390BF1F 
 469      39B23CF3 
 470 10ac 9D2A17A5 		.ascii	"\235*\027\245\362d\265(\245\312\357\177\364\221q\217"
 470      F264B528 
 470      A5CAEF7F 
 470      F491718F 
 471 10bc 3C591EA9 		.ascii	"<Y\036\251\212T\213Bx\362\275\361\221UL\220\\\012\307"
 471      8A548B42 
 471      78F2BDF1 
 471      91554C90 
 471      5C0AC7
 472 10cf AA23937C 		.ascii	"\252#\223|\017\376\362\261\262qL\011V\324$H\325\367"
 472      0FFEF2B1 
 472      B2714C09 
 472      56D42448 
 472      D5F7
 473 10e1 7391A289 		.ascii	"s\221\242\211H\254\246R\000\220\324\324\024\351\037"
 473      48ACA652 
 473      0090D4D4 
 473      14E91F
 474 10f0 A91A3F35 		.ascii	"\251\032?5\365O\320\270\004K\217\331uL\211\021\350\024"
 474      F54FD0B8 
 474      044B8FD9 
 474      754C8911 
 474      E814
 475 1102 17E284F8 		.ascii	"\027\342\204\370\310\010S\034F.\242\211\250tgyMJ,\217"
 475      C808531C 
 475      462EA289 
 475      A8746779 
 475      4D4A2C8F 
 476 1116 452BCA27 		.ascii	"E+\312'F\"\345\274\030\277=Q\235\020n\027\370\212h\371"
 476      4622E5BC 
 476      18BF3D51 
 476      9D106E17 
 476      F88A68F9 
 477 112a DD23478F 		.ascii	"\335#G\217\2743C5%UV\012\023\200\254/\025\375/!,\205"
 477      BC334335 
 477      2555560A 
 477      1380AC2F 
 477      15FD2F21 
 478 1140 2255E300 		.ascii	"\"U\343\000\345\376\030\020}\330K\352Jt5\245j\371AA"
 478      E5FE1810 
 478      7DD84BEA 
 478      4A7435A5 
 478      6AF94141 
 479 1154 1A2FF152 		.ascii	"\032/\361RM\352\361\333\362\311S)T\324L\004\350!\341"
 479      4DEAF1DB 
 479      F2C95329 
 479      54D44C04 
 479      E821E1
 480 1167 CA8A89E1 		.ascii	"\312\212\211\341H\225\020\231\204z\311\333)\005\300"
 480      48951099 
 480      847AC9DB 
 480      2905C0
 481 1176 440D3785 		.ascii	"D\0157\205\261Dr\320^\\\340S5 \\D\214Ja\251\252\322"
ARM GAS  /tmp/ccSwo4Z8.s 			page 38


 481      B14472D0 
 481      5E5CE053 
 481      35205C44 
 481      8C4A61A9 
 482 118c 1BA9E245 		.ascii	"\033\251\342EUS\017\3611iD\246qu2\247\355P\035y\325"
 482      55530FF1 
 482      316944A6 
 482      717532A7 
 482      ED501D79 
 483 11a1 0A20C62F 		.ascii	"\012 \306/*&\216#5\343b|*\365\360_\347\345\010$\001"
 483      2A268E23 
 483      35E3627C 
 483      2AF5F05F 
 483      E7E50824 
 484 11b6 86FEB680 		.ascii	"\206\376\266\200\351\244\251I\2010\016\372\012\223\237"
 484      E9A4A949 
 484      81300EFA 
 484      0A939F
 485 11c5 423C2C05 		.ascii	"B<,\0053\345\220(\360\225S\303\261h\012x\032\004\325"
 485      33E59028 
 485      F09553C3 
 485      B1680A78 
 485      1A04D5
 486 11d8 D9DF43A4 		.ascii	"\331\337C\244*\362#\025\376]\215P\003&\000\356\302\206"
 486      2AF22315 
 486      FE5D8D50 
 486      032600EE 
 486      C286
 487 11ea AA80FA4B 		.ascii	"\252\200\372K\205S\313\276d8!<)\301WR\024&\337[\310"
 487      8553CBBE 
 487      6438213C 
 487      29C15752 
 487      1426DF5B 
 488 11ff 3FABE3C9 		.ascii	"?\253\343\311hL\020S\345\017\216\033\007\334j\254\372"
 488      684C1053 
 488      E50F8E1B 
 488      07DC6AAC 
 488      FA
 489 1210 A5A418AD 		.ascii	"\245\244\030\255\016K7\241\273h\322$\204)\304s\3003"
 489      0E4B37A1 
 489      BB68D224 
 489      8429C473 
 489      C033
 490 1222 A209095A 		.ascii	"\242\011\011Z\005j\340\373\256;\303\322\355V\315\342"
 490      056AE0FB 
 490      AE3BC3D2 
 490      ED56CDE2 
 491 1232 7CA42A9A 		.ascii	"|\244*\232\020\312\303\340F|M\014\244\243\340\305\341"
 491      10CAC3E0 
 491      467C4D0C 
 491      A4A3E0C5 
 491      E1
 492 1243 B0D611D9 		.ascii	"\260\326\021\331\214V\373#\325\011\011\270\376\241\243"
 492      8C56FB23 
 492      D50909B8 
 492      FEA1A3
 493 1252 E1445489 		.ascii	"\341DT\211#\007@\"\322\223\001Q\230\010\216\034\226"
ARM GAS  /tmp/ccSwo4Z8.s 			page 39


 493      23074022 
 493      D2930151 
 493      98088E1C 
 493      96
 494 1263 38F16E4E 		.ascii	"8\361nN\274\207\023\177\314\211\367r\342hN\374\211G"
 494      BC87137F 
 494      CC89F772 
 494      E2684EFC 
 494      8947
 495 1275 BC6314A4 		.ascii	"\274c\024\244;\270\230\010_w\025%\303\320\336O44E\020"
 495      3BB89808 
 495      5F771525 
 495      C3D0DE4F 
 495      34344510 
 496 1289 E1BB3A56 		.ascii	"\341\273:V)\210Dc|\\(NI\223\370Xtb\",\241\\?\276;,Q"
 496      29884463 
 496      7C5C284E 
 496      4993F858 
 496      7462222C 
 497 12a4 4EB19804 		.ascii	"N\261\230\004\037\232\024\213\306\243R@\">\005\366\360"
 497      1F9A148B 
 497      C6A35240 
 497      223E05F6 
 497      F0
 498 12b5 938BA341 		.ascii	"\223\213\243A\373j3(\371\223\350o\202_\212WW\012\370"
 498      FB6A3328 
 498      F993E86F 
 498      825F8A57 
 498      570AF8
 499 12c8 7B428C9F 		.ascii	"{B\214\237\230\362K\2420!\205\362\222BQ<5\021.R%@wM"
 499      98F24BA2 
 499      302185F2 
 499      9242513C 
 499      35112E52 
 500 12e0 1D62E554 		.ascii	"\035b\345T\270\024\020\236\214J\021\000\360M\221\252"
 500      B814109E 
 500      8C4A1100 
 500      F04D91AA 
 501 12f0 2BFE3379 		.ascii	"+\3763y\00353t\025D!\021\001\340\242)\222$&C\304\213"
 501      03353374 
 501      15442111 
 501      01E0A229 
 501      92242643 
 502 1306 84389FAC 		.ascii	"\2048\237\254\002\265\344\217 \002\211@~\3527E\221\004"
 502      02B5E48F 
 502      20028940 
 502      7EEA3745 
 502      9104
 503 1318 98A32815 		.ascii	"\230\243(\025\206o\240\001\027\223\001\200\212\327\200"
 503      866FA001 
 503      17930180 
 503      8AD780
 504 1327 11F2C2C4 		.ascii	"\021\362\302\304\245'\011L\\\205\201\357\352)\011\320"
 504      A527094C 
 504      5C8581EF 
 504      EA2909D0 
 505 1337 247604F6 		.ascii	"$v\004\366\343\252\357M\221\240]\262D\230,$\2448\237"
ARM GAS  /tmp/ccSwo4Z8.s 			page 40


 505      E3AAEF4D 
 505      91A05DB2 
 505      44982C24 
 505      A4389F
 506 134a 9A045784 		.ascii	"\232\004W\204)\244\340I\206k\006k\036\254z\374\020\235"
 506      29A4E049 
 506      866B066B 
 506      1EAC7AFC 
 506      109D
 507 135c 4F939A60 		.ascii	"O\223\232`2<\205\217J\321\304D\3208\350B\345\027\213"
 507      323C858F 
 507      4AD1C444 
 507      D038E842 
 507      E5178B
 508 136f 50212485 		.ascii	"P!$\205\0048\337Dh\005$H\373b\242Q>\206^\004\225\311"
 508      0438DF44 
 508      68052448 
 508      FB62A251 
 508      3E865E04 
 509 1385 EAEAD8AD 		.ascii	"\352\352\330\255\371$\220\210\036n\220\242qA\013\007"
 509      F9249088 
 509      1E6E90A2 
 509      71410B07 
 510 1395 718128C3 		.ascii	"q\201(\303/J\250\024o\205\220\002\355V\213)\311\013"
 510      2F4AA814 
 510      6F859002 
 510      ED568B29 
 510      C90B
 511 13a7 1140F2D5 		.ascii	"\021@\362\325`5\233\010\210\022\366\222\212#5\361\232"
 511      60359B08 
 511      8812F692 
 511      8A2335F1 
 511      9A
 512 13b8 182F4527 		.ascii	"\030/E'\013\324\334)\277\250*\304'\242;\027\211\350"
 512      0BD4DC29 
 512      BFA82AC4 
 512      27A23B17 
 512      89E8
 513 13ca 6722F533 		.ascii	"g\"\3653Q\365\263 \324\326\210`?\251H$\234\177wrT\224"
 513      51F5B320 
 513      D4D68860 
 513      3FA94824 
 513      9C7F7772 
 514 13e0 6AF85898 		.ascii	"j\370X\230\300\212\232>n\004}X\\\030b\250SC\201\241"
 514      C08A9A3E 
 514      6E047D58 
 514      5C1862A8 
 514      534381A1 
 515 13f4 CA3F5942 		.ascii	"\312?YB\345\223o2\362\203$\272 \277\001\250\251\024"
 515      E5936F32 
 515      F28324BA 
 515      20BF01A8 
 515      A914
 516 1406 62120F85 		.ascii	"b\022\017\205\0115\211H\030\333\220\222\217\264\345"
 516      09358948 
 516      18DB9092 
 516      8FB4E5
ARM GAS  /tmp/ccSwo4Z8.s 			page 41


 517 1415 C512F822 		.ascii	"\305\022\370\"\242\222\346PE\310\015\246q\012\003\265"
 517      A292E650 
 517      45C80DA6 
 517      710A03B5 
 518 1425 6A247D4D 		.ascii	"j$}M0\311'\242\021b\023\1774%\022/\012\220\350I\012"
 518      30C927A2 
 518      1162137F 
 518      3425122F 
 518      0A90E849 
 519 143a 43893D45 		.ascii	"C\211=E\036|\264\242f\302\004\302\252_\252\010\223\351"
 519      1E7CB4A2 
 519      66C204C2 
 519      AA5FAA08 
 519      93E9
 520 144c 62300199 		.ascii	"b0\001\231\022\011\243[@uJ@\316\213\310w2\010\271\352"
 520      1209A35B 
 520      40754A40 
 520      CE8BC877 
 520      3208B9EA 
 521 1460 EC0128E1 		.ascii	"\354\001(\341\030\362A\277\244$\006\341K\205\012\351"
 521      18F241BF 
 521      A42406E1 
 521      4B850AE9 
 522 1470 713D10BA 		.ascii	"q=\020\272\213\343<\014\034t\236R)\036\216\300\360\255"
 522      8BE33C0C 
 522      1C749E52 
 522      291E8EC0 
 522      F0AD
 523 1482 10C130D5 		.ascii	"\020\3010\3250\206}\325\023&\244\004\211\223\342\203"
 523      30867DD5 
 523      1326A404 
 523      8993E283 
 524 1492 27096242 		.ascii	"'\011bB\210\321\211@*J\204\243\342\357\002\011b\"`\247"
 524      88D18940 
 524      2A4A84A3 
 524      E2EF0209 
 524      622260A7 
 525 14a6 389E990E 		.ascii	"8\236\231\016\264\"\210\024\322\367\031\034\255\214"
 525      B4228814 
 525      D2F7191C 
 525      AD8C
 526 14b4 09D449C1 		.ascii	"\011\324I\3019\271HU \214\372\013\207\007i\205\221\367"
 526      39B94855 
 526      208CFA0B 
 526      87076985 
 526      91F7
 527 14c6 FCE48E7B 		.ascii	"\374\344\216{B\272i\231\201KU\002\237\014W\360 P\330"
 527      42BA6999 
 527      814B5502 
 527      9F0C57F0 
 527      2050D8
 528 14d9 4F6C0333 		.ascii	"Ol\0033r\210\326\202\033\207\303>\310\241\256\334\344"
 528      7288D682 
 528      1B87C33E 
 528      C8A1AEDC 
 528      E4
 529 14ea AFD0B27C 		.ascii	"\257\320\262|\334#\343\037\036\237u[2}G\342\017\000"
ARM GAS  /tmp/ccSwo4Z8.s 			page 42


 529      DC23E31F 
 529      1E9F755B 
 529      327D47E2 
 529      0F00
 530 14fc 29F05E40 		.ascii	")\360^@\006\311\302?\277\177\374?\376\352\321\207\007"
 530      06C9C23F 
 530      BF7FFC3F 
 530      FEEAD187 
 530      07
 531 150d F1B129FC 		.ascii	"\361\261)\374\324\024\204\220\030D\333\242\311|\254"
 531      D4148490 
 531      1844DBA2 
 531      C97CAC
 532 151c 46F83F04 		.ascii	"F\370?\004\332\\\315"
 532      DA5CCD
 533              		.text
 534              		.section	.gnu.lto_.symtab.fcc6321428783cef,"",%progbits
 535 0000 5F636F72 		.ascii	"_core_init\000\000\000\000\000\000\000\000\000\000\000"
 535      655F696E 
 535      69740000 
 535      00000000 
 535      00000000 
 536 0015 00AF0000 		.ascii	"\000\257\000\000\000chCoreAllocI\000\000\000\000\000"
 536      00636843 
 536      6F726541 
 536      6C6C6F63 
 536      49000000 
 537 002b 00000000 		.ascii	"\000\000\000\000\000\000\000\262\000\000\000chCoreA"
 537      000000B2 
 537      00000063 
 537      68436F72 
 537      6541
 538 003d 6C6C6F63 		.ascii	"lloc\000\000\000\000\000\000\000\000\000\000\000\000"
 538      00000000 
 538      00000000 
 538      00000000 
 539 004d BC000000 		.ascii	"\274\000\000\000chCoreGetStatusX\000\000\000\000\000"
 539      6368436F 
 539      72654765 
 539      74537461 
 539      74757358 
 540 0066 00000000 		.ascii	"\000\000\000\000\000\000\000\300\000\000\000ch\000\000"
 540      000000C0 
 540      00000063 
 540      680000
 541 0075 02000000 		.ascii	"\002\000\000\000\000\000\000\000\000\000\327\000\000"
 541      00000000 
 541      0000D700 
 541      00
 542 0082 005F5F68 		.ascii	"\000__heap_base__\000\000\002\000\000\000\000\000\000"
 542      6561705F 
 542      62617365 
 542      5F5F0000 
 542      02000000 
 543 0099 0000003A 		.ascii	"\000\000\000:\002\000\000__heap_end__\000\000\002\000"
 543      0200005F 
 543      5F686561 
ARM GAS  /tmp/ccSwo4Z8.s 			page 43


 543      705F656E 
 543      645F5F00 
 544 00b0 00000000 		.ascii	"\000\000\000\000\000\000\000\000@\002\000\000_dbg_c"
 544      00000000 
 544      40020000 
 544      5F646267 
 544      5F63
 545 00c2 6865636B 		.ascii	"heck_lock\000\000\002\000\000\000\000\000\000\000\000"
 545      5F6C6F63 
 545      6B000002 
 545      00000000 
 545      00000000 
 546 00d6 00C40000 		.ascii	"\000\304\000\000\000_stats_start_measure_crit_thd\000"
 546      005F7374 
 546      6174735F 
 546      73746172 
 546      745F6D65 
 547 00f9 00020000 		.ascii	"\000\002\000\000\000\000\000\000\000\000\000\306\000"
 547      00000000 
 547      000000C6 
 547      00
 548 0106 00006368 		.ascii	"\000\000chSysHalt\000\000\002\000\000\000\000\000\000"
 548      53797348 
 548      616C7400 
 548      00020000 
 548      00000000 
 549 011a 000000C8 		.ascii	"\000\000\000\310\000\000\000_stats_stop_measure_cri"
 549      0000005F 
 549      73746174 
 549      735F7374 
 549      6F705F6D 
 550 0138 745F7468 		.ascii	"t_thd\000\000\002\000\000\000\000\000\000\000\000\000"
 550      64000002 
 550      00000000 
 550      00000000 
 550      00
 551 0149 D1000000 		.ascii	"\321\000\000\000_dbg_check_unlock\000\000\002\000\000"
 551      5F646267 
 551      5F636865 
 551      636B5F75 
 551      6E6C6F63 
 552 0163 00000000 		.ascii	"\000\000\000\000\000\000\000\323\000\000\000chDbgCh"
 552      000000D3 
 552      00000063 
 552      68446267 
 552      4368
 553 0175 65636B43 		.ascii	"eckClassI\000\000\002\000\000\000\000\000\000\000\000"
 553      6C617373 
 553      49000002 
 553      00000000 
 553      00000000 
 554 0189 00D50000 		.ascii	"\000\325\000\000\000"
 554      00
 555              		.text
 556              		.section	.gnu.lto_.opts,"",%progbits
 557 0000 272D6D63 		.ascii	"'-mcpu=cortex-m4' '-mno-thumb-interwork' '-mthumb' "
 557      70753D63 
ARM GAS  /tmp/ccSwo4Z8.s 			page 44


 557      6F727465 
 557      782D6D34 
 557      2720272D 
 558 0033 272D6767 		.ascii	"'-ggdb' '-O0' '-fomit-frame-pointer' '-falign-funct"
 558      64622720 
 558      272D4F30 
 558      2720272D 
 558      666F6D69 
 559 0066 696F6E73 		.ascii	"ions=16' '-ffunction-sections' '-fdata-sections' '-"
 559      3D313627 
 559      20272D66 
 559      66756E63 
 559      74696F6E 
 560 0099 666E6F2D 		.ascii	"fno-common' '-flto'\000"
 560      636F6D6D 
 560      6F6E2720 
 560      272D666C 
 560      746F2700 
 561              		.text
 562              		.cfi_sections	.debug_frame
 563              		.section	.text.port_lock,"ax",%progbits
 564              		.align	2
 565              		.p2align 4,,15
 566              		.thumb
 567              		.thumb_func
 568              		.type	port_lock, %function
 569              	port_lock:
 570              	.LFB127:
 571              		.file 1 "../../../../os/rt/ports/ARMCMx/chcore_v7m.h"
 572              		.loc 1 456 0
 573              		.cfi_startproc
 574              		@ args = 0, pretend = 0, frame = 8
 575              		@ frame_needed = 0, uses_anonymous_args = 0
 576              		@ link register save eliminated.
 577 0000 82B0     		sub	sp, sp, #8
 578              		.cfi_def_cfa_offset 8
 579 0002 2023     		movs	r3, #32
 580 0004 0193     		str	r3, [sp, #4]
 581              	.LBB6:
 582              	.LBB7:
 583              		.file 2 "../../../../os/ext/CMSIS/include/core_cmFunc.h"
 584              		.loc 2 548 0
 585 0006 019B     		ldr	r3, [sp, #4]
 586              	@ 548 "../../../../os/ext/CMSIS/include/core_cmFunc.h" 1
 587 0008 83F31188 		MSR basepri, r3
 588              	@ 0 "" 2
 589              		.thumb
 590              	.LBE7:
 591              	.LBE6:
 592              		.loc 1 473 0
 593 000c 02B0     		add	sp, sp, #8
 594              		@ sp needed
 595 000e 7047     		bx	lr
 596              		.cfi_endproc
 597              	.LFE127:
 598              		.size	port_lock, .-port_lock
 599              		.section	.text.port_unlock,"ax",%progbits
ARM GAS  /tmp/ccSwo4Z8.s 			page 45


 600              		.align	2
 601              		.p2align 4,,15
 602              		.thumb
 603              		.thumb_func
 604              		.type	port_unlock, %function
 605              	port_unlock:
 606              	.LFB128:
 607              		.loc 1 480 0
 608              		.cfi_startproc
 609              		@ args = 0, pretend = 0, frame = 8
 610              		@ frame_needed = 0, uses_anonymous_args = 0
 611              		@ link register save eliminated.
 612 0000 82B0     		sub	sp, sp, #8
 613              		.cfi_def_cfa_offset 8
 614 0002 0023     		movs	r3, #0
 615 0004 0193     		str	r3, [sp, #4]
 616              	.LBB8:
 617              	.LBB9:
 618              		.loc 2 548 0
 619 0006 019B     		ldr	r3, [sp, #4]
 620              	@ 548 "../../../../os/ext/CMSIS/include/core_cmFunc.h" 1
 621 0008 83F31188 		MSR basepri, r3
 622              	@ 0 "" 2
 623              		.thumb
 624              	.LBE9:
 625              	.LBE8:
 626              		.loc 1 487 0
 627 000c 02B0     		add	sp, sp, #8
 628              		@ sp needed
 629 000e 7047     		bx	lr
 630              		.cfi_endproc
 631              	.LFE128:
 632              		.size	port_unlock, .-port_unlock
 633              		.section	.text.chSysLock,"ax",%progbits
 634              		.align	2
 635              		.p2align 4,,15
 636              		.thumb
 637              		.thumb_func
 638              		.type	chSysLock, %function
 639              	chSysLock:
 640              	.LFB167:
 641              		.file 3 "../../../../os/rt/include/chsys.h"
 642              		.loc 3 346 0
 643              		.cfi_startproc
 644              		@ args = 0, pretend = 0, frame = 0
 645              		@ frame_needed = 0, uses_anonymous_args = 0
 646 0000 08B5     		push	{r3, lr}
 647              		.cfi_def_cfa_offset 8
 648              		.cfi_offset 3, -8
 649              		.cfi_offset 14, -4
 650              		.loc 3 348 0
 651 0002 FFF7FEFF 		bl	port_lock
 652              		.loc 3 349 0
 653 0006 FFF7FEFF 		bl	_stats_start_measure_crit_thd
 654              		.loc 3 350 0
 655 000a FFF7FEFF 		bl	_dbg_check_lock
 656              		.loc 3 351 0
ARM GAS  /tmp/ccSwo4Z8.s 			page 46


 657 000e 08BD     		pop	{r3, pc}
 658              		.cfi_endproc
 659              	.LFE167:
 660              		.size	chSysLock, .-chSysLock
 661              		.section	.text.chSysUnlock,"ax",%progbits
 662              		.align	2
 663              		.p2align 4,,15
 664              		.thumb
 665              		.thumb_func
 666              		.type	chSysUnlock, %function
 667              	chSysUnlock:
 668              	.LFB168:
 669              		.loc 3 358 0
 670              		.cfi_startproc
 671              		@ args = 0, pretend = 0, frame = 0
 672              		@ frame_needed = 0, uses_anonymous_args = 0
 673 0000 08B5     		push	{r3, lr}
 674              		.cfi_def_cfa_offset 8
 675              		.cfi_offset 3, -8
 676              		.cfi_offset 14, -4
 677              		.loc 3 360 0
 678 0002 FFF7FEFF 		bl	_dbg_check_unlock
 679              		.loc 3 361 0
 680 0006 FFF7FEFF 		bl	_stats_stop_measure_crit_thd
 681              		.loc 3 367 0
 682 000a 40F20003 		movw	r3, #:lower16:ch
 683 000e C0F20003 		movt	r3, #:upper16:ch
 684 0012 1A68     		ldr	r2, [r3]
 685 0014 40F20003 		movw	r3, #:lower16:ch
 686 0018 C0F20003 		movt	r3, #:upper16:ch
 687 001c 9A42     		cmp	r2, r3
 688 001e 13D0     		beq	.L5
 689              		.loc 3 367 0 is_stmt 0 discriminator 1
 690 0020 40F20003 		movw	r3, #:lower16:ch
 691 0024 C0F20003 		movt	r3, #:upper16:ch
 692 0028 9B69     		ldr	r3, [r3, #24]
 693 002a 9A68     		ldr	r2, [r3, #8]
 694 002c 40F20003 		movw	r3, #:lower16:ch
 695 0030 C0F20003 		movt	r3, #:upper16:ch
 696 0034 1B68     		ldr	r3, [r3]
 697 0036 9B68     		ldr	r3, [r3, #8]
 698 0038 9A42     		cmp	r2, r3
 699 003a 05D2     		bcs	.L5
 700 003c 40F20000 		movw	r0, #:lower16:__func__.5915
 701 0040 C0F20000 		movt	r0, #:upper16:__func__.5915
 702 0044 FFF7FEFF 		bl	chSysHalt
 703              	.L5:
 704              		.loc 3 371 0 is_stmt 1
 705 0048 FFF7FEFF 		bl	port_unlock
 706              		.loc 3 372 0
 707 004c 08BD     		pop	{r3, pc}
 708              		.cfi_endproc
 709              	.LFE168:
 710              		.size	chSysUnlock, .-chSysUnlock
 711 004e 00BF     		.section	.bss.nextmem,"aw",%nobits
 712              		.align	2
 713              		.type	nextmem, %object
ARM GAS  /tmp/ccSwo4Z8.s 			page 47


 714              		.size	nextmem, 4
 715              	nextmem:
 716 0000 00000000 		.space	4
 717              		.section	.bss.endmem,"aw",%nobits
 718              		.align	2
 719              		.type	endmem, %object
 720              		.size	endmem, 4
 721              	endmem:
 722 0000 00000000 		.space	4
 723              		.section	.text._core_init,"ax",%progbits
 724              		.align	2
 725              		.p2align 4,,15
 726              		.global	_core_init
 727              		.thumb
 728              		.thumb_func
 729              		.type	_core_init, %function
 730              	_core_init:
 731              	.LFB241:
 732              		.file 4 "../../../../os/rt/src/chmemcore.c"
 733              		.loc 4 78 0
 734              		.cfi_startproc
 735              		@ args = 0, pretend = 0, frame = 0
 736              		@ frame_needed = 0, uses_anonymous_args = 0
 737              		@ link register save eliminated.
 738              		.loc 4 84 0
 739 0000 40F20003 		movw	r3, #:lower16:__heap_base__
 740 0004 C0F20003 		movt	r3, #:upper16:__heap_base__
 741 0008 0733     		adds	r3, r3, #7
 742 000a 23F00703 		bic	r3, r3, #7
 743 000e 1A46     		mov	r2, r3
 744 0010 40F20003 		movw	r3, #:lower16:nextmem
 745 0014 C0F20003 		movt	r3, #:upper16:nextmem
 746 0018 1A60     		str	r2, [r3]
 747              		.loc 4 85 0
 748 001a 40F20003 		movw	r3, #:lower16:__heap_end__
 749 001e C0F20003 		movt	r3, #:upper16:__heap_end__
 750 0022 23F00703 		bic	r3, r3, #7
 751 0026 1A46     		mov	r2, r3
 752 0028 40F20003 		movw	r3, #:lower16:endmem
 753 002c C0F20003 		movt	r3, #:upper16:endmem
 754 0030 1A60     		str	r2, [r3]
 755              		.loc 4 95 0
 756 0032 7047     		bx	lr
 757              		.cfi_endproc
 758              	.LFE241:
 759              		.size	_core_init, .-_core_init
 760 0034 AFF30080 		.section	.text.chCoreAlloc,"ax",%progbits
 760      AFF30080 
 760      AFF30080 
 761              		.align	2
 762              		.p2align 4,,15
 763              		.global	chCoreAlloc
 764              		.thumb
 765              		.thumb_func
 766              		.type	chCoreAlloc, %function
 767              	chCoreAlloc:
 768              	.LFB242:
ARM GAS  /tmp/ccSwo4Z8.s 			page 48


 769              		.loc 4 109 0
 770              		.cfi_startproc
 771              		@ args = 0, pretend = 0, frame = 16
 772              		@ frame_needed = 0, uses_anonymous_args = 0
 773 0000 00B5     		push	{lr}
 774              		.cfi_def_cfa_offset 4
 775              		.cfi_offset 14, -4
 776 0002 85B0     		sub	sp, sp, #20
 777              		.cfi_def_cfa_offset 24
 778 0004 0190     		str	r0, [sp, #4]
 779              		.loc 4 112 0
 780 0006 FFF7FEFF 		bl	chSysLock
 781              		.loc 4 113 0
 782 000a 0198     		ldr	r0, [sp, #4]
 783 000c FFF7FEFF 		bl	chCoreAllocI
 784 0010 0390     		str	r0, [sp, #12]
 785              		.loc 4 114 0
 786 0012 FFF7FEFF 		bl	chSysUnlock
 787              		.loc 4 116 0
 788 0016 039B     		ldr	r3, [sp, #12]
 789              		.loc 4 117 0
 790 0018 1846     		mov	r0, r3
 791 001a 05B0     		add	sp, sp, #20
 792              		@ sp needed
 793 001c 5DF804FB 		ldr	pc, [sp], #4
 794              		.cfi_endproc
 795              	.LFE242:
 796              		.size	chCoreAlloc, .-chCoreAlloc
 797              		.section	.text.chCoreAllocI,"ax",%progbits
 798              		.align	2
 799              		.p2align 4,,15
 800              		.global	chCoreAllocI
 801              		.thumb
 802              		.thumb_func
 803              		.type	chCoreAllocI, %function
 804              	chCoreAllocI:
 805              	.LFB243:
 806              		.loc 4 131 0
 807              		.cfi_startproc
 808              		@ args = 0, pretend = 0, frame = 16
 809              		@ frame_needed = 0, uses_anonymous_args = 0
 810 0000 00B5     		push	{lr}
 811              		.cfi_def_cfa_offset 4
 812              		.cfi_offset 14, -4
 813 0002 85B0     		sub	sp, sp, #20
 814              		.cfi_def_cfa_offset 24
 815 0004 0190     		str	r0, [sp, #4]
 816              		.loc 4 134 0
 817 0006 FFF7FEFF 		bl	chDbgCheckClassI
 818              		.loc 4 136 0
 819 000a 019B     		ldr	r3, [sp, #4]
 820 000c 0733     		adds	r3, r3, #7
 821 000e 23F00703 		bic	r3, r3, #7
 822 0012 0193     		str	r3, [sp, #4]
 823              		.loc 4 138 0
 824 0014 40F20003 		movw	r3, #:lower16:endmem
 825 0018 C0F20003 		movt	r3, #:upper16:endmem
ARM GAS  /tmp/ccSwo4Z8.s 			page 49


 826 001c 1B68     		ldr	r3, [r3]
 827 001e 1A46     		mov	r2, r3
 828 0020 40F20003 		movw	r3, #:lower16:nextmem
 829 0024 C0F20003 		movt	r3, #:upper16:nextmem
 830 0028 1B68     		ldr	r3, [r3]
 831 002a D31A     		subs	r3, r2, r3
 832 002c 1A46     		mov	r2, r3
 833 002e 019B     		ldr	r3, [sp, #4]
 834 0030 9A42     		cmp	r2, r3
 835 0032 01D2     		bcs	.L10
 836              		.loc 4 140 0
 837 0034 0023     		movs	r3, #0
 838 0036 12E0     		b	.L11
 839              	.L10:
 840              		.loc 4 142 0
 841 0038 40F20003 		movw	r3, #:lower16:nextmem
 842 003c C0F20003 		movt	r3, #:upper16:nextmem
 843 0040 1B68     		ldr	r3, [r3]
 844 0042 0393     		str	r3, [sp, #12]
 845              		.loc 4 143 0
 846 0044 40F20003 		movw	r3, #:lower16:nextmem
 847 0048 C0F20003 		movt	r3, #:upper16:nextmem
 848 004c 1A68     		ldr	r2, [r3]
 849 004e 019B     		ldr	r3, [sp, #4]
 850 0050 1A44     		add	r2, r2, r3
 851 0052 40F20003 		movw	r3, #:lower16:nextmem
 852 0056 C0F20003 		movt	r3, #:upper16:nextmem
 853 005a 1A60     		str	r2, [r3]
 854              		.loc 4 145 0
 855 005c 039B     		ldr	r3, [sp, #12]
 856              	.L11:
 857              		.loc 4 146 0
 858 005e 1846     		mov	r0, r3
 859 0060 05B0     		add	sp, sp, #20
 860              		@ sp needed
 861 0062 5DF804FB 		ldr	pc, [sp], #4
 862              		.cfi_endproc
 863              	.LFE243:
 864              		.size	chCoreAllocI, .-chCoreAllocI
 865 0066 00BFAFF3 		.section	.text.chCoreGetStatusX,"ax",%progbits
 865      0080AFF3 
 865      0080
 866              		.align	2
 867              		.p2align 4,,15
 868              		.global	chCoreGetStatusX
 869              		.thumb
 870              		.thumb_func
 871              		.type	chCoreGetStatusX, %function
 872              	chCoreGetStatusX:
 873              	.LFB244:
 874              		.loc 4 155 0
 875              		.cfi_startproc
 876              		@ args = 0, pretend = 0, frame = 0
 877              		@ frame_needed = 0, uses_anonymous_args = 0
 878              		@ link register save eliminated.
 879              		.loc 4 158 0
 880 0000 40F20003 		movw	r3, #:lower16:endmem
ARM GAS  /tmp/ccSwo4Z8.s 			page 50


 881 0004 C0F20003 		movt	r3, #:upper16:endmem
 882 0008 1B68     		ldr	r3, [r3]
 883 000a 1A46     		mov	r2, r3
 884 000c 40F20003 		movw	r3, #:lower16:nextmem
 885 0010 C0F20003 		movt	r3, #:upper16:nextmem
 886 0014 1B68     		ldr	r3, [r3]
 887 0016 D31A     		subs	r3, r2, r3
 888              		.loc 4 160 0
 889 0018 1846     		mov	r0, r3
 890 001a 7047     		bx	lr
 891              		.cfi_endproc
 892              	.LFE244:
 893              		.size	chCoreGetStatusX, .-chCoreGetStatusX
 894 001c AFF30080 		.section	.rodata.__func__.5915,"a",%progbits
 895              		.align	2
 896              		.type	__func__.5915, %object
 897              		.size	__func__.5915, 12
 898              	__func__.5915:
 899 0000 63685379 		.ascii	"chSysUnlock\000"
 899      73556E6C 
 899      6F636B00 
 900              		.text
 901              	.Letext0:
 902              		.file 5 "/usr/lib/gcc/arm-none-eabi/4.8.2/include/stddef.h"
 903              		.file 6 "/usr/include/newlib/machine/_default_types.h"
 904              		.file 7 "/usr/include/newlib/stdint.h"
 905              		.file 8 "../../../../os/rt/ports/ARMCMx/compilers/GCC/chtypes.h"
 906              		.file 9 "../../../../os/rt/include/chsystypes.h"
 907              		.file 10 "../../../../os/rt/include/chschd.h"
 908              		.file 11 "../../../../os/rt/ports/ARMCMx/chcore.h"
 909              		.file 12 "../../../../os/rt/include/chdebug.h"
 910              		.file 13 "../../../../os/rt/include/chtm.h"
 911              		.file 14 "../../../../os/rt/include/chstats.h"
 912              		.file 15 "../../../../os/rt/include/chsem.h"
 913              		.file 16 "../../../../os/rt/include/chmtx.h"
 914              		.file 17 "../../../../os/ext/CMSIS/include/core_cm4.h"
 915              		.section	.debug_info,"",%progbits
 916              	.Ldebug_info0:
 917 0000 86090000 		.4byte	0x986
 918 0004 0400     		.2byte	0x4
 919 0006 00000000 		.4byte	.Ldebug_abbrev0
 920 000a 04       		.byte	0x4
 921 000b 01       		.uleb128 0x1
 922 000c E2020000 		.4byte	.LASF140
 923 0010 01       		.byte	0x1
 924 0011 7B040000 		.4byte	.LASF141
 925 0015 8B020000 		.4byte	.LASF142
 926 0019 00000000 		.4byte	.Ldebug_ranges0+0
 927 001d 00000000 		.4byte	0
 928 0021 00000000 		.4byte	.Ldebug_line0
 929 0025 02       		.uleb128 0x2
 930 0026 04       		.byte	0x4
 931 0027 05       		.byte	0x5
 932 0028 696E7400 		.ascii	"int\000"
 933 002c 03       		.uleb128 0x3
 934 002d 1C000000 		.4byte	.LASF2
 935 0031 05       		.byte	0x5
ARM GAS  /tmp/ccSwo4Z8.s 			page 51


 936 0032 D4       		.byte	0xd4
 937 0033 37000000 		.4byte	0x37
 938 0037 04       		.uleb128 0x4
 939 0038 04       		.byte	0x4
 940 0039 07       		.byte	0x7
 941 003a 21020000 		.4byte	.LASF0
 942 003e 04       		.uleb128 0x4
 943 003f 01       		.byte	0x1
 944 0040 06       		.byte	0x6
 945 0041 34010000 		.4byte	.LASF1
 946 0045 03       		.uleb128 0x3
 947 0046 4C000000 		.4byte	.LASF3
 948 004a 06       		.byte	0x6
 949 004b 1C       		.byte	0x1c
 950 004c 50000000 		.4byte	0x50
 951 0050 04       		.uleb128 0x4
 952 0051 01       		.byte	0x1
 953 0052 08       		.byte	0x8
 954 0053 D7040000 		.4byte	.LASF4
 955 0057 04       		.uleb128 0x4
 956 0058 02       		.byte	0x2
 957 0059 05       		.byte	0x5
 958 005a FA040000 		.4byte	.LASF5
 959 005e 04       		.uleb128 0x4
 960 005f 02       		.byte	0x2
 961 0060 07       		.byte	0x7
 962 0061 54020000 		.4byte	.LASF6
 963 0065 03       		.uleb128 0x3
 964 0066 B2030000 		.4byte	.LASF7
 965 006a 06       		.byte	0x6
 966 006b 37       		.byte	0x37
 967 006c 70000000 		.4byte	0x70
 968 0070 04       		.uleb128 0x4
 969 0071 04       		.byte	0x4
 970 0072 05       		.byte	0x5
 971 0073 84010000 		.4byte	.LASF8
 972 0077 03       		.uleb128 0x3
 973 0078 F4050000 		.4byte	.LASF9
 974 007c 06       		.byte	0x6
 975 007d 38       		.byte	0x38
 976 007e 82000000 		.4byte	0x82
 977 0082 04       		.uleb128 0x4
 978 0083 04       		.byte	0x4
 979 0084 07       		.byte	0x7
 980 0085 A2050000 		.4byte	.LASF10
 981 0089 04       		.uleb128 0x4
 982 008a 08       		.byte	0x8
 983 008b 05       		.byte	0x5
 984 008c 26010000 		.4byte	.LASF11
 985 0090 03       		.uleb128 0x3
 986 0091 57040000 		.4byte	.LASF12
 987 0095 06       		.byte	0x6
 988 0096 4E       		.byte	0x4e
 989 0097 9B000000 		.4byte	0x9b
 990 009b 04       		.uleb128 0x4
 991 009c 08       		.byte	0x8
 992 009d 07       		.byte	0x7
ARM GAS  /tmp/ccSwo4Z8.s 			page 52


 993 009e A5000000 		.4byte	.LASF13
 994 00a2 03       		.uleb128 0x3
 995 00a3 71060000 		.4byte	.LASF14
 996 00a7 07       		.byte	0x7
 997 00a8 2A       		.byte	0x2a
 998 00a9 45000000 		.4byte	0x45
 999 00ad 03       		.uleb128 0x3
 1000 00ae CF040000 		.4byte	.LASF15
 1001 00b2 07       		.byte	0x7
 1002 00b3 41       		.byte	0x41
 1003 00b4 65000000 		.4byte	0x65
 1004 00b8 03       		.uleb128 0x3
 1005 00b9 71050000 		.4byte	.LASF16
 1006 00bd 07       		.byte	0x7
 1007 00be 42       		.byte	0x42
 1008 00bf 77000000 		.4byte	0x77
 1009 00c3 03       		.uleb128 0x3
 1010 00c4 2A000000 		.4byte	.LASF17
 1011 00c8 07       		.byte	0x7
 1012 00c9 4E       		.byte	0x4e
 1013 00ca 90000000 		.4byte	0x90
 1014 00ce 03       		.uleb128 0x3
 1015 00cf 26060000 		.4byte	.LASF18
 1016 00d3 08       		.byte	0x8
 1017 00d4 39       		.byte	0x39
 1018 00d5 B8000000 		.4byte	0xb8
 1019 00d9 03       		.uleb128 0x3
 1020 00da 0E010000 		.4byte	.LASF19
 1021 00de 08       		.byte	0x8
 1022 00df 3A       		.byte	0x3a
 1023 00e0 C3000000 		.4byte	0xc3
 1024 00e4 03       		.uleb128 0x3
 1025 00e5 85030000 		.4byte	.LASF20
 1026 00e9 08       		.byte	0x8
 1027 00ea 3C       		.byte	0x3c
 1028 00eb A2000000 		.4byte	0xa2
 1029 00ef 03       		.uleb128 0x3
 1030 00f0 8D010000 		.4byte	.LASF21
 1031 00f4 08       		.byte	0x8
 1032 00f5 3D       		.byte	0x3d
 1033 00f6 A2000000 		.4byte	0xa2
 1034 00fa 03       		.uleb128 0x3
 1035 00fb 1E010000 		.4byte	.LASF22
 1036 00ff 08       		.byte	0x8
 1037 0100 3E       		.byte	0x3e
 1038 0101 A2000000 		.4byte	0xa2
 1039 0105 03       		.uleb128 0x3
 1040 0106 BE040000 		.4byte	.LASF23
 1041 010a 08       		.byte	0x8
 1042 010b 40       		.byte	0x40
 1043 010c B8000000 		.4byte	0xb8
 1044 0110 03       		.uleb128 0x3
 1045 0111 80020000 		.4byte	.LASF24
 1046 0115 08       		.byte	0x8
 1047 0116 41       		.byte	0x41
 1048 0117 AD000000 		.4byte	0xad
 1049 011b 03       		.uleb128 0x3
ARM GAS  /tmp/ccSwo4Z8.s 			page 53


 1050 011c A6030000 		.4byte	.LASF25
 1051 0120 08       		.byte	0x8
 1052 0121 43       		.byte	0x43
 1053 0122 B8000000 		.4byte	0xb8
 1054 0126 03       		.uleb128 0x3
 1055 0127 10020000 		.4byte	.LASF26
 1056 012b 08       		.byte	0x8
 1057 012c 45       		.byte	0x45
 1058 012d AD000000 		.4byte	0xad
 1059 0131 03       		.uleb128 0x3
 1060 0132 CF020000 		.4byte	.LASF27
 1061 0136 08       		.byte	0x8
 1062 0137 46       		.byte	0x46
 1063 0138 B8000000 		.4byte	0xb8
 1064 013c 03       		.uleb128 0x3
 1065 013d D6050000 		.4byte	.LASF28
 1066 0141 09       		.byte	0x9
 1067 0142 33       		.byte	0x33
 1068 0143 B8000000 		.4byte	0xb8
 1069 0147 03       		.uleb128 0x3
 1070 0148 B9050000 		.4byte	.LASF29
 1071 014c 09       		.byte	0x9
 1072 014d 3F       		.byte	0x3f
 1073 014e 52010000 		.4byte	0x152
 1074 0152 05       		.uleb128 0x5
 1075 0153 76020000 		.4byte	.LASF51
 1076 0157 60       		.byte	0x60
 1077 0158 0A       		.byte	0xa
 1078 0159 C2       		.byte	0xc2
 1079 015a 58020000 		.4byte	0x258
 1080 015e 06       		.uleb128 0x6
 1081 015f 27050000 		.4byte	.LASF30
 1082 0163 0A       		.byte	0xa
 1083 0164 C3       		.byte	0xc3
 1084 0165 63020000 		.4byte	0x263
 1085 0169 00       		.byte	0
 1086 016a 06       		.uleb128 0x6
 1087 016b B7040000 		.4byte	.LASF31
 1088 016f 0A       		.byte	0xa
 1089 0170 C5       		.byte	0xc5
 1090 0171 63020000 		.4byte	0x263
 1091 0175 04       		.byte	0x4
 1092 0176 06       		.uleb128 0x6
 1093 0177 17010000 		.4byte	.LASF32
 1094 017b 0A       		.byte	0xa
 1095 017c C7       		.byte	0xc7
 1096 017d 05010000 		.4byte	0x105
 1097 0181 08       		.byte	0x8
 1098 0182 06       		.uleb128 0x6
 1099 0183 D7060000 		.4byte	.LASF33
 1100 0187 0A       		.byte	0xa
 1101 0188 C8       		.byte	0xc8
 1102 0189 CC040000 		.4byte	0x4cc
 1103 018d 0C       		.byte	0xc
 1104 018e 06       		.uleb128 0x6
 1105 018f 9C010000 		.4byte	.LASF34
 1106 0193 0A       		.byte	0xa
ARM GAS  /tmp/ccSwo4Z8.s 			page 54


 1107 0194 CA       		.byte	0xca
 1108 0195 63020000 		.4byte	0x263
 1109 0199 10       		.byte	0x10
 1110 019a 06       		.uleb128 0x6
 1111 019b 26040000 		.4byte	.LASF35
 1112 019f 0A       		.byte	0xa
 1113 01a0 CB       		.byte	0xcb
 1114 01a1 63020000 		.4byte	0x263
 1115 01a5 14       		.byte	0x14
 1116 01a6 06       		.uleb128 0x6
 1117 01a7 80060000 		.4byte	.LASF36
 1118 01ab 0A       		.byte	0xa
 1119 01ac D2       		.byte	0xd2
 1120 01ad 70070000 		.4byte	0x770
 1121 01b1 18       		.byte	0x18
 1122 01b2 06       		.uleb128 0x6
 1123 01b3 16020000 		.4byte	.LASF37
 1124 01b7 0A       		.byte	0xa
 1125 01b8 D8       		.byte	0xd8
 1126 01b9 82070000 		.4byte	0x782
 1127 01bd 1C       		.byte	0x1c
 1128 01be 06       		.uleb128 0x6
 1129 01bf 04050000 		.4byte	.LASF38
 1130 01c3 0A       		.byte	0xa
 1131 01c4 DD       		.byte	0xdd
 1132 01c5 EF000000 		.4byte	0xef
 1133 01c9 20       		.byte	0x20
 1134 01ca 06       		.uleb128 0x6
 1135 01cb 2E050000 		.4byte	.LASF39
 1136 01cf 0A       		.byte	0xa
 1137 01d0 E1       		.byte	0xe1
 1138 01d1 E4000000 		.4byte	0xe4
 1139 01d5 21       		.byte	0x21
 1140 01d6 06       		.uleb128 0x6
 1141 01d7 5C060000 		.4byte	.LASF40
 1142 01db 0A       		.byte	0xa
 1143 01dc E6       		.byte	0xe6
 1144 01dd FA000000 		.4byte	0xfa
 1145 01e1 22       		.byte	0x22
 1146 01e2 07       		.uleb128 0x7
 1147 01e3 705F7500 		.ascii	"p_u\000"
 1148 01e7 0A       		.byte	0xa
 1149 01e8 3101     		.2byte	0x131
 1150 01ea AB060000 		.4byte	0x6ab
 1151 01ee 24       		.byte	0x24
 1152 01ef 08       		.uleb128 0x8
 1153 01f0 C7030000 		.4byte	.LASF41
 1154 01f4 0A       		.byte	0xa
 1155 01f5 3601     		.2byte	0x136
 1156 01f7 69020000 		.4byte	0x269
 1157 01fb 28       		.byte	0x28
 1158 01fc 08       		.uleb128 0x8
 1159 01fd 3D020000 		.4byte	.LASF42
 1160 0201 0A       		.byte	0xa
 1161 0202 3C01     		.2byte	0x13c
 1162 0204 8D020000 		.4byte	0x28d
 1163 0208 2C       		.byte	0x2c
ARM GAS  /tmp/ccSwo4Z8.s 			page 55


 1164 0209 08       		.uleb128 0x8
 1165 020a B4060000 		.4byte	.LASF43
 1166 020e 0A       		.byte	0xa
 1167 020f 4001     		.2byte	0x140
 1168 0211 10010000 		.4byte	0x110
 1169 0215 34       		.byte	0x34
 1170 0216 08       		.uleb128 0x8
 1171 0217 66050000 		.4byte	.LASF44
 1172 021b 0A       		.byte	0xa
 1173 021c 4601     		.2byte	0x146
 1174 021e 1B010000 		.4byte	0x11b
 1175 0222 38       		.byte	0x38
 1176 0223 08       		.uleb128 0x8
 1177 0224 F0040000 		.4byte	.LASF45
 1178 0228 0A       		.byte	0xa
 1179 0229 4D01     		.2byte	0x14d
 1180 022b 6A070000 		.4byte	0x76a
 1181 022f 3C       		.byte	0x3c
 1182 0230 08       		.uleb128 0x8
 1183 0231 E0050000 		.4byte	.LASF46
 1184 0235 0A       		.byte	0xa
 1185 0236 5101     		.2byte	0x151
 1186 0238 05010000 		.4byte	0x105
 1187 023c 40       		.byte	0x40
 1188 023d 08       		.uleb128 0x8
 1189 023e 40010000 		.4byte	.LASF47
 1190 0242 0A       		.byte	0xa
 1191 0243 5801     		.2byte	0x158
 1192 0245 40030000 		.4byte	0x340
 1193 0249 44       		.byte	0x44
 1194 024a 08       		.uleb128 0x8
 1195 024b 36050000 		.4byte	.LASF48
 1196 024f 0A       		.byte	0xa
 1197 0250 5E01     		.2byte	0x15e
 1198 0252 5C060000 		.4byte	0x65c
 1199 0256 48       		.byte	0x48
 1200 0257 00       		.byte	0
 1201 0258 03       		.uleb128 0x3
 1202 0259 DA030000 		.4byte	.LASF49
 1203 025d 09       		.byte	0x9
 1204 025e 44       		.byte	0x44
 1205 025f 63020000 		.4byte	0x263
 1206 0263 09       		.uleb128 0x9
 1207 0264 04       		.byte	0x4
 1208 0265 47010000 		.4byte	0x147
 1209 0269 03       		.uleb128 0x3
 1210 026a 8C060000 		.4byte	.LASF50
 1211 026e 09       		.byte	0x9
 1212 026f 49       		.byte	0x49
 1213 0270 74020000 		.4byte	0x274
 1214 0274 05       		.uleb128 0x5
 1215 0275 92050000 		.4byte	.LASF52
 1216 0279 04       		.byte	0x4
 1217 027a 0A       		.byte	0xa
 1218 027b B0       		.byte	0xb0
 1219 027c 8D020000 		.4byte	0x28d
 1220 0280 06       		.uleb128 0x6
ARM GAS  /tmp/ccSwo4Z8.s 			page 56


 1221 0281 27050000 		.4byte	.LASF30
 1222 0285 0A       		.byte	0xa
 1223 0286 B1       		.byte	0xb1
 1224 0287 63020000 		.4byte	0x263
 1225 028b 00       		.byte	0
 1226 028c 00       		.byte	0
 1227 028d 03       		.uleb128 0x3
 1228 028e 43060000 		.4byte	.LASF53
 1229 0292 09       		.byte	0x9
 1230 0293 50       		.byte	0x50
 1231 0294 98020000 		.4byte	0x298
 1232 0298 05       		.uleb128 0x5
 1233 0299 62000000 		.4byte	.LASF54
 1234 029d 08       		.byte	0x8
 1235 029e 0A       		.byte	0xa
 1236 029f B7       		.byte	0xb7
 1237 02a0 BD020000 		.4byte	0x2bd
 1238 02a4 06       		.uleb128 0x6
 1239 02a5 27050000 		.4byte	.LASF30
 1240 02a9 0A       		.byte	0xa
 1241 02aa B8       		.byte	0xb8
 1242 02ab 63020000 		.4byte	0x263
 1243 02af 00       		.byte	0
 1244 02b0 06       		.uleb128 0x6
 1245 02b1 B7040000 		.4byte	.LASF31
 1246 02b5 0A       		.byte	0xa
 1247 02b6 B9       		.byte	0xb9
 1248 02b7 63020000 		.4byte	0x263
 1249 02bb 04       		.byte	0x4
 1250 02bc 00       		.byte	0
 1251 02bd 03       		.uleb128 0x3
 1252 02be 07000000 		.4byte	.LASF55
 1253 02c2 09       		.byte	0x9
 1254 02c3 57       		.byte	0x57
 1255 02c4 C8020000 		.4byte	0x2c8
 1256 02c8 0A       		.uleb128 0xa
 1257 02c9 98030000 		.4byte	.LASF56
 1258 02cd 1C       		.byte	0x1c
 1259 02ce 0A       		.byte	0xa
 1260 02cf 9001     		.2byte	0x190
 1261 02d1 24030000 		.4byte	0x324
 1262 02d5 08       		.uleb128 0x8
 1263 02d6 81050000 		.4byte	.LASF57
 1264 02da 0A       		.byte	0xa
 1265 02db 9101     		.2byte	0x191
 1266 02dd 8D020000 		.4byte	0x28d
 1267 02e1 00       		.byte	0
 1268 02e2 08       		.uleb128 0x8
 1269 02e3 19050000 		.4byte	.LASF58
 1270 02e7 0A       		.byte	0xa
 1271 02e8 9201     		.2byte	0x192
 1272 02ea 05010000 		.4byte	0x105
 1273 02ee 08       		.byte	0x8
 1274 02ef 08       		.uleb128 0x8
 1275 02f0 2E040000 		.4byte	.LASF59
 1276 02f4 0A       		.byte	0xa
 1277 02f5 9401     		.2byte	0x194
ARM GAS  /tmp/ccSwo4Z8.s 			page 57


 1278 02f7 CC040000 		.4byte	0x4cc
 1279 02fb 0C       		.byte	0xc
 1280 02fc 08       		.uleb128 0x8
 1281 02fd C1010000 		.4byte	.LASF60
 1282 0301 0A       		.byte	0xa
 1283 0302 9701     		.2byte	0x197
 1284 0304 63020000 		.4byte	0x263
 1285 0308 10       		.byte	0x10
 1286 0309 08       		.uleb128 0x8
 1287 030a 4F040000 		.4byte	.LASF61
 1288 030e 0A       		.byte	0xa
 1289 030f 9801     		.2byte	0x198
 1290 0311 63020000 		.4byte	0x263
 1291 0315 14       		.byte	0x14
 1292 0316 08       		.uleb128 0x8
 1293 0317 45040000 		.4byte	.LASF62
 1294 031b 0A       		.byte	0xa
 1295 031c 9B01     		.2byte	0x19b
 1296 031e 63020000 		.4byte	0x263
 1297 0322 18       		.byte	0x18
 1298 0323 00       		.byte	0
 1299 0324 03       		.uleb128 0x3
 1300 0325 EB050000 		.4byte	.LASF63
 1301 0329 09       		.byte	0x9
 1302 032a 5C       		.byte	0x5c
 1303 032b 2F030000 		.4byte	0x32f
 1304 032f 09       		.uleb128 0x9
 1305 0330 04       		.byte	0x4
 1306 0331 35030000 		.4byte	0x335
 1307 0335 0B       		.uleb128 0xb
 1308 0336 40030000 		.4byte	0x340
 1309 033a 0C       		.uleb128 0xc
 1310 033b 40030000 		.4byte	0x340
 1311 033f 00       		.byte	0
 1312 0340 0D       		.uleb128 0xd
 1313 0341 04       		.byte	0x4
 1314 0342 03       		.uleb128 0x3
 1315 0343 A7040000 		.4byte	.LASF64
 1316 0347 09       		.byte	0x9
 1317 0348 61       		.byte	0x61
 1318 0349 4D030000 		.4byte	0x34d
 1319 034d 0A       		.uleb128 0xa
 1320 034e 48050000 		.4byte	.LASF65
 1321 0352 14       		.byte	0x14
 1322 0353 0A       		.byte	0xa
 1323 0354 6B01     		.2byte	0x16b
 1324 0356 9C030000 		.4byte	0x39c
 1325 035a 08       		.uleb128 0x8
 1326 035b 2E020000 		.4byte	.LASF66
 1327 035f 0A       		.byte	0xa
 1328 0360 6C01     		.2byte	0x16c
 1329 0362 88070000 		.4byte	0x788
 1330 0366 00       		.byte	0
 1331 0367 08       		.uleb128 0x8
 1332 0368 D2010000 		.4byte	.LASF67
 1333 036c 0A       		.byte	0xa
 1334 036d 6D01     		.2byte	0x16d
ARM GAS  /tmp/ccSwo4Z8.s 			page 58


 1335 036f 88070000 		.4byte	0x788
 1336 0373 04       		.byte	0x4
 1337 0374 08       		.uleb128 0x8
 1338 0375 89050000 		.4byte	.LASF68
 1339 0379 0A       		.byte	0xa
 1340 037a 6E01     		.2byte	0x16e
 1341 037c 3C010000 		.4byte	0x13c
 1342 0380 08       		.byte	0x8
 1343 0381 08       		.uleb128 0x8
 1344 0382 DD060000 		.4byte	.LASF69
 1345 0386 0A       		.byte	0xa
 1346 0387 6F01     		.2byte	0x16f
 1347 0389 24030000 		.4byte	0x324
 1348 038d 0C       		.byte	0xc
 1349 038e 08       		.uleb128 0x8
 1350 038f 2E060000 		.4byte	.LASF70
 1351 0393 0A       		.byte	0xa
 1352 0394 7101     		.2byte	0x171
 1353 0396 40030000 		.4byte	0x340
 1354 039a 10       		.byte	0x10
 1355 039b 00       		.byte	0
 1356 039c 03       		.uleb128 0x3
 1357 039d EB000000 		.4byte	.LASF71
 1358 03a1 09       		.byte	0x9
 1359 03a2 66       		.byte	0x66
 1360 03a3 A7030000 		.4byte	0x3a7
 1361 03a7 0A       		.uleb128 0xa
 1362 03a8 ED030000 		.4byte	.LASF72
 1363 03ac 10       		.byte	0x10
 1364 03ad 0A       		.byte	0xa
 1365 03ae 7B01     		.2byte	0x17b
 1366 03b0 E9030000 		.4byte	0x3e9
 1367 03b4 08       		.uleb128 0x8
 1368 03b5 2E020000 		.4byte	.LASF66
 1369 03b9 0A       		.byte	0xa
 1370 03ba 7C01     		.2byte	0x17c
 1371 03bc 88070000 		.4byte	0x788
 1372 03c0 00       		.byte	0
 1373 03c1 08       		.uleb128 0x8
 1374 03c2 D2010000 		.4byte	.LASF67
 1375 03c6 0A       		.byte	0xa
 1376 03c7 7E01     		.2byte	0x17e
 1377 03c9 88070000 		.4byte	0x788
 1378 03cd 04       		.byte	0x4
 1379 03ce 08       		.uleb128 0x8
 1380 03cf 89050000 		.4byte	.LASF68
 1381 03d3 0A       		.byte	0xa
 1382 03d4 8001     		.2byte	0x180
 1383 03d6 3C010000 		.4byte	0x13c
 1384 03da 08       		.byte	0x8
 1385 03db 08       		.uleb128 0x8
 1386 03dc 1A040000 		.4byte	.LASF73
 1387 03e0 0A       		.byte	0xa
 1388 03e1 8801     		.2byte	0x188
 1389 03e3 3C010000 		.4byte	0x13c
 1390 03e7 0C       		.byte	0xc
 1391 03e8 00       		.byte	0
ARM GAS  /tmp/ccSwo4Z8.s 			page 59


 1392 03e9 03       		.uleb128 0x3
 1393 03ea 73000000 		.4byte	.LASF74
 1394 03ee 09       		.byte	0x9
 1395 03ef 6B       		.byte	0x6b
 1396 03f0 F4030000 		.4byte	0x3f4
 1397 03f4 0E       		.uleb128 0xe
 1398 03f5 DA010000 		.4byte	.LASF75
 1399 03f9 1404     		.2byte	0x414
 1400 03fb 0A       		.byte	0xa
 1401 03fc A201     		.2byte	0x1a2
 1402 03fe 37040000 		.4byte	0x437
 1403 0402 08       		.uleb128 0x8
 1404 0403 0D060000 		.4byte	.LASF76
 1405 0407 0A       		.byte	0xa
 1406 0408 AA01     		.2byte	0x1aa
 1407 040a 8E070000 		.4byte	0x78e
 1408 040e 00       		.byte	0
 1409 040f 08       		.uleb128 0x8
 1410 0410 63060000 		.4byte	.LASF77
 1411 0414 0A       		.byte	0xa
 1412 0415 AF01     		.2byte	0x1af
 1413 0417 26010000 		.4byte	0x126
 1414 041b 04       		.byte	0x4
 1415 041c 08       		.uleb128 0x8
 1416 041d F8010000 		.4byte	.LASF78
 1417 0421 0A       		.byte	0xa
 1418 0422 B301     		.2byte	0x1b3
 1419 0424 26010000 		.4byte	0x126
 1420 0428 08       		.byte	0x8
 1421 0429 08       		.uleb128 0x8
 1422 042a 9B060000 		.4byte	.LASF79
 1423 042e 0A       		.byte	0xa
 1424 042f B901     		.2byte	0x1b9
 1425 0431 EE050000 		.4byte	0x5ee
 1426 0435 0C       		.byte	0xc
 1427 0436 00       		.byte	0
 1428 0437 03       		.uleb128 0x3
 1429 0438 D6020000 		.4byte	.LASF80
 1430 043c 09       		.byte	0x9
 1431 043d 70       		.byte	0x70
 1432 043e 42040000 		.4byte	0x442
 1433 0442 0E       		.uleb128 0xe
 1434 0443 7A010000 		.4byte	.LASF81
 1435 0447 D805     		.2byte	0x5d8
 1436 0449 0A       		.byte	0xa
 1437 044a C201     		.2byte	0x1c2
 1438 044c AF040000 		.4byte	0x4af
 1439 0450 08       		.uleb128 0x8
 1440 0451 6B060000 		.4byte	.LASF82
 1441 0455 0A       		.byte	0xa
 1442 0456 C601     		.2byte	0x1c6
 1443 0458 BD020000 		.4byte	0x2bd
 1444 045c 00       		.byte	0
 1445 045d 08       		.uleb128 0x8
 1446 045e 50010000 		.4byte	.LASF83
 1447 0462 0A       		.byte	0xa
 1448 0463 CA01     		.2byte	0x1ca
ARM GAS  /tmp/ccSwo4Z8.s 			page 60


 1449 0465 9C030000 		.4byte	0x39c
 1450 0469 1C       		.byte	0x1c
 1451 046a 07       		.uleb128 0x7
 1452 046b 64626700 		.ascii	"dbg\000"
 1453 046f 0A       		.byte	0xa
 1454 0470 CE01     		.2byte	0x1ce
 1455 0472 E9030000 		.4byte	0x3e9
 1456 0476 2C       		.byte	0x2c
 1457 0477 0F       		.uleb128 0xf
 1458 0478 E0000000 		.4byte	.LASF84
 1459 047c 0A       		.byte	0xa
 1460 047d D201     		.2byte	0x1d2
 1461 047f 47010000 		.4byte	0x147
 1462 0483 4004     		.2byte	0x440
 1463 0485 10       		.uleb128 0x10
 1464 0486 746D00   		.ascii	"tm\000"
 1465 0489 0A       		.byte	0xa
 1466 048a D701     		.2byte	0x1d7
 1467 048c 0E060000 		.4byte	0x60e
 1468 0490 A004     		.2byte	0x4a0
 1469 0492 0F       		.uleb128 0xf
 1470 0493 33000000 		.4byte	.LASF85
 1471 0497 0A       		.byte	0xa
 1472 0498 DD01     		.2byte	0x1dd
 1473 049a A0060000 		.4byte	0x6a0
 1474 049e A804     		.2byte	0x4a8
 1475 04a0 0F       		.uleb128 0xf
 1476 04a1 01020000 		.4byte	.LASF86
 1477 04a5 0A       		.byte	0xa
 1478 04a6 E301     		.2byte	0x1e3
 1479 04a8 93070000 		.4byte	0x793
 1480 04ac E004     		.2byte	0x4e0
 1481 04ae 00       		.byte	0
 1482 04af 04       		.uleb128 0x4
 1483 04b0 04       		.byte	0x4
 1484 04b1 07       		.byte	0x7
 1485 04b2 D1030000 		.4byte	.LASF87
 1486 04b6 03       		.uleb128 0x3
 1487 04b7 C9010000 		.4byte	.LASF88
 1488 04bb 0B       		.byte	0xb
 1489 04bc 65       		.byte	0x65
 1490 04bd 40030000 		.4byte	0x340
 1491 04c1 03       		.uleb128 0x3
 1492 04c2 BC030000 		.4byte	.LASF89
 1493 04c6 0B       		.byte	0xb
 1494 04c7 6D       		.byte	0x6d
 1495 04c8 C3000000 		.4byte	0xc3
 1496 04cc 05       		.uleb128 0x5
 1497 04cd 1E060000 		.4byte	.LASF90
 1498 04d1 04       		.byte	0x4
 1499 04d2 0B       		.byte	0xb
 1500 04d3 89       		.byte	0x89
 1501 04d4 E5040000 		.4byte	0x4e5
 1502 04d8 11       		.uleb128 0x11
 1503 04d9 72313300 		.ascii	"r13\000"
 1504 04dd 0B       		.byte	0xb
 1505 04de 8A       		.byte	0x8a
ARM GAS  /tmp/ccSwo4Z8.s 			page 61


 1506 04df 60050000 		.4byte	0x560
 1507 04e3 00       		.byte	0
 1508 04e4 00       		.byte	0
 1509 04e5 05       		.uleb128 0x5
 1510 04e6 56000000 		.4byte	.LASF91
 1511 04ea 24       		.byte	0x24
 1512 04eb 01       		.byte	0x1
 1513 04ec FD       		.byte	0xfd
 1514 04ed 60050000 		.4byte	0x560
 1515 04f1 07       		.uleb128 0x7
 1516 04f2 723400   		.ascii	"r4\000"
 1517 04f5 01       		.byte	0x1
 1518 04f6 1001     		.2byte	0x110
 1519 04f8 B6040000 		.4byte	0x4b6
 1520 04fc 00       		.byte	0
 1521 04fd 07       		.uleb128 0x7
 1522 04fe 723500   		.ascii	"r5\000"
 1523 0501 01       		.byte	0x1
 1524 0502 1101     		.2byte	0x111
 1525 0504 B6040000 		.4byte	0x4b6
 1526 0508 04       		.byte	0x4
 1527 0509 07       		.uleb128 0x7
 1528 050a 723600   		.ascii	"r6\000"
 1529 050d 01       		.byte	0x1
 1530 050e 1201     		.2byte	0x112
 1531 0510 B6040000 		.4byte	0x4b6
 1532 0514 08       		.byte	0x8
 1533 0515 07       		.uleb128 0x7
 1534 0516 723700   		.ascii	"r7\000"
 1535 0519 01       		.byte	0x1
 1536 051a 1301     		.2byte	0x113
 1537 051c B6040000 		.4byte	0x4b6
 1538 0520 0C       		.byte	0xc
 1539 0521 07       		.uleb128 0x7
 1540 0522 723800   		.ascii	"r8\000"
 1541 0525 01       		.byte	0x1
 1542 0526 1401     		.2byte	0x114
 1543 0528 B6040000 		.4byte	0x4b6
 1544 052c 10       		.byte	0x10
 1545 052d 07       		.uleb128 0x7
 1546 052e 723900   		.ascii	"r9\000"
 1547 0531 01       		.byte	0x1
 1548 0532 1501     		.2byte	0x115
 1549 0534 B6040000 		.4byte	0x4b6
 1550 0538 14       		.byte	0x14
 1551 0539 07       		.uleb128 0x7
 1552 053a 72313000 		.ascii	"r10\000"
 1553 053e 01       		.byte	0x1
 1554 053f 1601     		.2byte	0x116
 1555 0541 B6040000 		.4byte	0x4b6
 1556 0545 18       		.byte	0x18
 1557 0546 07       		.uleb128 0x7
 1558 0547 72313100 		.ascii	"r11\000"
 1559 054b 01       		.byte	0x1
 1560 054c 1701     		.2byte	0x117
 1561 054e B6040000 		.4byte	0x4b6
 1562 0552 1C       		.byte	0x1c
ARM GAS  /tmp/ccSwo4Z8.s 			page 62


 1563 0553 07       		.uleb128 0x7
 1564 0554 6C7200   		.ascii	"lr\000"
 1565 0557 01       		.byte	0x1
 1566 0558 1801     		.2byte	0x118
 1567 055a B6040000 		.4byte	0x4b6
 1568 055e 20       		.byte	0x20
 1569 055f 00       		.byte	0
 1570 0560 09       		.uleb128 0x9
 1571 0561 04       		.byte	0x4
 1572 0562 E5040000 		.4byte	0x4e5
 1573 0566 12       		.uleb128 0x12
 1574 0567 10       		.byte	0x10
 1575 0568 0C       		.byte	0xc
 1576 0569 51       		.byte	0x51
 1577 056a 9F050000 		.4byte	0x59f
 1578 056e 06       		.uleb128 0x6
 1579 056f 14000000 		.4byte	.LASF92
 1580 0573 0C       		.byte	0xc
 1581 0574 55       		.byte	0x55
 1582 0575 3C010000 		.4byte	0x13c
 1583 0579 00       		.byte	0
 1584 057a 06       		.uleb128 0x6
 1585 057b 96010000 		.4byte	.LASF93
 1586 057f 0C       		.byte	0xc
 1587 0580 59       		.byte	0x59
 1588 0581 63020000 		.4byte	0x263
 1589 0585 04       		.byte	0x4
 1590 0586 06       		.uleb128 0x6
 1591 0587 CD060000 		.4byte	.LASF94
 1592 058b 0C       		.byte	0xc
 1593 058c 5D       		.byte	0x5d
 1594 058d 40030000 		.4byte	0x340
 1595 0591 08       		.byte	0x8
 1596 0592 06       		.uleb128 0x6
 1597 0593 CE000000 		.4byte	.LASF95
 1598 0597 0C       		.byte	0xc
 1599 0598 61       		.byte	0x61
 1600 0599 A2000000 		.4byte	0xa2
 1601 059d 0C       		.byte	0xc
 1602 059e 00       		.byte	0
 1603 059f 03       		.uleb128 0x3
 1604 05a0 0B040000 		.4byte	.LASF96
 1605 05a4 0C       		.byte	0xc
 1606 05a5 62       		.byte	0x62
 1607 05a6 66050000 		.4byte	0x566
 1608 05aa 13       		.uleb128 0x13
 1609 05ab 0804     		.2byte	0x408
 1610 05ad 0C       		.byte	0xc
 1611 05ae 67       		.byte	0x67
 1612 05af D8050000 		.4byte	0x5d8
 1613 05b3 06       		.uleb128 0x6
 1614 05b4 B9010000 		.4byte	.LASF97
 1615 05b8 0C       		.byte	0xc
 1616 05b9 6B       		.byte	0x6b
 1617 05ba 37000000 		.4byte	0x37
 1618 05be 00       		.byte	0
 1619 05bf 06       		.uleb128 0x6
ARM GAS  /tmp/ccSwo4Z8.s 			page 63


 1620 05c0 04040000 		.4byte	.LASF98
 1621 05c4 0C       		.byte	0xc
 1622 05c5 6F       		.byte	0x6f
 1623 05c6 D8050000 		.4byte	0x5d8
 1624 05ca 04       		.byte	0x4
 1625 05cb 06       		.uleb128 0x6
 1626 05cc 9D040000 		.4byte	.LASF99
 1627 05d0 0C       		.byte	0xc
 1628 05d1 73       		.byte	0x73
 1629 05d2 DE050000 		.4byte	0x5de
 1630 05d6 08       		.byte	0x8
 1631 05d7 00       		.byte	0
 1632 05d8 09       		.uleb128 0x9
 1633 05d9 04       		.byte	0x4
 1634 05da 9F050000 		.4byte	0x59f
 1635 05de 14       		.uleb128 0x14
 1636 05df 9F050000 		.4byte	0x59f
 1637 05e3 EE050000 		.4byte	0x5ee
 1638 05e7 15       		.uleb128 0x15
 1639 05e8 AF040000 		.4byte	0x4af
 1640 05ec 3F       		.byte	0x3f
 1641 05ed 00       		.byte	0
 1642 05ee 03       		.uleb128 0x3
 1643 05ef BC000000 		.4byte	.LASF100
 1644 05f3 0C       		.byte	0xc
 1645 05f4 74       		.byte	0x74
 1646 05f5 AA050000 		.4byte	0x5aa
 1647 05f9 12       		.uleb128 0x12
 1648 05fa 04       		.byte	0x4
 1649 05fb 0D       		.byte	0xd
 1650 05fc 38       		.byte	0x38
 1651 05fd 0E060000 		.4byte	0x60e
 1652 0601 06       		.uleb128 0x6
 1653 0602 17060000 		.4byte	.LASF101
 1654 0606 0D       		.byte	0xd
 1655 0607 3C       		.byte	0x3c
 1656 0608 CE000000 		.4byte	0xce
 1657 060c 00       		.byte	0
 1658 060d 00       		.byte	0
 1659 060e 03       		.uleb128 0x3
 1660 060f 34040000 		.4byte	.LASF102
 1661 0613 0D       		.byte	0xd
 1662 0614 3D       		.byte	0x3d
 1663 0615 F9050000 		.4byte	0x5f9
 1664 0619 12       		.uleb128 0x12
 1665 061a 18       		.byte	0x18
 1666 061b 0D       		.byte	0xd
 1667 061c 48       		.byte	0x48
 1668 061d 5C060000 		.4byte	0x65c
 1669 0621 06       		.uleb128 0x6
 1670 0622 C2050000 		.4byte	.LASF103
 1671 0626 0D       		.byte	0xd
 1672 0627 49       		.byte	0x49
 1673 0628 CE000000 		.4byte	0xce
 1674 062c 00       		.byte	0
 1675 062d 06       		.uleb128 0x6
 1676 062e 8C000000 		.4byte	.LASF104
ARM GAS  /tmp/ccSwo4Z8.s 			page 64


 1677 0632 0D       		.byte	0xd
 1678 0633 4A       		.byte	0x4a
 1679 0634 CE000000 		.4byte	0xce
 1680 0638 04       		.byte	0x4
 1681 0639 06       		.uleb128 0x6
 1682 063a 86020000 		.4byte	.LASF105
 1683 063e 0D       		.byte	0xd
 1684 063f 4B       		.byte	0x4b
 1685 0640 CE000000 		.4byte	0xce
 1686 0644 08       		.byte	0x8
 1687 0645 11       		.uleb128 0x11
 1688 0646 6E00     		.ascii	"n\000"
 1689 0648 0D       		.byte	0xd
 1690 0649 4C       		.byte	0x4c
 1691 064a 31010000 		.4byte	0x131
 1692 064e 0C       		.byte	0xc
 1693 064f 06       		.uleb128 0x6
 1694 0650 62040000 		.4byte	.LASF106
 1695 0654 0D       		.byte	0xd
 1696 0655 4D       		.byte	0x4d
 1697 0656 D9000000 		.4byte	0xd9
 1698 065a 10       		.byte	0x10
 1699 065b 00       		.byte	0
 1700 065c 03       		.uleb128 0x3
 1701 065d 92000000 		.4byte	.LASF107
 1702 0661 0D       		.byte	0xd
 1703 0662 4E       		.byte	0x4e
 1704 0663 19060000 		.4byte	0x619
 1705 0667 12       		.uleb128 0x12
 1706 0668 38       		.byte	0x38
 1707 0669 0E       		.byte	0xe
 1708 066a 38       		.byte	0x38
 1709 066b A0060000 		.4byte	0x6a0
 1710 066f 06       		.uleb128 0x6
 1711 0670 48020000 		.4byte	.LASF108
 1712 0674 0E       		.byte	0xe
 1713 0675 39       		.byte	0x39
 1714 0676 31010000 		.4byte	0x131
 1715 067a 00       		.byte	0
 1716 067b 06       		.uleb128 0x6
 1717 067c C6040000 		.4byte	.LASF109
 1718 0680 0E       		.byte	0xe
 1719 0681 3A       		.byte	0x3a
 1720 0682 31010000 		.4byte	0x131
 1721 0686 04       		.byte	0x4
 1722 0687 06       		.uleb128 0x6
 1723 0688 BA060000 		.4byte	.LASF110
 1724 068c 0E       		.byte	0xe
 1725 068d 3B       		.byte	0x3b
 1726 068e 5C060000 		.4byte	0x65c
 1727 0692 08       		.byte	0x8
 1728 0693 06       		.uleb128 0x6
 1729 0694 8D030000 		.4byte	.LASF111
 1730 0698 0E       		.byte	0xe
 1731 0699 3D       		.byte	0x3d
 1732 069a 5C060000 		.4byte	0x65c
 1733 069e 20       		.byte	0x20
ARM GAS  /tmp/ccSwo4Z8.s 			page 65


 1734 069f 00       		.byte	0
 1735 06a0 03       		.uleb128 0x3
 1736 06a1 67020000 		.4byte	.LASF112
 1737 06a5 0E       		.byte	0xe
 1738 06a6 3F       		.byte	0x3f
 1739 06a7 67060000 		.4byte	0x667
 1740 06ab 16       		.uleb128 0x16
 1741 06ac 04       		.byte	0x4
 1742 06ad 0A       		.byte	0xa
 1743 06ae FA       		.byte	0xfa
 1744 06af 08070000 		.4byte	0x708
 1745 06b3 17       		.uleb128 0x17
 1746 06b4 23000000 		.4byte	.LASF113
 1747 06b8 0A       		.byte	0xa
 1748 06b9 0101     		.2byte	0x101
 1749 06bb 10010000 		.4byte	0x110
 1750 06bf 17       		.uleb128 0x17
 1751 06c0 D7000000 		.4byte	.LASF114
 1752 06c4 0A       		.byte	0xa
 1753 06c5 0801     		.2byte	0x108
 1754 06c7 10010000 		.4byte	0x110
 1755 06cb 17       		.uleb128 0x17
 1756 06cc 79060000 		.4byte	.LASF115
 1757 06d0 0A       		.byte	0xa
 1758 06d1 0F01     		.2byte	0x10f
 1759 06d3 40030000 		.4byte	0x340
 1760 06d7 17       		.uleb128 0x17
 1761 06d8 74010000 		.4byte	.LASF116
 1762 06dc 0A       		.byte	0xa
 1763 06dd 1601     		.2byte	0x116
 1764 06df 08070000 		.4byte	0x708
 1765 06e3 17       		.uleb128 0x17
 1766 06e4 36020000 		.4byte	.LASF117
 1767 06e8 0A       		.byte	0xa
 1768 06e9 1E01     		.2byte	0x11e
 1769 06eb 33070000 		.4byte	0x733
 1770 06ef 17       		.uleb128 0x17
 1771 06f0 7A050000 		.4byte	.LASF118
 1772 06f4 0A       		.byte	0xa
 1773 06f5 2701     		.2byte	0x127
 1774 06f7 6A070000 		.4byte	0x76a
 1775 06fb 17       		.uleb128 0x17
 1776 06fc 20050000 		.4byte	.LASF119
 1777 0700 0A       		.byte	0xa
 1778 0701 2F01     		.2byte	0x12f
 1779 0703 1B010000 		.4byte	0x11b
 1780 0707 00       		.byte	0
 1781 0708 09       		.uleb128 0x9
 1782 0709 04       		.byte	0x4
 1783 070a 58020000 		.4byte	0x258
 1784 070e 05       		.uleb128 0x5
 1785 070f 59050000 		.4byte	.LASF120
 1786 0713 0C       		.byte	0xc
 1787 0714 0F       		.byte	0xf
 1788 0715 34       		.byte	0x34
 1789 0716 33070000 		.4byte	0x733
 1790 071a 06       		.uleb128 0x6
ARM GAS  /tmp/ccSwo4Z8.s 			page 66


 1791 071b A4010000 		.4byte	.LASF121
 1792 071f 0F       		.byte	0xf
 1793 0720 35       		.byte	0x35
 1794 0721 8D020000 		.4byte	0x28d
 1795 0725 00       		.byte	0
 1796 0726 06       		.uleb128 0x6
 1797 0727 4E020000 		.4byte	.LASF122
 1798 072b 0F       		.byte	0xf
 1799 072c 37       		.byte	0x37
 1800 072d 26010000 		.4byte	0x126
 1801 0731 08       		.byte	0x8
 1802 0732 00       		.byte	0
 1803 0733 09       		.uleb128 0x9
 1804 0734 04       		.byte	0x4
 1805 0735 0E070000 		.4byte	0x70e
 1806 0739 05       		.uleb128 0x5
 1807 073a 53060000 		.4byte	.LASF123
 1808 073e 10       		.byte	0x10
 1809 073f 10       		.byte	0x10
 1810 0740 39       		.byte	0x39
 1811 0741 6A070000 		.4byte	0x76a
 1812 0745 06       		.uleb128 0x6
 1813 0746 48010000 		.4byte	.LASF124
 1814 074a 10       		.byte	0x10
 1815 074b 3A       		.byte	0x3a
 1816 074c 8D020000 		.4byte	0x28d
 1817 0750 00       		.byte	0
 1818 0751 06       		.uleb128 0x6
 1819 0752 C5060000 		.4byte	.LASF125
 1820 0756 10       		.byte	0x10
 1821 0757 3C       		.byte	0x3c
 1822 0758 63020000 		.4byte	0x263
 1823 075c 08       		.byte	0x8
 1824 075d 06       		.uleb128 0x6
 1825 075e CF050000 		.4byte	.LASF126
 1826 0762 10       		.byte	0x10
 1827 0763 3E       		.byte	0x3e
 1828 0764 AE070000 		.4byte	0x7ae
 1829 0768 0C       		.byte	0xc
 1830 0769 00       		.byte	0
 1831 076a 09       		.uleb128 0x9
 1832 076b 04       		.byte	0x4
 1833 076c 39070000 		.4byte	0x739
 1834 0770 09       		.uleb128 0x9
 1835 0771 04       		.byte	0x4
 1836 0772 76070000 		.4byte	0x776
 1837 0776 18       		.uleb128 0x18
 1838 0777 7B070000 		.4byte	0x77b
 1839 077b 04       		.uleb128 0x4
 1840 077c 01       		.byte	0x1
 1841 077d 08       		.byte	0x8
 1842 077e B4050000 		.4byte	.LASF127
 1843 0782 09       		.uleb128 0x9
 1844 0783 04       		.byte	0x4
 1845 0784 C1040000 		.4byte	0x4c1
 1846 0788 09       		.uleb128 0x9
 1847 0789 04       		.byte	0x4
ARM GAS  /tmp/ccSwo4Z8.s 			page 67


 1848 078a 42030000 		.4byte	0x342
 1849 078e 19       		.uleb128 0x19
 1850 078f 70070000 		.4byte	0x770
 1851 0793 14       		.uleb128 0x14
 1852 0794 C1040000 		.4byte	0x4c1
 1853 0798 A3070000 		.4byte	0x7a3
 1854 079c 15       		.uleb128 0x15
 1855 079d AF040000 		.4byte	0x4af
 1856 07a1 1E       		.byte	0x1e
 1857 07a2 00       		.byte	0
 1858 07a3 03       		.uleb128 0x3
 1859 07a4 EA010000 		.4byte	.LASF128
 1860 07a8 10       		.byte	0x10
 1861 07a9 34       		.byte	0x34
 1862 07aa 39070000 		.4byte	0x739
 1863 07ae 09       		.uleb128 0x9
 1864 07af 04       		.byte	0x4
 1865 07b0 A3070000 		.4byte	0x7a3
 1866 07b4 09       		.uleb128 0x9
 1867 07b5 04       		.byte	0x4
 1868 07b6 A2000000 		.4byte	0xa2
 1869 07ba 1A       		.uleb128 0x1a
 1870 07bb FF050000 		.4byte	.LASF143
 1871 07bf 02       		.byte	0x2
 1872 07c0 2202     		.2byte	0x222
 1873 07c2 03       		.byte	0x3
 1874 07c3 D4070000 		.4byte	0x7d4
 1875 07c7 1B       		.uleb128 0x1b
 1876 07c8 F2010000 		.4byte	.LASF144
 1877 07cc 02       		.byte	0x2
 1878 07cd 2202     		.2byte	0x222
 1879 07cf B8000000 		.4byte	0xb8
 1880 07d3 00       		.byte	0
 1881 07d4 1C       		.uleb128 0x1c
 1882 07d5 82000000 		.4byte	.LASF129
 1883 07d9 01       		.byte	0x1
 1884 07da C801     		.2byte	0x1c8
 1885 07dc 00000000 		.4byte	.LFB127
 1886 07e0 10000000 		.4byte	.LFE127-.LFB127
 1887 07e4 01       		.uleb128 0x1
 1888 07e5 9C       		.byte	0x9c
 1889 07e6 04080000 		.4byte	0x804
 1890 07ea 1D       		.uleb128 0x1d
 1891 07eb BA070000 		.4byte	0x7ba
 1892 07ef 06000000 		.4byte	.LBB6
 1893 07f3 06000000 		.4byte	.LBE6-.LBB6
 1894 07f7 01       		.byte	0x1
 1895 07f8 D001     		.2byte	0x1d0
 1896 07fa 1E       		.uleb128 0x1e
 1897 07fb C7070000 		.4byte	0x7c7
 1898 07ff 02       		.uleb128 0x2
 1899 0800 91       		.byte	0x91
 1900 0801 7C       		.sleb128 -4
 1901 0802 00       		.byte	0
 1902 0803 00       		.byte	0
 1903 0804 1C       		.uleb128 0x1c
 1904 0805 57010000 		.4byte	.LASF130
ARM GAS  /tmp/ccSwo4Z8.s 			page 68


 1905 0809 01       		.byte	0x1
 1906 080a E001     		.2byte	0x1e0
 1907 080c 00000000 		.4byte	.LFB128
 1908 0810 10000000 		.4byte	.LFE128-.LFB128
 1909 0814 01       		.uleb128 0x1
 1910 0815 9C       		.byte	0x9c
 1911 0816 34080000 		.4byte	0x834
 1912 081a 1D       		.uleb128 0x1d
 1913 081b BA070000 		.4byte	0x7ba
 1914 081f 06000000 		.4byte	.LBB8
 1915 0823 06000000 		.4byte	.LBE8-.LBB8
 1916 0827 01       		.byte	0x1
 1917 0828 E301     		.2byte	0x1e3
 1918 082a 1E       		.uleb128 0x1e
 1919 082b C7070000 		.4byte	0x7c7
 1920 082f 02       		.uleb128 0x2
 1921 0830 91       		.byte	0x91
 1922 0831 7C       		.sleb128 -4
 1923 0832 00       		.byte	0
 1924 0833 00       		.byte	0
 1925 0834 1F       		.uleb128 0x1f
 1926 0835 3E050000 		.4byte	.LASF145
 1927 0839 03       		.byte	0x3
 1928 083a 5A01     		.2byte	0x15a
 1929 083c 00000000 		.4byte	.LFB167
 1930 0840 10000000 		.4byte	.LFE167-.LFB167
 1931 0844 01       		.uleb128 0x1
 1932 0845 9C       		.byte	0x9c
 1933 0846 20       		.uleb128 0x20
 1934 0847 A8060000 		.4byte	.LASF131
 1935 084b 03       		.byte	0x3
 1936 084c 6601     		.2byte	0x166
 1937 084e 00000000 		.4byte	.LFB168
 1938 0852 4E000000 		.4byte	.LFE168-.LFB168
 1939 0856 01       		.uleb128 0x1
 1940 0857 9C       		.byte	0x9c
 1941 0858 6C080000 		.4byte	0x86c
 1942 085c 21       		.uleb128 0x21
 1943 085d 6D040000 		.4byte	.LASF146
 1944 0861 7C080000 		.4byte	0x87c
 1945 0865 05       		.uleb128 0x5
 1946 0866 03       		.byte	0x3
 1947 0867 00000000 		.4byte	__func__.5915
 1948 086b 00       		.byte	0
 1949 086c 14       		.uleb128 0x14
 1950 086d 7B070000 		.4byte	0x77b
 1951 0871 7C080000 		.4byte	0x87c
 1952 0875 15       		.uleb128 0x15
 1953 0876 AF040000 		.4byte	0x4af
 1954 087a 0B       		.byte	0xb
 1955 087b 00       		.byte	0
 1956 087c 18       		.uleb128 0x18
 1957 087d 6C080000 		.4byte	0x86c
 1958 0881 22       		.uleb128 0x22
 1959 0882 E5040000 		.4byte	.LASF147
 1960 0886 04       		.byte	0x4
 1961 0887 4E       		.byte	0x4e
ARM GAS  /tmp/ccSwo4Z8.s 			page 69


 1962 0888 00000000 		.4byte	.LFB241
 1963 088c 34000000 		.4byte	.LFE241-.LFB241
 1964 0890 01       		.uleb128 0x1
 1965 0891 9C       		.byte	0x9c
 1966 0892 AD080000 		.4byte	0x8ad
 1967 0896 23       		.uleb128 0x23
 1968 0897 35060000 		.4byte	.LASF132
 1969 089b 04       		.byte	0x4
 1970 089c 50       		.byte	0x50
 1971 089d AD080000 		.4byte	0x8ad
 1972 08a1 23       		.uleb128 0x23
 1973 08a2 0C050000 		.4byte	.LASF133
 1974 08a6 04       		.byte	0x4
 1975 08a7 51       		.byte	0x51
 1976 08a8 AD080000 		.4byte	0x8ad
 1977 08ac 00       		.byte	0
 1978 08ad 14       		.uleb128 0x14
 1979 08ae A2000000 		.4byte	0xa2
 1980 08b2 B8080000 		.4byte	0x8b8
 1981 08b6 24       		.uleb128 0x24
 1982 08b7 00       		.byte	0
 1983 08b8 25       		.uleb128 0x25
 1984 08b9 40000000 		.4byte	.LASF134
 1985 08bd 04       		.byte	0x4
 1986 08be 6D       		.byte	0x6d
 1987 08bf 40030000 		.4byte	0x340
 1988 08c3 00000000 		.4byte	.LFB242
 1989 08c7 20000000 		.4byte	.LFE242-.LFB242
 1990 08cb 01       		.uleb128 0x1
 1991 08cc 9C       		.byte	0x9c
 1992 08cd EC080000 		.4byte	0x8ec
 1993 08d1 26       		.uleb128 0x26
 1994 08d2 87060000 		.4byte	.LASF136
 1995 08d6 04       		.byte	0x4
 1996 08d7 6D       		.byte	0x6d
 1997 08d8 2C000000 		.4byte	0x2c
 1998 08dc 02       		.uleb128 0x2
 1999 08dd 91       		.byte	0x91
 2000 08de 6C       		.sleb128 -20
 2001 08df 27       		.uleb128 0x27
 2002 08e0 7000     		.ascii	"p\000"
 2003 08e2 04       		.byte	0x4
 2004 08e3 6E       		.byte	0x6e
 2005 08e4 40030000 		.4byte	0x340
 2006 08e8 02       		.uleb128 0x2
 2007 08e9 91       		.byte	0x91
 2008 08ea 74       		.sleb128 -12
 2009 08eb 00       		.byte	0
 2010 08ec 25       		.uleb128 0x25
 2011 08ed AC010000 		.4byte	.LASF135
 2012 08f1 04       		.byte	0x4
 2013 08f2 83       		.byte	0x83
 2014 08f3 40030000 		.4byte	0x340
 2015 08f7 00000000 		.4byte	.LFB243
 2016 08fb 66000000 		.4byte	.LFE243-.LFB243
 2017 08ff 01       		.uleb128 0x1
 2018 0900 9C       		.byte	0x9c
ARM GAS  /tmp/ccSwo4Z8.s 			page 70


 2019 0901 20090000 		.4byte	0x920
 2020 0905 26       		.uleb128 0x26
 2021 0906 87060000 		.4byte	.LASF136
 2022 090a 04       		.byte	0x4
 2023 090b 83       		.byte	0x83
 2024 090c 2C000000 		.4byte	0x2c
 2025 0910 02       		.uleb128 0x2
 2026 0911 91       		.byte	0x91
 2027 0912 6C       		.sleb128 -20
 2028 0913 27       		.uleb128 0x27
 2029 0914 7000     		.ascii	"p\000"
 2030 0916 04       		.byte	0x4
 2031 0917 84       		.byte	0x84
 2032 0918 40030000 		.4byte	0x340
 2033 091c 02       		.uleb128 0x2
 2034 091d 91       		.byte	0x91
 2035 091e 74       		.sleb128 -12
 2036 091f 00       		.byte	0
 2037 0920 28       		.uleb128 0x28
 2038 0921 63010000 		.4byte	.LASF148
 2039 0925 04       		.byte	0x4
 2040 0926 9B       		.byte	0x9b
 2041 0927 2C000000 		.4byte	0x2c
 2042 092b 00000000 		.4byte	.LFB244
 2043 092f 1C000000 		.4byte	.LFE244-.LFB244
 2044 0933 01       		.uleb128 0x1
 2045 0934 9C       		.byte	0x9c
 2046 0935 29       		.uleb128 0x29
 2047 0936 C7050000 		.4byte	.LASF137
 2048 093a 04       		.byte	0x4
 2049 093b 3E       		.byte	0x3e
 2050 093c B4070000 		.4byte	0x7b4
 2051 0940 05       		.uleb128 0x5
 2052 0941 03       		.byte	0x3
 2053 0942 00000000 		.4byte	nextmem
 2054 0946 29       		.uleb128 0x29
 2055 0947 00000000 		.4byte	.LASF138
 2056 094b 04       		.byte	0x4
 2057 094c 3F       		.byte	0x3f
 2058 094d B4070000 		.4byte	0x7b4
 2059 0951 05       		.uleb128 0x5
 2060 0952 03       		.byte	0x3
 2061 0953 00000000 		.4byte	endmem
 2062 0957 2A       		.uleb128 0x2a
 2063 0958 01010000 		.4byte	.LASF139
 2064 095c 11       		.byte	0x11
 2065 095d FA06     		.2byte	0x6fa
 2066 095f 63090000 		.4byte	0x963
 2067 0963 19       		.uleb128 0x19
 2068 0964 AD000000 		.4byte	0xad
 2069 0968 2B       		.uleb128 0x2b
 2070 0969 636800   		.ascii	"ch\000"
 2071 096c 0A       		.byte	0xa
 2072 096d 0902     		.2byte	0x209
 2073 096f 37040000 		.4byte	0x437
 2074 0973 23       		.uleb128 0x23
 2075 0974 35060000 		.4byte	.LASF132
ARM GAS  /tmp/ccSwo4Z8.s 			page 71


 2076 0978 04       		.byte	0x4
 2077 0979 50       		.byte	0x50
 2078 097a AD080000 		.4byte	0x8ad
 2079 097e 23       		.uleb128 0x23
 2080 097f 0C050000 		.4byte	.LASF133
 2081 0983 04       		.byte	0x4
 2082 0984 51       		.byte	0x51
 2083 0985 AD080000 		.4byte	0x8ad
 2084 0989 00       		.byte	0
 2085              		.section	.debug_abbrev,"",%progbits
 2086              	.Ldebug_abbrev0:
 2087 0000 01       		.uleb128 0x1
 2088 0001 11       		.uleb128 0x11
 2089 0002 01       		.byte	0x1
 2090 0003 25       		.uleb128 0x25
 2091 0004 0E       		.uleb128 0xe
 2092 0005 13       		.uleb128 0x13
 2093 0006 0B       		.uleb128 0xb
 2094 0007 03       		.uleb128 0x3
 2095 0008 0E       		.uleb128 0xe
 2096 0009 1B       		.uleb128 0x1b
 2097 000a 0E       		.uleb128 0xe
 2098 000b 55       		.uleb128 0x55
 2099 000c 17       		.uleb128 0x17
 2100 000d 11       		.uleb128 0x11
 2101 000e 01       		.uleb128 0x1
 2102 000f 10       		.uleb128 0x10
 2103 0010 17       		.uleb128 0x17
 2104 0011 00       		.byte	0
 2105 0012 00       		.byte	0
 2106 0013 02       		.uleb128 0x2
 2107 0014 24       		.uleb128 0x24
 2108 0015 00       		.byte	0
 2109 0016 0B       		.uleb128 0xb
 2110 0017 0B       		.uleb128 0xb
 2111 0018 3E       		.uleb128 0x3e
 2112 0019 0B       		.uleb128 0xb
 2113 001a 03       		.uleb128 0x3
 2114 001b 08       		.uleb128 0x8
 2115 001c 00       		.byte	0
 2116 001d 00       		.byte	0
 2117 001e 03       		.uleb128 0x3
 2118 001f 16       		.uleb128 0x16
 2119 0020 00       		.byte	0
 2120 0021 03       		.uleb128 0x3
 2121 0022 0E       		.uleb128 0xe
 2122 0023 3A       		.uleb128 0x3a
 2123 0024 0B       		.uleb128 0xb
 2124 0025 3B       		.uleb128 0x3b
 2125 0026 0B       		.uleb128 0xb
 2126 0027 49       		.uleb128 0x49
 2127 0028 13       		.uleb128 0x13
 2128 0029 00       		.byte	0
 2129 002a 00       		.byte	0
 2130 002b 04       		.uleb128 0x4
 2131 002c 24       		.uleb128 0x24
 2132 002d 00       		.byte	0
ARM GAS  /tmp/ccSwo4Z8.s 			page 72


 2133 002e 0B       		.uleb128 0xb
 2134 002f 0B       		.uleb128 0xb
 2135 0030 3E       		.uleb128 0x3e
 2136 0031 0B       		.uleb128 0xb
 2137 0032 03       		.uleb128 0x3
 2138 0033 0E       		.uleb128 0xe
 2139 0034 00       		.byte	0
 2140 0035 00       		.byte	0
 2141 0036 05       		.uleb128 0x5
 2142 0037 13       		.uleb128 0x13
 2143 0038 01       		.byte	0x1
 2144 0039 03       		.uleb128 0x3
 2145 003a 0E       		.uleb128 0xe
 2146 003b 0B       		.uleb128 0xb
 2147 003c 0B       		.uleb128 0xb
 2148 003d 3A       		.uleb128 0x3a
 2149 003e 0B       		.uleb128 0xb
 2150 003f 3B       		.uleb128 0x3b
 2151 0040 0B       		.uleb128 0xb
 2152 0041 01       		.uleb128 0x1
 2153 0042 13       		.uleb128 0x13
 2154 0043 00       		.byte	0
 2155 0044 00       		.byte	0
 2156 0045 06       		.uleb128 0x6
 2157 0046 0D       		.uleb128 0xd
 2158 0047 00       		.byte	0
 2159 0048 03       		.uleb128 0x3
 2160 0049 0E       		.uleb128 0xe
 2161 004a 3A       		.uleb128 0x3a
 2162 004b 0B       		.uleb128 0xb
 2163 004c 3B       		.uleb128 0x3b
 2164 004d 0B       		.uleb128 0xb
 2165 004e 49       		.uleb128 0x49
 2166 004f 13       		.uleb128 0x13
 2167 0050 38       		.uleb128 0x38
 2168 0051 0B       		.uleb128 0xb
 2169 0052 00       		.byte	0
 2170 0053 00       		.byte	0
 2171 0054 07       		.uleb128 0x7
 2172 0055 0D       		.uleb128 0xd
 2173 0056 00       		.byte	0
 2174 0057 03       		.uleb128 0x3
 2175 0058 08       		.uleb128 0x8
 2176 0059 3A       		.uleb128 0x3a
 2177 005a 0B       		.uleb128 0xb
 2178 005b 3B       		.uleb128 0x3b
 2179 005c 05       		.uleb128 0x5
 2180 005d 49       		.uleb128 0x49
 2181 005e 13       		.uleb128 0x13
 2182 005f 38       		.uleb128 0x38
 2183 0060 0B       		.uleb128 0xb
 2184 0061 00       		.byte	0
 2185 0062 00       		.byte	0
 2186 0063 08       		.uleb128 0x8
 2187 0064 0D       		.uleb128 0xd
 2188 0065 00       		.byte	0
 2189 0066 03       		.uleb128 0x3
ARM GAS  /tmp/ccSwo4Z8.s 			page 73


 2190 0067 0E       		.uleb128 0xe
 2191 0068 3A       		.uleb128 0x3a
 2192 0069 0B       		.uleb128 0xb
 2193 006a 3B       		.uleb128 0x3b
 2194 006b 05       		.uleb128 0x5
 2195 006c 49       		.uleb128 0x49
 2196 006d 13       		.uleb128 0x13
 2197 006e 38       		.uleb128 0x38
 2198 006f 0B       		.uleb128 0xb
 2199 0070 00       		.byte	0
 2200 0071 00       		.byte	0
 2201 0072 09       		.uleb128 0x9
 2202 0073 0F       		.uleb128 0xf
 2203 0074 00       		.byte	0
 2204 0075 0B       		.uleb128 0xb
 2205 0076 0B       		.uleb128 0xb
 2206 0077 49       		.uleb128 0x49
 2207 0078 13       		.uleb128 0x13
 2208 0079 00       		.byte	0
 2209 007a 00       		.byte	0
 2210 007b 0A       		.uleb128 0xa
 2211 007c 13       		.uleb128 0x13
 2212 007d 01       		.byte	0x1
 2213 007e 03       		.uleb128 0x3
 2214 007f 0E       		.uleb128 0xe
 2215 0080 0B       		.uleb128 0xb
 2216 0081 0B       		.uleb128 0xb
 2217 0082 3A       		.uleb128 0x3a
 2218 0083 0B       		.uleb128 0xb
 2219 0084 3B       		.uleb128 0x3b
 2220 0085 05       		.uleb128 0x5
 2221 0086 01       		.uleb128 0x1
 2222 0087 13       		.uleb128 0x13
 2223 0088 00       		.byte	0
 2224 0089 00       		.byte	0
 2225 008a 0B       		.uleb128 0xb
 2226 008b 15       		.uleb128 0x15
 2227 008c 01       		.byte	0x1
 2228 008d 27       		.uleb128 0x27
 2229 008e 19       		.uleb128 0x19
 2230 008f 01       		.uleb128 0x1
 2231 0090 13       		.uleb128 0x13
 2232 0091 00       		.byte	0
 2233 0092 00       		.byte	0
 2234 0093 0C       		.uleb128 0xc
 2235 0094 05       		.uleb128 0x5
 2236 0095 00       		.byte	0
 2237 0096 49       		.uleb128 0x49
 2238 0097 13       		.uleb128 0x13
 2239 0098 00       		.byte	0
 2240 0099 00       		.byte	0
 2241 009a 0D       		.uleb128 0xd
 2242 009b 0F       		.uleb128 0xf
 2243 009c 00       		.byte	0
 2244 009d 0B       		.uleb128 0xb
 2245 009e 0B       		.uleb128 0xb
 2246 009f 00       		.byte	0
ARM GAS  /tmp/ccSwo4Z8.s 			page 74


 2247 00a0 00       		.byte	0
 2248 00a1 0E       		.uleb128 0xe
 2249 00a2 13       		.uleb128 0x13
 2250 00a3 01       		.byte	0x1
 2251 00a4 03       		.uleb128 0x3
 2252 00a5 0E       		.uleb128 0xe
 2253 00a6 0B       		.uleb128 0xb
 2254 00a7 05       		.uleb128 0x5
 2255 00a8 3A       		.uleb128 0x3a
 2256 00a9 0B       		.uleb128 0xb
 2257 00aa 3B       		.uleb128 0x3b
 2258 00ab 05       		.uleb128 0x5
 2259 00ac 01       		.uleb128 0x1
 2260 00ad 13       		.uleb128 0x13
 2261 00ae 00       		.byte	0
 2262 00af 00       		.byte	0
 2263 00b0 0F       		.uleb128 0xf
 2264 00b1 0D       		.uleb128 0xd
 2265 00b2 00       		.byte	0
 2266 00b3 03       		.uleb128 0x3
 2267 00b4 0E       		.uleb128 0xe
 2268 00b5 3A       		.uleb128 0x3a
 2269 00b6 0B       		.uleb128 0xb
 2270 00b7 3B       		.uleb128 0x3b
 2271 00b8 05       		.uleb128 0x5
 2272 00b9 49       		.uleb128 0x49
 2273 00ba 13       		.uleb128 0x13
 2274 00bb 38       		.uleb128 0x38
 2275 00bc 05       		.uleb128 0x5
 2276 00bd 00       		.byte	0
 2277 00be 00       		.byte	0
 2278 00bf 10       		.uleb128 0x10
 2279 00c0 0D       		.uleb128 0xd
 2280 00c1 00       		.byte	0
 2281 00c2 03       		.uleb128 0x3
 2282 00c3 08       		.uleb128 0x8
 2283 00c4 3A       		.uleb128 0x3a
 2284 00c5 0B       		.uleb128 0xb
 2285 00c6 3B       		.uleb128 0x3b
 2286 00c7 05       		.uleb128 0x5
 2287 00c8 49       		.uleb128 0x49
 2288 00c9 13       		.uleb128 0x13
 2289 00ca 38       		.uleb128 0x38
 2290 00cb 05       		.uleb128 0x5
 2291 00cc 00       		.byte	0
 2292 00cd 00       		.byte	0
 2293 00ce 11       		.uleb128 0x11
 2294 00cf 0D       		.uleb128 0xd
 2295 00d0 00       		.byte	0
 2296 00d1 03       		.uleb128 0x3
 2297 00d2 08       		.uleb128 0x8
 2298 00d3 3A       		.uleb128 0x3a
 2299 00d4 0B       		.uleb128 0xb
 2300 00d5 3B       		.uleb128 0x3b
 2301 00d6 0B       		.uleb128 0xb
 2302 00d7 49       		.uleb128 0x49
 2303 00d8 13       		.uleb128 0x13
ARM GAS  /tmp/ccSwo4Z8.s 			page 75


 2304 00d9 38       		.uleb128 0x38
 2305 00da 0B       		.uleb128 0xb
 2306 00db 00       		.byte	0
 2307 00dc 00       		.byte	0
 2308 00dd 12       		.uleb128 0x12
 2309 00de 13       		.uleb128 0x13
 2310 00df 01       		.byte	0x1
 2311 00e0 0B       		.uleb128 0xb
 2312 00e1 0B       		.uleb128 0xb
 2313 00e2 3A       		.uleb128 0x3a
 2314 00e3 0B       		.uleb128 0xb
 2315 00e4 3B       		.uleb128 0x3b
 2316 00e5 0B       		.uleb128 0xb
 2317 00e6 01       		.uleb128 0x1
 2318 00e7 13       		.uleb128 0x13
 2319 00e8 00       		.byte	0
 2320 00e9 00       		.byte	0
 2321 00ea 13       		.uleb128 0x13
 2322 00eb 13       		.uleb128 0x13
 2323 00ec 01       		.byte	0x1
 2324 00ed 0B       		.uleb128 0xb
 2325 00ee 05       		.uleb128 0x5
 2326 00ef 3A       		.uleb128 0x3a
 2327 00f0 0B       		.uleb128 0xb
 2328 00f1 3B       		.uleb128 0x3b
 2329 00f2 0B       		.uleb128 0xb
 2330 00f3 01       		.uleb128 0x1
 2331 00f4 13       		.uleb128 0x13
 2332 00f5 00       		.byte	0
 2333 00f6 00       		.byte	0
 2334 00f7 14       		.uleb128 0x14
 2335 00f8 01       		.uleb128 0x1
 2336 00f9 01       		.byte	0x1
 2337 00fa 49       		.uleb128 0x49
 2338 00fb 13       		.uleb128 0x13
 2339 00fc 01       		.uleb128 0x1
 2340 00fd 13       		.uleb128 0x13
 2341 00fe 00       		.byte	0
 2342 00ff 00       		.byte	0
 2343 0100 15       		.uleb128 0x15
 2344 0101 21       		.uleb128 0x21
 2345 0102 00       		.byte	0
 2346 0103 49       		.uleb128 0x49
 2347 0104 13       		.uleb128 0x13
 2348 0105 2F       		.uleb128 0x2f
 2349 0106 0B       		.uleb128 0xb
 2350 0107 00       		.byte	0
 2351 0108 00       		.byte	0
 2352 0109 16       		.uleb128 0x16
 2353 010a 17       		.uleb128 0x17
 2354 010b 01       		.byte	0x1
 2355 010c 0B       		.uleb128 0xb
 2356 010d 0B       		.uleb128 0xb
 2357 010e 3A       		.uleb128 0x3a
 2358 010f 0B       		.uleb128 0xb
 2359 0110 3B       		.uleb128 0x3b
 2360 0111 0B       		.uleb128 0xb
ARM GAS  /tmp/ccSwo4Z8.s 			page 76


 2361 0112 01       		.uleb128 0x1
 2362 0113 13       		.uleb128 0x13
 2363 0114 00       		.byte	0
 2364 0115 00       		.byte	0
 2365 0116 17       		.uleb128 0x17
 2366 0117 0D       		.uleb128 0xd
 2367 0118 00       		.byte	0
 2368 0119 03       		.uleb128 0x3
 2369 011a 0E       		.uleb128 0xe
 2370 011b 3A       		.uleb128 0x3a
 2371 011c 0B       		.uleb128 0xb
 2372 011d 3B       		.uleb128 0x3b
 2373 011e 05       		.uleb128 0x5
 2374 011f 49       		.uleb128 0x49
 2375 0120 13       		.uleb128 0x13
 2376 0121 00       		.byte	0
 2377 0122 00       		.byte	0
 2378 0123 18       		.uleb128 0x18
 2379 0124 26       		.uleb128 0x26
 2380 0125 00       		.byte	0
 2381 0126 49       		.uleb128 0x49
 2382 0127 13       		.uleb128 0x13
 2383 0128 00       		.byte	0
 2384 0129 00       		.byte	0
 2385 012a 19       		.uleb128 0x19
 2386 012b 35       		.uleb128 0x35
 2387 012c 00       		.byte	0
 2388 012d 49       		.uleb128 0x49
 2389 012e 13       		.uleb128 0x13
 2390 012f 00       		.byte	0
 2391 0130 00       		.byte	0
 2392 0131 1A       		.uleb128 0x1a
 2393 0132 2E       		.uleb128 0x2e
 2394 0133 01       		.byte	0x1
 2395 0134 03       		.uleb128 0x3
 2396 0135 0E       		.uleb128 0xe
 2397 0136 3A       		.uleb128 0x3a
 2398 0137 0B       		.uleb128 0xb
 2399 0138 3B       		.uleb128 0x3b
 2400 0139 05       		.uleb128 0x5
 2401 013a 27       		.uleb128 0x27
 2402 013b 19       		.uleb128 0x19
 2403 013c 20       		.uleb128 0x20
 2404 013d 0B       		.uleb128 0xb
 2405 013e 01       		.uleb128 0x1
 2406 013f 13       		.uleb128 0x13
 2407 0140 00       		.byte	0
 2408 0141 00       		.byte	0
 2409 0142 1B       		.uleb128 0x1b
 2410 0143 05       		.uleb128 0x5
 2411 0144 00       		.byte	0
 2412 0145 03       		.uleb128 0x3
 2413 0146 0E       		.uleb128 0xe
 2414 0147 3A       		.uleb128 0x3a
 2415 0148 0B       		.uleb128 0xb
 2416 0149 3B       		.uleb128 0x3b
 2417 014a 05       		.uleb128 0x5
ARM GAS  /tmp/ccSwo4Z8.s 			page 77


 2418 014b 49       		.uleb128 0x49
 2419 014c 13       		.uleb128 0x13
 2420 014d 00       		.byte	0
 2421 014e 00       		.byte	0
 2422 014f 1C       		.uleb128 0x1c
 2423 0150 2E       		.uleb128 0x2e
 2424 0151 01       		.byte	0x1
 2425 0152 03       		.uleb128 0x3
 2426 0153 0E       		.uleb128 0xe
 2427 0154 3A       		.uleb128 0x3a
 2428 0155 0B       		.uleb128 0xb
 2429 0156 3B       		.uleb128 0x3b
 2430 0157 05       		.uleb128 0x5
 2431 0158 27       		.uleb128 0x27
 2432 0159 19       		.uleb128 0x19
 2433 015a 11       		.uleb128 0x11
 2434 015b 01       		.uleb128 0x1
 2435 015c 12       		.uleb128 0x12
 2436 015d 06       		.uleb128 0x6
 2437 015e 40       		.uleb128 0x40
 2438 015f 18       		.uleb128 0x18
 2439 0160 9742     		.uleb128 0x2117
 2440 0162 19       		.uleb128 0x19
 2441 0163 01       		.uleb128 0x1
 2442 0164 13       		.uleb128 0x13
 2443 0165 00       		.byte	0
 2444 0166 00       		.byte	0
 2445 0167 1D       		.uleb128 0x1d
 2446 0168 1D       		.uleb128 0x1d
 2447 0169 01       		.byte	0x1
 2448 016a 31       		.uleb128 0x31
 2449 016b 13       		.uleb128 0x13
 2450 016c 11       		.uleb128 0x11
 2451 016d 01       		.uleb128 0x1
 2452 016e 12       		.uleb128 0x12
 2453 016f 06       		.uleb128 0x6
 2454 0170 58       		.uleb128 0x58
 2455 0171 0B       		.uleb128 0xb
 2456 0172 59       		.uleb128 0x59
 2457 0173 05       		.uleb128 0x5
 2458 0174 00       		.byte	0
 2459 0175 00       		.byte	0
 2460 0176 1E       		.uleb128 0x1e
 2461 0177 05       		.uleb128 0x5
 2462 0178 00       		.byte	0
 2463 0179 31       		.uleb128 0x31
 2464 017a 13       		.uleb128 0x13
 2465 017b 02       		.uleb128 0x2
 2466 017c 18       		.uleb128 0x18
 2467 017d 00       		.byte	0
 2468 017e 00       		.byte	0
 2469 017f 1F       		.uleb128 0x1f
 2470 0180 2E       		.uleb128 0x2e
 2471 0181 00       		.byte	0
 2472 0182 03       		.uleb128 0x3
 2473 0183 0E       		.uleb128 0xe
 2474 0184 3A       		.uleb128 0x3a
ARM GAS  /tmp/ccSwo4Z8.s 			page 78


 2475 0185 0B       		.uleb128 0xb
 2476 0186 3B       		.uleb128 0x3b
 2477 0187 05       		.uleb128 0x5
 2478 0188 27       		.uleb128 0x27
 2479 0189 19       		.uleb128 0x19
 2480 018a 11       		.uleb128 0x11
 2481 018b 01       		.uleb128 0x1
 2482 018c 12       		.uleb128 0x12
 2483 018d 06       		.uleb128 0x6
 2484 018e 40       		.uleb128 0x40
 2485 018f 18       		.uleb128 0x18
 2486 0190 9642     		.uleb128 0x2116
 2487 0192 19       		.uleb128 0x19
 2488 0193 00       		.byte	0
 2489 0194 00       		.byte	0
 2490 0195 20       		.uleb128 0x20
 2491 0196 2E       		.uleb128 0x2e
 2492 0197 01       		.byte	0x1
 2493 0198 03       		.uleb128 0x3
 2494 0199 0E       		.uleb128 0xe
 2495 019a 3A       		.uleb128 0x3a
 2496 019b 0B       		.uleb128 0xb
 2497 019c 3B       		.uleb128 0x3b
 2498 019d 05       		.uleb128 0x5
 2499 019e 27       		.uleb128 0x27
 2500 019f 19       		.uleb128 0x19
 2501 01a0 11       		.uleb128 0x11
 2502 01a1 01       		.uleb128 0x1
 2503 01a2 12       		.uleb128 0x12
 2504 01a3 06       		.uleb128 0x6
 2505 01a4 40       		.uleb128 0x40
 2506 01a5 18       		.uleb128 0x18
 2507 01a6 9642     		.uleb128 0x2116
 2508 01a8 19       		.uleb128 0x19
 2509 01a9 01       		.uleb128 0x1
 2510 01aa 13       		.uleb128 0x13
 2511 01ab 00       		.byte	0
 2512 01ac 00       		.byte	0
 2513 01ad 21       		.uleb128 0x21
 2514 01ae 34       		.uleb128 0x34
 2515 01af 00       		.byte	0
 2516 01b0 03       		.uleb128 0x3
 2517 01b1 0E       		.uleb128 0xe
 2518 01b2 49       		.uleb128 0x49
 2519 01b3 13       		.uleb128 0x13
 2520 01b4 34       		.uleb128 0x34
 2521 01b5 19       		.uleb128 0x19
 2522 01b6 02       		.uleb128 0x2
 2523 01b7 18       		.uleb128 0x18
 2524 01b8 00       		.byte	0
 2525 01b9 00       		.byte	0
 2526 01ba 22       		.uleb128 0x22
 2527 01bb 2E       		.uleb128 0x2e
 2528 01bc 01       		.byte	0x1
 2529 01bd 3F       		.uleb128 0x3f
 2530 01be 19       		.uleb128 0x19
 2531 01bf 03       		.uleb128 0x3
ARM GAS  /tmp/ccSwo4Z8.s 			page 79


 2532 01c0 0E       		.uleb128 0xe
 2533 01c1 3A       		.uleb128 0x3a
 2534 01c2 0B       		.uleb128 0xb
 2535 01c3 3B       		.uleb128 0x3b
 2536 01c4 0B       		.uleb128 0xb
 2537 01c5 27       		.uleb128 0x27
 2538 01c6 19       		.uleb128 0x19
 2539 01c7 11       		.uleb128 0x11
 2540 01c8 01       		.uleb128 0x1
 2541 01c9 12       		.uleb128 0x12
 2542 01ca 06       		.uleb128 0x6
 2543 01cb 40       		.uleb128 0x40
 2544 01cc 18       		.uleb128 0x18
 2545 01cd 9742     		.uleb128 0x2117
 2546 01cf 19       		.uleb128 0x19
 2547 01d0 01       		.uleb128 0x1
 2548 01d1 13       		.uleb128 0x13
 2549 01d2 00       		.byte	0
 2550 01d3 00       		.byte	0
 2551 01d4 23       		.uleb128 0x23
 2552 01d5 34       		.uleb128 0x34
 2553 01d6 00       		.byte	0
 2554 01d7 03       		.uleb128 0x3
 2555 01d8 0E       		.uleb128 0xe
 2556 01d9 3A       		.uleb128 0x3a
 2557 01da 0B       		.uleb128 0xb
 2558 01db 3B       		.uleb128 0x3b
 2559 01dc 0B       		.uleb128 0xb
 2560 01dd 49       		.uleb128 0x49
 2561 01de 13       		.uleb128 0x13
 2562 01df 3F       		.uleb128 0x3f
 2563 01e0 19       		.uleb128 0x19
 2564 01e1 3C       		.uleb128 0x3c
 2565 01e2 19       		.uleb128 0x19
 2566 01e3 00       		.byte	0
 2567 01e4 00       		.byte	0
 2568 01e5 24       		.uleb128 0x24
 2569 01e6 21       		.uleb128 0x21
 2570 01e7 00       		.byte	0
 2571 01e8 00       		.byte	0
 2572 01e9 00       		.byte	0
 2573 01ea 25       		.uleb128 0x25
 2574 01eb 2E       		.uleb128 0x2e
 2575 01ec 01       		.byte	0x1
 2576 01ed 3F       		.uleb128 0x3f
 2577 01ee 19       		.uleb128 0x19
 2578 01ef 03       		.uleb128 0x3
 2579 01f0 0E       		.uleb128 0xe
 2580 01f1 3A       		.uleb128 0x3a
 2581 01f2 0B       		.uleb128 0xb
 2582 01f3 3B       		.uleb128 0x3b
 2583 01f4 0B       		.uleb128 0xb
 2584 01f5 27       		.uleb128 0x27
 2585 01f6 19       		.uleb128 0x19
 2586 01f7 49       		.uleb128 0x49
 2587 01f8 13       		.uleb128 0x13
 2588 01f9 11       		.uleb128 0x11
ARM GAS  /tmp/ccSwo4Z8.s 			page 80


 2589 01fa 01       		.uleb128 0x1
 2590 01fb 12       		.uleb128 0x12
 2591 01fc 06       		.uleb128 0x6
 2592 01fd 40       		.uleb128 0x40
 2593 01fe 18       		.uleb128 0x18
 2594 01ff 9642     		.uleb128 0x2116
 2595 0201 19       		.uleb128 0x19
 2596 0202 01       		.uleb128 0x1
 2597 0203 13       		.uleb128 0x13
 2598 0204 00       		.byte	0
 2599 0205 00       		.byte	0
 2600 0206 26       		.uleb128 0x26
 2601 0207 05       		.uleb128 0x5
 2602 0208 00       		.byte	0
 2603 0209 03       		.uleb128 0x3
 2604 020a 0E       		.uleb128 0xe
 2605 020b 3A       		.uleb128 0x3a
 2606 020c 0B       		.uleb128 0xb
 2607 020d 3B       		.uleb128 0x3b
 2608 020e 0B       		.uleb128 0xb
 2609 020f 49       		.uleb128 0x49
 2610 0210 13       		.uleb128 0x13
 2611 0211 02       		.uleb128 0x2
 2612 0212 18       		.uleb128 0x18
 2613 0213 00       		.byte	0
 2614 0214 00       		.byte	0
 2615 0215 27       		.uleb128 0x27
 2616 0216 34       		.uleb128 0x34
 2617 0217 00       		.byte	0
 2618 0218 03       		.uleb128 0x3
 2619 0219 08       		.uleb128 0x8
 2620 021a 3A       		.uleb128 0x3a
 2621 021b 0B       		.uleb128 0xb
 2622 021c 3B       		.uleb128 0x3b
 2623 021d 0B       		.uleb128 0xb
 2624 021e 49       		.uleb128 0x49
 2625 021f 13       		.uleb128 0x13
 2626 0220 02       		.uleb128 0x2
 2627 0221 18       		.uleb128 0x18
 2628 0222 00       		.byte	0
 2629 0223 00       		.byte	0
 2630 0224 28       		.uleb128 0x28
 2631 0225 2E       		.uleb128 0x2e
 2632 0226 00       		.byte	0
 2633 0227 3F       		.uleb128 0x3f
 2634 0228 19       		.uleb128 0x19
 2635 0229 03       		.uleb128 0x3
 2636 022a 0E       		.uleb128 0xe
 2637 022b 3A       		.uleb128 0x3a
 2638 022c 0B       		.uleb128 0xb
 2639 022d 3B       		.uleb128 0x3b
 2640 022e 0B       		.uleb128 0xb
 2641 022f 27       		.uleb128 0x27
 2642 0230 19       		.uleb128 0x19
 2643 0231 49       		.uleb128 0x49
 2644 0232 13       		.uleb128 0x13
 2645 0233 11       		.uleb128 0x11
ARM GAS  /tmp/ccSwo4Z8.s 			page 81


 2646 0234 01       		.uleb128 0x1
 2647 0235 12       		.uleb128 0x12
 2648 0236 06       		.uleb128 0x6
 2649 0237 40       		.uleb128 0x40
 2650 0238 18       		.uleb128 0x18
 2651 0239 9742     		.uleb128 0x2117
 2652 023b 19       		.uleb128 0x19
 2653 023c 00       		.byte	0
 2654 023d 00       		.byte	0
 2655 023e 29       		.uleb128 0x29
 2656 023f 34       		.uleb128 0x34
 2657 0240 00       		.byte	0
 2658 0241 03       		.uleb128 0x3
 2659 0242 0E       		.uleb128 0xe
 2660 0243 3A       		.uleb128 0x3a
 2661 0244 0B       		.uleb128 0xb
 2662 0245 3B       		.uleb128 0x3b
 2663 0246 0B       		.uleb128 0xb
 2664 0247 49       		.uleb128 0x49
 2665 0248 13       		.uleb128 0x13
 2666 0249 02       		.uleb128 0x2
 2667 024a 18       		.uleb128 0x18
 2668 024b 00       		.byte	0
 2669 024c 00       		.byte	0
 2670 024d 2A       		.uleb128 0x2a
 2671 024e 34       		.uleb128 0x34
 2672 024f 00       		.byte	0
 2673 0250 03       		.uleb128 0x3
 2674 0251 0E       		.uleb128 0xe
 2675 0252 3A       		.uleb128 0x3a
 2676 0253 0B       		.uleb128 0xb
 2677 0254 3B       		.uleb128 0x3b
 2678 0255 05       		.uleb128 0x5
 2679 0256 49       		.uleb128 0x49
 2680 0257 13       		.uleb128 0x13
 2681 0258 3F       		.uleb128 0x3f
 2682 0259 19       		.uleb128 0x19
 2683 025a 3C       		.uleb128 0x3c
 2684 025b 19       		.uleb128 0x19
 2685 025c 00       		.byte	0
 2686 025d 00       		.byte	0
 2687 025e 2B       		.uleb128 0x2b
 2688 025f 34       		.uleb128 0x34
 2689 0260 00       		.byte	0
 2690 0261 03       		.uleb128 0x3
 2691 0262 08       		.uleb128 0x8
 2692 0263 3A       		.uleb128 0x3a
 2693 0264 0B       		.uleb128 0xb
 2694 0265 3B       		.uleb128 0x3b
 2695 0266 05       		.uleb128 0x5
 2696 0267 49       		.uleb128 0x49
 2697 0268 13       		.uleb128 0x13
 2698 0269 3F       		.uleb128 0x3f
 2699 026a 19       		.uleb128 0x19
 2700 026b 3C       		.uleb128 0x3c
 2701 026c 19       		.uleb128 0x19
 2702 026d 00       		.byte	0
ARM GAS  /tmp/ccSwo4Z8.s 			page 82


 2703 026e 00       		.byte	0
 2704 026f 00       		.byte	0
 2705              		.section	.debug_aranges,"",%progbits
 2706 0000 54000000 		.4byte	0x54
 2707 0004 0200     		.2byte	0x2
 2708 0006 00000000 		.4byte	.Ldebug_info0
 2709 000a 04       		.byte	0x4
 2710 000b 00       		.byte	0
 2711 000c 0000     		.2byte	0
 2712 000e 0000     		.2byte	0
 2713 0010 00000000 		.4byte	.LFB127
 2714 0014 10000000 		.4byte	.LFE127-.LFB127
 2715 0018 00000000 		.4byte	.LFB128
 2716 001c 10000000 		.4byte	.LFE128-.LFB128
 2717 0020 00000000 		.4byte	.LFB167
 2718 0024 10000000 		.4byte	.LFE167-.LFB167
 2719 0028 00000000 		.4byte	.LFB168
 2720 002c 4E000000 		.4byte	.LFE168-.LFB168
 2721 0030 00000000 		.4byte	.LFB241
 2722 0034 34000000 		.4byte	.LFE241-.LFB241
 2723 0038 00000000 		.4byte	.LFB242
 2724 003c 20000000 		.4byte	.LFE242-.LFB242
 2725 0040 00000000 		.4byte	.LFB243
 2726 0044 66000000 		.4byte	.LFE243-.LFB243
 2727 0048 00000000 		.4byte	.LFB244
 2728 004c 1C000000 		.4byte	.LFE244-.LFB244
 2729 0050 00000000 		.4byte	0
 2730 0054 00000000 		.4byte	0
 2731              		.section	.debug_ranges,"",%progbits
 2732              	.Ldebug_ranges0:
 2733 0000 00000000 		.4byte	.LFB127
 2734 0004 10000000 		.4byte	.LFE127
 2735 0008 00000000 		.4byte	.LFB128
 2736 000c 10000000 		.4byte	.LFE128
 2737 0010 00000000 		.4byte	.LFB167
 2738 0014 10000000 		.4byte	.LFE167
 2739 0018 00000000 		.4byte	.LFB168
 2740 001c 4E000000 		.4byte	.LFE168
 2741 0020 00000000 		.4byte	.LFB241
 2742 0024 34000000 		.4byte	.LFE241
 2743 0028 00000000 		.4byte	.LFB242
 2744 002c 20000000 		.4byte	.LFE242
 2745 0030 00000000 		.4byte	.LFB243
 2746 0034 66000000 		.4byte	.LFE243
 2747 0038 00000000 		.4byte	.LFB244
 2748 003c 1C000000 		.4byte	.LFE244
 2749 0040 00000000 		.4byte	0
 2750 0044 00000000 		.4byte	0
 2751              		.section	.debug_line,"",%progbits
 2752              	.Ldebug_line0:
 2753 0000 BB020000 		.section	.debug_str,"MS",%progbits,1
 2753      0200ED01 
 2753      00000201 
 2753      FB0E0D00 
 2753      01010101 
 2754              	.LASF138:
 2755 0000 656E646D 		.ascii	"endmem\000"
ARM GAS  /tmp/ccSwo4Z8.s 			page 83


 2755      656D00
 2756              	.LASF55:
 2757 0007 72656164 		.ascii	"ready_list_t\000"
 2757      795F6C69 
 2757      73745F74 
 2757      00
 2758              	.LASF92:
 2759 0014 73655F74 		.ascii	"se_time\000"
 2759      696D6500 
 2760              	.LASF2:
 2761 001c 73697A65 		.ascii	"size_t\000"
 2761      5F7400
 2762              	.LASF113:
 2763 0023 7264796D 		.ascii	"rdymsg\000"
 2763      736700
 2764              	.LASF17:
 2765 002a 75696E74 		.ascii	"uint64_t\000"
 2765      36345F74 
 2765      00
 2766              	.LASF85:
 2767 0033 6B65726E 		.ascii	"kernel_stats\000"
 2767      656C5F73 
 2767      74617473 
 2767      00
 2768              	.LASF134:
 2769 0040 6368436F 		.ascii	"chCoreAlloc\000"
 2769      7265416C 
 2769      6C6F6300 
 2770              	.LASF3:
 2771 004c 5F5F7569 		.ascii	"__uint8_t\000"
 2771      6E74385F 
 2771      7400
 2772              	.LASF91:
 2773 0056 706F7274 		.ascii	"port_intctx\000"
 2773      5F696E74 
 2773      63747800 
 2774              	.LASF54:
 2775 0062 63685F74 		.ascii	"ch_threads_queue\000"
 2775      68726561 
 2775      64735F71 
 2775      75657565 
 2775      00
 2776              	.LASF74:
 2777 0073 73797374 		.ascii	"system_debug_t\000"
 2777      656D5F64 
 2777      65627567 
 2777      5F7400
 2778              	.LASF129:
 2779 0082 706F7274 		.ascii	"port_lock\000"
 2779      5F6C6F63 
 2779      6B00
 2780              	.LASF104:
 2781 008c 776F7273 		.ascii	"worst\000"
 2781      7400
 2782              	.LASF107:
 2783 0092 74696D65 		.ascii	"time_measurement_t\000"
 2783      5F6D6561 
ARM GAS  /tmp/ccSwo4Z8.s 			page 84


 2783      73757265 
 2783      6D656E74 
 2783      5F7400
 2784              	.LASF13:
 2785 00a5 6C6F6E67 		.ascii	"long long unsigned int\000"
 2785      206C6F6E 
 2785      6720756E 
 2785      7369676E 
 2785      65642069 
 2786              	.LASF100:
 2787 00bc 63685F74 		.ascii	"ch_trace_buffer_t\000"
 2787      72616365 
 2787      5F627566 
 2787      6665725F 
 2787      7400
 2788              	.LASF95:
 2789 00ce 73655F73 		.ascii	"se_state\000"
 2789      74617465 
 2789      00
 2790              	.LASF114:
 2791 00d7 65786974 		.ascii	"exitcode\000"
 2791      636F6465 
 2791      00
 2792              	.LASF84:
 2793 00e0 6D61696E 		.ascii	"mainthread\000"
 2793      74687265 
 2793      616400
 2794              	.LASF71:
 2795 00eb 76697274 		.ascii	"virtual_timers_list_t\000"
 2795      75616C5F 
 2795      74696D65 
 2795      72735F6C 
 2795      6973745F 
 2796              	.LASF139:
 2797 0101 49544D5F 		.ascii	"ITM_RxBuffer\000"
 2797      52784275 
 2797      66666572 
 2797      00
 2798              	.LASF19:
 2799 010e 72747469 		.ascii	"rttime_t\000"
 2799      6D655F74 
 2799      00
 2800              	.LASF32:
 2801 0117 705F7072 		.ascii	"p_prio\000"
 2801      696F00
 2802              	.LASF22:
 2803 011e 74726566 		.ascii	"trefs_t\000"
 2803      735F7400 
 2804              	.LASF11:
 2805 0126 6C6F6E67 		.ascii	"long long int\000"
 2805      206C6F6E 
 2805      6720696E 
 2805      7400
 2806              	.LASF1:
 2807 0134 7369676E 		.ascii	"signed char\000"
 2807      65642063 
 2807      68617200 
ARM GAS  /tmp/ccSwo4Z8.s 			page 85


 2808              	.LASF47:
 2809 0140 705F6D70 		.ascii	"p_mpool\000"
 2809      6F6F6C00 
 2810              	.LASF124:
 2811 0148 6D5F7175 		.ascii	"m_queue\000"
 2811      65756500 
 2812              	.LASF83:
 2813 0150 76746C69 		.ascii	"vtlist\000"
 2813      737400
 2814              	.LASF130:
 2815 0157 706F7274 		.ascii	"port_unlock\000"
 2815      5F756E6C 
 2815      6F636B00 
 2816              	.LASF148:
 2817 0163 6368436F 		.ascii	"chCoreGetStatusX\000"
 2817      72654765 
 2817      74537461 
 2817      74757358 
 2817      00
 2818              	.LASF116:
 2819 0174 77747472 		.ascii	"wttrp\000"
 2819      7000
 2820              	.LASF81:
 2821 017a 63685F73 		.ascii	"ch_system\000"
 2821      79737465 
 2821      6D00
 2822              	.LASF8:
 2823 0184 6C6F6E67 		.ascii	"long int\000"
 2823      20696E74 
 2823      00
 2824              	.LASF21:
 2825 018d 74737461 		.ascii	"tstate_t\000"
 2825      74655F74 
 2825      00
 2826              	.LASF93:
 2827 0196 73655F74 		.ascii	"se_tp\000"
 2827      7000
 2828              	.LASF34:
 2829 019c 705F6E65 		.ascii	"p_newer\000"
 2829      77657200 
 2830              	.LASF121:
 2831 01a4 735F7175 		.ascii	"s_queue\000"
 2831      65756500 
 2832              	.LASF135:
 2833 01ac 6368436F 		.ascii	"chCoreAllocI\000"
 2833      7265416C 
 2833      6C6F6349 
 2833      00
 2834              	.LASF97:
 2835 01b9 74625F73 		.ascii	"tb_size\000"
 2835      697A6500 
 2836              	.LASF60:
 2837 01c1 725F6E65 		.ascii	"r_newer\000"
 2837      77657200 
 2838              	.LASF88:
 2839 01c9 72656761 		.ascii	"regarm_t\000"
 2839      726D5F74 
ARM GAS  /tmp/ccSwo4Z8.s 			page 86


 2839      00
 2840              	.LASF67:
 2841 01d2 76745F70 		.ascii	"vt_prev\000"
 2841      72657600 
 2842              	.LASF75:
 2843 01da 63685F73 		.ascii	"ch_system_debug\000"
 2843      79737465 
 2843      6D5F6465 
 2843      62756700 
 2844              	.LASF128:
 2845 01ea 6D757465 		.ascii	"mutex_t\000"
 2845      785F7400 
 2846              	.LASF144:
 2847 01f2 76616C75 		.ascii	"value\000"
 2847      6500
 2848              	.LASF78:
 2849 01f8 6C6F636B 		.ascii	"lock_cnt\000"
 2849      5F636E74 
 2849      00
 2850              	.LASF86:
 2851 0201 69646C65 		.ascii	"idle_thread_wa\000"
 2851      5F746872 
 2851      6561645F 
 2851      776100
 2852              	.LASF26:
 2853 0210 636E745F 		.ascii	"cnt_t\000"
 2853      7400
 2854              	.LASF37:
 2855 0216 705F7374 		.ascii	"p_stklimit\000"
 2855      6B6C696D 
 2855      697400
 2856              	.LASF0:
 2857 0221 756E7369 		.ascii	"unsigned int\000"
 2857      676E6564 
 2857      20696E74 
 2857      00
 2858              	.LASF66:
 2859 022e 76745F6E 		.ascii	"vt_next\000"
 2859      65787400 
 2860              	.LASF117:
 2861 0236 77747365 		.ascii	"wtsemp\000"
 2861      6D7000
 2862              	.LASF42:
 2863 023d 705F6D73 		.ascii	"p_msgqueue\000"
 2863      67717565 
 2863      756500
 2864              	.LASF108:
 2865 0248 6E5F6972 		.ascii	"n_irq\000"
 2865      7100
 2866              	.LASF122:
 2867 024e 735F636E 		.ascii	"s_cnt\000"
 2867      7400
 2868              	.LASF6:
 2869 0254 73686F72 		.ascii	"short unsigned int\000"
 2869      7420756E 
 2869      7369676E 
 2869      65642069 
ARM GAS  /tmp/ccSwo4Z8.s 			page 87


 2869      6E7400
 2870              	.LASF112:
 2871 0267 6B65726E 		.ascii	"kernel_stats_t\000"
 2871      656C5F73 
 2871      74617473 
 2871      5F7400
 2872              	.LASF51:
 2873 0276 63685F74 		.ascii	"ch_thread\000"
 2873      68726561 
 2873      6400
 2874              	.LASF24:
 2875 0280 6D73675F 		.ascii	"msg_t\000"
 2875      7400
 2876              	.LASF105:
 2877 0286 6C617374 		.ascii	"last\000"
 2877      00
 2878              	.LASF142:
 2879 028b 2F686F6D 		.ascii	"/home/jerker/chibios/ChibiOS_16.1.4/testhal/STM32/S"
 2879      652F6A65 
 2879      726B6572 
 2879      2F636869 
 2879      62696F73 
 2880 02be 544D3332 		.ascii	"TM32F4xx/USB_CDC\000"
 2880      46347878 
 2880      2F555342 
 2880      5F434443 
 2880      00
 2881              	.LASF27:
 2882 02cf 75636E74 		.ascii	"ucnt_t\000"
 2882      5F7400
 2883              	.LASF80:
 2884 02d6 63685F73 		.ascii	"ch_system_t\000"
 2884      79737465 
 2884      6D5F7400 
 2885              	.LASF140:
 2886 02e2 474E5520 		.ascii	"GNU C 4.8.2 -mcpu=cortex-m4 -mno-thumb-interwork -m"
 2886      4320342E 
 2886      382E3220 
 2886      2D6D6370 
 2886      753D636F 
 2887 0315 7468756D 		.ascii	"thumb -ggdb -O0 -fomit-frame-pointer -falign-functi"
 2887      62202D67 
 2887      67646220 
 2887      2D4F3020 
 2887      2D666F6D 
 2888 0348 6F6E733D 		.ascii	"ons=16 -ffunction-sections -fdata-sections -fno-com"
 2888      3136202D 
 2888      6666756E 
 2888      6374696F 
 2888      6E2D7365 
 2889 037b 6D6F6E20 		.ascii	"mon -flto\000"
 2889      2D666C74 
 2889      6F00
 2890              	.LASF20:
 2891 0385 746D6F64 		.ascii	"tmode_t\000"
 2891      655F7400 
 2892              	.LASF111:
ARM GAS  /tmp/ccSwo4Z8.s 			page 88


 2893 038d 6D5F6372 		.ascii	"m_crit_isr\000"
 2893      69745F69 
 2893      737200
 2894              	.LASF56:
 2895 0398 63685F72 		.ascii	"ch_ready_list\000"
 2895      65616479 
 2895      5F6C6973 
 2895      7400
 2896              	.LASF25:
 2897 03a6 6576656E 		.ascii	"eventmask_t\000"
 2897      746D6173 
 2897      6B5F7400 
 2898              	.LASF7:
 2899 03b2 5F5F696E 		.ascii	"__int32_t\000"
 2899      7433325F 
 2899      7400
 2900              	.LASF89:
 2901 03bc 73746B61 		.ascii	"stkalign_t\000"
 2901      6C69676E 
 2901      5F7400
 2902              	.LASF41:
 2903 03c7 705F7761 		.ascii	"p_waiting\000"
 2903      6974696E 
 2903      6700
 2904              	.LASF87:
 2905 03d1 73697A65 		.ascii	"sizetype\000"
 2905      74797065 
 2905      00
 2906              	.LASF49:
 2907 03da 74687265 		.ascii	"thread_reference_t\000"
 2907      61645F72 
 2907      65666572 
 2907      656E6365 
 2907      5F7400
 2908              	.LASF72:
 2909 03ed 63685F76 		.ascii	"ch_virtual_timers_list\000"
 2909      69727475 
 2909      616C5F74 
 2909      696D6572 
 2909      735F6C69 
 2910              	.LASF98:
 2911 0404 74625F70 		.ascii	"tb_ptr\000"
 2911      747200
 2912              	.LASF96:
 2913 040b 63685F73 		.ascii	"ch_swc_event_t\000"
 2913      77635F65 
 2913      76656E74 
 2913      5F7400
 2914              	.LASF73:
 2915 041a 76745F6C 		.ascii	"vt_lasttime\000"
 2915      61737474 
 2915      696D6500 
 2916              	.LASF35:
 2917 0426 705F6F6C 		.ascii	"p_older\000"
 2917      64657200 
 2918              	.LASF59:
 2919 042e 725F6374 		.ascii	"r_ctx\000"
ARM GAS  /tmp/ccSwo4Z8.s 			page 89


 2919      7800
 2920              	.LASF102:
 2921 0434 746D5F63 		.ascii	"tm_calibration_t\000"
 2921      616C6962 
 2921      72617469 
 2921      6F6E5F74 
 2921      00
 2922              	.LASF62:
 2923 0445 725F6375 		.ascii	"r_current\000"
 2923      7272656E 
 2923      7400
 2924              	.LASF61:
 2925 044f 725F6F6C 		.ascii	"r_older\000"
 2925      64657200 
 2926              	.LASF12:
 2927 0457 5F5F7569 		.ascii	"__uint64_t\000"
 2927      6E743634 
 2927      5F7400
 2928              	.LASF106:
 2929 0462 63756D75 		.ascii	"cumulative\000"
 2929      6C617469 
 2929      766500
 2930              	.LASF146:
 2931 046d 5F5F6675 		.ascii	"__func__.5915\000"
 2931      6E635F5F 
 2931      2E353931 
 2931      3500
 2932              	.LASF141:
 2933 047b 2E2E2F2E 		.ascii	"../../../../os/rt/src/chmemcore.c\000"
 2933      2E2F2E2E 
 2933      2F2E2E2F 
 2933      6F732F72 
 2933      742F7372 
 2934              	.LASF99:
 2935 049d 74625F62 		.ascii	"tb_buffer\000"
 2935      75666665 
 2935      7200
 2936              	.LASF64:
 2937 04a7 76697274 		.ascii	"virtual_timer_t\000"
 2937      75616C5F 
 2937      74696D65 
 2937      725F7400 
 2938              	.LASF31:
 2939 04b7 705F7072 		.ascii	"p_prev\000"
 2939      657600
 2940              	.LASF23:
 2941 04be 74707269 		.ascii	"tprio_t\000"
 2941      6F5F7400 
 2942              	.LASF109:
 2943 04c6 6E5F6374 		.ascii	"n_ctxswc\000"
 2943      78737763 
 2943      00
 2944              	.LASF15:
 2945 04cf 696E7433 		.ascii	"int32_t\000"
 2945      325F7400 
 2946              	.LASF4:
 2947 04d7 756E7369 		.ascii	"unsigned char\000"
ARM GAS  /tmp/ccSwo4Z8.s 			page 90


 2947      676E6564 
 2947      20636861 
 2947      7200
 2948              	.LASF147:
 2949 04e5 5F636F72 		.ascii	"_core_init\000"
 2949      655F696E 
 2949      697400
 2950              	.LASF45:
 2951 04f0 705F6D74 		.ascii	"p_mtxlist\000"
 2951      786C6973 
 2951      7400
 2952              	.LASF5:
 2953 04fa 73686F72 		.ascii	"short int\000"
 2953      7420696E 
 2953      7400
 2954              	.LASF38:
 2955 0504 705F7374 		.ascii	"p_state\000"
 2955      61746500 
 2956              	.LASF133:
 2957 050c 5F5F6865 		.ascii	"__heap_end__\000"
 2957      61705F65 
 2957      6E645F5F 
 2957      00
 2958              	.LASF58:
 2959 0519 725F7072 		.ascii	"r_prio\000"
 2959      696F00
 2960              	.LASF119:
 2961 0520 65776D61 		.ascii	"ewmask\000"
 2961      736B00
 2962              	.LASF30:
 2963 0527 705F6E65 		.ascii	"p_next\000"
 2963      787400
 2964              	.LASF39:
 2965 052e 705F666C 		.ascii	"p_flags\000"
 2965      61677300 
 2966              	.LASF48:
 2967 0536 705F7374 		.ascii	"p_stats\000"
 2967      61747300 
 2968              	.LASF145:
 2969 053e 63685379 		.ascii	"chSysLock\000"
 2969      734C6F63 
 2969      6B00
 2970              	.LASF65:
 2971 0548 63685F76 		.ascii	"ch_virtual_timer\000"
 2971      69727475 
 2971      616C5F74 
 2971      696D6572 
 2971      00
 2972              	.LASF120:
 2973 0559 63685F73 		.ascii	"ch_semaphore\000"
 2973      656D6170 
 2973      686F7265 
 2973      00
 2974              	.LASF44:
 2975 0566 705F6570 		.ascii	"p_epending\000"
 2975      656E6469 
 2975      6E6700
ARM GAS  /tmp/ccSwo4Z8.s 			page 91


 2976              	.LASF16:
 2977 0571 75696E74 		.ascii	"uint32_t\000"
 2977      33325F74 
 2977      00
 2978              	.LASF118:
 2979 057a 77746D74 		.ascii	"wtmtxp\000"
 2979      787000
 2980              	.LASF57:
 2981 0581 725F7175 		.ascii	"r_queue\000"
 2981      65756500 
 2982              	.LASF68:
 2983 0589 76745F64 		.ascii	"vt_delta\000"
 2983      656C7461 
 2983      00
 2984              	.LASF52:
 2985 0592 63685F74 		.ascii	"ch_threads_list\000"
 2985      68726561 
 2985      64735F6C 
 2985      69737400 
 2986              	.LASF10:
 2987 05a2 6C6F6E67 		.ascii	"long unsigned int\000"
 2987      20756E73 
 2987      69676E65 
 2987      6420696E 
 2987      7400
 2988              	.LASF127:
 2989 05b4 63686172 		.ascii	"char\000"
 2989      00
 2990              	.LASF29:
 2991 05b9 74687265 		.ascii	"thread_t\000"
 2991      61645F74 
 2991      00
 2992              	.LASF103:
 2993 05c2 62657374 		.ascii	"best\000"
 2993      00
 2994              	.LASF137:
 2995 05c7 6E657874 		.ascii	"nextmem\000"
 2995      6D656D00 
 2996              	.LASF126:
 2997 05cf 6D5F6E65 		.ascii	"m_next\000"
 2997      787400
 2998              	.LASF28:
 2999 05d6 73797374 		.ascii	"systime_t\000"
 2999      696D655F 
 2999      7400
 3000              	.LASF46:
 3001 05e0 705F7265 		.ascii	"p_realprio\000"
 3001      616C7072 
 3001      696F00
 3002              	.LASF63:
 3003 05eb 76746675 		.ascii	"vtfunc_t\000"
 3003      6E635F74 
 3003      00
 3004              	.LASF9:
 3005 05f4 5F5F7569 		.ascii	"__uint32_t\000"
 3005      6E743332 
 3005      5F7400
ARM GAS  /tmp/ccSwo4Z8.s 			page 92


 3006              	.LASF143:
 3007 05ff 5F5F7365 		.ascii	"__set_BASEPRI\000"
 3007      745F4241 
 3007      53455052 
 3007      4900
 3008              	.LASF76:
 3009 060d 70616E69 		.ascii	"panic_msg\000"
 3009      635F6D73 
 3009      6700
 3010              	.LASF101:
 3011 0617 6F666673 		.ascii	"offset\000"
 3011      657400
 3012              	.LASF90:
 3013 061e 636F6E74 		.ascii	"context\000"
 3013      65787400 
 3014              	.LASF18:
 3015 0626 7274636E 		.ascii	"rtcnt_t\000"
 3015      745F7400 
 3016              	.LASF70:
 3017 062e 76745F70 		.ascii	"vt_par\000"
 3017      617200
 3018              	.LASF132:
 3019 0635 5F5F6865 		.ascii	"__heap_base__\000"
 3019      61705F62 
 3019      6173655F 
 3019      5F00
 3020              	.LASF53:
 3021 0643 74687265 		.ascii	"threads_queue_t\000"
 3021      6164735F 
 3021      71756575 
 3021      655F7400 
 3022              	.LASF123:
 3023 0653 63685F6D 		.ascii	"ch_mutex\000"
 3023      75746578 
 3023      00
 3024              	.LASF40:
 3025 065c 705F7265 		.ascii	"p_refs\000"
 3025      667300
 3026              	.LASF77:
 3027 0663 6973725F 		.ascii	"isr_cnt\000"
 3027      636E7400 
 3028              	.LASF82:
 3029 066b 726C6973 		.ascii	"rlist\000"
 3029      7400
 3030              	.LASF14:
 3031 0671 75696E74 		.ascii	"uint8_t\000"
 3031      385F7400 
 3032              	.LASF115:
 3033 0679 77746F62 		.ascii	"wtobjp\000"
 3033      6A7000
 3034              	.LASF36:
 3035 0680 705F6E61 		.ascii	"p_name\000"
 3035      6D6500
 3036              	.LASF136:
 3037 0687 73697A65 		.ascii	"size\000"
 3037      00
 3038              	.LASF50:
ARM GAS  /tmp/ccSwo4Z8.s 			page 93


 3039 068c 74687265 		.ascii	"threads_list_t\000"
 3039      6164735F 
 3039      6C697374 
 3039      5F7400
 3040              	.LASF79:
 3041 069b 74726163 		.ascii	"trace_buffer\000"
 3041      655F6275 
 3041      66666572 
 3041      00
 3042              	.LASF131:
 3043 06a8 63685379 		.ascii	"chSysUnlock\000"
 3043      73556E6C 
 3043      6F636B00 
 3044              	.LASF43:
 3045 06b4 705F6D73 		.ascii	"p_msg\000"
 3045      6700
 3046              	.LASF110:
 3047 06ba 6D5F6372 		.ascii	"m_crit_thd\000"
 3047      69745F74 
 3047      686400
 3048              	.LASF125:
 3049 06c5 6D5F6F77 		.ascii	"m_owner\000"
 3049      6E657200 
 3050              	.LASF94:
 3051 06cd 73655F77 		.ascii	"se_wtobjp\000"
 3051      746F626A 
 3051      7000
 3052              	.LASF33:
 3053 06d7 705F6374 		.ascii	"p_ctx\000"
 3053      7800
 3054              	.LASF69:
 3055 06dd 76745F66 		.ascii	"vt_func\000"
 3055      756E6300 
 3056              		.comm	__gnu_lto_v1,1,1
 3057              		.ident	"GCC: (4.8.2-14ubuntu1+6) 4.8.2"
ARM GAS  /tmp/ccSwo4Z8.s 			page 94


DEFINED SYMBOLS
                            *ABS*:0000000000000000 chmemcore.c
     /tmp/ccSwo4Z8.s:564    .text.port_lock:0000000000000000 $t
     /tmp/ccSwo4Z8.s:569    .text.port_lock:0000000000000000 port_lock
     /tmp/ccSwo4Z8.s:600    .text.port_unlock:0000000000000000 $t
     /tmp/ccSwo4Z8.s:605    .text.port_unlock:0000000000000000 port_unlock
     /tmp/ccSwo4Z8.s:634    .text.chSysLock:0000000000000000 $t
     /tmp/ccSwo4Z8.s:639    .text.chSysLock:0000000000000000 chSysLock
     /tmp/ccSwo4Z8.s:662    .text.chSysUnlock:0000000000000000 $t
     /tmp/ccSwo4Z8.s:667    .text.chSysUnlock:0000000000000000 chSysUnlock
     /tmp/ccSwo4Z8.s:898    .rodata.__func__.5915:0000000000000000 __func__.5915
     /tmp/ccSwo4Z8.s:712    .bss.nextmem:0000000000000000 $d
     /tmp/ccSwo4Z8.s:715    .bss.nextmem:0000000000000000 nextmem
     /tmp/ccSwo4Z8.s:718    .bss.endmem:0000000000000000 $d
     /tmp/ccSwo4Z8.s:721    .bss.endmem:0000000000000000 endmem
     /tmp/ccSwo4Z8.s:724    .text._core_init:0000000000000000 $t
     /tmp/ccSwo4Z8.s:730    .text._core_init:0000000000000000 _core_init
     /tmp/ccSwo4Z8.s:761    .text.chCoreAlloc:0000000000000000 $t
     /tmp/ccSwo4Z8.s:767    .text.chCoreAlloc:0000000000000000 chCoreAlloc
     /tmp/ccSwo4Z8.s:804    .text.chCoreAllocI:0000000000000000 chCoreAllocI
     /tmp/ccSwo4Z8.s:798    .text.chCoreAllocI:0000000000000000 $t
     /tmp/ccSwo4Z8.s:866    .text.chCoreGetStatusX:0000000000000000 $t
     /tmp/ccSwo4Z8.s:872    .text.chCoreGetStatusX:0000000000000000 chCoreGetStatusX
     /tmp/ccSwo4Z8.s:895    .rodata.__func__.5915:0000000000000000 $d
                            *COM*:0000000000000001 __gnu_lto_v1
                     .debug_frame:0000000000000010 $d

UNDEFINED SYMBOLS
_stats_start_measure_crit_thd
_dbg_check_lock
_dbg_check_unlock
_stats_stop_measure_crit_thd
ch
chSysHalt
__heap_base__
__heap_end__
chDbgCheckClassI
