ARM GAS  /tmp/ccZb7D2c.s 			page 1


   1              		.syntax unified
   2              		.cpu cortex-m4
   3              		.fpu softvfp
   4              		.eabi_attribute 20, 1
   5              		.eabi_attribute 21, 1
   6              		.eabi_attribute 23, 3
   7              		.eabi_attribute 24, 1
   8              		.eabi_attribute 25, 1
   9              		.eabi_attribute 26, 1
  10              		.eabi_attribute 30, 6
  11              		.eabi_attribute 34, 1
  12              		.eabi_attribute 18, 4
  13              		.thumb
  14              		.file	"chmtx.c"
  15              		.text
  16              	.Ltext0:
  17              		.section	.gnu.lto_.inline.b55526f9745bf699,"",%progbits
  18 0000 789C6362 		.ascii	"x\234cb`b\300\006\362\241\302B\014\014,\314\014\014"
  18      6062C006 
  18      F2A1C242 
  18      0C0C2CCC 
  18      0C0C
  19 0012 4C2C1FF4 		.ascii	"L,\037\364\030X j\0311D\230\030XY\200$\333\001;\230"
  19      1858206A 
  19      19314498 
  19      18585980 
  19      24DB013B 
  20 0027 08338608 		.ascii	"\0103\206\010\013\203\000?PDf\303+F\230\020+\003\007"
  20      0B83003F 
  20      504466C3 
  20      2B469810 
  20      2B0307
  21 003a 3B508867 		.ascii	";P\210gC.L\204\215\201\223\003(\302\327P\013\023ag`"
  21      432E4C84 
  21      8D819303 
  21      28C2D750 
  21      0B136167 
  22 004f 53008A30 		.ascii	"S\000\2120-\220\207[\317\205Bp0\010\232\000\025\210"
  22      2D90875B 
  22      CF854270 
  22      30089A00 
  22      1588
  23 0061 7C58CD88 		.ascii	"|X\315\210\242\202\211\033E\0317\003\273\004\2529\314"
  23      A282891B 
  23      45193703 
  23      BB04AA39 
  23      CC
  24 0072 3C30391E 		.ascii	"<09\036\006.i\240\034\307\004?\270\207\270a\004\037"
  24      062E69A0 
  24      1CC7043F 
  24      B887B861 
  24      041F
  25 0084 C33186B5 		.ascii	"\3031\206\265\214@\216\337\201M,\230\322`\002l\022\202"
  25      8C408EDF 
  25      814D2C98 
  25      D260026C 
  25      1282
ARM GAS  /tmp/ccZb7D2c.s 			page 2


  26 0096 858D40B8 		.ascii	"\205\215@\270F\200\201]\021\213\207\020\012\004\031"
  26      4680815D 
  26      118B8710 
  26      0A0419
  27 00a5 8494817C 		.ascii	"\204\224\201|\251\007\267\030Q\354\003K\0123p(a\321"
  27      A907B718 
  27      51EC034B 
  27      0A337028 
  27      61D1
  28 00b7 8DF08B08 		.ascii	"\215\360\213\010\203\355|\220s\275\036\\d\301\0141l"
  28      83ED7C90 
  28      73BD1E5C 
  28      64C10C31 
  28      6C
  29 00c8 8E44F30C 		.ascii	"\216D\363\014B\235\030\203u7\272QD\030\2000E\202A\361"
  29      429D1883 
  29      7537BA51 
  29      44188030 
  29      458241F1 
  30 00dc 1A484063 		.ascii	"\032H@c\302\011&\202n\001\2131\000\000HK!B"
  30      C2092682 
  30      6E018B31 
  30      0000484B 
  30      2142
  31              		.text
  32              		.section	.gnu.lto_port_lock.b55526f9745bf699,"",%progbits
  33 0000 789C6362 		.ascii	"x\234cb`b@\007\"@,\314\310\3000\001\304af`\004\252`"
  33      60624007 
  33      22402CCC 
  33      C8C03001 
  33      C4616660 
  34 0017 6462040A 		.ascii	"db\004\012002\32431\326G\202\230\014\214J\014\013\033"
  34      303032D4 
  34      3331D647 
  34      82980C8C 
  34      4A0C0B1B 
  35 002b 1A263D68 		.ascii	"\032&=h}\366\230if\303\201\226\005\015\177\376\377g"
  35      7DF69869 
  35      66C38196 
  35      050D7FFE 
  35      FF67
  36 003d 64CC6404 		.ascii	"d\314d\004\232h\316\310\220\314\310\020\001\3440*\200"
  36      9A68CEC8 
  36      90CCC810 
  36      01E4302A 
  36      80
  37 004e 29261654 		.ascii	")&\026T+\3263\035x\360\377\377\211\316\347{\201&3$2"
  37      2BD6331D 
  37      78F0FFFF 
  37      89CEE77B 
  37      81263324 
  38 0063 2E049A06 		.ascii	".\004\232\006\004\254\014-\015\015\023\024\030@\272"
  38      04AC0C2D 
  38      0D0D1314 
  38      1840BA
  39 0072 8120044C 		.ascii	"\201 \004L\206\202\034\300|\226\241i\007\220Ngd\004"
  39      86821CC0 
ARM GAS  /tmp/ccZb7D2c.s 			page 3


  39      7C96A169 
  39      07904E67 
  39      6404
  40 0084 99C70054 		.ascii	"\231\307\000T\303p\216\241\351\343\337\031\217%\340"
  40      C3708EA1 
  40      E9E3DF19 
  40      8F25E0
  41 0093 BAC08C86 		.ascii	"\272\300\214\206\003\335W\332YaF&2.fd\005\032\007q2"
  41      03DD57DA 
  41      59614626 
  41      322E6664 
  41      051A0771 
  42 00a8 10963283 		.ascii	"\020\2262\203|\314\014\361\266\034C\033\343\334\206"
  42      7CCC0CF1 
  42      B61C431B 
  42      E3DC86
  43 00b7 190E998C 		.ascii	"\031\016\231\214\314 n:X\031\\\256\023*\007u\373E\206"
  43      CC206E3A 
  43      58195CAE 
  43      132A0775 
  43      FB4586
  44 00ca C6073BF5 		.ascii	"\306\007;\365!\006\302@\010H\007H\271INf\222\276sFf"
  44      2106C240 
  44      08480748 
  44      B9494E66 
  44      92BE7346 
  45 00df 52A67F70 		.ascii	"R\246\177p\274\241\231\236\241\236\211\276~~\261~Q\211"
  45      BCA1999E 
  45      A19E89BE 
  45      7E7EB17E 
  45      5189
  46 00f1 7E417E51 		.ascii	"~A~QI\261\276c\220\257\263o\205~rFr~Qj|\231y\256^\006"
  46      49B1BE63 
  46      90AFB36F 
  46      857E7246 
  46      727E516A 
  47 010b 036B5962 		.ascii	"\003kYbNi\2529\016\255\251\025%\372\316\276\301\236"
  47      4E69AA39 
  47      0EADA915 
  47      25FACEBE 
  47      C19E
  48 011d C1FA9979 		.ascii	"\301\372\231y\3119\245)\251\372`\255\311\271n\245y\311"
  48      C939A529 
  48      A9FA60AD 
  48      C9B96EA5 
  48      79C9
  49 012f 40DD02BE 		.ascii	"@\335\002\276\301A\012I\211\305\251\005E\231:\012\252"
  49      C1410A49 
  49      89C5A905 
  49      45993A0A 
  49      AA
  50 0140 060C4C45 		.ascii	"\006\014LE\014\354\271\251\271\371E\225\014\000\027"
  50      0CECB9A9 
  50      B9F94595 
  50      0C0017
  51 014f 1D670F   		.ascii	"\035g\017"
  52              		.text
ARM GAS  /tmp/ccZb7D2c.s 			page 4


  53              		.section	.gnu.lto_port_unlock.b55526f9745bf699,"",%progbits
  54 0000 789C6362 		.ascii	"x\234cb`b@\007\"@,\314\310\3000\001\304af`\004\252`"
  54      60624007 
  54      22402CCC 
  54      C8C03001 
  54      C4616660 
  55 0017 6462040A 		.ascii	"db\004\012002\32431\326G\202\230\014\214J\014\013\033"
  55      303032D4 
  55      3331D647 
  55      82980C8C 
  55      4A0C0B1B 
  56 002b 1A263D68 		.ascii	"\032&=h\375\364\230if\303\201\226\005\015\177\376\377"
  56      FDF49869 
  56      66C38196 
  56      050D7FFE 
  56      FF
  57 003c 6764CC64 		.ascii	"gd\314d\004\232h\316\310\220\314\310\020\001\3440*\200"
  57      049A68CE 
  57      C890CCC8 
  57      1001E430 
  57      2A80
  58 004e 29261654 		.ascii	")&\026T+\3263\035x\360\377\377\213\316\375\373\200&"
  58      2BD6331D 
  58      78F0FFFF 
  58      8BCEFDFB 
  58      8026
  59 0060 3324322E 		.ascii	"3$2.\004\232\006\004\254\014-\015\015\023\024\030@\272"
  59      049A0604 
  59      AC0C2D0D 
  59      0D131418 
  59      40BA
  60 0072 8120044C 		.ascii	"\201 \004L\206\202\034\300|\226\241i\007\220Ngd\004"
  60      86821CC0 
  60      7C96A169 
  60      07904E67 
  60      6404
  61 0084 990736E4 		.ascii	"\231\0076\344\034C\323\307\2773\036K\300u\201\031\015"
  61      1C43D3C7 
  61      BF331E4B 
  61      C0758119 
  61      0D
  62 0095 074E3F6D 		.ascii	"\007N?mg\205\031\231\310\270\230\221\025h\034\304\311"
  62      67851999 
  62      C8B89891 
  62      15681CC4 
  62      C9
  63 00a6 4058CA0C 		.ascii	"@X\312\014\36213\304\333r\014m\214s\033f8d22\203\270"
  63      F23133C4 
  63      DB720C6D 
  63      8C731B66 
  63      38643232 
  64 00bc E9606570 		.ascii	"\351`ep\271N\250\034\324\355\027\031\032\037\234\327"
  64      B94EA81C 
  64      D4ED1719 
  64      1A1F9CD7 
  65 00cc 87180803 		.ascii	"\207\030\010\003! \035 \345&9\231I\372\316\031\231I"
  65      21201D20 
ARM GAS  /tmp/ccZb7D2c.s 			page 5


  65      E5263999 
  65      49FACE19 
  65      9949
  66 00de 99FEC1F1 		.ascii	"\231\376\301\361\206fz\206z&\372\372\371\305\372E%\372"
  66      86667A86 
  66      7A26FAFA 
  66      F9C5FA45 
  66      25FA
  67 00f0 05F94525 		.ascii	"\005\371E%\305\372\216A\276\316\276\025\372\311\031"
  67      C5FA8E41 
  67      BECEBE15 
  67      FAC919
  68 00ff C9F945A9 		.ascii	"\311\371E\251\361e\346\271z\031\014\254e\2119\245\251"
  68      F165E6B9 
  68      7A190CAC 
  68      658939A5 
  68      A9
  69 0110 E638B4A6 		.ascii	"\3468\264\246V\224\350;\373\006{\006\353g\346%\347\224"
  69      5694E83B 
  69      FB067B06 
  69      EB67E625 
  69      E794
  70 0122 A6A4EA83 		.ascii	"\246\244\352\203\265&\347\272\225\346%\003u\013\370"
  70      B526E7BA 
  70      95E62503 
  70      750BF8
  71 0131 06072924 		.ascii	"\006\007)$%\026\247\026\024e\352(\250\03200\0251\260"
  71      2516A716 
  71      1465EA28 
  71      A81A3030 
  71      1531B0
  72 0144 E7A6E6E6 		.ascii	"\347\246\346\346\027U2\000\000]Vg["
  72      17553200 
  72      005D5667 
  72      5B
  73              		.text
  74              		.section	.gnu.lto_queue_init.b55526f9745bf699,"",%progbits
  75 0000 789C6362 		.ascii	"x\234cb`b@\007\"@|\032\210uA\034f\006F\240\012F&FF "
  75      60624007 
  75      22407C1A 
  75      8875411C 
  75      660646A0 
  76 001a 8791A19E 		.ascii	"\207\221\241\236\211\261>\222\021\254l=\323\201\007"
  76      89B13E92 
  76      11AC6C3D 
  76      D38107
  77 0029 FFFFAFFB 		.ascii	"\377\377\257\373\362\354\3051\306}\233Y\200*r\301\022"
  77      F2ECC531 
  77      C67D9B59 
  77      802A72C1 
  77      12
  78 003a AC0C2D0D 		.ascii	"\254\014-\015\015\023\024\030\030\222\301\334\0200\031"
  78      0D131418 
  78      1892C1DC 
  78      103019
  79 0049 0A3285F9 		.ascii	"\0122\205\371,C\323\351\031\357{\344\023\031\0272\262"
  79      2C43D3E9 
ARM GAS  /tmp/ccZb7D2c.s 			page 6


  79      19EF7BE4 
  79      13191732 
  79      B2
  80 005a 326833AC 		.ascii	"2h3\254j\000\002\336LF\206\331\014\263\0303\031\031"
  80      6A0002DE 
  80      4C4686D9 
  80      0CB31833 
  80      1919
  81 006c D3191923 		.ascii	"\323\031\031#\2004\304II\020k\030\322AV\203t\356 ^'"
  81      8034C449 
  81      49106B18 
  81      D2415683 
  81      74EE205E 
  82 0081 2342E745 		.ascii	"#B\347E\206\306\007@\347A4\302@\010H\006\244X;'3I\337"
  82      86C60740 
  82      E74134C2 
  82      40084806 
  82      A4583B27 
  83 0098 39233329 		.ascii	"9#3)\323?8\336\320L\317P\317D_?\277X\277\250D?3/9\247"
  83      D33F38DE 
  83      D04CCF50 
  83      CF445F3F 
  83      BF58BFA8 
  84 00b2 3425553F 		.ascii	"4%U?9\24389#E/\203\001\000*v<\006"
  84      39A33839 
  84      23452F83 
  84      01002A76 
  84      3C06
  85              		.text
  86              		.section	.gnu.lto_queue_notempty.b55526f9745bf699,"",%progbits
  87 0000 789C6362 		.ascii	"x\234cb`b@\007\322@\254\313\010\304 \016\013\003#P\005"
  87      60624007 
  87      D240ACCB 
  87      08C4200E 
  87      0B032350 
  88 0015 23132333 		.ascii	"#\023#3\220df\004\012302\324313\326G\202\330\014LJ\014"
  88      90646604 
  88      0A333032 
  88      D4333133 
  88      D64782D8 
  89 002d 0B1B1A66 		.ascii	"\013\033\032f=x\372\273\207y\372\224\003\215\013\032"
  89      3D78FABB 
  89      8779FA94 
  89      038D0B1A 
  90 003d FEFCFFCF 		.ascii	"\376\374\377\317\310\230\011\222Lfd\210\000\262\030"
  90      C8980992 
  90      4C666488 
  90      00B218
  91 004c 39C01413 		.ascii	"9\300\024\023#\2525`\215\223\032n>\0118\321\320r\340"
  91      23AA3560 
  91      8D931A6E 
  91      3E0938D1 
  91      D072E0
  92 005f FF7FFB4C 		.ascii	"\377\177\373L\220\0350=\012\020=,\250z\3263\035x\360"
  92      901D303D 
  92      0A103D2C 
  92      A87AD633 
ARM GAS  /tmp/ccZb7D2c.s 			page 7


  92      1D78F0
  93 0072 FFFF9DBD 		.ascii	"\377\377\235\275\307\366\3670\316Wfad\314e\004z\000"
  93      C7F6F730 
  93      CE576661 
  93      64CC6504 
  93      7A00
  94 0084 A8919901 		.ascii	"\250\221\231\001l#\003+CKC\303\004\005\2609@\020\002"
  94      6C23032B 
  94      434B43C3 
  94      0405B039 
  94      401002
  95 0097 2643415E 		.ascii	"&CA^`>\313\320t\353\307\357\036\235D\306\305\214\254"
  95      603ECBD0 
  95      74EBC7EF 
  95      1E9D44C6 
  95      C58CAC
  96 00aa 0CE98C4C 		.ascii	"\014\351\214L\332\014\253\032\0042\031Yf3\314\002Z\305"
  96      DA0CAB1A 
  96      04321959 
  96      6633CC02 
  96      5AC5
  97 00bc 9ACEC808 		.ascii	"\232\316\310\010\262\222\015lQ\022\334\261g\031\232"
  97      B2920D6C 
  97      5112DCB1 
  97      67199A
  98 00cb 6F34F3C1 		.ascii	"o4\363\30141\003\365\2453B%CA\016f>\315\320\310\301"
  98      343103F5 
  98      A5334225 
  98      43410E66 
  98      3ECDD0C8 
  99 00e0 C0900212 		.ascii	"\300\220\002\022\274\310\300\010W\010Q\022\002\022\006"
  99      BCC8C008 
  99      57085112 
  99      021206
 100 00ef 05B1764E 		.ascii	"\005\261vNf\222\276sFfR\246\177p\274\241\231\236\241"
 100      6692BE73 
 100      466652A6 
 100      7F70BCA1 
 100      999EA1
 101 0102 9E89BE7E 		.ascii	"\236\211\276~~\261~Q\211~f^rNiJ\252~rFqrF\212^\006\003"
 101      7EB17E51 
 101      897E665E 
 101      724E694A 
 101      AA7E7246 
 102 011d 00B4084D 		.ascii	"\000\264\010MG"
 102      47
 103              		.text
 104              		.section	.gnu.lto_queue_prio_insert.b55526f9745bf699,"",%progbits
 105 0000 789C8D92 		.ascii	"x\234\215\222\317K\033A\024\307\337\233\231\335$\325"
 105      CF4B1B41 
 105      14C7DF9B 
 105      99DD24D5 
 106 0010 168FEDA1 		.ascii	"\026\217\355\241E<\032\310*\324B\351\241\207\376\001"
 106      453C1AC8 
 106      2AD442E9 
 106      A187FE01 
 107 0020 2DD480F6 		.ascii	"-\324\200\366R\314Z\222\005\265\245\352\331QR\017\302"
ARM GAS  /tmp/ccZb7D2c.s 			page 8


 107      52CC5A92 
 107      05B5A5EA 
 107      D951520F 
 107      C2
 108 0031 42283D98 		.ascii	"B(=\230\366b\017%eK\361T\020\332C\274\024E\204H\020"
 108      F6620F25 
 108      654BF154 
 108      10DA43BC 
 108      14458448 
 109 0046 DBD2432E 		.ascii	"\333\322C.\242\004/\336z\220n\337\354\217d\215\213\315"
 109      A2042FDE 
 109      7A906EDF 
 109      EC8F648D 
 109      8BCD
 110 0058 839D9DD9 		.ascii	"\203\235\235\3317\237\367}\337\231e\300\2403F\350\351"
 110      379FF77D 
 110      DF9965C0 
 110      A03346E8 
 110      E9
 111 0069 1300436A 		.ascii	"\023\000Cj\241\003\322\016d\310i\344\214>K\246\321 "
 111      A103D20E 
 111      64C869E4 
 111      8C3E4BA6 
 111      D120
 112 007b 04E3ADB9 		.ascii	"\004\343\255\271\206H[\021\026\030\247\371\302\270Z"
 112      86485B11 
 112      1618A7F9 
 112      C2B85A
 113 008a 813600EF 		.ascii	"\2016\000\357\245|\335x\345\330O\312o\252\3055y\346"
 113      A57CDD78 
 113      E5D84FCA 
 113      6FAAC535 
 113      79E6
 114 009c BA88964A 		.ascii	"\272\210\226J\232\010c4\303~\357\245\252F\303\007\345"
 114      9A086334 
 114      C37EEFA5 
 114      AA46C307 
 114      E5
 115 00ad E9E1A32D 		.ascii	"\351\341\243-Y\254\272\356\375\256\231\352~\263\306"
 115      59ACBAEE 
 115      FDAE99EA 
 115      7EB3C6
 116 00bc CE89F12E 		.ascii	"\316\211\361.\301\203\346\307\033+kK%\371\227\270\356"
 116      C183E6C7 
 116      1B2B6B4B 
 116      25F997B8 
 116      EE
 117 00cd B1AFCD63 		.ascii	"\261\257\315c,\313\250\036\203\014\376\207]g\325\206"
 117      2CCBA81E 
 117      830CFE87 
 117      5D67D586 
 118 00dd EB7EAB2F 		.ascii	"\353~\253/\357n\342\347/\342\012\302\004~\300\001`8"
 118      EF6EE2E7 
 118      2FE20AC2 
 118      047EC001 
 118      6038
 119 00ef 8DC08385 		.ascii	"\215\300\203\205\010\336\032\220{\2352\230P\263$\015"
ARM GAS  /tmp/ccZb7D2c.s 			page 9


 119      08DE1A90 
 119      7B9D3298 
 119      50B3240D 
 120 00ff 3C055E87 		.ascii	"<\005^\207\224+JY\352\3677z\035S\214zcV]\033\337\205"
 120      942B4A59 
 120      EAF7377A 
 120      1D538C7A 
 120      63565D1B 
 121 0115 A59D8D8A 		.ascii	"\245\235\215\212}s\002+\250A\036y\036\203\373\316\252"
 121      7D73022B 
 121      A8411E79 
 121      1E83FBCE 
 121      AA
 122 0126 022AFFEB 		.ascii	"\002*\377\353O\305\276\036\346E\032\034Iq\227\352\277"
 122      4FC5BE1E 
 122      E6451A1C 
 122      497197EA 
 122      BF
 123 0137 83B7D4BB 		.ascii	"\203\267\324\273\310#\216\371\007B\221\303\320\303\026"
 123      C8238EF9 
 123      074291C3 
 123      D0C316
 124 0146 144F36F7 		.ascii	"\024O6\367\232m\262U\031\340' I\261\337\365\357\327"
 124      9A6DB255 
 124      19E02720 
 124      49B1DFF5 
 124      EFD7
 125 0158 2821CEEA 		.ascii	"(!\316\352\313\275JP\004\202\253\364C\204\230\226\206"
 125      CBBD4A50 
 125      0482ABF4 
 125      43849896 
 125      86
 126 0169 410BB596 		.ascii	"A\013\265\226\226\210j\205b\012*\335\012\221D\007\242"
 126      96886A85 
 126      620A2ADD 
 126      0A914407 
 126      A2
 127 017a C721D4DE 		.ascii	"\307!\324\336\321b\031[2\204\265\317?K\337\274V\266"
 127      D162195B 
 127      3284B5CF 
 127      3F4BDFBC 
 127      56B6
 128 018c 371C3BA8 		.ascii	"7\034;\250\033\030\357\211\032\327/\032\317+\027\252"
 128      1B18EF89 
 128      1AD72F1A 
 128      CF2B17AA 
 129 019c 9F1F8E3D 		.ascii	"\237\037\216=\030VOz\035\361x\023\254mb\273\226\350"
 129      18564F7A 
 129      1DF17813 
 129      AC6D62BB 
 129      96E8
 130 01ae 528C0562 		.ascii	"R\214\005bI_\354\330\271\032j\245:\264b0\217\331\251"
 130      495FECD8 
 130      B91A6AA5 
 130      3AB46230 
 130      8FD9A9
 131 01c1 F59CD3BA 		.ascii	"\365\234\323\272\027\205Rq\306t\237[\375t\331\221\304"
ARM GAS  /tmp/ccZb7D2c.s 			page 10


 131      17855271 
 131      C6749F5B 
 131      FD74D991 
 131      C4
 132 01d2 58F3C83D 		.ascii	"X\363\310=Xl\320\257\354\203a\214\252\353P\233\322S"
 132      586CD0AF 
 132      EC83618C 
 132      AAEB509B 
 132      D253
 133 01e4 56CE7850 		.ascii	"V\316xP\260r\326\303\307O\207\357d\2063\267\015\343"
 133      B072D6C3 
 133      C74F87EF 
 133      648633B7 
 133      0DE3
 134 01f6 F9ACF172 		.ascii	"\371\254\361r\316\260f\314\251\371\311g\206Y\2305\013"
 134      CEB066CC 
 134      A9F9C967 
 134      86599835 
 134      0B
 135 0207 93990230 		.ascii	"\223\231\0020\363\305?8\327\353\374"
 135      F3C53F38 
 135      D7EBFC
 136              		.text
 137              		.section	.gnu.lto_queue_fifo_remove.b55526f9745bf699,"",%progbits
 138 0000 789C6362 		.ascii	"x\234cb`b@\007\322@<\011(l\000\342\26000\002\231\214"
 138      60624007 
 138      D2403C09 
 138      286C00E2 
 138      B0303002 
 139 0016 4C8CCC40 		.ascii	"L\214\314@\222\231\221\021(\304\310P\317\304\314X\037"
 139      92999111 
 139      28C4C850 
 139      CFC4CC58 
 139      1F
 140 0027 C9089657 		.ascii	"\311\010\226WbX\330\3200\351\301\321M\275\3323\247\034"
 140      6258D8D0 
 140      30E9C1D1 
 140      4DBDDA33 
 140      A71C
 141 0039 6859D0F0 		.ascii	"hY\320\360\347\377\177F\306L\220d2#C\004\220\305\250"
 141      E7FF7F46 
 141      C64C9064 
 141      32234304 
 141      90C5A8
 142 004c 00A69858 		.ascii	"\000\246\230XP\255\201h<0\375\365\006\311\256\005M\023"
 142      50AD8168 
 142      3C30FDF5 
 142      06C9AE05 
 142      4D13
 143 005e 1AFE01F5 		.ascii	"\032\376\001\365\021\253m\326\201\331\257g\220\256m"
 143      11AB6DD6 
 143      81D9AF67 
 143      90AE6D
 144 006d D28189AF 		.ascii	"\322\201\211\257_0\316l@v&\023\203\036#\001\275\353"
 144      5F30CE6C 
 144      40762613 
 144      831E2301 
ARM GAS  /tmp/ccZb7D2c.s 			page 11


 144      BDEB
 145 007f 990E3CF8 		.ascii	"\231\016<\370\377\377\317\365cG\0162\236\333\312\302"
 145      FFFFCFF5 
 145      63470E32 
 145      9EDBCAC2 
 146 008f C6C8980B 		.ascii	"\306\310\230\013\322\227\310\270\204Q\211\201\231\001"
 146      D297C8B8 
 146      84518981 
 146      9901
 147 009d 68080B88 		.ascii	"h\010\013\210`e\000\273\003H\26744LP\200H\203\335\005"
 147      606500BB 
 147      0348B734 
 147      344C5080 
 147      4883DD05 
 148 00b1 04216032 		.ascii	"\004!`2\024\024\230\314g\031\232n\315\330\324+\233\310"
 148      141498CC 
 148      67199A6E 
 148      CDD8D42B 
 148      9BC8
 149 00c3 B88C9195 		.ascii	"\270\214\221\225!\235\221I\233aU\003\020D\003\365\317"
 149      219D9149 
 149      9B615503 
 149      104403F5 
 149      CF
 150 00d4 66980574 		.ascii	"f\230\005t\001s:##\310%\020\207$1\302\\\002\322y\003"
 150      01733A23 
 150      23C82510 
 150      872431C2 
 150      5C02D279 
 151 00e9 18D2309D 		.ascii	"\030\3220\235\314\332\014ZpM\254@\223\" a\001\326\304"
 151      CCDA0C5A 
 151      704DAC40 
 151      93222061 
 151      01D6C4
 152 00fc 88D074F2 		.ascii	"\210\320t\362\003;D\013\324&^\0026\245\203\242\033d"
 152      033B440B 
 152      D4265E02 
 152      36A583A2 
 152      1B64
 153 010e D98B4DBC 		.ascii	"\331\213M\2740\273X\220\355\302\343\300\323\037\270"
 153      30BB5890 
 153      EDC2E3C0 
 153      D31FB8
 154 011d 51ECB245 		.ascii	"Q\354\262Ev \013\262\003\231\240v1B\334\270cs/3\314"
 154      76200BB2 
 154      0399A076 
 154      3142DCB8 
 154      63732F33 
 155 0132 32905F20 		.ascii	"2\220_ \312BANa>\315\320\310\301\300\220\002Rz\221\201"
 155      CA42414E 
 155      613ECDD0 
 155      C8C1C090 
 155      02527A91 
 156 0147 11AE0AA2 		.ascii	"\021\256\012\242$\004$\014R\256\235\223\231\244\357"
 156      2404240C 
 156      52AE9D93 
 156      99A4EF
ARM GAS  /tmp/ccZb7D2c.s 			page 12


 157 0156 9C919994 		.ascii	"\234\221\231\224\351\037\034oh\246g\250g\242\257\237"
 157      E91F1C6F 
 157      68A667A8 
 157      67A2AF9F 
 158 0166 5FAC5F54 		.ascii	"_\254_T\242\237\231\227\234S\232\222\252\237\234Q\234"
 158      A29F9997 
 158      9C539A92 
 158      AA9F9C51 
 158      9C
 159 0177 9C91A297 		.ascii	"\234\221\242\227\301\300TR\000\000p\251\233l"
 159      C1C05452 
 159      000070A9 
 159      9B6C
 160              		.text
 161              		.section	.gnu.lto_queue_dequeue.b55526f9745bf699,"",%progbits
 162 0000 789C6362 		.ascii	"x\234cb`b@\007\322@\374\014(\254\013\342\26000\002\231"
 162      60624007 
 162      D240FC0C 
 162      28AC0BE2 
 162      B0303002 
 163 0015 8C4C8CCC 		.ascii	"\214L\214\314@\222\231\221\021(\304\310P\317\304\314"
 163      40929991 
 163      1128C4C8 
 163      50CFC4CC 
 164 0025 581F0962 		.ascii	"X\037\011b3\260*1,lh\230\364\340\351\256^\326\231S\016"
 164      33B02A31 
 164      2C6C6898 
 164      F4E0E9AE 
 164      5ED69953 
 165 003a B42C68F8 		.ascii	"\264,h\370\363\377?#c&H2\231\221!\002\310bT\000SL,\250"
 165      F3FF3F23 
 165      63264832 
 165      99912102 
 165      C8625400 
 166 0052 D6403436 		.ascii	"\326@46|}\022p\242\241\345\300\377\377\366D\3539p\363"
 166      7C7D1270 
 166      A2A1E5C0 
 166      FFFFF644 
 166      EB3970F3 
 167 0066 F50AC9AE 		.ascii	"\365\012\311\256\005M\023\032\376\001\355\242\245U\263"
 167      054D131A 
 167      FE01EDA2 
 167      A555B3
 168 0075 0EDC7D3D 		.ascii	"\016\334}=\203$\253\3263\035x\360\377\377\234\273\307"
 168      8324ABD6 
 168      331D78F0 
 168      FFFF9CBB 
 168      C7
 169 0086 B6FD615C 		.ascii	"\266\375a\\\247\314\316\310\230\313\010\014b\240Ff\020"
 169      A7CCCEC8 
 169      98CB080C 
 169      62A04666 
 169      10
 170 0097 C1022258 		.ascii	"\301\002\"XA\004\033C&$\374\030Z\032\032&(\200\215\005"
 170      41041B43 
 170      2624FC18 
 170      5A1A1A26 
ARM GAS  /tmp/ccZb7D2c.s 			page 13


 170      28808D05 
 171 00ab 82103019 		.ascii	"\202\0200\031\012\012s\346\263\014M\267~\000\2035\221"
 171      0A0A73E6 
 171      B30C4DB7 
 171      7E008335 
 171      91
 172 00bc 7119232B 		.ascii	"q\031#+C:#\2236\203\026P\323l\206Y@{\231\323\031\031"
 172      433A2393 
 172      36831650 
 172      D36C8659 
 172      407B99D3 
 173 00d2 23200E02 		.ascii	"# \016\002\202$F\230\375 M\027\370`Z\230\361iaDh9y\201"
 173      82244698 
 173      FD204D17 
 173      F8605A98 
 173      F1696144 
 174 00ea 1BA2459B 		.ascii	"\033\242E\233aU\003\020X#kb\302\324\224\016J\016 \253"
 174      61550310 
 174      58236B62 
 174      C2D4940E 
 174      4A0E20AB 
 175 00fe 66EC46B8 		.ascii	"f\354F\270\217\205H\313\220\334\307J\244\227\360\272"
 175      8F8548CB 
 175      90DCC74A 
 175      A497F0BA 
 176 010e 8F055313 		.ascii	"\217\005S\023\320d\260\276\3237v\3672\303,cK\207\271"
 176      D064B0BE 
 176      D33776F7 
 176      32C32C63 
 176      4B87B9
 177 0121 2214E47C 		.ascii	"\"\024\344|\346\323\014\215\034\014\014) \301\213\014"
 177      E6D30C8D 
 177      1C0C0C29 
 177      20C18B0C 
 178 0131 8C705510 		.ascii	"\214pU\020%! aP\336\320\316\311L\322w\316\310L\312\364"
 178      25212061 
 178      50DED0CE 
 178      C94CD277 
 178      CEC84CCA 
 179 0146 0F8E3734 		.ascii	"\017\21674\3233\3243\321\327\317/\326/*\321\317\314"
 179      D333D433 
 179      D1D7CF2F 
 179      D62F2AD1 
 179      CFCC
 180 0158 4BCE294D 		.ascii	"K\316)MI\325O\316(N\316H\321\313`\000\000*_\247\260"
 180      49D54FCE 
 180      284ECE48 
 180      D1CB6000 
 180      002A5FA7 
 181              		.text
 182              		.section	.gnu.lto_chSysLock.b55526f9745bf699,"",%progbits
 183 0000 789C6362 		.ascii	"x\234cb`b@\007\"@|\010\210u@\034f\006F\240\012F&FF "
 183      60624007 
 183      22407C08 
 183      8875401C 
 183      660646A0 
 184 001a 8791A19E 		.ascii	"\207\221\241\236\211\261>\222\021\254l=\323\201\007"
ARM GAS  /tmp/ccZb7D2c.s 			page 14


 184      89B13E92 
 184      11AC6C3D 
 184      D38107
 185 0029 FFFFAFFB 		.ascii	"\377\377\257\3732m\331\037\306\333L 1V\206\226\206\206"
 185      326DD91F 
 185      C6DB4C20 
 185      31568696 
 185      8686
 186 003b 090A0C0C 		.ascii	"\011\012\014\014\311`\025!`2\024\244\237\371<C\363\203"
 186      C9601521 
 186      603214A4 
 186      9FF93C43 
 186      F383
 187 004d 3DDDEC89 		.ascii	"=\335\354\211\214\013\031Y\201\202\325\014\277\032:"
 187      8C0B1959 
 187      8182D50C 
 187      BF1A3A
 188 005c 1A043219 		.ascii	"\032\0042\031\201J!\246e\202h\220\252\275\335B\330T"
 188      814A21A6 
 188      65826890 
 188      AABDDD42 
 188      D854
 189 006e 31A1AADA 		.ascii	"1\241\252\332w\232\013\233*f\204\252\213\014\215\017"
 189      779A0B9B 
 189      2A6684AA 
 189      8B0C8D0F 
 190 007e F66BC314 		.ascii	"\366k\303\024A@\010H\002d\222VNf\222\276sFfR\246\177"
 190      41400848 
 190      02649256 
 190      4E6692BE 
 190      73466652 
 191 0094 70BCA199 		.ascii	"p\274\241\231\236\241\236\211\276~~\261~Q\211~f^rNi"
 191      9EA19E89 
 191      BE7E7EB1 
 191      7E51897E 
 191      665E724E 
 192 00a9 4AAA7E72 		.ascii	"J\252~rFqe\261^\006\003\000\204\275;\363"
 192      467165B1 
 192      5E060300 
 192      84BD3BF3 
 193              		.text
 194              		.section	.gnu.lto_chSysUnlock.b55526f9745bf699,"",%progbits
 195 0000 789CCD92 		.ascii	"x\234\315\222\275/DA\020\300gv\367\275s\276\033\011"
 195      BD2F4441 
 195      10C06776 
 195      F7BD73BE 
 195      1B09
 196 0012 2A513AB9 		.ascii	"*Q:\271\027\211\250t\376\000\005\0224\342\036q\233\334"
 196      1789A874 
 196      FE000512 
 196      34E21E71 
 196      9BDC
 197 0024 91380A51 		.ascii	"\2218\012Q\330;W\010\215(ihD'\321\351\024\012\211\210"
 197      D83B5708 
 197      8D286968 
 197      4427D1E9 
 197      140A8988 
ARM GAS  /tmp/ccZb7D2c.s 			page 15


 198 0038 E8505D24 		.ascii	"\350P]$*\327\023\021\317\354\276\367\316s\256!\012\223"
 198      2AD71311 
 198      CFECBEF7 
 198      CE73AE21 
 198      0A93
 199 004a BC99DD7D 		.ascii	"\274\231\335}3\277\231\335\031\006\014\252e\220>[\000"
 199      33BF99DD 
 199      19060CAA 
 199      65903E5B 
 199      00
 200 005b F4EA4D0C 		.ascii	"\364\352M\014\220<\220!'\315\031\035+f\223\022\202Y"
 200      903C9021 
 200      27CD191D 
 200      2B669312 
 200      8259
 201 006d 95B58564 		.ascii	"\225\265\205d\320F\244\000\2045\306\205e\343\332\204"
 201      D046A400 
 201      8435C685 
 201      65E3DA84 
 202 007d DE82DD0D 		.ascii	"\336\202\335\015\007J\355\224\036\237w;6\367\013\333"
 202      074AED94 
 202      1E9F773B 
 202      36F70BDB 
 203 008d EADDF350 		.ascii	"\352\335\363P\352_.\3028\255\260\313\030\215\216\212"
 203      EA5F2EC2 
 203      38ADB0CB 
 203      188D8E8A 
 204 009d 1FA64E8E 		.ascii	"\037\246N\216T|_\275y\036\377]\014\377/y\262\010\307"
 204      547C5FBD 
 204      791EFF5D 
 204      0CFF2F79 
 204      B208C7
 205 00b0 ECACE479 		.ascii	"\354\254\344y\345\323\323\2072\266\331\010\224\211i"
 205      E5D3D387 
 205      32B6D908 
 205      948969
 206 00bf C54971A1 		.ascii	"\305Iq\241W\026\030\022\331\242R\333]\331\240\024\222"
 206      57161812 
 206      D9A252DB 
 206      5DD9A014 
 206      92
 207 00d0 51A3C774 		.ascii	"Q\243\307t3\3705\254\227n\267\032\246\361\020\251\007"
 207      33F835AC 
 207      976EB71A 
 207      A6F110A9 
 207      07
 208 00e1 B00AAF6A 		.ascii	"\260\012\257jC\265J\024\256\351\000\020\204\316\265"
 208      43B54A14 
 208      AEE90010 
 208      84CEB5
 209 00f0 D7DD534B 		.ascii	"\327\335SK-/\366\351\345S)'\277\202\302\375\313s\247"
 209      2D2FF6E9 
 209      E5532927 
 209      BF82C2FD 
 209      CB73A7
 210 0103 EF3F8798 		.ascii	"\357?\207\230\200\036\252\310h\333\350\330\036\354\346"
 210      801EAAC8 
ARM GAS  /tmp/ccZb7D2c.s 			page 16


 210      68DBE8D8 
 210      1EECE6
 211 0112 9546D455 		.ascii	"\225F\324U`\361\254I\251/\0347\254\224_\001Y\014l8`"
 211      60F1AC49 
 211      A92F1C37 
 211      AC945F01 
 211      590C6C38 
 212 0127 17502C63 		.ascii	"\027P,c\205\256\011u\022\353\243|bU\207\177\2211\024"
 212      85AE0975 
 212      12EBA37C 
 212      6255877F 
 212      913114
 213 013a 7E9D9321 		.ascii	"~\235\223!\206E\212\374ay<\200Fq\334\200\032\010D\001"
 213      86458AFC 
 213      61793C80 
 213      4671DC80 
 213      1A084401 
 214 014e 8D841FF7 		.ascii	"\215\204\037\367'\325\004\210\032\001\342\257\037)\012"
 214      27D50488 
 214      1A01E2AF 
 214      1F290A
 215 015d B7AAAA11 		.ascii	"\267\252\252\021\265\252\271\200\363\307\312\253\362"
 215      B5AAB980 
 215      F3C7CAAB 
 215      F2
 216 016a B9B0A5FE 		.ascii	"\271\260\245\376sYfX\304\267\021hr\203\353\353\223v"
 216      73596658 
 216      C4B71168 
 216      7283EBEB 
 216      9376
 217 017c 89CD3468 		.ascii	"\211\3154h\201\223\304\2260\332\016F\355\3512Vk\210"
 217      8193C496 
 217      30DA0E46 
 217      EDE93256 
 217      6B88
 218 018e C4E710DD 		.ascii	"\304\347\020\335@\276TN\204N\276\214\352\273\351k\365"
 218      40BE544E 
 218      844EBE8C 
 218      EABBE96B 
 218      F5
 219 019f 6464CA19 		.ascii	"dd\312\031J\313\224\034\036\231\352\033H\366%\373\035"
 219      4ACB941C 
 219      1E99EA1B 
 219      48F625FB 
 219      1D
 220 01b0 6721E72C 		.ascii	"g!\347,.9r\336\315,\317\314:n:\267\222K\246\341\003"
 220      2E3972DE 
 220      CD2CCFCC 
 220      3A6E3AB7 
 220      924BA6E1 
 221 01c5 7DC6D102 		.ascii	"}\306\321\002"
 222              		.text
 223              		.section	.gnu.lto_chMtxQueueNotEmptyS.b55526f9745bf699,"",%progbits
 224 0000 789C6362 		.ascii	"x\234cb`b@\007\322@\234\313\310\300\240\003\342\260"
 224      60624007 
 224      D2409CCB 
 224      C8C0A003 
ARM GAS  /tmp/ccZb7D2c.s 			page 17


 224      E2B0
 225 0012 30300255 		.ascii	"00\002U0212\003IfF\2400\003#C=\0233c}$\210\315\300\244"
 225      30323132 
 225      03496646 
 225      A0300323 
 225      433D1333 
 226 002d C4B0B0A1 		.ascii	"\304\260\260\241a\326\203\245\213g\212w=h\230\320\360"
 226      61D683A5 
 226      8B678A77 
 226      3D6898D0 
 226      F0
 227 003e EFFF7FC6 		.ascii	"\357\377\177\306L\220T2#C\004\220\305\310\001\246\230"
 227      4C905432 
 227      23430490 
 227      C5C801A6 
 227      98
 228 004f 18512D01 		.ascii	"\030Q-\001k\233\324\360\361I\300\211\206\226\003\377"
 228      6B9BD4F0 
 228      F149C089 
 228      869603FF 
 229 005f FFDB6782 		.ascii	"\377\333g\202l\200\351Q\200\350aA\325\263\236\351\300"
 229      6C80E951 
 229      80E86141 
 229      D5B39EE9 
 229      C0
 230 0070 83FFFFE7 		.ascii	"\203\377\377\347\\\334\362\270\217Q\210\205\221\021"
 230      5CDCF2B8 
 230      8F518885 
 230      9111
 231 007e E8482606 		.ascii	"\350H&\006\240>f\006\260\205\014\254\014-\015\015\023"
 231      A03E6606 
 231      B0850CAC 
 231      0C2D0D0D 
 231      13
 232 008f 14C0C600 		.ascii	"\024\300\306\000A\010\230\014\005\271\237\371<C\363"
 232      4108980C 
 232      05B99FF9 
 232      3C43F3
 233 009e 83EEA75C 		.ascii	"\203\356\247\\\211\214\213\031Y\201\202\325\014\277"
 233      898C8B19 
 233      598182D5 
 233      0CBF
 234 00ac 1A3A1A04 		.ascii	"\032:\032\0042\031Y\222\031!\016\313\004\211\237eh\372"
 234      32195992 
 234      19210ECB 
 234      04899F65 
 234      68FA
 235 00be D5BC7D8A 		.ascii	"\325\274}\212%DY:#S5C\025\320|m\206U\015@P\231\311\310"
 235      2544593A 
 235      23533543 
 235      15D07C6D 
 235      86550D40 
 236 00d6 369B6116 		.ascii	"6\233a\026\320a\354\351\214\214 \007r\200\265&!{\355"
 236      D061ECE9 
 236      8C8C2007 
 236      7280B526 
 236      217BED
ARM GAS  /tmp/ccZb7D2c.s 			page 18


 237 00e9 3C43CB01 		.ascii	"<C\313\001f\230~f\270=\234\311\214\220\200\006\032\232"
 237      66987E66 
 237      B83D9CC9 
 237      8C908006 
 237      1A9A
 238 00fb C9C80551 		.ascii	"\311\310\005Q\033\012\3622\363i\206F\2409) w\\d`\204"
 238      1B0AF232 
 238      F3698646 
 238      A0392920 
 238      775C6460 
 239 0110 6B852809 		.ascii	"k\205(\011\001\011\203tj\345d&\351;gd&e\372\007\307"
 239      01098374 
 239      6AE56426 
 239      E93B6764 
 239      2665FA07 
 240 0125 1B9AE919 		.ascii	"\033\232\351\031\352\231\350\353\347\027\353\027\225"
 240      EA99E8EB 
 240      E717EB17 
 240      95
 241 0132 E867E625 		.ascii	"\350g\346%\347\224\246\244\352'g\344\226T\350e0\000"
 241      E794A6A4 
 241      EA2767E4 
 241      9654E865 
 241      3000
 242 0144 00DB6A5A 		.ascii	"\000\333jZ\245"
 242      A5
 243              		.text
 244              		.section	.gnu.lto_chMtxObjectInit.b55526f9745bf699,"",%progbits
 245 0000 789C6D91 		.ascii	"x\234m\221=KC1\024\206\317\233\334[?\272\350\346R(\012"
 245      3D4B4331 
 245      1486CF9B 
 245      DC5B3FBA 
 245      E8E65228 
 246 0015 22080D05 		.ascii	"\"\010\015\005\361\017\370\003\034jA'\261w\260\001/"
 246      F10FF803 
 246      1C6A4127 
 246      B177B001 
 246      2F
 247 0026 42DB41EC 		.ascii	"B\333A\354\320\250\035\234D\304\301\217E\035\245\340"
 247      D0A81D9C 
 247      44C4C18F 
 247      451DA5E0 
 248 0036 E0A25B05 		.ascii	"\340\242[\005A\027)\376\203\"\210\335\334TJ\341z\322"
 248      411729FE 
 248      832288DD 
 248      DC544AE1 
 248      7AD2
 249 0048 7B0BF5E3 		.ascii	"{\013\365\343@Nr\2227\347yC\004\011\372\035\212G\015"
 249      404E7292 
 249      37E77943 
 249      0409FA1D 
 249      8A470D
 250 005b 4453B688 		.ascii	"DS\266\210\021X\001\001\311Y\012\207\310\010\227\223"
 250      11580101 
 250      C9590A87 
 250      C8089793 
 251 006b E38027B8 		.ascii	"\343\200'\270`!\201*B:.*K\266\"1N\347\306\0344_?Z8>"
ARM GAS  /tmp/ccZb7D2c.s 			page 19


 251      6021812A 
 251      423A2E2A 
 251      4BB62231 
 251      4EE7C61C 
 252 0085 AC57CF4C 		.ascii	"\254W\317L'\010\000m\017=\320\"\257\220\354N\266_\177"
 252      2708006D 
 252      0F3DD022 
 252      AF90EC4E 
 252      B65F7F
 253 0098 F8A02B51 		.ascii	"\370\240+Qo\006A\347\266\366\322\302\250\004|\260\201"
 253      6F0641E7 
 253      B6F6D2C2 
 253      A8047CB0 
 253      81
 254 00a9 EE5572A9 		.ascii	"\356Ur\251j\314~\322\217\372p,D\231-\312\254\265(\037"
 254      6ACC7ED2 
 254      8FFA702C 
 254      44992DCA 
 254      ACB5281F 
 255 00bd E9FEEDEE 		.ascii	"\351\376\355\356\372\001+\270`\203\253\200\305\310~"
 255      FA012BB8 
 255      6083AB80 
 255      C5C87E
 256 00cc 46160C95 		.ascii	"F\026\014\225\015rB\011Q\231\332f\327\214h8^\3675\341"
 256      0D724209 
 256      5199DA66 
 256      D78C6838 
 256      5EF735E1 
 257 00e0 CE9886CB 		.ascii	"\316\230\206\313\244H\244\021\353\335\346J>\321v{\347"
 257      A448A411 
 257      EBDDE64A 
 257      3ED1767B 
 257      E7
 258 00f1 7D2FD1A3 		.ascii	"}/\321\243\2102m\262\307i\2724\034\031\215\201S:a\360"
 258      88326DB2 
 258      C769BA34 
 258      1C198D81 
 258      533A61F0 
 259 0105 E00F0339 		.ascii	"\340\017\0039\364\331hP\265\236\370ca\310C\370!\334"
 259      F4D96850 
 259      B59EF863 
 259      61C843F8 
 259      21DC
 260 0117 53639888 		.ascii	"Sc\230\210I7G\237_\321{\"@\\#\376? $\330\235\270]<\323"
 260      4937479F 
 260      5FD17B22 
 260      405C23FE 
 260      3F2024D8 
 261 0130 56B335D1 		.ascii	"V\2635\321\243\204\261`E\0262\271\246sj.\257sz>\263"
 261      A384B160 
 261      451632B9 
 261      A6736A2E 
 261      AF737A3E 
 262 0145 9C9E4DA5 		.ascii	"\234\236M\245S3J\255\027U\241\244\212\005Oyy\277\264"
 262      53334AAD 
 262      1755A1A4 
 262      8A054F79 
ARM GAS  /tmp/ccZb7D2c.s 			page 20


 262      79BFB4
 263 0158 91F2E81B 		.ascii	"\221\362\350\033^\304fC"
 263      5EC46643 
 264              		.text
 265              		.section	.gnu.lto_chMtxLockS.b55526f9745bf699,"",%progbits
 266 0000 789CCD57 		.ascii	"x\234\315W\335k\034U\024\277gfv\366+\373\375\221\304"
 266      DD6B1C55 
 266      14BF6766 
 266      76F62BFB 
 266      FD91C4
 267 0013 6A297D50 		.ascii	"j)}P\264\230%\340G\245B\037\374\003\024\314b|\222d\305"
 267      B49825E0 
 267      47A5421F 
 267      FC0314CC 
 267      627C9264 
 268 0028 74A08BB5 		.ascii	"t\240\213\265\315C\261Hf\233\224\3266\206`\243\306\266"
 268      CD43B148 
 268      669B94D6 
 268      368660A3 
 268      C6B6
 269 003a D6148442 		.ascii	"\326\024\204B\037\024\014m#*n@!\311j\242\370`\022[I"
 269      1F140C6D 
 269      232A6E40 
 269      21C96AA2 
 269      F860125B 
 270 004f B145AB25 		.ascii	"\261E\253%\250`H\203\272\236s\357\235\331\331\315\266"
 270      A8604883 
 270      BA9E73EF 
 270      9DD9D9CD 
 270      B6
 271 0060 3B461F1C 		.ascii	";F\037\034\3303\263\347\336\3379\277\3631\347\356*L"
 271      D833B3E7 
 271      DEDF39BF 
 271      F331E7EE 
 271      2A4C
 272 0072 61B5D70C 		.ascii	"a\265\327\014~\256\206\031\313\320\227f\006\270\003"
 272      7EAE8619 
 272      CBD09766 
 272      06B803
 273 0081 145051AA 		.ascii	"\024PQ\252\212\306\230\251xPh\032\340\015<\212N\232"
 273      8AC698A9 
 273      7850681A 
 273      E00D3C8A 
 273      4E9A
 274 0093 14697408 		.ascii	"\024it\010\241\306\253\005\021\026\300\217\017?~\272"
 274      A1C6AB05 
 274      1116C08F 
 274      0F3F7EBA 
 275 00a3 73BD1F9A 		.ascii	"s\275\037\232P\006\270\014r\331\004\350\004B\212\227"
 275      5006B80C 
 275      72D904E8 
 275      04428A97 
 276 00b3 2C84C942 		.ascii	",\204\311B\030\"\250\211(Q\322\304H\023\005\274A\014"
 276      1822A889 
 276      2851D2C4 
 276      481305BC 
 276      410C
ARM GAS  /tmp/ccZb7D2c.s 			page 21


 277 00c5 E228E34A 		.ascii	"\342(\343J\202\364I\322'\000o\220\2044\312\024\227i"
 277      82F449D2 
 277      27006F90 
 277      8434CA14 
 277      9769
 278 00d7 00F405AC 		.ascii	"\000\364\005\254OQ5\217\356\365\371\003\301\246P8\022"
 278      4F51358F 
 278      EEF5F903 
 278      C1A65038 
 278      12
 279 00e8 8DC513C9 		.ascii	"\215\305\023\311T\032\372\236\246e\226\332\312\316\230"
 279      541AFA9E 
 279      A66596DA 
 279      CACE98
 280 00f7 E6AB4B9F 		.ascii	"\346\253K\237\235\233\2067G\212\003c\346\037\3452\200"
 280      9D9B8637 
 280      478A0363 
 280      E61FE532 
 280      80
 281 0108 418B3960 		.ascii	"A\2139`\235\370\004[\370\215Bu^\002X|\273t\252\365\350"
 281      9DF8045B 
 281      F88D4275 
 281      5E02587C 
 281      BB74AAF5 
 282 011d D8C161F3 		.ascii	"\330\301a\363/\304\031\224\025W\260\363\245\327\232"
 282      2FC41994 
 282      1557B0F3 
 282      A5D79A
 283 012c 8F2E9916 		.ascii	"\217.\231\026L\253\300|\002\006u`\303\346\370\325'\246"
 283      4CABC07C 
 283      02067560 
 283      C3E6F8D5 
 283      27A6
 284 013e CC8162B9 		.ascii	"\314\201b\271\274\323\240t\273r\365\341\261\323N\206"
 284      BCD3A074 
 284      BB72F5E1 
 284      B1D34E86 
 285 014e 2E03337F 		.ascii	".\0033\177\275Vq\245\273\304\334t\320\363\272\244\367"
 285      BD5671A5 
 285      BBC4DC74 
 285      D0F3BAA4 
 285      F7
 286 015f 71E90D27 		.ascii	"q\351\015'=\227\256\212\307\207\376\327Q\235\237\335"
 286      3D97AE8A 
 286      C787FED7 
 286      519D9FDD 
 287 016f 08BDE2C9 		.ascii	"\010\275\342\311c#\033\350&\363O\007C\267\035\2700T"
 287      63231BE8 
 287      26F34F07 
 287      43B71DB8 
 287      3054
 288 0181 D5B86E03 		.ascii	"\325\270n\003\373}\266t\006\320e\341\227r9\342>\260"
 288      FB7DB674 
 288      06D065E1 
 288      977239E2 
 288      3EB0
 289 0193 95D9C1C0 		.ascii	"\225\331\301\300p\341\210Y.\367\271\257\361\370\334"
ARM GAS  /tmp/ccZb7D2c.s 			page 22


 289      70E18859 
 289      2EF7B9AF 
 289      F1F8DC
 290 01a2 EB1B698D 		.ascii	"\353\033i\215\017f\206ZMG\356\025v/4@\346\301\356\253"
 290      0F66865A 
 290      4D47EE15 
 290      762F3440 
 290      E6C1EEAB 
 291 01b6 D2480DF8 		.ascii	"\322H\015\370\376F\340\367\224\342R\271\374\321\327"
 291      FE46E0F7 
 291      94E252B9 
 291      FCD1D7
 292 01c5 AB572E41 		.ascii	"\253W.A\242\005X\027\234\207\255\010\354\202q\274\253"
 292      A2055817 
 292      9C87AD08 
 292      EC8271BC 
 292      AB
 293 01d6 90077CBF 		.ascii	"\220\007|\277\321\224G\256\350\370E\365\222\360\221"
 293      D19447AE 
 293      E8F845F5 
 293      92F091
 294 01e5 F0A3D002 		.ascii	"\360\243\320\002(<A\332\325\204B\017\241\360\206\351"
 294      283C41DA 
 294      D584420F 
 294      A1F086E9 
 295 01f5 29224151 		.ascii	")\"AQZ\213\221&Nk\011\372\232\244\247\024=\245i\241"
 295      5A8B9126 
 295      4E6B09FA 
 295      9AA4A714 
 295      3DA569A1 
 296 0209 99F11CA1 		.ascii	"\231\361\034\241\237\001\234\025[\204\373\274,\021^"
 296      9F019C15 
 296      5B84FBBC 
 296      2C115E
 297 0218 1D5C6669 		.ascii	"\035\\fi~\253_\260\203\213\243g\257C\027\\\304A\322"
 297      7EAB5FB0 
 297      838BA367 
 297      AF43175C 
 297      C441D2
 298 022b 03CA3676 		.ascii	"\003\3126v\316\304\353)4\266\215\335g\200\357$;Q0\315"
 298      CEC4EB29 
 298      34B68DDD 
 298      6780EF24 
 298      3B5130CD 
 299 023f A801FE03 		.ascii	"\250\001\376\003l\315<BO\201<ay\016\002<\362n9\245\272"
 299      6CCD3C42 
 299      4F813C61 
 299      790E023C 
 299      F26E39A5 
 300 0254 C11A5773 		.ascii	"\301\032Ws\254\177\354\264GXe\314F\006sr\207A\223^\320"
 300      AC7FECB4 
 300      475865CC 
 300      46067372 
 300      8741935E 
 301 0269 C04655A7 		.ascii	"\300FU\247\330\247?L~2c\323P\311v\310\231\334,\315F"
 301      D8A73F4C 
 301      7E3263D3 
ARM GAS  /tmp/ccZb7D2c.s 			page 23


 301      50C976C8 
 301      99DC2CCD 
 302 027e 758E69EB 		.ascii	"u\216i\353l\206s \316*\322\264\030\020\311S\352\371"
 302      6C867320 
 302      CE2AD2B4 
 302      1810C953 
 302      EAF9
 303 0290 2603A216 		.ascii	"&\003\242\026\332#\203\235\307\001oy\321x\204\014#D"
 303      DA23839D 
 303      C7016F79 
 303      D178840C 
 303      2344
 304 02a2 6FB12AAF 		.ascii	"o\261*\257\335`\235\177Sl\340F!dC:\305[\354$\246K\323"
 304      DD609D7F 
 304      536CE046 
 304      2164433A 
 304      C55BEC24 
 305 02b9 13EF4F2B 		.ascii	"\023\357O+v\316\251V\314\342\301\020\351\221\231}\241"
 305      76CEA956 
 305      CCE2C110 
 305      E991997D 
 305      A1
 306 02ca A14761D5 		.ascii	"\241Ga\325+\255\256\216O\253]0\311\275\3738\341\270"
 306      2BADAE8E 
 306      4FAB5D30 
 306      C9BDFB38 
 306      E1B8
 307 02dc 8027B05A 		.ascii	"\200'\260Z\0256\335\224G~!hz8( \322\347\303N\020\254"
 307      1536DD94 
 307      477E2168 
 307      7A382820 
 307      D2E7C34E 
 308 02f2 07A1658E 		.ascii	"\007\241e\216[\234\277\260\240X\316\374\334Y\262>N\253"
 308      5B9CBFB0 
 308      A058CEFC 
 308      DC59B23E 
 308      4EAB
 309 0304 385BEE7F 		.ascii	"8[\356\177\316\202\004\020\305\330\347\314c+^a\203\205"
 309      CE820410 
 309      C5D8E7CC 
 309      632B5E61 
 309      8385
 310 0316 01B33811 		.ascii	"\001\2638\0216 E\373\237\225\036\245~\224\364d7)\026"
 310      362045FB 
 310      9F951EA5 
 310      7E94F464 
 310      372916
 311 0329 35E7E285 		.ascii	"5\347\342\205\240\265\250\363E\217s\361;{\321\313\027"
 311      A0B5A8F3 
 311      458F73F1 
 311      3B7BD1CB 
 311      17
 312 033a F5AAE461 		.ascii	"\365\252\344a8j\211\025|\202\007\207\316\261\201\245"
 312      386A8915 
 312      7C820787 
 312      CEB181A5 
 313 034a CB872216 		.ascii	"\313\207\"\026\263\240\335?\351\234\235\0054\327,\022"
ARM GAS  /tmp/ccZb7D2c.s 			page 24


 313      B3A0DD3F 
 313      E99C9D05 
 313      34D72C12 
 314 035a 31BCD9DA 		.ascii	"1\274\331\332\330\304\323\240\313L~\203[Z\352\247\304"
 314      D8C4D3A0 
 314      CB4C7E83 
 314      5B5AEAA7 
 314      C4
 315 036b 23EF1613 		.ascii	"#\357\026\0234\263\326\377\033XvB\007\330\213\370\232"
 315      34B3D6FF 
 315      1B587642 
 315      07D88BF8 
 315      9A
 316 037c 4A3B3453 		.ascii	"J;4SZ\205\235;\320G\247\030k\034\357\255\0042\307\016"
 316      5A859D3B 
 316      D047A718 
 316      6B1CEFAD 
 316      0432C70E 
 317 0390 151F1506 		.ascii	"\025\037\025\006\034\015\277)'\363\204Q\240]\003\356"
 317      1C0DBF29 
 317      27F38451 
 317      A05D03EE 
 318 03a0 94C5BB78 		.ascii	"\224\305\273x\323.^\270\212u\366\237\220^\374\322kY"
 318      D32E5EB8 
 318      8A75F69F 
 318      905EFCD2 
 318      6B59
 319 03b2 8948FC4B 		.ascii	"\211H\374Kv\317\"\331\260\223\254\325\263?1sp\360\362"
 319      76CF22D9 
 319      B093ACD5 
 319      B33F3173 
 319      70F0F2
 320 03c5 6E8BABA8 		.ascii	"n\213\253\250\202\277\246\012\272\250\302\313\207\355"
 320      82BFA60A 
 320      BAA8C2CB 
 320      87ED
 321 03d3 2A44DD56 		.ascii	"*D\335V!\366\037U!~\233*\3046Z\205(\332\345U\020a\007"
 321      21F61F55 
 321      217E9B2A 
 321      C4365A85 
 321      28DAE555 
 322 03ea 6AC2D638 		.ascii	"j\302\3268\213\211\325\357\255\362H\357;\032\274]\244"
 322      8B89D5EF 
 322      ADF248EF 
 322      3B1ABC5D 
 322      A4
 323 03fb D18089A4 		.ascii	"\321\200\211\244\2358k'-q\353\244\341\316\342\246uT"
 323      9D386B27 
 323      2D71EBA4 
 323      E1CEE2A6 
 323      7554
 324 040d 719B476E 		.ascii	"q\233GnK\360m\202g\260\206\247\034 \0354\232\325,\215"
 324      4BF06D82 
 324      67B086A7 
 324      1C201D34 
 324      9AD52C8D 
 325 0421 2531D6C6 		.ascii	"%1\326\306'\355\266\322k\006P\235Y\"{\310f\353u3\263"
ARM GAS  /tmp/ccZb7D2c.s 			page 25


 325      27EDB6D2 
 325      6B06509D 
 325      59227BC8 
 325      66EB7533 
 326 0436 70FE5F2B 		.ascii	"p\376_+\354\260\275\364T\322\277\300\000g\247~j\341"
 326      ECB0BDF4 
 326      54D2BFC0 
 326      0067A77E 
 326      6AE1
 327 0448 1DBC477C 		.ascii	"\035\274G|7\276\335O\324\303\202\333Z\377\370[\333-"
 327      37BEDD4F 
 327      D4C382DB 
 327      5AFFF85B 
 327      DB2D
 328 045a 54B2AAB4 		.ascii	"T\262\252\264\307+\245\255\235\2635\245\335~\273\322"
 328      C72BA5AD 
 328      9DB335A5 
 328      DD7EBBD2 
 329 046a 2A68D77A 		.ascii	"*h\327z\301J\023?\327Tpg\245%\037tv\244r\353\216\354"
 329      C14A133F 
 329      D7547067 
 329      A5251F74 
 329      76A472EB 
 330 0480 A198A9A0 		.ascii	"\241\230\251\240\357\036\016\256s|WN\356\342\245\247"
 330      EF1E0EAE 
 330      737C574E 
 330      EEE2A5A7 
 331 0490 DF079BAD 		.ascii	"\337\007\233\255bE\254\363k\371\021+\340\224\333\343"
 331      6245ACF3 
 331      6BF9112B 
 331      E094DBE3 
 332 04a0 CBEEFE54 		.ascii	"\313\356\376T\217\363\220\311\322\351(\216\324\032\036"
 332      8FF390C9 
 332      D2E9288E 
 332      D41A1E
 333 04af F58FD4C9 		.ascii	"\365\217\324\311\252#\265\203\376\201a\233\304%\261"
 333      AA23B583 
 333      FE81619B 
 333      C425B1
 334 04be 1F976D37 		.ascii	"\037\227m7i\361\262\326O\207\257\036\261t\217\335\012"
 334      69F1B2D6 
 334      4F87AF1E 
 334      B1748FDD 
 334      0A
 335 04cf 9C58E25F 		.ascii	"\234X\342_\021Krb)AlzteZ\021\347\260,U\244A\322x\222"
 335      114B7262 
 335      29416C7A 
 335      74655A11 
 335      E7B02C55 
 336 04e8 78E7AF5C 		.ascii	"x\347\257\\W\254\203\277\331ML\374\350\015\324:\013"
 336      57AC83BF 
 336      D94D4CFC 
 336      E80DD43A 
 336      0B
 337 04f9 D577E697 		.ascii	"\325w\346\227\316\304\254+\315\257\\\251\246\331\336"
 337      CEC4AC2B 
 337      CDAF5CA9 
ARM GAS  /tmp/ccZb7D2c.s 			page 26


 337      A6D9DE
 338 0508 C09D9DB2 		.ascii	"\300\235\235\262,\375\317U\277b\205\245K\367\330?8d"
 338      2CFDCF55 
 338      BF6285A5 
 338      4BF7D83F 
 338      3864
 339 051a 2A104341 		.ascii	"*\020CA\335\275\333\350\316<\266\313\3506\036\177\362"
 339      DDBDDBE8 
 339      CE3CB6CB 
 339      E8361E7F 
 339      F2
 340 052b 99F687DA 		.ascii	"\231\366\207\332\332\333\036\310d\236\337\227\331\333"
 340      DADB1EC8 
 340      649EDF97 
 340      D9DB
 341 0539 9BD9B737 		.ascii	"\233\331\2677\227\311\355\312\367\356o\31315\327\273"
 341      97C9EDCA 
 341      F7EE6FCB 
 341      3135D7BB 
 342 0549 47E9DDF3 		.ascii	"G\351\335\3637z;+\376"
 342      377A3B2B 
 342      FE
 343              		.text
 344              		.section	.gnu.lto_chMtxLock.b55526f9745bf699,"",%progbits
 345 0000 789C6362 		.ascii	"x\234cb`b@\007\"@|\012\2105@\034f\006F\240\012F&FF "
 345      60624007 
 345      22407C0A 
 345      8835401C 
 345      660646A0 
 346 001a 8791A19E 		.ascii	"\207\221\241\236\211\261>\222\021\254l=\323\201\007"
 346      89B13E92 
 346      11AC6C3D 
 346      D38107
 347 0029 FFFFAFFB 		.ascii	"\377\377\257\373v|^\017\343\012&\240\202\\\2608+CKC"
 347      767C5E0F 
 347      E30A26A0 
 347      825CB038 
 347      2B434B43 
 348 003d C3040506 		.ascii	"\303\004\005\006\206d07\004L\206\202\014a>\317\320\374"
 348      86643037 
 348      044C8682 
 348      0C613ECF 
 348      D0FC
 349 004f E06F337B 		.ascii	"\340o3{\"\343BFV\240`5\303\257\206\216\006\201LF\240"
 349      22E34246 
 349      56A06035 
 349      C3AF868E 
 349      06814C46 
 350 0064 52889199 		.ascii	"R\210\221\231 \372<C\313\203\177\2131U1%3B\334\232\316"
 350      20FA3C43 
 350      CB837F8B 
 350      31553125 
 350      3342DC9A 
 351 0079 C898C9C8 		.ascii	"\310\230\311\310\014R\330\374\340\377a\254\3061#\214"
 351      0C52D8FC 
 351      E0FF61AC 
 351      C631238C 
ARM GAS  /tmp/ccZb7D2c.s 			page 27


 352 0089 BBC8D0F8 		.ascii	"\273\310\320\370\240C\025\246\010\002B@\022 \303\324"
 352      A04315A6 
 352      08024240 
 352      1220C3D4 
 353 0099 723293F4 		.ascii	"r2\223\364\23532\2232\375\203\343\015\315\364\014\365"
 353      9D333293 
 353      32FD83E3 
 353      0DCDF40C 
 353      F5
 354 00aa 4CF4F5F3 		.ascii	"L\364\365\363\213\365\213J\364\213\213\222\365\2233"
 354      8BF58B4A 
 354      F48B8B92 
 354      F59333
 355 00b9 724B2AF4 		.ascii	"rK*\364\222\031\000\264\203;3"
 355      921900B4 
 355      833B33
 356              		.text
 357              		.section	.gnu.lto_chMtxTryLockS.b55526f9745bf699,"",%progbits
 358 0000 789CAD54 		.ascii	"x\234\255TMh\023Q\020\236\331\277\267IL\353AA=\025\017"
 358      4D681351 
 358      109ED9BF 
 358      B7494CEB 
 358      41413D15 
 359 0015 222D6409 		.ascii	"\"-d\011\210W\017\336\274(h\240\236\304\254\220.\030"
 359      88570FDE 
 359      BC2868A0 
 359      9EC4AC90 
 359      2E18
 360 0027 84B607C1 		.ascii	"\204\266\007\301C_\332 \342)\304\202\332*\264\007\021"
 360      435FDA20 
 360      E229C482 
 360      DA2AB407 
 360      11
 361 0038 44A82048 		.ascii	"D\250 H\210\036\242xH[\305\237 j\275\004QD\250\320c"
 361      881EA278 
 361      485BC59F 
 361      206ABD04 
 361      5144A8D0 
 362 004d 51719DD9 		.ascii	"Qq\235\331\267\273MM\241E\372`\347\2757;\337|\337\314"
 362      B7BB4D4D 
 362      A145FA60 
 362      E7BD373B 
 362      DF7CDFCC 
 363 0061 7BBB1A68 		.ascii	"{\273\032h\360\3578F\317\262\001p\2207\011@\212@\015"
 363      F0EF3846 
 363      CFB20170 
 363      90370940 
 363      8A400D
 364 0074 75B2BA46 		.ascii	"u\262\272Fn\251\231d\014\003iBS\263\330#\330c\241M\036"
 364      6EA99964 
 364      0C036942 
 364      53B3D823 
 364      D863A14D 
 365 0089 11581B91 		.ascii	"\021X\033\221\300\010c\232n\230\226\260q\3544;@\354"
 365      C008639A 
 365      6E9896B0 
 365      71EC343B 
ARM GAS  /tmp/ccZb7D2c.s 			page 28


 365      40EC
 366 009b 875929AB 		.ascii	"\207Y)\253\355\257s\013xs\262Q\236\221\277}\037\321"
 366      EDAF730B 
 366      7873B251 
 366      9E91BF7D 
 366      1FD1
 367 00ad E3972EC2 		.ascii	"\343\227.\302 \255\260/\230\230\252s\004\300\251\306"
 367      20ADB02F 
 367      9898AA73 
 367      04C0A9C6 
 368 00bd C3567D16 		.ascii	"\303V}\026\345eYZ\361\375^\217UE0[\301p\003X\265\321"
 368      E565595A 
 368      F1FD5E8F 
 368      5545305B 
 368      C1700358 
 369 00d3 6A4DEEBD 		.ascii	"jM\356\275:3^\221\177\210n\253l\325\306\273k\377\003"
 369      3A335E91 
 369      7F886EAB 
 369      6CD5C6BB 
 369      6BFF03
 370 00e6 939FBE9C 		.ascii	"\223\237\276\234h\312r\303\367\217xhl\221\352}k\236"
 370      68CA72C3 
 370      F78F7868 
 370      6C91EA7D 
 370      6B9E
 371 00f8 0AAB4685 		.ascii	"\012\253F\205mJUD\230\323\032m\337\277\177\375\316\347"
 371      6D4A5544 
 371      98D31A6D 
 371      DFBF7FFD 
 371      CEE7
 372 010a 1FB82B89 		.ascii	"\037\270+\211@\355\320\260\210\324\024\302\033\2745"
 372      40EDD0B0 
 372      88D414C2 
 372      1BBC35
 373 0119 7965B111 		.ascii	"ye\261\021d\014\233W\011\010\332\006&\224\245\254\364"
 373      640C9B57 
 373      0908DA06 
 373      2694A5AC 
 373      F4
 374 012a 15432A1A 		.ascii	"\025C*\032\247\002\233\343\003\327_\301D\373\311\367"
 374      A7029BE3 
 374      03D75FC1 
 374      44FBC9F7 
 375 013a E459BCCB 		.ascii	"\344Y\274\313\347\014\227\340\247\274\"wzh\272\250:"
 375      E70C97E0 
 375      A7BC2277 
 375      7A68BAA8 
 375      3A
 376 014b ECA1A584 		.ascii	"\354\241\245\204\3448\233\336\204\347\337\236\376z\213"
 376      E4389BDE 
 376      84E7DF9E 
 376      FE7A8B
 377 015a 0A50408D 		.ascii	"\012P@\2155\213N\3019n\005\3455\272r\332.\252[\310\236"
 377      358B4EC1 
 377      396E05E5 
 377      35BA72DA 
 377      2EAA5BC8 
ARM GAS  /tmp/ccZb7D2c.s 			page 29


 378 016f 3D1E2648 		.ascii	"=\036&HS\030\344a2B\323N\177\011\343K\253tu\"\026}\000"
 378      5318E461 
 378      3242D34E 
 378      7F09E34B 
 378      AB747522 
 379 0186 FAA9A469 		.ascii	"\372\251\244i\230\"\266\324:\326||\021\232P^.\245c\310"
 379      9822B6D4 
 379      3AD67C7C 
 379      119A505E 
 379      2EA563C8 
 380 019a A03AC84E 		.ascii	"\240:\310Na\226J]\253=\352\217\302\014\016\323\327B"
 380      61964A5D 
 380      AB3DEA8F 
 380      C20C0ED3 
 380      D742
 381 01ac 44C85EAB 		.ascii	"D\310^\253/hQ\214\251\330\003\273\2034\224$W\223\216"
 381      2F68518C 
 381      A9D803BB 
 381      83349424 
 381      57938E
 382 01bf EBEA2906 		.ascii	"\353\352)\006uq\246\236P\023\206s\364\325Q\312\371\025"
 382      7571A69E 
 382      50138673 
 382      F4D551CA 
 382      F915
 383 01d1 A1120EC0 		.ascii	"\241\022\016\300=I#\265IA\005\356\004K\371P\177\026"
 383      3D4923B5 
 383      494105EE 
 383      044BF950 
 383      7F16
 384 01e3 4BB1B645 		.ascii	"K\261\266E\312\322\203T\224P\004\251\014%\244\227\010"
 384      CAD28354 
 384      945004A9 
 384      0C25A497 
 384      08
 385 01f4 D6DA968F 		.ascii	"\326\332\226\217\373\302\352_w\251\027\033\2537B\365"
 385      FBC2EA5F 
 385      77A9171B 
 385      AB3742F5 
 386 0204 4251ADD6 		.ascii	"BQ\255\326\367E\\\366\266\210_\254\244\326)\311v\312"
 386      F7455CF6 
 386      B6885FAC 
 386      A4D629C9 
 386      76CA
 387 0216 B7BBE517 		.ascii	"\267\273\345\027\030\314\247~\343q\254$\021\234zt=r"
 387      18CCA77E 
 387      E371AC24 
 387      119C7A74 
 387      3D72
 388 0228 FC2BD317 		.ascii	"\374+\323\027\241D\3239F\275\011\226\005\305\376\021"
 388      A144D339 
 388      46BD0996 
 388      05C5FE11 
 389 0238 90AE8975 		.ascii	"\220\256\211ukz7\341\304\213\333i\376\200\350\015K:"
 389      6B7A37E1 
 389      C48BDB69 
 389      FE80E80D 
ARM GAS  /tmp/ccZb7D2c.s 			page 30


 389      4B3A
 390 024a 70DECB3B 		.ascii	"p\336\313;G\207\274\274w\374\344\231\354\341L6s\310"
 390      4787BCBC 
 390      77FCE499 
 390      ECE14C36 
 390      73C8
 391 025c 712E8C38 		.ascii	"q.\2148\303\243\316\310\260\353\270C\305\321\213\031"
 391      C3A3CEC8 
 391      B0EBB843 
 391      C5D18B19 
 392 026c 17FE0242 		.ascii	"\027\376\002B\360\014\246"
 392      F00CA6
 393              		.text
 394              		.section	.gnu.lto_chMtxTryLock.b55526f9745bf699,"",%progbits
 395 0000 789C6362 		.ascii	"x\234cb`b@\007\322@\\\306\310\300\240\005\342\26000"
 395      60624007 
 395      D2405CC6 
 395      C8C0A005 
 395      E2B03030 
 396 0014 02553032 		.ascii	"\002U0212\003IfF\2400\003#C=\0233c}$\210\315\300\244"
 396      31320349 
 396      6646A030 
 396      0323433D 
 396      1333637D 
 397 002d C4B0B0A1 		.ascii	"\304\260\260\241a\326\203\243\213g\211w=h\230\320\360"
 397      61D683A3 
 397      8B678977 
 397      3D6898D0 
 397      F0
 398 003e EFFF7FC6 		.ascii	"\357\377\177\306L\220T2#C\004\220\305\310\001\246\230"
 398      4C905432 
 398      23430490 
 398      C5C801A6 
 398      98
 399 004f 18512D01 		.ascii	"\030Q-\001k\233t`\342\244\036\361\006$mL\014\232\214"
 399      6B9B7460 
 399      E2A41EF1 
 399      06246D4C 
 399      0C9A8C
 400 0062 0474AE67 		.ascii	"\004t\256g:\360\340\377\377?\377\027<\352g\024aad\314"
 400      3AF0E0FF 
 400      FF3FFF17 
 400      3CEA6714 
 400      616164CC 
 401 0076 05E94A64 		.ascii	"\005\351Jd\\\304\250\304\300\314\000\266\231\201\225"
 401      5CC4A8C4 
 401      C0CC00B6 
 401      998195
 402 0085 A1A5A161 		.ascii	"\241\245\241a\202\002D\020\354\022 \010\001\223\241"
 402      82024410 
 402      EC122008 
 402      0193A1
 403 0094 20EF309F 		.ascii	" \3570\237gh~\320\325\311\236\310\270\204\221\025(X"
 403      67687ED0 
 403      D5C99EC8 
 403      B8849115 
 403      2858
ARM GAS  /tmp/ccZb7D2c.s 			page 31


 404 00a6 CDF0ABA1 		.ascii	"\315\360\253\241\243A \223\2219\231\021b[&#\013\003"
 404      A3412093 
 404      91399911 
 404      625B2623 
 404      0B03
 405 00b8 C3798696 		.ascii	"\303y\206\226\007\335+\031!\252\322\031\231\340\312"
 405      07DD2B19 
 405      21AAD219 
 405      99E0CA
 406 00c7 58931921 		.ascii	"X\223\031!\301\226\316\010t \033He\363\203\236\223X"
 406      C196CE08 
 406      74201B48 
 406      65F3839E 
 406      9358
 407 00d9 CD634698 		.ascii	"\315cF\230w\226\241\351\344\215\305R0\363\230\323\241"
 407      7796A1E9 
 407      E48DC552 
 407      30F398D3 
 407      A1
 408 00ea A6001D05 		.ascii	"\246\000\035\005T\305|\232\241\221\203\201!\005\344"
 408      54C57C9A 
 408      A1918381 
 408      2105E4
 409 00f9 828B0C70 		.ascii	"\202\213\014p[!\372\201\256\007\012\203\224\253\345"
 409      5B21FA81 
 409      AE070A83 
 409      94ABE5
 410 0108 6426E93B 		.ascii	"d&\351;gd&e\372\007\307\033\232\351\031\352\231\350"
 410      67642665 
 410      FA07C71B 
 410      9AE919EA 
 410      99E8
 411 011a EBE717EB 		.ascii	"\353\347\027\353\027\225\350\027\027%\353'g\344\226"
 411      1795E817 
 411      1725EB27 
 411      67E496
 412 0129 54E82533 		.ascii	"T\350%30&\001\000\341S^8"
 412      30260100 
 412      E1535E38 
 413              		.text
 414              		.section	.gnu.lto_chMtxUnlock.b55526f9745bf699,"",%progbits
 415 0000 789CA555 		.ascii	"x\234\245U\335k\034U\024\277\347\316\354\367\307\354"
 415      DD6B1C55 
 415      14BFE7CE 
 415      ECF7C7EC 
 416 0010 F726792A 		.ascii	"\367&y*}Pli\226`\025D\304\007\377\000\225&\030}\221"
 416      7D506C69 
 416      96601544 
 416      C407FF00 
 416      9526187D 
 417 0025 EC22E940 		.ascii	"\354\"\351@\327\3064\342G\221L\232}\010M\320h5i\323"
 417      D7C634E2 
 417      47914C9A 
 417      7D084DD0 
 417      683569D3 
 418 0039 A61FE283 		.ascii	"\246\037\342\203\210%\215\"\244\304\207\244\364\241"
 418      88258D22 
ARM GAS  /tmp/ccZb7D2c.s 			page 32


 418      A4C487A4 
 418      F4A1
 419 0047 A9D4561F 		.ascii	"\251\324V\037\262&\"\254HS\210Uj\2046F\315x\356\235"
 419      B22622AC 
 419      48538855 
 419      6A843646 
 419      CD78EE9D 
 420 005b 7B67279B 		.ascii	"{g'\233m3\266\003{\356\314\331\363;\347w\316=\367\\"
 420      6D33B603 
 420      7BEECCD9 
 420      F33BE777 
 420      CE3DF75C 
 421 006f 4A28A97D 		.ascii	"J(\251}\312\370\013F\010y\222}4\020@\013\240\240\240"
 421      CAF80B46 
 421      0879927D 
 421      3410400B 
 421      A0A0A0
 422 0082 54A84A88 		.ascii	"T\250J\210A=(T\025p\001\017xQz\251\217\351\375L\357"
 422      413D2854 
 422      1570010F 
 422      78517AA9 
 422      8FE9FD4C 
 423 0097 035CC00F 		.ascii	"\003\\\300\017\001\224\001\032d\372\020\323\007\001"
 423      0194011A 
 423      64FA10D3 
 423      0701
 424 00a5 17084118 		.ascii	"\027\010A\030e\230F\230>\312\364\021\300\005\242Tc\232"
 424      65984698 
 424      3ECAF411 
 424      C005A254 
 424      639A
 425 00b7 0CD36890 		.ascii	"\014\323h\220BM\214\306\231&\3114q\232\260\337\023\200"
 425      424D8CC6 
 425      9926C934 
 425      719AB0DF 
 425      1380
 426 00c9 0B24B94D 		.ascii	"\013$\271M\212\306\230>\315\364i\310\242&\303e\026\000"
 426      8AC6983E 
 426      CDF469C8 
 426      A226C365 
 426      1600
 427 00db A903E9A5 		.ascii	"\251\003\351\245\212\352\361\372\374\201`(\034\211j"
 427      8AEAF1FA 
 427      FC816028 
 427      1C896A
 428 00ea B1782299 		.ascii	"\261x\"\231Jg\262\320\373\"\373\237\304\267\2233\206"
 428      4A67B2D0 
 428      FB22FB9F 
 428      C4B79333 
 428      86
 429 00fb F141E5FA 		.ascii	"\361A\345\372\322X\343\341\323\207\206\215u\323\004"
 429      D258E3E1 
 429      D387868D 
 429      75D304
 430 010a 9DFD5500 		.ascii	"\235\375U\000\322\216o\260\215/,k\347c\301f\246\346"
 430      D28E6FB0 
 430      8D2F2C6B 
ARM GAS  /tmp/ccZb7D2c.s 			page 33


 430      E763C166 
 430      A6E6
 431 011c 8782C37D 		.ascii	"\207\202\303}\003\206i\366\272\006\031_|j\004N\033\377"
 431      038669F6 
 431      BA06195F 
 431      7C6A044E 
 431      1BFF
 432 012e 98A6A2B3 		.ascii	"\230\246\242\263\222\272\012T\236\277|\006\020\333w"
 432      92BA0A54 
 432      9EBF7C06 
 432      10DB77
 433 013d CB3435F7 		.ascii	"\31345\367\374\376\0309\341LKu\011\2733r2{\270bH\230"
 433      FCFE1839 
 433      E14C4B75 
 433      09BB3372 
 433      327BB862 
 434 0153 A70AF35B 		.ascii	"\247\012\363[0\250\013\033\037\375\344~`\247F\307\235"
 434      30A80B1B 
 434      1FFDE47E 
 434      60A746C7 
 434      9D
 435 0164 245D96C4 		.ascii	"$]\226\3048r\375\271KFi\3064\237\326Y\007\272J\354\\"
 435      3872FDB9 
 435      4B4669C6 
 435      349FD659 
 435      07BA4AEC 
 436 0179 D9B15F6E 		.ascii	"\331\261_nk\377S\371\244\223\237\317m\355GG\357\247"
 436      6BFF53F9 
 436      A4939FCF 
 436      6DED4747 
 436      EFA7
 437 018b A58ECDBF 		.ascii	"\245\216\315\277\333h8\252A\311#\340\016y|d\003R\245"
 437      DB6838AA 
 437      41C923E0 
 437      0E797C64 
 437      0352A5
 438 019e 64D756C8 		.ascii	"d\327V\310\"H\360_\363\037\326\204mq\031\366\375\362"
 438      2248F05F 
 438      F31FD684 
 438      6D7119F6 
 438      FDF2
 439 01b0 7B4EA49F 		.ascii	"{N\244\237\222\335[!'\350L\3054\277\236\374\367\347"
 439      92DD5B21 
 439      27E84CC5 
 439      34BF9EFC 
 439      F7E7
 440 01c2 31C0B348 		.ascii	"1\300\263H:`\002\266\343\030\352\200/qU\304\252\342"
 440      3A6002B6 
 440      E318EA80 
 440      2F7155C4 
 440      AAE2
 441 01d4 7A16570F 		.ascii	"z\026W\017\024\001w\030K\350c\302\217B\011\260\267 "
 441      14017718 
 441      4BE863C2 
 441      8F4209B0 
 441      B720
 442 01e6 0A3584C2 		.ascii	"\0125\204\302\023\026\220\210p\025eJ\215\031\306Px\343"
ARM GAS  /tmp/ccZb7D2c.s 			page 34


 442      13169088 
 442      7015654A 
 442      8D19C650 
 442      78E3
 443 01f8 EC2D216C 		.ascii	"\354-!l\222\302&\205J_\032?&\361#C\370\016\021\017)"
 443      92C22685 
 443      4A5F1A3F 
 443      26F12343 
 443      F80E110F 
 444 020d 19C6F036 		.ascii	"\031\306\3606+\260eW\024[\207O+\227ml\034*W\310\241"
 444      2BB06557 
 444      145B874F 
 444      2B976D6C 
 444      1C2A57C8 
 445 0222 C5A3BF2C 		.ascii	"\305\243\277,C\007|\205\235\336\011\352N\362\231\201"
 445      43077C85 
 445      9DDE09EA 
 445      4EF29981 
 446 0232 CF0B186A 		.ascii	"\317\013\030j'\331\241C\3408\031\3533\214\230\016\301"
 446      27D9A143 
 446      E03819EB 
 446      338C980E 
 446      C1
 447 0243 8364CD18 		.ascii	"\203d\315\030`o\241\"\303\362\232\204x%\362\342H\344"
 447      606FA122 
 447      C3F29A84 
 447      7825F2E2 
 447      48E4
 448 0255 C17936DA 		.ascii	"\301y6\332Xo*\227\310\305\033\263\247\346\355\010\236"
 448      586F2A97 
 448      C8C51BB3 
 448      A7E6ED08 
 448      9E
 449 0266 76EB083B 		.ascii	"v\353\010;\355\360S\271JT\313\204\020;P\270 \0342M\203"
 449      EDF053B9 
 449      4A54CB84 
 449      103B50B8 
 449      201C324D 
 450 027b 0E9122AB 		.ascii	"\016\221\"\25327\322\331\264\265\320\036\216\356\257"
 450      3237D2D9 
 450      B4B5D01E 
 450      8EEEAF
 451 028a 1C1BF46D 		.ascii	"\034\033\364m\362\240\025\300\272\027t\210I{\257\310"
 451      F2A015C0 
 451      BA177488 
 451      497BAFC8 
 452 029a 7B75A949 		.ascii	"{u\251I\222\362\362\\\011\346\212\344\342X\206v\353"
 452      92F2F25C 
 452      09E68AE4 
 452      E2588676 
 452      EB
 453 02ab 08F39CE4 		.ascii	"\010\363\234\344\305\3022\261\323\360\266[\247\301\231"
 453      C5C232B1 
 453      D3F0B65B 
 453      A7C199
 454 02ba 86EF01D2 		.ascii	"\206\357\001\322he\267\215\322\306n\033Nn\340\006\225"
 454      6865B78D 
ARM GAS  /tmp/ccZb7D2c.s 			page 35


 454      D2C66E1B 
 454      4E6EE006 
 454      95
 455 02cb A17C6EC8 		.ascii	"\241|n\310!\346%\011\360s\200b\001\022\350\240\3125"
 455      21E62509 
 455      F0738062 
 455      0112E8A0 
 455      CA35
 456 02dd 2F802C9B 		.ascii	"/\200,\233\322M;\033\177\247sK\332 \370@\231\204x&a"
 456      D24D3B1B 
 456      7FA7734B 
 456      DA20F840 
 456      99847826 
 457 02f2 59E6E51D 		.ascii	"Y\346\345\0352L\300]\231\035\304\002\235\234\200M,\362"
 457      324CC05D 
 457      991DC402 
 457      9D9C804D 
 457      2CF2
 458 0304 409D1295 		.ascii	"@\235\022\225\035\377\373\005EF\010rN\252\305)\271\241"
 458      1DFFFB05 
 458      45460872 
 458      4EAAC529 
 458      B9A1
 459 0316 3FF37651 		.ascii	"?\363vQ\02047\034\262 \342\204\264l\221H'+\342UR\252"
 459      1034371C 
 459      B220E284 
 459      B46C9148 
 459      272BE255 
 460 032c 4C0F6A32 		.ascii	"L\017j2V\310\346\233*\010s\014\250C\332\312\272\257"
 460      56C8E69B 
 460      2A08730C 
 460      A843DACA 
 460      BAAF
 461 033e C5366CB7 		.ascii	"\3056l\267n\036g\352\232$\277\262\006\366\001\237\344"
 461      6E1E67EA 
 461      9A24BFB2 
 461      06F6019F 
 461      E4
 462 034f 079C0D04 		.ascii	"\007\234\015\004\"\363e>\303\202\344[8\311\352\223\364"
 462      22F3653E 
 462      C382E45B 
 462      38C9EA93 
 462      F4
 463 0360 54335B9C 		.ascii	"T3[\234ZY\304\202_\343\221#\002\371\374\226\373d\261"
 463      5A59C482 
 463      5FE39123 
 463      02F9FC96 
 463      FB64B1
 464 0373 8AF10D29 		.ascii	"\212\361\015)U\276\035LH\027\321zYB5\313'l\303:Y\306"
 464      55BE1D4C 
 464      4817D17A 
 464      594235CB 
 464      276CC33A 
 465 0389 65D7FCF9 		.ascii	"e\327\374\371\275\"\3554\253\237\005\263=:d\354\335"
 465      BD22ED34 
 465      AB9F05B3 
 465      3D3A64EC 
ARM GAS  /tmp/ccZb7D2c.s 			page 36


 465      DD
 466 039a 02E76E79 		.ascii	"\002\347ny\305\352s\344v\316\246\025\343^\252\345\320"
 466      C5EA73E4 
 466      76CEA615 
 466      E35EAAE5 
 466      D0
 467 03ab 9C49F9ED 		.ascii	"\234I\371\355\346\273\2704;>\372\260\015\352\264\017"
 467      E6BBB834 
 467      3B3EFAB0 
 467      0DEAB40F 
 468 03bb 0CA79790 		.ascii	"\014\247\227\220\233p\373\262*m\342\033\350\275\366"
 468      9B70FBB2 
 468      2A6DE21B 
 468      E8BDF6
 469 03ca BFE8DD0A 		.ascii	"\277\350\335\012J/\011\201\237\004'\311x=\222\026\225"
 469      4A2F0981 
 469      9F0427C9 
 469      783D9216 
 469      95
 470 03db A4A0F2C3 		.ascii	"\244\240\362\303\355e{\367\222\302I\233\263\243\241"
 470      ED657BF7 
 470      92C2499B 
 470      B3A3A1
 471 03ea 5E4713B2 		.ascii	"^G\023\262@(&\027\003\024q\024\211\304\320\364Y`\216"
 471      40282617 
 471      03147114 
 471      89C4D0F4 
 471      59608E
 472 03fd 537C6A97 		.ascii	"S|j\227n\316~T\216J\307P3\265\027\010B\"\332\211\363"
 472      6ECE7E54 
 472      8E4AC750 
 472      33B51708 
 472      4222DA89 
 473 0412 450C9AFC 		.ascii	"E\014\232\374|\372\365\005\242`\333iC\347\337\351\004"
 473      7CFAF505 
 473      A260DB69 
 473      43E7DFE9 
 473      04
 474 0423 9AE47ED2 		.ascii	"\232\344~\322\026\301\271\325;\213\324\362#\330=v\327"
 474      16C1B9D5 
 474      3B8BD4F2 
 474      23D83D76 
 474      D7
 475 0434 AEF48B6E 		.ascii	"\256\364\213nQxu\326\372\247'\236\222\014R\007\311\333"
 475      517875D6 
 475      FAA7279E 
 475      920C5207 
 475      C9DB
 476 0446 3A9B85DC 		.ascii	":\233\205\334\305\021p\226\331\263\271\314\374\301\306"
 476      C5117096 
 476      D9B3B9CC 
 476      FCC1C6
 477 0455 9C69920E 		.ascii	"\234i\222\016\322v[f\013\302\030\275\352\320`\035\357"
 477      D2765B66 
 477      0BC218BD 
 477      EAD0601D 
 477      EF
ARM GAS  /tmp/ccZb7D2c.s 			page 37


 478 0466 D5BF6B58 		.ascii	"\325\277kX>j\217\320\332\010\262\247\323\326\036\036"
 478      3E6A8FD0 
 478      DA08B2A7 
 478      D3D61E1E 
 479 0476 5D5FA132 		.ascii	"]_\2412H\246f\302\245\3572\253\347\256\005k\203\335"
 479      48A666C2 
 479      A5EF32AB 
 479      E7AE056B 
 479      83DD
 480 0488 7304A167 		.ascii	"s\004\241g\216\373fj}y\023\315{\206\343\003\224\235"
 480      8EFB666A 
 480      7D7913CD 
 480      7B86E303 
 480      949D
 481 049a 50F357D1 		.ascii	"P\363W\321&\216\261\331X\020\347\017\241:41\303\376"
 481      268EB1D9 
 481      5810E70F 
 481      A13A3431 
 481      C3FE
 482 04ac CAC06FA1 		.ascii	"\312\300o\241M\206x\217Zuu\334\243\031k\177\247V?\376"
 482      4D86788F 
 482      5A7575DC 
 482      A3196B7F 
 482      A7563FFE 
 483 04c0 916E188D 		.ascii	"\221n\030\215[U\256J\222\373\311\312\373\373J\335\373"
 483      5B55AE4A 
 483      92FBC9CA 
 483      FBFB4ADD 
 483      FB
 484 04d1 DB578DFB 		.ascii	"\333W\215\373\035\351\253\214\355\262\347\034\177Z\331"
 484      1DE9AB8C 
 484      EDB2E71C 
 484      7F5AD9
 485 04e0 E067A93E 		.ascii	"\340g\251>\264O\317\347\236\331\253\347\365g\367\274"
 485      B44FCFE7 
 485      9ED9ABE7 
 485      F567F7BC 
 486 04f0 DCF27873 		.ascii	"\334\362xsK\363\356\\n\377\201\\wO\356@w!W\330[\354"
 486      4BF3EE5C 
 486      6EFF815C 
 486      774FEE40 
 486      772157D8 
 487 0506 79B3B940 		.ascii	"y\263\271@\224BO\227\262\257\330E{\272|\257\276\362"
 487      94424F97 
 487      B2AFD845 
 487      7BBA7CAF 
 487      BEF2
 488 0518 4657B7BE 		.ascii	"FW\267\276\377?Z\032\314\020"
 488      FF3F5A1A 
 488      CC10
 489              		.text
 490              		.section	.gnu.lto_chMtxUnlockS.b55526f9745bf699,"",%progbits
 491 0000 789CA557 		.ascii	"x\234\245W\335k\034U\024\277gfvw\366s\366{\223>\225"
 491      DD6B1C55 
 491      14BF6766 
 491      7677F673 
 491      F67B933E 
ARM GAS  /tmp/ccZb7D2c.s 			page 38


 492 0015 3E281ACC 		.ascii	">(\032\314\022\254\202\210\370\340\037\240\322,F_$\273"
 492      12AC8288 
 492      F8E01FA0 
 492      D22C465F 
 492      24BB
 493 0027 C876A06B 		.ascii	"\310v\240kc\032\361\243H&\355>\224\322j\260\005\245"
 493      631AF1A3 
 493      4826ED3E 
 493      94D26AB0 
 493      05A5
 494 0039 AB210185 		.ascii	"\253!\001\205 \326\232\224\352\226\252M\260\017\211"
 494      20D69A94 
 494      EA96AA4D 
 494      B00F89
 495 0048 455229D2 		.ascii	"ER)\322&Kt\251h\320\004l\351\203I\033\034\317\375\230"
 495      264B74A9 
 495      68D0046C 
 495      E983491B 
 495      1CCFFD98 
 496 005c D9C966DB 		.ascii	"\331\311f\333\214\355\205\334;s\366\374\316\371\235"
 496      8CED85DC 
 496      3B73F6FC 
 496      CEF99D
 497 006b 8F7B7623 		.ascii	"\217{v#\021\2114\257+\370w6D\310\223\364\245\215\000"
 497      118934AF 
 497      2BF87736 
 497      44C893F4 
 497      A58D00
 498 007e 6A800432 		.ascii	"j\200\0042\356\262\244\020bH\036\334\024\005\360\000"
 498      EEB2A410 
 498      62481EDC 
 498      1405F000 
 499 008e 0F7871F7 		.ascii	"\017xq\367J>*W\251\334\007x\200\012~\334\375R\200\312"
 499      4A3E2A57 
 499      A9DC0778 
 499      800A7EDC 
 499      FD5280CA 
 500 00a2 83541E00 		.ascii	"\203T\036\000< \010h\030BR\230\312#T\036\006< \"iT\222"
 500      3C200868 
 500      18425298 
 500      CA23541E 
 500      063C2022 
 501 00b9 A6120D92 		.ascii	"\246\022\015\222(\211J1*IPIL\212\333\317q\300\003\022"
 501      28894A31 
 501      2A495049 
 501      4C8ADBCF 
 501      71C00312 
 502 00cd 4C272945 		.ascii	"L')E\251<E\345)\310\240$\315\366\014\000R\0072(\311"
 502      A93C45E5 
 502      29C8A024 
 502      CDF60C00 
 502      52073228 
 503 00e2 8AC7EB53 		.ascii	"\212\307\353S\375\201`(\034\321\242\261x\"\231Jg`\360"
 503      FD816028 
 503      1CD1A2B1 
 503      7822994A 
 503      6760F0
ARM GAS  /tmp/ccZb7D2c.s 			page 39


 504 00f5 45FA3989 		.ascii	"E\3729\211\355 c\206\361~\375\323\311J\373\341\321\003"
 504      ED206386 
 504      F17EFDD3 
 504      C94AFBE1 
 504      D103
 505 0107 C3C6BFA6 		.ascii	"\303\306\277\246\011:\375\250\000\244\007\237`;;h\324"
 505      093AFDA8 
 505      00A4079F 
 505      603B3B68 
 505      D4
 506 0118 CEC56153 		.ascii	"\316\305aS\307kG\002\303C\207\014\323\034t\0152&\307"
 506      C76B4702 
 506      C343870C 
 506      D31C740D 
 506      3226C7
 507 012b 0DFFA8B1 		.ascii	"\015\377\250\261n\232\262NS\352\312\321\351\332\017"
 507      6E9AB24E 
 507      53EACAD1 
 507      E9DA0F
 508 013a 6380D8A1 		.ascii	"c\200\330\241\353\246\251\271\347\367m\345#gX\212K\330"
 508      EBA6A9B9 
 508      E7F76DE5 
 508      2367588A 
 508      4BD8
 509 014c E5CA48E6 		.ascii	"\345\312H\346p\335\260`\236\006L\3450h\011[\253|r/\260"
 509      70DDB060 
 509      9E064CE5 
 509      3068095B 
 509      AB7C722F 
 510 0161 DB958F9D 		.ascii	"\333\225\217\235$]\246\3048\366\373s3Fy\3124\237\326"
 510      245DA6C4 
 510      38F6FB73 
 510      334679CA 
 510      349FD6
 511 0174 6907BA0A 		.ascii	"i\007\272\012l\335Y/\267\271?\373\313\210\223\237\317"
 511      6CDD592F 
 511      B7B93FFB 
 511      CB88939F 
 511      CF
 512 0185 6DEE473E 		.ascii	"m\356G>\270\227\226\372g\341\335v\303\221\015\211<\004"
 512      B89796FA 
 512      67E1DD76 
 512      C3910D89 
 512      3C04
 513 0197 EE906B27 		.ascii	"\356\220k'6 \025\211<\262\025\262\004\026\370\347\332"
 513      36201589 
 513      3CB215B2 
 513      0416F8E7 
 513      DA
 514 01a8 F126B75D 		.ascii	"\361&\267].\335.\326\336s\"U\211\354\334\012yJ\232\252"
 514      2EDD2ED6 
 514      DE732255 
 514      89ECDC0A 
 514      794A9AAA 
 515 01bc 9BE6E757 		.ascii	"\233\346\347W\306\256U!\223\001\322\013\247`\007\216"
 515      C6AE5521 
 515      9301D20B 
ARM GAS  /tmp/ccZb7D2c.s 			page 40


 515      A760078E 
 516 01cc A15E388D 		.ascii	"\241^8\215\247,N\005\317\223xz\240\004XaL\241\217n*"
 516      A72C4E05 
 516      CF93787A 
 516      A0045861 
 516      4CA18F6E 
 517 01e1 6EB29F3E 		.ascii	"n\262\237>\005pS\202\270yB\002\022\026\246\"T\250Q\305"
 517      05705382 
 517      B8794202 
 517      1216A622 
 517      54A851C5 
 518 01f5 286EDE18 		.ascii	"(n\336\030}\212\013\235\204\320I\242\320\227\302\227"
 518      7D8A0B9D 
 518      84D049A2 
 518      D097C297 
 519 0205 097C4913 		.ascii	"\011|I\023V!\342!e\303\030\336\316\035s\275\222(\035"
 519      5621E221 
 519      65C318DE 
 519      CE1D73BD 
 519      92281D
 520 0218 AE6EB6E7 		.ascii	"\256n\266\347\3508\224\177$\007\026V\277X\206^8\203"
 520      E838947F 
 520      24071656 
 520      BF58865E 
 520      3883
 521 022a 9D5E04A5 		.ascii	"\235^\004\245\203|f\340z\001]u\220\207u\360W\310\211"
 521      837C66E0 
 521      7A015D75 
 521      908775F0 
 521      57C889
 522 023d 21C388EA 		.ascii	"!\303\210\352\020\330On\031\207\350S\260D\261,'A\226"
 522      10D84F6E 
 522      1987E853 
 522      B044B12C 
 522      274196
 523 0250 89BCB812 		.ascii	"\211\274\270\022y\260\356\306\03498\372]\230[%\304F"
 523      79B0EEC6 
 523      1C3938FA 
 523      5D985B25 
 523      C446
 524 0262 860A4243 		.ascii	"\206\012BC\2070W\314\321\006\226g\310\205\245is\301"
 524      873057CC 
 524      D1069667 
 524      C885A569 
 524      73C1
 525 0274 A6E1E9E1 		.ascii	"\246\341\351\341\367\274\261r\364U\236#\312&\233\221"
 525      F7BCB172 
 525      F4559E23 
 525      CA269B91 
 526 0284 02F0D14F 		.ascii	"\002\360\321O%m:h%Z\012\246\244C\224\243\273\351\233"
 526      256D3A68 
 526      255A0AA6 
 526      A44394A3 
 526      BBE99B
 527 0297 9CA3378C 		.ascii	"\234\2437\214\205<>)[\256\274,L\202a\242\313\030f\240"
 527      853C3E29 
 527      5BAEBC2C 
ARM GAS  /tmp/ccZb7D2c.s 			page 41


 527      4C8261A2 
 527      CB1866A0 
 528 02ab 87DF5E16 		.ascii	"\207\337^\026\216\365\235B\371\331\344\274=\374\"8\311"
 528      8EF59D42 
 528      F9D9E4BC 
 528      3DFC2238 
 528      C9
 529 02bc F9EE8B9C 		.ascii	"\371\356\213\234\312\310\371\005\271\231\0069\237\033"
 529      CAC8F905 
 529      B9990639 
 529      9F1B
 530 02ca 728879C9 		.ascii	"r\210y\311\002\250\014 s@\034\0154\270\346\005\220F"
 530      02A80C20 
 530      73401C0D 
 530      34B8E605 
 530      9046
 531 02dc 535EB1A3 		.ascii	"S^\261\243Q\213\316D\347 p_\221\004Y$!\021I\365\253"
 531      518BCE44 
 531      E720705F 
 531      91045924 
 531      211149F5 
 532 02f1 0ECB8DDF 		.ascii	"\016\313\215\337]\232\035\304\374EF\300&\026\276\017"
 532      5D9A1DC4 
 532      FC4546C0 
 532      2616BE0F 
 533 0301 6239FADD 		.ascii	"b9\372\335\314(]\375\372{;\273\001\306I\341\234\022"
 533      CC285DFD 
 533      FA7B3BBB 
 533      01C649E1 
 533      9C12
 534 0313 1BBA2E6F 		.ascii	"\033\272.o'\005A\263\303A\016\021\227\243k\213@\212"
 534      270541B3 
 534      C3410E11 
 534      97A36B8B 
 534      408A
 535 0325 348973A4 		.ascii	"4\211s\244\\\377\363\250f\371\012\332|\223\005\241\216"
 535      5CFFF3A8 
 535      66F90ADA 
 535      7C9305A1 
 535      8E
 536 0336 0E7548F1 		.ascii	"\016uH\361\250\207\272l\305\036\376\245\343\014]\263"
 536      A887BA6C 
 536      C51EFEA5 
 536      E30C5DB3 
 537 0346 C89FBB0D 		.ascii	"\310\237\273\015\366\335\236`w\233\316\002b\305Km\206"
 537      F6DD9E60 
 537      779BCE02 
 537      62C54B6D 
 537      86
 538 0357 04C9B770 		.ascii	"\004\311\267p\210\265&\351iD\266\260z\256\206\011\277"
 538      88B526E9 
 538      6944B6B0 
 538      7AAE8609 
 538      BF
 539 0368 C43C8705 		.ascii	"\304<\207\005\362\371-\353\304YEYA\312\365\365\243q"
 539      F2F92DEB 
 539      C4594559 
ARM GAS  /tmp/ccZb7D2c.s 			page 42


 539      41CAF5F5 
 539      A371
 540 037a CB44A455 		.ascii	"\313D\244U\224\320\210\362\011[\261E\2241\253k\316_"
 540      94D088F2 
 540      095BB145 
 540      9431AB6B 
 540      CE5F
 541 038c 962D3D8D 		.ascii	"\226-=\215\367\263`\266K\207\264]-pV\313+N\237#\266"
 541      F7B360B6 
 541      4B87B45D 
 541      2D7056CB 
 541      2B4E9F23 
 542 03a1 2F6D5A51 		.ascii	"/mZQf\245\221\016\315\031\224j7\337\205?\246\327*\017"
 542      66A5910E 
 542      CD19946A 
 542      37DF853F 
 542      A6D72A0F 
 543 03b5 DAA0A27D 		.ascii	"\332\240\242}a\030\275\270U\204\363\027\025K'\266\201"
 543      6118BDB8 
 543      5584F317 
 543      154B27B6 
 543      81
 544 03c6 DE6BFF8B 		.ascii	"\336k\377\213\336\365\200e%.\360\023\340$\031kE\222"
 544      DEF58065 
 544      252EF013 
 544      E024196B 
 544      4592
 545 03d8 5349082A 		.ascii	"SI\010*\037^[\266\253\227\020Fr\316\216\206V\035M\310"
 545      1F5E5BB6 
 545      AB971046 
 545      72CE8E86 
 545      561D4DC8 
 546 03ec 3C9130B8 		.ascii	"<\2210\270(\340\026\303-\036_\371\365$P\303I6\213\313"
 546      28E016C3 
 546      2D1E5FF9 
 546      F52450C3 
 546      49368BCB 
 547 0400 2BD3376A 		.ascii	"+\3237j\021\31304\315\342y\202\220\260\266\276XB\247"
 547      11CB3034 
 547      CDE27982 
 547      90B0B6BE 
 547      5842A7
 548 0413 8923375E 		.ascii	"\211#7^\237'2\266\235\266\262\370N\021\244\004\263\223"
 548      9F2732B6 
 548      9DB6B2F8 
 548      4E11A404 
 548      B393
 549 0425 E20467AB 		.ascii	"\342\004g\253\277\325$nG\260{\354\216]\251\212n\221"
 549      BFD5246E 
 549      47B07BEC 
 549      8E5DA98A 
 549      6E91
 550 0437 59766E1D 		.ascii	"Yvn\035\274\371\315S\026\203\344~\362\266Ng!3q\014\234"
 550      BCF9CD53 
 550      1683E47E 
 550      F2B64E67 
 550      2133710C 
ARM GAS  /tmp/ccZb7D2c.s 			page 43


 551 044c 69F66C4E 		.ascii	"i\366lN3[\330\230S\333,\003)\273-3\005\241\214Vuh\343"
 551      335BD898 
 551      53DB2C03 
 551      29BB2D33 
 551      05A18C56 
 552 0463 D7BBBAD4 		.ascii	"\327\273\272\324\304\362Q{\2046{\260z:\305kxu\351\246"
 552      C4F2517B 
 552      84367BB0 
 552      7A3AC56B 
 552      7875E9A6 
 553 0477 64394937 		.ascii	"d9I7M\270\324\035f\365\354\245@\263\263\273\216 \264"
 553      4DB8D41D 
 553      66F5ECA5 
 553      40B3B3BB 
 553      8E20B4
 554 048a CC701757 		.ascii	"\314p\027W\227\2267\321\274\253;6@\351\015\035\377["
 554      979637D1 
 554      BCAB3B36 
 554      40E90D1D 
 554      FF5B
 555 049c B489636C 		.ascii	"\264\211cl\266\027\304\375C\250\016\333\254\326J\363"
 555      B617C4FD 
 555      43A80EDB 
 555      ACD64AF3 
 556 04ac CA5557FF 		.ascii	"\312UW\377\24299\343>'\015\367\314\016\376\367\"\377"
 556      A23939E3 
 556      3E270DF7 
 556      CC0EFEF7 
 556      22FF
 557 04be 4486EAD5 		.ascii	"D\206\352\325\254=\233\330\352\246?\000(\275\007\366"
 557      AC3D9BD8 
 557      EAA63F00 
 557      28BD07F6 
 558 04ce E8F9EC33 		.ascii	"\350\371\3543\273\365\274\376\354\256\227\273\036\357"
 558      BBF5BCFE 
 558      ECAE97BB 
 558      1EEF
 559 04dc ECEADC99 		.ascii	"\354\352\334\231\315\356\335\227\355\037\310\356\353"
 559      CDEEDD97 
 559      ED1FC8EE 
 559      EB
 560 04e9 2F640BBB 		.ascii	"/d\013\273K\003ov\026\210\\\030\350\223\367\224\372"
 560      4B036F76 
 560      16885C18 
 560      E893F794 
 560      FA
 561 04fa A4813EDF 		.ascii	"\244\201>\337\253\257\274\321\327\257\357\375\017\311"
 561      ABAFBCD1 
 561      D7AFEFFD 
 561      0FC9
 562 0508 6ABC07   		.ascii	"j\274\007"
 563              		.text
 564              		.section	.gnu.lto_chMtxUnlockAll.b55526f9745bf699,"",%progbits
 565 0000 789C9D54 		.ascii	"x\234\235TKO\023Q\024>\347\316\253\017\021|\207\035"
 565      4B4F1351 
 565      143EE7CE 
 565      AB0F117C 
ARM GAS  /tmp/ccZb7D2c.s 			page 44


 565      871D
 566 0012 6161A244 		.ascii	"aa\242D*F\364\007\370\0034\021bY\231v\026e\022\211("
 566      2A46F407 
 566      F8033411 
 566      62599976 
 566      16651289 
 567 0027 5D105930 		.ascii	"]\020Y0@\027\332\205\022\203\021\037\244\2700\032BD"
 567      4017DA85 
 567      1283111F 
 567      A4B8301A 
 567      4244
 568 0039 368821D1 		.ascii	"6\210!\321&l$\306\240\351Bb4\3245\262\"A,J=\367\336"
 568      266C24C6 
 568      A0E94262 
 568      34D435B2 
 568      22412C4A 
 569 0050 99E9A416 		.ascii	"\231\351\244\026h\274Io\357\314\234\357\373\316\375"
 569      68BC496F 
 569      EFCC9CEF 
 569      FBCEFD
 570 005f EE399701 		.ascii	"\3569\227\001\203\362q\201~c\006\300)\376\020\004\244"
 570      83F27181 
 570      7E6306C0 
 570      29FE1004 
 570      A4
 571 0070 08644C01 		.ascii	"\010dL\001\260Y\200&Ua*_k|\255\242N_51\3532\306\340"
 571      B0598026 
 571      55612A5F 
 571      6B7CADA2 
 571      4E5F3531 
 572 0088 EF0DA450 		.ascii	"\357\015\244P\014 \022\005B?STM7\002\330\337\301_@\250"
 572      0C201205 
 572      423F5354 
 572      4D3702D8 
 572      DFC15F40 
 573 009d 119ED8F6 		.ascii	"\021\236\330\366\335\374\323\365\034>\030\311\246\306"
 573      DDFCD3F5 
 573      1C3E18C9 
 573      A6C6
 574 00ab EDDFC522 		.ascii	"\355\337\305\"\242\305?\232\010QZa\203\370\343R\376"
 574      A2C53F9A 
 574      08515A61 
 574      83F8E352 
 574      FE
 575 00bc 2181D9D7 		.ascii	"!\201\331\327\231\261\372\364\370\340\260\275E8\013"
 575      99B1FAF4 
 575      F8E0B0BD 
 575      45380B
 576 00cb 952A6173 		.ascii	"\225*as\231\314\221t\336vaj\011\026\2200\254\010\313"
 576      99CC9174 
 576      DE76616A 
 576      09169030 
 576      AC08CB
 577 00de 2D4FFAD5 		.ascii	"-O\372\325\264*\325>g\036\373a\325\356msy\344\177`\177"
 577      B42AD53E 
 577      671EFB61 
 577      D5EE6D73 
ARM GAS  /tmp/ccZb7D2c.s 			page 45


 577      79E47F60 
 578 00f3 32F7FD30 		.ascii	"2\367\3750\275J\330\330\362\355z\273\0043\030\034\303"
 578      BD4AD8D8 
 578      F2ED7ABB 
 578      0433181C 
 578      C3
 579 0104 EA90AF32 		.ascii	"\352\220\2572#~\244\302\340D\225\310\334\362\2752\315"
 579      237EA4C2 
 579      E04495C8 
 579      DCF2BD32 
 579      CD
 580 0115 93BB21A7 		.ascii	"\223\273!\247X6_,~\375\265\372=\215\243,\214\020\303"
 580      58365F2C 
 580      7EFDB5FA 
 580      3D8DA32C 
 580      8C10C3
 581 0128 E7D848C5 		.ascii	"\347\330H\305K\006)\3640A\017*=(\032M\252N\223f\320"
 581      4B0629F4 
 581      30410F2A 
 581      3D281A4D 
 581      AA4E9366 
 582 013d EB497A1D 		.ascii	"\353Iz\035\3401A>\205@\370\002\032\244l{\270AR\010\237"
 582      E031413E 
 582      8540F802 
 582      1AA46C7B 
 582      B8415208 
 583 0152 68B489B9 		.ascii	"h\264\211\271\235W\273\362\001\006\277,\255\255`\014"
 583      9D57BBF2 
 583      0106BF2C 
 583      ADAD600C 
 584 0162 5FD06927 		.ascii	"_\320i'\020\233`\302\246q\211\222m\202\343\026\006\036"
 584      109B60C2 
 584      A6718992 
 584      6D82E316 
 584      061E
 585 0174 C1C301DB 		.ascii	"\301\303\001\333\256\2630\330\007\005\373&_\205\272"
 585      AEB330D8 
 585      0705FB26 
 585      5F85BA
 586 0183 0403CF3E 		.ascii	"\004\003\317>$r\216;\325\024G\267\254\026a(\277t\307"
 586      24728E3B 
 586      D51447B7 
 586      AC166128 
 586      BF74C7
 587 0196 90B4001E 		.ascii	"\220\264\000\0364l:!\026\356\001\340\352\263\324\031"
 587      346C3A21 
 587      16EE01E0 
 587      EAB3D419 
 588 01a6 AE3A1392 		.ascii	"\256:\023\222@\222D]C\331p\011\303\241v\333\367\035"
 588      4092445D 
 588      43D97009 
 588      C3A176DB 
 588      F71D
 589 01b8 A47E0CD4 		.ascii	"\244~\014\324x\220\250\254\234\322h\347M\"6\266\261"
 589      7890A8AC 
 589      9CD268E7 
 589      4D2236B6 
ARM GAS  /tmp/ccZb7D2c.s 			page 46


 589      B1
 590 01c9 3ECF3C07 		.ascii	">\317<\007&\204\003nB\204T\234\255^\333U\221s\215\376"
 590      2684036E 
 590      4284549C 
 590      AD5EDB55 
 590      91738DFE 
 591 01dd CC29319C 		.ascii	"\314)1\234\021\232\252HS\221\240\275\304\024\225\235"
 591      119AAA48 
 591      5391A0BD 
 591      C414959D 
 592 01ed 29404A09 		.ascii	")@J\011\264\3601,!\216R\353.J\011\336\247\213\220\312"
 592      B4F0312C 
 592      218E52EB 
 592      2E4A09DE 
 592      A78B90CA 
 593 0201 7F5BAC75 		.ascii	"\177[\254u\2654\317\272Z\323\013S,\254s\214h\365\002"
 593      B534CFBA 
 593      5AD30B53 
 593      2CAC738C 
 593      68F502
 594 0214 A3B2CFFD 		.ascii	"\243\262\317\375F\250\322\210\302\320\263\267\035\236"
 594      46A8D288 
 594      C2D0B3B7 
 594      1D9E
 595 0222 11938E11 		.ascii	"\021\223\216\0213\256\021z\037\334\240*r\222\234#\232"
 595      33AE117A 
 595      1FDCA02A 
 595      72929C23 
 595      9A
 596 0233 7D95B7E6 		.ascii	"}\225\267\346c\247,\263M1|#\244\015/\307\375\246\023"
 596      63A72CB3 
 596      4D317C23 
 596      A40D2FC7 
 596      FDA613
 597 0246 4CAC161E 		.ascii	"L\254\026\036\220.,\025V\230\014u$\316\322\306++h\016"
 597      902E2C15 
 597      56980C75 
 597      24CED2C6 
 597      2B2B680E 
 598 025a D890A66F 		.ascii	"\330\220\246o\024\346\025W$PV\033\3066'\2650\034.\027"
 598      14E61557 
 598      2450561B 
 598      C63627B5 
 598      301C2E17 
 599 026e DBF1A412 		.ascii	"\333\361\244\022\374\376\346\270\321\315\315\177\322"
 599      FCFEE6B8 
 599      D1CDCD7F 
 599      D2
 600 027b DC512EC1 		.ascii	"\334Q.\301\031\370q\255N\351\022\350+\364\203\246c\027"
 600      19F871AD 
 600      4EE912E8 
 600      2BF483A6 
 600      6317
 601 028d 412D3CE4 		.ascii	"A-<\344\236\210&Odvc\213{2S\275'%y\301\243;%>[|\317"
 601      9E88264F 
 601      6476638B 
 601      7B3253BD 
ARM GAS  /tmp/ccZb7D2c.s 			page 47


 601      272579C1 
 602 02a8 DC560856 		.ascii	"\334V\010V\335=a\017R\241{\014\367Z(\256y\324!A}\270"
 602      DD3D610F 
 602      52A17B0C 
 602      F75A28AE 
 602      79D42141 
 603 02be 32B5EE33 		.ascii	"2\265\3563\377eHB\234]\265l\0132\034sB\362\256(N\205"
 603      FF654842 
 603      9C5DB56C 
 603      0B321C73 
 603      42F2AE28 
 604 02d4 2BDD1572 		.ascii	"+\335\025r\357\342\256\220\311\321Y)<\376\326to\245"
 604      EFE2AE90 
 604      C9D15929 
 604      3CFED674 
 604      6FA5
 605 02e6 78BD14FF 		.ascii	"x\275\024\377\011\006\362\351i\325kx1\332\370\355\303"
 605      0906F2E9 
 605      69D56B78 
 605      31DAF8ED 
 605      C3
 606 02f7 AD387AC5 		.ascii	"\2558z\305\212G\316uZq\353\374\305\313-g\232[\232OG"
 606      8A47CE75 
 606      5A71EBFC 
 606      C5CB2D67 
 606      9A5B9A4F 
 607 030c 22577B22 		.ascii	"\"W{\"\327\223\221\236\353f\304\354\354J\3666\233\240"
 607      D793919E 
 607      EB66C4EC 
 607      EC4AF636 
 607      9BA0
 608 031e 98C96ED6 		.ascii	"\230\311n\326\325\315\222\335\177\001+\303\265F"
 608      D5CD92DD 
 608      7F012BC3 
 608      B546
 609              		.text
 610              		.section	.gnu.lto_.symbol_nodes.b55526f9745bf699,"",%progbits
 611 0000 789C4D90 		.ascii	"x\234M\220\313n\323P\020\206g\306qlpj\022b\016n\323"
 611      CB6ED350 
 611      108667C6 
 611      716C706A 
 611      12620E6E 
 612 0015 4B78349E 		.ascii	"Kx4\236d\322\004\232\010$@ *$\204*5\213\3669\222}\227"
 612      64D2049A 
 612      08244020 
 612      2A24842A 
 612      358BF639 
 613 002c 5D83BB65 		.ascii	"]\203\273e\303\245-\327\2263\236\021\347x\363\371\033"
 613      C3A52DD7 
 613      96339E11 
 613      E778F3F9 
 613      1B
 614 003d FF67F29F 		.ascii	"\377g\362\237\020\020\314\023\320\207n\201\001^\235"
 614      1010CC13 
 614      D0876E81 
 614      015E9D
 615 004c 0130BF5D 		.ascii	"\0010\277]<\246\0112Fz\210L\221\276CN\"}\217\334\211"
ARM GAS  /tmp/ccZb7D2c.s 			page 48


 615      3CA60932 
 615      467A884C 
 615      91BE434E 
 615      227D8FDC 
 616 0061 F403721A 		.ascii	"\364\003r\032\351\021r7\322\023\344,\322S\344<hz\213"
 616      E9117237 
 616      D213E42C 
 616      D253E43C 
 616      687A8B
 617 0074 FE0DD209 		.ascii	"\376\015\322\011a\207\023:G\276\023e\277 \3375=_`\372"
 617      6187133A 
 617      47BE1365 
 617      BF20DF35 
 617      3D5F60FA 
 618 0088 0B4942DF 		.ascii	"\013IB\337\220\213h:\245D\246_\221{aJ\227\310\033Q\350"
 618      908B683A 
 618      A544A65F 
 618      917B614A 
 618      97C81B51 
 619 009d 297524F4 		.ascii	")u$\364\035\271\214BW\310\367\242\320\001\245\022\272"
 619      1DB98C42 
 619      57C8F7A2 
 619      D001A512 
 619      BA
 620 00ae 46EE47D3 		.ascii	"F\356G\323\005ue\372\003y\020\246\370\007\371\276\352"
 620      057565FA 
 620      037910A6 
 620      F807F9BE 
 620      EA
 621 00bf 6482F81B 		.ascii	"d\202\370\033y\030\354'r\025\354\006\371A\260\277\310"
 621      7918EC27 
 621      7215EC06 
 621      F941B0BF 
 621      C8
 622 00d0 2ED83EF1 		.ascii	".\330>\361\303`O\210\353`3\342\315`s\342\255\377\226"
 622      C3604F88 
 622      EB6033E2 
 622      CD6073E2 
 622      ADFF96
 623 00e3 6400D38F 		.ascii	"d\000\323\2177\236[\260l\271\011ka\276\003\263\226\333"
 623      379E5BB0 
 623      6CB9096B 
 623      61BE03B3 
 623      96DB
 624 00f5 3ACF47B0 		.ascii	":\317G\260<\370\274\227\344\010+a\261\253\337\213\004"
 624      3CF8BC97 
 624      E4082B61 
 624      B1ABDF8B 
 624      04
 625 0106 56C2DE48 		.ascii	"V\302\336Hs=\202FX\356\252\227#\270h\331\205\343\271"
 625      733D8246 
 625      58EEAA97 
 625      23B868D9 
 625      85E3B9
 626 0119 3F577660 		.ascii	"?Wv`\372L\350\375\271\371\013\365\246\345\030f/u\276"
 626      FA4CE8FD 
 626      B9F90BF5 
ARM GAS  /tmp/ccZb7D2c.s 			page 49


 626      A6E51866 
 626      2F75BE
 627 012c 7A2DDC83 		.ascii	"z-\334\203\331\033\241\337c\\\037z\3663\355\335/\341"
 627      D91BA1DF 
 627      635C1F7A 
 627      F633EDDD 
 627      2FE1
 628 013e B865AE3D 		.ascii	"\270e\256=\006\326k0\322{\014-7\034hnh\271\312\276W"
 628      06D66B30 
 628      D27B0C2D 
 628      371C686E 
 628      68B9CABE 
 629 0153 99F615FF 		.ascii	"\231\366\025\377d\224\373y.\245oUh_\241\364\255Rh\244"
 629      6494FB79 
 629      2EA56F55 
 629      685FA1F4 
 629      AD5268A4 
 630 0167 5F35D65E 		.ascii	"_5\326^\325#X\266\314\241\021:\273\267\263{;\333\353"
 630      D52358B6 
 630      CCA1113A 
 630      BBB7B37B 
 630      3BDBEB
 631 017a 6CAFB3BD 		.ascii	"l\257\263\275\316\366:\333\353l\257\263\275u\246}\353"
 631      CEF63ADB 
 631      EB6CAFB3 
 631      BD75A67D 
 631      EB
 632 018b 021A395F 		.ascii	"\002\0329_\247\372\277\327c\270\220\363\265\377]9W\373"
 632      A7FABFD7 
 632      63B890F3 
 632      B5FF5D39 
 632      57FB
 633 019d FB78C23F 		.ascii	"\373x\302?!\373\035\035"
 633      21FB1D1D 
 634              		.text
 635              		.section	.gnu.lto_.refs.b55526f9745bf699,"",%progbits
 636 0000 789C6362 		.ascii	"x\234cb`bpd\200\000V\016\006N&N\006 d\342b\344a\342"
 636      60627064 
 636      8000560E 
 636      064E264E 
 636      062064E2 
 637 0018 65E103B2 		.ascii	"e\341\003\262\370A\220E\220I\210\001,\303*\002\024\023"
 637      F8419045 
 637      90498801 
 637      2CC32A02 
 637      1413
 638 002a 85405631 		.ascii	"\205@V1 [\034\002\031%\200\262\000P_\002["
 638      205B1C02 
 638      192580B2 
 638      00505F02 
 638      5B
 639              		.text
 640              		.section	.gnu.lto_.decls.b55526f9745bf699,"",%progbits
 641 0000 789CBD5C 		.ascii	"x\234\275\\\013p\024\307\231\236\231]\275\205\020pv"
 641      0B7014C7 
 641      999E995D 
 641      BD851070 
ARM GAS  /tmp/ccZb7D2c.s 			page 50


 641      76
 642 0011 E0E2C44A 		.ascii	"\340\342\304J*I\345\234;\003\361\013W.\361\203$\306"
 642      2A49E59C 
 642      3B03F10B 
 642      572EF183 
 642      24C6
 643 0023 57E72467 		.ascii	"W\347$g\316U\251J\345\326\243\325\2006\336\225\326\273"
 643      CE55A94A 
 643      E5D6A3D5 
 643      8036DE95 
 643      D6BB
 644 0035 23305775 		.ascii	"#0Wu\345\221@\002\003\266%\304\333<dl0/\033,!\014X\202"
 644      E5914002 
 644      03B625C4 
 644      DB3C646C 
 644      302F1B2C 
 645 004d C106010A 		.ascii	"\301\006\001\0126o$\204-\004\341acc\300 \260\260\215"
 645      366F2484 
 645      2D04E161 
 645      6363C020 
 645      B0B08D
 646 0060 EEEF7F7A 		.ascii	"\356\357\177zfgzgV3\262\223\255\352\236\336\231\356"
 646      66677A67 
 646      5633B293 
 646      ADEA9EDE 
 646      99EE
 647 0072 AFFF77F7 		.ascii	"\257\377w\367t\367\256\300\011\334\246L\216\353\205"
 647      74F7AEC0 
 647      09DCA64C 
 647      8EEB85
 648 0081 4FFB131C 		.ascii	"O\373\023\034\367Y\026\307\015\3418\356W\\\342\363]"
 648      F75916C7 
 648      0DE138EE 
 648      575CE2F3 
 648      5D
 649 0092 482F435A 		.ascii	"H/CZ\001i\025\244J\236\343\252!-\200\264\024\322rH+"
 649      016915A4 
 649      4A9EE3AA 
 649      212D80B4 
 649      14D27248 
 650 00a7 21AD8154 		.ascii	"!\255\201T\017i\023\244&H*\244\035\220vC\332\013i?\244"
 650      0F6913A4 
 650      26482AA4 
 650      1D907643 
 650      DA0B693F 
 651 00bc 43908E40 		.ascii	"C\220\216@j\203t\034\322\207\220N@:\011\351\014\244"
 651      6A83741C 
 651      D287904E 
 651      403A09E9 
 651      0CA4
 652 00ce 739032A0 		.ascii	"s\2202\240\217\217\341:A\340\270\377\2034\031\322s\220"
 652      8F8FE13A 
 652      41E0B8FF 
 652      833419D2 
 652      7390
 653 00e0 5E84344B 		.ascii	"^\2044K\340,\037BW\032\244w!\345A\312\2054\037\352,"
 653      E02C1F42 
ARM GAS  /tmp/ccZb7D2c.s 			page 51


 653      571AA477 
 653      21E541CA 
 653      85341FEA 
 654 00f5 A4F5045A 		.ascii	"\244\365\004Zg\021\323\216\243\374\364\325v\205C[\""
 654      6711D38E 
 654      A3FCF4D5 
 654      7685435B 
 654      22
 655 0106 071FA40D 		.ascii	"\007\037\244\015\220^\207\264\226\326o\200\244\000\355"
 655      905E87B4 
 655      96D66F80 
 655      A400ED
 656 0115 3CAD43AE 		.ascii	"<\255C\256\025\274\265m%\345q*\237\350\227\340,\007"
 656      15BCB56D 
 656      25E5712A 
 656      9FE897E0 
 656      2C07
 657 0127 8099706F 		.ascii	"\200\231po\006m\337@\333\223\372\004\373\005\270\256"
 657      066DDF40 
 657      DB93FA04 
 657      FB05B8AE 
 658 0137 6068217A 		.ascii	"`h!zH\3474<3V#$\225\322\3706\244m\220\232)^5\305\233"
 658      48E7343C 
 658      33562324 
 658      95D2F836 
 658      A46D909A 
 659 0150 07D7390C 		.ascii	"\007\3279\014m\013(\336\006\023\236\316_#\305k\240\230"
 659      6D0B28DE 
 659      06139ECE 
 659      5F23C56B 
 659      A098
 660 0162 3ADE028A 		.ascii	":\336\002\212\267\030\256\2571\364\021\373\3603x\215"
 660      B718AEAF 
 660      31F411FB 
 660      F033788D 
 661 0172 5456CD14 		.ascii	"TV\315\024\207\247\365\310\275W\210-1\030\313\351\263"
 661      87A7F5C8 
 661      BD57882D 
 661      3118CBE9 
 661      B3
 662 0183 55902DA3 		.ascii	"U\220-\243\367\374\364>\321\355\021jW\354\207\330d>"
 662      F7FCF43E 
 662      D1ED116A 
 662      57EC87D8 
 662      643E
 663 0195 D3778609 		.ascii	"\323w\206\011\207\360u\031\352\234\207\264Z\320xT)}"
 663      87F07519 
 663      EA9C87B4 
 663      5AD07854 
 663      297D
 664 01a7 6BC87748 		.ascii	"k\310wH\355\274f#\227\340z\235\247:\0214y\246\321>>"
 664      EDBC6623 
 664      97E07A9D 
 664      A73A1134 
 664      79A6D13E 
 665 01bc A4B64C6C 		.ascii	"\244\266Llz\005\345\215\330\356\307\014M\304?r8\253"
 665      7A05E58D 
ARM GAS  /tmp/ccZb7D2c.s 			page 52


 665      D8EEC70C 
 665      4DC43F72 
 665      38AB
 666 01ce DED732F4 		.ascii	"\336\3272\364\374\026\236\375\006\322\353p\257\212\332"
 666      FC169EFD 
 666      06D2EB70 
 666      AF8ADA
 667 01dd C183BC26 		.ascii	"\301\203\274&\3675\324Wt{X\007\3277\030Y\021\377\323"
 667      F735D457 
 667      747B5807 
 667      D7371859 
 667      11FFD3
 668 01f0 71F53E08 		.ascii	"q\365>\010\036\341g\035\345G\357g=|_M\345#\320~\036"
 668      1EE1671D 
 668      E547EF67 
 668      3D7C5F4D 
 668      E523D07E 
 669 0205 A67DD553 		.ascii	"\246}\325S~V\321g\304\01772\374\020?\277\335F\276<\325"
 669      7E56D167 
 669      C40F3732 
 669      FC103FBF 
 669      DD46BE3C 
 670 021a CFBFF31A 		.ascii	"\317\277\363\032\035f\031\353\274\3524\275Ii\"\364\350"
 670      1D6619EB 
 670      BCEA34BD 
 670      496922F4 
 670      E8
 671 022b B217782D 		.ascii	"\262\027x-\376\324\303\263:(\177\207\322\374K\"\177"
 671      FED4C3B3 
 671      3A287F87 
 671      D2FC4B22 
 671      7F
 672 023c B85703D7 		.ascii	"\270W\003\327\015p=\005\327l\252\033\242\023B;\321\013"
 672      0D703D05 
 672      D76CAA1B 
 672      A213423B 
 672      D10B
 673 024e 0FD75B21 		.ascii	"\017\327[!\375\202\327xz\022\322\257\251\317m\2422l"
 673      FD82D778 
 673      7A12D2AF 
 673      A9CF6DA2 
 673      326C
 674 0260 A3B1AB9A 		.ascii	"\243\261\253\232\306\235\223\3649\2115[xMw\215\204g"
 674      C69D93F4 
 674      3989355B 
 674      784D778D 
 674      8467
 675 0272 486F41DA 		.ascii	"HoA\332\304\310\271\211\332\265\316\317f\2706\360\011"
 675      C4C8B989 
 675      DAB5CECF 
 675      66B836F0 
 675      09
 676 0283 DB6CA271 		.ascii	"\333l\242qq\023\215\215\344\321VF~\252\215}\022\333"
 676      71138D8D 
 676      E4D15646 
 676      7EAA8D7D 
 676      12DB
ARM GAS  /tmp/ccZb7D2c.s 			page 53


 677 0295 207263E5 		.ascii	" rc\345\264\305$'\263<\033\251\035\022\336u9\350\374"
 677      B4C52427 
 677      B33C1BA9 
 677      1D12DE75 
 677      39E8FC
 678 02a8 FA681F3A 		.ascii	"\372h\037:\277\204.\022G\337\241\374\275\315\360\264"
 678      BF842E12 
 678      47DFA1FC 
 678      BDCDF0B4 
 679 02b8 C3262EE9 		.ascii	"\303&.\351t4\021\1770\361\267\203\362\247R\376\010T"
 679      7434117F 
 679      30F1B783 
 679      F2A752FE 
 679      0854
 680 02ca 0B5C9B19 		.ascii	"\013\\\233\031L\022\373\277Km\301\034\237\010_Si\177"
 680      4C12FBBF 
 680      4B6DC11C 
 680      9F085F53 
 680      697F
 681 02dc BADF99F9 		.ascii	"\272\337\231\3712\373\237NC#\265\001\"\003\235\036b"
 681      32FB9F4E 
 681      4323B501 
 681      22039D1E 
 681      62
 682 02ed 175B49CC 		.ascii	"\027[I\314\346\023\366\222\305Ye\3610\225G!\265\007"
 682      E613F692 
 682      C55965F1 
 682      30954721 
 682      B507
 683 02ff E2C3C44E 		.ascii	"\342\303\304N2)}m\224\027\342_\013\370\3048\264\222"
 683      32297D6D 
 683      9417E25F 
 683      0BF8C438 
 683      B492
 684 0311 CA908C3B 		.ascii	"\312\220\214;\255|\262?\357\355'o:?\204\307m\224\307"
 684      AD7CB23F 
 684      EFED276F 
 684      3A3F84C7 
 684      6D94C7
 685 0324 6F9BB774 		.ascii	"o\233\267tJ\237\256{3o\204'2\216\276o\303\023\031\243"
 685      4A9FAE7B 
 685      336F8427 
 685      328EBE6F 
 685      C31319A3 
 686 0338 BFC3F0A4 		.ascii	"\277\303\360\244\363Cx\311\240<\332\361Cx\350\213~\225"
 686      F34378C9 
 686      A03CDAF1 
 686      4378E88B 
 686      7E95
 687 034a CA9DB555 		.ascii	"\312\235\265U=\366\024R\037\316\240\2648\351\205\220"
 687      3DF61452 
 687      1FCEA0B4 
 687      38E98590 
 688 035a CDD27E3B 		.ascii	"\315\322~;\267DQ\367wU\236\375\233\260@Q\247(0\245Q"
 688      B74451F7 
 688      77559EFD 
 688      9BB04051 
ARM GAS  /tmp/ccZb7D2c.s 			page 54


 688      A72830A5 
 689 036f F8825BB9 		.ascii	"\370\202[\2719\012|\352\252\024\205\227E\376W\267p\177"
 689      390A7CEA 
 689      AA148597 
 689      45FE57B7 
 689      707F
 690 0381 E4453E2F 		.ascii	"\344E>/\213+\300Bn\026\3323\307\211\3742\376VZz\302"
 690      8B2BC042 
 690      6E16DA33 
 690      C789FC32 
 690      FE565A7A 
 691 0396 A7210ADC 		.ascii	"\247!\012\334}<w\007\267\012\332W+\312\262\0372\035"
 691      7D3C7707 
 691      B70ADA57 
 691      2BCAB21F 
 691      321D
 692 03a8 D2CF4FB8 		.ascii	"\322\317O\270\345\244\007e\245\342C|\202\3602\177\273"
 692      E5A40765 
 692      A5E2437C 
 692      82F0327F 
 692      BB
 693 03b9 B98AC8BF 		.ascii	"\271\212\310\277\302[<C\243U\255>\221[]\336\325\333"
 693      C25B3C43 
 693      A355AD3E 
 693      915B5DDE 
 693      D5DB
 694 03cb BBB42E5F 		.ascii	"\273\264._\353_\340\306\360P\373U\376\216\224\360+X"
 694      EB5FE0C6 
 694      F050FB55 
 694      FE8E94F0 
 694      2B58
 695 03dd F8D7ECE0 		.ascii	"\370\327\354\340\273\332\253>\034\326/Q\254\246\242"
 695      BBDAAB3E 
 695      1CD62F51 
 695      ACA6A2
 696 03ec F0A163C3 		.ascii	"\360\241c\303\2505]Q*H\3031\273\363\006s5\004\245`7"
 696      A8355D51 
 696      2A48C331 
 696      BBF30673 
 696      3504A560 
 697 0401 D8076DFF 		.ascii	"\330\007m\377\240\336\236\250\366\307\334\253 \256\256"
 697      A0DE9EA8 
 697      F6C7DCAB 
 697      20AEAE
 698 0410 9AE9876B 		.ascii	"\232\351\207k\370)\320\223\310\277\316\017\006\234\365"
 698      F829D093 
 698      C8BFCE0F 
 698      069CF5
 699 041f BC95338A 		.ascii	"\274\2253\212S\367\240\023\220\000\321\2054Y\017\315"
 699      53F7A013 
 699      9000D185 
 699      34590FCD 
 700 042f B58608AD 		.ascii	"\265\206\010\255t\035k\271^\301\227#4y\3061\0023}~\300"
 700      741D6BB9 
 700      5EC19723 
 700      3479C631 
 700      02337D7E 
ARM GAS  /tmp/ccZb7D2c.s 			page 55


 701 0444 D501E1EA 		.ascii	"\325\001\341\352\345\031\213\207)u\357\360\266|L\373"
 701      E5198B87 
 701      2975EFF0 
 701      B67C4CFB 
 702 0454 1B6FF4AF 		.ascii	"\033o\364\257\244\353\004<\231\340\244\272\365\001\305"
 702      A4EB043C 
 702      99E0A4BA 
 702      F501C5
 703 0463 2FF28DC8 		.ascii	"/\362\215\310\305\001{.R\240\010\\\007\266\331\224\304"
 703      C5017B2E 
 703      52A0085C 
 703      07B6D994 
 703      C4
 704 0474 46D5CEC9 		.ascii	"F\325\316\311\224\215M\256\330\230\367\202\306\206\310"
 704      948D4DAE 
 704      D898F782 
 704      C686C8
 705 0483 6F005604 		.ascii	"o\000V\004\356\264\201k\247GZ\324>\264\202\025o\341"
 705      EEB4816B 
 705      A7475AD4 
 705      3EB48215 
 705      6FE1
 706 0495 FBB9D5A2 		.ascii	"\373\271\325\242\016\366\211g\260\002\013\330\322\367"
 706      0EF68967 
 706      B0020BD8 
 706      D2F7
 707 04a3 17217159 		.ascii	"\027!qY\334\264\204\2149[0*\327#/\3568\300OF\376Uh&"
 707      DCB4848C 
 707      395B302A 
 707      D7232FEE 
 707      38C04F46 
 708 04bb 4090B0CA 		.ascii	"@\220\260\312\326=Tw\355\316\355|\005B\275\213P\355"
 708      D63D5477 
 708      EDCEED7C 
 708      0542BD8B 
 708      50ED
 709 04cd FD86AA9D 		.ascii	"\375\206\252\235\327t\277\242d\212|\013\002\275\350"
 709      D774BFA2 
 709      648A7C0B 
 709      02BDE8
 710 04dc B302897C 		.ascii	"\263\002\211|\206!F\343\273^\201\240\341cZ oU\003\271"
 710      862146E3 
 710      BB5E81A0 
 710      E1635A20 
 710      6F5503B9 
 711 04f0 BF737581 		.ascii	"\277su\201[\350s\241\272L';P L\354\365\2210\341\323"
 711      5BE873A1 
 711      BA4C273B 
 711      50204CEC 
 711      F59130E1 
 712 0505 5D32DD49 		.ascii	"]2\335IF\002\3672\366\365W\326\226\033\216\357\325]"
 712      4602F732 
 712      F6F557D6 
 712      961B8EEF 
 712      D55D
 713 0517 F2AFAE6C 		.ascii	"\362\257\256l\271\261u\236\263K\232\272\257\023\364"
 713      B9B1759E 
ARM GAS  /tmp/ccZb7D2c.s 			page 56


 713      B34B9ABA 
 713      AF13F4
 714 0526 FE7F84FD 		.ascii	"\376\177\204\375w`\377\373\331\376\227\367n\347Qk\373"
 714      7760FFFB 
 714      D9FE97F7 
 714      6EE7516B 
 714      FB
 715 0537 5DF57EE0 		.ascii	"]\365~\340\340\354\344\336\035#\"\265\214\206\343g/"
 715      E0ECE4DE 
 715      1D2322B5 
 715      8C86E367 
 715      2F
 716 0548 531E0FA3 		.ascii	"S\036\017\243\313\234M\262\215\007r\254\332\203\357"
 716      CB9C4DB2 
 716      8D0772AC 
 716      DA83EF
 717 0557 A60A0277 		.ascii	"\246\012\002w\321\240\276_\036\333\265|u+\216m>\235"
 717      D1A0BE5F 
 717      1EDBB57C 
 717      752B8E6D 
 717      3E9D
 718 0569 84CF3D03 		.ascii	"\204\317=\003\026X\004q\370 \206\000\015\254\333\015"
 718      16580471 
 718      F8208600 
 718      0DACDB0D 
 719 0579 98A31D55 		.ascii	"\230\243\035U\250G\315`_x\006\263R\326n\006\373\322"
 719      A847CD60 
 719      5F7806B3 
 719      52D66E06 
 719      FBD2
 720 058b 0D58BE33 		.ascii	"\015X\2763e\035f\260\233\236\301\254\224}`\006+\367"
 720      651D66B0 
 720      9B9EC1AC 
 720      947D6006 
 720      2BF7
 721 059d BB001BEA 		.ascii	"\273\000\033\352LY\247\031\254\3223\230\225\262Kf\260"
 721      4C59A719 
 721      ACD23398 
 721      95B24B66 
 721      B0
 722 05ae E7DC8015 		.ascii	"\347\334\200\025\330Pf|\234f\007\373x\303\314\005n\246"
 722      D850667C 
 722      9C6607FB 
 722      78C3CC05 
 722      6EA6
 723 05c0 5F0F081E 		.ascii	"_\017\010\036M\232K`T\373\275\0060\013\3370\222\276"
 723      4D9A4B60 
 723      54FBBD06 
 723      300BDF30 
 723      92BE
 724 05d2 F70A5F3B 		.ascii	"\367\012_;Y\331=B\037\315\346\272ALa0\033\315C\343\022"
 724      59D93D42 
 724      1FCDE6BA 
 724      414C6130 
 724      1BCD43E3 
 725 05e7 CF6056B5 		.ascii	"\317`V\265\034&`\226PC\207\243\256\345\352\320\371\211"
 725      1C266096 
ARM GAS  /tmp/ccZb7D2c.s 			page 57


 725      504387A3 
 725      AEE5EAD0 
 725      F989
 726 05f9 5897A963 		.ascii	"X\227\251c\221y\246\026\330`\332)\030\225\225\241C\355"
 726      9179A616 
 726      D860DA29 
 726      189595A1 
 726      43ED
 727 060b EB8AFC65 		.ascii	"\353\212\374e\376\307\220\177\316g\031The\275\324\213"
 727      FEC7907F 
 727      CE671954 
 727      6865BDD4 
 727      8B
 728 061c EF682BFC 		.ascii	"\357h+\374\3663\330>\233:Y\302E\263%\254q#\246\024\256"
 728      F633D83E 
 728      9B3A59C2 
 728      45B325AC 
 728      7123A614 
 729 0631 70C9494C 		.ascii	"p\311ILj\2252\215/\177\363\266\224\363\315\206\343\237"
 729      6A95328D 
 729      2F7FF3B6 
 729      94F3CD86 
 729      E39F
 730 0643 BD4CA700 		.ascii	"\275L\247\000\327\265\331\204\337v\012\340\012\254\273"
 730      D7B5D984 
 730      DF760AE0 
 730      0AACBB
 731 0652 769F3E9F 		.ascii	"v\237>\237\270\201`\315\375\007\253\253m\273\215\314"
 731      B88160CD 
 731      FD07ABAB 
 731      6DBB8DCC 
 732 0662 1FBF46A0 		.ascii	"\037\277F\240\026?;fd1\363\211,\353\210\237\225\225"
 732      163F3B66 
 732      6431F389 
 732      2CEB889F 
 732      9595
 733 0674 28F4EA1F 		.ascii	"(\364\352\037\253\032\377\256m\234T\177\315\254\372"
 733      AB1AFFAE 
 733      6D9C547F 
 733      CDACFA
 734 0683 039E556F 		.ascii	"\003\236Uo\361\220\256\366\226N\337<E-\367\231l=\245"
 734      F190AEF6 
 734      964EDF3C 
 734      452DF799 
 734      6C3DA5
 735 0696 63C0EC71 		.ascii	"c\300\354q\337\326_\342\210_!\020\271~`\257 \027@\335"
 735      DFD65FE2 
 735      885F2110 
 735      B97E60AF 
 735      201740DD 
 736 06aa B5AFFF0C 		.ascii	"\265\257\377\014\201*\021\350L\277\201j\347-\031\205"
 736      812A11E8 
 736      4CBF816A 
 736      E72D1985 
 737 06ba 40D310E8 		.ascii	"@\323\020\350B\222\246yF\323\274U\003\206\327Q\247\373"
 737      4292A679 
 737      46D3BC55 
ARM GAS  /tmp/ccZb7D2c.s 			page 58


 737      0386D751 
 737      A7FB
 738 06cc 7BD515B8 		.ascii	"{\325\025\270\353\254\272,\354\244\030\032\364x\333"
 738      EBACBA2C 
 738      ECA4181A 
 738      F478DB
 739 06db 72BA96BF 		.ascii	"r\272\226\277R\241\314\037\341A_/R}=\217\322\351M\222"
 739      52A1CC1F 
 739      E1415F2F 
 739      527D3D8F 
 739      D2E94D92 
 740 06ef 0E11BF37 		.ascii	"\016\021\27776\246\246ye#\323\312F\325\271~\260\261"
 740      36A6A679 
 740      6523D3CA 
 740      46D5B97E 
 740      B0B1
 741 0701 4D636316 		.ascii	"Mcc\026\262\361b\3327gc\236g6\362Ml\220\327\341\253"
 741      B2F162DA 
 741      3767639E 
 741      6736F24D 
 741      6C90D7E1 
 742 0716 B3B5D16F 		.ascii	"\263\265\321o\0107+\365\374\235\3203O\030b\231;\253"
 742      08372BF5 
 742      FC9DD033 
 742      4F186299 
 742      3BAB
 743 0728 DDFBF802 		.ascii	"\335\373\370\002\355v_\023gE\255=hz\313S\\\275\345\355"
 743      ED765F13 
 743      6745AD3D 
 743      687ACB53 
 743      5CBDE5ED 
 744 073c 33DEF216 		.ascii	"3\336\362\026\242\310\226\244\3318\230\033\250\272\356"
 744      A2C896A4 
 744      D938981B 
 744      A8BAEE
 745 074b 43B79040 		.ascii	"C\267\220@\272\030a^\355/LWm\333[\232\237\326!\320\332"
 745      BA18615E 
 745      ED2F4C57 
 745      6DDB5B9A 
 745      9FD621D0 
 746 0760 2415A633 		.ascii	"$\025\2463\032L\267j\020\276\222\236\276\300\000\371"
 746      1A4CB76A 
 746      10BE929E 
 746      BEC000F9 
 747 0770 2CBD43BE 		.ascii	",\275C\276dp\377\360v\002\267\021\311'\332\3638\377"
 747      6470FFF0 
 747      7602B711 
 747      C927DAF3 
 747      38FF
 748 0782 D2ADA76A 		.ascii	"\322\255\247j\357l}\356\244)\250\371\033!V\250\333f"
 748      EF6C7DEE 
 748      A429A8F9 
 748      1B2156A8 
 748      DB66
 749 0794 E9CB140F 		.ascii	"\351\313\024\017\220\331S\3137\204\303\351\266eZ\300"
 749      90D953CB 
 749      3784C3E9 
ARM GAS  /tmp/ccZb7D2c.s 			page 59


 749      B6655AC0 
 750 07a4 BCB5353A 		.ascii	"\274\2655:\014;\306BT\213>\226\257\026\010A\357%)|\003"
 750      0C3BC642 
 750      548B3E96 
 750      AF160841 
 750      EF25297C 
 751 07b9 CFBCB791 		.ascii	"\317\274\267\221\033\246*N\256\264J0\215\201]\337\214"
 751      1BA62A4E 
 751      AEB44A30 
 751      8D815DDF 
 751      8C
 752 07ca 4F50C489 		.ascii	"OP\304\211W5"
 752      5735
 753 07d0 45F4F54E 		.ascii	"E\364\365N\374\244\216\226\213\035\237\305\216\327\013"
 753      FCA48E96 
 753      8B1D9FC5 
 753      8ED70B
 754 07df CC2B71DB 		.ascii	"\314+q\333\305\256*\3127y\326\267o\037?\223\245\314"
 754      C5AE2ACA 
 754      3779D6B7 
 754      6F1F3F93 
 754      A5CC
 755 07f1 CAD597EB 		.ascii	"\312\325\227\353\226\244\353\250vS\233>\355J\355\224"
 755      96A4EBA8 
 755      76539B3E 
 755      ED4AED94 
 756 0801 768FF012 		.ascii	"v\217\360\022%Z\364(\261\021\215pE:\253\244\305l`\365"
 756      255AF428 
 756      B1118D70 
 756      453AABA4 
 756      C56C60F5 
 757 0815 E4266B59 		.ascii	"\344&kYv\334\276\333\032\037'#Xg6\202\372\364oh\004"
 757      76DCBEDB 
 757      1A1F2723 
 757      58673682 
 757      FAF46F68 
 758 082a 2DE75C1A 		.ascii	"-\347\\\032\201\302\233\337<\004n3\366\334\314Z\301"
 758      81C29BDF 
 758      3C046E33 
 758      F6DCCC5A 
 758      C1
 759 083b 9C6BBBA7 		.ascii	"\234k\273\247\322E\213fWV\320m\261\202\013\006j\177"
 759      D2458B66 
 759      5756D06D 
 759      B1820B06 
 759      6A7F
 760 084d ACA042ED 		.ascii	"\254\240B\355\371x\017\217p\332\233T7\013\347V\013\024"
 760      F9780F8F 
 760      70DA9B54 
 760      370BE756 
 760      0B14
 761 085f EE2BC9AB 		.ascii	"\356+\311\253`4\373R\217\235!c\\\213@x\372:\311\264"
 761      6034FB52 
 761      8F9D2163 
 761      5C8B4078 
 761      FA3AC9B4 
 762 0873 34C9984C 		.ascii	"4\311\230L+!F\221\337&\220W+U\370\001\344\357`\276\003"
ARM GAS  /tmp/ccZb7D2c.s 			page 60


 762      2B214691 
 762      DF269057 
 762      2B55F801 
 762      E4EF60BE 
 763 0888 F23ECD62 		.ascii	"\362>\315b\247\331,*3\274\362]\340\322\372\232\314\335"
 763      A7D92C2A 
 763      33BCF25D 
 763      E0D2FA9A 
 763      CCDD
 764 089a CCCCF866 		.ascii	"\314\314\370f\326\327\336r\321\217\313K\036\026q\367"
 764      D6D7DE72 
 764      D18FCB4B 
 764      1E1671F7 
 765 08aa EDD41D77 		.ascii	"\355\324\035w/:nm\006+\335w\331y\257\2335\315\245\375"
 765      2F3A6E6D 
 765      062BDD77 
 765      D979AF9B 
 765      35CDA5FD 
 766 08be 65C5F840 		.ascii	"e\305\370@\014\311p\361VR`#uch\274N\207\306>\027F\365"
 766      0CC970F1 
 766      56526023 
 766      756368BC 
 766      4E87C63E 
 767 08d5 B1A6756F 		.ascii	"\261\246uo9\335\3648\210\266\266\232\221\206\213\025"
 767      39DDF438 
 767      88B6B69A 
 767      91868B15 
 768 08e5 D6CDD8E4 		.ascii	"\326\315\330\344\010\353\310\307\252\256\352+\254G\\"
 768      08EBC8C7 
 768      AAAEEA2B 
 768      AC475C
 769 08f4 3872857A 		.ascii	"8r\205zh\206y\267\000,\205\027(n\177%jQ\342\021\223"
 769      688679B7 
 769      002C8517 
 769      286E7F25 
 769      6A51E211 
 770 0909 8BB4A18B 		.ascii	"\213\264\241\213\264\233\335B\340\366\270\221\376O\235"
 770      B49BDD42 
 770      E0F6B891 
 770      FE4F9D
 771 0918 8C51517B 		.ascii	"\214QQ{\016-\3425\372\265Pt\210\305\263\013E\026<\213"
 771      0E2DE235 
 771      FAB55074 
 771      88C5B30B 
 771      45163C8B 
 772 092c 36D5EAA3 		.ascii	"6\325\352\243\270\244\243\315q:\335\0207\302\011\254"
 772      B8A4A3CD 
 772      713ADD10 
 772      37C209AC 
 773 093c 425DA481 		.ascii	"B]\244\201i&\177\332\015\330('N+\324\267\347\352\232"
 773      69267FDA 
 773      0DD82827 
 773      4E2BD4B7 
 773      E7EA9A
 774 094f 6AC209CA 		.ascii	"j\302\011\312E\317xV\342\016\035]D\361\264}\225\036"
 774      45CF7856 
 774      E20E1D5D 
ARM GAS  /tmp/ccZb7D2c.s 			page 61


 774      44F1B47D 
 774      951E
 775 0961 37780F3A 		.ascii	"7x\017:\323wy\256eB7%\323+\234U\021_\037%\212\2359\324"
 775      D37779AE 
 775      65423725 
 775      D32B9C55 
 775      115F1F25 
 776 0979 6EEB4C35 		.ascii	"n\353L5\2027Y-\240^\265y\331\345aZ\2109\207N\2651\263"
 776      8237592D 
 776      A05EB579 
 776      D9E5615A 
 776      8839874E 
 777 0990 EF3D382B 		.ascii	"\357=8+\0201\330\363\214G\251o\266\344\222\327\211\363"
 777      1031D8F3 
 777      8C47A96F 
 777      B6E492D7 
 777      89F3
 778 09a2 AEBCA9A1 		.ascii	"\256\274\251\241\305\363\366\326\276&\355M\361\002\032"
 778      C5F3F6D6 
 778      BE26ED4D 
 778      F1021A
 779 09b1 C99ECC6F 		.ascii	"\311\236\314o%.\036@\230\363\336\275\230\206\370\315"
 779      252E1E40 
 779      98F3DEBD 
 779      9886F8CD 
 780 09c1 CB0E0CDB 		.ascii	"\313\016\014\333\\\257(\317\245\353\204\035\365\214"
 780      5CAF28CF 
 780      A5EB841D 
 780      F58C
 781 09cf 68B5B68D 		.ascii	"h\265\266\215-\350\012\032\330\007n\300R\014\360\233"
 781      2DE80A1A 
 781      D8076EC0 
 781      520CF09B 
 782 09df 0898972D 		.ascii	"\010\230\227-\304]\372\350s\015\373?\371\355H\371#\317"
 782      C45DFAE8 
 782      730DFB3F 
 782      F9ED48F9 
 782      23CF
 783 09f1 6C586402 		.ascii	"lXd\002R\376x\330\346\015\212\362\346\223^V\035\217"
 783      52FE78D8 
 783      E60D8AF2 
 783      E6935E56 
 783      1D8F
 784 0a03 BCD8AC59 		.ascii	"\274\330\254Y\314\227\310\313\371$^n\260\274\270\\\303"
 784      CC97C8CB 
 784      F9245E6E 
 784      B0BCB85C 
 784      C3
 785 0a14 13B82B2C 		.ascii	"\023\270+,Cv\301\323n=\334\356c\366%\221\377\004\203"
 785      4376C1D3 
 785      6E3DDCEE 
 785      63F62591 
 785      FF0483
 786 0a27 FFA73833 		.ascii	"\377\24783\272\214\371\025\314\2731\277a\035\024n\262"
 786      BA8CF915 
 786      CCBB31BF 
 786      611D146E 
ARM GAS  /tmp/ccZb7D2c.s 			page 62


 786      B2
 787 0a38 B1C3EAA7 		.ascii	"\261\303\352\247\2648\3065!\211Mu\221\337\202k\340o"
 787      B438C635 
 787      21894D75 
 787      91DF826B 
 787      E06F
 788 0a4a F3A4DB66 		.ascii	"\363\244\333f\314\267a\336\212\371y\314?\305\3743\314"
 788      CCB761DE 
 788      8AF979CC 
 788      3FC5FC33 
 788      CC
 789 0a5b BB312F47 		.ascii	"\2731/G2gb^\203\371\\\314\017`\336\201\371\007\230w"
 789      3267625E 
 789      83F95CCC 
 789      0F60DE81 
 789      F9079877 
 790 0a6f 62DE85F9 		.ascii	"b\336\205\371)\314Oc~\326\315t\220y\243\324\207\343"
 790      29CC4F63 
 790      7ED6CD74 
 790      9079A3D4 
 790      87E3
 791 0a81 F5FDDE0A 		.ascii	"\365\375\336\012<\326\362\3252\363\236\207\310o\365"
 791      3CD6F2D5 
 791      32F39E87 
 791      C86FF5
 792 0a90 8C58904A 		.ascii	"\214X\220J\264\353M\242\255G\3216\240\300\024\237\013"
 792      B4EB4DA2 
 792      AD47D136 
 792      A0C0149F 
 792      0B
 793 0aa1 76D726DE 		.ascii	"v\327&\336\250\023\307i\320\002\252\262\254V\375#\356"
 793      A813C769 
 793      D002AAB2 
 793      AC56FD23 
 793      EE
 794 0ab2 154599A5 		.ascii	"\025E\231\245v\237U\323a\352\351\327\232\012\\\015V"
 794      769F55D3 
 794      61EAE9D7 
 794      9A0A5C0D 
 794      56
 795 0ac3 5BC5DF6E 		.ascii	"[\305\337n\333\205\321\001=\034sL\371\303P\343p\314"
 795      DB85D101 
 795      3D1C734C 
 795      F9C350E3 
 795      70CC
 796 0ad5 2AF6704C 		.ascii	"*\366pL\271\317\356\354M\307\271\335\360j\242|\325\333"
 796      B9CFEEEC 
 796      4DC7B9DD 
 796      F06AA27C 
 796      D5DB
 797 0ae7 3B798AC0 		.ascii	";y\212\300Y\316\306drSq9\260R)\347\2376\230t\330\236"
 797      59CEC664 
 797      72537139 
 797      B05229E7 
 797      9F369874 
 798 0afd 11F9A9BE 		.ascii	"\021\371\251\276L\240xN\226\343\346\012\251\240KK+\353"
 798      4CA0784E 
ARM GAS  /tmp/ccZb7D2c.s 			page 63


 798      96E3E60A 
 798      A9A04B4B 
 798      2BEB
 799 0b0f A5140BEC 		.ascii	"\245\024\013\354U\276>\317\340\200!\360N\247gD\376\015"
 799      55BE3ECF 
 799      E08021F0 
 799      4EA76744 
 799      FE0D
 800 0b21 545A428D 		.ascii	"TZB\215\2347\025\316\3609\251\360%[\025*\335\322\030"
 800      9C3715CE 
 800      F039A9F0 
 800      255B152A 
 800      DDD218
 801 0b34 AD95C84F 		.ascii	"\255\225\310O\366\021S\254\3649i\217b\243\366*\224c"
 801      F61153AC 
 801      F439698F 
 801      62A3F62A 
 801      9463
 802 0b46 1F10ED69 		.ascii	"\037\020\355i\202\261\264\262H\234R\362\274\25527\236"
 802      82B1B4B2 
 802      489C52F2 
 802      BCAD3237 
 802      9E
 803 0b57 775466CA 		.ascii	"wTf\312\203N5V!k\256d|\241F\306\260\277\332\236\375"
 803      834E3556 
 803      216BAE64 
 803      7CA146C6 
 803      B0BFDA9E 
 804 0b6c 03847DED 		.ascii	"\003\204}\3555\267\011kT;\262\217\353M\264\331K0\342"
 804      35B7096B 
 804      543BB28F 
 804      EB4DB4D9 
 804      4B30E2
 805 0b7f F15A57BA 		.ascii	"\361ZW\272\334\234\033\246\260z\322\310bt\263m\005\325"
 805      DC9C1BA6 
 805      B07AD2C8 
 805      6274B36D 
 805      05D5
 806 0b91 7B7EB7CF 		.ascii	"{~\267\317\371H\030!\314IT\013YQi$[D\263\315^4=D4f\016"
 806      F9481821 
 806      CC49540B 
 806      59516924 
 806      5B44B3CD 
 807 0bac 17B8E2B0 		.ascii	"\027\270\342\260B\271r\372\017c\364\3459\347V\224\300"
 807      42B972FA 
 807      0F63F4E5 
 807      39E75694 
 807      C0
 808 0bbd 45B60C1F 		.ascii	"E\266\014\037\374$\205e\244\342\267\316\3164\030~\017"
 808      FC248565 
 808      A4E2B7CE 
 808      CE34187E 
 808      0F
 809 0bce D8F37B48 		.ascii	"\330\363{H7\005\030L\220\337\245\251M\301\201_\247V"
 809      3705184C 
 809      90DFA5A9 
 809      4DC1815F 
ARM GAS  /tmp/ccZb7D2c.s 			page 64


 809      A756
 810 0be0 94C06576 		.ascii	"\224\300ev\374v\365\276q\340Ok\311\004O\271\331\373"
 810      FC76F5BE 
 810      71E04F6B 
 810      C9044FB9 
 810      D9FB
 811 0bf2 6C7905AF 		.ascii	"ly\005\257\237+\234\236\355\346`\341r\326\212V\330\012"
 811      9F2B9C9E 
 811      EDE660E1 
 811      72D68A56 
 811      D80A
 812 0c04 75515BD2 		.ascii	"uQ[\322\271\305\331\256\360W\262\370\253l\231\230}m"
 812      B9C5D9AE 
 812      F057B2F8 
 812      AB6C9998 
 812      7D6D
 813 0c16 F74F9DAD 		.ascii	"\367O\235\255\224D\012\307\201\207\325\032Y\207a\264"
 813      94440AC7 
 813      8187D51A 
 813      598761B4 
 814 0c26 5697EDAC 		.ascii	"V\227\355\254\265\235\370\006\266\001k\254q\324\032"
 814      B59DF806 
 814      B6016BAC 
 814      71D41A
 815 0c35 5DDCB18D 		.ascii	"]\334\261\215_kR\307\2577\222\031\256S\273N4\364\334"
 815      5F6B52C7 
 815      AF379219 
 815      AE53BB4E 
 815      34F4DC
 816 0c48 36170673 		.ascii	"6\027\006s\345\022\314@\363\335\307\257\006\027\354"
 816      E512CC40 
 816      F3DDC7AF 
 816      0617EC
 817 0c57 76DAB3DB 		.ascii	"v\332\263\333[4F\257\276\036\215\264\336\025\273\212"
 817      5B3446AF 
 817      BE1E8DB4 
 817      DE15BB8A 
 818 0c67 F2BC5299 		.ascii	"\362\274R\231\317\033\032\255g5\332\230\314`\027\004"
 818      CF1B1AAD 
 818      6735DA98 
 818      CC601704 
 819 0c77 E8566A31 		.ascii	"\350Vj1\005\032\321\002\367\231=Y\335,Y\233\372E\326"
 819      051AD102 
 819      F7993D59 
 819      DD2C599B 
 819      FA45D6
 820 0c8a 2696ACCD 		.ascii	"&\226\254\315vrW\257\355b\311\352\261'\353\012KVS\277"
 820      767257AF 
 820      ED62C9EA 
 820      B127EB0A 
 820      4B5653BF 
 821 0c9e C86A62C9 		.ascii	"\310jb\311j\266\225\326\325\203\011\262\326\"Y\223s"
 821      6AB695D6 
 821      D58309B2 
 821      D6225993 
 821      73
 822 0caf 6CC9FA92 		.ascii	"l\311\372\222%Kui\263\027*\221,\335h\325\324F\273\335"
ARM GAS  /tmp/ccZb7D2c.s 			page 65


 822      254B7569 
 822      B3172A91 
 822      2CDD68D5 
 822      D446BBDD 
 823 0cc3 567837F7 		.ascii	"Vx7\367\261T\326\330S\331\303R\271\243\177T\356HM\345"
 823      B154D6D8 
 823      53D9C352 
 823      B9A37F54 
 823      EE484DE5 
 824 0cd7 4E5B2AE7 		.ascii	"N[*\347\036eU\274\304\236\312\353,\225\273\373\245\342"
 824      1E6555BC 
 824      C49ECAEB 
 824      2C95BBFB 
 824      A5E2
 825 0ce9 DDAC8AF7 		.ascii	"\335\254\212\367\330\222u\265\203%k\265K\341\355\355"
 825      D89275B5 
 825      83256BB5 
 825      4BE1EDED 
 826 0cf9 17597B59 		.ascii	"\027Y{Y\262\336\263%k\341\211\004YZ`\177+\307M`\337"
 826      B2DEB325 
 826      6BE18904 
 826      595A607F 
 826      2BC74D60 
 827 0d0e CFC21FB0 		.ascii	"\317\302\037\2601\354\352\256\305[\267\377b~\2752\005"
 827      31ECEAAE 
 827      C55BB7FF 
 827      627EBD32 
 827      05
 828 0d1f 4727636C 		.ascii	"G'cl\272\222\324\205\206q\330\026c\356\251\236a\013"
 828      BA92D485 
 828      8671D816 
 828      63EEA99E 
 828      610B
 829 0d31 9477C8E0 		.ascii	"\224w\310\340\360,\247C\254\317\265\2078j\013q\363\215"
 829      F02CA743 
 829      ACCFB587 
 829      386A0B71 
 829      F38D
 830 0d43 CBFF6140 		.ascii	"\313\377a@\270\217\266\355l\264\275\230<%x\337\201\220"
 830      B88FB6ED 
 830      6CB4BD98 
 830      3C2578DF 
 830      8190
 831 0d55 0E075EB6 		.ascii	"\016\007^\266\377s\022/\355\016\020\037\330B,\332\272"
 831      FF73122F 
 831      ED0E101F 
 831      D8422CDA 
 831      BA
 832 0d66 E7174910 		.ascii	"\347\027I\020\335\016\020\235v\020\352\315\367g*<\252"
 832      DD0E109D 
 832      7610EACD 
 832      F7672A3C 
 832      AA
 833 0d77 FD761D60 		.ascii	"\375v\035`\352\000{\200.[\032\332\253\216\016\355\207"
 833      EA007B80 
 833      2E5B1ADA 
 833      AB8E0EED 
ARM GAS  /tmp/ccZb7D2c.s 			page 66


 833      87
 834 0d88 3C4FB1F2 		.ascii	"<O\261\362$gy\030y\316w \344\264-'m\247>\342M\302\250"
 834      24677918 
 834      79CE7720 
 834      E4B42D27 
 834      6DA73EE2 
 835 0d9f 43C75AE1 		.ascii	"C\307Z\341\000q\326\026\342\304)\225O\222g\275\003\304"
 835      0071D616 
 835      E2C42995 
 835      4F9267BD 
 835      03C4
 836 0db1 4756881F 		.ascii	"GV\210\037r/\023\210\206S]B\271\362\316|EQ{{\371\333"
 836      722F1388 
 836      86535D42 
 836      B9F2CE7C 
 836      45517B7B 
 837 0dc7 6DD727FF 		.ascii	"m\327'\377\254\013\243\235\370\254\261W}\365e\272\236"
 837      AC0BA39D 
 837      F8ACB157 
 837      7DF565BA 
 837      9E
 838 0dd8 75DE4796 		.ascii	"u\336G\226:\337e\372u\001%p\373\260\321\005_\362\357"
 838      3ADF65FA 
 838      75012570 
 838      FBB0D105 
 838      5FF2EF
 839 0deb 0DF4AD40 		.ascii	"\015\364\255@\362\254\357\255\300\305\235\332\012\274"
 839      F2ACEFAD 
 839      C0C59DDA 
 839      0ABC
 840 0df9 CD265B97 		.ascii	"\315&[\227\261ls\233\211\372\326\266\223\224\372\313"
 840      B16C739B 
 840      89FAD6B6 
 840      9394FACB 
 841 0e09 48FD3107 		.ascii	"H\3751\007\352\035\201\004\356,6\271\232L\373\341*J"
 841      EA1D8104 
 841      EE2C36B9 
 841      9A4CFBE1 
 841      2A4A
 842 0e1b FB5557B4 		.ascii	"\373UW\264\037\352\260\356\036\\5pS,\200i\037\333\205"
 842      1FEAB0EE 
 842      1E5C3570 
 842      532C8069 
 842      1FDB85
 843 0e2e C9C31DB8 		.ascii	"\311\303\035\270\312\251-\250\177\305\202yZ\345T\324"
 843      CAA92DA8 
 843      7FC58279 
 843      5AE554D4 
 844 0e3e 760DECAF 		.ascii	"v\015\354\257H\331\344<\257`\005\026\312N,\264\376*"
 844      48D9E43C 
 844      AF600516 
 844      CA4E2CB4 
 844      FE2A
 845 0e50 E4393778 		.ascii	"\34497x)\216\276^\3520\035}\255\361\014f%\356\232\031"
 845      298EBE5E 
 845      EA301D7D 
 845      ADF10C66 
ARM GAS  /tmp/ccZb7D2c.s 			page 67


 845      25EE9A19 
 846 0e64 6C811B30 		.ascii	"l\201\0330\273\003\242v\037\263\221\210\3745\037Y\353"
 846      BB03A276 
 846      1FB39188 
 846      FC351F59 
 846      EB
 847 0e75 B8EE23AB 		.ascii	"\270\356#\253\033=\230\177\211\371\327\230\367b^\356"
 847      1B3D987F 
 847      89F9D798 
 847      F7625EEE 
 848 0e85 B72C45BE 		.ascii	"\267,E\276\222\247{\211\255)\366e\022\212\332\350\354"
 848      92A77B89 
 848      AD29F665 
 848      128ADAE8 
 848      EC
 849 0e96 1E767BD0 		.ascii	"\036v{\320\340\334\347\312\371J\264\341J?\321\374\252"
 849      E0DCE7CA 
 849      F94AB4E1 
 849      4A3FD1FC 
 849      AA
 850 0ea7 BC3EDD83 		.ascii	"\274>\335\203\335\345\337\206M\246\371\223~\021\365"
 850      DDE5DF86 
 850      4DA6F993 
 850      7E11F5
 851 0eb6 7525750F 		.ascii	"u%u\017\362\254\357\355\214\236y)~\021e\376\371\205"
 851      F2ACEFED 
 851      8C9E7929 
 851      7E1165FE 
 851      F985
 852 0ec8 D1FF3F99 		.ascii	"\321\377?\231\030i=\255\377\264\353yd\344h\337\214X"
 852      18693DAD 
 852      FFB4EB79 
 852      64E468DF 
 852      8C58
 853 0eda 81C0CFB1 		.ascii	"\201\300\317\261Iu2#\027tF\252]1\262y\236n\3753\375"
 853      49753223 
 853      177446AA 
 853      5D31B279 
 853      9E6EFD33 
 854 0eef C4C6AE1B 		.ascii	"\304\306\256\033\270\375ZVU\267\264\241\301j`\275\236"
 854      B8FD5A56 
 854      55B7B4A1 
 854      C16A60BD 
 854      9E
 855 0f00 C1ACD6DF 		.ascii	"\301\254\326\337\334\346u\323\250\246\265\361\016\334"
 855      DCE675D3 
 855      A8A6B5F1 
 855      0EDC
 856 0f0e 0298EF27 		.ascii	"\002\230\357'\201f\352\300oe;\243f\240\013>\234we@+"
 856      8166EAC0 
 856      6F653BA3 
 856      66A00B3E 
 856      9C776540 
 857 0f23 17E7D89C 		.ascii	"\027\347\330\234Jq?\320/\3613\003\375\003\314\274)\225"
 857      4A713FD0 
 857      2FF13303 
 857      FD03CCBC 
ARM GAS  /tmp/ccZb7D2c.s 			page 68


 857      2995
 858 0f35 48A67796 		.ascii	"H\246w\226\323sL\213Q+\013\031\2410\307\301H_Nt,\363"
 858      D3734C8B 
 858      512B0B19 
 858      A130C7C1 
 858      485F4E74 
 859 0f4b E7385854 		.ascii	"\3478XT\3223\010\020\236\245f\321>9\227\271\\_\241\307"
 859      D2330810 
 859      9EA566D1 
 859      3E3997B9 
 859      5C5FA1C7 
 860 0f5f 8DD3356E 		.ascii	"\215\3235n\000\335o\302$\234G\344g\371I\374\253\365"
 860      00DD6FC2 
 860      249C47E4 
 860      67F949FC 
 860      ABF5
 861 0f71 93383707 		.ascii	"\22387\007\363y\230/\302\374Us\344s\222\0151y\003{\266"
 861      F379982F 
 861      C2FC5573 
 861      E473920D 
 861      3179037B 
 862 0f86 5FA071A6 		.ascii	"_\240q\246\177n\364U\302\215D~\256g0\213 \325\232\016"
 862      7F6EF455 
 862      C28D447E 
 862      AE67308B 
 862      20D59A0E 
 863 0f9a 7D3F9B78 		.ascii	"}?\233x\205\310"
 863      85C8
 864 0fa0 BFE4062F 		.ascii	"\277\344\006/\305&\343zmP\322\\\254~ \357\021\254 \225"
 864      C526E37A 
 864      6D50D25C 
 864      AC7E20EF 
 864      11AC2095 
 865 0fb4 52A69994 		.ascii	"R\246\231\2242\035\2252\003U\260\002\363\3270_i\035"
 865      321D9532 
 865      0355B002 
 865      F3D7305F 
 865      691D
 866 0fc6 88B60E64 		.ascii	"\210\266\016d\006\"k\320\267\033\027\315\362Q\324\246"
 866      06226BD0 
 866      B71B17CD 
 866      F251D4A6 
 867 0fd6 FFA916ED 		.ascii	"\377\251\026\355B\356Cz\333\331\346\337\345\266^\320"
 867      42EE437A 
 867      DBD9E6DF 
 867      E5B65ED0 
 868 0fe6 8FA8ACC5 		.ascii	"\217\250\254\305\340\275s`\337\301\333\212$p\207\261"
 868      E0BD7360 
 868      DFC1DB8A 
 868      247087B1 
 869 0ff6 CDBAA4E8 		.ascii	"\315\272\244\350]uF\237\245\255"
 869      5D75469F 
 869      A5AD
 870 1000 EB3B7A4F 		.ascii	"\353;zO\231\2546\276\264\"1\014M6\\\370\022\0049'3\265"
 870      99AC36BE 
 870      B422310C 
 870      4D365CF8 
ARM GAS  /tmp/ccZb7D2c.s 			page 69


 870      12043927 
 871 1016 FCE4E4B4 		.ascii	"\374\344\344\264AG\177\314TQ\267\035\327-K;u\370\231"
 871      41477FCC 
 871      5451B71D 
 871      D72D4B3B 
 871      75F899
 872 1029 673CAB26 		.ascii	"g<\253&\216\036G\313\322\300\256\271\001K1K\374\374"
 872      8E1E47CB 
 872      D2C0AEB9 
 872      014B314B 
 872      FCFC
 873 103b 4FB66A55 		.ascii	"O\266jU\215\231\3534\223Z\027o=\371}m\352\275\005\265"
 873      8D99EB34 
 873      935A176F 
 873      3DF97D6D 
 873      EABD05B5 
 874 104f DADBB756 		.ascii	"\332\333\267V\031 \\\215b4\252.\335\205g$\232]\215\305"
 874      19205C8D 
 874      6234AA2E 
 874      DD856724 
 874      9A5D8DC5 
 875 1063 6FEDD2A5 		.ascii	"o\355\322\245\231F\370\257\311\347)d\377b\310\266\251"
 875      9946F8AF 
 875      C9E72964 
 875      FF62C8B6 
 875      A9
 876 1074 EEE628B6 		.ascii	"\356\346(\266\007\376\346\354\"\007\376\336EY,\310\367"
 876      07FEE6EC 
 876      2207FEDE 
 876      45592CC8 
 876      F7
 877 1085 38CF22AC 		.ascii	"8\317\"\254\266\260\2428\244\035\027iq%\212\343-\346"
 877      B6B0A238 
 877      A41D1769 
 877      71258AE3 
 877      2DE6
 878 1097 9025702B 		.ascii	"\220%p+\221\204\226~\313\342J\225u\222\277\3363^\201"
 878      9184967E 
 878      CBE24A95 
 878      7592BFDE 
 878      335E81
 879 10aa 05EF8676 		.ascii	"\005\357\206vh\003\207\245\215n\260R\204\323\332]\213"
 879      680387A5 
 879      8D6EB052 
 879      84D3DA5D 
 879      8B
 880 10bb BEA374A9 		.ascii	"\276\243t\251\274\376\013\032\225\305\263\373=\203\373"
 880      BCFE0B1A 
 880      95C5B3FB 
 880      3D83FB
 881 10ca 88DA628A 		.ascii	"\210\332b\212\250\2730\242\356\306(\332\212\371^\314"
 881      A8BB30A2 
 881      EEC628DA 
 881      8AF95ECC 
 882 10da DF7733C0 		.ascii	"\337w3\300\275\3437E\216=\236\215\323,@\360\364G\252"
 882      BDE33745 
 882      8E3D9E8D 
ARM GAS  /tmp/ccZb7D2c.s 			page 70


 882      D32C40F0 
 882      F447AA
 883 10ed C5415C35 		.ascii	"\305A\\5\265#\315\322t[2\374J\321\375\352\240\177\020"
 883      B523CDD2 
 883      745B32FC 
 883      4AD1FDEA 
 883      A07F10
 884 1100 962C07A2 		.ascii	"\226,\007\242\261\212\023\261\207\374\211\337\343\345"
 884      B18A13B1 
 884      87FC89DF 
 884      E3E5
 885 110e 66250A0F 		.ascii	"f%\012\017\030\034\354g9`\372M\2418{A7\233\004\275\025"
 885      181CEC67 
 885      3960FA4D 
 885      A1387B41 
 885      379B04BD 
 886 1123 05BD0D85 		.ascii	"\005\275\015\205\273\035\363\003\326A\253#\237\011n"
 886      BB1DF303 
 886      D641AB23 
 886      9F096E
 887 1132 4C34F1AC 		.ascii	"L4\361\254\346u\246\336\337\304\336\353\261\337F\314"
 887      E675A6DE 
 887      DFC4DEEB 
 887      B1DF46CC 
 888 1142 DFC27CB3 		.ascii	"\337\302|\263\225\206s\371\314\300\311\214S\264\354"
 888      958673F9 
 888      CCC0C98C 
 888      53B4EC
 889 1151 7C26B0AB 		.ascii	"|&\260\253\275\352HF\271\242\316\037\241\377\275\303"
 889      BDEA4846 
 889      B9A2CE1F 
 889      A1FFBDC3 
 890 1161 272CA4F5 		.ascii	"',\244\365\277\034hQM\021\265;;s\215\260\335\347y\321"
 890      BF1C6851 
 890      4D11B53B 
 890      3B738DB0 
 890      DDE779D1 
 891 1175 CDCB3EBE 		.ascii	"\315\313>\276\017\247\373\035\030\250\256\331\007\252"
 891      0FA7FB1D 
 891      18A8AED9 
 891      07AA
 892 1183 D4BFE7F9 		.ascii	"\324\277\347\371\220\015T\227\245\002\355\256\213\327"
 892      900D5497 
 892      A502EDAE 
 892      8BD7
 893 1191 C033F478 		.ascii	"\3003\364x\266vzk\352 \236\002z\214R\366*\375\320\244"
 893      B6767A6B 
 893      EA209E02 
 893      7A8C52F6 
 893      2AFDD0A4 
 894 11a5 D24E54E9 		.ascii	"\322NT\351\011\253\002_\030\304H\333\256\277\272\204"
 894      09AB025F 
 894      18C448DB 
 894      AEBFBA84 
 895 11b5 23B0C226 		.ascii	"#\260\302&\277\033\324\364g\273.\346\323!F%$>\357T\217"
 895      BF1BD4F4 
 895      67BB2EE6 
ARM GAS  /tmp/ccZb7D2c.s 			page 71


 895      D3214625 
 895      243EEF54 
 896 11ca 26F1BFA1 		.ascii	"&\361\277\241\304k\006\271X_\263\340\340\302\241\255"
 896      C46B06B9 
 896      585FB3E0 
 896      E0C2A1AD 
 897 11da C8CFBA12 		.ascii	"\310\317\272\022\371\025]\344\332\201\265:$\340l\277"
 897      F9155DE4 
 897      DA81B53A 
 897      24E06CBF 
 898 11ea 0786AB12 		.ascii	"\007\206\253\022y\275\320\260Vx\306*0KS\275\2266mr\272"
 898      79BDD0B0 
 898      5678C62A 
 898      304B53BD 
 898      96366D72 
 899 11ff 7EC8721D 		.ascii	"~\310r\035\013f{R+\205#\3340\243mq\205V\340\332\264"
 899      0B667B52 
 899      2B8523DC 
 899      30A36D71 
 899      8556E0DA 
 900 1214 CE9A4CEB 		.ascii	"\316\232L\353\034\232\326G\030!\316c\376)\346\237Y\215"
 900      1C9AD647 
 900      1821CE63 
 900      FE29E69F 
 900      598D
 901 1226 6D276B6C 		.ascii	"m'klV\275\322\342\312\024\326v\254\345\314}hmz\340\007"
 901      56BDD2E2 
 901      CA14D676 
 901      ACE5CC7D 
 901      686D7AE0 
 902 123b 2BD17E6D 		.ascii	"+\321~m\254#\016\324a\276\340)\241\237{\216\374W\034"
 902      AC230ED4 
 902      61BEE029 
 902      A19F7B8E 
 902      FC571C
 903 124e 22FFF70D 		.ascii	"\"\377\367\015N\016&qb\355\227\226\273\354X\261\027"
 903      4E0E2671 
 903      62ED9796 
 903      BBEC58B1 
 903      17
 904 125f E705D352 		.ascii	"\347\005\323R\332E\\J\273\204KfSP\220k0o\303\374\030"
 904      DA455C4A 
 904      BB844B66 
 904      5350906B 
 904      306FC3FC 
 905 1274 E6A730BF 		.ascii	"\346\2470\277l\025\360I\303\227t\262\254\013\323\244"
 905      6C15F049 
 905      C39774B2 
 905      AC0BD3A4 
 906 1284 A36EBFB1 		.ascii	"\243n\277\261^N\326\312\367\357\357\272\371F\317\237"
 906      5E4ED6CA 
 906      F7EFEFBA 
 906      F946CF9F 
 907 1294 CBABD529 		.ascii	"\313\253\325)u\344\210\006\317\353\242\235o}\015xRG"
 907      75E48806 
 907      CFEBA29D 
 907      6F7D0D78 
ARM GAS  /tmp/ccZb7D2c.s 			page 72


 907      5247
 908 12a6 CAC5B6E6 		.ascii	"\312\305\266\346Z\237;\326\022\371/<K\277\307A\372\346"
 908      5A9F3BD6 
 908      12F92F3C 
 908      4BBFC741 
 908      FAE6
 909 12b8 1F88256A 		.ascii	"\037\210%j\221W\020\344zebO\216!B\340.\014\322\214\341"
 909      915710E4 
 909      7A65624F 
 909      8E2142E0 
 909      2E0CD28C 
 910 12cd FBDC9783 		.ascii	"\373\334\227\203\026\223\320s\035\251\242\374w6\354"
 910      1693D073 
 910      1DA9A2FC 
 910      7736EC
 911 12dc F95EDFFC 		.ascii	"\371^\337\374\263\363S\007\001$Oc{=K@I\263\227\200\371"
 911      B3F35307 
 911      01244F63 
 911      7B3D4B40 
 911      49B39780 
 912 12f1 9F6912B5 		.ascii	"\237i\022\265\240x\303\317\234\036`\251\020\270i\203"
 912      A078C3CF 
 912      9C1E60A9 
 912      10B86983 
 913 1301 7511CC1D 		.ascii	"u\021\314\035\214\"\270i\022\201\272\265U\311\254.\237"
 913      8C22B869 
 913      1281BAB5 
 913      55C9AC2E 
 913      9F
 914 1312 46365C1C 		.ascii	"F6\\\034\330\377\243U\015\016\3343\265`>\232\346\225"
 914      D8FFA355 
 914      0D0EDC33 
 914      B5603E9A 
 914      E695
 915 1324 F92A07E6 		.ascii	"\371*\007\346\263-\314W\261\314\233\316(0D\010\334k"
 915      B32DCC57 
 915      B1CC9BCE 
 915      28304408 
 915      DC6B
 916 1336 06EF8D1A 		.ascii	"\006\357\215\032\357S\322L\274\3378\330\027\357Q\035"
 916      EF53D24C 
 916      BCDF38D8 
 916      17EF511D 
 917 1346 302F15EF 		.ascii	"0/\025\357L-\221\237\341\231\367\231\016\274\017\260"
 917      4C2D919F 
 917      E199F799 
 917      0EBC0FB0 
 918 1356 F03E93E5 		.ascii	"\360>\223\345\335tt\200!B\340\266\033\274\357\323x\237"
 918      DD747480 
 918      2142E0B6 
 918      1BBCEFD3 
 918      789F
 919 1368 6EE67DC9 		.ascii	"n\346}\311Q\203w\315)t\310\335)\274\251\323\200\374"
 919      518377CD 
 919      2974C8DD 
 919      29BCA9D3 
 919      80FC
ARM GAS  /tmp/ccZb7D2c.s 			page 73


 920 137a 74709237 		.ascii	"tp\2227\2517;\372\022g\261\225-\007q2\265D~\266gq\316"
 920      A9373BFA 
 920      1267B195 
 920      2D077132 
 920      B5447EB6 
 921 1391 711067AE 		.ascii	"q\020g\256E\234sXq\232v\367\031\"\004\256\307\340}\352"
 921      459C7358 
 921      719A76F7 
 921      192204AE 
 921      C7E07DEA 
 922 13a5 10E4BD16 		.ascii	"\020\344\275\026\251\242<\324=\3100\221\257\267\027"
 922      A9A23CD4 
 922      3DC83091 
 922      AFB717
 923 13b4 680FF33D 		.ascii	"h\017\363=3\261\300\201\011\375\324\205\203\370F\351"
 923      33B1C081 
 923      09FDD485 
 923      83F846E9 
 924 13c4 F53228CE 		.ascii	"\3652(\316B\317=\277\344\320s:\355\231\236\024;\276"
 924      42CF3DBF 
 924      E4D0733A 
 924      ED999E14 
 924      3BBE
 925 13d6 E5E04CBE 		.ascii	"\345\340L\276f]\225B\266\257\237]\252V\373\335\257J"
 925      665D9542 
 925      B6AF9F5D 
 925      AA56FBDD 
 925      AF4A
 926 13e8 2F4E6356 		.ascii	"/NcV\245\337\345\223\266\237\337\033b\236 bM\201;>\204"
 926      A5DFE593 
 926      B69FDF1B 
 926      629E2062 
 926      4D813B3E 
 927 13fd F2AF1FFD 		.ascii	"\362\257\037\375\324\316pj\177=\3661\266X\224\346tH"
 927      D4CE706A 
 927      7F3DF631 
 927      B65894E6 
 927      7448
 928 140f 83AEE0D3 		.ascii	"\203\256\340\323C\024W\312Mg8I#\213u,M\263l/\033+!j"
 928      431457CA 
 928      4D673849 
 928      238B752C 
 928      4DB36C2F 
 929 1427 CA1F3E27 		.ascii	"\312\037>'\016+\032S\321\002n\251\266@\367\325\260r"
 929      0E2B1A53 
 929      D1026EA9 
 929      B640F7D5 
 929      B072
 930 1439 95AC12D1 		.ascii	"\225\254\022\321\036+\315\3076\264J\352\242O\224\202"
 930      1E2BCDC7 
 930      36B44AEA 
 930      A24F9482 
 931 1449 02A3C602 		.ascii	"\002\243\306\002\233\032\235\226\032K\3155\230\305x"
 931      9B1A9D96 
 931      1A4BCD35 
 931      98C578
 932 1458 B27BEE44 		.ascii	"\262{\356D\342\252\264\034\207V\347\035\336\010H\253"
ARM GAS  /tmp/ccZb7D2c.s 			page 74


 932      E2AAB41C 
 932      8756E71D 
 932      DE0848AB 
 933 1468 D58EADC8 		.ascii	"\325\216\255\310\351\014\247Vk\034[\221\360\341\324"
 933      E90CA756 
 933      6B1C5B91 
 933      F0E1D4
 934 1477 6AAD63AB 		.ascii	"j\255c\253\252\024}\275\236hE\305>\373\332\245\237*"
 934      AA147DBD 
 934      9E6845C5 
 934      3EFBDAA5 
 934      9F2A
 935 1489 53320D89 		.ascii	"S2\015\211\255I!\261\233)\350Y\347H\317\352\024r^\357"
 935      AD4921B1 
 935      9B29E859 
 935      E748CFEA 
 935      14725EEF 
 936 149d D88A8C44 		.ascii	"\330\212\214DN\255\336tlU\227\202\367z\307V5)Z58\266"
 936      4EADDE74 
 936      6C559782 
 936      F77AC756 
 936      35295A35 
 937 14b3 3A95A2D5 		.ascii	":\225\242\325\206$9\237h8y\377\002ee\276\375)@j\274"
 937      8624399F 
 937      683879FF 
 937      026565BE 
 937      FD29406A 
 938 14c8 F35F50B2 		.ascii	"\363_P\262\205\22456\316\350\253F\247s\015\206\201\206"
 938      85943536 
 938      CEE8AB46 
 938      A7730D86 
 938      8186
 939 14da 140C6C76 		.ascii	"\024\014lvd{z\012\305la\331V\217\0372\273\243\232\202"
 939      647B7A0A 
 939      C56C61D9 
 939      568F1F32 
 939      BBA39A82 
 940 14ee 9AB529A8 		.ascii	"\232\265)\250iJ\302]2K\021\022\\\356H\201\2730\005\356"
 940      694AC25D 
 940      324B1112 
 940      5CEE4881 
 940      BB3005EE 
 941 1502 56472E6B 		.ascii	"VG.kSp\271-\321\212\273;\034*\034>\2728T\030\372\375"
 941      5370B92D 
 941      D18ABB3B 
 941      1C2A1C3E 
 941      BA385418 
 942 1518 D8C0C87B 		.ascii	"\330\300\310{\357\034y\347\335\303\207\227\306\207\307"
 942      EF1C79E7 
 942      DDC38797 
 942      C687C7
 943 1527 E4E1D1D2 		.ascii	"\344\341\321\322\230\034\037\376\320\343\217\215~\354"
 943      981C1FFE 
 943      D0E38F8D 
 943      7EEC
 944 1535 99E1C1E2 		.ascii	"\231\341\301\342`iL\012L\270/rg1\227E\036\005\302\245"
 944      60694C0A 
ARM GAS  /tmp/ccZb7D2c.s 			page 75


 944      4CB82F72 
 944      67319745 
 944      1E05C2A5 
 945 1549 C1A7D21F 		.ascii	"\301\247\322\037\371\335\023\005\243\271\034\274QVB"
 945      F9DD1305 
 945      A3B91CBC 
 945      515642
 946 1558 6EFDCC19 		.ascii	"n\375\314\0311T\022\014\227\025I\000\026\017\026\027"
 946      3154120C 
 946      97154900 
 946      160F1617 
 947 1568 01D07057 		.ascii	"\001\320pWu'\305\345IQ)\016\365\007\312\3051I,\212\007"
 947      7527C5E5 
 947      4951290E 
 947      F507CAC5 
 947      31492C8A 
 948 157d 9E2E93CA 		.ascii	"\236.\223\312\244\200\234\037,\016Xnej\337\002r\226"
 948      A4809C1F 
 948      2C0E586E 
 948      656ADF02 
 948      7296
 949 158f F1243D1A 		.ascii	"\361$=\032(\221\236\221\341\022\215I\023\036p\313oi"
 949      28919E91 
 949      E1128D49 
 949      131E70CB 
 949      6F69
 950 15a1 241A0A4B 		.ascii	"$\032\012K\261\370\360GF\217\006\"t\0122\344h,T\032"
 950      B1F8F047 
 950      468F0622 
 950      740A32E4 
 950      682C541A 
 951 15b5 90BF37BC 		.ascii	"\220\2777\274,\0363\210,\221&\022\334\270\\\024*\221"
 951      2C1E3388 
 951      2C912612 
 951      DCB85C14 
 951      2A91
 952 15c7 A1566619 		.ascii	"\241Vf\031\\\357\372y@\3767\273j\0211X\034*\221\206"
 952      5CEFFA79 
 952      40FE37BB 
 952      6A113158 
 952      1C2A9186 
 953 15db 078AA471 		.ascii	"\007\212\244qbYX\016\350\340\331\201\200\336\020\311"
 953      6259580E 
 953      E8E0D981 
 953      80DE10C9 
 954 15eb 0D956604 		.ascii	"\015\225f\004KKd\240~\204'5\001\224\246\021\000\013"
 954      4B4B64A0 
 954      7E842735 
 954      0194A611 
 954      000B
 955 15fd CACF64C6 		.ascii	"\312\317d\306\244\361b,\022\220\205\330\335B\354\036"
 955      A4F1622C 
 955      129085D8 
 955      DD42EC1E 
 956 160d 2176AF10 		.ascii	"!v\257\020\273O\210\215\022b\367\373b#G@\032)\204cp"
 956      BB4F888D 
 956      1262F7FB 
ARM GAS  /tmp/ccZb7D2c.s 			page 76


 956      62234740 
 956      1A298463 
 957 1622 B92B2D1A 		.ascii	"\271+-\032\200\372\031Db\023\245\030\\K\303ER\314\037"
 957      80FA1944 
 957      6213A518 
 957      5C4BC345 
 957      52CC1F
 958 1635 2C166344 		.ascii	",\026cD\214bD\312\216\313O\211\341\320\370\222\200\214"
 958      8C6244CA 
 958      8ECB4F89 
 958      E1D0F892 
 958      808C
 959 1647 4CDE7B77 		.ascii	"L\336{w@\246dc1\032\200\012\341P$$g\312qY\224AI\031"
 959      40A66463 
 959      311A800A 
 959      E1502424 
 959      67CA7159 
 960 165f E4E12850 		.ascii	"\344\341(P\211V\015J\031\244\026<\313\220#\245E\022"
 960      89560D4A 
 960      19A4163C 
 960      CB9023A5 
 960      4512
 961 1671 7E1F1716 		.ascii	"~\037\027\026\307\3073\344\2304.\216\314\223BZ$>\036"
 961      C7C733E4 
 961      98342E8E 
 961      CC93425A 
 961      243E1E
 962 1684 1E528940 		.ascii	"\036R\211@s]6\261\242I\360(Sz&$\007\001 }\242\\Z\370"
 962      735D36B1 
 962      A249F028 
 962      537A2624 
 962      0701207D 
 963 169c 97E860AA 		.ascii	"\227\350`\252{h*\305\244\222 \000\247M\224\345X4\027"
 963      7B682AC5 
 963      A4922000 
 963      A74D94E5 
 963      583417
 964 16af 6C212E45 		.ascii	"l!.E\304h1\310\346\016W&'\0213\317\240F\225\026,\001"
 964      C46831C8 
 964      E60E5726 
 964      271133CF 
 964      A0469516 
 965 16c5 1DA5C503 		.ascii	"\035\245\305\003p\205\276\340a4\023 #e\240\031Wp\021"
 965      7085BEE0 
 965      61341320 
 965      2365A019 
 965      577011
 966 16d8 F9190217 		.ascii	"\371\031\002\027\321\340\340Z:\261\004\304\213\000\300"
 966      D1E0E05A 
 966      3AB104C4 
 966      8B00C0
 967 16e7 4E4433D0 		.ascii	"ND3\320\2112\324\213\346H\023\244\0229\"\306\237\202"
 967      8932D48B 
 967      E64813A4 
 967      123922C6 
 967      9F82
 968 16f9 27D24452 		.ascii	"'\322DR\360E\003ey\272\231\207Cq f\240\311\360\311\235"
ARM GAS  /tmp/ccZb7D2c.s 			page 77


 968      F0450365 
 968      79BA9987 
 968      43712066 
 968      A0C9F0C9 
 969 170e AC6860A2 		.ascii	"\254h`\242\030\222C%\343A\003 \033\215n,\302\015)*\225"
 969      18924325 
 969      E3410320 
 969      1B8D6E2C 
 969      C20D292A 
 970 1723 80658E87 		.ascii	"\200e\216\207Z\320\005\251\237M$,\206\321\304\340f\264"
 970      5AD005A9 
 970      9F4D242C 
 970      86D1C4E0 
 970      66B4
 971 1735 B434FC2F 		.ascii	"\2644\374/n8\221\211\\\006\313\241\210\024\210Hb\274"
 971      6E389189 
 971      5C06CBA1 
 971      88148848 
 971      62BC
 972 1747 2C264524 		.ascii	",&E$\"\234\214\230\214B\362\027Jq\220zi,.\373\303b\\"
 972      229C8C98 
 972      8C42F217 
 972      4A71907A 
 972      692C2EFB 
 973 175e 4E2FC3DB 		.ascii	"N/\303\333|IfL\306Vrv\260,R\026\026\345\320\004\211"
 973      7C49664C 
 973      C6567276 
 973      B02C5216 
 973      16E5D004 
 974 1773 9A413C5B 		.ascii	"\232A<[\363\346PIH\366\311OG\323\002\017\0039y\332\315"
 974      F3E65049 
 974      48F6C94F 
 974      47D3020F 
 974      033979DA 
 975 1788 925219C4 		.ascii	"\222R\031\304-O\032\244}E\347\013\225\304\245\230,\310"
 975      2D4F1AA4 
 975      7D45E70B 
 975      95C4A598 
 975      2CC8
 976 179a 517A735C 		.ascii	"Qzs\\h\\)\260\023)\235 \015\320\356\024Ixu\247\353I"
 976      685C29B0 
 976      13299D20 
 976      0DD0EE14 
 976      497875A7 
 977 17b0 C4F5205E 		.ascii	"\304\365 ^\214\235\024\377O\210_9Xz\002c\331\220`\361"
 977      8C9D14FF 
 977      4F885F39 
 977      587A0263 
 977      D99060F1 
 978 17c4 63F233FF 		.ascii	"c\3623\377E\260~W*\377\206\020"
 978      45B07E57 
 978      2AFF8610 
 979 17d0 32568844 		.ascii	"2V\210D\177\342\214\033\217\005\251\302\203\334@l\375"
 979      7FE28C1B 
 979      8F05A9C2 
 979      83DC406C 
 979      FD
ARM GAS  /tmp/ccZb7D2c.s 			page 78


 980 17e1 FBC2BF48 		.ascii	"\373\302\277HA\371Q`.\033\277\223>\306f\031\305\001"
 980      41F95160 
 980      2E1BBF93 
 980      3EC66619 
 980      C501
 981 17f3 58FAEFD8 		.ascii	"X\372\357\330$\274\237k\376\226\203_4JrM\345\261y\246"
 981      24BC9F6B 
 981      FE96835F 
 981      344A724D 
 981      E5B179A6 
 982 1807 2F0F85C3 		.ascii	"/\017\205\303\377\352\206\315\"\251\260l<\011\241\201"
 982      FFEA86CD 
 982      22A9B06C 
 982      3C09A181 
 983 1817 A2C2F181 		.ascii	"\242\302\361\201`\261\024|\012#\270\253\306\250&h\374"
 983      60B1147C 
 983      0A23B8AB 
 983      C6A82668 
 983      FC
 984 1828 3D4D6124 		.ascii	"=Ma$\207\350B- \020\214\205@\307\305E\232\014\307\210"
 984      87E8422D 
 984      20108C85 
 984      40C7C545 
 984      9A0CC788 
 985 183c 61F936A3 		.ascii	"a\3716\243^i4\251\332 \023\005\332\220\001a\374\327"
 985      5E6934A9 
 985      DA201305 
 985      DA900161 
 985      FCD7
 986 184e 85E34793 		.ascii	"\205\343G\223;\243\301j\342cA(c\203\305\217\224\216"
 986      3BA3C16A 
 986      E2634128 
 986      6383C58F 
 986      948E
 987 1860 0D4B5274 		.ascii	"\015KRtl\016~{\034\214}\322\243\371\264\014\003\210"
 987      6C0E7E7B 
 987      1C8C7DD2 
 987      A3F9B40C 
 987      0388
 988 1872 54541696 		.ascii	"TT\026\226\310\303\000\031!\244\210\026\364\265r.q\215"
 988      C8C30019 
 988      21A48816 
 988      F4B5722E 
 988      718D
 989 1884 49D45900 		.ascii	"I\324Y\000-\220\370\236\021\323\3340=\206\326\224\026"
 989      2D90F89E 
 989      11D3DC30 
 989      3D86D694 
 989      16
 990 1895 C39017A3 		.ascii	"\303\220\027\243!/\246\205\274,\270[\026\203(\"\247"
 990      212FA685 
 990      BC2CB85B 
 990      16832822 
 990      A7
 991 18a6 C548A35B 		.ascii	"\305H\243[&\204br\231\030\016\020#\216\351^x+\000\333"
 991      26846272 
 991      99180E10 
ARM GAS  /tmp/ccZb7D2c.s 			page 79


 991      238EE95E 
 991      782B00DB 
 992 18ba 3C1868B9 		.ascii	"<\030h\271\247\215R\226[\031\023dtyr%\203R\026!\032"
 992      A78D5296 
 992      5B191364 
 992      74797225 
 992      83521621 
 993 18cf BD2313EE 		.ascii	"\275#\023\356\024IaY\204\302\270\262\222`\000\353\220"
 993      14496159 
 993      84C2B8B2 
 993      926000EB 
 993      90
 994 18e0 523AA92B 		.ascii	"R:\251+\306r\340B\034\213T\207[\244\273<\312>jX\013"
 994      C672E042 
 994      1C8B5487 
 994      5BA4BB3C 
 994      CA3E6A58 
 995 18f5 0DE63B59 		.ascii	"\015\346;YQ\261$\024$\221 #\024\217\221\030\226IdN\012"
 995      51B12414 
 995      24912023 
 995      148F9118 
 995      9649644E 
 996 190a 83481489 		.ascii	"\203H\024\211\211\020)\013\313\306\215#\244f\310\205"
 996      8910290B 
 996      CBC68D23 
 996      A466C885 
 997 191a 8178E87F 		.ascii	"\201x\350\177\245<\00221\030\300`\004\267\343\022R\236"
 997      A53C0232 
 997      3118C060 
 997      04B7E312 
 997      529E
 998 192c 46AED12C 		.ascii	"F\256\321,\310\265\220\233\011%\214\344\351\320.*\307"
 998      C8B5909B 
 998      09258CE4 
 998      E9D02E2A 
 998      C7
 999 193d B2E0A241 		.ascii	"\262\340\242A\345\232q}\240\360\354\210\010\341\033"
 999      E59A717D 
 999      A0F0EC88 
 999      08E11B
 1000 194c 4356BE1C 		.ascii	"CV\276\034\011\004a\020)\214A\030(\205\221$\275t\334"
 1000      09046110 
 1000      298C4118 
 1000      28859124 
 1000      BD74DC
 1001 195f B8B8041E 		.ascii	"\270\270\004\036\035\311{J\212\225Haj>rZI \024{:\263"
 1001      1DC97B4A 
 1001      8A954861 
 1001      6A3E725A 
 1001      4920147B 
 1002 1975 84A808C8 		.ascii	"\204\250\010\310\311\216\030F\244\027\201\245\\s\233"
 1002      C98E1846 
 1002      A41781A5 
 1002      5C739B
 1003 1984 BC505158 		.ascii	"\274PQX\242\241\021B\242\020,\316\014\240\374\002\201"
 1003      A2A11142 
 1003      A2102CCE 
ARM GAS  /tmp/ccZb7D2c.s 			page 80


 1003      0CA0FC02 
 1003      81
 1004 1995 017AE1CE 		.ascii	"\001z\341\316{\356\037yO\256\311\315\271\304\243{\357"
 1004      7BEE1F79 
 1004      4FAEC9CD 
 1004      B9C4A37B 
 1004      EF
 1005 19a6 1D79573E 		.ascii	"\035yW>\343\267\226\307?\037\231\223pc\313\223\273F"
 1005      E3B796C7 
 1005      3F1F9993 
 1005      7063CB93 
 1005      BB46
 1006 19b8 E5597CD9 		.ascii	"\345Y|\331\362\360\356\273\315\036lyt\317=\003\314\316"
 1006      F2F0EEBB 
 1006      CD1E6C79 
 1006      74CF3D03 
 1006      CCCE
 1007 19ca CDDDE7E0 		.ascii	"\315\335\347\340\221`0\303G?6\366\321\261\011\307$S"
 1007      916030C3 
 1007      473F36F6 
 1007      D1B109C7 
 1007      2453
 1008 19dc B260E4B7 		.ascii	"\262`\344\267\200\004\316\011\230 \304\300\303\017\215"
 1008      8004CE09 
 1008      9820C4C0 
 1008      C30F8D
 1009 19eb FDCD1F1E 		.ascii	"\375\315\037\036\177t\200\030\236(N\212C\260\014\303"
 1009      7F748018 
 1009      9E284E8A 
 1009      43B00CC3 
 1010 19fb 5C236D82 		.ascii	"\\#m\202\030.\223\376\037Cb~\351"
 1010      182E93FE 
 1010      1F43627E 
 1010      E9
 1011              		.text
 1012              		.section	.gnu.lto_.symtab.b55526f9745bf699,"",%progbits
 1013 0000 63684D74 		.ascii	"chMtxObjectInit\000\000\000\000\000\000\000\000\000"
 1013      784F626A 
 1013      65637449 
 1013      6E697400 
 1013      00000000 
 1014 0018 000000B2 		.ascii	"\000\000\000\262\001\000\000chMtxLockS\000\000\000\000"
 1014      01000063 
 1014      684D7478 
 1014      4C6F636B 
 1014      53000000 
 1015 002d 00000000 		.ascii	"\000\000\000\000\000\000\000\000\270\001\000\000chM"
 1015      00000000 
 1015      B8010000 
 1015      63684D
 1016 003c 74784C6F 		.ascii	"txLock\000\000\000\000\000\000\000\000\000\000\000\000"
 1016      636B0000 
 1016      00000000 
 1016      00000000 
 1016      0000
 1017 004e BC010000 		.ascii	"\274\001\000\000chMtxTryLockS\000\000\000\000\000\000"
 1017      63684D74 
ARM GAS  /tmp/ccZb7D2c.s 			page 81


 1017      78547279 
 1017      4C6F636B 
 1017      53000000 
 1018 0065 00000000 		.ascii	"\000\000\000\000\000\000\300\001\000\000chMtxTryLoc"
 1018      0000C001 
 1018      00006368 
 1018      4D747854 
 1018      72794C6F 
 1019 007a 6B000000 		.ascii	"k\000\000\000\000\000\000\000\000\000\000\000\000\304"
 1019      00000000 
 1019      00000000 
 1019      00C4
 1020 0088 01000063 		.ascii	"\001\000\000chMtxUnlock\000\000\000\000\000\000\000"
 1020      684D7478 
 1020      556E6C6F 
 1020      636B0000 
 1020      00000000 
 1021 009d 00000000 		.ascii	"\000\000\000\000\000\310\001\000\000chMtxUnlockS\000"
 1021      00C80100 
 1021      0063684D 
 1021      7478556E 
 1021      6C6F636B 
 1022 00b3 00000000 		.ascii	"\000\000\000\000\000\000\000\000\000\000\000\314\001"
 1022      00000000 
 1022      000000CC 
 1022      01
 1023 00c0 00006368 		.ascii	"\000\000chMtxUnlockAll\000\000\000\000\000\000\000\000"
 1023      4D747855 
 1023      6E6C6F63 
 1023      6B416C6C 
 1023      00000000 
 1024 00d8 00000000 		.ascii	"\000\000\000\000\320\001\000\000ch\000\000\002\000\000"
 1024      D0010000 
 1024      63680000 
 1024      020000
 1025 00e7 00000000 		.ascii	"\000\000\000\000\000\000\000\351\001\000\000_dbg_ch"
 1025      000000E9 
 1025      0100005F 
 1025      6462675F 
 1025      6368
 1026 00f9 65636B5F 		.ascii	"eck_lock\000\000\002\000\000\000\000\000\000\000\000"
 1026      6C6F636B 
 1026      00000200 
 1026      00000000 
 1026      000000
 1027 010c 00D30100 		.ascii	"\000\323\001\000\000_stats_start_measure_crit_thd\000"
 1027      005F7374 
 1027      6174735F 
 1027      73746172 
 1027      745F6D65 
 1028 012f 00020000 		.ascii	"\000\002\000\000\000\000\000\000\000\000\000\325\001"
 1028      00000000 
 1028      000000D5 
 1028      01
 1029 013c 00006368 		.ascii	"\000\000chSysHalt\000\000\002\000\000\000\000\000\000"
 1029      53797348 
 1029      616C7400 
ARM GAS  /tmp/ccZb7D2c.s 			page 82


 1029      00020000 
 1029      00000000 
 1030 0150 000000D7 		.ascii	"\000\000\000\327\001\000\000_stats_stop_measure_cri"
 1030      0100005F 
 1030      73746174 
 1030      735F7374 
 1030      6F705F6D 
 1031 016e 745F7468 		.ascii	"t_thd\000\000\002\000\000\000\000\000\000\000\000\000"
 1031      64000002 
 1031      00000000 
 1031      00000000 
 1031      00
 1032 017f DB010000 		.ascii	"\333\001\000\000_dbg_check_unlock\000\000\002\000\000"
 1032      5F646267 
 1032      5F636865 
 1032      636B5F75 
 1032      6E6C6F63 
 1033 0199 00000000 		.ascii	"\000\000\000\000\000\000\000\335\001\000\000chDbgCh"
 1033      000000DD 
 1033      01000063 
 1033      68446267 
 1033      4368
 1034 01ab 65636B43 		.ascii	"eckClassS\000\000\002\000\000\000\000\000\000\000\000"
 1034      6C617373 
 1034      53000002 
 1034      00000000 
 1034      00000000 
 1035 01bf 00DF0100 		.ascii	"\000\337\001\000\000chSchGoSleepS\000\000\002\000\000"
 1035      00636853 
 1035      6368476F 
 1035      536C6565 
 1035      70530000 
 1036 01d6 00000000 		.ascii	"\000\000\000\000\000\000\000\341\001\000\000chSchRe"
 1036      000000E1 
 1036      01000063 
 1036      68536368 
 1036      5265
 1037 01e8 61647949 		.ascii	"adyI\000\000\002\000\000\000\000\000\000\000\000\000"
 1037      00000200 
 1037      00000000 
 1037      00000000 
 1038 01f8 E5010000 		.ascii	"\345\001\000\000chSchRescheduleS\000\000\002\000\000"
 1038      63685363 
 1038      68526573 
 1038      63686564 
 1038      756C6553 
 1039 0211 00000000 		.ascii	"\000\000\000\000\000\000\000\347\001\000\000"
 1039      000000E7 
 1039      010000
 1040              		.text
 1041              		.section	.gnu.lto_.opts,"",%progbits
 1042 0000 272D6D63 		.ascii	"'-mcpu=cortex-m4' '-mno-thumb-interwork' '-mthumb' "
 1042      70753D63 
 1042      6F727465 
 1042      782D6D34 
 1042      2720272D 
 1043 0033 272D6767 		.ascii	"'-ggdb' '-O0' '-fomit-frame-pointer' '-falign-funct"
ARM GAS  /tmp/ccZb7D2c.s 			page 83


 1043      64622720 
 1043      272D4F30 
 1043      2720272D 
 1043      666F6D69 
 1044 0066 696F6E73 		.ascii	"ions=16' '-ffunction-sections' '-fdata-sections' '-"
 1044      3D313627 
 1044      20272D66 
 1044      66756E63 
 1044      74696F6E 
 1045 0099 666E6F2D 		.ascii	"fno-common' '-flto'\000"
 1045      636F6D6D 
 1045      6F6E2720 
 1045      272D666C 
 1045      746F2700 
 1046              		.text
 1047              		.cfi_sections	.debug_frame
 1048              		.section	.text.port_lock,"ax",%progbits
 1049              		.align	2
 1050              		.p2align 4,,15
 1051              		.thumb
 1052              		.thumb_func
 1053              		.type	port_lock, %function
 1054              	port_lock:
 1055              	.LFB127:
 1056              		.file 1 "lib/ChibiOS_16.1.4//os/rt/ports/ARMCMx/chcore_v7m.h"
 1057              		.loc 1 456 0
 1058              		.cfi_startproc
 1059              		@ args = 0, pretend = 0, frame = 8
 1060              		@ frame_needed = 0, uses_anonymous_args = 0
 1061              		@ link register save eliminated.
 1062 0000 82B0     		sub	sp, sp, #8
 1063              		.cfi_def_cfa_offset 8
 1064 0002 2023     		movs	r3, #32
 1065 0004 0193     		str	r3, [sp, #4]
 1066              	.LBB6:
 1067              	.LBB7:
 1068              		.file 2 "lib/ChibiOS_16.1.4//os/ext/CMSIS/include/core_cmFunc.h"
 1069              		.loc 2 548 0
 1070 0006 019B     		ldr	r3, [sp, #4]
 1071              	@ 548 "lib/ChibiOS_16.1.4//os/ext/CMSIS/include/core_cmFunc.h" 1
 1072 0008 83F31188 		MSR basepri, r3
 1073              	@ 0 "" 2
 1074              		.thumb
 1075              	.LBE7:
 1076              	.LBE6:
 1077              		.loc 1 473 0
 1078 000c 02B0     		add	sp, sp, #8
 1079              		@ sp needed
 1080 000e 7047     		bx	lr
 1081              		.cfi_endproc
 1082              	.LFE127:
 1083              		.size	port_lock, .-port_lock
 1084              		.section	.text.port_unlock,"ax",%progbits
 1085              		.align	2
 1086              		.p2align 4,,15
 1087              		.thumb
 1088              		.thumb_func
ARM GAS  /tmp/ccZb7D2c.s 			page 84


 1089              		.type	port_unlock, %function
 1090              	port_unlock:
 1091              	.LFB128:
 1092              		.loc 1 480 0
 1093              		.cfi_startproc
 1094              		@ args = 0, pretend = 0, frame = 8
 1095              		@ frame_needed = 0, uses_anonymous_args = 0
 1096              		@ link register save eliminated.
 1097 0000 82B0     		sub	sp, sp, #8
 1098              		.cfi_def_cfa_offset 8
 1099 0002 0023     		movs	r3, #0
 1100 0004 0193     		str	r3, [sp, #4]
 1101              	.LBB8:
 1102              	.LBB9:
 1103              		.loc 2 548 0
 1104 0006 019B     		ldr	r3, [sp, #4]
 1105              	@ 548 "lib/ChibiOS_16.1.4//os/ext/CMSIS/include/core_cmFunc.h" 1
 1106 0008 83F31188 		MSR basepri, r3
 1107              	@ 0 "" 2
 1108              		.thumb
 1109              	.LBE9:
 1110              	.LBE8:
 1111              		.loc 1 487 0
 1112 000c 02B0     		add	sp, sp, #8
 1113              		@ sp needed
 1114 000e 7047     		bx	lr
 1115              		.cfi_endproc
 1116              	.LFE128:
 1117              		.size	port_unlock, .-port_unlock
 1118              		.section	.text.queue_init,"ax",%progbits
 1119              		.align	2
 1120              		.p2align 4,,15
 1121              		.thumb
 1122              		.thumb_func
 1123              		.type	queue_init, %function
 1124              	queue_init:
 1125              	.LFB150:
 1126              		.file 3 "lib/ChibiOS_16.1.4//os/rt/include/chschd.h"
 1127              		.loc 3 602 0
 1128              		.cfi_startproc
 1129              		@ args = 0, pretend = 0, frame = 8
 1130              		@ frame_needed = 0, uses_anonymous_args = 0
 1131              		@ link register save eliminated.
 1132 0000 82B0     		sub	sp, sp, #8
 1133              		.cfi_def_cfa_offset 8
 1134 0002 0190     		str	r0, [sp, #4]
 1135              		.loc 3 604 0
 1136 0004 019B     		ldr	r3, [sp, #4]
 1137 0006 019A     		ldr	r2, [sp, #4]
 1138 0008 1A60     		str	r2, [r3]
 1139              		.loc 3 605 0
 1140 000a 019B     		ldr	r3, [sp, #4]
 1141 000c 019A     		ldr	r2, [sp, #4]
 1142 000e 5A60     		str	r2, [r3, #4]
 1143              		.loc 3 606 0
 1144 0010 02B0     		add	sp, sp, #8
 1145              		@ sp needed
ARM GAS  /tmp/ccZb7D2c.s 			page 85


 1146 0012 7047     		bx	lr
 1147              		.cfi_endproc
 1148              	.LFE150:
 1149              		.size	queue_init, .-queue_init
 1150 0014 AFF30080 		.section	.text.queue_notempty,"ax",%progbits
 1150      AFF30080 
 1150      AFF30080 
 1151              		.align	2
 1152              		.p2align 4,,15
 1153              		.thumb
 1154              		.thumb_func
 1155              		.type	queue_notempty, %function
 1156              	queue_notempty:
 1157              	.LFB152:
 1158              		.loc 3 629 0
 1159              		.cfi_startproc
 1160              		@ args = 0, pretend = 0, frame = 8
 1161              		@ frame_needed = 0, uses_anonymous_args = 0
 1162              		@ link register save eliminated.
 1163 0000 82B0     		sub	sp, sp, #8
 1164              		.cfi_def_cfa_offset 8
 1165 0002 0190     		str	r0, [sp, #4]
 1166              		.loc 3 631 0
 1167 0004 019B     		ldr	r3, [sp, #4]
 1168 0006 1A68     		ldr	r2, [r3]
 1169 0008 019B     		ldr	r3, [sp, #4]
 1170 000a 9A42     		cmp	r2, r3
 1171 000c 0CBF     		ite	eq
 1172 000e 0023     		moveq	r3, #0
 1173 0010 0123     		movne	r3, #1
 1174 0012 DBB2     		uxtb	r3, r3
 1175              		.loc 3 632 0
 1176 0014 1846     		mov	r0, r3
 1177 0016 02B0     		add	sp, sp, #8
 1178              		@ sp needed
 1179 0018 7047     		bx	lr
 1180              		.cfi_endproc
 1181              	.LFE152:
 1182              		.size	queue_notempty, .-queue_notempty
 1183 001a 00BFAFF3 		.section	.text.queue_prio_insert,"ax",%progbits
 1183      0080
 1184              		.align	2
 1185              		.p2align 4,,15
 1186              		.thumb
 1187              		.thumb_func
 1188              		.type	queue_prio_insert, %function
 1189              	queue_prio_insert:
 1190              	.LFB155:
 1191              		.loc 3 651 0
 1192              		.cfi_startproc
 1193              		@ args = 0, pretend = 0, frame = 16
 1194              		@ frame_needed = 0, uses_anonymous_args = 0
 1195              		@ link register save eliminated.
 1196 0000 84B0     		sub	sp, sp, #16
 1197              		.cfi_def_cfa_offset 16
 1198 0002 0190     		str	r0, [sp, #4]
 1199 0004 0091     		str	r1, [sp]
ARM GAS  /tmp/ccZb7D2c.s 			page 86


 1200              		.loc 3 653 0
 1201 0006 009B     		ldr	r3, [sp]
 1202 0008 0393     		str	r3, [sp, #12]
 1203              	.L8:
 1204              		.loc 3 655 0 discriminator 1
 1205 000a 039B     		ldr	r3, [sp, #12]
 1206 000c 1B68     		ldr	r3, [r3]
 1207 000e 0393     		str	r3, [sp, #12]
 1208              		.loc 3 656 0 discriminator 1
 1209 0010 039A     		ldr	r2, [sp, #12]
 1210 0012 009B     		ldr	r3, [sp]
 1211 0014 9A42     		cmp	r2, r3
 1212 0016 05D0     		beq	.L7
 1213 0018 039B     		ldr	r3, [sp, #12]
 1214 001a 9A68     		ldr	r2, [r3, #8]
 1215 001c 019B     		ldr	r3, [sp, #4]
 1216 001e 9B68     		ldr	r3, [r3, #8]
 1217 0020 9A42     		cmp	r2, r3
 1218 0022 F2D2     		bcs	.L8
 1219              	.L7:
 1220              		.loc 3 657 0
 1221 0024 019B     		ldr	r3, [sp, #4]
 1222 0026 039A     		ldr	r2, [sp, #12]
 1223 0028 1A60     		str	r2, [r3]
 1224              		.loc 3 658 0
 1225 002a 039B     		ldr	r3, [sp, #12]
 1226 002c 5A68     		ldr	r2, [r3, #4]
 1227 002e 019B     		ldr	r3, [sp, #4]
 1228 0030 5A60     		str	r2, [r3, #4]
 1229              		.loc 3 659 0
 1230 0032 019B     		ldr	r3, [sp, #4]
 1231 0034 5B68     		ldr	r3, [r3, #4]
 1232 0036 019A     		ldr	r2, [sp, #4]
 1233 0038 1A60     		str	r2, [r3]
 1234              		.loc 3 660 0
 1235 003a 039B     		ldr	r3, [sp, #12]
 1236 003c 019A     		ldr	r2, [sp, #4]
 1237 003e 5A60     		str	r2, [r3, #4]
 1238              		.loc 3 661 0
 1239 0040 04B0     		add	sp, sp, #16
 1240              		@ sp needed
 1241 0042 7047     		bx	lr
 1242              		.cfi_endproc
 1243              	.LFE155:
 1244              		.size	queue_prio_insert, .-queue_prio_insert
 1245 0044 AFF30080 		.section	.text.queue_fifo_remove,"ax",%progbits
 1245      AFF30080 
 1245      AFF30080 
 1246              		.align	2
 1247              		.p2align 4,,15
 1248              		.thumb
 1249              		.thumb_func
 1250              		.type	queue_fifo_remove, %function
 1251              	queue_fifo_remove:
 1252              	.LFB157:
 1253              		.loc 3 671 0
 1254              		.cfi_startproc
ARM GAS  /tmp/ccZb7D2c.s 			page 87


 1255              		@ args = 0, pretend = 0, frame = 16
 1256              		@ frame_needed = 0, uses_anonymous_args = 0
 1257              		@ link register save eliminated.
 1258 0000 84B0     		sub	sp, sp, #16
 1259              		.cfi_def_cfa_offset 16
 1260 0002 0190     		str	r0, [sp, #4]
 1261              		.loc 3 672 0
 1262 0004 019B     		ldr	r3, [sp, #4]
 1263 0006 1B68     		ldr	r3, [r3]
 1264 0008 0393     		str	r3, [sp, #12]
 1265              		.loc 3 674 0
 1266 000a 039B     		ldr	r3, [sp, #12]
 1267 000c 1A68     		ldr	r2, [r3]
 1268 000e 019B     		ldr	r3, [sp, #4]
 1269 0010 1A60     		str	r2, [r3]
 1270              		.loc 3 675 0
 1271 0012 019B     		ldr	r3, [sp, #4]
 1272 0014 1B68     		ldr	r3, [r3]
 1273 0016 019A     		ldr	r2, [sp, #4]
 1274 0018 5A60     		str	r2, [r3, #4]
 1275              		.loc 3 677 0
 1276 001a 039B     		ldr	r3, [sp, #12]
 1277              		.loc 3 678 0
 1278 001c 1846     		mov	r0, r3
 1279 001e 04B0     		add	sp, sp, #16
 1280              		@ sp needed
 1281 0020 7047     		bx	lr
 1282              		.cfi_endproc
 1283              	.LFE157:
 1284              		.size	queue_fifo_remove, .-queue_fifo_remove
 1285 0022 00BFAFF3 		.section	.text.queue_dequeue,"ax",%progbits
 1285      0080AFF3 
 1285      0080AFF3 
 1285      0080
 1286              		.align	2
 1287              		.p2align 4,,15
 1288              		.thumb
 1289              		.thumb_func
 1290              		.type	queue_dequeue, %function
 1291              	queue_dequeue:
 1292              	.LFB159:
 1293              		.loc 3 689 0
 1294              		.cfi_startproc
 1295              		@ args = 0, pretend = 0, frame = 8
 1296              		@ frame_needed = 0, uses_anonymous_args = 0
 1297              		@ link register save eliminated.
 1298 0000 82B0     		sub	sp, sp, #8
 1299              		.cfi_def_cfa_offset 8
 1300 0002 0190     		str	r0, [sp, #4]
 1301              		.loc 3 691 0
 1302 0004 019B     		ldr	r3, [sp, #4]
 1303 0006 5B68     		ldr	r3, [r3, #4]
 1304 0008 019A     		ldr	r2, [sp, #4]
 1305 000a 1268     		ldr	r2, [r2]
 1306 000c 1A60     		str	r2, [r3]
 1307              		.loc 3 692 0
 1308 000e 019B     		ldr	r3, [sp, #4]
ARM GAS  /tmp/ccZb7D2c.s 			page 88


 1309 0010 1B68     		ldr	r3, [r3]
 1310 0012 019A     		ldr	r2, [sp, #4]
 1311 0014 5268     		ldr	r2, [r2, #4]
 1312 0016 5A60     		str	r2, [r3, #4]
 1313              		.loc 3 694 0
 1314 0018 019B     		ldr	r3, [sp, #4]
 1315              		.loc 3 695 0
 1316 001a 1846     		mov	r0, r3
 1317 001c 02B0     		add	sp, sp, #8
 1318              		@ sp needed
 1319 001e 7047     		bx	lr
 1320              		.cfi_endproc
 1321              	.LFE159:
 1322              		.size	queue_dequeue, .-queue_dequeue
 1323              		.section	.text.chSysLock,"ax",%progbits
 1324              		.align	2
 1325              		.p2align 4,,15
 1326              		.thumb
 1327              		.thumb_func
 1328              		.type	chSysLock, %function
 1329              	chSysLock:
 1330              	.LFB167:
 1331              		.file 4 "lib/ChibiOS_16.1.4//os/rt/include/chsys.h"
 1332              		.loc 4 346 0
 1333              		.cfi_startproc
 1334              		@ args = 0, pretend = 0, frame = 0
 1335              		@ frame_needed = 0, uses_anonymous_args = 0
 1336 0000 08B5     		push	{r3, lr}
 1337              		.cfi_def_cfa_offset 8
 1338              		.cfi_offset 3, -8
 1339              		.cfi_offset 14, -4
 1340              		.loc 4 348 0
 1341 0002 FFF7FEFF 		bl	port_lock
 1342              		.loc 4 349 0
 1343 0006 FFF7FEFF 		bl	_stats_start_measure_crit_thd
 1344              		.loc 4 350 0
 1345 000a FFF7FEFF 		bl	_dbg_check_lock
 1346              		.loc 4 351 0
 1347 000e 08BD     		pop	{r3, pc}
 1348              		.cfi_endproc
 1349              	.LFE167:
 1350              		.size	chSysLock, .-chSysLock
 1351              		.section	.text.chSysUnlock,"ax",%progbits
 1352              		.align	2
 1353              		.p2align 4,,15
 1354              		.thumb
 1355              		.thumb_func
 1356              		.type	chSysUnlock, %function
 1357              	chSysUnlock:
 1358              	.LFB168:
 1359              		.loc 4 358 0
 1360              		.cfi_startproc
 1361              		@ args = 0, pretend = 0, frame = 0
 1362              		@ frame_needed = 0, uses_anonymous_args = 0
 1363 0000 08B5     		push	{r3, lr}
 1364              		.cfi_def_cfa_offset 8
 1365              		.cfi_offset 3, -8
ARM GAS  /tmp/ccZb7D2c.s 			page 89


 1366              		.cfi_offset 14, -4
 1367              		.loc 4 360 0
 1368 0002 FFF7FEFF 		bl	_dbg_check_unlock
 1369              		.loc 4 361 0
 1370 0006 FFF7FEFF 		bl	_stats_stop_measure_crit_thd
 1371              		.loc 4 367 0
 1372 000a 40F20003 		movw	r3, #:lower16:ch
 1373 000e C0F20003 		movt	r3, #:upper16:ch
 1374 0012 1A68     		ldr	r2, [r3]
 1375 0014 40F20003 		movw	r3, #:lower16:ch
 1376 0018 C0F20003 		movt	r3, #:upper16:ch
 1377 001c 9A42     		cmp	r2, r3
 1378 001e 13D0     		beq	.L15
 1379              		.loc 4 367 0 is_stmt 0 discriminator 1
 1380 0020 40F20003 		movw	r3, #:lower16:ch
 1381 0024 C0F20003 		movt	r3, #:upper16:ch
 1382 0028 9B69     		ldr	r3, [r3, #24]
 1383 002a 9A68     		ldr	r2, [r3, #8]
 1384 002c 40F20003 		movw	r3, #:lower16:ch
 1385 0030 C0F20003 		movt	r3, #:upper16:ch
 1386 0034 1B68     		ldr	r3, [r3]
 1387 0036 9B68     		ldr	r3, [r3, #8]
 1388 0038 9A42     		cmp	r2, r3
 1389 003a 05D2     		bcs	.L15
 1390 003c 40F20000 		movw	r0, #:lower16:__func__.5915
 1391 0040 C0F20000 		movt	r0, #:upper16:__func__.5915
 1392 0044 FFF7FEFF 		bl	chSysHalt
 1393              	.L15:
 1394              		.loc 4 371 0 is_stmt 1
 1395 0048 FFF7FEFF 		bl	port_unlock
 1396              		.loc 4 372 0
 1397 004c 08BD     		pop	{r3, pc}
 1398              		.cfi_endproc
 1399              	.LFE168:
 1400              		.size	chSysUnlock, .-chSysUnlock
 1401 004e 00BF     		.section	.text.chMtxQueueNotEmptyS,"ax",%progbits
 1402              		.align	2
 1403              		.p2align 4,,15
 1404              		.thumb
 1405              		.thumb_func
 1406              		.type	chMtxQueueNotEmptyS, %function
 1407              	chMtxQueueNotEmptyS:
 1408              	.LFB214:
 1409              		.file 5 "lib/ChibiOS_16.1.4//os/rt/include/chmtx.h"
 1410              		.loc 5 129 0
 1411              		.cfi_startproc
 1412              		@ args = 0, pretend = 0, frame = 8
 1413              		@ frame_needed = 0, uses_anonymous_args = 0
 1414 0000 00B5     		push	{lr}
 1415              		.cfi_def_cfa_offset 4
 1416              		.cfi_offset 14, -4
 1417 0002 83B0     		sub	sp, sp, #12
 1418              		.cfi_def_cfa_offset 16
 1419 0004 0190     		str	r0, [sp, #4]
 1420              		.loc 5 131 0
 1421 0006 FFF7FEFF 		bl	chDbgCheckClassS
 1422              		.loc 5 133 0
ARM GAS  /tmp/ccZb7D2c.s 			page 90


 1423 000a 019B     		ldr	r3, [sp, #4]
 1424 000c 1846     		mov	r0, r3
 1425 000e FFF7FEFF 		bl	queue_notempty
 1426 0012 0346     		mov	r3, r0
 1427              		.loc 5 134 0
 1428 0014 1846     		mov	r0, r3
 1429 0016 03B0     		add	sp, sp, #12
 1430              		@ sp needed
 1431 0018 5DF804FB 		ldr	pc, [sp], #4
 1432              		.cfi_endproc
 1433              	.LFE214:
 1434              		.size	chMtxQueueNotEmptyS, .-chMtxQueueNotEmptyS
 1435 001c AFF30080 		.section	.text.chMtxObjectInit,"ax",%progbits
 1436              		.align	2
 1437              		.p2align 4,,15
 1438              		.global	chMtxObjectInit
 1439              		.thumb
 1440              		.thumb_func
 1441              		.type	chMtxObjectInit, %function
 1442              	chMtxObjectInit:
 1443              	.LFB241:
 1444              		.file 6 "lib/ChibiOS_16.1.4//os/rt/src/chmtx.c"
 1445              		.loc 6 103 0
 1446              		.cfi_startproc
 1447              		@ args = 0, pretend = 0, frame = 8
 1448              		@ frame_needed = 0, uses_anonymous_args = 0
 1449 0000 00B5     		push	{lr}
 1450              		.cfi_def_cfa_offset 4
 1451              		.cfi_offset 14, -4
 1452 0002 83B0     		sub	sp, sp, #12
 1453              		.cfi_def_cfa_offset 16
 1454 0004 0190     		str	r0, [sp, #4]
 1455              		.loc 6 105 0
 1456 0006 019B     		ldr	r3, [sp, #4]
 1457 0008 002B     		cmp	r3, #0
 1458 000a 05D1     		bne	.L19
 1459              		.loc 6 105 0 is_stmt 0 discriminator 1
 1460 000c 40F20000 		movw	r0, #:lower16:__func__.6613
 1461 0010 C0F20000 		movt	r0, #:upper16:__func__.6613
 1462 0014 FFF7FEFF 		bl	chSysHalt
 1463              	.L19:
 1464              		.loc 6 107 0 is_stmt 1
 1465 0018 019B     		ldr	r3, [sp, #4]
 1466 001a 1846     		mov	r0, r3
 1467 001c FFF7FEFF 		bl	queue_init
 1468              		.loc 6 108 0
 1469 0020 019B     		ldr	r3, [sp, #4]
 1470 0022 0022     		movs	r2, #0
 1471 0024 9A60     		str	r2, [r3, #8]
 1472              		.loc 6 112 0
 1473 0026 03B0     		add	sp, sp, #12
 1474              		@ sp needed
 1475 0028 5DF804FB 		ldr	pc, [sp], #4
 1476              		.cfi_endproc
 1477              	.LFE241:
 1478              		.size	chMtxObjectInit, .-chMtxObjectInit
 1479 002c AFF30080 		.section	.text.chMtxLock,"ax",%progbits
ARM GAS  /tmp/ccZb7D2c.s 			page 91


 1480              		.align	2
 1481              		.p2align 4,,15
 1482              		.global	chMtxLock
 1483              		.thumb
 1484              		.thumb_func
 1485              		.type	chMtxLock, %function
 1486              	chMtxLock:
 1487              	.LFB242:
 1488              		.loc 6 123 0
 1489              		.cfi_startproc
 1490              		@ args = 0, pretend = 0, frame = 8
 1491              		@ frame_needed = 0, uses_anonymous_args = 0
 1492 0000 00B5     		push	{lr}
 1493              		.cfi_def_cfa_offset 4
 1494              		.cfi_offset 14, -4
 1495 0002 83B0     		sub	sp, sp, #12
 1496              		.cfi_def_cfa_offset 16
 1497 0004 0190     		str	r0, [sp, #4]
 1498              		.loc 6 125 0
 1499 0006 FFF7FEFF 		bl	chSysLock
 1500              		.loc 6 126 0
 1501 000a 0198     		ldr	r0, [sp, #4]
 1502 000c FFF7FEFF 		bl	chMtxLockS
 1503              		.loc 6 127 0
 1504 0010 FFF7FEFF 		bl	chSysUnlock
 1505              		.loc 6 128 0
 1506 0014 03B0     		add	sp, sp, #12
 1507              		@ sp needed
 1508 0016 5DF804FB 		ldr	pc, [sp], #4
 1509              		.cfi_endproc
 1510              	.LFE242:
 1511              		.size	chMtxLock, .-chMtxLock
 1512 001a 00BFAFF3 		.section	.text.chMtxLockS,"ax",%progbits
 1512      0080
 1513              		.align	2
 1514              		.p2align 4,,15
 1515              		.global	chMtxLockS
 1516              		.thumb
 1517              		.thumb_func
 1518              		.type	chMtxLockS, %function
 1519              	chMtxLockS:
 1520              	.LFB243:
 1521              		.loc 6 139 0
 1522              		.cfi_startproc
 1523              		@ args = 0, pretend = 0, frame = 16
 1524              		@ frame_needed = 0, uses_anonymous_args = 0
 1525 0000 00B5     		push	{lr}
 1526              		.cfi_def_cfa_offset 4
 1527              		.cfi_offset 14, -4
 1528 0002 85B0     		sub	sp, sp, #20
 1529              		.cfi_def_cfa_offset 24
 1530 0004 0190     		str	r0, [sp, #4]
 1531              		.loc 6 140 0
 1532 0006 40F20003 		movw	r3, #:lower16:ch
 1533 000a C0F20003 		movt	r3, #:upper16:ch
 1534 000e 9B69     		ldr	r3, [r3, #24]
 1535 0010 0293     		str	r3, [sp, #8]
ARM GAS  /tmp/ccZb7D2c.s 			page 92


 1536              		.loc 6 142 0
 1537 0012 FFF7FEFF 		bl	chDbgCheckClassS
 1538              		.loc 6 143 0
 1539 0016 019B     		ldr	r3, [sp, #4]
 1540 0018 002B     		cmp	r3, #0
 1541 001a 05D1     		bne	.L22
 1542              		.loc 6 143 0 is_stmt 0 discriminator 1
 1543 001c 40F20000 		movw	r0, #:lower16:__func__.6621
 1544 0020 C0F20000 		movt	r0, #:upper16:__func__.6621
 1545 0024 FFF7FEFF 		bl	chSysHalt
 1546              	.L22:
 1547              		.loc 6 146 0 is_stmt 1
 1548 0028 019B     		ldr	r3, [sp, #4]
 1549 002a 9B68     		ldr	r3, [r3, #8]
 1550 002c 002B     		cmp	r3, #0
 1551 002e 61D0     		beq	.L23
 1552              	.LBB10:
 1553              		.loc 6 161 0
 1554 0030 019B     		ldr	r3, [sp, #4]
 1555 0032 9B68     		ldr	r3, [r3, #8]
 1556 0034 0393     		str	r3, [sp, #12]
 1557              		.loc 6 165 0
 1558 0036 34E0     		b	.L24
 1559              	.L31:
 1560              		.loc 6 167 0
 1561 0038 029B     		ldr	r3, [sp, #8]
 1562 003a 9A68     		ldr	r2, [r3, #8]
 1563 003c 039B     		ldr	r3, [sp, #12]
 1564 003e 9A60     		str	r2, [r3, #8]
 1565              		.loc 6 170 0
 1566 0040 039B     		ldr	r3, [sp, #12]
 1567 0042 93F82030 		ldrb	r3, [r3, #32]	@ zero_extendqisi2
 1568 0046 062B     		cmp	r3, #6
 1569 0048 04D0     		beq	.L26
 1570 004a 072B     		cmp	r3, #7
 1571 004c 11D0     		beq	.L27
 1572 004e 002B     		cmp	r3, #0
 1573 0050 1AD0     		beq	.L28
 1574              		.loc 6 206 0
 1575 0052 25E0     		b	.L29
 1576              	.L26:
 1577              		.loc 6 173 0
 1578 0054 0398     		ldr	r0, [sp, #12]
 1579 0056 FFF7FEFF 		bl	queue_dequeue
 1580 005a 0246     		mov	r2, r0
 1581 005c 039B     		ldr	r3, [sp, #12]
 1582 005e 5B6A     		ldr	r3, [r3, #36]
 1583 0060 1046     		mov	r0, r2
 1584 0062 1946     		mov	r1, r3
 1585 0064 FFF7FEFF 		bl	queue_prio_insert
 1586              		.loc 6 174 0
 1587 0068 039B     		ldr	r3, [sp, #12]
 1588 006a 5B6A     		ldr	r3, [r3, #36]
 1589 006c 9B68     		ldr	r3, [r3, #8]
 1590 006e 0393     		str	r3, [sp, #12]
 1591              		.loc 6 176 0
 1592 0070 17E0     		b	.L24
ARM GAS  /tmp/ccZb7D2c.s 			page 93


 1593              	.L27:
 1594              		.loc 6 193 0
 1595 0072 0398     		ldr	r0, [sp, #12]
 1596 0074 FFF7FEFF 		bl	queue_dequeue
 1597 0078 0246     		mov	r2, r0
 1598 007a 039B     		ldr	r3, [sp, #12]
 1599 007c 5B6A     		ldr	r3, [r3, #36]
 1600 007e 1046     		mov	r0, r2
 1601 0080 1946     		mov	r1, r3
 1602 0082 FFF7FEFF 		bl	queue_prio_insert
 1603              		.loc 6 194 0
 1604 0086 0BE0     		b	.L29
 1605              	.L28:
 1606              		.loc 6 199 0
 1607 0088 039B     		ldr	r3, [sp, #12]
 1608 008a 0122     		movs	r2, #1
 1609 008c 83F82020 		strb	r2, [r3, #32]
 1610              		.loc 6 202 0
 1611 0090 0398     		ldr	r0, [sp, #12]
 1612 0092 FFF7FEFF 		bl	queue_dequeue
 1613 0096 0346     		mov	r3, r0
 1614 0098 1846     		mov	r0, r3
 1615 009a FFF7FEFF 		bl	chSchReadyI
 1616              		.loc 6 203 0
 1617 009e 00BF     		nop
 1618              	.L29:
 1619              		.loc 6 208 0
 1620 00a0 05E0     		b	.L30
 1621              	.L24:
 1622              		.loc 6 165 0 discriminator 1
 1623 00a2 039B     		ldr	r3, [sp, #12]
 1624 00a4 9A68     		ldr	r2, [r3, #8]
 1625 00a6 029B     		ldr	r3, [sp, #8]
 1626 00a8 9B68     		ldr	r3, [r3, #8]
 1627 00aa 9A42     		cmp	r2, r3
 1628 00ac C4D3     		bcc	.L31
 1629              	.L30:
 1630              		.loc 6 212 0
 1631 00ae 019B     		ldr	r3, [sp, #4]
 1632 00b0 0298     		ldr	r0, [sp, #8]
 1633 00b2 1946     		mov	r1, r3
 1634 00b4 FFF7FEFF 		bl	queue_prio_insert
 1635              		.loc 6 213 0
 1636 00b8 029B     		ldr	r3, [sp, #8]
 1637 00ba 019A     		ldr	r2, [sp, #4]
 1638 00bc 5A62     		str	r2, [r3, #36]
 1639              		.loc 6 214 0
 1640 00be 0620     		movs	r0, #6
 1641 00c0 FFF7FEFF 		bl	chSchGoSleepS
 1642              		.loc 6 218 0
 1643 00c4 019B     		ldr	r3, [sp, #4]
 1644 00c6 9A68     		ldr	r2, [r3, #8]
 1645 00c8 029B     		ldr	r3, [sp, #8]
 1646 00ca 9A42     		cmp	r2, r3
 1647 00cc 05D0     		beq	.L35
 1648              		.loc 6 218 0 is_stmt 0 discriminator 1
 1649 00ce 40F20000 		movw	r0, #:lower16:__func__.6621
ARM GAS  /tmp/ccZb7D2c.s 			page 94


 1650 00d2 C0F20000 		movt	r0, #:upper16:__func__.6621
 1651 00d6 FFF7FEFF 		bl	chSysHalt
 1652              	.L35:
 1653              		.loc 6 219 0 is_stmt 1 discriminator 1
 1654 00da 029B     		ldr	r3, [sp, #8]
 1655 00dc DA6B     		ldr	r2, [r3, #60]
 1656 00de 019B     		ldr	r3, [sp, #4]
 1657 00e0 9A42     		cmp	r2, r3
 1658 00e2 06D0     		beq	.L33
 1659 00e4 40F20000 		movw	r0, #:lower16:__func__.6621
 1660 00e8 C0F20000 		movt	r0, #:upper16:__func__.6621
 1661 00ec FFF7FEFF 		bl	chSysHalt
 1662              	.LBE10:
 1663 00f0 0AE0     		b	.L21
 1664              	.L33:
 1665 00f2 09E0     		b	.L21
 1666              	.L23:
 1667              		.loc 6 232 0
 1668 00f4 019B     		ldr	r3, [sp, #4]
 1669 00f6 029A     		ldr	r2, [sp, #8]
 1670 00f8 9A60     		str	r2, [r3, #8]
 1671              		.loc 6 233 0
 1672 00fa 029B     		ldr	r3, [sp, #8]
 1673 00fc DA6B     		ldr	r2, [r3, #60]
 1674 00fe 019B     		ldr	r3, [sp, #4]
 1675 0100 DA60     		str	r2, [r3, #12]
 1676              		.loc 6 234 0
 1677 0102 029B     		ldr	r3, [sp, #8]
 1678 0104 019A     		ldr	r2, [sp, #4]
 1679 0106 DA63     		str	r2, [r3, #60]
 1680              	.L21:
 1681              		.loc 6 236 0
 1682 0108 05B0     		add	sp, sp, #20
 1683              		@ sp needed
 1684 010a 5DF804FB 		ldr	pc, [sp], #4
 1685              		.cfi_endproc
 1686              	.LFE243:
 1687              		.size	chMtxLockS, .-chMtxLockS
 1688              		.section	.text.chMtxTryLock,"ax",%progbits
 1689              		.align	2
 1690              		.p2align 4,,15
 1691              		.global	chMtxTryLock
 1692              		.thumb
 1693              		.thumb_func
 1694              		.type	chMtxTryLock, %function
 1695              	chMtxTryLock:
 1696              	.LFB244:
 1697              		.loc 6 255 0
 1698              		.cfi_startproc
 1699              		@ args = 0, pretend = 0, frame = 16
 1700              		@ frame_needed = 0, uses_anonymous_args = 0
 1701 0000 00B5     		push	{lr}
 1702              		.cfi_def_cfa_offset 4
 1703              		.cfi_offset 14, -4
 1704 0002 85B0     		sub	sp, sp, #20
 1705              		.cfi_def_cfa_offset 24
 1706 0004 0190     		str	r0, [sp, #4]
ARM GAS  /tmp/ccZb7D2c.s 			page 95


 1707              		.loc 6 258 0
 1708 0006 FFF7FEFF 		bl	chSysLock
 1709              		.loc 6 259 0
 1710 000a 0198     		ldr	r0, [sp, #4]
 1711 000c FFF7FEFF 		bl	chMtxTryLockS
 1712 0010 0346     		mov	r3, r0
 1713 0012 8DF80F30 		strb	r3, [sp, #15]
 1714              		.loc 6 260 0
 1715 0016 FFF7FEFF 		bl	chSysUnlock
 1716              		.loc 6 262 0
 1717 001a 9DF80F30 		ldrb	r3, [sp, #15]	@ zero_extendqisi2
 1718              		.loc 6 263 0
 1719 001e 1846     		mov	r0, r3
 1720 0020 05B0     		add	sp, sp, #20
 1721              		@ sp needed
 1722 0022 5DF804FB 		ldr	pc, [sp], #4
 1723              		.cfi_endproc
 1724              	.LFE244:
 1725              		.size	chMtxTryLock, .-chMtxTryLock
 1726 0026 00BFAFF3 		.section	.text.chMtxTryLockS,"ax",%progbits
 1726      0080AFF3 
 1726      0080
 1727              		.align	2
 1728              		.p2align 4,,15
 1729              		.global	chMtxTryLockS
 1730              		.thumb
 1731              		.thumb_func
 1732              		.type	chMtxTryLockS, %function
 1733              	chMtxTryLockS:
 1734              	.LFB245:
 1735              		.loc 6 282 0
 1736              		.cfi_startproc
 1737              		@ args = 0, pretend = 0, frame = 8
 1738              		@ frame_needed = 0, uses_anonymous_args = 0
 1739 0000 00B5     		push	{lr}
 1740              		.cfi_def_cfa_offset 4
 1741              		.cfi_offset 14, -4
 1742 0002 83B0     		sub	sp, sp, #12
 1743              		.cfi_def_cfa_offset 16
 1744 0004 0190     		str	r0, [sp, #4]
 1745              		.loc 6 284 0
 1746 0006 FFF7FEFF 		bl	chDbgCheckClassS
 1747              		.loc 6 285 0
 1748 000a 019B     		ldr	r3, [sp, #4]
 1749 000c 002B     		cmp	r3, #0
 1750 000e 05D1     		bne	.L39
 1751              		.loc 6 285 0 is_stmt 0 discriminator 1
 1752 0010 40F20000 		movw	r0, #:lower16:__func__.6638
 1753 0014 C0F20000 		movt	r0, #:upper16:__func__.6638
 1754 0018 FFF7FEFF 		bl	chSysHalt
 1755              	.L39:
 1756              		.loc 6 287 0 is_stmt 1
 1757 001c 019B     		ldr	r3, [sp, #4]
 1758 001e 9B68     		ldr	r3, [r3, #8]
 1759 0020 002B     		cmp	r3, #0
 1760 0022 01D0     		beq	.L40
 1761              		.loc 6 297 0
ARM GAS  /tmp/ccZb7D2c.s 			page 96


 1762 0024 0023     		movs	r3, #0
 1763 0026 16E0     		b	.L41
 1764              	.L40:
 1765              		.loc 6 305 0
 1766 0028 40F20003 		movw	r3, #:lower16:ch
 1767 002c C0F20003 		movt	r3, #:upper16:ch
 1768 0030 9A69     		ldr	r2, [r3, #24]
 1769 0032 019B     		ldr	r3, [sp, #4]
 1770 0034 9A60     		str	r2, [r3, #8]
 1771              		.loc 6 306 0
 1772 0036 40F20003 		movw	r3, #:lower16:ch
 1773 003a C0F20003 		movt	r3, #:upper16:ch
 1774 003e 9B69     		ldr	r3, [r3, #24]
 1775 0040 DA6B     		ldr	r2, [r3, #60]
 1776 0042 019B     		ldr	r3, [sp, #4]
 1777 0044 DA60     		str	r2, [r3, #12]
 1778              		.loc 6 307 0
 1779 0046 40F20003 		movw	r3, #:lower16:ch
 1780 004a C0F20003 		movt	r3, #:upper16:ch
 1781 004e 9B69     		ldr	r3, [r3, #24]
 1782 0050 019A     		ldr	r2, [sp, #4]
 1783 0052 DA63     		str	r2, [r3, #60]
 1784              		.loc 6 308 0
 1785 0054 0123     		movs	r3, #1
 1786              	.L41:
 1787              		.loc 6 309 0
 1788 0056 1846     		mov	r0, r3
 1789 0058 03B0     		add	sp, sp, #12
 1790              		@ sp needed
 1791 005a 5DF804FB 		ldr	pc, [sp], #4
 1792              		.cfi_endproc
 1793              	.LFE245:
 1794              		.size	chMtxTryLockS, .-chMtxTryLockS
 1795 005e 00BF     		.section	.text.chMtxUnlock,"ax",%progbits
 1796              		.align	2
 1797              		.p2align 4,,15
 1798              		.global	chMtxUnlock
 1799              		.thumb
 1800              		.thumb_func
 1801              		.type	chMtxUnlock, %function
 1802              	chMtxUnlock:
 1803              	.LFB246:
 1804              		.loc 6 323 0
 1805              		.cfi_startproc
 1806              		@ args = 0, pretend = 0, frame = 24
 1807              		@ frame_needed = 0, uses_anonymous_args = 0
 1808 0000 00B5     		push	{lr}
 1809              		.cfi_def_cfa_offset 4
 1810              		.cfi_offset 14, -4
 1811 0002 87B0     		sub	sp, sp, #28
 1812              		.cfi_def_cfa_offset 32
 1813 0004 0190     		str	r0, [sp, #4]
 1814              		.loc 6 324 0
 1815 0006 40F20003 		movw	r3, #:lower16:ch
 1816 000a C0F20003 		movt	r3, #:upper16:ch
 1817 000e 9B69     		ldr	r3, [r3, #24]
 1818 0010 0393     		str	r3, [sp, #12]
ARM GAS  /tmp/ccZb7D2c.s 			page 97


 1819              		.loc 6 327 0
 1820 0012 019B     		ldr	r3, [sp, #4]
 1821 0014 002B     		cmp	r3, #0
 1822 0016 05D1     		bne	.L43
 1823              		.loc 6 327 0 is_stmt 0 discriminator 1
 1824 0018 40F20000 		movw	r0, #:lower16:__func__.6644
 1825 001c C0F20000 		movt	r0, #:upper16:__func__.6644
 1826 0020 FFF7FEFF 		bl	chSysHalt
 1827              	.L43:
 1828              		.loc 6 329 0 is_stmt 1
 1829 0024 FFF7FEFF 		bl	chSysLock
 1830              		.loc 6 331 0
 1831 0028 039B     		ldr	r3, [sp, #12]
 1832 002a DB6B     		ldr	r3, [r3, #60]
 1833 002c 002B     		cmp	r3, #0
 1834 002e 05D1     		bne	.L52
 1835              		.loc 6 331 0 is_stmt 0 discriminator 1
 1836 0030 40F20000 		movw	r0, #:lower16:__func__.6644
 1837 0034 C0F20000 		movt	r0, #:upper16:__func__.6644
 1838 0038 FFF7FEFF 		bl	chSysHalt
 1839              	.L52:
 1840              		.loc 6 332 0 is_stmt 1 discriminator 1
 1841 003c 039B     		ldr	r3, [sp, #12]
 1842 003e DB6B     		ldr	r3, [r3, #60]
 1843 0040 9A68     		ldr	r2, [r3, #8]
 1844 0042 039B     		ldr	r3, [sp, #12]
 1845 0044 9A42     		cmp	r2, r3
 1846 0046 05D0     		beq	.L53
 1847 0048 40F20000 		movw	r0, #:lower16:__func__.6644
 1848 004c C0F20000 		movt	r0, #:upper16:__func__.6644
 1849 0050 FFF7FEFF 		bl	chSysHalt
 1850              	.L53:
 1851              		.loc 6 339 0 discriminator 1
 1852 0054 039B     		ldr	r3, [sp, #12]
 1853 0056 DA6B     		ldr	r2, [r3, #60]
 1854 0058 019B     		ldr	r3, [sp, #4]
 1855 005a 9A42     		cmp	r2, r3
 1856 005c 05D0     		beq	.L46
 1857 005e 40F20000 		movw	r0, #:lower16:__func__.6644
 1858 0062 C0F20000 		movt	r0, #:upper16:__func__.6644
 1859 0066 FFF7FEFF 		bl	chSysHalt
 1860              	.L46:
 1861              		.loc 6 344 0
 1862 006a 019B     		ldr	r3, [sp, #4]
 1863 006c DA68     		ldr	r2, [r3, #12]
 1864 006e 039B     		ldr	r3, [sp, #12]
 1865 0070 DA63     		str	r2, [r3, #60]
 1866              		.loc 6 347 0
 1867 0072 0198     		ldr	r0, [sp, #4]
 1868 0074 FFF7FEFF 		bl	chMtxQueueNotEmptyS
 1869 0078 0346     		mov	r3, r0
 1870 007a 002B     		cmp	r3, #0
 1871 007c 34D0     		beq	.L47
 1872              	.LBB11:
 1873              		.loc 6 352 0
 1874 007e 039B     		ldr	r3, [sp, #12]
 1875 0080 1B6C     		ldr	r3, [r3, #64]
ARM GAS  /tmp/ccZb7D2c.s 			page 98


 1876 0082 0493     		str	r3, [sp, #16]
 1877              		.loc 6 353 0
 1878 0084 039B     		ldr	r3, [sp, #12]
 1879 0086 DB6B     		ldr	r3, [r3, #60]
 1880 0088 0593     		str	r3, [sp, #20]
 1881              		.loc 6 354 0
 1882 008a 12E0     		b	.L48
 1883              	.L50:
 1884              		.loc 6 358 0
 1885 008c 0598     		ldr	r0, [sp, #20]
 1886 008e FFF7FEFF 		bl	chMtxQueueNotEmptyS
 1887 0092 0346     		mov	r3, r0
 1888 0094 002B     		cmp	r3, #0
 1889 0096 09D0     		beq	.L49
 1890              		.loc 6 359 0 discriminator 1
 1891 0098 059B     		ldr	r3, [sp, #20]
 1892 009a 1B68     		ldr	r3, [r3]
 1893 009c 9A68     		ldr	r2, [r3, #8]
 1894              		.loc 6 358 0 discriminator 1
 1895 009e 049B     		ldr	r3, [sp, #16]
 1896 00a0 9A42     		cmp	r2, r3
 1897 00a2 03D9     		bls	.L49
 1898              		.loc 6 360 0
 1899 00a4 059B     		ldr	r3, [sp, #20]
 1900 00a6 1B68     		ldr	r3, [r3]
 1901 00a8 9B68     		ldr	r3, [r3, #8]
 1902 00aa 0493     		str	r3, [sp, #16]
 1903              	.L49:
 1904              		.loc 6 362 0
 1905 00ac 059B     		ldr	r3, [sp, #20]
 1906 00ae DB68     		ldr	r3, [r3, #12]
 1907 00b0 0593     		str	r3, [sp, #20]
 1908              	.L48:
 1909              		.loc 6 354 0 discriminator 1
 1910 00b2 059B     		ldr	r3, [sp, #20]
 1911 00b4 002B     		cmp	r3, #0
 1912 00b6 E9D1     		bne	.L50
 1913              		.loc 6 367 0
 1914 00b8 039B     		ldr	r3, [sp, #12]
 1915 00ba 049A     		ldr	r2, [sp, #16]
 1916 00bc 9A60     		str	r2, [r3, #8]
 1917              		.loc 6 374 0
 1918 00be 019B     		ldr	r3, [sp, #4]
 1919 00c0 1846     		mov	r0, r3
 1920 00c2 FFF7FEFF 		bl	queue_fifo_remove
 1921 00c6 0290     		str	r0, [sp, #8]
 1922              		.loc 6 375 0
 1923 00c8 019B     		ldr	r3, [sp, #4]
 1924 00ca 029A     		ldr	r2, [sp, #8]
 1925 00cc 9A60     		str	r2, [r3, #8]
 1926              		.loc 6 376 0
 1927 00ce 029B     		ldr	r3, [sp, #8]
 1928 00d0 DA6B     		ldr	r2, [r3, #60]
 1929 00d2 019B     		ldr	r3, [sp, #4]
 1930 00d4 DA60     		str	r2, [r3, #12]
 1931              		.loc 6 377 0
 1932 00d6 029B     		ldr	r3, [sp, #8]
ARM GAS  /tmp/ccZb7D2c.s 			page 99


 1933 00d8 019A     		ldr	r2, [sp, #4]
 1934 00da DA63     		str	r2, [r3, #60]
 1935              		.loc 6 383 0
 1936 00dc 0298     		ldr	r0, [sp, #8]
 1937 00de FFF7FEFF 		bl	chSchReadyI
 1938              		.loc 6 384 0
 1939 00e2 FFF7FEFF 		bl	chSchRescheduleS
 1940              	.LBE11:
 1941 00e6 02E0     		b	.L51
 1942              	.L47:
 1943              		.loc 6 387 0
 1944 00e8 019B     		ldr	r3, [sp, #4]
 1945 00ea 0022     		movs	r2, #0
 1946 00ec 9A60     		str	r2, [r3, #8]
 1947              	.L51:
 1948              		.loc 6 393 0
 1949 00ee FFF7FEFF 		bl	chSysUnlock
 1950              		.loc 6 394 0
 1951 00f2 07B0     		add	sp, sp, #28
 1952              		@ sp needed
 1953 00f4 5DF804FB 		ldr	pc, [sp], #4
 1954              		.cfi_endproc
 1955              	.LFE246:
 1956              		.size	chMtxUnlock, .-chMtxUnlock
 1957 00f8 AFF30080 		.section	.text.chMtxUnlockS,"ax",%progbits
 1957      AFF30080 
 1958              		.align	2
 1959              		.p2align 4,,15
 1960              		.global	chMtxUnlockS
 1961              		.thumb
 1962              		.thumb_func
 1963              		.type	chMtxUnlockS, %function
 1964              	chMtxUnlockS:
 1965              	.LFB247:
 1966              		.loc 6 410 0
 1967              		.cfi_startproc
 1968              		@ args = 0, pretend = 0, frame = 24
 1969              		@ frame_needed = 0, uses_anonymous_args = 0
 1970 0000 00B5     		push	{lr}
 1971              		.cfi_def_cfa_offset 4
 1972              		.cfi_offset 14, -4
 1973 0002 87B0     		sub	sp, sp, #28
 1974              		.cfi_def_cfa_offset 32
 1975 0004 0190     		str	r0, [sp, #4]
 1976              		.loc 6 411 0
 1977 0006 40F20003 		movw	r3, #:lower16:ch
 1978 000a C0F20003 		movt	r3, #:upper16:ch
 1979 000e 9B69     		ldr	r3, [r3, #24]
 1980 0010 0393     		str	r3, [sp, #12]
 1981              		.loc 6 414 0
 1982 0012 FFF7FEFF 		bl	chDbgCheckClassS
 1983              		.loc 6 415 0
 1984 0016 019B     		ldr	r3, [sp, #4]
 1985 0018 002B     		cmp	r3, #0
 1986 001a 05D1     		bne	.L64
 1987              		.loc 6 415 0 is_stmt 0 discriminator 1
 1988 001c 40F20000 		movw	r0, #:lower16:__func__.6655
ARM GAS  /tmp/ccZb7D2c.s 			page 100


 1989 0020 C0F20000 		movt	r0, #:upper16:__func__.6655
 1990 0024 FFF7FEFF 		bl	chSysHalt
 1991              	.L64:
 1992              		.loc 6 417 0 is_stmt 1 discriminator 1
 1993 0028 039B     		ldr	r3, [sp, #12]
 1994 002a DB6B     		ldr	r3, [r3, #60]
 1995 002c 002B     		cmp	r3, #0
 1996 002e 05D1     		bne	.L65
 1997 0030 40F20000 		movw	r0, #:lower16:__func__.6655
 1998 0034 C0F20000 		movt	r0, #:upper16:__func__.6655
 1999 0038 FFF7FEFF 		bl	chSysHalt
 2000              	.L65:
 2001              		.loc 6 418 0 discriminator 1
 2002 003c 039B     		ldr	r3, [sp, #12]
 2003 003e DB6B     		ldr	r3, [r3, #60]
 2004 0040 9A68     		ldr	r2, [r3, #8]
 2005 0042 039B     		ldr	r3, [sp, #12]
 2006 0044 9A42     		cmp	r2, r3
 2007 0046 05D0     		beq	.L66
 2008 0048 40F20000 		movw	r0, #:lower16:__func__.6655
 2009 004c C0F20000 		movt	r0, #:upper16:__func__.6655
 2010 0050 FFF7FEFF 		bl	chSysHalt
 2011              	.L66:
 2012              		.loc 6 425 0 discriminator 1
 2013 0054 039B     		ldr	r3, [sp, #12]
 2014 0056 DA6B     		ldr	r2, [r3, #60]
 2015 0058 019B     		ldr	r3, [sp, #4]
 2016 005a 9A42     		cmp	r2, r3
 2017 005c 05D0     		beq	.L58
 2018 005e 40F20000 		movw	r0, #:lower16:__func__.6655
 2019 0062 C0F20000 		movt	r0, #:upper16:__func__.6655
 2020 0066 FFF7FEFF 		bl	chSysHalt
 2021              	.L58:
 2022              		.loc 6 430 0
 2023 006a 019B     		ldr	r3, [sp, #4]
 2024 006c DA68     		ldr	r2, [r3, #12]
 2025 006e 039B     		ldr	r3, [sp, #12]
 2026 0070 DA63     		str	r2, [r3, #60]
 2027              		.loc 6 433 0
 2028 0072 0198     		ldr	r0, [sp, #4]
 2029 0074 FFF7FEFF 		bl	chMtxQueueNotEmptyS
 2030 0078 0346     		mov	r3, r0
 2031 007a 002B     		cmp	r3, #0
 2032 007c 32D0     		beq	.L59
 2033              	.LBB12:
 2034              		.loc 6 438 0
 2035 007e 039B     		ldr	r3, [sp, #12]
 2036 0080 1B6C     		ldr	r3, [r3, #64]
 2037 0082 0493     		str	r3, [sp, #16]
 2038              		.loc 6 439 0
 2039 0084 039B     		ldr	r3, [sp, #12]
 2040 0086 DB6B     		ldr	r3, [r3, #60]
 2041 0088 0593     		str	r3, [sp, #20]
 2042              		.loc 6 440 0
 2043 008a 12E0     		b	.L60
 2044              	.L62:
 2045              		.loc 6 444 0
ARM GAS  /tmp/ccZb7D2c.s 			page 101


 2046 008c 0598     		ldr	r0, [sp, #20]
 2047 008e FFF7FEFF 		bl	chMtxQueueNotEmptyS
 2048 0092 0346     		mov	r3, r0
 2049 0094 002B     		cmp	r3, #0
 2050 0096 09D0     		beq	.L61
 2051              		.loc 6 445 0 discriminator 1
 2052 0098 059B     		ldr	r3, [sp, #20]
 2053 009a 1B68     		ldr	r3, [r3]
 2054 009c 9A68     		ldr	r2, [r3, #8]
 2055              		.loc 6 444 0 discriminator 1
 2056 009e 049B     		ldr	r3, [sp, #16]
 2057 00a0 9A42     		cmp	r2, r3
 2058 00a2 03D9     		bls	.L61
 2059              		.loc 6 446 0
 2060 00a4 059B     		ldr	r3, [sp, #20]
 2061 00a6 1B68     		ldr	r3, [r3]
 2062 00a8 9B68     		ldr	r3, [r3, #8]
 2063 00aa 0493     		str	r3, [sp, #16]
 2064              	.L61:
 2065              		.loc 6 448 0
 2066 00ac 059B     		ldr	r3, [sp, #20]
 2067 00ae DB68     		ldr	r3, [r3, #12]
 2068 00b0 0593     		str	r3, [sp, #20]
 2069              	.L60:
 2070              		.loc 6 440 0 discriminator 1
 2071 00b2 059B     		ldr	r3, [sp, #20]
 2072 00b4 002B     		cmp	r3, #0
 2073 00b6 E9D1     		bne	.L62
 2074              		.loc 6 453 0
 2075 00b8 039B     		ldr	r3, [sp, #12]
 2076 00ba 049A     		ldr	r2, [sp, #16]
 2077 00bc 9A60     		str	r2, [r3, #8]
 2078              		.loc 6 460 0
 2079 00be 019B     		ldr	r3, [sp, #4]
 2080 00c0 1846     		mov	r0, r3
 2081 00c2 FFF7FEFF 		bl	queue_fifo_remove
 2082 00c6 0290     		str	r0, [sp, #8]
 2083              		.loc 6 461 0
 2084 00c8 019B     		ldr	r3, [sp, #4]
 2085 00ca 029A     		ldr	r2, [sp, #8]
 2086 00cc 9A60     		str	r2, [r3, #8]
 2087              		.loc 6 462 0
 2088 00ce 029B     		ldr	r3, [sp, #8]
 2089 00d0 DA6B     		ldr	r2, [r3, #60]
 2090 00d2 019B     		ldr	r3, [sp, #4]
 2091 00d4 DA60     		str	r2, [r3, #12]
 2092              		.loc 6 463 0
 2093 00d6 029B     		ldr	r3, [sp, #8]
 2094 00d8 019A     		ldr	r2, [sp, #4]
 2095 00da DA63     		str	r2, [r3, #60]
 2096              		.loc 6 464 0
 2097 00dc 0298     		ldr	r0, [sp, #8]
 2098 00de FFF7FEFF 		bl	chSchReadyI
 2099              	.LBE12:
 2100 00e2 02E0     		b	.L54
 2101              	.L59:
 2102              		.loc 6 467 0
ARM GAS  /tmp/ccZb7D2c.s 			page 102


 2103 00e4 019B     		ldr	r3, [sp, #4]
 2104 00e6 0022     		movs	r2, #0
 2105 00e8 9A60     		str	r2, [r3, #8]
 2106              	.L54:
 2107              		.loc 6 472 0
 2108 00ea 07B0     		add	sp, sp, #28
 2109              		@ sp needed
 2110 00ec 5DF804FB 		ldr	pc, [sp], #4
 2111              		.cfi_endproc
 2112              	.LFE247:
 2113              		.size	chMtxUnlockS, .-chMtxUnlockS
 2114              		.section	.text.chMtxUnlockAll,"ax",%progbits
 2115              		.align	2
 2116              		.p2align 4,,15
 2117              		.global	chMtxUnlockAll
 2118              		.thumb
 2119              		.thumb_func
 2120              		.type	chMtxUnlockAll, %function
 2121              	chMtxUnlockAll:
 2122              	.LFB248:
 2123              		.loc 6 485 0
 2124              		.cfi_startproc
 2125              		@ args = 0, pretend = 0, frame = 16
 2126              		@ frame_needed = 0, uses_anonymous_args = 0
 2127 0000 00B5     		push	{lr}
 2128              		.cfi_def_cfa_offset 4
 2129              		.cfi_offset 14, -4
 2130 0002 85B0     		sub	sp, sp, #20
 2131              		.cfi_def_cfa_offset 24
 2132              		.loc 6 486 0
 2133 0004 40F20003 		movw	r3, #:lower16:ch
 2134 0008 C0F20003 		movt	r3, #:upper16:ch
 2135 000c 9B69     		ldr	r3, [r3, #24]
 2136 000e 0393     		str	r3, [sp, #12]
 2137              		.loc 6 488 0
 2138 0010 FFF7FEFF 		bl	chSysLock
 2139              		.loc 6 489 0
 2140 0014 039B     		ldr	r3, [sp, #12]
 2141 0016 DB6B     		ldr	r3, [r3, #60]
 2142 0018 002B     		cmp	r3, #0
 2143 001a 2CD0     		beq	.L68
 2144              	.L71:
 2145              	.LBB13:
 2146              		.loc 6 491 0
 2147 001c 039B     		ldr	r3, [sp, #12]
 2148 001e DB6B     		ldr	r3, [r3, #60]
 2149 0020 0293     		str	r3, [sp, #8]
 2150              		.loc 6 492 0
 2151 0022 029B     		ldr	r3, [sp, #8]
 2152 0024 DA68     		ldr	r2, [r3, #12]
 2153 0026 039B     		ldr	r3, [sp, #12]
 2154 0028 DA63     		str	r2, [r3, #60]
 2155              		.loc 6 493 0
 2156 002a 0298     		ldr	r0, [sp, #8]
 2157 002c FFF7FEFF 		bl	chMtxQueueNotEmptyS
 2158 0030 0346     		mov	r3, r0
 2159 0032 002B     		cmp	r3, #0
ARM GAS  /tmp/ccZb7D2c.s 			page 103


 2160 0034 12D0     		beq	.L69
 2161              	.LBB14:
 2162              		.loc 6 497 0
 2163 0036 029B     		ldr	r3, [sp, #8]
 2164 0038 1846     		mov	r0, r3
 2165 003a FFF7FEFF 		bl	queue_fifo_remove
 2166 003e 0190     		str	r0, [sp, #4]
 2167              		.loc 6 498 0
 2168 0040 029B     		ldr	r3, [sp, #8]
 2169 0042 019A     		ldr	r2, [sp, #4]
 2170 0044 9A60     		str	r2, [r3, #8]
 2171              		.loc 6 499 0
 2172 0046 019B     		ldr	r3, [sp, #4]
 2173 0048 DA6B     		ldr	r2, [r3, #60]
 2174 004a 029B     		ldr	r3, [sp, #8]
 2175 004c DA60     		str	r2, [r3, #12]
 2176              		.loc 6 500 0
 2177 004e 019B     		ldr	r3, [sp, #4]
 2178 0050 029A     		ldr	r2, [sp, #8]
 2179 0052 DA63     		str	r2, [r3, #60]
 2180              		.loc 6 501 0
 2181 0054 0198     		ldr	r0, [sp, #4]
 2182 0056 FFF7FEFF 		bl	chSchReadyI
 2183              	.LBE14:
 2184 005a 02E0     		b	.L70
 2185              	.L69:
 2186              		.loc 6 507 0
 2187 005c 029B     		ldr	r3, [sp, #8]
 2188 005e 0022     		movs	r2, #0
 2189 0060 9A60     		str	r2, [r3, #8]
 2190              	.L70:
 2191              	.LBE13:
 2192              		.loc 6 509 0
 2193 0062 039B     		ldr	r3, [sp, #12]
 2194 0064 DB6B     		ldr	r3, [r3, #60]
 2195 0066 002B     		cmp	r3, #0
 2196 0068 D8D1     		bne	.L71
 2197              		.loc 6 510 0
 2198 006a 039B     		ldr	r3, [sp, #12]
 2199 006c 1A6C     		ldr	r2, [r3, #64]
 2200 006e 039B     		ldr	r3, [sp, #12]
 2201 0070 9A60     		str	r2, [r3, #8]
 2202              		.loc 6 511 0
 2203 0072 FFF7FEFF 		bl	chSchRescheduleS
 2204              	.L68:
 2205              		.loc 6 513 0
 2206 0076 FFF7FEFF 		bl	chSysUnlock
 2207              		.loc 6 514 0
 2208 007a 05B0     		add	sp, sp, #20
 2209              		@ sp needed
 2210 007c 5DF804FB 		ldr	pc, [sp], #4
 2211              		.cfi_endproc
 2212              	.LFE248:
 2213              		.size	chMtxUnlockAll, .-chMtxUnlockAll
 2214              		.section	.rodata.__func__.6613,"a",%progbits
 2215              		.align	2
 2216              		.type	__func__.6613, %object
ARM GAS  /tmp/ccZb7D2c.s 			page 104


 2217              		.size	__func__.6613, 16
 2218              	__func__.6613:
 2219 0000 63684D74 		.ascii	"chMtxObjectInit\000"
 2219      784F626A 
 2219      65637449 
 2219      6E697400 
 2220              		.section	.rodata.__func__.5915,"a",%progbits
 2221              		.align	2
 2222              		.type	__func__.5915, %object
 2223              		.size	__func__.5915, 12
 2224              	__func__.5915:
 2225 0000 63685379 		.ascii	"chSysUnlock\000"
 2225      73556E6C 
 2225      6F636B00 
 2226              		.section	.rodata.__func__.6621,"a",%progbits
 2227              		.align	2
 2228              		.type	__func__.6621, %object
 2229              		.size	__func__.6621, 11
 2230              	__func__.6621:
 2231 0000 63684D74 		.ascii	"chMtxLockS\000"
 2231      784C6F63 
 2231      6B5300
 2232 000b 00       		.section	.rodata.__func__.6638,"a",%progbits
 2233              		.align	2
 2234              		.type	__func__.6638, %object
 2235              		.size	__func__.6638, 14
 2236              	__func__.6638:
 2237 0000 63684D74 		.ascii	"chMtxTryLockS\000"
 2237      78547279 
 2237      4C6F636B 
 2237      5300
 2238 000e 0000     		.section	.rodata.__func__.6644,"a",%progbits
 2239              		.align	2
 2240              		.type	__func__.6644, %object
 2241              		.size	__func__.6644, 12
 2242              	__func__.6644:
 2243 0000 63684D74 		.ascii	"chMtxUnlock\000"
 2243      78556E6C 
 2243      6F636B00 
 2244              		.section	.rodata.__func__.6655,"a",%progbits
 2245              		.align	2
 2246              		.type	__func__.6655, %object
 2247              		.size	__func__.6655, 13
 2248              	__func__.6655:
 2249 0000 63684D74 		.ascii	"chMtxUnlockS\000"
 2249      78556E6C 
 2249      6F636B53 
 2249      00
 2250 000d 000000   		.text
 2251              	.Letext0:
 2252              		.file 7 "/usr/include/newlib/machine/_default_types.h"
 2253              		.file 8 "/usr/include/newlib/stdint.h"
 2254              		.file 9 "lib/ChibiOS_16.1.4//os/rt/ports/ARMCMx/compilers/GCC/chtypes.h"
 2255              		.file 10 "lib/ChibiOS_16.1.4//os/rt/include/chsystypes.h"
 2256              		.file 11 "lib/ChibiOS_16.1.4//os/rt/ports/ARMCMx/chcore.h"
 2257              		.file 12 "lib/ChibiOS_16.1.4//os/rt/include/chdebug.h"
 2258              		.file 13 "lib/ChibiOS_16.1.4//os/rt/include/chtm.h"
ARM GAS  /tmp/ccZb7D2c.s 			page 105


 2259              		.file 14 "lib/ChibiOS_16.1.4//os/rt/include/chstats.h"
 2260              		.file 15 "lib/ChibiOS_16.1.4//os/rt/include/chsem.h"
 2261              		.file 16 "lib/ChibiOS_16.1.4//os/ext/CMSIS/include/core_cm4.h"
 2262              		.section	.debug_info,"",%progbits
 2263              	.Ldebug_info0:
 2264 0000 740C0000 		.4byte	0xc74
 2265 0004 0400     		.2byte	0x4
 2266 0006 00000000 		.4byte	.Ldebug_abbrev0
 2267 000a 04       		.byte	0x4
 2268 000b 01       		.uleb128 0x1
 2269 000c 30030000 		.4byte	.LASF154
 2270 0010 01       		.byte	0x1
 2271 0011 1B040000 		.4byte	.LASF155
 2272 0015 57010000 		.4byte	.LASF156
 2273 0019 00000000 		.4byte	.Ldebug_ranges0+0
 2274 001d 00000000 		.4byte	0
 2275 0021 00000000 		.4byte	.Ldebug_line0
 2276 0025 02       		.uleb128 0x2
 2277 0026 04       		.byte	0x4
 2278 0027 05       		.byte	0x5
 2279 0028 696E7400 		.ascii	"int\000"
 2280 002c 03       		.uleb128 0x3
 2281 002d 04       		.byte	0x4
 2282 002e 07       		.byte	0x7
 2283 002f 95020000 		.4byte	.LASF0
 2284 0033 03       		.uleb128 0x3
 2285 0034 01       		.byte	0x1
 2286 0035 06       		.byte	0x6
 2287 0036 4B010000 		.4byte	.LASF1
 2288 003a 04       		.uleb128 0x4
 2289 003b 58000000 		.4byte	.LASF5
 2290 003f 07       		.byte	0x7
 2291 0040 1C       		.byte	0x1c
 2292 0041 45000000 		.4byte	0x45
 2293 0045 03       		.uleb128 0x3
 2294 0046 01       		.byte	0x1
 2295 0047 08       		.byte	0x8
 2296 0048 77050000 		.4byte	.LASF2
 2297 004c 03       		.uleb128 0x3
 2298 004d 02       		.byte	0x2
 2299 004e 05       		.byte	0x5
 2300 004f 97050000 		.4byte	.LASF3
 2301 0053 03       		.uleb128 0x3
 2302 0054 02       		.byte	0x2
 2303 0055 07       		.byte	0x7
 2304 0056 D7020000 		.4byte	.LASF4
 2305 005a 04       		.uleb128 0x4
 2306 005b 02010000 		.4byte	.LASF6
 2307 005f 07       		.byte	0x7
 2308 0060 37       		.byte	0x37
 2309 0061 65000000 		.4byte	0x65
 2310 0065 03       		.uleb128 0x3
 2311 0066 04       		.byte	0x4
 2312 0067 05       		.byte	0x5
 2313 0068 B1010000 		.4byte	.LASF7
 2314 006c 04       		.uleb128 0x4
 2315 006d 7F060000 		.4byte	.LASF8
ARM GAS  /tmp/ccZb7D2c.s 			page 106


 2316 0071 07       		.byte	0x7
 2317 0072 38       		.byte	0x38
 2318 0073 77000000 		.4byte	0x77
 2319 0077 03       		.uleb128 0x3
 2320 0078 04       		.byte	0x4
 2321 0079 07       		.byte	0x7
 2322 007a 2A060000 		.4byte	.LASF9
 2323 007e 03       		.uleb128 0x3
 2324 007f 08       		.byte	0x8
 2325 0080 05       		.byte	0x5
 2326 0081 E6010000 		.4byte	.LASF10
 2327 0085 04       		.uleb128 0x4
 2328 0086 FB040000 		.4byte	.LASF11
 2329 008a 07       		.byte	0x7
 2330 008b 4E       		.byte	0x4e
 2331 008c 90000000 		.4byte	0x90
 2332 0090 03       		.uleb128 0x3
 2333 0091 08       		.byte	0x8
 2334 0092 07       		.byte	0x7
 2335 0093 BC000000 		.4byte	.LASF12
 2336 0097 04       		.uleb128 0x4
 2337 0098 F4060000 		.4byte	.LASF13
 2338 009c 08       		.byte	0x8
 2339 009d 2A       		.byte	0x2a
 2340 009e 3A000000 		.4byte	0x3a
 2341 00a2 04       		.uleb128 0x4
 2342 00a3 6F050000 		.4byte	.LASF14
 2343 00a7 08       		.byte	0x8
 2344 00a8 41       		.byte	0x41
 2345 00a9 5A000000 		.4byte	0x5a
 2346 00ad 04       		.uleb128 0x4
 2347 00ae F9050000 		.4byte	.LASF15
 2348 00b2 08       		.byte	0x8
 2349 00b3 42       		.byte	0x42
 2350 00b4 6C000000 		.4byte	0x6c
 2351 00b8 04       		.uleb128 0x4
 2352 00b9 42000000 		.4byte	.LASF16
 2353 00bd 08       		.byte	0x8
 2354 00be 4E       		.byte	0x4e
 2355 00bf 85000000 		.4byte	0x85
 2356 00c3 04       		.uleb128 0x4
 2357 00c4 B7060000 		.4byte	.LASF17
 2358 00c8 09       		.byte	0x9
 2359 00c9 39       		.byte	0x39
 2360 00ca AD000000 		.4byte	0xad
 2361 00ce 04       		.uleb128 0x4
 2362 00cf 2F010000 		.4byte	.LASF18
 2363 00d3 09       		.byte	0x9
 2364 00d4 3A       		.byte	0x3a
 2365 00d5 B8000000 		.4byte	0xb8
 2366 00d9 04       		.uleb128 0x4
 2367 00da E1030000 		.4byte	.LASF19
 2368 00de 09       		.byte	0x9
 2369 00df 3C       		.byte	0x3c
 2370 00e0 97000000 		.4byte	0x97
 2371 00e4 04       		.uleb128 0x4
 2372 00e5 C8010000 		.4byte	.LASF20
ARM GAS  /tmp/ccZb7D2c.s 			page 107


 2373 00e9 09       		.byte	0x9
 2374 00ea 3D       		.byte	0x3d
 2375 00eb 97000000 		.4byte	0x97
 2376 00ef 04       		.uleb128 0x4
 2377 00f0 1F050000 		.4byte	.LASF21
 2378 00f4 09       		.byte	0x9
 2379 00f5 3E       		.byte	0x3e
 2380 00f6 97000000 		.4byte	0x97
 2381 00fa 04       		.uleb128 0x4
 2382 00fb 48050000 		.4byte	.LASF22
 2383 00ff 09       		.byte	0x9
 2384 0100 40       		.byte	0x40
 2385 0101 AD000000 		.4byte	0xad
 2386 0105 04       		.uleb128 0x4
 2387 0106 03030000 		.4byte	.LASF23
 2388 010a 09       		.byte	0x9
 2389 010b 41       		.byte	0x41
 2390 010c A2000000 		.4byte	0xa2
 2391 0110 04       		.uleb128 0x4
 2392 0111 02040000 		.4byte	.LASF24
 2393 0115 09       		.byte	0x9
 2394 0116 43       		.byte	0x43
 2395 0117 AD000000 		.4byte	0xad
 2396 011b 04       		.uleb128 0x4
 2397 011c 82020000 		.4byte	.LASF25
 2398 0120 09       		.byte	0x9
 2399 0121 45       		.byte	0x45
 2400 0122 A2000000 		.4byte	0xa2
 2401 0126 04       		.uleb128 0x4
 2402 0127 0E030000 		.4byte	.LASF26
 2403 012b 09       		.byte	0x9
 2404 012c 46       		.byte	0x46
 2405 012d AD000000 		.4byte	0xad
 2406 0131 04       		.uleb128 0x4
 2407 0132 61060000 		.4byte	.LASF27
 2408 0136 0A       		.byte	0xa
 2409 0137 33       		.byte	0x33
 2410 0138 AD000000 		.4byte	0xad
 2411 013c 04       		.uleb128 0x4
 2412 013d 41060000 		.4byte	.LASF28
 2413 0141 0A       		.byte	0xa
 2414 0142 3F       		.byte	0x3f
 2415 0143 47010000 		.4byte	0x147
 2416 0147 05       		.uleb128 0x5
 2417 0148 F9020000 		.4byte	.LASF50
 2418 014c 60       		.byte	0x60
 2419 014d 03       		.byte	0x3
 2420 014e C2       		.byte	0xc2
 2421 014f 4D020000 		.4byte	0x24d
 2422 0153 06       		.uleb128 0x6
 2423 0154 AF050000 		.4byte	.LASF29
 2424 0158 03       		.byte	0x3
 2425 0159 C3       		.byte	0xc3
 2426 015a 58020000 		.4byte	0x258
 2427 015e 00       		.byte	0
 2428 015f 06       		.uleb128 0x6
 2429 0160 41050000 		.4byte	.LASF30
ARM GAS  /tmp/ccZb7D2c.s 			page 108


 2430 0164 03       		.byte	0x3
 2431 0165 C5       		.byte	0xc5
 2432 0166 58020000 		.4byte	0x258
 2433 016a 04       		.byte	0x4
 2434 016b 06       		.uleb128 0x6
 2435 016c 38010000 		.4byte	.LASF31
 2436 0170 03       		.byte	0x3
 2437 0171 C7       		.byte	0xc7
 2438 0172 FA000000 		.4byte	0xfa
 2439 0176 08       		.byte	0x8
 2440 0177 06       		.uleb128 0x6
 2441 0178 67070000 		.4byte	.LASF32
 2442 017c 03       		.byte	0x3
 2443 017d C8       		.byte	0xc8
 2444 017e C1040000 		.4byte	0x4c1
 2445 0182 0C       		.byte	0xc
 2446 0183 06       		.uleb128 0x6
 2447 0184 0D020000 		.4byte	.LASF33
 2448 0188 03       		.byte	0x3
 2449 0189 CA       		.byte	0xca
 2450 018a 58020000 		.4byte	0x258
 2451 018e 10       		.byte	0x10
 2452 018f 06       		.uleb128 0x6
 2453 0190 BC040000 		.4byte	.LASF34
 2454 0194 03       		.byte	0x3
 2455 0195 CB       		.byte	0xcb
 2456 0196 58020000 		.4byte	0x258
 2457 019a 14       		.byte	0x14
 2458 019b 06       		.uleb128 0x6
 2459 019c 03070000 		.4byte	.LASF35
 2460 01a0 03       		.byte	0x3
 2461 01a1 D2       		.byte	0xd2
 2462 01a2 65070000 		.4byte	0x765
 2463 01a6 18       		.byte	0x18
 2464 01a7 06       		.uleb128 0x6
 2465 01a8 37000000 		.4byte	.LASF36
 2466 01ac 03       		.byte	0x3
 2467 01ad D8       		.byte	0xd8
 2468 01ae 77070000 		.4byte	0x777
 2469 01b2 1C       		.byte	0x1c
 2470 01b3 06       		.uleb128 0x6
 2471 01b4 85050000 		.4byte	.LASF37
 2472 01b8 03       		.byte	0x3
 2473 01b9 DD       		.byte	0xdd
 2474 01ba E4000000 		.4byte	0xe4
 2475 01be 20       		.byte	0x20
 2476 01bf 06       		.uleb128 0x6
 2477 01c0 B6050000 		.4byte	.LASF38
 2478 01c4 03       		.byte	0x3
 2479 01c5 E1       		.byte	0xe1
 2480 01c6 D9000000 		.4byte	0xd9
 2481 01ca 21       		.byte	0x21
 2482 01cb 06       		.uleb128 0x6
 2483 01cc DF060000 		.4byte	.LASF39
 2484 01d0 03       		.byte	0x3
 2485 01d1 E6       		.byte	0xe6
 2486 01d2 EF000000 		.4byte	0xef
ARM GAS  /tmp/ccZb7D2c.s 			page 109


 2487 01d6 22       		.byte	0x22
 2488 01d7 07       		.uleb128 0x7
 2489 01d8 705F7500 		.ascii	"p_u\000"
 2490 01dc 03       		.byte	0x3
 2491 01dd 3101     		.2byte	0x131
 2492 01df A0060000 		.4byte	0x6a0
 2493 01e3 24       		.byte	0x24
 2494 01e4 08       		.uleb128 0x8
 2495 01e5 4C040000 		.4byte	.LASF40
 2496 01e9 03       		.byte	0x3
 2497 01ea 3601     		.2byte	0x136
 2498 01ec 5E020000 		.4byte	0x25e
 2499 01f0 28       		.byte	0x28
 2500 01f1 08       		.uleb128 0x8
 2501 01f2 C0020000 		.4byte	.LASF41
 2502 01f6 03       		.byte	0x3
 2503 01f7 3C01     		.2byte	0x13c
 2504 01f9 82020000 		.4byte	0x282
 2505 01fd 2C       		.byte	0x2c
 2506 01fe 08       		.uleb128 0x8
 2507 01ff 32070000 		.4byte	.LASF42
 2508 0203 03       		.byte	0x3
 2509 0204 4001     		.2byte	0x140
 2510 0206 05010000 		.4byte	0x105
 2511 020a 34       		.byte	0x34
 2512 020b 08       		.uleb128 0x8
 2513 020c EE050000 		.4byte	.LASF43
 2514 0210 03       		.byte	0x3
 2515 0211 4601     		.2byte	0x146
 2516 0213 10010000 		.4byte	0x110
 2517 0217 38       		.byte	0x38
 2518 0218 08       		.uleb128 0x8
 2519 0219 8D050000 		.4byte	.LASF44
 2520 021d 03       		.byte	0x3
 2521 021e 4D01     		.2byte	0x14d
 2522 0220 5F070000 		.4byte	0x75f
 2523 0224 3C       		.byte	0x3c
 2524 0225 08       		.uleb128 0x8
 2525 0226 6B060000 		.4byte	.LASF45
 2526 022a 03       		.byte	0x3
 2527 022b 5101     		.2byte	0x151
 2528 022d FA000000 		.4byte	0xfa
 2529 0231 40       		.byte	0x40
 2530 0232 08       		.uleb128 0x8
 2531 0233 84010000 		.4byte	.LASF46
 2532 0237 03       		.byte	0x3
 2533 0238 5801     		.2byte	0x158
 2534 023a 35030000 		.4byte	0x335
 2535 023e 44       		.byte	0x44
 2536 023f 08       		.uleb128 0x8
 2537 0240 BE050000 		.4byte	.LASF47
 2538 0244 03       		.byte	0x3
 2539 0245 5E01     		.2byte	0x15e
 2540 0247 51060000 		.4byte	0x651
 2541 024b 48       		.byte	0x48
 2542 024c 00       		.byte	0
 2543 024d 04       		.uleb128 0x4
ARM GAS  /tmp/ccZb7D2c.s 			page 110


 2544 024e 5F040000 		.4byte	.LASF48
 2545 0252 0A       		.byte	0xa
 2546 0253 44       		.byte	0x44
 2547 0254 58020000 		.4byte	0x258
 2548 0258 09       		.uleb128 0x9
 2549 0259 04       		.byte	0x4
 2550 025a 3C010000 		.4byte	0x13c
 2551 025e 04       		.uleb128 0x4
 2552 025f 0A070000 		.4byte	.LASF49
 2553 0263 0A       		.byte	0xa
 2554 0264 49       		.byte	0x49
 2555 0265 69020000 		.4byte	0x269
 2556 0269 05       		.uleb128 0x5
 2557 026a 1A060000 		.4byte	.LASF51
 2558 026e 04       		.byte	0x4
 2559 026f 03       		.byte	0x3
 2560 0270 B0       		.byte	0xb0
 2561 0271 82020000 		.4byte	0x282
 2562 0275 06       		.uleb128 0x6
 2563 0276 AF050000 		.4byte	.LASF29
 2564 027a 03       		.byte	0x3
 2565 027b B1       		.byte	0xb1
 2566 027c 58020000 		.4byte	0x258
 2567 0280 00       		.byte	0
 2568 0281 00       		.byte	0
 2569 0282 04       		.uleb128 0x4
 2570 0283 C6060000 		.4byte	.LASF52
 2571 0287 0A       		.byte	0xa
 2572 0288 50       		.byte	0x50
 2573 0289 8D020000 		.4byte	0x28d
 2574 028d 05       		.uleb128 0x5
 2575 028e 6E000000 		.4byte	.LASF53
 2576 0292 08       		.byte	0x8
 2577 0293 03       		.byte	0x3
 2578 0294 B7       		.byte	0xb7
 2579 0295 B2020000 		.4byte	0x2b2
 2580 0299 06       		.uleb128 0x6
 2581 029a AF050000 		.4byte	.LASF29
 2582 029e 03       		.byte	0x3
 2583 029f B8       		.byte	0xb8
 2584 02a0 58020000 		.4byte	0x258
 2585 02a4 00       		.byte	0
 2586 02a5 06       		.uleb128 0x6
 2587 02a6 41050000 		.4byte	.LASF30
 2588 02aa 03       		.byte	0x3
 2589 02ab B9       		.byte	0xb9
 2590 02ac 58020000 		.4byte	0x258
 2591 02b0 04       		.byte	0x4
 2592 02b1 00       		.byte	0
 2593 02b2 04       		.uleb128 0x4
 2594 02b3 07000000 		.4byte	.LASF54
 2595 02b7 0A       		.byte	0xa
 2596 02b8 57       		.byte	0x57
 2597 02b9 BD020000 		.4byte	0x2bd
 2598 02bd 0A       		.uleb128 0xa
 2599 02be F4030000 		.4byte	.LASF55
 2600 02c2 1C       		.byte	0x1c
ARM GAS  /tmp/ccZb7D2c.s 			page 111


 2601 02c3 03       		.byte	0x3
 2602 02c4 9001     		.2byte	0x190
 2603 02c6 19030000 		.4byte	0x319
 2604 02ca 08       		.uleb128 0x8
 2605 02cb 09060000 		.4byte	.LASF56
 2606 02cf 03       		.byte	0x3
 2607 02d0 9101     		.2byte	0x191
 2608 02d2 82020000 		.4byte	0x282
 2609 02d6 00       		.byte	0
 2610 02d7 08       		.uleb128 0x8
 2611 02d8 A1050000 		.4byte	.LASF57
 2612 02dc 03       		.byte	0x3
 2613 02dd 9201     		.2byte	0x192
 2614 02df FA000000 		.4byte	0xfa
 2615 02e3 08       		.byte	0x8
 2616 02e4 08       		.uleb128 0x8
 2617 02e5 C4040000 		.4byte	.LASF58
 2618 02e9 03       		.byte	0x3
 2619 02ea 9401     		.2byte	0x194
 2620 02ec C1040000 		.4byte	0x4c1
 2621 02f0 0C       		.byte	0xc
 2622 02f1 08       		.uleb128 0x8
 2623 02f2 25020000 		.4byte	.LASF59
 2624 02f6 03       		.byte	0x3
 2625 02f7 9701     		.2byte	0x197
 2626 02f9 58020000 		.4byte	0x258
 2627 02fd 10       		.byte	0x10
 2628 02fe 08       		.uleb128 0x8
 2629 02ff F3040000 		.4byte	.LASF60
 2630 0303 03       		.byte	0x3
 2631 0304 9801     		.2byte	0x198
 2632 0306 58020000 		.4byte	0x258
 2633 030a 14       		.byte	0x14
 2634 030b 08       		.uleb128 0x8
 2635 030c E9040000 		.4byte	.LASF61
 2636 0310 03       		.byte	0x3
 2637 0311 9B01     		.2byte	0x19b
 2638 0313 58020000 		.4byte	0x258
 2639 0317 18       		.byte	0x18
 2640 0318 00       		.byte	0
 2641 0319 04       		.uleb128 0x4
 2642 031a 76060000 		.4byte	.LASF62
 2643 031e 0A       		.byte	0xa
 2644 031f 5C       		.byte	0x5c
 2645 0320 24030000 		.4byte	0x324
 2646 0324 09       		.uleb128 0x9
 2647 0325 04       		.byte	0x4
 2648 0326 2A030000 		.4byte	0x32a
 2649 032a 0B       		.uleb128 0xb
 2650 032b 35030000 		.4byte	0x335
 2651 032f 0C       		.uleb128 0xc
 2652 0330 35030000 		.4byte	0x335
 2653 0334 00       		.byte	0
 2654 0335 0D       		.uleb128 0xd
 2655 0336 04       		.byte	0x4
 2656 0337 04       		.uleb128 0x4
 2657 0338 31050000 		.4byte	.LASF63
ARM GAS  /tmp/ccZb7D2c.s 			page 112


 2658 033c 0A       		.byte	0xa
 2659 033d 61       		.byte	0x61
 2660 033e 42030000 		.4byte	0x342
 2661 0342 0A       		.uleb128 0xa
 2662 0343 D0050000 		.4byte	.LASF64
 2663 0347 14       		.byte	0x14
 2664 0348 03       		.byte	0x3
 2665 0349 6B01     		.2byte	0x16b
 2666 034b 91030000 		.4byte	0x391
 2667 034f 08       		.uleb128 0x8
 2668 0350 A2020000 		.4byte	.LASF65
 2669 0354 03       		.byte	0x3
 2670 0355 6C01     		.2byte	0x16c
 2671 0357 7D070000 		.4byte	0x77d
 2672 035b 00       		.byte	0
 2673 035c 08       		.uleb128 0x8
 2674 035d 36020000 		.4byte	.LASF66
 2675 0361 03       		.byte	0x3
 2676 0362 6D01     		.2byte	0x16d
 2677 0364 7D070000 		.4byte	0x77d
 2678 0368 04       		.byte	0x4
 2679 0369 08       		.uleb128 0x8
 2680 036a 11060000 		.4byte	.LASF67
 2681 036e 03       		.byte	0x3
 2682 036f 6E01     		.2byte	0x16e
 2683 0371 31010000 		.4byte	0x131
 2684 0375 08       		.byte	0x8
 2685 0376 08       		.uleb128 0x8
 2686 0377 6D070000 		.4byte	.LASF68
 2687 037b 03       		.byte	0x3
 2688 037c 6F01     		.2byte	0x16f
 2689 037e 19030000 		.4byte	0x319
 2690 0382 0C       		.byte	0xc
 2691 0383 08       		.uleb128 0x8
 2692 0384 BF060000 		.4byte	.LASF69
 2693 0388 03       		.byte	0x3
 2694 0389 7101     		.2byte	0x171
 2695 038b 35030000 		.4byte	0x335
 2696 038f 10       		.byte	0x10
 2697 0390 00       		.byte	0
 2698 0391 04       		.uleb128 0x4
 2699 0392 0C010000 		.4byte	.LASF70
 2700 0396 0A       		.byte	0xa
 2701 0397 66       		.byte	0x66
 2702 0398 9C030000 		.4byte	0x39c
 2703 039c 0A       		.uleb128 0xa
 2704 039d 72040000 		.4byte	.LASF71
 2705 03a1 10       		.byte	0x10
 2706 03a2 03       		.byte	0x3
 2707 03a3 7B01     		.2byte	0x17b
 2708 03a5 DE030000 		.4byte	0x3de
 2709 03a9 08       		.uleb128 0x8
 2710 03aa A2020000 		.4byte	.LASF65
 2711 03ae 03       		.byte	0x3
 2712 03af 7C01     		.2byte	0x17c
 2713 03b1 7D070000 		.4byte	0x77d
 2714 03b5 00       		.byte	0
ARM GAS  /tmp/ccZb7D2c.s 			page 113


 2715 03b6 08       		.uleb128 0x8
 2716 03b7 36020000 		.4byte	.LASF66
 2717 03bb 03       		.byte	0x3
 2718 03bc 7E01     		.2byte	0x17e
 2719 03be 7D070000 		.4byte	0x77d
 2720 03c2 04       		.byte	0x4
 2721 03c3 08       		.uleb128 0x8
 2722 03c4 11060000 		.4byte	.LASF67
 2723 03c8 03       		.byte	0x3
 2724 03c9 8001     		.2byte	0x180
 2725 03cb 31010000 		.4byte	0x131
 2726 03cf 08       		.byte	0x8
 2727 03d0 08       		.uleb128 0x8
 2728 03d1 A6040000 		.4byte	.LASF72
 2729 03d5 03       		.byte	0x3
 2730 03d6 8801     		.2byte	0x188
 2731 03d8 31010000 		.4byte	0x131
 2732 03dc 0C       		.byte	0xc
 2733 03dd 00       		.byte	0
 2734 03de 04       		.uleb128 0x4
 2735 03df 7F000000 		.4byte	.LASF73
 2736 03e3 0A       		.byte	0xa
 2737 03e4 6B       		.byte	0x6b
 2738 03e5 E9030000 		.4byte	0x3e9
 2739 03e9 0E       		.uleb128 0xe
 2740 03ea 3E020000 		.4byte	.LASF74
 2741 03ee 1404     		.2byte	0x414
 2742 03f0 03       		.byte	0x3
 2743 03f1 A201     		.2byte	0x1a2
 2744 03f3 2C040000 		.4byte	0x42c
 2745 03f7 08       		.uleb128 0x8
 2746 03f8 9E060000 		.4byte	.LASF75
 2747 03fc 03       		.byte	0x3
 2748 03fd AA01     		.2byte	0x1aa
 2749 03ff 83070000 		.4byte	0x783
 2750 0403 00       		.byte	0
 2751 0404 08       		.uleb128 0x8
 2752 0405 E6060000 		.4byte	.LASF76
 2753 0409 03       		.byte	0x3
 2754 040a AF01     		.2byte	0x1af
 2755 040c 1B010000 		.4byte	0x11b
 2756 0410 04       		.byte	0x4
 2757 0411 08       		.uleb128 0x8
 2758 0412 6A020000 		.4byte	.LASF77
 2759 0416 03       		.byte	0x3
 2760 0417 B301     		.2byte	0x1b3
 2761 0419 1B010000 		.4byte	0x11b
 2762 041d 08       		.byte	0x8
 2763 041e 08       		.uleb128 0x8
 2764 041f 19070000 		.4byte	.LASF78
 2765 0423 03       		.byte	0x3
 2766 0424 B901     		.2byte	0x1b9
 2767 0426 E3050000 		.4byte	0x5e3
 2768 042a 0C       		.byte	0xc
 2769 042b 00       		.byte	0
 2770 042c 04       		.uleb128 0x4
 2771 042d 15030000 		.4byte	.LASF79
ARM GAS  /tmp/ccZb7D2c.s 			page 114


 2772 0431 0A       		.byte	0xa
 2773 0432 70       		.byte	0x70
 2774 0433 37040000 		.4byte	0x437
 2775 0437 0E       		.uleb128 0xe
 2776 0438 A7010000 		.4byte	.LASF80
 2777 043c D805     		.2byte	0x5d8
 2778 043e 03       		.byte	0x3
 2779 043f C201     		.2byte	0x1c2
 2780 0441 A4040000 		.4byte	0x4a4
 2781 0445 08       		.uleb128 0x8
 2782 0446 EE060000 		.4byte	.LASF81
 2783 044a 03       		.byte	0x3
 2784 044b C601     		.2byte	0x1c6
 2785 044d B2020000 		.4byte	0x2b2
 2786 0451 00       		.byte	0
 2787 0452 08       		.uleb128 0x8
 2788 0453 94010000 		.4byte	.LASF82
 2789 0457 03       		.byte	0x3
 2790 0458 CA01     		.2byte	0x1ca
 2791 045a 91030000 		.4byte	0x391
 2792 045e 1C       		.byte	0x1c
 2793 045f 07       		.uleb128 0x7
 2794 0460 64626700 		.ascii	"dbg\000"
 2795 0464 03       		.byte	0x3
 2796 0465 CE01     		.2byte	0x1ce
 2797 0467 DE030000 		.4byte	0x3de
 2798 046b 2C       		.byte	0x2c
 2799 046c 0F       		.uleb128 0xf
 2800 046d F7000000 		.4byte	.LASF83
 2801 0471 03       		.byte	0x3
 2802 0472 D201     		.2byte	0x1d2
 2803 0474 3C010000 		.4byte	0x13c
 2804 0478 4004     		.2byte	0x440
 2805 047a 10       		.uleb128 0x10
 2806 047b 746D00   		.ascii	"tm\000"
 2807 047e 03       		.byte	0x3
 2808 047f D701     		.2byte	0x1d7
 2809 0481 03060000 		.4byte	0x603
 2810 0485 A004     		.2byte	0x4a0
 2811 0487 0F       		.uleb128 0xf
 2812 0488 4B000000 		.4byte	.LASF84
 2813 048c 03       		.byte	0x3
 2814 048d DD01     		.2byte	0x1dd
 2815 048f 95060000 		.4byte	0x695
 2816 0493 A804     		.2byte	0x4a8
 2817 0495 0F       		.uleb128 0xf
 2818 0496 73020000 		.4byte	.LASF85
 2819 049a 03       		.byte	0x3
 2820 049b E301     		.2byte	0x1e3
 2821 049d 88070000 		.4byte	0x788
 2822 04a1 E004     		.2byte	0x4e0
 2823 04a3 00       		.byte	0
 2824 04a4 03       		.uleb128 0x3
 2825 04a5 04       		.byte	0x4
 2826 04a6 07       		.byte	0x7
 2827 04a7 56040000 		.4byte	.LASF86
 2828 04ab 04       		.uleb128 0x4
ARM GAS  /tmp/ccZb7D2c.s 			page 115


 2829 04ac 2D020000 		.4byte	.LASF87
 2830 04b0 0B       		.byte	0xb
 2831 04b1 65       		.byte	0x65
 2832 04b2 35030000 		.4byte	0x335
 2833 04b6 04       		.uleb128 0x4
 2834 04b7 41040000 		.4byte	.LASF88
 2835 04bb 0B       		.byte	0xb
 2836 04bc 6D       		.byte	0x6d
 2837 04bd B8000000 		.4byte	0xb8
 2838 04c1 05       		.uleb128 0x5
 2839 04c2 AF060000 		.4byte	.LASF89
 2840 04c6 04       		.byte	0x4
 2841 04c7 0B       		.byte	0xb
 2842 04c8 89       		.byte	0x89
 2843 04c9 DA040000 		.4byte	0x4da
 2844 04cd 11       		.uleb128 0x11
 2845 04ce 72313300 		.ascii	"r13\000"
 2846 04d2 0B       		.byte	0xb
 2847 04d3 8A       		.byte	0x8a
 2848 04d4 55050000 		.4byte	0x555
 2849 04d8 00       		.byte	0
 2850 04d9 00       		.byte	0
 2851 04da 05       		.uleb128 0x5
 2852 04db 62000000 		.4byte	.LASF90
 2853 04df 24       		.byte	0x24
 2854 04e0 01       		.byte	0x1
 2855 04e1 FD       		.byte	0xfd
 2856 04e2 55050000 		.4byte	0x555
 2857 04e6 07       		.uleb128 0x7
 2858 04e7 723400   		.ascii	"r4\000"
 2859 04ea 01       		.byte	0x1
 2860 04eb 1001     		.2byte	0x110
 2861 04ed AB040000 		.4byte	0x4ab
 2862 04f1 00       		.byte	0
 2863 04f2 07       		.uleb128 0x7
 2864 04f3 723500   		.ascii	"r5\000"
 2865 04f6 01       		.byte	0x1
 2866 04f7 1101     		.2byte	0x111
 2867 04f9 AB040000 		.4byte	0x4ab
 2868 04fd 04       		.byte	0x4
 2869 04fe 07       		.uleb128 0x7
 2870 04ff 723600   		.ascii	"r6\000"
 2871 0502 01       		.byte	0x1
 2872 0503 1201     		.2byte	0x112
 2873 0505 AB040000 		.4byte	0x4ab
 2874 0509 08       		.byte	0x8
 2875 050a 07       		.uleb128 0x7
 2876 050b 723700   		.ascii	"r7\000"
 2877 050e 01       		.byte	0x1
 2878 050f 1301     		.2byte	0x113
 2879 0511 AB040000 		.4byte	0x4ab
 2880 0515 0C       		.byte	0xc
 2881 0516 07       		.uleb128 0x7
 2882 0517 723800   		.ascii	"r8\000"
 2883 051a 01       		.byte	0x1
 2884 051b 1401     		.2byte	0x114
 2885 051d AB040000 		.4byte	0x4ab
ARM GAS  /tmp/ccZb7D2c.s 			page 116


 2886 0521 10       		.byte	0x10
 2887 0522 07       		.uleb128 0x7
 2888 0523 723900   		.ascii	"r9\000"
 2889 0526 01       		.byte	0x1
 2890 0527 1501     		.2byte	0x115
 2891 0529 AB040000 		.4byte	0x4ab
 2892 052d 14       		.byte	0x14
 2893 052e 07       		.uleb128 0x7
 2894 052f 72313000 		.ascii	"r10\000"
 2895 0533 01       		.byte	0x1
 2896 0534 1601     		.2byte	0x116
 2897 0536 AB040000 		.4byte	0x4ab
 2898 053a 18       		.byte	0x18
 2899 053b 07       		.uleb128 0x7
 2900 053c 72313100 		.ascii	"r11\000"
 2901 0540 01       		.byte	0x1
 2902 0541 1701     		.2byte	0x117
 2903 0543 AB040000 		.4byte	0x4ab
 2904 0547 1C       		.byte	0x1c
 2905 0548 07       		.uleb128 0x7
 2906 0549 6C7200   		.ascii	"lr\000"
 2907 054c 01       		.byte	0x1
 2908 054d 1801     		.2byte	0x118
 2909 054f AB040000 		.4byte	0x4ab
 2910 0553 20       		.byte	0x20
 2911 0554 00       		.byte	0
 2912 0555 09       		.uleb128 0x9
 2913 0556 04       		.byte	0x4
 2914 0557 DA040000 		.4byte	0x4da
 2915 055b 12       		.uleb128 0x12
 2916 055c 10       		.byte	0x10
 2917 055d 0C       		.byte	0xc
 2918 055e 51       		.byte	0x51
 2919 055f 94050000 		.4byte	0x594
 2920 0563 06       		.uleb128 0x6
 2921 0564 14000000 		.4byte	.LASF91
 2922 0568 0C       		.byte	0xc
 2923 0569 55       		.byte	0x55
 2924 056a 31010000 		.4byte	0x131
 2925 056e 00       		.byte	0
 2926 056f 06       		.uleb128 0x6
 2927 0570 E0010000 		.4byte	.LASF92
 2928 0574 0C       		.byte	0xc
 2929 0575 59       		.byte	0x59
 2930 0576 58020000 		.4byte	0x258
 2931 057a 04       		.byte	0x4
 2932 057b 06       		.uleb128 0x6
 2933 057c 5D070000 		.4byte	.LASF93
 2934 0580 0C       		.byte	0xc
 2935 0581 5D       		.byte	0x5d
 2936 0582 35030000 		.4byte	0x335
 2937 0586 08       		.byte	0x8
 2938 0587 06       		.uleb128 0x6
 2939 0588 E5000000 		.4byte	.LASF94
 2940 058c 0C       		.byte	0xc
 2941 058d 61       		.byte	0x61
 2942 058e 97000000 		.4byte	0x97
ARM GAS  /tmp/ccZb7D2c.s 			page 117


 2943 0592 0C       		.byte	0xc
 2944 0593 00       		.byte	0
 2945 0594 04       		.uleb128 0x4
 2946 0595 97040000 		.4byte	.LASF95
 2947 0599 0C       		.byte	0xc
 2948 059a 62       		.byte	0x62
 2949 059b 5B050000 		.4byte	0x55b
 2950 059f 13       		.uleb128 0x13
 2951 05a0 0804     		.2byte	0x408
 2952 05a2 0C       		.byte	0xc
 2953 05a3 67       		.byte	0x67
 2954 05a4 CD050000 		.4byte	0x5cd
 2955 05a8 06       		.uleb128 0x6
 2956 05a9 1D020000 		.4byte	.LASF96
 2957 05ad 0C       		.byte	0xc
 2958 05ae 6B       		.byte	0x6b
 2959 05af 2C000000 		.4byte	0x2c
 2960 05b3 00       		.byte	0
 2961 05b4 06       		.uleb128 0x6
 2962 05b5 00000000 		.4byte	.LASF97
 2963 05b9 0C       		.byte	0xc
 2964 05ba 6F       		.byte	0x6f
 2965 05bb CD050000 		.4byte	0x5cd
 2966 05bf 04       		.byte	0x4
 2967 05c0 06       		.uleb128 0x6
 2968 05c1 27050000 		.4byte	.LASF98
 2969 05c5 0C       		.byte	0xc
 2970 05c6 73       		.byte	0x73
 2971 05c7 D3050000 		.4byte	0x5d3
 2972 05cb 08       		.byte	0x8
 2973 05cc 00       		.byte	0
 2974 05cd 09       		.uleb128 0x9
 2975 05ce 04       		.byte	0x4
 2976 05cf 94050000 		.4byte	0x594
 2977 05d3 14       		.uleb128 0x14
 2978 05d4 94050000 		.4byte	0x594
 2979 05d8 E3050000 		.4byte	0x5e3
 2980 05dc 15       		.uleb128 0x15
 2981 05dd A4040000 		.4byte	0x4a4
 2982 05e1 3F       		.byte	0x3f
 2983 05e2 00       		.byte	0
 2984 05e3 04       		.uleb128 0x4
 2985 05e4 D3000000 		.4byte	.LASF99
 2986 05e8 0C       		.byte	0xc
 2987 05e9 74       		.byte	0x74
 2988 05ea 9F050000 		.4byte	0x59f
 2989 05ee 12       		.uleb128 0x12
 2990 05ef 04       		.byte	0x4
 2991 05f0 0D       		.byte	0xd
 2992 05f1 38       		.byte	0x38
 2993 05f2 03060000 		.4byte	0x603
 2994 05f6 06       		.uleb128 0x6
 2995 05f7 A8060000 		.4byte	.LASF100
 2996 05fb 0D       		.byte	0xd
 2997 05fc 3C       		.byte	0x3c
 2998 05fd C3000000 		.4byte	0xc3
 2999 0601 00       		.byte	0
ARM GAS  /tmp/ccZb7D2c.s 			page 118


 3000 0602 00       		.byte	0
 3001 0603 04       		.uleb128 0x4
 3002 0604 CA040000 		.4byte	.LASF101
 3003 0608 0D       		.byte	0xd
 3004 0609 3D       		.byte	0x3d
 3005 060a EE050000 		.4byte	0x5ee
 3006 060e 12       		.uleb128 0x12
 3007 060f 18       		.byte	0x18
 3008 0610 0D       		.byte	0xd
 3009 0611 48       		.byte	0x48
 3010 0612 51060000 		.4byte	0x651
 3011 0616 06       		.uleb128 0x6
 3012 0617 4A060000 		.4byte	.LASF102
 3013 061b 0D       		.byte	0xd
 3014 061c 49       		.byte	0x49
 3015 061d C3000000 		.4byte	0xc3
 3016 0621 00       		.byte	0
 3017 0622 06       		.uleb128 0x6
 3018 0623 A3000000 		.4byte	.LASF103
 3019 0627 0D       		.byte	0xd
 3020 0628 4A       		.byte	0x4a
 3021 0629 C3000000 		.4byte	0xc3
 3022 062d 04       		.byte	0x4
 3023 062e 06       		.uleb128 0x6
 3024 062f 09030000 		.4byte	.LASF104
 3025 0633 0D       		.byte	0xd
 3026 0634 4B       		.byte	0x4b
 3027 0635 C3000000 		.4byte	0xc3
 3028 0639 08       		.byte	0x8
 3029 063a 11       		.uleb128 0x11
 3030 063b 6E00     		.ascii	"n\000"
 3031 063d 0D       		.byte	0xd
 3032 063e 4C       		.byte	0x4c
 3033 063f 26010000 		.4byte	0x126
 3034 0643 0C       		.byte	0xc
 3035 0644 06       		.uleb128 0x6
 3036 0645 06050000 		.4byte	.LASF105
 3037 0649 0D       		.byte	0xd
 3038 064a 4D       		.byte	0x4d
 3039 064b CE000000 		.4byte	0xce
 3040 064f 10       		.byte	0x10
 3041 0650 00       		.byte	0
 3042 0651 04       		.uleb128 0x4
 3043 0652 A9000000 		.4byte	.LASF106
 3044 0656 0D       		.byte	0xd
 3045 0657 4E       		.byte	0x4e
 3046 0658 0E060000 		.4byte	0x60e
 3047 065c 12       		.uleb128 0x12
 3048 065d 38       		.byte	0x38
 3049 065e 0E       		.byte	0xe
 3050 065f 38       		.byte	0x38
 3051 0660 95060000 		.4byte	0x695
 3052 0664 06       		.uleb128 0x6
 3053 0665 CB020000 		.4byte	.LASF107
 3054 0669 0E       		.byte	0xe
 3055 066a 39       		.byte	0x39
 3056 066b 26010000 		.4byte	0x126
ARM GAS  /tmp/ccZb7D2c.s 			page 119


 3057 066f 00       		.byte	0
 3058 0670 06       		.uleb128 0x6
 3059 0671 60050000 		.4byte	.LASF108
 3060 0675 0E       		.byte	0xe
 3061 0676 3A       		.byte	0x3a
 3062 0677 26010000 		.4byte	0x126
 3063 067b 04       		.byte	0x4
 3064 067c 06       		.uleb128 0x6
 3065 067d 4A070000 		.4byte	.LASF109
 3066 0681 0E       		.byte	0xe
 3067 0682 3B       		.byte	0x3b
 3068 0683 51060000 		.4byte	0x651
 3069 0687 08       		.byte	0x8
 3070 0688 06       		.uleb128 0x6
 3071 0689 E9030000 		.4byte	.LASF110
 3072 068d 0E       		.byte	0xe
 3073 068e 3D       		.byte	0x3d
 3074 068f 51060000 		.4byte	0x651
 3075 0693 20       		.byte	0x20
 3076 0694 00       		.byte	0
 3077 0695 04       		.uleb128 0x4
 3078 0696 EA020000 		.4byte	.LASF111
 3079 069a 0E       		.byte	0xe
 3080 069b 3F       		.byte	0x3f
 3081 069c 5C060000 		.4byte	0x65c
 3082 06a0 16       		.uleb128 0x16
 3083 06a1 04       		.byte	0x4
 3084 06a2 03       		.byte	0x3
 3085 06a3 FA       		.byte	0xfa
 3086 06a4 FD060000 		.4byte	0x6fd
 3087 06a8 17       		.uleb128 0x17
 3088 06a9 30000000 		.4byte	.LASF112
 3089 06ad 03       		.byte	0x3
 3090 06ae 0101     		.2byte	0x101
 3091 06b0 05010000 		.4byte	0x105
 3092 06b4 17       		.uleb128 0x17
 3093 06b5 EE000000 		.4byte	.LASF113
 3094 06b9 03       		.byte	0x3
 3095 06ba 0801     		.2byte	0x108
 3096 06bc 05010000 		.4byte	0x105
 3097 06c0 17       		.uleb128 0x17
 3098 06c1 FC060000 		.4byte	.LASF114
 3099 06c5 03       		.byte	0x3
 3100 06c6 0F01     		.2byte	0x10f
 3101 06c8 35030000 		.4byte	0x335
 3102 06cc 17       		.uleb128 0x17
 3103 06cd 1C000000 		.4byte	.LASF115
 3104 06d1 03       		.byte	0x3
 3105 06d2 1601     		.2byte	0x116
 3106 06d4 FD060000 		.4byte	0x6fd
 3107 06d8 17       		.uleb128 0x17
 3108 06d9 B1020000 		.4byte	.LASF116
 3109 06dd 03       		.byte	0x3
 3110 06de 1E01     		.2byte	0x11e
 3111 06e0 28070000 		.4byte	0x728
 3112 06e4 17       		.uleb128 0x17
 3113 06e5 02060000 		.4byte	.LASF117
ARM GAS  /tmp/ccZb7D2c.s 			page 120


 3114 06e9 03       		.byte	0x3
 3115 06ea 2701     		.2byte	0x127
 3116 06ec 5F070000 		.4byte	0x75f
 3117 06f0 17       		.uleb128 0x17
 3118 06f1 A8050000 		.4byte	.LASF118
 3119 06f5 03       		.byte	0x3
 3120 06f6 2F01     		.2byte	0x12f
 3121 06f8 10010000 		.4byte	0x110
 3122 06fc 00       		.byte	0
 3123 06fd 09       		.uleb128 0x9
 3124 06fe 04       		.byte	0x4
 3125 06ff 4D020000 		.4byte	0x24d
 3126 0703 05       		.uleb128 0x5
 3127 0704 E1050000 		.4byte	.LASF119
 3128 0708 0C       		.byte	0xc
 3129 0709 0F       		.byte	0xf
 3130 070a 34       		.byte	0x34
 3131 070b 28070000 		.4byte	0x728
 3132 070f 06       		.uleb128 0x6
 3133 0710 15020000 		.4byte	.LASF120
 3134 0714 0F       		.byte	0xf
 3135 0715 35       		.byte	0x35
 3136 0716 82020000 		.4byte	0x282
 3137 071a 00       		.byte	0
 3138 071b 06       		.uleb128 0x6
 3139 071c D1020000 		.4byte	.LASF121
 3140 0720 0F       		.byte	0xf
 3141 0721 37       		.byte	0x37
 3142 0722 1B010000 		.4byte	0x11b
 3143 0726 08       		.byte	0x8
 3144 0727 00       		.byte	0
 3145 0728 09       		.uleb128 0x9
 3146 0729 04       		.byte	0x4
 3147 072a 03070000 		.4byte	0x703
 3148 072e 05       		.uleb128 0x5
 3149 072f D6060000 		.4byte	.LASF122
 3150 0733 10       		.byte	0x10
 3151 0734 05       		.byte	0x5
 3152 0735 39       		.byte	0x39
 3153 0736 5F070000 		.4byte	0x75f
 3154 073a 06       		.uleb128 0x6
 3155 073b 8C010000 		.4byte	.LASF123
 3156 073f 05       		.byte	0x5
 3157 0740 3A       		.byte	0x3a
 3158 0741 82020000 		.4byte	0x282
 3159 0745 00       		.byte	0
 3160 0746 06       		.uleb128 0x6
 3161 0747 55070000 		.4byte	.LASF124
 3162 074b 05       		.byte	0x5
 3163 074c 3C       		.byte	0x3c
 3164 074d 58020000 		.4byte	0x258
 3165 0751 08       		.byte	0x8
 3166 0752 06       		.uleb128 0x6
 3167 0753 AA020000 		.4byte	.LASF125
 3168 0757 05       		.byte	0x5
 3169 0758 3E       		.byte	0x3e
 3170 0759 A3070000 		.4byte	0x7a3
ARM GAS  /tmp/ccZb7D2c.s 			page 121


 3171 075d 0C       		.byte	0xc
 3172 075e 00       		.byte	0
 3173 075f 09       		.uleb128 0x9
 3174 0760 04       		.byte	0x4
 3175 0761 2E070000 		.4byte	0x72e
 3176 0765 09       		.uleb128 0x9
 3177 0766 04       		.byte	0x4
 3178 0767 6B070000 		.4byte	0x76b
 3179 076b 18       		.uleb128 0x18
 3180 076c 70070000 		.4byte	0x770
 3181 0770 03       		.uleb128 0x3
 3182 0771 01       		.byte	0x1
 3183 0772 08       		.byte	0x8
 3184 0773 3C060000 		.4byte	.LASF126
 3185 0777 09       		.uleb128 0x9
 3186 0778 04       		.byte	0x4
 3187 0779 B6040000 		.4byte	0x4b6
 3188 077d 09       		.uleb128 0x9
 3189 077e 04       		.byte	0x4
 3190 077f 37030000 		.4byte	0x337
 3191 0783 19       		.uleb128 0x19
 3192 0784 65070000 		.4byte	0x765
 3193 0788 14       		.uleb128 0x14
 3194 0789 B6040000 		.4byte	0x4b6
 3195 078d 98070000 		.4byte	0x798
 3196 0791 15       		.uleb128 0x15
 3197 0792 A4040000 		.4byte	0x4a4
 3198 0796 1E       		.byte	0x1e
 3199 0797 00       		.byte	0
 3200 0798 04       		.uleb128 0x4
 3201 0799 5C020000 		.4byte	.LASF127
 3202 079d 05       		.byte	0x5
 3203 079e 34       		.byte	0x34
 3204 079f 2E070000 		.4byte	0x72e
 3205 07a3 09       		.uleb128 0x9
 3206 07a4 04       		.byte	0x4
 3207 07a5 98070000 		.4byte	0x798
 3208 07a9 1A       		.uleb128 0x1a
 3209 07aa 89040000 		.4byte	.LASF157
 3210 07ae 02       		.byte	0x2
 3211 07af 2202     		.2byte	0x222
 3212 07b1 03       		.byte	0x3
 3213 07b2 C3070000 		.4byte	0x7c3
 3214 07b6 1B       		.uleb128 0x1b
 3215 07b7 64020000 		.4byte	.LASF158
 3216 07bb 02       		.byte	0x2
 3217 07bc 2202     		.2byte	0x222
 3218 07be AD000000 		.4byte	0xad
 3219 07c2 00       		.byte	0
 3220 07c3 1C       		.uleb128 0x1c
 3221 07c4 99000000 		.4byte	.LASF128
 3222 07c8 01       		.byte	0x1
 3223 07c9 C801     		.2byte	0x1c8
 3224 07cb 00000000 		.4byte	.LFB127
 3225 07cf 10000000 		.4byte	.LFE127-.LFB127
 3226 07d3 01       		.uleb128 0x1
 3227 07d4 9C       		.byte	0x9c
ARM GAS  /tmp/ccZb7D2c.s 			page 122


 3228 07d5 F3070000 		.4byte	0x7f3
 3229 07d9 1D       		.uleb128 0x1d
 3230 07da A9070000 		.4byte	0x7a9
 3231 07de 06000000 		.4byte	.LBB6
 3232 07e2 06000000 		.4byte	.LBE6-.LBB6
 3233 07e6 01       		.byte	0x1
 3234 07e7 D001     		.2byte	0x1d0
 3235 07e9 1E       		.uleb128 0x1e
 3236 07ea B6070000 		.4byte	0x7b6
 3237 07ee 02       		.uleb128 0x2
 3238 07ef 91       		.byte	0x91
 3239 07f0 7C       		.sleb128 -4
 3240 07f1 00       		.byte	0
 3241 07f2 00       		.byte	0
 3242 07f3 1C       		.uleb128 0x1c
 3243 07f4 9B010000 		.4byte	.LASF129
 3244 07f8 01       		.byte	0x1
 3245 07f9 E001     		.2byte	0x1e0
 3246 07fb 00000000 		.4byte	.LFB128
 3247 07ff 10000000 		.4byte	.LFE128-.LFB128
 3248 0803 01       		.uleb128 0x1
 3249 0804 9C       		.byte	0x9c
 3250 0805 23080000 		.4byte	0x823
 3251 0809 1D       		.uleb128 0x1d
 3252 080a A9070000 		.4byte	0x7a9
 3253 080e 06000000 		.4byte	.LBB8
 3254 0812 06000000 		.4byte	.LBE8-.LBB8
 3255 0816 01       		.byte	0x1
 3256 0817 E301     		.2byte	0x1e3
 3257 0819 1E       		.uleb128 0x1e
 3258 081a B6070000 		.4byte	0x7b6
 3259 081e 02       		.uleb128 0x2
 3260 081f 91       		.byte	0x91
 3261 0820 7C       		.sleb128 -4
 3262 0821 00       		.byte	0
 3263 0822 00       		.byte	0
 3264 0823 1C       		.uleb128 0x1c
 3265 0824 8E000000 		.4byte	.LASF130
 3266 0828 03       		.byte	0x3
 3267 0829 5A02     		.2byte	0x25a
 3268 082b 00000000 		.4byte	.LFB150
 3269 082f 14000000 		.4byte	.LFE150-.LFB150
 3270 0833 01       		.uleb128 0x1
 3271 0834 9C       		.byte	0x9c
 3272 0835 49080000 		.4byte	0x849
 3273 0839 1F       		.uleb128 0x1f
 3274 083a 74717000 		.ascii	"tqp\000"
 3275 083e 03       		.byte	0x3
 3276 083f 5A02     		.2byte	0x25a
 3277 0841 49080000 		.4byte	0x849
 3278 0845 02       		.uleb128 0x2
 3279 0846 91       		.byte	0x91
 3280 0847 7C       		.sleb128 -4
 3281 0848 00       		.byte	0
 3282 0849 09       		.uleb128 0x9
 3283 084a 04       		.byte	0x4
 3284 084b 82020000 		.4byte	0x282
ARM GAS  /tmp/ccZb7D2c.s 			page 123


 3285 084f 20       		.uleb128 0x20
 3286 0850 D1010000 		.4byte	.LASF133
 3287 0854 03       		.byte	0x3
 3288 0855 7502     		.2byte	0x275
 3289 0857 79080000 		.4byte	0x879
 3290 085b 00000000 		.4byte	.LFB152
 3291 085f 1A000000 		.4byte	.LFE152-.LFB152
 3292 0863 01       		.uleb128 0x1
 3293 0864 9C       		.byte	0x9c
 3294 0865 79080000 		.4byte	0x879
 3295 0869 1F       		.uleb128 0x1f
 3296 086a 74717000 		.ascii	"tqp\000"
 3297 086e 03       		.byte	0x3
 3298 086f 7502     		.2byte	0x275
 3299 0871 80080000 		.4byte	0x880
 3300 0875 02       		.uleb128 0x2
 3301 0876 91       		.byte	0x91
 3302 0877 7C       		.sleb128 -4
 3303 0878 00       		.byte	0
 3304 0879 03       		.uleb128 0x3
 3305 087a 01       		.byte	0x1
 3306 087b 02       		.byte	0x2
 3307 087c 69050000 		.4byte	.LASF131
 3308 0880 09       		.uleb128 0x9
 3309 0881 04       		.byte	0x4
 3310 0882 86080000 		.4byte	0x886
 3311 0886 18       		.uleb128 0x18
 3312 0887 82020000 		.4byte	0x282
 3313 088b 1C       		.uleb128 0x1c
 3314 088c 38070000 		.4byte	.LASF132
 3315 0890 03       		.byte	0x3
 3316 0891 8B02     		.2byte	0x28b
 3317 0893 00000000 		.4byte	.LFB155
 3318 0897 44000000 		.4byte	.LFE155-.LFB155
 3319 089b 01       		.uleb128 0x1
 3320 089c 9C       		.byte	0x9c
 3321 089d CD080000 		.4byte	0x8cd
 3322 08a1 1F       		.uleb128 0x1f
 3323 08a2 747000   		.ascii	"tp\000"
 3324 08a5 03       		.byte	0x3
 3325 08a6 8B02     		.2byte	0x28b
 3326 08a8 58020000 		.4byte	0x258
 3327 08ac 02       		.uleb128 0x2
 3328 08ad 91       		.byte	0x91
 3329 08ae 74       		.sleb128 -12
 3330 08af 1F       		.uleb128 0x1f
 3331 08b0 74717000 		.ascii	"tqp\000"
 3332 08b4 03       		.byte	0x3
 3333 08b5 8B02     		.2byte	0x28b
 3334 08b7 49080000 		.4byte	0x849
 3335 08bb 02       		.uleb128 0x2
 3336 08bc 91       		.byte	0x91
 3337 08bd 70       		.sleb128 -16
 3338 08be 21       		.uleb128 0x21
 3339 08bf 637000   		.ascii	"cp\000"
 3340 08c2 03       		.byte	0x3
 3341 08c3 8D02     		.2byte	0x28d
ARM GAS  /tmp/ccZb7D2c.s 			page 124


 3342 08c5 58020000 		.4byte	0x258
 3343 08c9 02       		.uleb128 0x2
 3344 08ca 91       		.byte	0x91
 3345 08cb 7C       		.sleb128 -4
 3346 08cc 00       		.byte	0
 3347 08cd 20       		.uleb128 0x20
 3348 08ce 4F060000 		.4byte	.LASF134
 3349 08d2 03       		.byte	0x3
 3350 08d3 9F02     		.2byte	0x29f
 3351 08d5 58020000 		.4byte	0x258
 3352 08d9 00000000 		.4byte	.LFB157
 3353 08dd 22000000 		.4byte	.LFE157-.LFB157
 3354 08e1 01       		.uleb128 0x1
 3355 08e2 9C       		.byte	0x9c
 3356 08e3 05090000 		.4byte	0x905
 3357 08e7 1F       		.uleb128 0x1f
 3358 08e8 74717000 		.ascii	"tqp\000"
 3359 08ec 03       		.byte	0x3
 3360 08ed 9F02     		.2byte	0x29f
 3361 08ef 49080000 		.4byte	0x849
 3362 08f3 02       		.uleb128 0x2
 3363 08f4 91       		.byte	0x91
 3364 08f5 74       		.sleb128 -12
 3365 08f6 21       		.uleb128 0x21
 3366 08f7 747000   		.ascii	"tp\000"
 3367 08fa 03       		.byte	0x3
 3368 08fb A002     		.2byte	0x2a0
 3369 08fd 58020000 		.4byte	0x258
 3370 0901 02       		.uleb128 0x2
 3371 0902 91       		.byte	0x91
 3372 0903 7C       		.sleb128 -4
 3373 0904 00       		.byte	0
 3374 0905 20       		.uleb128 0x20
 3375 0906 BA010000 		.4byte	.LASF135
 3376 090a 03       		.byte	0x3
 3377 090b B102     		.2byte	0x2b1
 3378 090d 58020000 		.4byte	0x258
 3379 0911 00000000 		.4byte	.LFB159
 3380 0915 20000000 		.4byte	.LFE159-.LFB159
 3381 0919 01       		.uleb128 0x1
 3382 091a 9C       		.byte	0x9c
 3383 091b 2E090000 		.4byte	0x92e
 3384 091f 1F       		.uleb128 0x1f
 3385 0920 747000   		.ascii	"tp\000"
 3386 0923 03       		.byte	0x3
 3387 0924 B102     		.2byte	0x2b1
 3388 0926 58020000 		.4byte	0x258
 3389 092a 02       		.uleb128 0x2
 3390 092b 91       		.byte	0x91
 3391 092c 7C       		.sleb128 -4
 3392 092d 00       		.byte	0
 3393 092e 22       		.uleb128 0x22
 3394 092f C6050000 		.4byte	.LASF159
 3395 0933 04       		.byte	0x4
 3396 0934 5A01     		.2byte	0x15a
 3397 0936 00000000 		.4byte	.LFB167
 3398 093a 10000000 		.4byte	.LFE167-.LFB167
ARM GAS  /tmp/ccZb7D2c.s 			page 125


 3399 093e 01       		.uleb128 0x1
 3400 093f 9C       		.byte	0x9c
 3401 0940 23       		.uleb128 0x23
 3402 0941 26070000 		.4byte	.LASF136
 3403 0945 04       		.byte	0x4
 3404 0946 6601     		.2byte	0x166
 3405 0948 00000000 		.4byte	.LFB168
 3406 094c 4E000000 		.4byte	.LFE168-.LFB168
 3407 0950 01       		.uleb128 0x1
 3408 0951 9C       		.byte	0x9c
 3409 0952 66090000 		.4byte	0x966
 3410 0956 24       		.uleb128 0x24
 3411 0957 11050000 		.4byte	.LASF138
 3412 095b 76090000 		.4byte	0x976
 3413 095f 05       		.uleb128 0x5
 3414 0960 03       		.byte	0x3
 3415 0961 00000000 		.4byte	__func__.5915
 3416 0965 00       		.byte	0
 3417 0966 14       		.uleb128 0x14
 3418 0967 70070000 		.4byte	0x770
 3419 096b 76090000 		.4byte	0x976
 3420 096f 15       		.uleb128 0x15
 3421 0970 A4040000 		.4byte	0x4a4
 3422 0974 0B       		.byte	0xb
 3423 0975 00       		.byte	0
 3424 0976 18       		.uleb128 0x18
 3425 0977 66090000 		.4byte	0x966
 3426 097b 25       		.uleb128 0x25
 3427 097c 8A060000 		.4byte	.LASF137
 3428 0980 05       		.byte	0x5
 3429 0981 81       		.byte	0x81
 3430 0982 79080000 		.4byte	0x879
 3431 0986 00000000 		.4byte	.LFB214
 3432 098a 1C000000 		.4byte	.LFE214-.LFB214
 3433 098e 01       		.uleb128 0x1
 3434 098f 9C       		.byte	0x9c
 3435 0990 A2090000 		.4byte	0x9a2
 3436 0994 26       		.uleb128 0x26
 3437 0995 6D7000   		.ascii	"mp\000"
 3438 0998 05       		.byte	0x5
 3439 0999 81       		.byte	0x81
 3440 099a A3070000 		.4byte	0x7a3
 3441 099e 02       		.uleb128 0x2
 3442 099f 91       		.byte	0x91
 3443 09a0 74       		.sleb128 -12
 3444 09a1 00       		.byte	0
 3445 09a2 27       		.uleb128 0x27
 3446 09a3 50050000 		.4byte	.LASF140
 3447 09a7 06       		.byte	0x6
 3448 09a8 67       		.byte	0x67
 3449 09a9 00000000 		.4byte	.LFB241
 3450 09ad 2C000000 		.4byte	.LFE241-.LFB241
 3451 09b1 01       		.uleb128 0x1
 3452 09b2 9C       		.byte	0x9c
 3453 09b3 D4090000 		.4byte	0x9d4
 3454 09b7 26       		.uleb128 0x26
 3455 09b8 6D7000   		.ascii	"mp\000"
ARM GAS  /tmp/ccZb7D2c.s 			page 126


 3456 09bb 06       		.byte	0x6
 3457 09bc 67       		.byte	0x67
 3458 09bd A3070000 		.4byte	0x7a3
 3459 09c1 02       		.uleb128 0x2
 3460 09c2 91       		.byte	0x91
 3461 09c3 74       		.sleb128 -12
 3462 09c4 24       		.uleb128 0x24
 3463 09c5 22000000 		.4byte	.LASF139
 3464 09c9 E4090000 		.4byte	0x9e4
 3465 09cd 05       		.uleb128 0x5
 3466 09ce 03       		.byte	0x3
 3467 09cf 00000000 		.4byte	__func__.6613
 3468 09d3 00       		.byte	0
 3469 09d4 14       		.uleb128 0x14
 3470 09d5 70070000 		.4byte	0x770
 3471 09d9 E4090000 		.4byte	0x9e4
 3472 09dd 15       		.uleb128 0x15
 3473 09de A4040000 		.4byte	0x4a4
 3474 09e2 0F       		.byte	0xf
 3475 09e3 00       		.byte	0
 3476 09e4 18       		.uleb128 0x18
 3477 09e5 D4090000 		.4byte	0x9d4
 3478 09e9 27       		.uleb128 0x27
 3479 09ea B2040000 		.4byte	.LASF141
 3480 09ee 06       		.byte	0x6
 3481 09ef 7B       		.byte	0x7b
 3482 09f0 00000000 		.4byte	.LFB242
 3483 09f4 1A000000 		.4byte	.LFE242-.LFB242
 3484 09f8 01       		.uleb128 0x1
 3485 09f9 9C       		.byte	0x9c
 3486 09fa 0C0A0000 		.4byte	0xa0c
 3487 09fe 26       		.uleb128 0x26
 3488 09ff 6D7000   		.ascii	"mp\000"
 3489 0a02 06       		.byte	0x6
 3490 0a03 7B       		.byte	0x7b
 3491 0a04 A3070000 		.4byte	0x7a3
 3492 0a08 02       		.uleb128 0x2
 3493 0a09 91       		.byte	0x91
 3494 0a0a 74       		.sleb128 -12
 3495 0a0b 00       		.byte	0
 3496 0a0c 27       		.uleb128 0x27
 3497 0a0d F4010000 		.4byte	.LASF142
 3498 0a11 06       		.byte	0x6
 3499 0a12 8B       		.byte	0x8b
 3500 0a13 00000000 		.4byte	.LFB243
 3501 0a17 0E010000 		.4byte	.LFE243-.LFB243
 3502 0a1b 01       		.uleb128 0x1
 3503 0a1c 9C       		.byte	0x9c
 3504 0a1d 630A0000 		.4byte	0xa63
 3505 0a21 26       		.uleb128 0x26
 3506 0a22 6D7000   		.ascii	"mp\000"
 3507 0a25 06       		.byte	0x6
 3508 0a26 8B       		.byte	0x8b
 3509 0a27 A3070000 		.4byte	0x7a3
 3510 0a2b 02       		.uleb128 0x2
 3511 0a2c 91       		.byte	0x91
 3512 0a2d 6C       		.sleb128 -20
ARM GAS  /tmp/ccZb7D2c.s 			page 127


 3513 0a2e 28       		.uleb128 0x28
 3514 0a2f 63747000 		.ascii	"ctp\000"
 3515 0a33 06       		.byte	0x6
 3516 0a34 8C       		.byte	0x8c
 3517 0a35 58020000 		.4byte	0x258
 3518 0a39 02       		.uleb128 0x2
 3519 0a3a 91       		.byte	0x91
 3520 0a3b 70       		.sleb128 -16
 3521 0a3c 24       		.uleb128 0x24
 3522 0a3d 76010000 		.4byte	.LASF143
 3523 0a41 730A0000 		.4byte	0xa73
 3524 0a45 05       		.uleb128 0x5
 3525 0a46 03       		.byte	0x3
 3526 0a47 00000000 		.4byte	__func__.6621
 3527 0a4b 29       		.uleb128 0x29
 3528 0a4c 30000000 		.4byte	.LBB10
 3529 0a50 C0000000 		.4byte	.LBE10-.LBB10
 3530 0a54 28       		.uleb128 0x28
 3531 0a55 747000   		.ascii	"tp\000"
 3532 0a58 06       		.byte	0x6
 3533 0a59 A1       		.byte	0xa1
 3534 0a5a 58020000 		.4byte	0x258
 3535 0a5e 02       		.uleb128 0x2
 3536 0a5f 91       		.byte	0x91
 3537 0a60 74       		.sleb128 -12
 3538 0a61 00       		.byte	0
 3539 0a62 00       		.byte	0
 3540 0a63 14       		.uleb128 0x14
 3541 0a64 70070000 		.4byte	0x770
 3542 0a68 730A0000 		.4byte	0xa73
 3543 0a6c 15       		.uleb128 0x15
 3544 0a6d A4040000 		.4byte	0x4a4
 3545 0a71 0A       		.byte	0xa
 3546 0a72 00       		.byte	0
 3547 0a73 18       		.uleb128 0x18
 3548 0a74 630A0000 		.4byte	0xa63
 3549 0a78 2A       		.uleb128 0x2a
 3550 0a79 0E040000 		.4byte	.LASF144
 3551 0a7d 06       		.byte	0x6
 3552 0a7e FF       		.byte	0xff
 3553 0a7f 79080000 		.4byte	0x879
 3554 0a83 00000000 		.4byte	.LFB244
 3555 0a87 26000000 		.4byte	.LFE244-.LFB244
 3556 0a8b 01       		.uleb128 0x1
 3557 0a8c 9C       		.byte	0x9c
 3558 0a8d AC0A0000 		.4byte	0xaac
 3559 0a91 26       		.uleb128 0x26
 3560 0a92 6D7000   		.ascii	"mp\000"
 3561 0a95 06       		.byte	0x6
 3562 0a96 FF       		.byte	0xff
 3563 0a97 A3070000 		.4byte	0x7a3
 3564 0a9b 02       		.uleb128 0x2
 3565 0a9c 91       		.byte	0x91
 3566 0a9d 6C       		.sleb128 -20
 3567 0a9e 21       		.uleb128 0x21
 3568 0a9f 6200     		.ascii	"b\000"
 3569 0aa1 06       		.byte	0x6
ARM GAS  /tmp/ccZb7D2c.s 			page 128


 3570 0aa2 0001     		.2byte	0x100
 3571 0aa4 79080000 		.4byte	0x879
 3572 0aa8 02       		.uleb128 0x2
 3573 0aa9 91       		.byte	0x91
 3574 0aaa 77       		.sleb128 -9
 3575 0aab 00       		.byte	0
 3576 0aac 2B       		.uleb128 0x2b
 3577 0aad FF010000 		.4byte	.LASF145
 3578 0ab1 06       		.byte	0x6
 3579 0ab2 1A01     		.2byte	0x11a
 3580 0ab4 79080000 		.4byte	0x879
 3581 0ab8 00000000 		.4byte	.LFB245
 3582 0abc 5E000000 		.4byte	.LFE245-.LFB245
 3583 0ac0 01       		.uleb128 0x1
 3584 0ac1 9C       		.byte	0x9c
 3585 0ac2 E40A0000 		.4byte	0xae4
 3586 0ac6 1F       		.uleb128 0x1f
 3587 0ac7 6D7000   		.ascii	"mp\000"
 3588 0aca 06       		.byte	0x6
 3589 0acb 1A01     		.2byte	0x11a
 3590 0acd A3070000 		.4byte	0x7a3
 3591 0ad1 02       		.uleb128 0x2
 3592 0ad2 91       		.byte	0x91
 3593 0ad3 74       		.sleb128 -12
 3594 0ad4 24       		.uleb128 0x24
 3595 0ad5 4E020000 		.4byte	.LASF146
 3596 0ad9 F40A0000 		.4byte	0xaf4
 3597 0add 05       		.uleb128 0x5
 3598 0ade 03       		.byte	0x3
 3599 0adf 00000000 		.4byte	__func__.6638
 3600 0ae3 00       		.byte	0
 3601 0ae4 14       		.uleb128 0x14
 3602 0ae5 70070000 		.4byte	0x770
 3603 0ae9 F40A0000 		.4byte	0xaf4
 3604 0aed 15       		.uleb128 0x15
 3605 0aee A4040000 		.4byte	0x4a4
 3606 0af2 0D       		.byte	0xd
 3607 0af3 00       		.byte	0
 3608 0af4 18       		.uleb128 0x18
 3609 0af5 E40A0000 		.4byte	0xae4
 3610 0af9 2C       		.uleb128 0x2c
 3611 0afa 3F010000 		.4byte	.LASF147
 3612 0afe 06       		.byte	0x6
 3613 0aff 4301     		.2byte	0x143
 3614 0b01 00000000 		.4byte	.LFB246
 3615 0b05 F8000000 		.4byte	.LFE246-.LFB246
 3616 0b09 01       		.uleb128 0x1
 3617 0b0a 9C       		.byte	0x9c
 3618 0b0b 720B0000 		.4byte	0xb72
 3619 0b0f 1F       		.uleb128 0x1f
 3620 0b10 6D7000   		.ascii	"mp\000"
 3621 0b13 06       		.byte	0x6
 3622 0b14 4301     		.2byte	0x143
 3623 0b16 A3070000 		.4byte	0x7a3
 3624 0b1a 02       		.uleb128 0x2
 3625 0b1b 91       		.byte	0x91
 3626 0b1c 64       		.sleb128 -28
ARM GAS  /tmp/ccZb7D2c.s 			page 129


 3627 0b1d 21       		.uleb128 0x21
 3628 0b1e 63747000 		.ascii	"ctp\000"
 3629 0b22 06       		.byte	0x6
 3630 0b23 4401     		.2byte	0x144
 3631 0b25 58020000 		.4byte	0x258
 3632 0b29 02       		.uleb128 0x2
 3633 0b2a 91       		.byte	0x91
 3634 0b2b 6C       		.sleb128 -20
 3635 0b2c 21       		.uleb128 0x21
 3636 0b2d 6C6D7000 		.ascii	"lmp\000"
 3637 0b31 06       		.byte	0x6
 3638 0b32 4501     		.2byte	0x145
 3639 0b34 A3070000 		.4byte	0x7a3
 3640 0b38 02       		.uleb128 0x2
 3641 0b39 91       		.byte	0x91
 3642 0b3a 74       		.sleb128 -12
 3643 0b3b 24       		.uleb128 0x24
 3644 0b3c D3030000 		.4byte	.LASF148
 3645 0b40 720B0000 		.4byte	0xb72
 3646 0b44 05       		.uleb128 0x5
 3647 0b45 03       		.byte	0x3
 3648 0b46 00000000 		.4byte	__func__.6644
 3649 0b4a 29       		.uleb128 0x29
 3650 0b4b 7E000000 		.4byte	.LBB11
 3651 0b4f 68000000 		.4byte	.LBE11-.LBB11
 3652 0b53 21       		.uleb128 0x21
 3653 0b54 747000   		.ascii	"tp\000"
 3654 0b57 06       		.byte	0x6
 3655 0b58 5C01     		.2byte	0x15c
 3656 0b5a 58020000 		.4byte	0x258
 3657 0b5e 02       		.uleb128 0x2
 3658 0b5f 91       		.byte	0x91
 3659 0b60 68       		.sleb128 -24
 3660 0b61 2D       		.uleb128 0x2d
 3661 0b62 B8020000 		.4byte	.LASF149
 3662 0b66 06       		.byte	0x6
 3663 0b67 6001     		.2byte	0x160
 3664 0b69 FA000000 		.4byte	0xfa
 3665 0b6d 02       		.uleb128 0x2
 3666 0b6e 91       		.byte	0x91
 3667 0b6f 70       		.sleb128 -16
 3668 0b70 00       		.byte	0
 3669 0b71 00       		.byte	0
 3670 0b72 18       		.uleb128 0x18
 3671 0b73 66090000 		.4byte	0x966
 3672 0b77 2C       		.uleb128 0x2c
 3673 0b78 88020000 		.4byte	.LASF150
 3674 0b7c 06       		.byte	0x6
 3675 0b7d 9A01     		.2byte	0x19a
 3676 0b7f 00000000 		.4byte	.LFB247
 3677 0b83 F0000000 		.4byte	.LFE247-.LFB247
 3678 0b87 01       		.uleb128 0x1
 3679 0b88 9C       		.byte	0x9c
 3680 0b89 F00B0000 		.4byte	0xbf0
 3681 0b8d 1F       		.uleb128 0x1f
 3682 0b8e 6D7000   		.ascii	"mp\000"
 3683 0b91 06       		.byte	0x6
ARM GAS  /tmp/ccZb7D2c.s 			page 130


 3684 0b92 9A01     		.2byte	0x19a
 3685 0b94 A3070000 		.4byte	0x7a3
 3686 0b98 02       		.uleb128 0x2
 3687 0b99 91       		.byte	0x91
 3688 0b9a 64       		.sleb128 -28
 3689 0b9b 21       		.uleb128 0x21
 3690 0b9c 63747000 		.ascii	"ctp\000"
 3691 0ba0 06       		.byte	0x6
 3692 0ba1 9B01     		.2byte	0x19b
 3693 0ba3 58020000 		.4byte	0x258
 3694 0ba7 02       		.uleb128 0x2
 3695 0ba8 91       		.byte	0x91
 3696 0ba9 6C       		.sleb128 -20
 3697 0baa 21       		.uleb128 0x21
 3698 0bab 6C6D7000 		.ascii	"lmp\000"
 3699 0baf 06       		.byte	0x6
 3700 0bb0 9C01     		.2byte	0x19c
 3701 0bb2 A3070000 		.4byte	0x7a3
 3702 0bb6 02       		.uleb128 0x2
 3703 0bb7 91       		.byte	0x91
 3704 0bb8 74       		.sleb128 -12
 3705 0bb9 24       		.uleb128 0x24
 3706 0bba DB040000 		.4byte	.LASF151
 3707 0bbe 000C0000 		.4byte	0xc00
 3708 0bc2 05       		.uleb128 0x5
 3709 0bc3 03       		.byte	0x3
 3710 0bc4 00000000 		.4byte	__func__.6655
 3711 0bc8 29       		.uleb128 0x29
 3712 0bc9 7E000000 		.4byte	.LBB12
 3713 0bcd 64000000 		.4byte	.LBE12-.LBB12
 3714 0bd1 21       		.uleb128 0x21
 3715 0bd2 747000   		.ascii	"tp\000"
 3716 0bd5 06       		.byte	0x6
 3717 0bd6 B201     		.2byte	0x1b2
 3718 0bd8 58020000 		.4byte	0x258
 3719 0bdc 02       		.uleb128 0x2
 3720 0bdd 91       		.byte	0x91
 3721 0bde 68       		.sleb128 -24
 3722 0bdf 2D       		.uleb128 0x2d
 3723 0be0 B8020000 		.4byte	.LASF149
 3724 0be4 06       		.byte	0x6
 3725 0be5 B601     		.2byte	0x1b6
 3726 0be7 FA000000 		.4byte	0xfa
 3727 0beb 02       		.uleb128 0x2
 3728 0bec 91       		.byte	0x91
 3729 0bed 70       		.sleb128 -16
 3730 0bee 00       		.byte	0
 3731 0bef 00       		.byte	0
 3732 0bf0 14       		.uleb128 0x14
 3733 0bf1 70070000 		.4byte	0x770
 3734 0bf5 000C0000 		.4byte	0xc00
 3735 0bf9 15       		.uleb128 0x15
 3736 0bfa A4040000 		.4byte	0x4a4
 3737 0bfe 0C       		.byte	0xc
 3738 0bff 00       		.byte	0
 3739 0c00 18       		.uleb128 0x18
 3740 0c01 F00B0000 		.4byte	0xbf0
ARM GAS  /tmp/ccZb7D2c.s 			page 131


 3741 0c05 2C       		.uleb128 0x2c
 3742 0c06 21030000 		.4byte	.LASF152
 3743 0c0a 06       		.byte	0x6
 3744 0c0b E501     		.2byte	0x1e5
 3745 0c0d 00000000 		.4byte	.LFB248
 3746 0c11 80000000 		.4byte	.LFE248-.LFB248
 3747 0c15 01       		.uleb128 0x1
 3748 0c16 9C       		.byte	0x9c
 3749 0c17 5B0C0000 		.4byte	0xc5b
 3750 0c1b 21       		.uleb128 0x21
 3751 0c1c 63747000 		.ascii	"ctp\000"
 3752 0c20 06       		.byte	0x6
 3753 0c21 E601     		.2byte	0x1e6
 3754 0c23 58020000 		.4byte	0x258
 3755 0c27 02       		.uleb128 0x2
 3756 0c28 91       		.byte	0x91
 3757 0c29 74       		.sleb128 -12
 3758 0c2a 29       		.uleb128 0x29
 3759 0c2b 1C000000 		.4byte	.LBB13
 3760 0c2f 46000000 		.4byte	.LBE13-.LBB13
 3761 0c33 21       		.uleb128 0x21
 3762 0c34 6D7000   		.ascii	"mp\000"
 3763 0c37 06       		.byte	0x6
 3764 0c38 EB01     		.2byte	0x1eb
 3765 0c3a A3070000 		.4byte	0x7a3
 3766 0c3e 02       		.uleb128 0x2
 3767 0c3f 91       		.byte	0x91
 3768 0c40 70       		.sleb128 -16
 3769 0c41 29       		.uleb128 0x29
 3770 0c42 36000000 		.4byte	.LBB14
 3771 0c46 24000000 		.4byte	.LBE14-.LBB14
 3772 0c4a 21       		.uleb128 0x21
 3773 0c4b 747000   		.ascii	"tp\000"
 3774 0c4e 06       		.byte	0x6
 3775 0c4f F101     		.2byte	0x1f1
 3776 0c51 58020000 		.4byte	0x258
 3777 0c55 02       		.uleb128 0x2
 3778 0c56 91       		.byte	0x91
 3779 0c57 6C       		.sleb128 -20
 3780 0c58 00       		.byte	0
 3781 0c59 00       		.byte	0
 3782 0c5a 00       		.byte	0
 3783 0c5b 2E       		.uleb128 0x2e
 3784 0c5c 22010000 		.4byte	.LASF153
 3785 0c60 10       		.byte	0x10
 3786 0c61 FA06     		.2byte	0x6fa
 3787 0c63 670C0000 		.4byte	0xc67
 3788 0c67 19       		.uleb128 0x19
 3789 0c68 A2000000 		.4byte	0xa2
 3790 0c6c 2F       		.uleb128 0x2f
 3791 0c6d 636800   		.ascii	"ch\000"
 3792 0c70 03       		.byte	0x3
 3793 0c71 0902     		.2byte	0x209
 3794 0c73 2C040000 		.4byte	0x42c
 3795 0c77 00       		.byte	0
 3796              		.section	.debug_abbrev,"",%progbits
 3797              	.Ldebug_abbrev0:
ARM GAS  /tmp/ccZb7D2c.s 			page 132


 3798 0000 01       		.uleb128 0x1
 3799 0001 11       		.uleb128 0x11
 3800 0002 01       		.byte	0x1
 3801 0003 25       		.uleb128 0x25
 3802 0004 0E       		.uleb128 0xe
 3803 0005 13       		.uleb128 0x13
 3804 0006 0B       		.uleb128 0xb
 3805 0007 03       		.uleb128 0x3
 3806 0008 0E       		.uleb128 0xe
 3807 0009 1B       		.uleb128 0x1b
 3808 000a 0E       		.uleb128 0xe
 3809 000b 55       		.uleb128 0x55
 3810 000c 17       		.uleb128 0x17
 3811 000d 11       		.uleb128 0x11
 3812 000e 01       		.uleb128 0x1
 3813 000f 10       		.uleb128 0x10
 3814 0010 17       		.uleb128 0x17
 3815 0011 00       		.byte	0
 3816 0012 00       		.byte	0
 3817 0013 02       		.uleb128 0x2
 3818 0014 24       		.uleb128 0x24
 3819 0015 00       		.byte	0
 3820 0016 0B       		.uleb128 0xb
 3821 0017 0B       		.uleb128 0xb
 3822 0018 3E       		.uleb128 0x3e
 3823 0019 0B       		.uleb128 0xb
 3824 001a 03       		.uleb128 0x3
 3825 001b 08       		.uleb128 0x8
 3826 001c 00       		.byte	0
 3827 001d 00       		.byte	0
 3828 001e 03       		.uleb128 0x3
 3829 001f 24       		.uleb128 0x24
 3830 0020 00       		.byte	0
 3831 0021 0B       		.uleb128 0xb
 3832 0022 0B       		.uleb128 0xb
 3833 0023 3E       		.uleb128 0x3e
 3834 0024 0B       		.uleb128 0xb
 3835 0025 03       		.uleb128 0x3
 3836 0026 0E       		.uleb128 0xe
 3837 0027 00       		.byte	0
 3838 0028 00       		.byte	0
 3839 0029 04       		.uleb128 0x4
 3840 002a 16       		.uleb128 0x16
 3841 002b 00       		.byte	0
 3842 002c 03       		.uleb128 0x3
 3843 002d 0E       		.uleb128 0xe
 3844 002e 3A       		.uleb128 0x3a
 3845 002f 0B       		.uleb128 0xb
 3846 0030 3B       		.uleb128 0x3b
 3847 0031 0B       		.uleb128 0xb
 3848 0032 49       		.uleb128 0x49
 3849 0033 13       		.uleb128 0x13
 3850 0034 00       		.byte	0
 3851 0035 00       		.byte	0
 3852 0036 05       		.uleb128 0x5
 3853 0037 13       		.uleb128 0x13
 3854 0038 01       		.byte	0x1
ARM GAS  /tmp/ccZb7D2c.s 			page 133


 3855 0039 03       		.uleb128 0x3
 3856 003a 0E       		.uleb128 0xe
 3857 003b 0B       		.uleb128 0xb
 3858 003c 0B       		.uleb128 0xb
 3859 003d 3A       		.uleb128 0x3a
 3860 003e 0B       		.uleb128 0xb
 3861 003f 3B       		.uleb128 0x3b
 3862 0040 0B       		.uleb128 0xb
 3863 0041 01       		.uleb128 0x1
 3864 0042 13       		.uleb128 0x13
 3865 0043 00       		.byte	0
 3866 0044 00       		.byte	0
 3867 0045 06       		.uleb128 0x6
 3868 0046 0D       		.uleb128 0xd
 3869 0047 00       		.byte	0
 3870 0048 03       		.uleb128 0x3
 3871 0049 0E       		.uleb128 0xe
 3872 004a 3A       		.uleb128 0x3a
 3873 004b 0B       		.uleb128 0xb
 3874 004c 3B       		.uleb128 0x3b
 3875 004d 0B       		.uleb128 0xb
 3876 004e 49       		.uleb128 0x49
 3877 004f 13       		.uleb128 0x13
 3878 0050 38       		.uleb128 0x38
 3879 0051 0B       		.uleb128 0xb
 3880 0052 00       		.byte	0
 3881 0053 00       		.byte	0
 3882 0054 07       		.uleb128 0x7
 3883 0055 0D       		.uleb128 0xd
 3884 0056 00       		.byte	0
 3885 0057 03       		.uleb128 0x3
 3886 0058 08       		.uleb128 0x8
 3887 0059 3A       		.uleb128 0x3a
 3888 005a 0B       		.uleb128 0xb
 3889 005b 3B       		.uleb128 0x3b
 3890 005c 05       		.uleb128 0x5
 3891 005d 49       		.uleb128 0x49
 3892 005e 13       		.uleb128 0x13
 3893 005f 38       		.uleb128 0x38
 3894 0060 0B       		.uleb128 0xb
 3895 0061 00       		.byte	0
 3896 0062 00       		.byte	0
 3897 0063 08       		.uleb128 0x8
 3898 0064 0D       		.uleb128 0xd
 3899 0065 00       		.byte	0
 3900 0066 03       		.uleb128 0x3
 3901 0067 0E       		.uleb128 0xe
 3902 0068 3A       		.uleb128 0x3a
 3903 0069 0B       		.uleb128 0xb
 3904 006a 3B       		.uleb128 0x3b
 3905 006b 05       		.uleb128 0x5
 3906 006c 49       		.uleb128 0x49
 3907 006d 13       		.uleb128 0x13
 3908 006e 38       		.uleb128 0x38
 3909 006f 0B       		.uleb128 0xb
 3910 0070 00       		.byte	0
 3911 0071 00       		.byte	0
ARM GAS  /tmp/ccZb7D2c.s 			page 134


 3912 0072 09       		.uleb128 0x9
 3913 0073 0F       		.uleb128 0xf
 3914 0074 00       		.byte	0
 3915 0075 0B       		.uleb128 0xb
 3916 0076 0B       		.uleb128 0xb
 3917 0077 49       		.uleb128 0x49
 3918 0078 13       		.uleb128 0x13
 3919 0079 00       		.byte	0
 3920 007a 00       		.byte	0
 3921 007b 0A       		.uleb128 0xa
 3922 007c 13       		.uleb128 0x13
 3923 007d 01       		.byte	0x1
 3924 007e 03       		.uleb128 0x3
 3925 007f 0E       		.uleb128 0xe
 3926 0080 0B       		.uleb128 0xb
 3927 0081 0B       		.uleb128 0xb
 3928 0082 3A       		.uleb128 0x3a
 3929 0083 0B       		.uleb128 0xb
 3930 0084 3B       		.uleb128 0x3b
 3931 0085 05       		.uleb128 0x5
 3932 0086 01       		.uleb128 0x1
 3933 0087 13       		.uleb128 0x13
 3934 0088 00       		.byte	0
 3935 0089 00       		.byte	0
 3936 008a 0B       		.uleb128 0xb
 3937 008b 15       		.uleb128 0x15
 3938 008c 01       		.byte	0x1
 3939 008d 27       		.uleb128 0x27
 3940 008e 19       		.uleb128 0x19
 3941 008f 01       		.uleb128 0x1
 3942 0090 13       		.uleb128 0x13
 3943 0091 00       		.byte	0
 3944 0092 00       		.byte	0
 3945 0093 0C       		.uleb128 0xc
 3946 0094 05       		.uleb128 0x5
 3947 0095 00       		.byte	0
 3948 0096 49       		.uleb128 0x49
 3949 0097 13       		.uleb128 0x13
 3950 0098 00       		.byte	0
 3951 0099 00       		.byte	0
 3952 009a 0D       		.uleb128 0xd
 3953 009b 0F       		.uleb128 0xf
 3954 009c 00       		.byte	0
 3955 009d 0B       		.uleb128 0xb
 3956 009e 0B       		.uleb128 0xb
 3957 009f 00       		.byte	0
 3958 00a0 00       		.byte	0
 3959 00a1 0E       		.uleb128 0xe
 3960 00a2 13       		.uleb128 0x13
 3961 00a3 01       		.byte	0x1
 3962 00a4 03       		.uleb128 0x3
 3963 00a5 0E       		.uleb128 0xe
 3964 00a6 0B       		.uleb128 0xb
 3965 00a7 05       		.uleb128 0x5
 3966 00a8 3A       		.uleb128 0x3a
 3967 00a9 0B       		.uleb128 0xb
 3968 00aa 3B       		.uleb128 0x3b
ARM GAS  /tmp/ccZb7D2c.s 			page 135


 3969 00ab 05       		.uleb128 0x5
 3970 00ac 01       		.uleb128 0x1
 3971 00ad 13       		.uleb128 0x13
 3972 00ae 00       		.byte	0
 3973 00af 00       		.byte	0
 3974 00b0 0F       		.uleb128 0xf
 3975 00b1 0D       		.uleb128 0xd
 3976 00b2 00       		.byte	0
 3977 00b3 03       		.uleb128 0x3
 3978 00b4 0E       		.uleb128 0xe
 3979 00b5 3A       		.uleb128 0x3a
 3980 00b6 0B       		.uleb128 0xb
 3981 00b7 3B       		.uleb128 0x3b
 3982 00b8 05       		.uleb128 0x5
 3983 00b9 49       		.uleb128 0x49
 3984 00ba 13       		.uleb128 0x13
 3985 00bb 38       		.uleb128 0x38
 3986 00bc 05       		.uleb128 0x5
 3987 00bd 00       		.byte	0
 3988 00be 00       		.byte	0
 3989 00bf 10       		.uleb128 0x10
 3990 00c0 0D       		.uleb128 0xd
 3991 00c1 00       		.byte	0
 3992 00c2 03       		.uleb128 0x3
 3993 00c3 08       		.uleb128 0x8
 3994 00c4 3A       		.uleb128 0x3a
 3995 00c5 0B       		.uleb128 0xb
 3996 00c6 3B       		.uleb128 0x3b
 3997 00c7 05       		.uleb128 0x5
 3998 00c8 49       		.uleb128 0x49
 3999 00c9 13       		.uleb128 0x13
 4000 00ca 38       		.uleb128 0x38
 4001 00cb 05       		.uleb128 0x5
 4002 00cc 00       		.byte	0
 4003 00cd 00       		.byte	0
 4004 00ce 11       		.uleb128 0x11
 4005 00cf 0D       		.uleb128 0xd
 4006 00d0 00       		.byte	0
 4007 00d1 03       		.uleb128 0x3
 4008 00d2 08       		.uleb128 0x8
 4009 00d3 3A       		.uleb128 0x3a
 4010 00d4 0B       		.uleb128 0xb
 4011 00d5 3B       		.uleb128 0x3b
 4012 00d6 0B       		.uleb128 0xb
 4013 00d7 49       		.uleb128 0x49
 4014 00d8 13       		.uleb128 0x13
 4015 00d9 38       		.uleb128 0x38
 4016 00da 0B       		.uleb128 0xb
 4017 00db 00       		.byte	0
 4018 00dc 00       		.byte	0
 4019 00dd 12       		.uleb128 0x12
 4020 00de 13       		.uleb128 0x13
 4021 00df 01       		.byte	0x1
 4022 00e0 0B       		.uleb128 0xb
 4023 00e1 0B       		.uleb128 0xb
 4024 00e2 3A       		.uleb128 0x3a
 4025 00e3 0B       		.uleb128 0xb
ARM GAS  /tmp/ccZb7D2c.s 			page 136


 4026 00e4 3B       		.uleb128 0x3b
 4027 00e5 0B       		.uleb128 0xb
 4028 00e6 01       		.uleb128 0x1
 4029 00e7 13       		.uleb128 0x13
 4030 00e8 00       		.byte	0
 4031 00e9 00       		.byte	0
 4032 00ea 13       		.uleb128 0x13
 4033 00eb 13       		.uleb128 0x13
 4034 00ec 01       		.byte	0x1
 4035 00ed 0B       		.uleb128 0xb
 4036 00ee 05       		.uleb128 0x5
 4037 00ef 3A       		.uleb128 0x3a
 4038 00f0 0B       		.uleb128 0xb
 4039 00f1 3B       		.uleb128 0x3b
 4040 00f2 0B       		.uleb128 0xb
 4041 00f3 01       		.uleb128 0x1
 4042 00f4 13       		.uleb128 0x13
 4043 00f5 00       		.byte	0
 4044 00f6 00       		.byte	0
 4045 00f7 14       		.uleb128 0x14
 4046 00f8 01       		.uleb128 0x1
 4047 00f9 01       		.byte	0x1
 4048 00fa 49       		.uleb128 0x49
 4049 00fb 13       		.uleb128 0x13
 4050 00fc 01       		.uleb128 0x1
 4051 00fd 13       		.uleb128 0x13
 4052 00fe 00       		.byte	0
 4053 00ff 00       		.byte	0
 4054 0100 15       		.uleb128 0x15
 4055 0101 21       		.uleb128 0x21
 4056 0102 00       		.byte	0
 4057 0103 49       		.uleb128 0x49
 4058 0104 13       		.uleb128 0x13
 4059 0105 2F       		.uleb128 0x2f
 4060 0106 0B       		.uleb128 0xb
 4061 0107 00       		.byte	0
 4062 0108 00       		.byte	0
 4063 0109 16       		.uleb128 0x16
 4064 010a 17       		.uleb128 0x17
 4065 010b 01       		.byte	0x1
 4066 010c 0B       		.uleb128 0xb
 4067 010d 0B       		.uleb128 0xb
 4068 010e 3A       		.uleb128 0x3a
 4069 010f 0B       		.uleb128 0xb
 4070 0110 3B       		.uleb128 0x3b
 4071 0111 0B       		.uleb128 0xb
 4072 0112 01       		.uleb128 0x1
 4073 0113 13       		.uleb128 0x13
 4074 0114 00       		.byte	0
 4075 0115 00       		.byte	0
 4076 0116 17       		.uleb128 0x17
 4077 0117 0D       		.uleb128 0xd
 4078 0118 00       		.byte	0
 4079 0119 03       		.uleb128 0x3
 4080 011a 0E       		.uleb128 0xe
 4081 011b 3A       		.uleb128 0x3a
 4082 011c 0B       		.uleb128 0xb
ARM GAS  /tmp/ccZb7D2c.s 			page 137


 4083 011d 3B       		.uleb128 0x3b
 4084 011e 05       		.uleb128 0x5
 4085 011f 49       		.uleb128 0x49
 4086 0120 13       		.uleb128 0x13
 4087 0121 00       		.byte	0
 4088 0122 00       		.byte	0
 4089 0123 18       		.uleb128 0x18
 4090 0124 26       		.uleb128 0x26
 4091 0125 00       		.byte	0
 4092 0126 49       		.uleb128 0x49
 4093 0127 13       		.uleb128 0x13
 4094 0128 00       		.byte	0
 4095 0129 00       		.byte	0
 4096 012a 19       		.uleb128 0x19
 4097 012b 35       		.uleb128 0x35
 4098 012c 00       		.byte	0
 4099 012d 49       		.uleb128 0x49
 4100 012e 13       		.uleb128 0x13
 4101 012f 00       		.byte	0
 4102 0130 00       		.byte	0
 4103 0131 1A       		.uleb128 0x1a
 4104 0132 2E       		.uleb128 0x2e
 4105 0133 01       		.byte	0x1
 4106 0134 03       		.uleb128 0x3
 4107 0135 0E       		.uleb128 0xe
 4108 0136 3A       		.uleb128 0x3a
 4109 0137 0B       		.uleb128 0xb
 4110 0138 3B       		.uleb128 0x3b
 4111 0139 05       		.uleb128 0x5
 4112 013a 27       		.uleb128 0x27
 4113 013b 19       		.uleb128 0x19
 4114 013c 20       		.uleb128 0x20
 4115 013d 0B       		.uleb128 0xb
 4116 013e 01       		.uleb128 0x1
 4117 013f 13       		.uleb128 0x13
 4118 0140 00       		.byte	0
 4119 0141 00       		.byte	0
 4120 0142 1B       		.uleb128 0x1b
 4121 0143 05       		.uleb128 0x5
 4122 0144 00       		.byte	0
 4123 0145 03       		.uleb128 0x3
 4124 0146 0E       		.uleb128 0xe
 4125 0147 3A       		.uleb128 0x3a
 4126 0148 0B       		.uleb128 0xb
 4127 0149 3B       		.uleb128 0x3b
 4128 014a 05       		.uleb128 0x5
 4129 014b 49       		.uleb128 0x49
 4130 014c 13       		.uleb128 0x13
 4131 014d 00       		.byte	0
 4132 014e 00       		.byte	0
 4133 014f 1C       		.uleb128 0x1c
 4134 0150 2E       		.uleb128 0x2e
 4135 0151 01       		.byte	0x1
 4136 0152 03       		.uleb128 0x3
 4137 0153 0E       		.uleb128 0xe
 4138 0154 3A       		.uleb128 0x3a
 4139 0155 0B       		.uleb128 0xb
ARM GAS  /tmp/ccZb7D2c.s 			page 138


 4140 0156 3B       		.uleb128 0x3b
 4141 0157 05       		.uleb128 0x5
 4142 0158 27       		.uleb128 0x27
 4143 0159 19       		.uleb128 0x19
 4144 015a 11       		.uleb128 0x11
 4145 015b 01       		.uleb128 0x1
 4146 015c 12       		.uleb128 0x12
 4147 015d 06       		.uleb128 0x6
 4148 015e 40       		.uleb128 0x40
 4149 015f 18       		.uleb128 0x18
 4150 0160 9742     		.uleb128 0x2117
 4151 0162 19       		.uleb128 0x19
 4152 0163 01       		.uleb128 0x1
 4153 0164 13       		.uleb128 0x13
 4154 0165 00       		.byte	0
 4155 0166 00       		.byte	0
 4156 0167 1D       		.uleb128 0x1d
 4157 0168 1D       		.uleb128 0x1d
 4158 0169 01       		.byte	0x1
 4159 016a 31       		.uleb128 0x31
 4160 016b 13       		.uleb128 0x13
 4161 016c 11       		.uleb128 0x11
 4162 016d 01       		.uleb128 0x1
 4163 016e 12       		.uleb128 0x12
 4164 016f 06       		.uleb128 0x6
 4165 0170 58       		.uleb128 0x58
 4166 0171 0B       		.uleb128 0xb
 4167 0172 59       		.uleb128 0x59
 4168 0173 05       		.uleb128 0x5
 4169 0174 00       		.byte	0
 4170 0175 00       		.byte	0
 4171 0176 1E       		.uleb128 0x1e
 4172 0177 05       		.uleb128 0x5
 4173 0178 00       		.byte	0
 4174 0179 31       		.uleb128 0x31
 4175 017a 13       		.uleb128 0x13
 4176 017b 02       		.uleb128 0x2
 4177 017c 18       		.uleb128 0x18
 4178 017d 00       		.byte	0
 4179 017e 00       		.byte	0
 4180 017f 1F       		.uleb128 0x1f
 4181 0180 05       		.uleb128 0x5
 4182 0181 00       		.byte	0
 4183 0182 03       		.uleb128 0x3
 4184 0183 08       		.uleb128 0x8
 4185 0184 3A       		.uleb128 0x3a
 4186 0185 0B       		.uleb128 0xb
 4187 0186 3B       		.uleb128 0x3b
 4188 0187 05       		.uleb128 0x5
 4189 0188 49       		.uleb128 0x49
 4190 0189 13       		.uleb128 0x13
 4191 018a 02       		.uleb128 0x2
 4192 018b 18       		.uleb128 0x18
 4193 018c 00       		.byte	0
 4194 018d 00       		.byte	0
 4195 018e 20       		.uleb128 0x20
 4196 018f 2E       		.uleb128 0x2e
ARM GAS  /tmp/ccZb7D2c.s 			page 139


 4197 0190 01       		.byte	0x1
 4198 0191 03       		.uleb128 0x3
 4199 0192 0E       		.uleb128 0xe
 4200 0193 3A       		.uleb128 0x3a
 4201 0194 0B       		.uleb128 0xb
 4202 0195 3B       		.uleb128 0x3b
 4203 0196 05       		.uleb128 0x5
 4204 0197 27       		.uleb128 0x27
 4205 0198 19       		.uleb128 0x19
 4206 0199 49       		.uleb128 0x49
 4207 019a 13       		.uleb128 0x13
 4208 019b 11       		.uleb128 0x11
 4209 019c 01       		.uleb128 0x1
 4210 019d 12       		.uleb128 0x12
 4211 019e 06       		.uleb128 0x6
 4212 019f 40       		.uleb128 0x40
 4213 01a0 18       		.uleb128 0x18
 4214 01a1 9742     		.uleb128 0x2117
 4215 01a3 19       		.uleb128 0x19
 4216 01a4 01       		.uleb128 0x1
 4217 01a5 13       		.uleb128 0x13
 4218 01a6 00       		.byte	0
 4219 01a7 00       		.byte	0
 4220 01a8 21       		.uleb128 0x21
 4221 01a9 34       		.uleb128 0x34
 4222 01aa 00       		.byte	0
 4223 01ab 03       		.uleb128 0x3
 4224 01ac 08       		.uleb128 0x8
 4225 01ad 3A       		.uleb128 0x3a
 4226 01ae 0B       		.uleb128 0xb
 4227 01af 3B       		.uleb128 0x3b
 4228 01b0 05       		.uleb128 0x5
 4229 01b1 49       		.uleb128 0x49
 4230 01b2 13       		.uleb128 0x13
 4231 01b3 02       		.uleb128 0x2
 4232 01b4 18       		.uleb128 0x18
 4233 01b5 00       		.byte	0
 4234 01b6 00       		.byte	0
 4235 01b7 22       		.uleb128 0x22
 4236 01b8 2E       		.uleb128 0x2e
 4237 01b9 00       		.byte	0
 4238 01ba 03       		.uleb128 0x3
 4239 01bb 0E       		.uleb128 0xe
 4240 01bc 3A       		.uleb128 0x3a
 4241 01bd 0B       		.uleb128 0xb
 4242 01be 3B       		.uleb128 0x3b
 4243 01bf 05       		.uleb128 0x5
 4244 01c0 27       		.uleb128 0x27
 4245 01c1 19       		.uleb128 0x19
 4246 01c2 11       		.uleb128 0x11
 4247 01c3 01       		.uleb128 0x1
 4248 01c4 12       		.uleb128 0x12
 4249 01c5 06       		.uleb128 0x6
 4250 01c6 40       		.uleb128 0x40
 4251 01c7 18       		.uleb128 0x18
 4252 01c8 9642     		.uleb128 0x2116
 4253 01ca 19       		.uleb128 0x19
ARM GAS  /tmp/ccZb7D2c.s 			page 140


 4254 01cb 00       		.byte	0
 4255 01cc 00       		.byte	0
 4256 01cd 23       		.uleb128 0x23
 4257 01ce 2E       		.uleb128 0x2e
 4258 01cf 01       		.byte	0x1
 4259 01d0 03       		.uleb128 0x3
 4260 01d1 0E       		.uleb128 0xe
 4261 01d2 3A       		.uleb128 0x3a
 4262 01d3 0B       		.uleb128 0xb
 4263 01d4 3B       		.uleb128 0x3b
 4264 01d5 05       		.uleb128 0x5
 4265 01d6 27       		.uleb128 0x27
 4266 01d7 19       		.uleb128 0x19
 4267 01d8 11       		.uleb128 0x11
 4268 01d9 01       		.uleb128 0x1
 4269 01da 12       		.uleb128 0x12
 4270 01db 06       		.uleb128 0x6
 4271 01dc 40       		.uleb128 0x40
 4272 01dd 18       		.uleb128 0x18
 4273 01de 9642     		.uleb128 0x2116
 4274 01e0 19       		.uleb128 0x19
 4275 01e1 01       		.uleb128 0x1
 4276 01e2 13       		.uleb128 0x13
 4277 01e3 00       		.byte	0
 4278 01e4 00       		.byte	0
 4279 01e5 24       		.uleb128 0x24
 4280 01e6 34       		.uleb128 0x34
 4281 01e7 00       		.byte	0
 4282 01e8 03       		.uleb128 0x3
 4283 01e9 0E       		.uleb128 0xe
 4284 01ea 49       		.uleb128 0x49
 4285 01eb 13       		.uleb128 0x13
 4286 01ec 34       		.uleb128 0x34
 4287 01ed 19       		.uleb128 0x19
 4288 01ee 02       		.uleb128 0x2
 4289 01ef 18       		.uleb128 0x18
 4290 01f0 00       		.byte	0
 4291 01f1 00       		.byte	0
 4292 01f2 25       		.uleb128 0x25
 4293 01f3 2E       		.uleb128 0x2e
 4294 01f4 01       		.byte	0x1
 4295 01f5 03       		.uleb128 0x3
 4296 01f6 0E       		.uleb128 0xe
 4297 01f7 3A       		.uleb128 0x3a
 4298 01f8 0B       		.uleb128 0xb
 4299 01f9 3B       		.uleb128 0x3b
 4300 01fa 0B       		.uleb128 0xb
 4301 01fb 27       		.uleb128 0x27
 4302 01fc 19       		.uleb128 0x19
 4303 01fd 49       		.uleb128 0x49
 4304 01fe 13       		.uleb128 0x13
 4305 01ff 11       		.uleb128 0x11
 4306 0200 01       		.uleb128 0x1
 4307 0201 12       		.uleb128 0x12
 4308 0202 06       		.uleb128 0x6
 4309 0203 40       		.uleb128 0x40
 4310 0204 18       		.uleb128 0x18
ARM GAS  /tmp/ccZb7D2c.s 			page 141


 4311 0205 9642     		.uleb128 0x2116
 4312 0207 19       		.uleb128 0x19
 4313 0208 01       		.uleb128 0x1
 4314 0209 13       		.uleb128 0x13
 4315 020a 00       		.byte	0
 4316 020b 00       		.byte	0
 4317 020c 26       		.uleb128 0x26
 4318 020d 05       		.uleb128 0x5
 4319 020e 00       		.byte	0
 4320 020f 03       		.uleb128 0x3
 4321 0210 08       		.uleb128 0x8
 4322 0211 3A       		.uleb128 0x3a
 4323 0212 0B       		.uleb128 0xb
 4324 0213 3B       		.uleb128 0x3b
 4325 0214 0B       		.uleb128 0xb
 4326 0215 49       		.uleb128 0x49
 4327 0216 13       		.uleb128 0x13
 4328 0217 02       		.uleb128 0x2
 4329 0218 18       		.uleb128 0x18
 4330 0219 00       		.byte	0
 4331 021a 00       		.byte	0
 4332 021b 27       		.uleb128 0x27
 4333 021c 2E       		.uleb128 0x2e
 4334 021d 01       		.byte	0x1
 4335 021e 3F       		.uleb128 0x3f
 4336 021f 19       		.uleb128 0x19
 4337 0220 03       		.uleb128 0x3
 4338 0221 0E       		.uleb128 0xe
 4339 0222 3A       		.uleb128 0x3a
 4340 0223 0B       		.uleb128 0xb
 4341 0224 3B       		.uleb128 0x3b
 4342 0225 0B       		.uleb128 0xb
 4343 0226 27       		.uleb128 0x27
 4344 0227 19       		.uleb128 0x19
 4345 0228 11       		.uleb128 0x11
 4346 0229 01       		.uleb128 0x1
 4347 022a 12       		.uleb128 0x12
 4348 022b 06       		.uleb128 0x6
 4349 022c 40       		.uleb128 0x40
 4350 022d 18       		.uleb128 0x18
 4351 022e 9642     		.uleb128 0x2116
 4352 0230 19       		.uleb128 0x19
 4353 0231 01       		.uleb128 0x1
 4354 0232 13       		.uleb128 0x13
 4355 0233 00       		.byte	0
 4356 0234 00       		.byte	0
 4357 0235 28       		.uleb128 0x28
 4358 0236 34       		.uleb128 0x34
 4359 0237 00       		.byte	0
 4360 0238 03       		.uleb128 0x3
 4361 0239 08       		.uleb128 0x8
 4362 023a 3A       		.uleb128 0x3a
 4363 023b 0B       		.uleb128 0xb
 4364 023c 3B       		.uleb128 0x3b
 4365 023d 0B       		.uleb128 0xb
 4366 023e 49       		.uleb128 0x49
 4367 023f 13       		.uleb128 0x13
ARM GAS  /tmp/ccZb7D2c.s 			page 142


 4368 0240 02       		.uleb128 0x2
 4369 0241 18       		.uleb128 0x18
 4370 0242 00       		.byte	0
 4371 0243 00       		.byte	0
 4372 0244 29       		.uleb128 0x29
 4373 0245 0B       		.uleb128 0xb
 4374 0246 01       		.byte	0x1
 4375 0247 11       		.uleb128 0x11
 4376 0248 01       		.uleb128 0x1
 4377 0249 12       		.uleb128 0x12
 4378 024a 06       		.uleb128 0x6
 4379 024b 00       		.byte	0
 4380 024c 00       		.byte	0
 4381 024d 2A       		.uleb128 0x2a
 4382 024e 2E       		.uleb128 0x2e
 4383 024f 01       		.byte	0x1
 4384 0250 3F       		.uleb128 0x3f
 4385 0251 19       		.uleb128 0x19
 4386 0252 03       		.uleb128 0x3
 4387 0253 0E       		.uleb128 0xe
 4388 0254 3A       		.uleb128 0x3a
 4389 0255 0B       		.uleb128 0xb
 4390 0256 3B       		.uleb128 0x3b
 4391 0257 0B       		.uleb128 0xb
 4392 0258 27       		.uleb128 0x27
 4393 0259 19       		.uleb128 0x19
 4394 025a 49       		.uleb128 0x49
 4395 025b 13       		.uleb128 0x13
 4396 025c 11       		.uleb128 0x11
 4397 025d 01       		.uleb128 0x1
 4398 025e 12       		.uleb128 0x12
 4399 025f 06       		.uleb128 0x6
 4400 0260 40       		.uleb128 0x40
 4401 0261 18       		.uleb128 0x18
 4402 0262 9642     		.uleb128 0x2116
 4403 0264 19       		.uleb128 0x19
 4404 0265 01       		.uleb128 0x1
 4405 0266 13       		.uleb128 0x13
 4406 0267 00       		.byte	0
 4407 0268 00       		.byte	0
 4408 0269 2B       		.uleb128 0x2b
 4409 026a 2E       		.uleb128 0x2e
 4410 026b 01       		.byte	0x1
 4411 026c 3F       		.uleb128 0x3f
 4412 026d 19       		.uleb128 0x19
 4413 026e 03       		.uleb128 0x3
 4414 026f 0E       		.uleb128 0xe
 4415 0270 3A       		.uleb128 0x3a
 4416 0271 0B       		.uleb128 0xb
 4417 0272 3B       		.uleb128 0x3b
 4418 0273 05       		.uleb128 0x5
 4419 0274 27       		.uleb128 0x27
 4420 0275 19       		.uleb128 0x19
 4421 0276 49       		.uleb128 0x49
 4422 0277 13       		.uleb128 0x13
 4423 0278 11       		.uleb128 0x11
 4424 0279 01       		.uleb128 0x1
ARM GAS  /tmp/ccZb7D2c.s 			page 143


 4425 027a 12       		.uleb128 0x12
 4426 027b 06       		.uleb128 0x6
 4427 027c 40       		.uleb128 0x40
 4428 027d 18       		.uleb128 0x18
 4429 027e 9642     		.uleb128 0x2116
 4430 0280 19       		.uleb128 0x19
 4431 0281 01       		.uleb128 0x1
 4432 0282 13       		.uleb128 0x13
 4433 0283 00       		.byte	0
 4434 0284 00       		.byte	0
 4435 0285 2C       		.uleb128 0x2c
 4436 0286 2E       		.uleb128 0x2e
 4437 0287 01       		.byte	0x1
 4438 0288 3F       		.uleb128 0x3f
 4439 0289 19       		.uleb128 0x19
 4440 028a 03       		.uleb128 0x3
 4441 028b 0E       		.uleb128 0xe
 4442 028c 3A       		.uleb128 0x3a
 4443 028d 0B       		.uleb128 0xb
 4444 028e 3B       		.uleb128 0x3b
 4445 028f 05       		.uleb128 0x5
 4446 0290 27       		.uleb128 0x27
 4447 0291 19       		.uleb128 0x19
 4448 0292 11       		.uleb128 0x11
 4449 0293 01       		.uleb128 0x1
 4450 0294 12       		.uleb128 0x12
 4451 0295 06       		.uleb128 0x6
 4452 0296 40       		.uleb128 0x40
 4453 0297 18       		.uleb128 0x18
 4454 0298 9642     		.uleb128 0x2116
 4455 029a 19       		.uleb128 0x19
 4456 029b 01       		.uleb128 0x1
 4457 029c 13       		.uleb128 0x13
 4458 029d 00       		.byte	0
 4459 029e 00       		.byte	0
 4460 029f 2D       		.uleb128 0x2d
 4461 02a0 34       		.uleb128 0x34
 4462 02a1 00       		.byte	0
 4463 02a2 03       		.uleb128 0x3
 4464 02a3 0E       		.uleb128 0xe
 4465 02a4 3A       		.uleb128 0x3a
 4466 02a5 0B       		.uleb128 0xb
 4467 02a6 3B       		.uleb128 0x3b
 4468 02a7 05       		.uleb128 0x5
 4469 02a8 49       		.uleb128 0x49
 4470 02a9 13       		.uleb128 0x13
 4471 02aa 02       		.uleb128 0x2
 4472 02ab 18       		.uleb128 0x18
 4473 02ac 00       		.byte	0
 4474 02ad 00       		.byte	0
 4475 02ae 2E       		.uleb128 0x2e
 4476 02af 34       		.uleb128 0x34
 4477 02b0 00       		.byte	0
 4478 02b1 03       		.uleb128 0x3
 4479 02b2 0E       		.uleb128 0xe
 4480 02b3 3A       		.uleb128 0x3a
 4481 02b4 0B       		.uleb128 0xb
ARM GAS  /tmp/ccZb7D2c.s 			page 144


 4482 02b5 3B       		.uleb128 0x3b
 4483 02b6 05       		.uleb128 0x5
 4484 02b7 49       		.uleb128 0x49
 4485 02b8 13       		.uleb128 0x13
 4486 02b9 3F       		.uleb128 0x3f
 4487 02ba 19       		.uleb128 0x19
 4488 02bb 3C       		.uleb128 0x3c
 4489 02bc 19       		.uleb128 0x19
 4490 02bd 00       		.byte	0
 4491 02be 00       		.byte	0
 4492 02bf 2F       		.uleb128 0x2f
 4493 02c0 34       		.uleb128 0x34
 4494 02c1 00       		.byte	0
 4495 02c2 03       		.uleb128 0x3
 4496 02c3 08       		.uleb128 0x8
 4497 02c4 3A       		.uleb128 0x3a
 4498 02c5 0B       		.uleb128 0xb
 4499 02c6 3B       		.uleb128 0x3b
 4500 02c7 05       		.uleb128 0x5
 4501 02c8 49       		.uleb128 0x49
 4502 02c9 13       		.uleb128 0x13
 4503 02ca 3F       		.uleb128 0x3f
 4504 02cb 19       		.uleb128 0x19
 4505 02cc 3C       		.uleb128 0x3c
 4506 02cd 19       		.uleb128 0x19
 4507 02ce 00       		.byte	0
 4508 02cf 00       		.byte	0
 4509 02d0 00       		.byte	0
 4510              		.section	.debug_aranges,"",%progbits
 4511 0000 A4000000 		.4byte	0xa4
 4512 0004 0200     		.2byte	0x2
 4513 0006 00000000 		.4byte	.Ldebug_info0
 4514 000a 04       		.byte	0x4
 4515 000b 00       		.byte	0
 4516 000c 0000     		.2byte	0
 4517 000e 0000     		.2byte	0
 4518 0010 00000000 		.4byte	.LFB127
 4519 0014 10000000 		.4byte	.LFE127-.LFB127
 4520 0018 00000000 		.4byte	.LFB128
 4521 001c 10000000 		.4byte	.LFE128-.LFB128
 4522 0020 00000000 		.4byte	.LFB150
 4523 0024 14000000 		.4byte	.LFE150-.LFB150
 4524 0028 00000000 		.4byte	.LFB152
 4525 002c 1A000000 		.4byte	.LFE152-.LFB152
 4526 0030 00000000 		.4byte	.LFB155
 4527 0034 44000000 		.4byte	.LFE155-.LFB155
 4528 0038 00000000 		.4byte	.LFB157
 4529 003c 22000000 		.4byte	.LFE157-.LFB157
 4530 0040 00000000 		.4byte	.LFB159
 4531 0044 20000000 		.4byte	.LFE159-.LFB159
 4532 0048 00000000 		.4byte	.LFB167
 4533 004c 10000000 		.4byte	.LFE167-.LFB167
 4534 0050 00000000 		.4byte	.LFB168
 4535 0054 4E000000 		.4byte	.LFE168-.LFB168
 4536 0058 00000000 		.4byte	.LFB214
 4537 005c 1C000000 		.4byte	.LFE214-.LFB214
 4538 0060 00000000 		.4byte	.LFB241
ARM GAS  /tmp/ccZb7D2c.s 			page 145


 4539 0064 2C000000 		.4byte	.LFE241-.LFB241
 4540 0068 00000000 		.4byte	.LFB242
 4541 006c 1A000000 		.4byte	.LFE242-.LFB242
 4542 0070 00000000 		.4byte	.LFB243
 4543 0074 0E010000 		.4byte	.LFE243-.LFB243
 4544 0078 00000000 		.4byte	.LFB244
 4545 007c 26000000 		.4byte	.LFE244-.LFB244
 4546 0080 00000000 		.4byte	.LFB245
 4547 0084 5E000000 		.4byte	.LFE245-.LFB245
 4548 0088 00000000 		.4byte	.LFB246
 4549 008c F8000000 		.4byte	.LFE246-.LFB246
 4550 0090 00000000 		.4byte	.LFB247
 4551 0094 F0000000 		.4byte	.LFE247-.LFB247
 4552 0098 00000000 		.4byte	.LFB248
 4553 009c 80000000 		.4byte	.LFE248-.LFB248
 4554 00a0 00000000 		.4byte	0
 4555 00a4 00000000 		.4byte	0
 4556              		.section	.debug_ranges,"",%progbits
 4557              	.Ldebug_ranges0:
 4558 0000 00000000 		.4byte	.LFB127
 4559 0004 10000000 		.4byte	.LFE127
 4560 0008 00000000 		.4byte	.LFB128
 4561 000c 10000000 		.4byte	.LFE128
 4562 0010 00000000 		.4byte	.LFB150
 4563 0014 14000000 		.4byte	.LFE150
 4564 0018 00000000 		.4byte	.LFB152
 4565 001c 1A000000 		.4byte	.LFE152
 4566 0020 00000000 		.4byte	.LFB155
 4567 0024 44000000 		.4byte	.LFE155
 4568 0028 00000000 		.4byte	.LFB157
 4569 002c 22000000 		.4byte	.LFE157
 4570 0030 00000000 		.4byte	.LFB159
 4571 0034 20000000 		.4byte	.LFE159
 4572 0038 00000000 		.4byte	.LFB167
 4573 003c 10000000 		.4byte	.LFE167
 4574 0040 00000000 		.4byte	.LFB168
 4575 0044 4E000000 		.4byte	.LFE168
 4576 0048 00000000 		.4byte	.LFB214
 4577 004c 1C000000 		.4byte	.LFE214
 4578 0050 00000000 		.4byte	.LFB241
 4579 0054 2C000000 		.4byte	.LFE241
 4580 0058 00000000 		.4byte	.LFB242
 4581 005c 1A000000 		.4byte	.LFE242
 4582 0060 00000000 		.4byte	.LFB243
 4583 0064 0E010000 		.4byte	.LFE243
 4584 0068 00000000 		.4byte	.LFB244
 4585 006c 26000000 		.4byte	.LFE244
 4586 0070 00000000 		.4byte	.LFB245
 4587 0074 5E000000 		.4byte	.LFE245
 4588 0078 00000000 		.4byte	.LFB246
 4589 007c F8000000 		.4byte	.LFE246
 4590 0080 00000000 		.4byte	.LFB247
 4591 0084 F0000000 		.4byte	.LFE247
 4592 0088 00000000 		.4byte	.LFB248
 4593 008c 80000000 		.4byte	.LFE248
 4594 0090 00000000 		.4byte	0
 4595 0094 00000000 		.4byte	0
ARM GAS  /tmp/ccZb7D2c.s 			page 146


 4596              		.section	.debug_line,"",%progbits
 4597              	.Ldebug_line0:
 4598 0000 5F040000 		.section	.debug_str,"MS",%progbits,1
 4598      0200DC01 
 4598      00000201 
 4598      FB0E0D00 
 4598      01010101 
 4599              	.LASF97:
 4600 0000 74625F70 		.ascii	"tb_ptr\000"
 4600      747200
 4601              	.LASF54:
 4602 0007 72656164 		.ascii	"ready_list_t\000"
 4602      795F6C69 
 4602      73745F74 
 4602      00
 4603              	.LASF91:
 4604 0014 73655F74 		.ascii	"se_time\000"
 4604      696D6500 
 4605              	.LASF115:
 4606 001c 77747472 		.ascii	"wttrp\000"
 4606      7000
 4607              	.LASF139:
 4608 0022 5F5F6675 		.ascii	"__func__.6613\000"
 4608      6E635F5F 
 4608      2E363631 
 4608      3300
 4609              	.LASF112:
 4610 0030 7264796D 		.ascii	"rdymsg\000"
 4610      736700
 4611              	.LASF36:
 4612 0037 705F7374 		.ascii	"p_stklimit\000"
 4612      6B6C696D 
 4612      697400
 4613              	.LASF16:
 4614 0042 75696E74 		.ascii	"uint64_t\000"
 4614      36345F74 
 4614      00
 4615              	.LASF84:
 4616 004b 6B65726E 		.ascii	"kernel_stats\000"
 4616      656C5F73 
 4616      74617473 
 4616      00
 4617              	.LASF5:
 4618 0058 5F5F7569 		.ascii	"__uint8_t\000"
 4618      6E74385F 
 4618      7400
 4619              	.LASF90:
 4620 0062 706F7274 		.ascii	"port_intctx\000"
 4620      5F696E74 
 4620      63747800 
 4621              	.LASF53:
 4622 006e 63685F74 		.ascii	"ch_threads_queue\000"
 4622      68726561 
 4622      64735F71 
 4622      75657565 
 4622      00
 4623              	.LASF73:
ARM GAS  /tmp/ccZb7D2c.s 			page 147


 4624 007f 73797374 		.ascii	"system_debug_t\000"
 4624      656D5F64 
 4624      65627567 
 4624      5F7400
 4625              	.LASF130:
 4626 008e 71756575 		.ascii	"queue_init\000"
 4626      655F696E 
 4626      697400
 4627              	.LASF128:
 4628 0099 706F7274 		.ascii	"port_lock\000"
 4628      5F6C6F63 
 4628      6B00
 4629              	.LASF103:
 4630 00a3 776F7273 		.ascii	"worst\000"
 4630      7400
 4631              	.LASF106:
 4632 00a9 74696D65 		.ascii	"time_measurement_t\000"
 4632      5F6D6561 
 4632      73757265 
 4632      6D656E74 
 4632      5F7400
 4633              	.LASF12:
 4634 00bc 6C6F6E67 		.ascii	"long long unsigned int\000"
 4634      206C6F6E 
 4634      6720756E 
 4634      7369676E 
 4634      65642069 
 4635              	.LASF99:
 4636 00d3 63685F74 		.ascii	"ch_trace_buffer_t\000"
 4636      72616365 
 4636      5F627566 
 4636      6665725F 
 4636      7400
 4637              	.LASF94:
 4638 00e5 73655F73 		.ascii	"se_state\000"
 4638      74617465 
 4638      00
 4639              	.LASF113:
 4640 00ee 65786974 		.ascii	"exitcode\000"
 4640      636F6465 
 4640      00
 4641              	.LASF83:
 4642 00f7 6D61696E 		.ascii	"mainthread\000"
 4642      74687265 
 4642      616400
 4643              	.LASF6:
 4644 0102 5F5F696E 		.ascii	"__int32_t\000"
 4644      7433325F 
 4644      7400
 4645              	.LASF70:
 4646 010c 76697274 		.ascii	"virtual_timers_list_t\000"
 4646      75616C5F 
 4646      74696D65 
 4646      72735F6C 
 4646      6973745F 
 4647              	.LASF153:
 4648 0122 49544D5F 		.ascii	"ITM_RxBuffer\000"
ARM GAS  /tmp/ccZb7D2c.s 			page 148


 4648      52784275 
 4648      66666572 
 4648      00
 4649              	.LASF18:
 4650 012f 72747469 		.ascii	"rttime_t\000"
 4650      6D655F74 
 4650      00
 4651              	.LASF31:
 4652 0138 705F7072 		.ascii	"p_prio\000"
 4652      696F00
 4653              	.LASF147:
 4654 013f 63684D74 		.ascii	"chMtxUnlock\000"
 4654      78556E6C 
 4654      6F636B00 
 4655              	.LASF1:
 4656 014b 7369676E 		.ascii	"signed char\000"
 4656      65642063 
 4656      68617200 
 4657              	.LASF156:
 4658 0157 2F686F6D 		.ascii	"/home/jerker/git/AutoTux/stm32\000"
 4658      652F6A65 
 4658      726B6572 
 4658      2F676974 
 4658      2F417574 
 4659              	.LASF143:
 4660 0176 5F5F6675 		.ascii	"__func__.6621\000"
 4660      6E635F5F 
 4660      2E363632 
 4660      3100
 4661              	.LASF46:
 4662 0184 705F6D70 		.ascii	"p_mpool\000"
 4662      6F6F6C00 
 4663              	.LASF123:
 4664 018c 6D5F7175 		.ascii	"m_queue\000"
 4664      65756500 
 4665              	.LASF82:
 4666 0194 76746C69 		.ascii	"vtlist\000"
 4666      737400
 4667              	.LASF129:
 4668 019b 706F7274 		.ascii	"port_unlock\000"
 4668      5F756E6C 
 4668      6F636B00 
 4669              	.LASF80:
 4670 01a7 63685F73 		.ascii	"ch_system\000"
 4670      79737465 
 4670      6D00
 4671              	.LASF7:
 4672 01b1 6C6F6E67 		.ascii	"long int\000"
 4672      20696E74 
 4672      00
 4673              	.LASF135:
 4674 01ba 71756575 		.ascii	"queue_dequeue\000"
 4674      655F6465 
 4674      71756575 
 4674      6500
 4675              	.LASF20:
 4676 01c8 74737461 		.ascii	"tstate_t\000"
ARM GAS  /tmp/ccZb7D2c.s 			page 149


 4676      74655F74 
 4676      00
 4677              	.LASF133:
 4678 01d1 71756575 		.ascii	"queue_notempty\000"
 4678      655F6E6F 
 4678      74656D70 
 4678      747900
 4679              	.LASF92:
 4680 01e0 73655F74 		.ascii	"se_tp\000"
 4680      7000
 4681              	.LASF10:
 4682 01e6 6C6F6E67 		.ascii	"long long int\000"
 4682      206C6F6E 
 4682      6720696E 
 4682      7400
 4683              	.LASF142:
 4684 01f4 63684D74 		.ascii	"chMtxLockS\000"
 4684      784C6F63 
 4684      6B5300
 4685              	.LASF145:
 4686 01ff 63684D74 		.ascii	"chMtxTryLockS\000"
 4686      78547279 
 4686      4C6F636B 
 4686      5300
 4687              	.LASF33:
 4688 020d 705F6E65 		.ascii	"p_newer\000"
 4688      77657200 
 4689              	.LASF120:
 4690 0215 735F7175 		.ascii	"s_queue\000"
 4690      65756500 
 4691              	.LASF96:
 4692 021d 74625F73 		.ascii	"tb_size\000"
 4692      697A6500 
 4693              	.LASF59:
 4694 0225 725F6E65 		.ascii	"r_newer\000"
 4694      77657200 
 4695              	.LASF87:
 4696 022d 72656761 		.ascii	"regarm_t\000"
 4696      726D5F74 
 4696      00
 4697              	.LASF66:
 4698 0236 76745F70 		.ascii	"vt_prev\000"
 4698      72657600 
 4699              	.LASF74:
 4700 023e 63685F73 		.ascii	"ch_system_debug\000"
 4700      79737465 
 4700      6D5F6465 
 4700      62756700 
 4701              	.LASF146:
 4702 024e 5F5F6675 		.ascii	"__func__.6638\000"
 4702      6E635F5F 
 4702      2E363633 
 4702      3800
 4703              	.LASF127:
 4704 025c 6D757465 		.ascii	"mutex_t\000"
 4704      785F7400 
 4705              	.LASF158:
ARM GAS  /tmp/ccZb7D2c.s 			page 150


 4706 0264 76616C75 		.ascii	"value\000"
 4706      6500
 4707              	.LASF77:
 4708 026a 6C6F636B 		.ascii	"lock_cnt\000"
 4708      5F636E74 
 4708      00
 4709              	.LASF85:
 4710 0273 69646C65 		.ascii	"idle_thread_wa\000"
 4710      5F746872 
 4710      6561645F 
 4710      776100
 4711              	.LASF25:
 4712 0282 636E745F 		.ascii	"cnt_t\000"
 4712      7400
 4713              	.LASF150:
 4714 0288 63684D74 		.ascii	"chMtxUnlockS\000"
 4714      78556E6C 
 4714      6F636B53 
 4714      00
 4715              	.LASF0:
 4716 0295 756E7369 		.ascii	"unsigned int\000"
 4716      676E6564 
 4716      20696E74 
 4716      00
 4717              	.LASF65:
 4718 02a2 76745F6E 		.ascii	"vt_next\000"
 4718      65787400 
 4719              	.LASF125:
 4720 02aa 6D5F6E65 		.ascii	"m_next\000"
 4720      787400
 4721              	.LASF116:
 4722 02b1 77747365 		.ascii	"wtsemp\000"
 4722      6D7000
 4723              	.LASF149:
 4724 02b8 6E657770 		.ascii	"newprio\000"
 4724      72696F00 
 4725              	.LASF41:
 4726 02c0 705F6D73 		.ascii	"p_msgqueue\000"
 4726      67717565 
 4726      756500
 4727              	.LASF107:
 4728 02cb 6E5F6972 		.ascii	"n_irq\000"
 4728      7100
 4729              	.LASF121:
 4730 02d1 735F636E 		.ascii	"s_cnt\000"
 4730      7400
 4731              	.LASF4:
 4732 02d7 73686F72 		.ascii	"short unsigned int\000"
 4732      7420756E 
 4732      7369676E 
 4732      65642069 
 4732      6E7400
 4733              	.LASF111:
 4734 02ea 6B65726E 		.ascii	"kernel_stats_t\000"
 4734      656C5F73 
 4734      74617473 
 4734      5F7400
ARM GAS  /tmp/ccZb7D2c.s 			page 151


 4735              	.LASF50:
 4736 02f9 63685F74 		.ascii	"ch_thread\000"
 4736      68726561 
 4736      6400
 4737              	.LASF23:
 4738 0303 6D73675F 		.ascii	"msg_t\000"
 4738      7400
 4739              	.LASF104:
 4740 0309 6C617374 		.ascii	"last\000"
 4740      00
 4741              	.LASF26:
 4742 030e 75636E74 		.ascii	"ucnt_t\000"
 4742      5F7400
 4743              	.LASF79:
 4744 0315 63685F73 		.ascii	"ch_system_t\000"
 4744      79737465 
 4744      6D5F7400 
 4745              	.LASF152:
 4746 0321 63684D74 		.ascii	"chMtxUnlockAll\000"
 4746      78556E6C 
 4746      6F636B41 
 4746      6C6C00
 4747              	.LASF154:
 4748 0330 474E5520 		.ascii	"GNU C 4.8.2 -mcpu=cortex-m4 -mno-thumb-interwork -m"
 4748      4320342E 
 4748      382E3220 
 4748      2D6D6370 
 4748      753D636F 
 4749 0363 7468756D 		.ascii	"thumb -ggdb -O0 -fomit-frame-pointer -falign-functi"
 4749      62202D67 
 4749      67646220 
 4749      2D4F3020 
 4749      2D666F6D 
 4750 0396 6F6E733D 		.ascii	"ons=16 -ffunction-sections -fdata-sections -fno-com"
 4750      3136202D 
 4750      6666756E 
 4750      6374696F 
 4750      6E2D7365 
 4751 03c9 6D6F6E20 		.ascii	"mon -flto\000"
 4751      2D666C74 
 4751      6F00
 4752              	.LASF148:
 4753 03d3 5F5F6675 		.ascii	"__func__.6644\000"
 4753      6E635F5F 
 4753      2E363634 
 4753      3400
 4754              	.LASF19:
 4755 03e1 746D6F64 		.ascii	"tmode_t\000"
 4755      655F7400 
 4756              	.LASF110:
 4757 03e9 6D5F6372 		.ascii	"m_crit_isr\000"
 4757      69745F69 
 4757      737200
 4758              	.LASF55:
 4759 03f4 63685F72 		.ascii	"ch_ready_list\000"
 4759      65616479 
 4759      5F6C6973 
ARM GAS  /tmp/ccZb7D2c.s 			page 152


 4759      7400
 4760              	.LASF24:
 4761 0402 6576656E 		.ascii	"eventmask_t\000"
 4761      746D6173 
 4761      6B5F7400 
 4762              	.LASF144:
 4763 040e 63684D74 		.ascii	"chMtxTryLock\000"
 4763      78547279 
 4763      4C6F636B 
 4763      00
 4764              	.LASF155:
 4765 041b 6C69622F 		.ascii	"lib/ChibiOS_16.1.4//os/rt/src/chmtx.c\000"
 4765      43686962 
 4765      694F535F 
 4765      31362E31 
 4765      2E342F2F 
 4766              	.LASF88:
 4767 0441 73746B61 		.ascii	"stkalign_t\000"
 4767      6C69676E 
 4767      5F7400
 4768              	.LASF40:
 4769 044c 705F7761 		.ascii	"p_waiting\000"
 4769      6974696E 
 4769      6700
 4770              	.LASF86:
 4771 0456 73697A65 		.ascii	"sizetype\000"
 4771      74797065 
 4771      00
 4772              	.LASF48:
 4773 045f 74687265 		.ascii	"thread_reference_t\000"
 4773      61645F72 
 4773      65666572 
 4773      656E6365 
 4773      5F7400
 4774              	.LASF71:
 4775 0472 63685F76 		.ascii	"ch_virtual_timers_list\000"
 4775      69727475 
 4775      616C5F74 
 4775      696D6572 
 4775      735F6C69 
 4776              	.LASF157:
 4777 0489 5F5F7365 		.ascii	"__set_BASEPRI\000"
 4777      745F4241 
 4777      53455052 
 4777      4900
 4778              	.LASF95:
 4779 0497 63685F73 		.ascii	"ch_swc_event_t\000"
 4779      77635F65 
 4779      76656E74 
 4779      5F7400
 4780              	.LASF72:
 4781 04a6 76745F6C 		.ascii	"vt_lasttime\000"
 4781      61737474 
 4781      696D6500 
 4782              	.LASF141:
 4783 04b2 63684D74 		.ascii	"chMtxLock\000"
 4783      784C6F63 
ARM GAS  /tmp/ccZb7D2c.s 			page 153


 4783      6B00
 4784              	.LASF34:
 4785 04bc 705F6F6C 		.ascii	"p_older\000"
 4785      64657200 
 4786              	.LASF58:
 4787 04c4 725F6374 		.ascii	"r_ctx\000"
 4787      7800
 4788              	.LASF101:
 4789 04ca 746D5F63 		.ascii	"tm_calibration_t\000"
 4789      616C6962 
 4789      72617469 
 4789      6F6E5F74 
 4789      00
 4790              	.LASF151:
 4791 04db 5F5F6675 		.ascii	"__func__.6655\000"
 4791      6E635F5F 
 4791      2E363635 
 4791      3500
 4792              	.LASF61:
 4793 04e9 725F6375 		.ascii	"r_current\000"
 4793      7272656E 
 4793      7400
 4794              	.LASF60:
 4795 04f3 725F6F6C 		.ascii	"r_older\000"
 4795      64657200 
 4796              	.LASF11:
 4797 04fb 5F5F7569 		.ascii	"__uint64_t\000"
 4797      6E743634 
 4797      5F7400
 4798              	.LASF105:
 4799 0506 63756D75 		.ascii	"cumulative\000"
 4799      6C617469 
 4799      766500
 4800              	.LASF138:
 4801 0511 5F5F6675 		.ascii	"__func__.5915\000"
 4801      6E635F5F 
 4801      2E353931 
 4801      3500
 4802              	.LASF21:
 4803 051f 74726566 		.ascii	"trefs_t\000"
 4803      735F7400 
 4804              	.LASF98:
 4805 0527 74625F62 		.ascii	"tb_buffer\000"
 4805      75666665 
 4805      7200
 4806              	.LASF63:
 4807 0531 76697274 		.ascii	"virtual_timer_t\000"
 4807      75616C5F 
 4807      74696D65 
 4807      725F7400 
 4808              	.LASF30:
 4809 0541 705F7072 		.ascii	"p_prev\000"
 4809      657600
 4810              	.LASF22:
 4811 0548 74707269 		.ascii	"tprio_t\000"
 4811      6F5F7400 
 4812              	.LASF140:
ARM GAS  /tmp/ccZb7D2c.s 			page 154


 4813 0550 63684D74 		.ascii	"chMtxObjectInit\000"
 4813      784F626A 
 4813      65637449 
 4813      6E697400 
 4814              	.LASF108:
 4815 0560 6E5F6374 		.ascii	"n_ctxswc\000"
 4815      78737763 
 4815      00
 4816              	.LASF131:
 4817 0569 5F426F6F 		.ascii	"_Bool\000"
 4817      6C00
 4818              	.LASF14:
 4819 056f 696E7433 		.ascii	"int32_t\000"
 4819      325F7400 
 4820              	.LASF2:
 4821 0577 756E7369 		.ascii	"unsigned char\000"
 4821      676E6564 
 4821      20636861 
 4821      7200
 4822              	.LASF37:
 4823 0585 705F7374 		.ascii	"p_state\000"
 4823      61746500 
 4824              	.LASF44:
 4825 058d 705F6D74 		.ascii	"p_mtxlist\000"
 4825      786C6973 
 4825      7400
 4826              	.LASF3:
 4827 0597 73686F72 		.ascii	"short int\000"
 4827      7420696E 
 4827      7400
 4828              	.LASF57:
 4829 05a1 725F7072 		.ascii	"r_prio\000"
 4829      696F00
 4830              	.LASF118:
 4831 05a8 65776D61 		.ascii	"ewmask\000"
 4831      736B00
 4832              	.LASF29:
 4833 05af 705F6E65 		.ascii	"p_next\000"
 4833      787400
 4834              	.LASF38:
 4835 05b6 705F666C 		.ascii	"p_flags\000"
 4835      61677300 
 4836              	.LASF47:
 4837 05be 705F7374 		.ascii	"p_stats\000"
 4837      61747300 
 4838              	.LASF159:
 4839 05c6 63685379 		.ascii	"chSysLock\000"
 4839      734C6F63 
 4839      6B00
 4840              	.LASF64:
 4841 05d0 63685F76 		.ascii	"ch_virtual_timer\000"
 4841      69727475 
 4841      616C5F74 
 4841      696D6572 
 4841      00
 4842              	.LASF119:
 4843 05e1 63685F73 		.ascii	"ch_semaphore\000"
ARM GAS  /tmp/ccZb7D2c.s 			page 155


 4843      656D6170 
 4843      686F7265 
 4843      00
 4844              	.LASF43:
 4845 05ee 705F6570 		.ascii	"p_epending\000"
 4845      656E6469 
 4845      6E6700
 4846              	.LASF15:
 4847 05f9 75696E74 		.ascii	"uint32_t\000"
 4847      33325F74 
 4847      00
 4848              	.LASF117:
 4849 0602 77746D74 		.ascii	"wtmtxp\000"
 4849      787000
 4850              	.LASF56:
 4851 0609 725F7175 		.ascii	"r_queue\000"
 4851      65756500 
 4852              	.LASF67:
 4853 0611 76745F64 		.ascii	"vt_delta\000"
 4853      656C7461 
 4853      00
 4854              	.LASF51:
 4855 061a 63685F74 		.ascii	"ch_threads_list\000"
 4855      68726561 
 4855      64735F6C 
 4855      69737400 
 4856              	.LASF9:
 4857 062a 6C6F6E67 		.ascii	"long unsigned int\000"
 4857      20756E73 
 4857      69676E65 
 4857      6420696E 
 4857      7400
 4858              	.LASF126:
 4859 063c 63686172 		.ascii	"char\000"
 4859      00
 4860              	.LASF28:
 4861 0641 74687265 		.ascii	"thread_t\000"
 4861      61645F74 
 4861      00
 4862              	.LASF102:
 4863 064a 62657374 		.ascii	"best\000"
 4863      00
 4864              	.LASF134:
 4865 064f 71756575 		.ascii	"queue_fifo_remove\000"
 4865      655F6669 
 4865      666F5F72 
 4865      656D6F76 
 4865      6500
 4866              	.LASF27:
 4867 0661 73797374 		.ascii	"systime_t\000"
 4867      696D655F 
 4867      7400
 4868              	.LASF45:
 4869 066b 705F7265 		.ascii	"p_realprio\000"
 4869      616C7072 
 4869      696F00
 4870              	.LASF62:
ARM GAS  /tmp/ccZb7D2c.s 			page 156


 4871 0676 76746675 		.ascii	"vtfunc_t\000"
 4871      6E635F74 
 4871      00
 4872              	.LASF8:
 4873 067f 5F5F7569 		.ascii	"__uint32_t\000"
 4873      6E743332 
 4873      5F7400
 4874              	.LASF137:
 4875 068a 63684D74 		.ascii	"chMtxQueueNotEmptyS\000"
 4875      78517565 
 4875      75654E6F 
 4875      74456D70 
 4875      74795300 
 4876              	.LASF75:
 4877 069e 70616E69 		.ascii	"panic_msg\000"
 4877      635F6D73 
 4877      6700
 4878              	.LASF100:
 4879 06a8 6F666673 		.ascii	"offset\000"
 4879      657400
 4880              	.LASF89:
 4881 06af 636F6E74 		.ascii	"context\000"
 4881      65787400 
 4882              	.LASF17:
 4883 06b7 7274636E 		.ascii	"rtcnt_t\000"
 4883      745F7400 
 4884              	.LASF69:
 4885 06bf 76745F70 		.ascii	"vt_par\000"
 4885      617200
 4886              	.LASF52:
 4887 06c6 74687265 		.ascii	"threads_queue_t\000"
 4887      6164735F 
 4887      71756575 
 4887      655F7400 
 4888              	.LASF122:
 4889 06d6 63685F6D 		.ascii	"ch_mutex\000"
 4889      75746578 
 4889      00
 4890              	.LASF39:
 4891 06df 705F7265 		.ascii	"p_refs\000"
 4891      667300
 4892              	.LASF76:
 4893 06e6 6973725F 		.ascii	"isr_cnt\000"
 4893      636E7400 
 4894              	.LASF81:
 4895 06ee 726C6973 		.ascii	"rlist\000"
 4895      7400
 4896              	.LASF13:
 4897 06f4 75696E74 		.ascii	"uint8_t\000"
 4897      385F7400 
 4898              	.LASF114:
 4899 06fc 77746F62 		.ascii	"wtobjp\000"
 4899      6A7000
 4900              	.LASF35:
 4901 0703 705F6E61 		.ascii	"p_name\000"
 4901      6D6500
 4902              	.LASF49:
ARM GAS  /tmp/ccZb7D2c.s 			page 157


 4903 070a 74687265 		.ascii	"threads_list_t\000"
 4903      6164735F 
 4903      6C697374 
 4903      5F7400
 4904              	.LASF78:
 4905 0719 74726163 		.ascii	"trace_buffer\000"
 4905      655F6275 
 4905      66666572 
 4905      00
 4906              	.LASF136:
 4907 0726 63685379 		.ascii	"chSysUnlock\000"
 4907      73556E6C 
 4907      6F636B00 
 4908              	.LASF42:
 4909 0732 705F6D73 		.ascii	"p_msg\000"
 4909      6700
 4910              	.LASF132:
 4911 0738 71756575 		.ascii	"queue_prio_insert\000"
 4911      655F7072 
 4911      696F5F69 
 4911      6E736572 
 4911      7400
 4912              	.LASF109:
 4913 074a 6D5F6372 		.ascii	"m_crit_thd\000"
 4913      69745F74 
 4913      686400
 4914              	.LASF124:
 4915 0755 6D5F6F77 		.ascii	"m_owner\000"
 4915      6E657200 
 4916              	.LASF93:
 4917 075d 73655F77 		.ascii	"se_wtobjp\000"
 4917      746F626A 
 4917      7000
 4918              	.LASF32:
 4919 0767 705F6374 		.ascii	"p_ctx\000"
 4919      7800
 4920              	.LASF68:
 4921 076d 76745F66 		.ascii	"vt_func\000"
 4921      756E6300 
 4922              		.comm	__gnu_lto_v1,1,1
 4923              		.ident	"GCC: (4.8.2-14ubuntu1+6) 4.8.2"
ARM GAS  /tmp/ccZb7D2c.s 			page 158


DEFINED SYMBOLS
                            *ABS*:0000000000000000 chmtx.c
     /tmp/ccZb7D2c.s:1049   .text.port_lock:0000000000000000 $t
     /tmp/ccZb7D2c.s:1054   .text.port_lock:0000000000000000 port_lock
     /tmp/ccZb7D2c.s:1085   .text.port_unlock:0000000000000000 $t
     /tmp/ccZb7D2c.s:1090   .text.port_unlock:0000000000000000 port_unlock
     /tmp/ccZb7D2c.s:1119   .text.queue_init:0000000000000000 $t
     /tmp/ccZb7D2c.s:1124   .text.queue_init:0000000000000000 queue_init
     /tmp/ccZb7D2c.s:1151   .text.queue_notempty:0000000000000000 $t
     /tmp/ccZb7D2c.s:1156   .text.queue_notempty:0000000000000000 queue_notempty
     /tmp/ccZb7D2c.s:1184   .text.queue_prio_insert:0000000000000000 $t
     /tmp/ccZb7D2c.s:1189   .text.queue_prio_insert:0000000000000000 queue_prio_insert
     /tmp/ccZb7D2c.s:1246   .text.queue_fifo_remove:0000000000000000 $t
     /tmp/ccZb7D2c.s:1251   .text.queue_fifo_remove:0000000000000000 queue_fifo_remove
     /tmp/ccZb7D2c.s:1286   .text.queue_dequeue:0000000000000000 $t
     /tmp/ccZb7D2c.s:1291   .text.queue_dequeue:0000000000000000 queue_dequeue
     /tmp/ccZb7D2c.s:1324   .text.chSysLock:0000000000000000 $t
     /tmp/ccZb7D2c.s:1329   .text.chSysLock:0000000000000000 chSysLock
     /tmp/ccZb7D2c.s:1352   .text.chSysUnlock:0000000000000000 $t
     /tmp/ccZb7D2c.s:1357   .text.chSysUnlock:0000000000000000 chSysUnlock
     /tmp/ccZb7D2c.s:2224   .rodata.__func__.5915:0000000000000000 __func__.5915
     /tmp/ccZb7D2c.s:1402   .text.chMtxQueueNotEmptyS:0000000000000000 $t
     /tmp/ccZb7D2c.s:1407   .text.chMtxQueueNotEmptyS:0000000000000000 chMtxQueueNotEmptyS
     /tmp/ccZb7D2c.s:1436   .text.chMtxObjectInit:0000000000000000 $t
     /tmp/ccZb7D2c.s:1442   .text.chMtxObjectInit:0000000000000000 chMtxObjectInit
     /tmp/ccZb7D2c.s:2218   .rodata.__func__.6613:0000000000000000 __func__.6613
     /tmp/ccZb7D2c.s:1480   .text.chMtxLock:0000000000000000 $t
     /tmp/ccZb7D2c.s:1486   .text.chMtxLock:0000000000000000 chMtxLock
     /tmp/ccZb7D2c.s:1519   .text.chMtxLockS:0000000000000000 chMtxLockS
     /tmp/ccZb7D2c.s:1513   .text.chMtxLockS:0000000000000000 $t
     /tmp/ccZb7D2c.s:2230   .rodata.__func__.6621:0000000000000000 __func__.6621
     /tmp/ccZb7D2c.s:1689   .text.chMtxTryLock:0000000000000000 $t
     /tmp/ccZb7D2c.s:1695   .text.chMtxTryLock:0000000000000000 chMtxTryLock
     /tmp/ccZb7D2c.s:1733   .text.chMtxTryLockS:0000000000000000 chMtxTryLockS
     /tmp/ccZb7D2c.s:1727   .text.chMtxTryLockS:0000000000000000 $t
     /tmp/ccZb7D2c.s:2236   .rodata.__func__.6638:0000000000000000 __func__.6638
     /tmp/ccZb7D2c.s:1796   .text.chMtxUnlock:0000000000000000 $t
     /tmp/ccZb7D2c.s:1802   .text.chMtxUnlock:0000000000000000 chMtxUnlock
     /tmp/ccZb7D2c.s:2242   .rodata.__func__.6644:0000000000000000 __func__.6644
     /tmp/ccZb7D2c.s:1958   .text.chMtxUnlockS:0000000000000000 $t
     /tmp/ccZb7D2c.s:1964   .text.chMtxUnlockS:0000000000000000 chMtxUnlockS
     /tmp/ccZb7D2c.s:2248   .rodata.__func__.6655:0000000000000000 __func__.6655
     /tmp/ccZb7D2c.s:2115   .text.chMtxUnlockAll:0000000000000000 $t
     /tmp/ccZb7D2c.s:2121   .text.chMtxUnlockAll:0000000000000000 chMtxUnlockAll
     /tmp/ccZb7D2c.s:2215   .rodata.__func__.6613:0000000000000000 $d
     /tmp/ccZb7D2c.s:2221   .rodata.__func__.5915:0000000000000000 $d
     /tmp/ccZb7D2c.s:2227   .rodata.__func__.6621:0000000000000000 $d
     /tmp/ccZb7D2c.s:2233   .rodata.__func__.6638:0000000000000000 $d
     /tmp/ccZb7D2c.s:2239   .rodata.__func__.6644:0000000000000000 $d
     /tmp/ccZb7D2c.s:2245   .rodata.__func__.6655:0000000000000000 $d
                            *COM*:0000000000000001 __gnu_lto_v1
                     .debug_frame:0000000000000010 $d

UNDEFINED SYMBOLS
_stats_start_measure_crit_thd
_dbg_check_lock
_dbg_check_unlock
ARM GAS  /tmp/ccZb7D2c.s 			page 159


_stats_stop_measure_crit_thd
ch
chSysHalt
chDbgCheckClassS
chSchReadyI
chSchGoSleepS
chSchRescheduleS
