ARM GAS  /tmp/ccZOirIi.s 			page 1


   1              		.syntax unified
   2              		.cpu cortex-m4
   3              		.fpu softvfp
   4              		.eabi_attribute 20, 1
   5              		.eabi_attribute 21, 1
   6              		.eabi_attribute 23, 3
   7              		.eabi_attribute 24, 1
   8              		.eabi_attribute 25, 1
   9              		.eabi_attribute 26, 1
  10              		.eabi_attribute 30, 6
  11              		.eabi_attribute 34, 1
  12              		.eabi_attribute 18, 4
  13              		.thumb
  14              		.file	"chprintf.c"
  15              		.text
  16              	.Ltext0:
  17              		.section	.gnu.lto_.inline.4c33fb77ad90a972,"",%progbits
  18 0000 789C6362 		.ascii	"x\234cb`b\300\006\326BiV\006\006)\023\006\006&\203\003"
  18      6062C006 
  18      D6426956 
  18      06062913 
  18      06062683 
  19 0015 6BD81858 		.ascii	"k\330\030X \212\031\0318\005\201BL\013\344a\"l\374@"
  19      208A1919 
  19      38058142 
  19      4C0BE461 
  19      226CFC40 
  20 0029 8289E13A 		.ascii	"\202\211\341:\343\004 \227\351\011\323\206-\3020)V>"
  20      E3042097 
  20      E909D386 
  20      2DC23029 
  20      563E
  21 003b 38218883 		.ascii	"8!\210\203`f\340\226A5\217\001\256\223\231\007H\260"
  21      6066E096 
  21      41358F01 
  21      AE939907 
  21      48B0
  22 004d 30481A03 		.ascii	"0H\032\003\025\210|X\315\210C\005\230\305\000\000\342"
  22      15887C58 
  22      CD884305 
  22      98C50000 
  22      E2
  23 005e D50B5F   		.ascii	"\325\013_"
  24              		.text
  25              		.section	.gnu.lto_long_to_string_with_divisor.4c33fb77ad90a972,"",%progbits
  26 0000 789CB556 		.ascii	"x\234\265V]h\034U\024\276w\376vgv\363\323\264I\2234"
  26      5D681C55 
  26      14BE77FE 
  26      766776F3 
  26      D3B44993 
  27 0015 49379B34 		.ascii	"I7\2334\211\010\273Mm\305\"\"(\010\372\240A\323\242"
  27      8908BB4D 
  27      6DC52222 
  27      2808FAA0 
  27      41D3A2
  28 0028 4FB24D75 		.ascii	"O\262Mu\262\260\3216\351\203o\231\355\246%\232\210K"
  28      B2B0D136 
ARM GAS  /tmp/ccZOirIi.s 			page 2


  28      E9836F99 
  28      EDA6259A 
  28      884B
  29 003a 29B4D622 		.ascii	")\264\326\"\015(\006\264,\261\224\264\326\300\226jI"
  29      0D2806B4 
  29      2CB194B4 
  29      D6C0966A 
  29      49
  30 004b 4845C507 		.ascii	"HE\305\007Yl\241\026m\221V\253\210\2504u\374\356\235"
  30      596CA116 
  30      6D9156AB 
  30      88A83475 
  30      FCEE9D
  31 005e 7B27D350 		.ascii	"{'\323Pp\020:\260\367p\277s\276s\316\375\356\231a\025"
  31      70103AB0 
  31      F770BF73 
  31      BE73CEFD 
  31      EE996115 
  32 0072 A29095CF 		.ascii	"\242\220\225\3170~\357\231\204lg\233*B\021A\025E%\304"
  32      307EEF99 
  32      846C679B 
  32      2A421141 
  32      154525C4 
  33 0086 51342C9A 		.ascii	"Q4,\232Ju \032_uj`5\224\010\363F\2317BahT1\030b2\304"
  33      4A75201A 
  33      5F756A60 
  33      359408F3 
  33      46993742 
  34 00a2 A416104B 		.ascii	"\244\026\020K\261\030\022cH\214\306\201\304)E\001JF"
  34      B1181263 
  34      488CC681 
  34      C4294501 
  34      4A46
  35 00b4 1555D38D 		.ascii	"\025U\323\215H\324\264bq:\372\002\003I]\222L9\316\201"
  35      48D4B462 
  35      713AFA02 
  35      03495D92 
  35      4C39CE81 
  36 00c8 CB9F7F77 		.ascii	"\313\237\177w\260\351\215c{\213\316?\256K\263\024\335"
  36      B0E98D63 
  36      7B8BCE3F 
  36      AE4BB314 
  36      DD
  37 00d9 6EA16480 		.ascii	"n\241d\200\222\347\261\241\011nXS\301\307c:\037O;\346"
  37      92E7B1A1 
  37      096E5853 
  37      C1C7633A 
  37      1F4F3BE6 
  38 00ed 3167C975 		.ascii	"1g\311u\325,\313\030\206S\376\343\247SS\324\331\357"
  38      D52CCB18 
  38      8653FEE3 
  38      A75353D4 
  38      D9EF
  39 00ff E47F75DD 		.ascii	"\344\177u\335\232,U\227iQ\217F\357J\373\363\322\244"
  39      9A2C5597 
  39      69518F46 
  39      EF4AFBF3 
ARM GAS  /tmp/ccZOirIi.s 			page 3


  39      D2A4
  40 0111 55CC8F3B 		.ascii	"U\314\217;\256;\312[\334z\017[\374{j\001-\036\220-\242"
  40      AE3BCA5B 
  40      DC7A0F5B 
  40      FC7B6A01 
  40      2D1E902D 
  41 0126 DA23F7B0 		.ascii	"\332#\367\260\332\355\333\363\301jZ(Z\321)\355\337W"
  41      DAEDDBF3 
  41      C16A5A28 
  41      5AD129ED 
  41      DF57
  42 0138 3B266BE9 		.ascii	";&k\351!I\301\376t\205<\026\356X\345\342\371\200\370"
  42      2149C1FE 
  42      74853C16 
  42      EE58E5E2 
  42      F980F8
  43 014b 9A429E08 		.ascii	"\232B\236\010)\307\334\017}\363\316X\331u\037\345\264"
  43      29C7DC0F 
  43      7DF3CE58 
  43      D9751FE5 
  43      B4
  44 015c A742D24E 		.ascii	"\247B\322N_\354;,i\341\346\343H\371\320\371\205\377"
  44      5FEC3B2C 
  44      69E1E6E3 
  44      48F9D0F9 
  44      85FF
  45 016e A162F9C4 		.ascii	"\241b\371\304\245\270\1770\010\362tHAN\3768\037,\246"
  45      A5B87F30 
  45      08F27448 
  45      414EFE38 
  45      1F2CA6
  46 0181 90BE50C4 		.ascii	"\220\276P\304by\366\373 \321P\310\263\341\210\316\354"
  46      6279F6FB 
  46      20D150C8 
  46      B3E188CE 
  46      EC
  47 0192 4E5F49B0 		.ascii	"N_I\260\372\377\213UR\312\227]wr\342\335\253\215\364"
  47      FAFF8B55 
  47      52CA975D 
  47      7772E2DD 
  47      AB8DF4
  48 01a5 3E4A86D8 		.ascii	">J\206\330\020g\350I\232$\252\260\032\354,\254.\254"
  48      1067E849 
  48      9A24AAB0 
  48      1AEC2CAC 
  48      2EAC
  49 01b7 017B1A36 		.ascii	"\001{\0326\002{\0066*\254I\207(>.\2363\206\215\022\027"
  49      027B0636 
  49      2AAC4987 
  49      283E2E9E 
  49      33868D12 
  50 01cc 9E2A61AB 		.ascii	"\236*a\253\001\222\032\221\246\026v\012v\025@\265\216"
  50      01921A91 
  50      A616760A 
  50      761540B5 
  50      8E
  51 01dd E035582D 		.ascii	"\3405X-\012\256\021\266^\330\006\301X\213 \265\021\233"
ARM GAS  /tmp/ccZOirIi.s 			page 4


  51      0AAE11B6 
  51      5ED806C1 
  51      588B20B5 
  51      119B
  52 01ef F7B16962 		.ascii	"\367\261ib\214fQm\035\3544l\013\003[E\2656l\264\365"
  52      8C66516D 
  52      1DEC346C 
  52      0B035B45 
  52      B5366CB4 
  53 0204 58F40490 		.ascii	"X\364\004\220\343@\332E\302$l\011\266\203\035\267\023"
  53      E340DA45 
  53      C2246C09 
  53      B6831DB7 
  53      13
  54 0215 9B196C36 		.ascii	"\233\031l6\210*]\254J\267\210\354!|Bp\3661h\233\360"
  54      882A5DAC 
  54      4AB788EC 
  54      217C4270 
  54      F631689B 
  55 022a 402FCEAB 		.ascii	"@/\316\253\354\225\3423\204\247\237\257\333\330GZ\375"
  55      EC95E233 
  55      84A79FAF 
  55      DBD8475A 
  55      FD
  56 023b 82EC5D3C 		.ascii	"\202\354]<\365\255\222\241sx\351lj\331\024\337\337y"
  56      F5AD92A1 
  56      7378E96C 
  56      6AD914DF 
  56      DF79
  57 024d F2D9B5B3 		.ascii	"\362\331\265\263sM\022\214\261\0331\202\327\261\215"
  57      734D128C 
  57      B11B3182 
  57      D7B18D
  58 025c CD31E7FE 		.ascii	"\3151\347\376u(.\303\342\234\353\2715\341\236n\226\336"
  58      75282EC3 
  58      E29CEBB9 
  58      35E19E6E 
  58      96DE
  59 026e 2AE4915E 		.ascii	"*\344\221^\235{\013\023\205\023\367Kw\215M\253\371\305"
  59      9D7B0B13 
  59      8513F74B 
  59      778D4DAB 
  59      F9C5
  60 0280 7B411512 		.ascii	"{A\025\022ABui\302\000S;X\305X\206\227\363\227\302\231"
  60      41427569 
  60      C200533B 
  60      58C55886 
  60      97F397C2 
  61 0295 45BFDF5A 		.ascii	"E\277\337Z\233\301\310\365\266*\241:\216\256b(b\333"
  61      9BC1C8F5 
  61      B62AA13A 
  61      8EAE6228 
  61      62DB
  62 02a7 24BC1A1E 		.ascii	"$\274\032\036\0369^\230\363c\327\000gU\365\215\204\237"
  62      1E395E98 
  62      F363D700 
  62      6755F58D 
ARM GAS  /tmp/ccZOirIi.s 			page 5


  62      849F
  63 02b9 FAEAD9DF 		.ascii	"\372\352\331\3372\276\217;\266\372g\256\020\015m\352"
  63      32BE8F3B 
  63      B6FA67AE 
  63      100D6DEA 
  64 02c9 178E539B 		.ascii	"\027\216S\2336D?\372\322\250\0204g\351\027?\004\320"
  64      36443FFA 
  64      D2A81034 
  64      67E9173F 
  64      04D0
  65 02db 1CFDF426 		.ascii	"\034\375\364&\255\220\250M#:\266\255\321\013oY\254\347"
  65      AD90A84D 
  65      233AB6AD 
  65      D10B6F59 
  65      ACE7
  66 02ed 8877D2F1 		.ascii	"\210w\322\361\302\265E*\023\327\313\334\021_\315\250"
  66      C2B5452A 
  66      13D7CBDC 
  66      115FCDA8 
  67 02fd 14E4FA37 		.ascii	"\024\344\3727~X\203M5\256\210\213\247\206\360\363\\"
  67      7E58834D 
  67      35AE888B 
  67      A786F0F3 
  67      5C
  68 030e F73B5F6B 		.ascii	"\367;_k\263\353\003\364\244\207\274C\216\344\035\307"
  68      B3EB03F4 
  68      A487BC43 
  68      8EE41DC7 
  69 031e 89612A40 		.ascii	"\211a*@e<\357\015B\244P\342\346\303\222\333(E{\323O"
  69      653CEF0D 
  69      42A450E2 
  69      E6C392DB 
  69      28457BD3 
  70 0333 D7C45121 		.ascii	"\327\304Q!\232\2176\303!\330\277\237\3635_g\263~\357"
  70      9A8F36C3 
  70      21D8BF9F 
  70      F3355F67 
  70      B37EEF
  71 0346 A0B77074 		.ascii	"\240\267pt%\275\025\016&\353\330\215|\304\307V\314R"
  71      25BD150E 
  71      26EBD88D 
  71      7CC4C756 
  71      CC52
  72 0358 852890C3 		.ascii	"\205(\220\303X\372\031\252\325G\216\226\014&\207)\345"
  72      58FA19AA 
  72      D5478E96 
  72      0C268729 
  72      E5
  73 0369 B875CB97 		.ascii	"\270u\313\227\243-8 L\212\345\253]\017\357\012y\022"
  73      A32D3820 
  73      4C8AE5AB 
  73      5D0FEF0A 
  73      7912
  74 037b 1081F7F8 		.ascii	"\020\201\367\370z\241Ab\355<2!5\267\304\210\036\276"
  74      7AA14162 
  74      ED3C3221 
  74      35B7C488 
ARM GAS  /tmp/ccZOirIi.s 			page 6


  74      1EBE
  75 038d F2908C48 		.ascii	"\362\220\214H\332\354\357\005\253\354'\352\000\352\177"
  75      DAECEF05 
  75      ABEC27EA 
  75      00EA7F
  76 039c A611BEF0 		.ascii	"\246\021\276\360\225\177\224N\233\015\362\035\321\033"
  76      957F944E 
  76      9B0DF21D 
  76      D11B
  77 03aa 8006A33F 		.ascii	"\200\006\243?\3317,]]\270!\312o\247s\371vDJ\343.w\230"
  77      D9372C5D 
  77      5DB821CA 
  77      6FA773F9 
  77      76444AE3 
  78 03c1 0CDE6197 		.ascii	"\014\336a\227\230\334\017&\375R\3356U\371\024\271\362"
  78      98DC0F26 
  78      FD52DD36 
  78      55F914B9 
  78      F2
  79 03d2 A1A39ED8 		.ascii	"\241\243\236\330\276d\335\334\037\324\032\"W\233X:\254"
  79      BE64DDDC 
  79      1FD41A22 
  79      579B583A 
  79      AC
  80 03e3 C999960A 		.ascii	"\311\231\226\012A\231v\363F\011@\267ut&^!:d31\3328\011"
  80      419976F3 
  80      460940B7 
  80      7574265E 
  80      213A6433 
  81 03fb 225E6332 		.ascii	"\"^c2\305\344\213~\245Q\346\355A\002\251\"\376\224\251"
  81      C5E48B7E 
  81      A551E6ED 
  81      4102A922 
  81      FE94A9
  82 040e 8B248F81 		.ascii	"\213$\217\201\330\311\272\375\232\370\325{\274\220~"
  82      D8C9BAFD 
  82      9AF8D57B 
  82      BC907E
  83 041d 2629FBC3 		.ascii	"&)\373\303\270)\227\335\221~|0\273#\373\314s/\366>\230"
  83      B82997DD 
  83      917E7C30 
  83      BB23FBCC 
  83      732FF63E 
  84 0432 EA4D6D4E 		.ascii	"\352MmN\247_\035I\017fri\346\032\3313\374Rfh$=0\270"
  84      A75F1D49 
  84      0F667269 
  84      E61AD933 
  84      FC526668 
  85 044a 6B38FBCA 		.ascii	"k8\373\312\236\227S\003D\315\2456\342\327\253\345r\251"
  85      9E975303 
  85      44CDA536 
  85      E2D7ABE5 
  85      72A9
  86 045c 4DEAEED4 		.ascii	"M\352\356\324\003\352\256\324f\330-8\327n\232Sr\271"
  86      03EAAED4 
  86      66D82D38 
  86      D76E9A53 
ARM GAS  /tmp/ccZOirIi.s 			page 7


  86      72B9
  87 046e 7F01B76F 		.ascii	"\177\001\267o:\022"
  87      3A12
  88              		.text
  89              		.section	.gnu.lto_ch_ltoa.4c33fb77ad90a972,"",%progbits
  90 0000 789C6362 		.ascii	"x\234cb`b@\007\322@\374\030\210M@\034\026\006F\240\012"
  90      60624007 
  90      D240FC18 
  90      884D401C 
  90      160646A0 
  91 0015 46264666 		.ascii	"F&Ff \311\314\310\010\024bd\250gbf\254\217\004\261\031"
  91      20C9CCC8 
  91      08146264 
  91      A8676266 
  91      AC8F04B1 
  92 002a 18951816 		.ascii	"\030\225\030\02664\314z\320\372l\206d\327\202\246\011"
  92      3634CC7A 
  92      D0FA6C86 
  92      64D782A6 
  92      09
  93 003b 0DFFFEFF 		.ascii	"\015\377\376\377g\314\004I%32D\000Y\214\012`\212\211"
  93      67CC0449 
  93      25333244 
  93      00598C0A 
  93      608A89
  94 004e 05D592F5 		.ascii	"\005\325\222\365L\007\036\374\377\377f\343\223\3073"
  94      4C071EFC 
  94      FFFF66E3 
  94      93C733
  95 005d 19055919 		.ascii	"\031\005Y\031\031s\031\031\230\200\004\320\212\\\220"
  95      19731919 
  95      988004D0 
  95      8A5C90
  96 006c 5AB0090C 		.ascii	"Z\260\011\014\254\014-\015\015\023\024\300f\001A\010"
  96      AC0C2D0D 
  96      0D1314C0 
  96      66014108 
  97 007c 980C0539 		.ascii	"\230\014\0059\210\371<C\373\203\031\311\211\214\213"
  97      88F93C43 
  97      FB8319C9 
  97      898C8B
  98 008b 185919D2 		.ascii	"\030Y\031\322\031Y\252\031~5t4\010d22'\203\335\310\000"
  98      1959AA19 
  98      7E357434 
  98      08643232 
  98      2783DDC8 
  99 00a0 14644C67 		.ascii	"\024dLgdJgd\006\331\016\264<\023\250\220\001\242\037"
  99      644A6764 
  99      06D90EB4 
  99      3C13A890 
  99      01A21F
 100 00b3 E815E6D3 		.ascii	"\350\025\346\323\014\215\034\014\014) \366E\006F\270"
 100      0C8D1C0C 
 100      0C2920F6 
 100      450646B8 
 101 00c3 39102521 		.ascii	"9\020%! 3@\001c\224\223\231\244\357\234\221\231\224"
 101      20334001 
ARM GAS  /tmp/ccZOirIi.s 			page 8


 101      63949399 
 101      A4EF9C91 
 101      9994
 102 00d5 E91F1C6F 		.ascii	"\351\037\034oh\246g\250g\242\257\237_\254\237\221\230"
 102      68A667A8 
 102      67A2AF9F 
 102      5FAC9F91 
 102      98
 103 00e6 A30F922A 		.ascii	"\243\017\222*.)JM\314-\326O\316((\312\314+I\323Kf\000"
 103      2E294A4D 
 103      CC2DD64F 
 103      CE2828CA 
 103      CC2B49D3 
 104 00fd 002FCD3E 		.ascii	"\000/\315>T"
 104      54
 105              		.text
 106              		.section	.gnu.lto_chvprintf.4c33fb77ad90a972,"",%progbits
 107 0000 789CCD3A 		.ascii	"x\234\315:\011tUE\262\3357\311K\362\262\261\204ld\203"
 107      09745545 
 107      B2DD37C9 
 107      4BF2B2B1 
 107      846C6483 
 108 0014 841012C8 		.ascii	"\204\020\022\310\276\020H\330\367Et\004\007D\205\020"
 108      BE1048D8 
 108      F7457404 
 108      07448510 
 109 0024 E0F13484 		.ascii	"\340\3614\204%APD^LD\204\000!!\020 \312\026d\025\374"
 109      25415044 
 109      5E4C4484 
 109      00212110 
 109      20CA1664 
 110 003a A24E4698 		.ascii	"\242NF\230!8\314\010\004A\344\363\361\011\363\207\357"
 110      2138CC08 
 110      0441E4F3 
 110      F109F387 
 110      EF
 111 004b AEF0C7CF 		.ascii	"\256\360\307\317A>\"8\231\252\276\335}\357}\017\216"
 111      413E2238 
 111      99AABEDD 
 111      7DEF7D0F 
 111      8E
 112 005c 17CE19CE 		.ascii	"\027\316\031\316\344\034\272n\327\326U\325U}\353\366"
 112      E41CBA6E 
 112      D7D655D5 
 112      557DEBF6 
 113 006c 43210A71 		.ascii	"C!\012q\375\013\363 \2445\235\220?\340d\014\241\300"
 113      FD0BF320 
 113      A4359D90 
 113      3FE0640C 
 113      A1C0
 114 007e 41150A48 		.ascii	"A\025\012H\352\241x\022\342P\274`\360\364\244\017\001"
 114      EAA17812 
 114      E250BC60 
 114      F0F4A40F 
 114      01
 115 008f C64BB120 		.ascii	"\306K\261 \306\0331\026:\0320\336\212\017b|\021\343"
 115      C61B3116 
ARM GAS  /tmp/ccZOirIi.s 			page 9


 115      3A1A30DE 
 115      8A0F627C 
 115      11E3
 116 00a1 4301505F 		.ascii	"C\001P_\305\212\030?\304X)\000\352G\375a\364W\002\020"
 116      C58A183F 
 116      C4582900 
 116      EA47FD61 
 116      F4570210 
 117 00b5 1F84F800 		.ascii	"\037\204\370\000%P>\007\322v@\015R\332 \246-b\3320L"
 117      25503E07 
 117      D276400D 
 117      52DA20A6 
 117      2D62DA30 
 118 00ca 5BDA1EC6 		.ascii	"[\332\036\306vL\266\275\022\214\324\216H\015V:\340s"
 118      764CB6BD 
 118      128CD48E 
 118      480D563A 
 118      E073
 119 00dc 283E7750 		.ascii	"(>wPB\344s\010\215\000\316P%\0141\341\210\011c\230p"
 119      42E47308 
 119      8D00CE50 
 119      250C31E1 
 119      88096398 
 120 00f1 0A623482 		.ascii	"\012b4\202\202\006\332Q\211Bj$R#\325\347X|\216R\242"
 120      8206DA51 
 120      89426A24 
 120      5223D5E7 
 120      587C8E52 
 121 0106 F139069F 		.ascii	"\3619\006\237\243)\000\032C\273\300\030\253tB|\034\342"
 121      A329001A 
 121      43BBC018 
 121      AB74427C 
 121      1CE2
 122 0118 3B299DE5 		.ascii	";)\235\345sg\032\017\32486\3063\316.\336\005\020\276"
 122      73671A0F 
 122      D43836C6 
 122      33CE2EDE 
 122      0510BE
 123 012b 34F8D713 		.ascii	"4\370\327\023\376\345\302\277\034\370\227\000\377\272"
 123      FEE5C2BF 
 123      1CF89700 
 123      FFBA
 124 0139 22A47D80 		.ascii	"\"\244}\200\247\253\222\210\032\272\241\206D\012\200"
 124      A7AB9288 
 124      1ABAA186 
 124      440A80
 125 0148 76539210 		.ascii	"vS\222\020\223\214\230$\012\200&\323\0360vgc\017%\005"
 125      938C9824 
 125      0A8026D3 
 125      1E307667 
 125      630F2505 
 126 015c A9A9484D 		.ascii	"\251\251HMQ\272\313\347T\246-MIGL\006b\322i&`2\330\230"
 126      51BACBE7 
 126      54A62D4D 
 126      49474C06 
 126      62D26926 
 127 0174 A964213E 		.ascii	"\251d!>\033\361Y\024\000\315f\37494\017\306\\6\366d"
ARM GAS  /tmp/ccZOirIi.s 			page 10


 127      1BF15914 
 127      00CD66FC 
 127      39340FC6 
 127      5C36F664 
 128 0188 639ED20B 		.ascii	"c\236\322\0139{#g/\232\017\230\336l\314g\374\005l\354"
 128      397B2367 
 128      2F9A0F98 
 128      DE6CCC67 
 128      FC056CEC 
 129 019c A3F4459E 		.ascii	"\243\364E\236~\310\323\227\002\240\315D\351\217\250"
 129      7EC8D397 
 129      02A0CD44 
 129      E98FA8
 130 01ab 01883A42 		.ascii	"\001\210:B(@\372\001Q\006\"n(\342\376D\224A8\031\202"
 130      2840FA01 
 130      5106226E 
 130      28E2FE44 
 130      94413819 
 131 01c0 93A34419 		.ascii	"\223\243D\031,'\177&\024 \375\013aS\225\373CB\207\003"
 131      2C277F26 
 131      1420FD0B 
 131      615395FB 
 131      43428703 
 132 01d4 EE980A8E 		.ascii	"\356\230\012\216\023e\030\222F \351\004\241\243\000"
 132      13651892 
 132      4620E904 
 132      A1A300
 133 01e3 D7A28293 		.ascii	"\327\242\202\223D\031\211\244\321H\372\210\260\014="
 133      441989A4 
 133      D148FA88 
 133      B00C3D
 134 01f2 452885F0 		.ascii	"E(\205\360R\262X\361\360\364\262x\373\370Z\375\374\003"
 134      52B258F1 
 134      F0F4B278 
 134      FBF85AFD 
 134      FC03
 135 0204 0283DAB4 		.ascii	"\002\203\332\264m\327>\270CHhXxD\307\310\250\350\230"
 135      6DD73EB8 
 135      43486858 
 135      7844C7C8 
 135      A8E898
 136 0217 D84E9DE3 		.ascii	"\330N\235\343\342\273$tM\354\226\224\334\275GJjZzFf"
 136      E2BB2474 
 136      4DEC9694 
 136      DCBD474A 
 136      6A5A7A46 
 137 022c 56764E6E 		.ascii	"VvNn\317\274^\275\363\013\372\364m&G\310\007\344O\344"
 137      CFBC5EBD 
 137      F30BFAF4 
 137      6D2647C8 
 137      07E44FE4 
 138 0240 28F933F9 		.ascii	"(\3713\371\013\371\220\034#\307\311\011\322BN\222\217"
 138      0BF9901C 
 138      23C7C909 
 138      D2424E92 
 138      8F
 139 0251 08ACB178 		.ascii	"\010\254\261x\002\256\002\224\316d\213\303Qs\351\253"
ARM GAS  /tmp/ccZOirIi.s 			page 11


 139      02AE0294 
 139      CE648BC3 
 139      5173E9AB 
 140 0261 6DDFD1F5 		.ascii	"m\337\321\365k\232+7;n\267\266Rj\247PV\331\224\024Q"
 140      6B9A2B37 
 140      3B6EB7B6 
 140      526AA750 
 140      56D99414 
 141 0276 321E2634 		.ascii	"2\036&4\226\001,\036\375\037\223\255o>p\242e\013u\324"
 141      96012C1E 
 141      FD1F93AD 
 141      6F3E70A2 
 141      650B75D4 
 142 028a 38CAFFAF 		.ascii	"8\312\377\257\2655\310\216^\230\020\253i~\357D\225\265"
 142      B535C88E 
 142      5E9810AB 
 142      697EEF44 
 142      95B5
 143 029c BA7CA9A3 		.ascii	"\272|\251\243\265u\261\235z\232\023r\274\275\323\341"
 143      B575B19D 
 143      7A9A1372 
 143      BCBDD3E1 
 144 02ac CB6CF4B0 		.ascii	"\313l\364\260S/\223\013\235[\266*t\331%G\265\343\037"
 144      532F930B 
 144      9D5BB62A 
 144      74D92547 
 144      B5E31F
 145 02bf E09A9D5A 		.ascii	"\340\232\235Z41\037U\214\336Q\354\277O,\267\276\345"
 145      34311F55 
 145      8CDE51EC 
 145      BF4F2CB7 
 145      BEE5
 146 02d1 E0F69915 		.ascii	"\340\366\231\025\272ubU\370\262\315/\211\265 \212\275"
 146      BA756255 
 146      F8B2CD2F 
 146      89B5208A 
 146      BD
 147 02e2 4D45B1A6 		.ascii	"ME\261\246\271\266e\245^\322\373>\002bN\246\332 cn\267"
 147      B9B665A5 
 147      5ED2FB3E 
 147      02624EA6 
 147      DA20636E 
 148 02f7 AA9BD7B7 		.ascii	"\252\233\327\267\254\325\233gR\314q\375\313\207\217"
 148      ACD59B67 
 148      52CC71FD 
 148      CB878F
 149 0306 392A9B5B 		.ascii	"9*\233[[\373\232O\214\003-k\\b\330\337d\014\017\266"
 149      5BFB9A4F 
 149      8C032D6B 
 149      5C62D8DF 
 149      640C0FB6 
 150 031a ACFA778E 		.ascii	"\254\372w\216\341\331\226\272{\217aM\363\337ZV\334O"
 150      E1D996BA 
 150      7B8F614D 
 150      F3DF5A56 
 150      DC4F
 151 032c FE5E750B 		.ascii	"\376^u\013\343PSa\254n\276\261\374u\203\235\012\031"
ARM GAS  /tmp/ccZOirIi.s 			page 12


 151      E3505361 
 151      AC6EBEB1 
 151      FC75839D 
 151      0A19
 152 033e 6D52F297 		.ascii	"mR\362\227\226\023\367s\024\324\236\252\322/\350\243"
 152      9613F773 
 152      14D49EAA 
 152      D22FE8A3 
 153 034e 90C7CCED 		.ascii	"\220\307\314\355\270\343\017\272\374\372\367\332\356"
 153      B8E30FBA 
 153      FCFAF7DA 
 153      EE
 154 035b 1AC7EF2F 		.ascii	"\032\307\357/>\\/l3\273i\033W\256y0\031\014ev\252\356"
 154      3E5C2F6C 
 154      33BB691B 
 154      57AE7930 
 154      190C6576 
 155 0371 7ED2EAEC 		.ascii	"~\322\352\354\251\007tN\3254\237?\265\342A-\365\331"
 155      A907744E 
 155      D5349F3F 
 155      B5E2412D 
 155      F5D9
 156 0383 29DDCB08 		.ascii	")\335\313\010\362o\242\311\023\347\354\351\007\025\015"
 156      F26FA2C9 
 156      13E7ECE9 
 156      07150D
 157 0392 838CAF49 		.ascii	"\203\214\257I\267\376\353\264\316\255\007e\234\325\244"
 157      B7FEEBB4 
 157      CEAD0765 
 157      9CD5A4
 158 03a1 71CE5586 		.ascii	"q\316U\206\343\320\254\330\337N\273\036\026\223M\236"
 158      E3D0ACD8 
 158      DF4EBB1E 
 158      16934D9E 
 159 03b1 4E3FEAA3 		.ascii	"N?\352\243\001\247\3324sr\306\342W\310\323&s\343\326"
 159      01A7DA34 
 159      7372C6E2 
 159      57C8D326 
 159      73E3D6
 160 03c4 AAB5FA02 		.ascii	"\252\265\372\002\3633Y`\253k\356\253]\251\375\304\020"
 160      F3335960 
 160      AB6BEEAB 
 160      5DA9FDC4 
 160      10
 161 03d5 967F6143 		.ascii	"\226\177aCe\220\201\360\3172yV\357\333\351\360\020b"
 161      659081F0 
 161      CF327956 
 161      EFDBE9F0 
 161      1062
 162 03e7 66BD6AF8 		.ascii	"f\275j\370\344\0015\211\277\373\304\320\304>\300\360"
 162      E4013589 
 162      BFFBC4D0 
 162      C43EC0F0 
 163 03f7 95FD0BC3 		.ascii	"\225\375\013\303\367\361\203\012\337\365\017\253\302"
 163      F7F1830A 
 163      DFF50FAB 
 163      C2
ARM GAS  /tmp/ccZOirIi.s 			page 13


 164 0404 1D86A27C 		.ascii	"\035\206\242|\316\244[\007\247\312\0278H-4)u\346\011"
 164      CEA45B07 
 164      A7CA1738 
 164      482D3429 
 164      75E609
 165 0417 EDD5AA90 		.ascii	"\355\325\252\220E\324T8\034\347\015R\213MIA;\364a\213"
 165      45D45438 
 165      1CE70D52 
 165      8B4D4941 
 165      3BF4618B 
 166 042b BEA751C8 		.ascii	"\276\247Q\310\022j\362\340xW\363\015\304\226\232\025"
 166      126AF2E0 
 166      7857F30D 
 166      C4969A15 
 167 043b BB6010AB 		.ascii	"\273`\020\2531)\326|\323\325\316zs\222pR\275R\025\352"
 167      3129D67C 
 167      D3D5CE7A 
 167      73927052 
 167      BD5215EA 
 168 044f D09D540A 		.ascii	"\320\235T\012\331@M\206\364\254\026R\020\333jN\014\032"
 168      D9404D86 
 168      F4AC1652 
 168      10DB6A4E 
 168      0C1A
 169 0461 C5570CF9 		.ascii	"\305W\014\371\342\257\2207M\031\333\\\335\274v\204\374"
 169      E2AF9037 
 169      4D19DB5C 
 169      DDBC7684 
 169      FC
 170 0472 2A0B50C8 		.ascii	"*\013P\310~\235\330dU\314\337(\266_i\276\324\332\332"
 170      7E9DD864 
 170      55CCDF28 
 170      B65F69BE 
 170      D4DADA
 171 0485 70F850D5 		.ascii	"p\370P\325EzBy\013\370gb3\014\203\007\016\2368x\341"
 171      457A4279 
 171      0BF86762 
 171      330C8307 
 171      0E9E3878 
 172 049a 60C1C11B 		.ascii	"`\301\301\033\007\037\034|q\260\222B\372\015\355L\374"
 172      071F1C7C 
 172      71B09242 
 172      FA0DED4C 
 172      FC
 173 04ab 38F4E730 		.ascii	"8\364\3470\000\340w\000\0039\014\342\260\015\207m9l"
 173      00E07700 
 173      03390CE2 
 173      B00D876D 
 173      396C
 174 04bd 07F032C0 		.ascii	"\007\3602\300\366\034\006s\330\201\303\020\016C9\014"
 174      F61C0673 
 174      D881C310 
 174      0E43390C 
 175 04cd 03F8BF00 		.ascii	"\003\370\277\000\3039\214\000\370\003\300\216\034Fr"
 175      C3398C00 
 175      F803C08E 
 175      1C4672
ARM GAS  /tmp/ccZOirIi.s 			page 14


 176 04dc 1805F02A 		.ascii	"\030\005\360*\300h\016c8\214\345\260\023\300k\000;s"
 176      C0680E63 
 176      388CE5B0 
 176      13C06B00 
 176      3B73
 177 04ee 18C7613C 		.ascii	"\030\307a<\207]8L\340\260+\300\353\000\0239\354\306"
 177      875D384C 
 177      E0B02BC0 
 177      EB001339 
 177      ECC6
 178 0500 611287C9 		.ascii	"a\022\207\311\034v\347\260\007\300\033\000S\000\336"
 178      1C76E7B0 
 178      07C01B00 
 178      5300DE
 179 050f 04980AF0 		.ascii	"\004\230\012\360\026\3004\016\3239\314\000\330\0040"
 179      16C0340E 
 179      D339CC00 
 179      D80430
 180 051e 93CB6551 		.ascii	"\223\313eQ\010j6L\266\300$\007#\234\313=\357I g\363"
 180      086A364C 
 180      B6C02407 
 180      239CCB3D 
 180      EF492067 
 181 0533 804C7BC1 		.ascii	"\200L{\301\223go\030\274\362\271T\001\217z\037\036\325"
 181      93676F18 
 181      BCF2B954 
 181      018F7A1F 
 181      1ED5
 182 0545 BE7CD57E 		.ascii	"\276|\325~\300d\351\217Z\006p\314@\036\267AH\031\214"
 182      C064E98F 
 182      5A0670CC 
 182      401EB741 
 182      48198C
 183 0558 94211C33 		.ascii	"\224!\0343\224{:\014\340N\200\303\2218\202/>\222\303"
 183      947B3A0C 
 183      E04E80C3 
 183      9138822F 
 183      3E92C3
 184 056b 5120E63D 		.ascii	"Q \346=\032\207\207\320\2341\034\3750\217\352#\000\367"
 184      1A8787D0 
 184      9C311CFD 
 184      308FEA23 
 184      00F7
 185 057d 03FC0DCA 		.ascii	"\003\374\015\312>\312\211c9\034\207b\217\341\360[\224"
 185      3ECA8963 
 185      391C8762 
 185      8FE1F05B 
 185      94
 186 058e 1DCFD113 		.ascii	"\035\317\321\023\270\354\343\210\234\310'O\360\260<"
 186      B8ECE388 
 186      9CC8274F 
 186      F0B03C
 187 059d C9E1533C 		.ascii	"\311\341S<\234\2238\234\214\346\027\302\344=\230L\301"
 187      9C93389C 
 187      8CE617C2 
 187      E43D984C 
 187      C1
ARM GAS  /tmp/ccZOirIi.s 			page 15


 188 05ae D58AB8BA 		.ascii	"\325\212\270\272\251\250f\032\367i:\300\203\000m<>3"
 188      A9A8661A 
 188      F7693AC0 
 188      83006D3C 
 188      3E33
 189 05c0 70753B0E 		.ascii	"pu;\016O#\3333\250\245\230\363\316Dt\011\016\263x\024"
 189      4F23DB33 
 189      A8A598F3 
 189      CE447409 
 189      0EB37814 
 190 05d4 67733887 		.ascii	"gs8\207\0335\227k)E\2612\216\234\307\221\317\242\344"
 190      1B35976B 
 190      2945B132 
 190      8E9CC791 
 190      CFA2E4
 191 05e7 7C1C16F0 		.ascii	"|\034\026\360\255}\016'\317\343\260\220c^\000x\014\340"
 191      AD7D0E27 
 191      CFE3B090 
 191      635E0078 
 191      0CE0
 192 05f9 222EF322 		.ascii	"\".\363\"\307/\346s\007\345N\224\213\207\227\304C\005"
 192      C72FE673 
 192      07E54E94 
 192      8B8797C4 
 192      4305
 193 060b 4545956C 		.ascii	"EE\225l|\031G\337%\224K\277\302\220K\331\370*\216\326"
 193      7C1947DF 
 193      25944BBF 
 193      C2904BD9 
 193      F82A8ED6 
 194 061f 6582B49C 		.ascii	"e\202\264\234M\253(\327\277\002\037\316\300\303J\201"
 194      4DAB28D7 
 194      BF021FCE 
 194      C0C34A81 
 195 062f 59850F67 		.ascii	"Y\205\017g\341\241\032\037\316\301\303j\312+\250\206"
 195      E1A11A1F 
 195      CEC1C36A 
 195      CA2BA886 
 196 063f F284A815 		.ascii	"\362\204\250\025\017kP\233_\235\230\256\305\251e\035"
 196      0F6B509B 
 196      5F9D98AE 
 196      C5A9651D 
 197 064f 8E9EF538 		.ascii	"\216\236\3658z\255G\322\005 m\240<t\033\031O\003\345"
 197      7AAD47D2 
 197      05206DA0 
 197      3C741B19 
 197      4F03E5
 198 0662 79FA9A50 		.ascii	"y\372\232P\376:\223\332\304\2446\013\352\026\241y\253"
 198      FE3A93DA 
 198      C4A4360B 
 198      EA16A179 
 198      AB
 199 0673 60DBC6D8 		.ascii	"`\333\306\330\032\031\333vD~\016\3107\204\362\035L\371"
 199      1A19DB76 
 199      447E0EC8 
 199      3784F21D 
 199      4CF9
ARM GAS  /tmp/ccZOirIi.s 			page 16


 200 0685 4E21BE8B 		.ascii	"N!\276\2131\357f\314{\004r\257\320\371&\342=\366\261"
 200      31EF66CC 
 200      7B0472AF 
 200      D0F926E2 
 200      3DF6B1
 201 0698 71BF40C2 		.ascii	"q\277@\302\237\027\251\204\3636V\015\207\252W\215\270"
 201      9F17A984 
 201      F336560D 
 201      87AA578D 
 201      B8
 202 06a9 9A15AA1D 		.ascii	"\232\025\252\035\352V\2532\252^5\015\325\232Rc]H\177"
 202      EA56AB32 
 202      AA5E350D 
 202      D59A5263 
 202      5D487F
 203 06bc C1F4C3CB 		.ascii	"\301\364\303\313\364\"v\246\217e\3438Dx|D^j\252o\355"
 203      F42276A6 
 203      8F65E338 
 203      44787C44 
 203      5E6AAA6F 
 204 06d1 59485BA1 		.ascii	"YH[\241c\260\321\314\361\352\365\206\3727\016\037\221"
 204      63B0D1CC 
 204      F1EAF586 
 204      FA370E1F 
 204      91
 205 06e2 A5E5A76D 		.ascii	"\245\345\247m\337Q\301\223m\303\213\316\217H\305r\017"
 205      DF51C193 
 205      6DC38BCE 
 205      8F48C572 
 205      0F
 206 06f3 81CA01AC 		.ascii	"\201\312\001\254|g\000\377\373/G\013R\356F\262\241\334"
 206      7C6700FF 
 206      FB2F470B 
 206      52EE46B2 
 206      A1DC
 207 0705 E17064DA 		.ascii	"\341pd\332i \347\022\352\217\221\243\337\034\371\217"
 207      6920E712 
 207      EA8F91A3 
 207      DF1CF98F 
 208 0715 65FE9215 		.ascii	"e\376\222\025\211A\332\371\357$\324F\263\024\030|GS"
 208      8941DAF9 
 208      EF24D446 
 208      B314187C 
 208      4753
 209 0727 27E90AE6 		.ascii	"'\351\012\346)'\017G\332h\367\321\024\215\363T\215;"
 209      29270F47 
 209      DA68F7D1 
 209      148DF354 
 209      8D3B
 210 0739 BEF30D69 		.ascii	"\276\363\015i[O\033\355\212\026|pYQQ\252\363Y\344\200"
 210      5B4F1BED 
 210      8A167C70 
 210      595151AA 
 210      F359E480 
 211 074d 6329280F 		.ascii	"c)(\017\220\216A{\344q\214T^9\362\256\353\372]to\240"
 211      908E417B 
 211      E4718C54 
ARM GAS  /tmp/ccZOirIi.s 			page 17


 211      5E39F2AE 
 211      EBFA5D74 
 212 0763 71D8AFE1 		.ascii	"q\330\257\341\032\237\375\364F\236`\353\225L\222`?\301"
 212      1A9FFDF4 
 212      469E60EB 
 212      954C9260 
 212      3FC1
 213 0775 2F606F63 		.ascii	"/`oc\243y(\326\226\361O\221\276\201\314\343B\240w2\331"
 213      A37928D6 
 213      96F14F91 
 213      BE81CCE3 
 213      42A07732 
 214 078a ED6863A7 		.ascii	"\355hc\247\355T\221\366\240b\274\332\3503\021!s\232"
 214      ED5491F6 
 214      A062BCDA 
 214      E8331121 
 214      739A
 215 079c 78A91204 		.ascii	"x\251\022\004ep\310\003\233\354\370c\001\004{i\305\265"
 215      6570C803 
 215      9BECF863 
 215      01047B69 
 215      C5B5
 216 07ae 35614263 		.ascii	"5aBc>\270\311v\012e\277'\216\252\213g#\205\254j\267"
 216      3EB8C976 
 216      0A65BF27 
 216      8EAA8B67 
 216      2385AC6A 
 217 07c3 B76AF7CF 		.ascii	"\267j\367\317\025\277\004\013\241\202\205\344g"
 217      15BF040B 
 217      A18285E4 
 217      67
 218 07d0 87BA131D 		.ascii	"\207\272\023\035\324\260\010K\177\256\330V\347-\330"
 218      D4B0084B 
 218      7FAED856 
 218      E72DD8
 219 07df FADC95AD 		.ascii	"\372\334\225\255\251i\367\021E\260\365\035\257~\031"
 219      A969F711 
 219      45B0F51D 
 219      AF7E19
 220 07ee F1FDDE53 		.ascii	"\361\375\336S'w\274\237\352&\354v\216\353n\227\247K"
 220      2777BC9F 
 220      EA26EC76 
 220      8EEB6E97 
 220      A74B
 221 0800 2616EB1E 		.ascii	"&\026\353\036\206X\3730\233+\226W\354\257\213\020|\375"
 221      8658FB30 
 221      9B2B9657 
 221      ECAF8B10 
 221      7CFD
 222 0812 B9169159 		.ascii	"\271\026\221YM\365{\316H\033\0060\033\250T\340\313\023"
 222      4DF57BCE 
 222      481B0630 
 222      1BA854E0 
 222      CB13
 223 0824 FAD33DFF 		.ascii	"\372\323=\377#3b \362Xb\205\235\2075;\007I;\225\273"
 223      23336220 
 223      F2586285 
ARM GAS  /tmp/ccZOirIi.s 			page 18


 223      9D87353B 
 223      07493B95 
 224 0839 DB3988D9 		.ascii	"\3339\210\331\231\246\313I\005,\362\276}\246\014l\363"
 224      99A6CB49 
 224      052CF2BE 
 224      7DA60C6C 
 224      F3
 225 084a 39746E86 		.ascii	"9tn\206\223\244@0\274\033\316m\206<\035\340s\362\334"
 225      93A44030 
 225      BC1BCE6D 
 225      863C1DE0 
 225      73F2DC
 226 085d 4E969B56 		.ascii	"N\226\233V\341\313\027\232/\203\371J\322\227\246}W\245"
 226      E1CB179A 
 226      2F83F94A 
 226      D297A67D 
 226      57A5
 227 086f 9D43989D 		.ascii	"\235C\230\235i\322\027?\356\313O\373\234\222g\250\256"
 227      69D2173F 
 227      EECB4FFB 
 227      9C9267A8 
 227      AE
 228 0880 3A9DC403 		.ascii	":\235\304\003\324\371\302\242\203\255U\347\301\2140"
 228      D4F9C2A2 
 228      83AD55E7 
 228      C18C30
 229 088f F0D5F7CA 		.ascii	"\360\325\367\312\271\331\240\312\332p~\001\352\360\347"
 229      B9D9A0CA 
 229      DA707E01 
 229      EAF0E7
 230 089e D5DBB4FF 		.ascii	"\325\333\264\377\246\3241\314\206\211g\250\336\341\200"
 230      A6D431CC 
 230      868967A8 
 230      DEE180
 231 08ad 3556EF74 		.ascii	"5V\357tA\032\301\2537\227\305i\230K\234\276>\362\313"
 231      411AC1AB 
 231      3797C569 
 231      984B9CBE 
 231      3EF2CB
 232 08c0 B200C9CA 		.ascii	"\262\000\311\312\034H\325E\312\323F=\374\300\300\341"
 232      1C48D545 
 232      CAD3463D 
 232      FCC0C0E1 
 233 08d0 ED2E9E7F 		.ascii	"\355.\236\177\301I:\201\003~\207\316\027\333\340M\334"
 233      C1493A81 
 233      037E87CE 
 233      17DBE04D 
 233      DC
 234 08e1 EEA4B30C 		.ascii	"\356\244\263\014-\014P\313\020\025\205\030\024\005\345"
 234      2D0C50CB 
 234      10158518 
 234      1405E5
 235 08f0 19522350 		.ascii	"\031R#P\015\347\322\212\326\272\216\202o\244X\363c-"
 235      0DE7D28A 
 235      D6BA8E82 
 235      6FA458F3 
 235      632D
ARM GAS  /tmp/ccZOirIi.s 			page 19


 236 0902 0382983E 		.ascii	"\003\202\230>8VV\267\004\031\365%\031\364\265\341e\335"
 236      385656B7 
 236      0419F525 
 236      19F4B5E1 
 236      65DD
 237 0914 F4B676AE 		.ascii	"\364\266v\256\215\3022u`\241z\317\244\036S\250\370y"
 237      8DC23275 
 237      60A17ACF 
 237      A41E53A8 
 237      F879
 238 0926 D210ABD1 		.ascii	"\322\020\253\321\300'[\\\3200\\%\334Q\324\206\277Jb"
 238      C0275B5C 
 238      D0305C25 
 238      DC51D486 
 238      BF4A62
 239 0939 3CBD84F4 		.ascii	"<\275\204\364Cj8\201\317\203\353\011\321\316\213\313"
 239      436A3881 
 239      CF83EB09 
 239      D1CE8BCB 
 240 0949 1525826F 		.ascii	"\025%\202o\214\015\177\342\304\277\261x\262x\214\303"
 240      8C0D7FE2 
 240      C4BFB178 
 240      B2788CC3 
 241 0959 5F213100 		.ascii	"_!1\000\313*\016\254\355!\270\336\204\330vb)aU5\374"
 241      CB2A0EAC 
 241      ED21B8DE 
 241      84D87662 
 241      29615535 
 242 096e BDE27BE9 		.ascii	"\275\342{\351\315> \266\343'\307\263\002\271\237\252"
 242      CD3E20B6 
 242      E327C7B3 
 242      02B99FAA 
 243 097e 52FBA8BA 		.ascii	"R\373\250\272C\355 \212\201\267qK\306\264Y3\001\003"
 243      43ED208A 
 243      81B7714B 
 243      C6B45933 
 243      0103
 244 0990 D35E94D0 		.ascii	"\323^\224\320\001-e\036\226i\307B\273i\271\2771\264"
 244      012D651E 
 244      9669C742 
 244      BB69B9BF 
 244      31B4
 245 09a2 2986D006 		.ascii	")\206\320\006\213\244{\357\270,\324Glx4\031\002\371"
 245      8BA47BEF 
 245      B82CD447 
 245      6C783419 
 245      02F9
 246 09b4 1BC01A93 		.ascii	"\033\300\032\223Nz\377(O\272\336,\351\036qK\272w\227"
 246      4E7AFF28 
 246      4FBADE2C 
 246      E91E714B 
 246      BA7797
 247 09c7 074A56B7 		.ascii	"\007JV\267\244\363\202|k\017\371\006+D4\\h\204\367F"
 247      A4F3827C 
 247      6B0FF906 
 247      2B44345C 
 247      6884F746 
ARM GAS  /tmp/ccZOirIi.s 			page 20


 248 09db 1478D0FE 		.ascii	"\024x\320\376\212\0230\023#\032\376\272\227\225g\007"
 248      8A133013 
 248      231AFEBA 
 248      97956707 
 249 09eb 9177EF2E 		.ascii	"\221w\357.\0175\350r\311\273\020\221w?\254\215\022|"
 249      0F35E872 
 249      C9BB1091 
 249      773FAC8D 
 249      127C
 250 09fd 63C5B2BA 		.ascii	"c\305\262\272\274\013\025y\367\373\226`\243>c\336\205"
 250      BC0B1579 
 250      F7FB9660 
 250      A33E63DE 
 250      85
 251 0a0e 89BCFB9D 		.ascii	"\211\274\373\235\026\336qf\362\3561\3403\237w\217\271"
 251      16DE7166 
 251      F2EE31E0 
 251      339F778F 
 251      B9
 252 0a1f E4DD6FF5 		.ascii	"\344\335o\365y7\316-\357d~\214\007V\221w\341,\357\""
 252      7937CE2D 
 252      EF647E8C 
 252      07569177 
 252      E12CEF22 
 253 0a33 44DE6D5B 		.ascii	"D\336m[\227,\270&\330h\2241\355\266\313 >n\303\024\302"
 253      972CB826 
 253      D8689431 
 253      EDB6CB20 
 253      3E6EC314 
 254 0a48 9049D327 		.ascii	"\220I\323'2\354\004u{\340\34576\344\320\0058=\307\207"
 254      32EC0475 
 254      7BE0E537 
 254      36E4D005 
 254      383DC787 
 255 0a5c FDE7440C 		.ascii	"\375\347D\014IG\021\272\013Z^\005\263\320\025\353\266"
 255      494711BA 
 255      0B5A5E05 
 255      B3D015EB 
 255      B6
 256 0a6d D5A26D6B 		.ascii	"\325\242mk\270\272\255\301\220~\200\231\012\201\006"
 256      B8BAADC1 
 256      907E8099 
 256      0A8106
 257 0a7c 4CB19344 		.ascii	"L\261\223D\313}\216\012g\233\034\251i\356`\324<\312"
 257      CB7D8E0A 
 257      679B1CA9 
 257      69EE60D4 
 257      3CCA
 258 0a8e B0295122 		.ascii	"\260)Q\"\347\017j\2332I\276Z\324\327\306:y\354L\226"
 258      E70F6A9B 
 258      3249BE5A 
 258      D4D7C63A 
 258      79EC4C96 
 259 0aa2 AF0D8B31 		.ascii	"\257\015\21313+\257\224gK&\227V\006\227\211\346\205"
 259      332BAF94 
 259      674B2697 
 259      56069789 
ARM GAS  /tmp/ccZOirIi.s 			page 21


 259      E685
 260 0ab4 51FF47AD 		.ascii	"Q\377G\2550\012m\330a\030vz\012`\357R\030E\206\302("
 260      300A6DD8 
 260      6118767A 
 260      0A60EF52 
 260      184586C2 
 261 0ac9 D42FAF2E 		.ascii	"\324/\257.\021\003K`\264\274Am\024\324\371\224\350z"
 261      11034B60 
 261      B4BC416D 
 261      14D4F994 
 261      E87A
 262 0adb 2F27E900 		.ascii	"/'\351\000n\343\254(\272\311\003\271b\325\270|}\344"
 262      6EE3AC28 
 262      BAC903B9 
 262      62D5B87C 
 262      7DE4
 263 0aed C6F26843 		.ascii	"\306\362hC\\,\375\014\332:\361\"\241\306\340=n`\352"
 263      5C2CFD0C 
 263      DA3AF122 
 263      A1C6E03D 
 263      6E60EA
 264 0b00 AC7A253B 		.ascii	"\254z%;\310'd_\242\322\343\\\350O\272t\230\361*\375"
 264      C827645F 
 264      A2D2E35C 
 264      E84FBA74 
 264      98F12AFD 
 265 0b14 EF152F0A 		.ascii	"\357\025/\012\216\247l4C\335\364\014P\327\371\0308\363"
 265      8EA76C34 
 265      43DDF40C 
 265      50D7F918 
 265      38F3
 266 0b26 641CE3ED 		.ascii	"d\034\343\355\"xo\255\223\251\015\373\017\271|\222H"
 266      22786FAD 
 266      93A90DFB 
 266      0FB97C92 
 266      48
 267 0b37 4FA6AE20 		.ascii	"O\246\256 U\345\225\216\346\213Av,K\002\235\257\332"
 267      55E5958E 
 267      E68B4176 
 267      2C4B029D 
 267      AFDA
 268 0b49 69717C53 		.ascii	"iq|S \340\231\267\203\030\321KO<$\211\303\335\211MA"
 268      20E099B7 
 268      8318D14B 
 268      4F3C2489 
 268      C3DD894D 
 269 0b5e 82388611 		.ascii	"\2028\206\021-z\342[\2228\216\021\275\365\304zI\034"
 269      2D7AE25B 
 269      92388E11 
 269      BDF5C47A 
 269      491C
 270 0b70 CF883E7A 		.ascii	"\317\210>z\342?\374\004\261\210\021}\365\304\367\245"
 270      E23FFC04 
 270      B188117D 
 270      F5C4F7A5 
 271 0b80 4153DD0D 		.ascii	"AS\335\015\372\243$\332\335\211\357\3135g\271[\273V"
 271      FAA324DA 
ARM GAS  /tmp/ccZOirIi.s 			page 22


 271      DD89EFCB 
 271      3567B95B 
 271      BB56
 272 0b92 4A9632A2 		.ascii	"J\2262\242UO|[J\316swe\203$.\320\271\242\356\227\217"
 272      554F7C5B 
 272      4ACE7377 
 272      6583242E 
 272      D0B9A2EE 
 273 0ba8 8D7AC740 		.ascii	"\215z\307@\242Y\342\241>Cl\264\003N\202q\322\003**\346"
 273      A259E2A1 
 273      3E436CB4 
 273      034E8271 
 273      D2032A2A 
 274 0bbd CA5FA136 		.ascii	"\312_\2416\237\212\177g\022\356e\002\354e\013)\367Q"
 274      9F8A7F67 
 274      12EE6502 
 274      EC650B29 
 274      F751
 275 0bcf B78D79CD 		.ascii	"\267\215y\315\332\273\317\265\226h\232\276u;\336\364"
 275      DABBCFB5 
 275      96689ABE 
 275      753BDEF4 
 276 0bdf F9714999 		.ascii	"\371qI\231\016\335\254K\331\330\000\253/\233\317>\226"
 276      0EDDAC4B 
 276      D9D800AB 
 276      2F9BCF3E 
 276      96
 277 0bf0 1DED0C33 		.ascii	"\035\355\0143\007\254\035\370\314\037\260v\227\003\366"
 277      07AC1DF8 
 277      CC1FB076 
 277      9703F6
 278 0bff 69FD013B 		.ascii	"i\375\001;\303\355\200\235+\370\236\001V\275z^\320\020"
 278      C3ED809D 
 278      2BF89E01 
 278      56BD7A5E 
 278      D010
 279 0c11 530BB7DF 		.ascii	"S\013\267\337\207\257\360\214(\220\256.\201\262\362"
 279      87AFF08C 
 279      2890AE2E 
 279      81B2F2
 280 0c20 407DA105 		.ascii	"@}\241\005\252X\037\250\317\232\276\320\272\364\231"
 280      AA581FA8 
 280      CF9ABED0 
 280      BAF499
 281 0c2f 665C2F01 		.ascii	"f\\/\001>\363\256\227\360S\351y!>K\372\356\303\025\205"
 281      3EF3AE97 
 281      F053E979 
 281      213E4BFA 
 281      EEC31585 
 282 0c43 F155582B 		.ascii	"\361UX+-\317\304Y\232{\262\372\023\305g\312\301\006"
 282      2DCFC459 
 282      9A7BB2FA 
 282      13C567CA 
 282      C106
 283 0c55 79C0CEC6 		.ascii	"y\300\316\306\017\220zv\312\205G\223\367\350k\216\372"
 283      0F907A76 
 283      CA854793 
ARM GAS  /tmp/ccZOirIi.s 			page 23


 283      F7E86B8E 
 283      FA
 284 0c66 7E767C11 		.ascii	"~v|\021ib\335\304\311\276i\245\354?\243\015\007\013"
 284      6962DDC4 
 284      C9BE69A5 
 284      EC3FA30D 
 284      070B
 285 0c78 A66300AC 		.ascii	"\246c\000\254\331\365\342\325\005\2402\361\312\325b"
 285      D9F5E2D5 
 285      05A032F1 
 285      CAD562
 286 0c87 144C129F 		.ascii	"\024L\022\237\274_;e\214\3460\301\326V\355\314J\346"
 286      BC5F3B65 
 286      8CE630C1 
 286      D656EDCC 
 286      4AE6
 287 0c99 1F964D5F 		.ascii	"\037\226M_k1\236kS\277\036\235$\006\326\352\006\211"
 287      6B319E6B 
 287      53BF1E9D 
 287      2406D6EA 
 287      0689
 288 0cab 3D27A9EA 		.ascii	"='\251\352\232\332Mt\027\315\3767\015O\011\376y6j5\\"
 288      9ADA4D74 
 288      17CDFE37 
 288      0D4F09FE 
 288      79366A35 
 289 0cc0 A38EC3FF 		.ascii	"\243\216\303\377G\345\301B\267Oj-U_&\026\316,\242\303"
 289      47E5C142 
 289      B74F6A2D 
 289      555F2616 
 289      CE2CA2C3 
 290 0cd4 5E26B281 		.ascii	"^&\262\201-u\373.\266\202=\311\337B\252\315\353\376"
 290      2D75FB2E 
 290      B6823DC9 
 290      DF42AACD 
 290      EBFE
 291 0ce6 AD9F93C4 		.ascii	"\255\237\223\304\332hL2XT\326\375[/\\(\205w-r\207\341"
 291      DA684C32 
 291      5854D6FD 
 291      5B2F5C28 
 291      85772D72 
 292 0cfc 751BCBBD 		.ascii	"u\033\313\275\344\177t1[\345\033iI\231K\370\260\005"
 292      E47F7431 
 292      5BE51B69 
 292      49994BF8 
 292      B005
 293 0d0e 48652D40 		.ascii	"He-@\232K\002z\251\366\0359\243\305\276\207\374\030"
 293      9A4B027A 
 293      A9F61D39 
 293      A3C5BE87 
 293      FC18
 294 0d20 D4F6285D 		.ascii	"\324\366(]\264:\337k-\366\263f\322q>\360\231O\307\371"
 294      B43ADF6B 
 294      2DF6B366 
 294      D2713EF0 
 294      994FC7F9 
 295 0d34 AE2FC905 		.ascii	"\256/\311\0052\035\375\271\242\216\006\2732\270]\337"
ARM GAS  /tmp/ccZOirIi.s 			page 24


 295      321DFDB9 
 295      A28E06BB 
 295      32B85DDF 
 296 0d44 6ABDF273 		.ascii	"j\275\362sf\314z\036\370\314\233\365\274\313\001\261"
 296      66CC7A1E 
 296      F8CC9BF5 
 296      BCCB01B1 
 297 0d54 507F403C 		.ascii	"P\177@<\247? T\2532\325\214\376\352\210S\213j*\262\351"
 297      A73F2054 
 297      AB32D58C 
 297      FEEA8853 
 297      8B6A2AB2 
 298 0d69 EEC49D24 		.ascii	"\356\304\235$\025\334Ko\270\016\375\372\302\214w\346"
 298      15DC4B6F 
 298      B80EFDFA 
 298      C28C77E6 
 299 0d79 A15C96B8 		.ascii	"\241\\\226\270\003\271,\275y\301\375p\\\004X\303\227"
 299      03B92CBD 
 299      79C1FD70 
 299      5C0458C3 
 299      97
 300 0d8a A7381CB5 		.ascii	"\2478\034\265\313\031\013gQS\220\035(=T\346]\025\007"
 300      CB190B67 
 300      5153901D 
 300      283D54E6 
 300      5D1507
 301 0d9d 5F93C5F9 		.ascii	"_\223\305\371\242\215\246\012\233\263a\355\323d\311"
 301      A28DA60A 
 301      9BB361ED 
 301      D364C9
 302 0dac A5A61D16 		.ascii	"\245\246\035\026A^\214\265\273\024\335\214,\342\027"
 302      415E8CB5 
 302      BB14DD8C 
 302      2CE217
 303 0dbb 1B36EA67 		.ascii	"\0336\352g\243i\250\320j%vl\266\320\023\300\025d\336"
 303      A369A8D0 
 303      6A25766C 
 303      B6D013C0 
 303      1564DE
 304 0dce 3E1B09B6 		.ascii	">\033\011\266e]\274\016\335[\032(\316\204\034~1\353"
 304      655DBC0E 
 304      DD5B1A28 
 304      CE841C7E 
 304      31EB
 305 0de0 4BE6588E 		.ascii	"K\346X\216K\326\371\250\206\177zM{\0138(3\263\215\014"
 305      4BD6F9A8 
 305      867F7A4D 
 305      7B0B3828 
 305      33B38D0C 
 306 0df4 62AE8B8C 		.ascii	"b\256\213\214\267*s\354\377\245H\271*b\225\"=]D,\\\344"
 306      B72A73EC 
 306      FFA548B9 
 306      2A629522 
 306      3D5D442C 
 307 0e0a 86147949 		.ascii	"\206\024yI\025\361\221\"y.\"\212\250\207Uw\255\007'"
 307      15F19122 
 307      792E228A 
ARM GAS  /tmp/ccZOirIi.s 			page 25


 307      A8875577 
 307      AD0727
 308 0e1d 09457373 		.ascii	"\011Ess\256\334\234\2126\3446.D\275=\277\\\210\372z"
 308      AEDC9C8A 
 308      36E4362E 
 308      44BD3DBF 
 308      5C88FA7A 
 309 0e31 8942F959 		.ascii	"\211B\371Y+\224\012j&%+)r\232O\312J\352\222\225/S\231"
 309      2B940A6A 
 309      26252B29 
 309      729A4FCA 
 309      4AEA9295 
 310 0e48 96BE4255 		.ascii	"\226\276BU\264\\\011\032-YUK(r\213\020\364\026\267b"
 310      B45C091A 
 310      2D59554B 
 310      28728B10 
 310      F416B762 
 311 0e5c 3A935F31 		.ascii	":\223_1e\362R\212\234\346M^\352j\362\253\232\311V\241"
 311      65F2528A 
 311      9CE64D5E 
 311      EA6AF2AB 
 311      9AC956A1 
 312 0e70 2AE68E26 		.ascii	"*\346\216&/\243\310-L\316\027\275\343\201MI\202c9p\204"
 312      2FA3C82D 
 312      4CCE17BD 
 312      E3814D49 
 312      82633970 
 313 0e85 E2C5DB92 		.ascii	"\342\305\333\222\346p\201\253\242wJ\341\002\033MG~\231"
 313      E67081AB 
 313      A2774AE1 
 313      021B4D47 
 313      7E99
 314 0e97 BFE91892 		.ascii	"\277\351\030\222^\015\277\024\343:\275\337Y\204K\024"
 314      5E0DBF14 
 314      E33ABDDF 
 314      59844B14 
 315 0ea7 B82486A7 		.ascii	"\270$\206\247\332\270\374tKK\331\025\324\2758WR\304"
 315      DAB8FC74 
 315      4B4BD915 
 315      D4BD3857 
 315      52C4
 316 0eb9 EBCBF378 		.ascii	"\353\313\363x\265\261<\325\366@\345\021\375A\210p\254"
 316      B5B13CD5 
 316      F640E511 
 316      FD418870 
 316      AC
 317 0eca 8FEAD8E5 		.ascii	"\217\352\330\345\212\313\233\244\023\253@\245\277\332"
 317      8ACB9BA4 
 317      13AB40A5 
 317      BFDA
 318 0ed8 7BC865AA 		.ascii	"{\310e\252\001\027\310\226~\265B6\313\253\251\312\\"
 318      0117C896 
 318      7EB54236 
 318      CBABA9CA 
 318      5C
 319 0ee9 4D39E587 		.ascii	"M9\345\207M\211\202V\203\327\013\310\302^\344_iwb5\324"
 319      4D898256 
ARM GAS  /tmp/ccZOirIi.s 			page 26


 319      83D70BC8 
 319      C25EE45F 
 319      69776235 
 320 0efe ED550B47 		.ascii	"\355U\013G\255-\241\341*d\2675\025\304\026gW\316\307"
 320      AD2DA1E1 
 320      2A64B735 
 320      15C41667 
 320      57CEC7
 321 0f11 50E61F5D 		.ascii	"P\346\037]\204\376\025\374\270\310I\340\213\245OB\325"
 321      84FE15FC 
 321      B8C849E0 
 321      8BA54F42 
 321      D5
 322 0f22 39A8F800 		.ascii	"9\250\370\000d\351\223\215w\215\3718\024\200\202ph\367"
 322      64E9938D 
 322      778DF938 
 322      14808270 
 322      68F7
 323 0f34 12AAF05D 		.ascii	"\022\252\360]]\234zt\216\215\206e\003OX>\016\005\354"
 323      5D9C7A74 
 323      8E8D8665 
 323      034F583E 
 323      0E05EC
 324 0f47 1DDB575E 		.ascii	"\035\333W^Vk)Wk4d\034\376\237`d:TqcSw\301\264\006t\244"
 324      566B2957 
 324      6B34641C 
 324      FE9F6064 
 324      3A547163 
 325 0f62 F0576ABA 		.ascii	"\360Wj\272\206t\253\320\316\350X\237C\255x\217WK\373"
 325      8674ABD0 
 325      CEE8589F 
 325      43AD788F 
 325      574BFB
 326 0f75 9E6C6517 		.ascii	"\236le\027T\375U\215\273*n\306\010\331:`\350,V\034 "
 326      54FD558D 
 326      BB2A6EC6 
 326      08D93A60 
 326      E82C561C 
 327 0f8a CEEDD655 		.ascii	"\316\355\326U\362\3535\316-<q \321\217\242h\377+\252"
 327      F2EB35CE 
 327      2D3C7120 
 327      D18FA268 
 327      FF2BAA
 328 0f9d DE81A2   		.ascii	"\336\201\242"
 329 0fa0 17D8D628 		.ascii	"\027\330\326(7c-\225\335@\240\261\033\320\267Qk\351"
 329      37632D95 
 329      DD40A0B1 
 329      1BD0B751 
 329      6BE9
 330 0fb2 1DAE4E07 		.ascii	"\035\256N\007\361\206\250|\242`\013w\271\270D\256\301"
 330      F186A87C 
 330      A2600B77 
 330      B9B844AE 
 330      C1
 331 0fc3 E2A4D97A 		.ascii	"\342\244\331zB\306p\035\275\327\353\354z\352v\237\275"
 331      42C6701D 
 331      BDD7EBEC 
ARM GAS  /tmp/ccZOirIi.s 			page 27


 331      7AEA769F 
 331      BD
 332 0fd4 8EDEE942 		.ascii	"\216\336\351B[+n\033]/\263OK\374\015\024\361\206o]Y"
 332      5B2B6E1B 
 332      5D2FB34F 
 332      4BFC0D14 
 332      F1866F5D 
 333 0fe9 E61BB558 		.ascii	"\346\033\265X\254\247\372`\030n\311\353)\277&\337H\265"
 333      ACA7FA60 
 333      186EC9EB 
 333      29BF26DF 
 333      48B5
 334 0ffb 7BF23D8D 		.ascii	"{\362=\215\362"
 334      F2
 335 1000 C6B581EA 		.ascii	"\306\265\201\352/\312\031\365\315xA|\215br\273\267E"
 335      2FCA19F5 
 335      CD78417C 
 335      8D6272BB 
 335      B745
 336 1012 6AAC86F0 		.ascii	"j\254\206\360X}\272M\213\325\353\367\034\253M\356\261"
 336      587DBA4D 
 336      8BD5EBF7 
 336      1CAB4DEE 
 336      B1
 337 1023 7AFD8EB1 		.ascii	"z\375\216\2612\270\265I\270\025\256yuX\363\01234\321"
 337      32B8B549 
 337      B815AE79 
 337      7558F30A 
 337      3334D1
 338 1036 E8D5178D 		.ascii	"\350\325\027\215\362kg\013P\343%\025\323\236j$\267\314"
 338      F26B670B 
 338      50E32515 
 338      D39E6A24 
 338      B7CC
 339 1048 0C826D19 		.ascii	"\014\202m\031\210{3\210\342\206\014nX=\315F\203\206"
 339      887B3388 
 339      E2860C6E 
 339      583DCD46 
 339      8386
 340 105a C0275B04 		.ascii	"\300'[\004Fg\340\336\326H\204\203X\274\006\037Z\015"
 340      4667E0DE 
 340      D6488483 
 340      58BC061F 
 340      5A0D
 341 106c 9F491148 		.ascii	"\237I\021H\215\2074G\2718\224\213\033LQ\371\220\252"
 341      8D873447 
 341      B938948B 
 341      1B4C51F9 
 341      90AA
 342 107e DA282749 		.ascii	"\332('I\204\220#\245+R\032\350\340\275(\263\231\016"
 342      849023A5 
 342      2B521AE8 
 342      E0BD28B3 
 342      990E
 343 1090 F97135AB 		.ascii	"\371q5\253\343\241\374\212\002\242\0278\200\362\265"
 343      E3A1FC8A 
 343      02A21738 
ARM GAS  /tmp/ccZOirIi.s 			page 28


 343      80F2B5
 344 109f 3AE21A03 		.ascii	":\342\032\003\330ZL{\027\3209@\325YY\013\363n\240\016"
 344      D85A4C7B 
 344      17D03940 
 344      D559590B 
 344      F36EA00E 
 345 10b3 E7A0E6F6 		.ascii	"\347\240\346\366j;\252\031&\177\227\351%\274\333v\317"
 345      6A3BAA19 
 345      267F97E9 
 345      25BCDB76 
 345      CF
 346 10c4 BBD3E8BE 		.ascii	"\273\323\350\276;\333~5\223\267\203\035m]2\371\015\212"
 346      3BDB7E35 
 346      93B7831D 
 346      6D5D32F9 
 346      0D8A
 347 10d6 F83B67F2 		.ascii	"\370;g\362\016-\223\267\337=\223\033\305\226\357\320"
 347      0E2D93B7 
 347      DF3D931B 
 347      C596EFD0 
 348 10e6 65F2B546 		.ascii	"e\362\265F\371\213\317NX!\311\345je\270\270\234\274"
 348      F98BCF4E 
 348      5821C9E5 
 348      6A65B8B8 
 348      9CBC
 349 10f8 DC28FBB3 		.ascii	"\334(\373\263\255\300\027\371+\255\376V\3674hk\243m"
 349      ADC017F9 
 349      2BADFE56 
 349      F734686B 
 349      A36D
 350 110a 86527464 		.ascii	"\206Rtd\330!\334D\330\210\2168\337J\207\355\255\235"
 350      D821DC44 
 350      D8888E38 
 350      DF4A87ED 
 350      AD9D
 351 111c E9244936 		.ascii	"\351$I6\332\015\347;\351\260\223\265\205\370m0\202}"
 351      DA0DE73B 
 351      E9B093B5 
 351      85F86D30 
 351      827D
 352 112e 1B8CE4DB 		.ascii	"\033\214\344\333P\277[n\303\256{\336\206\335\356\333"
 352      50BF5B6E 
 352      C3AE7BDE 
 352      86DDEEDB 
 353 113e B0EBD78B 		.ascii	"\260\353\327\213d\367\035\212d\307v\031\260=`m\262\261"
 353      64F71D8A 
 353      64C77619 
 353      B03D606D 
 353      B2B1
 354 1150 48F66C8F 		.ascii	"H\366l\217\024\324\275@M\270[\351\217\022\277\015\036"
 354      14D4BD40 
 354      4DB85BE9 
 354      8F12BF0D 
 354      1E
 355 1161 FE447674 		.ascii	"\376Dvt\011n!K\260\321.#(\252\032\271\267n\216\223$"
 355      096E214B 
 355      B0D12E23 
ARM GAS  /tmp/ccZOirIi.s 			page 29


 355      28AA1AB9 
 355      B76E8E93 
 356 1176 C306E17C 		.ascii	"\303\006\341|\017\035\331PW\210zF\363T\207\326*\307"
 356      0F1DD950 
 356      57887A46 
 356      F35487D6 
 356      2AC7
 357 1188 C27E31F2 		.ascii	"\302~1\362\031\005\311\334\335F\363-'\317N\006\373F"
 357      1905C9DC 
 357      DD46F32D 
 357      27CF4E06 
 357      FB46
 358 119a B1927888 		.ascii	"\261\222x\210\367\015x\235\002\257\2443\244\374\322"
 358      F70D789D 
 358      02AFA433 
 358      A4FCD2
 359 11a9 FAAFB49F 		.ascii	"\372\257\264\2374\325\005\307b\024\260+\312(\266OI\035"
 359      34D505C7 
 359      6214B02B 
 359      CA28B64F 
 359      491D
 360 11bb 38C33EC5 		.ascii	"8\303>\305>\346\321I\3519)\351)Y\251\251\263JSg\024"
 360      3EE6D149 
 360      E93929E9 
 360      2959A9A9 
 360      B34A5367 
 361 11d0 16A722A9 		.ascii	"\026\247\"\251\264l\356\264\302\231\245\251E3f\317\265"
 361      B46CEEB4 
 361      C299A5A9 
 361      453366CF 
 361      B5
 362 11e1 97944D4F 		.ascii	"\227\224MO)\"^\323g\226\245\344\2601\227\215=\331\230"
 362      29225ED3 
 362      6796A5E4 
 362      B031978D 
 362      3DD998
 363 11f4 E7639F5E 		.ascii	"\347c\237^6svJz\232'\014\3518d\340\220\211C\226giJz"
 363      3673764A 
 363      7A9A270C 
 363      E93864E0 
 363      90894396 
 364 120c 360E3938 		.ascii	"6\01698\344\322\331\264\224\026Y\246\333\213\213\247"
 364      E4D2D9B4 
 364      941659A6 
 364      DB8B8BA7 
 365 121c CDA576DF 		.ascii	"\315\245v\337\331s\247\025\331K\355\263J\274\346\333"
 365      D973A715 
 365      D94BEDB3 
 365      4ABCE6DB 
 366 122c A796CDA0 		.ascii	"\247\226\315\240%\336\366\322I\305\263Jl\326\342i\323"
 366      25DEF6D2 
 366      49C5B34A 
 366      6CD6E269 
 366      D3
 367 123d CB261516 		.ascii	"\313&\025\026\333m%\264\330\002\372\247\314\233\356"
 367      DB6D25B4 
 367      D802FAA7 
ARM GAS  /tmp/ccZOirIi.s 			page 30


 367      CC9BEE
 368 124c 9D5832AF 		.ascii	"\235X2\257\270\270\033\371'\313\232\014w"
 368      B8B81BF9 
 368      27CB9A0C 
 368      77
 369              		.text
 370              		.section	.gnu.lto_chprintf.4c33fb77ad90a972,"",%progbits
 371 0000 789C8D51 		.ascii	"x\234\215QKK\002Q\024>\347\316\330\303\026\266h#m\304"
 371      4B4B0251 
 371      143EE7CE 
 371      D8C316B6 
 371      68236DC4 
 372 0014 1FE06058 		.ascii	"\037\340`X\264o\321\262E\012\266\222q\324\361\202\246"
 372      B46FD1B2 
 372      450AB692 
 372      71D4F182 
 372      A6
 373 0025 E86CAA85 		.ascii	"\350l\252\205W\261\220 \220VQ\233\212h\333\242\245\213"
 373      57B19020 
 373      9056519B 
 373      8A68DBA2 
 373      A58B
 374 0037 24080A11 		.ascii	"$\010\012\021\021\377\200\324\252\024j\035\324t\357"
 374      11FF80D4 
 374      AA146A1D 
 374      D474EF
 375 0046 8C1A3DA0 		.ascii	"\214\032=\240.\314\275g\276s\276\363\235\007\001\002"
 375      2ECCBD67 
 375      BE73BEF3 
 375      9D070102 
 376 0056 DFCF2CFF 		.ascii	"\337\317,\377\2468\274,~d@n\"A\211\337\022\"\207\020"
 376      A638BC2C 
 376      7E64406E 
 376      224189DF 
 376      12228710 
 377 006a 0A44C2C2 		.ascii	"\012D\302\302\232\260A\362\302\011c\007\335\233\332"
 377      9AB041F2 
 377      C2096307 
 377      DD9BDA
 378 0079 A17BF7B8 		.ascii	"\241{\367\270Te\357\246\211T\2704\2040\267\320c=D\376"
 378      5465EFA6 
 378      8954B834 
 378      8430B7D0 
 378      633D44FE 
 379 008d 2A2268F5 		.ascii	"*\"h\365j\375\252\263\347f\2374\211\300<\376\203\311"
 379      6AFDAAB3 
 379      E7669F34 
 379      89C03CFE 
 379      83C9
 380 009f AAF576A7 		.ascii	"\252\365v\247\201l\237\025_L\323\305\365\010,\376E\274"
 380      816C9F15 
 380      5F4CD3C5 
 380      F5082CFE 
 380      45BC
 381 00b1 20F57BD3 		.ascii	" \365{\323\354\037\275=<\343\214\0031\315Y\374\342\235"
 381      EC1FBD3D 
 381      3CE38C03 
ARM GAS  /tmp/ccZOirIi.s 			page 31


 381      31CD59FC 
 381      E29D
 382 00c3 A978865E 		.ascii	"\251x\206^\336\252U78\240\314\005<*\236r\320vY\335\360"
 382      DEAA5537 
 382      38A0CC05 
 382      3C2A9E72 
 382      D07659DD 
 383 00d8 13B4EE90 		.ascii	"\023\264\356\220\030\211\324\202\355\356\023U\361\034"
 383      1889D482 
 383      EDEE1355 
 383      F11C
 384 00e6 1D1CDB82 		.ascii	"\035\034\333\202WVa\323\024e\315\032\222@6):\206Y\254"
 384      575661D3 
 384      1465CD1A 
 384      92403629 
 384      3A8659AC 
 385 00fa A8B03D19 		.ascii	"\250\260=\031\212c\000-\330\351\366\036\235\266GGi\224"
 385      8A63002D 
 385      D8E9F61E 
 385      9DB64747 
 385      6994
 386 010c 605C437B 		.ascii	"`\\C{':\242\216\304N@qBP\312\335\376O\305IM,\347wE\212"
 386      273AA28E 
 386      C44E4071 
 386      4250CADD 
 386      FE4FC549 
 387 0126 4E802694 		.ascii	"N\200&\224\356nkd(%\353\"\276\011\327\275\001d3\002"
 387      EE6E6B64 
 387      2825EB22 
 387      BE09D7BD 
 387      01643302 
 388 013a 70C92A62 		.ascii	"p\311*b\007\203q\205\204%5\240\310\225c\242\2446\340"
 388      07837185 
 388      842535A0 
 388      C89563A2 
 388      A436E0
 389 014d 28851D12 		.ascii	"(\205\035\022\024\255\212b\347R4\252,%i\224\256\254"
 389      14AD8A62 
 389      E75234AA 
 389      2C256994 
 389      AEAC
 390 015f 46FC0B3E 		.ascii	"F\374\013>\277/\240(\231\274\222TS\212p\345\215\\\\"
 390      BF2FA028 
 390      99BC9254 
 390      538A70E5 
 390      8D5C5C
 391 0172 4DE7152D 		.ascii	"M\347\025-\231\315\321u#\341\323\200\250YW\"\223K\253"
 391      99CDD175 
 391      23E1D380 
 391      A8595722 
 391      934BAB
 392 0185 86118F45 		.ascii	"\206\021\217E\242\033F<\377\001\217\350\212\265"
 392      A21B463C 
 392      FF018FE8 
 392      8AB5
 393              		.text
 394              		.section	.gnu.lto_chsnprintf.4c33fb77ad90a972,"",%progbits
ARM GAS  /tmp/ccZOirIi.s 			page 32


 395 0000 789C8D54 		.ascii	"x\234\215TMHTQ\024>\347\3367\357\315\237iY\013[\211"
 395      4D485451 
 395      143EE7DE 
 395      37EFCD9F 
 395      69590B5B 
 396 0015 BB0A1C0C 		.ascii	"\273\012\034\014\215\240E\213v\265\210H\241V\362\234"
 396      8DA0458B 
 396      76B58848 
 396      A156F29C 
 397 0025 6C7CE41F 		.ascii	"l|\344\037\316T`\013\337\350XR\010\022b\366\263\320"
 397      CE54600B 
 397      DFE85852 
 397      081262F6 
 397      B3D0
 398 0037 85988809 		.ascii	"\205\230\210\011I(\270\231\242\2056\210\330\302R\214"
 398      4928B899 
 398      A2853688 
 398      D8C2528C 
 399 0047 8622280C 		.ascii	"\206\"(\0142*D\211\246s\357\233\367f\374\211\346\302"
 399      322A4489 
 399      A673EF9B 
 399      F766FC89 
 399      E6C2
 400 0059 3BF79D7B 		.ascii	";\367\235{\277\357|\347\236s\337c\300`\3738MO\304\005"
 400      BFEF7CE7 
 400      9E73DF63 
 400      C060FB38 
 400      4D4FC405 
 401 006d 704E381E 		.ascii	"pN8\036@B c\034\300d\012\031\205#m\242\"\255\213\251"
 401      40422063 
 401      1CC0640A 
 401      1985236D 
 401      A222AD8B 
 402 0082 625D13EB 		.ascii	"b]\023\353*\322\204\032\272\311\272\021\211\214\320"
 402      2AD2841A 
 402      BAC9BA11 
 402      898CD0
 403 0091 C6B8E252 		.ascii	"\306\270\342R57\266]D\031\256\004\006M\363n\262s\375"
 403      3537B65D 
 403      4419AE04 
 403      064DF36E 
 403      B273FD
 404 00a4 15DEEF8D 		.ascii	"\025\336\357\215\307\006\314\337\251\024\242!6\203\010"
 404      C706CCDF 
 404      A914A221 
 404      368308
 405 00b3 17E80D8B 		.ascii	"\027\350\015\213\345$\264\262\207E\214O\337\353.\272"
 405      E524B4B2 
 405      87458C4F 
 405      DFEB2EBA 
 406 00c3 3DD0DE63 		.ascii	"=\320\336c\376!^\3164\363\351c\323#\265\270\201<'N\177"
 406      FE215ECE 
 406      34F3E963 
 406      D323B5B8 
 406      813C274E 
 407 00d8 7CE1CDEC 		.ascii	"|\341\315\354 \0227\272\226J\345\033\250\344B\213\367"
 407      201237BA 
ARM GAS  /tmp/ccZOirIi.s 			page 33


 407      964AE51B 
 407      A8E4428B 
 407      F7
 408 00e9 C4DF2D76 		.ascii	"\304\337-v\027\231\231\014]\014*07\346\373\276^\314"
 408      1799990C 
 408      5D0C2A30 
 408      37E6FBBE 
 408      5ECC
 409 00fb 62AA0C8E 		.ascii	"b\252\014\216g\230\003\326\314\366\357Z\226\357\213"
 409      679803D6 
 409      CCF6EF5A 
 409      96EF8B
 410 010a 8FB24535 		.ascii	"\217\262E5\006'r\021%\346\217\276-\351\272\031\234\314"
 410      06277211 
 410      25E68FBE 
 410      2DE9BA19 
 410      9CCC
 411 011c 89D913FF 		.ascii	"\211\331\023\377\265\230\310.\017\2033\377#\216\263"
 411      B598C82E 
 411      0F8333FF 
 411      238EB3
 412 012b F887546A 		.ascii	"\370\207Tj\345\331\306\307/x \017A\307Q,\001\206\015"
 412      E5D9C6C7 
 412      2F78200F 
 412      41C7512C 
 412      01860D
 413 013e 083CED28 		.ascii	"\010<\355(\351\331E\213\250\2223B\216F\016s\2233F\216"
 413      E9D9458B 
 413      A8923342 
 413      8E460E73 
 413      9333468E 
 414 0152 07A8ED5E 		.ascii	"\007\250\355^a|d\270\037dk\300\0051J\252X\307!\302\350"
 414      617C64B8 
 414      1F646BC0 
 414      05314AAA 
 414      58C721C2 
 415 0167 382CED88 		.ascii	"8,\355\210\264\243\322\012\256l!\215Ji\253\304\325\346"
 415      B4A3D20A 
 415      AE6C218D 
 415      4A69ABC4 
 415      D5E6
 416 0179 3310FBFA 		.ascii	"3\020\373\372|\243\217\3538NW:\204Ld\356\316N\273J\\"
 416      7CA38FEB 
 416      384E573A 
 416      844C64EE 
 416      CE4EBB4A 
 417 018e 193E071D 		.ascii	"\031>\007\035]\035\353c\207l\034\267\241)\032\371\016"
 417      5D1DEB63 
 417      876C1CB7 
 417      A1291AF9 
 417      0E
 418 019f 5491D0F6 		.ascii	"T\221\320\366\251\317\337\230\215T\266D\254\022\037"
 418      A9CFDF98 
 418      8D54B644 
 418      AC121F
 419 01ae 0E9F875B 		.ascii	"\016\237\207[\311\304\252fA\000n\300\246\331e\026\030"
 419      C9C4AA66 
ARM GAS  /tmp/ccZOirIi.s 			page 34


 419      41006EC0 
 419      A6D96516 
 419      18
 420 01bf E809CA2F 		.ascii	"\350\011\312/G\254\264\032\350\265\017\"Q!t\205\020"
 420      47ACB41A 
 420      E8B50F22 
 420      51217485 
 420      10
 421 01d0 D3C10CF4 		.ascii	"\323\301\014\364\001\220\320f\307\364\023\315VRE\034"
 421      0190D066 
 421      C7F413CD 
 421      5652451C 
 422 01e0 1A13E870 		.ascii	"\032\023\350p\345\230\207\316\344\374\225\035b\376 "
 422      E59887CE 
 422      E4FC951D 
 422      62FE20
 423 01ef B28C589E 		.ascii	"\262\214X\236];\211\0222\212\220\331#\3507\223o\023"
 423      5D3B8912 
 423      328A90D9 
 423      23E83793 
 423      6F13
 424 0201 AAADE276 		.ascii	"\252\255\342v\002\344\007Ei@\244\246\206P\263\002\030"
 424      02E40745 
 424      6940A4A6 
 424      8650B302 
 424      18
 425 0212 582028B1 		.ascii	"X (\261\344\322N\305\275AT\376\245h\340>y\242\345~\372"
 425      E4D24EC5 
 425      BD4154FE 
 425      A568E03E 
 425      79A2E57E 
 426 0227 39D85A9E 		.ascii	"9\330Z\236#p\230\316k\235\245\006\355\"\316\300\313"
 426      237098CE 
 426      6B9DA506 
 426      ED22CEC0 
 426      CB
 427 0238 4FD13C07 		.ascii	"O\321<\007\024B\3477\266\004H\275\341+\223C4+\312\317"
 427      1442E737 
 427      B60448BD 
 427      E12B9343 
 427      342BCACF 
 428 024c 49142557 		.ascii	"I\024%W\255\256,O\255\277vB{w\017M}\276\343\\\006\237"
 428      ADAE2C4F 
 428      ADBF7642 
 428      7B770F4D 
 428      7DBEE35C 
 429 0262 ACB957E6 		.ascii	"\254\271W\3465\265\346\265\226\037\302\203(\025\271"
 429      35B5E6B5 
 429      961FC283 
 429      2815B9
 430 0271 C2C04242 		.ascii	"\302\300BB\210BYE\020o\205\2316k\226\346l\377\346A;"
 430      88425945 
 430      106F8599 
 430      366B96E6 
 430      6CFFE641 
 431 0286 9C3F245A 		.ascii	"\234?$Z7\007/V\323\227\303*@9L\230]\342_\001\3336\207"
 431      37072F56 
ARM GAS  /tmp/ccZOirIi.s 			page 35


 431      D397C32A 
 431      40394C98 
 431      5DE25F01 
 432 029d B3365527 		.ascii	"\2636U'0\205\340\011\210\322tI(/\200s$\277\005\251\024"
 432      3085E009 
 432      88D27449 
 432      282F8073 
 432      24BF05A9 
 433 02b2 774854E4 		.ascii	"wHT\344h\275Q\0238Ug\324\030g\317W\227\035+-+-\017\004"
 433      68BD5113 
 433      385567D4 
 433      1867CF57 
 433      971D2B2D 
 434 02ca 9AC2813A 		.ascii	"\232\302\201:\275> \266\302\221\226Z\275!\034\010\326"
 434      BD3E20B6 
 434      C291965A 
 434      BD211C08 
 434      D6
 435 02db 35B7188D 		.ascii	"5\267\030\215\221\313\245A`z3k\010sZ\361\205\215\326"
 435      91CBA541 
 435      607A336B 
 435      08735AF1 
 435      858DD6
 436 02ee DAEAEB4D 		.ascii	"\332\352\353M\325\215W\353\325\226\332\3105\275\376"
 436      D58D57EB 
 436      D596DAC8 
 436      35BDFE
 437 02fd 2FAC8952 		.ascii	"/\254\211R\204"
 437      84
 438              		.text
 439              		.section	.gnu.lto_.symbol_nodes.4c33fb77ad90a972,"",%progbits
 440 0000 789C4DCC 		.ascii	"x\234M\314;\012\302P\020\205\3413\347\346\261\014\327"
 440      3B0AC250 
 440      1085E133 
 440      E7E6B10C 
 440      D7
 441 0011 E64A2628 		.ascii	"\346J&(H\312\370\356\315\002\004\005\013+\215`i\243"
 441      48CAF8EE 
 441      CD020405 
 441      0B2B8D60 
 441      69A3
 442 0023 582B692D 		.ascii	"X+i-\004;!\342\315\315\3058\3157\177s\010\342\011\177"
 442      043B21E2 
 442      CDCDC538 
 442      CD377F73 
 442      08E2097F 
 443 0037 CCA84076 		.ascii	"\314\250@v\002T/i\227C\252\374\345\210J\237\327T8\246"
 443      02542F69 
 443      9743AAFC 
 443      E5884A9F 
 443      D75438A6 
 444 004b 1A9F479B 		.ascii	"\032\237G\233\023j\320\246\314\250a\223I\"2\245Fm\315"
 444      136AD0A6 
 444      CCA86193 
 444      492232A5 
 444      466DCD
 445 005e A9F1AF8C 		.ascii	"\251\361\257\214\000\275\333G\014\005\305{W\031\367"
ARM GAS  /tmp/ccZOirIi.s 			page 36


 445      00BDDB47 
 445      0C05C57B 
 445      5719F7
 446 006d E4FBCA04 		.ascii	"\344\373\312\004\304y\360\350X\326K\237\253\306\327"
 446      C479F0E8 
 446      58D64B9F 
 446      ABC6D7
 447 007c A671BDB5 		.ascii	"\246q\275\265\032\023\241_\017\030b\341\014q\250\015"
 447      1A13A15F 
 447      0F1862E1 
 447      0C71A80D 
 448 008c 6294CE08 		.ascii	"b\224\316\010\371\275\226(\234!J+\276n#P\263"
 448      F9BD9628 
 448      9C214A2B 
 448      BE6E2350 
 448      B3
 449              		.text
 450              		.section	.gnu.lto_.refs.4c33fb77ad90a972,"",%progbits
 451 0000 789C6362 		.ascii	"x\234cb`b`d\200\002\000\000F\000\006"
 451      60626064 
 451      80020000 
 451      460006
 452              		.text
 453              		.section	.gnu.lto_.decls.4c33fb77ad90a972,"",%progbits
 454 0000 789CBD59 		.ascii	"x\234\275Ykl\024\327\025\276w\366a/\336\032b\345A\251"
 454      6B6C14D7 
 454      15BE77F6 
 454      612FDE1A 
 454      62E541A9 
 455 0014 9A2C5548 		.ascii	"\232,UH\333P\274\202\322\012U\021\264\261\004D*!\015"
 455      DB50BC82 
 455      D20A5511 
 455      B4B10444 
 455      2A210D
 456 0027 21A9FADA 		.ascii	"!\251\372\332\214\327c{\332}\230\335YH\372'\203\023"
 456      8CD7637B 
 456      DA7D98DD 
 456      5948FA27 
 456      8313
 457 0039 5C9A54E0 		.ascii	"\\\232T\340\330%\220\244`\023c\251\021P\260\323`\332"
 457      D82590A4 
 457      601363A9 
 457      1150B0D3 
 457      60DA
 458 004b 6018626A 		.ascii	"`\030bj\036\201\000&\201\004B\265\205\222\360\212\252"
 458      1E810026 
 458      810442B5 
 458      8592F08A 
 458      AA
 459 005c 941F8536 		.ascii	"\224\037\2056\260=\367\316\235\335\231\361\334\335Y"
 459      B03DF7CE 
 459      9DDD99F1 
 459      DCDD59
 460 006b 57EA4867 		.ascii	"W\352Hg\366\316\314y\335\357\234{\347\234Y\001\011\350"
 460      F6CECC79 
 460      DDEF9C7B 
 460      E79C5901 
ARM GAS  /tmp/ccZOirIi.s 			page 37


 460      09E8
 461 007d B080500E 		.ascii	"\260\200P\016\216\017\356F\3503\030\373\021B\263Q\341"
 461      8E0FEE46 
 461      E83318FB 
 461      1142B351 
 461      E1
 462 008e A804DA08 		.ascii	"\250\004\332\010\264\003H\003\252\301\010M\002\272\017"
 462      B4034803 
 462      AAC1084D 
 462      02BA0F
 463 009d E8AB405F 		.ascii	"\350\253@_\303h\324A\370+\030U\003\005\2016\001\365"
 463      C368D441 
 463      F82B1855 
 463      03058136 
 463      01F5
 464 00af 0079916E 		.ascii	"\000y\221n\203\034\230\361\372\200\266\002m\003z\003"
 464      831C98F1 
 464      FA80B602 
 464      6D037A03 
 465 00bf A80F68AE 		.ascii	"\250\017h\256M\357\016&\327c\3229\017\353\367^c<\002"
 465      4DEF0E26 
 465      D763D239 
 465      0FEBF75E 
 465      633C02
 466 00d2 E3DBC8EC 		.ascii	"\343\333\310\354\354\002\032\004\332\0154\337\246\217"
 466      EC021A04 
 466      DA0D34DF 
 466      A68F
 467 00e0 CC250494 		.ascii	"\314%\004\2243\351#2\207\200.3\177\3470{\025\314\307"
 467      33E92332 
 467      87802E33 
 467      7FE7307B 
 467      15CCC7
 468 00f3 8798BDEF 		.ascii	"\207\230\275\357c\335y\362\263\017h\010\350a\270x\007"
 468      63DD79F2 
 468      B30F6808 
 468      E861B878 
 468      07
 469 0104 7EAF002D 		.ascii	"~\257\000-\204\361\003\014\307G`\374\003\240G\201\036"
 469      84F1030C 
 469      C74760FC 
 469      03A04781 
 469      1E
 470 0115 035A0C34 		.ascii	"\003Z\0144\000\367\037\207\337'\200<0>\010t\211\314"
 470      00F71F87 
 470      DF27803C 
 470      303E0874 
 470      89CC
 471 0127 87CD4163 		.ascii	"\207\315Ac\363 >}\001x\252\200~\0104\036\350G@?\006"
 471      F3203E7D 
 471      0178AA80 
 471      7E08341E 
 471      E847403F 
 472 013c FA09D04F 		.ascii	"\372\011\320O\201~\006\024\001z\022H\264\315\221\304"
 472      817E0614 
 472      017A1248 
 472      B4CD91C4 
ARM GAS  /tmp/ccZOirIi.s 			page 38


 473 014c AA8ACDCB 		.ascii	"\252\212\315\313\230\243\000\367\352\201\032\201\242"
 473      98A300F7 
 473      EA811A81 
 473      A2
 474 0159 404D407B 		.ascii	"@M@{\341~3\374\312L\336\313dI|\211/\3671?\357\202\337"
 474      E17E33FC 
 474      CA4CDECB 
 474      64497C89 
 474      2FF7313F 
 475 0170 8940BFB0 		.ascii	"\211@\277\260\331!\371p;\303\310\260c\304\232\330\373"
 475      D921F970 
 475      3BC3C8B0 
 475      63C49AD8 
 475      FB
 476 0181 06D6311A 		.ascii	"\006\3261\032\001\212\301x*\320\327K\370\261I\207\030"
 476      018AC178 
 476      2AD0D74B 
 476      F8B14987 
 476      18
 477 0192 CDC6BADE 		.ascii	"\315\306\272\336I,\327\314>\021\375_\201\337\020\320"
 477      492CD7CC 
 477      3E11FD5F 
 477      81DF10D0 
 478 01a2 BD40719B 		.ascii	"\275@q\233_\367\240\015\252v,\333\333\271\372\213jw"
 478      5FF7A00D 
 478      AA762CDB 
 478      DBB9FA8B 
 478      6A77
 479 01b4 AB96CBED 		.ascii	"\253\226\313\355\371.\272\023\255Q\341\350nSU\254T\241"
 479      F92EBA13 
 479      AD51E1E8 
 479      6E5355AC 
 479      54A1
 480 01c6 E755B595 		.ascii	"\347U\265\225\\\314?P\035@+\311E\266W\2358\221\340-"
 480      5CCC3F50 
 480      1D402BC9 
 480      45B6579D 
 480      3891E02D 
 481 01da 62B85549 		.ascii	"b\270UI\007\301\000\365e\012\332\004\242\355\252*\210"
 481      07C100F5 
 481      650ADA04 
 481      A2EDAA2A 
 481      88
 482 01eb 78130E40 		.ascii	"x\023\016@\254\276\345\220\375\344\320\237\223\203\210"
 482      ACBEE590 
 482      FDE4D09F 
 482      938388
 483 01fa EB636394 		.ascii	"\353cc\224\303y\355!C\273\227I\365\340*C\005\217\345"
 483      C379ED21 
 483      43BB9749 
 483      F5E02A43 
 483      058FE5
 484 020d 357C271D 		.ascii	"5|'\035yh\2520\231\374\205?`y\346\263^\352OE\274\330"
 484      7968AA30 
 484      99FC853F 
 484      6079E6B3 
 484      5EEA4F45 
ARM GAS  /tmp/ccZOirIi.s 			page 39


 485 0223 93F75440 		.ascii	"\223\367T@\337\301\350~\364\272>\261\267\247:M\350^"
 485      DFC1E87E 
 485      F4BA3EB1 
 485      B7A73A4D 
 485      E85E
 486 0235 D4A3AA1D 		.ascii	"\324\243\252\035\352qi\276nM \231'\342\215\370\036G"
 486      EA7169BE 
 486      6E4D2099 
 486      27E28DF8 
 486      1E47
 487 0247 2FD934A8 		.ascii	"/\3314\250T\273\266\376\346!\254\326P\333\002\311\324"
 487      54BBB6FE 
 487      E621ACD6 
 487      50DB02C9 
 487      D4
 488 0258 6272C43F 		.ascii	"br\304?\335\230\326\265\365\035*\346#b\321\342b\276"
 488      DD98D6B5 
 488      F51D2AE6 
 488      2362D1E2 
 488      62BE
 489 026a 40DE5A9F 		.ascii	"@\336Z\237\331\232\\\332\032$\022\352\205\260k\257\336"
 489      D99A5CDA 
 489      1A2412EA 
 489      85B06BAF 
 489      DE
 490 027b 38B0914A 		.ascii	"8\260\221J\352!\340\313\2610l\306\302\350T\323~7\034"
 490      EA21E0CB 
 490      B1306CC6 
 490      C2E854D3 
 490      7E371C
 491 028e 6C5F9ECD 		.ascii	"l_\236\315\345\272B\226<\323\265\362\":P~Dm!\\B&\272"
 491      E5BA4296 
 491      3CD3B5F2 
 491      223A507E 
 491      446D215C 
 492 02a5 05DF6F8D 		.ascii	"\005\337o\215\327\215\006\026/\021\377\001\274\025\361"
 492      D78D0616 
 492      2F11FF01 
 492      BC15F1
 493 02b4 0E370153 		.ascii	"\0167\001S_&a\006\253\"\336^B\252\020.\365}\"\344#B"
 493      5F266106 
 493      AB22DE5E 
 493      42AA102E 
 493      F57D22E4 
 494 02ca FD25847C 		.ascii	"\375%\204|&\324\325\301\277?2\277\0009O\210\341\364"
 494      26D4D5C1 
 494      BF3F32BF 
 494      00394F88 
 494      E1F4
 495 02dc D668C8B3 		.ascii	"\326h\310\263\307\264k\373!\342\035\352\347\271\334"
 495      C7B46BFB 
 495      21E21DEA 
 495      E7B9DC
 496 02eb B35E6443 		.ascii	"\263^dC\335\033\340\202\276\327\012\272e'\250A/R-\376"
 496      DD1BE082 
 496      BED70ABA 
 496      6527A841 
ARM GAS  /tmp/ccZOirIi.s 			page 40


 496      2F522DFE 
 497 02ff 03D5CEEB 		.ascii	"\003\325\316\353\220n\004\355\331k\373\337\235\256\252"
 497      906E04ED 
 497      D96BFBDF 
 497      9DAEAA
 498 030e 9522DE87 		.ascii	"\225\"\336\207k@\315\357\2615\014%\325\020?\366\203"
 498      6B40CDEF 
 498      B1350C25 
 498      D5103FF6 
 498      83
 499 031f A82EA4EF 		.ascii	"\250.\244\357.\332\033\303A\325\253\337G\026u\226c2"
 499      2EDA1BC3 
 499      41D5ABDF 
 499      47167596 
 499      6332
 500 0331 EA26593B 		.ascii	"\352&Y;0\274\005\266\266\267\261\243\373\200\201\311"
 500      30BC05B6 
 500      B6B7B1A3 
 500      FB8081C9 
 501 0341 B28A0DD3 		.ascii	"\262\212\015\323\023h\316\014\202\267\2143\304e\023"
 501      1368CE0C 
 501      82B78C33 
 501      C46513
 502 0350 F1611ACE 		.ascii	"\361a\032\316#v/_l\243^\036q\345e\347\360A\010Q\320"
 502      23762F5F 
 502      6CA35E1E 
 502      71E565E7 
 502      F0410851 
 503 0365 E2A42552 		.ascii	"\342\244%Rl\353\325\237\024\205\374\314\252\223\327"
 503      6CEBD59F 
 503      1485FCCC 
 503      AA93D7
 504 0374 702BC888 		.ascii	"p+\310\210x\204\356\300+\005+\350F\202!\363\265\301"
 504      7884EEC0 
 504      2B052BE8 
 504      468221F3 
 504      B5C1
 505 0386 40F4F902 		.ascii	"@\364\371\002\205\001)|\306\363cs\334\2760\347T9\346"
 505      8501297C 
 505      C6F36373 
 505      DCBE30E7 
 505      5439E6
 506 0399 4BFECDA1 		.ascii	"K\376\315\241M\\W]\344\325\321\236\335\323\261u*d\214"
 506      4D5C575D 
 506      E4D5D19E 
 506      DDD3B175 
 506      2A648C
 507 03ac E955C313 		.ascii	"\351U\303\023\020\361\207x\012\234\261\325\373\374\233"
 507      10F18778 
 507      0A9CB1D5 
 507      FBFC9B
 508 03bb 84BD4804 		.ascii	"\204\275H\004\264\325\006\200\013\335\006\226\235\033"
 508      B4D50680 
 508      0BDD0696 
 508      9D1B
 509 03c9 66D1F4FD 		.ascii	"f\321\364\375\210\"y~\024\222\330\206d\011_\312\341"
 509      8822797E 
ARM GAS  /tmp/ccZOirIi.s 			page 41


 509      1492D886 
 509      64095FCA 
 509      E1
 510 03da E5417EAA 		.ascii	"\345A~\252\360\0024\003?\202Go{<\025\307\012*\004\364"
 510      F0023403 
 510      3F82476F 
 510      7B3C15C7 
 510      0A2A04F4 
 511 03ee 299D1449 		.ascii	")\235\024IS'v6\264\350\263\244.,\361}\323_V\265\347"
 511      53277636 
 511      B4E8B3A4 
 511      2E2CF17D 
 511      D35F56B5 
 512 0403 3CFCE4D5 		.ascii	"<\374\344\325\275\343ys\336e\016\211\370t\021-\037\377"
 512      BDE37973 
 512      DE650E89 
 512      F874112D 
 512      1FFF
 513 0415 EFB09C33 		.ascii	"\357\260\2343\303r\255lXBfX\324~U\015\370K\254g\325"
 513      C372AD6C 
 513      58426658 
 513      D47E550D 
 513      F84BAC67 
 514 042a C57AEEFE 		.ascii	"\305z\356\376\354\324\335d\037\271J3p\247\307!\225]"
 514      ECD4DD64 
 514      1FB94A33 
 514      70A7C721 
 514      955D
 515 043c A9D93372 		.ascii	"\251\3313r\007Q\363\017\252f\367X\325d\317\234\030\320"
 515      0751F30F 
 515      AA66F758 
 515      D564CF9C 
 515      18D0
 516 044e 57C43FA9 		.ascii	"W\304?\251\242a\217}E\370m+\302o\315r\270$\226\256\223"
 516      A2618F7D 
 516      45F86D2B 
 516      C26FCD72 
 516      B82496AE 
 517 0463 7D053FC3 		.ascii	"}\005?\303\356\220\213\012\364\177\227\343\345\301\025"
 517      EE908B0A 
 517      F47F97E3 
 517      E5C115
 518 0472 7E42EA39 		.ascii	"~B\3529\3506\241.\233\023\352\230\307EBU\232\365!sB"
 518      E836A12E 
 518      9B13EA98 
 518      C7454255 
 518      9AF52173 
 519 0487 B95B6757 		.ascii	"\271[gW\213\254\220\177;L\313\3254n\230\247\361^\331"
 519      8BAC907F 
 519      3B4CCBD5 
 519      346E98A7 
 519      F15ED9
 520 049a D30821EB 		.ascii	"\323\010!\353a\204G\304G\361d8\377\215\236/\321\363"
 520      618447C4 
 520      47F16438 
 520      FF8D9E2F 
 520      D1F3
ARM GAS  /tmp/ccZOirIi.s 			page 42


 521 04ac 753897F4 		.ascii	"u8\227\364\347\220\331\237\017\250?\373\313\337\276"
 521      E790D99F 
 521      0FA83FFB 
 521      CBDFBE
 522 04bb 9C0E73B1 		.ascii	"\234\016s\261!\342\003\364\365r\320\215KC\005\227\306"
 522      21E203F4 
 522      F572D08D 
 522      4B430597 
 522      C6
 523 04cc F8FA1371 		.ascii	"\370\372\023q/57\266\256(\347\264\373\271-\322nl\270"
 523      2F3537B6 
 523      AE28E7B4 
 523      FBB92DD2 
 523      6E6CB8
 524 04df B01C3F4B 		.ascii	"\260\034?K+\206V\201\224i\253\275e\226i\272\"\255\357"
 524      2B865681 
 524      9469ABBD 
 524      659669BA 
 524      22ADEF
 525 04f2 531C12F1 		.ascii	"S\034\022\361\012\252c\255\327\2763\314\255\261B=\327"
 525      0AAA63AD 
 525      D7BE33CC 
 525      ADB1423D 
 525      D7
 526 0503 5A3065D7 		.ascii	"Z0e\327G\325\366Jz[@\375^n\3338o2\347\301\334B\344V"
 526      47D5F64A 
 526      7A5B40FD 
 526      5E6EDB38 
 526      6F32E7C1 
 527 051b 0A534673 		.ascii	"\012SFs\332:\202]^\247\226 \333{\353\242\027\226\231"
 527      DA3A825D 
 527      5EA79620 
 527      DB7BEBA2 
 527      179699
 528 052e 578F29EC 		.ascii	"W\217)\354p\224M\343\026\353C\371\276\240C=KJ\374\034"
 528      70944DE3 
 528      16EB43F9 
 528      BEA0433D 
 528      4B4AFC1C 
 529 0542 153B5442 		.ascii	"\025;TB,gj'\326BK\224\307\376\335\022\202\204\013\261"
 529      2C676A27 
 529      D6424B94 
 529      C7FEDD12 
 529      82840BB1 
 530 0556 EE405537 		.ascii	"\356@U7\267\255\230\340\245U<*\"\305\246\377\2740\252"
 530      B7AD98E0 
 530      A5553C2A 
 530      22C5A6FF 
 530      BC30AA
 531 0569 3BE8D6B4 		.ascii	";\350\326\264]'8\015Y\221\326\240S\260m%C\346~\314\232"
 531      5D27380D 
 531      5991D6A0 
 531      53B06D25 
 531      43E67ECC 
 532 057e 8C70F7B8 		.ascii	"\214p\367\270#\324z\0335D\273\257\337\010\244\206\356"
 532      23D47A1B 
 532      3544BBAF 
ARM GAS  /tmp/ccZOirIi.s 			page 43


 532      DF08A486 
 532      EE
 533 058f 10DCA07C 		.ascii	"\020\334\240|\306@Y\304\253J\2101O\034\301\342I\261"
 533      C64059C4 
 533      AB4A8831 
 533      4F1CC1E2 
 533      49B1
 534 05a1 29BEE408 		.ascii	")\276\344\010\326\351\223\345\203\365\252\035,K\363"
 534      D6E993E5 
 534      83F5AA1D 
 534      2C4BF3
 535 05b0 CA0A143E 		.ascii	"\312\012\024>x\247\235\301;\333\220\377\324p\201r\274"
 535      78A79DC1 
 535      3BDB90FF 
 535      D4708172 
 535      BC
 536 05c1 C245A1C7 		.ascii	"\302E\241\307\004\336\032\002\236\336\027\\*!F=cb\037"
 536      04DE1A02 
 536      9EDE175C 
 536      2A21463D 
 536      63621F
 537 05d4 DA31E78B 		.ascii	"\3321\347\213\025\303\234'\305\220\352\262b\376\004"
 537      15C39C27 
 537      C590EAB2 
 537      62FE04
 538 05e3 F6FCD64B 		.ascii	"\366\374\326K\316k\274z+\333\236\035\374\344\372\244"
 538      CE6BBC7A 
 538      2BDB9E1D 
 538      FCE4FAA4 
 539 05f3 75FDEA73 		.ascii	"u\375\352s\277Vo\345\236\301\266\030\314\276\203\033"
 539      BF566FE5 
 539      9EC1B618 
 539      CCBE831B 
 540 0603 83D78592 		.ascii	"\203\327\205\222\275\254\271\305\353\316\267x\344\243"
 540      BDACB9C5 
 540      EBCEB778 
 540      E4A3
 541 0611 1DDBDDDE 		.ascii	"\035\333\335\336\034&\273\333\026\272J{|\216;$_\007"
 541      1C26BBDB 
 541      16BA4A7B 
 541      7C8E3B24 
 541      5F07
 542 0623 71629B60 		.ascii	"qb\233`k\021\327\353\215\3546\301M\213\330\327\3265"
 542      6B11D7EB 
 542      8DEC36C1 
 542      4D8BD8D7 
 542      D635
 543 0635 D64676BB 		.ascii	"\326Fv\273\317U#\373G\032\3317\355^\376G\014\351wK\373"
 543      CF5523FB 
 543      471AD937 
 543      ED5EFE47 
 543      0CE9774B 
 544 064a 78F348B0 		.ascii	"x\363H\260]\324\373\013\021g\261\241nL\215\205^A\353"
 544      5DD4FB0B 
 544      1167B1A1 
 544      6E4C8D85 
 544      5E41EB
ARM GAS  /tmp/ccZOirIi.s 			page 44


 545 065d 55B9882F 		.ascii	"U\271\210/\226\255,\344\244\3542U\366/7\312\370\245"
 545      96AD2CE4 
 545      A4EC3255 
 545      F62F37CA 
 545      F8A5
 546 066f 98A1EC06 		.ascii	"\230\241\354\006U\366y\331\312B6\360\012\005\321\200"
 546      55F679D9 
 546      CA4236F0 
 546      0A05D180 
 547 067f 408AA09D 		.ascii	"@\212\240\235\364\374'z\376\263\340\242\372\350\027"
 547      F4FC277A 
 547      FEB3E0A2 
 547      FAE817
 548 068e AA0ABA6E 		.ascii	"\252\012\272nR\177\266\215\025v\255\177\230\306\360"
 548      527FB68D 
 548      1576AD7F 
 548      98C6F0
 549 069d 63BAB50C 		.ascii	"c\272\265\014\322</G\231#\354#\264\327\355\021\\xV\032"
 549      D23C2F47 
 549      9923EC23 
 549      B4D7ED11 
 549      5C78561A 
 550 06b1 767DF7DA 		.ascii	"v}\367\332\347\3063'\330\235\224\035p\243l\202\203g"
 550      E7C63327 
 550      D89D941D 
 550      70A36C82 
 550      8367
 551 06c3 4E8779A1 		.ascii	"N\207y\241\213x;-E\372h0\337\242\347Az\336M\317\232"
 551      8B783B2D 
 551      45FA6830 
 551      DFA2E741 
 551      7ADE4DCF 
 552 06d8 9BF06E16 		.ascii	"\233\360n\026\354\305e\276\335\345\276F\234\372^\001"
 552      ECC565BE 
 552      DDE5BE46 
 552      9CFA5E01 
 553 06e8 1DB56D5B 		.ascii	"\035\265m[\206\303\177\261n\274!\324E\012\262\025\347"
 553      86C37FB1 
 553      6EBC21D4 
 553      450AB215 
 553      E7
 554 06f9 2B5BBD74 		.ascii	"+[\275t[5\276\366\346\017[cN\276\270\363\274\337_\360"
 554      5B35BEF6 
 554      E60F5B63 
 554      4EBEB8F3 
 554      BCDF5FF0 
 555 070d 5ED7ABF5 		.ascii	"^\327\253\365\267\251\202\220\327\273\303\254\267\022"
 555      B7A98290 
 555      D7BBC3AC 
 555      B712
 556 071b FD8A16CA 		.ascii	"\375\212\026\312+\324\345xI\221O3\354/\206\203B%\314"
 556      2BD4E578 
 556      49914F33 
 556      EC2F8683 
 556      4225CC
 557 072e EA231FB7 		.ascii	"\352#\037\267X$\014\006\264\372\330\030\201\310m\250"
 557      58240C06 
ARM GAS  /tmp/ccZOirIi.s 			page 45


 557      B4FAD818 
 557      81C86DA8 
 558 073e 9D6E89EB 		.ascii	"\235n\211\353\252\365\002\233Y{\322\260\026dJ\016\013"
 558      AAF5029B 
 558      597BD2B0 
 558      16644A0E 
 558      0B
 559 074f B7D191A5 		.ascii	"\267\321\221\245K\246\034\2749\037\021\012E|0P\030\030"
 559      4BA61CBC 
 559      391F110A 
 559      457C3050 
 559      1818
 560 0761 48E4E1D3 		.ascii	"H\344\341\323\250\246+E\3403\365\2206\320\211[<\251"
 560      A8A62B45 
 560      E033F590 
 560      36D0895B 
 560      3CA9
 561 0773 A3024FAA 		.ascii	"\243\002O\252\330g\366c\034)\016P\263\014\371\012&?"
 561      D867F663 
 561      1C290E50 
 561      B30CF90A 
 561      263F
 562 0785 52365027 		.ascii	"R6P'8@\031\377\177\362\344\216s\347\347\347\033{\217"
 562      384019FF 
 562      7FF2E48E 
 562      73E7E7E7 
 562      1B7B8F
 563 0798 2B345024 		.ascii	"+4P$\000\357s\245*\370\246Nr\205||\241S\266\225\322"
 563      00EF73A5 
 563      2AF8A64E 
 563      72857C7C 
 563      A153B695 
 564 07ad AEED1EAF 		.ascii	"\256\355\036\257\257\023\001\235\363\031m\201\221\332"
 564      AF13019D 
 564      F3196D81 
 564      91DA
 565 07bb E3707E41 		.ascii	"\343p~A\235=\332\332Mj\023\266\2424\363\212b,;W\251"
 565      9D3DDADA 
 565      4D6A13B6 
 565      A234F38A 
 565      622C3B57 
 566 07d0 E384E21C 		.ascii	"\343\204\342\034\253Kql/\311\261\256$\307\255\027Jq"
 566      AB4B716C 
 566      2FC9B1AE 
 566      24C7AD17 
 566      4A71
 567 07e2 BC54D2D3 		.ascii	"\274T\322\3233#j\2103\333b\337F\212\224\207\347\255"
 567      33236A88 
 567      33DB62DF 
 567      468A9487 
 567      E7AD
 568 07f4 E56110BD 		.ascii	"\345a\020\275`\016\331\\\347\327\002\021\274 \004\221"
 568      600ED95C 
 568      E7D70211 
 568      BC200491 
 569 0804 EDE0B19E 		.ascii	"\355\340\261\236\343\246D+\347\275C\367y\256\324\336"
 569      E3A6442B 
ARM GAS  /tmp/ccZOirIi.s 			page 46


 569      E7BD43F7 
 569      79AED4DE 
 570 0814 2239FB09 		.ascii	"\"9\373\011G\312=\"\227\354M\013\231\251\253\257E\027"
 570      47CA3D22 
 570      97EC4D0B 
 570      99A9ABAF 
 570      4517
 571 0826 47EDF77F 		.ascii	"G\355\367\177\3554\357\367\244\357r\216\227^\246\363"
 571      ED34EFF7 
 571      A4EF728E 
 571      975EA6F3 
 572 0836 F45E1DA5 		.ascii	"\364^\035\245wd\255Y\357+f\275hFL\256\017\3275\313\365"
 572      7764AD59 
 572      EF2B66BD 
 572      68464CAE 
 572      0FD735CB 
 573 084b F2C24591 		.ascii	"\362\302E\221\351\337\256\235^;3\034N\246\303\315b,"
 573      E9DFAE9D 
 573      5E3B331C 
 573      4EA6C3CD 
 573      622C
 574 085d 4C1EA595 		.ascii	"L\036\245\225\224$\306\323\341hsKJN(\215\265Q\344\215"
 574      9424C6D3 
 574      E168734B 
 574      4A4E288D 
 574      B551E48D 
 575 0871 368BA92F 		.ascii	"6\213\251/\305\222\211\246\210\222\214\000\203\014\243"
 575      C59289A6 
 575      88928C00 
 575      830CA3
 576 0880 65B2D21C 		.ascii	"e\262\322\034i\220\227\312\351d\312?\357\341\305\241"
 576      699097CA 
 576      E964CA3F 
 576      EFE1C5A1 
 577 0890 3A845B3C 		.ascii	":\204[<\211L\334\227\022\033\344\247*\330\243\212hs"
 577      894CDC97 
 577      121BE4A7 
 577      2AD8A38A 
 577      6873
 578 08a2 24A624C5 		.ascii	"$\246$\305Z\216\331\224\022\226\023\321X\246A\002\213"
 578      5A8ED994 
 578      129613D1 
 578      58A64102 
 578      8B
 579 08b3 CC766D33 		.ascii	"\314vm3\272\375A1--\222\226d\244\204\"\213\261E\364"
 579      BAFD4131 
 579      2D2D9296 
 579      64A48422 
 579      8BB145F4 
 580 08c7 C15D4E37 		.ascii	"\301]N7\037_\360\330\214p&\235\242\3167E\243a1\025\237"
 580      1F5FF0D8 
 580      8C70269D 
 580      A2CE3745 
 580      A3613115 
 581 08dc 964826A4 		.ascii	"\226H&\244i\222X/\207g\326\316\252\235\2217\221V\032"
 581      6992582F 
 581      8767D6CE 
ARM GAS  /tmp/ccZOirIi.s 			page 47


 581      AA9D9137 
 581      91561A
 582 08ef 1AA446D0 		.ascii	"\032\244F\320\357O\313\277\224\"\312\227\251\244\361"
 582      EF4FCBBF 
 582      9422CA97 
 582      A9A4F1
 583 08fe 34212DD3 		.ascii	"4!-\323\021h\200\211\003SE\006~gE\224iN\\q1\332,'\244"
 583      11688089 
 583      03534506 
 583      7E674594 
 583      694E5C71 
 584 0917 7004148A 		.ascii	"p\004\024\212\231\230\022Q\236n\221\210\353\201H\204"
 584      99981251 
 584      9E6E9188 
 584      EB814884 
 585 0927 C9F996A5 		.ascii	"\311\371\226\245dE\362\202\227\015s\370\323oI\246\224"
 585      6445F282 
 585      970D73F8 
 585      D36F49A6 
 585      94
 586 0938 74F87B8F 		.ascii	"t\370{\217.\250[\360T8\232\214\267\3101)\225\016\317"
 586      2EA85BF0 
 586      54389A8C 
 586      B7C83129 
 586      950ECF
 587 094b ABAB0344 		.ascii	"\253\253\003D\014\245\276x\032\300\257\000\275\337\234"
 587      0CA5BE78 
 587      1AC0AF00 
 587      BDDF9C
 588 095a 1151C004 		.ascii	"\021Q\300\004\033yZ2\212\247IR<K\343JY0\210\251&2\303"
 588      1B795A32 
 588      8AA74952 
 588      3C4BE34A 
 588      593088A9 
 589 0971 A5622426 		.ascii	"\245b$&\247\225\352H\244)\221\211F\330e\325\003\365"
 589      A795EA48 
 589      A4299189 
 589      46D865D5 
 589      03F5
 590 0983 1939A64C 		.ascii	"\0319\246L\223\023\263\311t\330\335@\264y\251\236\023"
 590      9313B3C9 
 590      74D8DD40 
 590      B479A99E 
 590      13
 591 0994 1E480E4F 		.ascii	"\036H\016Oc\\\021\304\226J#O\306A\370\022\3541\304\321"
 591      635C11C4 
 591      964A234F 
 591      C641F812 
 591      EC31C4D1 
 592 09a8 4B009EE9 		.ascii	"K\000\236\3512\327\342R\274\020\372\340\002)\236L=\255"
 592      32D7E252 
 592      BC10FAE0 
 592      02299E4C 
 592      3DAD
 593 09ba 47975CE4 		.ascii	"G\227\\\344\343\354\257\31746J)\217\224L\373\223\215"
 593      E3ECAFCF 
 593      34364A29 
ARM GAS  /tmp/ccZOirIi.s 			page 48


 593      8F944CFB 
 593      938D
 594 09cc 8D694909 		.ascii	"\215iI\011\306\323\013\353\177.E\225\207\022\262\342"
 594      C6D30BEB 
 594      7F2E4595 
 594      8712B2E2 
 595 09dc 8B3C984C 		.ascii	"\213<\230L\306\306g\022i\271)!5D\000\313x2\361_\241"
 595      C6C66712 
 595      69B92921 
 595      354400CB 
 595      7832F15F 
 596 09f1 EF925A   		.ascii	"\357\222Z"
 597              		.text
 598              		.section	.gnu.lto_.symtab.4c33fb77ad90a972,"",%progbits
 599 0000 63687670 		.ascii	"chvprintf\000\000\000\000\000\000\000\000\000\000\000"
 599      72696E74 
 599      66000000 
 599      00000000 
 599      00000000 
 600 0014 00C00000 		.ascii	"\000\300\000\000\000chprintf\000\000\000\000\000\000"
 600      00636870 
 600      72696E74 
 600      66000000 
 600      000000
 601 0027 00000000 		.ascii	"\000\000\000\000\000\000\022\001\000\000chsnprintf\000"
 601      00001201 
 601      00006368 
 601      736E7072 
 601      696E7466 
 602 003c 00000000 		.ascii	"\000\000\000\000\000\000\000\000\000\000\000\032\001"
 602      00000000 
 602      0000001A 
 602      01
 603 0049 00006D73 		.ascii	"\000\000msObjectInit\000\000\002\000\000\000\000\000"
 603      4F626A65 
 603      6374496E 
 603      69740000 
 603      02000000 
 604 005f 00000000 		.ascii	"\000\000\000\000(\001\000\000"
 604      28010000 
 605              		.text
 606              		.section	.gnu.lto_.opts,"",%progbits
 607 0000 272D6D63 		.ascii	"'-mcpu=cortex-m4' '-mno-thumb-interwork' '-mthumb' "
 607      70753D63 
 607      6F727465 
 607      782D6D34 
 607      2720272D 
 608 0033 272D6767 		.ascii	"'-ggdb' '-O0' '-fomit-frame-pointer' '-falign-funct"
 608      64622720 
 608      272D4F30 
 608      2720272D 
 608      666F6D69 
 609 0066 696F6E73 		.ascii	"ions=16' '-ffunction-sections' '-fdata-sections' '-"
 609      3D313627 
 609      20272D66 
 609      66756E63 
 609      74696F6E 
ARM GAS  /tmp/ccZOirIi.s 			page 49


 610 0099 666E6F2D 		.ascii	"fno-common' '-flto'\000"
 610      636F6D6D 
 610      6F6E2720 
 610      272D666C 
 610      746F2700 
 611              		.text
 612              		.cfi_sections	.debug_frame
 613              		.section	.text.long_to_string_with_divisor,"ax",%progbits
 614              		.align	2
 615              		.p2align 4,,15
 616              		.thumb
 617              		.thumb_func
 618              		.type	long_to_string_with_divisor, %function
 619              	long_to_string_with_divisor:
 620              	.LFB272:
 621              		.file 1 "lib/ChibiOS_16.1.4//os/hal/lib/streams/chprintf.c"
 622              		.loc 1 40 0
 623              		.cfi_startproc
 624              		@ args = 0, pretend = 0, frame = 32
 625              		@ frame_needed = 0, uses_anonymous_args = 0
 626              		@ link register save eliminated.
 627 0000 88B0     		sub	sp, sp, #32
 628              		.cfi_def_cfa_offset 32
 629 0002 0390     		str	r0, [sp, #12]
 630 0004 0291     		str	r1, [sp, #8]
 631 0006 0192     		str	r2, [sp, #4]
 632 0008 0093     		str	r3, [sp]
 633              		.loc 1 45 0
 634 000a 029B     		ldr	r3, [sp, #8]
 635 000c 0593     		str	r3, [sp, #20]
 636              		.loc 1 46 0
 637 000e 009B     		ldr	r3, [sp]
 638 0010 002B     		cmp	r3, #0
 639 0012 02D1     		bne	.L2
 640              		.loc 1 47 0
 641 0014 029B     		ldr	r3, [sp, #8]
 642 0016 0493     		str	r3, [sp, #16]
 643 0018 01E0     		b	.L3
 644              	.L2:
 645              		.loc 1 49 0
 646 001a 009B     		ldr	r3, [sp]
 647 001c 0493     		str	r3, [sp, #16]
 648              	.L3:
 649              		.loc 1 52 0
 650 001e 039B     		ldr	r3, [sp, #12]
 651 0020 0B33     		adds	r3, r3, #11
 652 0022 0693     		str	r3, [sp, #24]
 653              	.L5:
 654              		.loc 1 54 0
 655 0024 059B     		ldr	r3, [sp, #20]
 656 0026 019A     		ldr	r2, [sp, #4]
 657 0028 B3FBF2F2 		udiv	r2, r3, r2
 658 002c 0199     		ldr	r1, [sp, #4]
 659 002e 01FB02F2 		mul	r2, r1, r2
 660 0032 9B1A     		subs	r3, r3, r2
 661 0034 0793     		str	r3, [sp, #28]
 662              		.loc 1 55 0
ARM GAS  /tmp/ccZOirIi.s 			page 50


 663 0036 079B     		ldr	r3, [sp, #28]
 664 0038 3033     		adds	r3, r3, #48
 665 003a 0793     		str	r3, [sp, #28]
 666              		.loc 1 56 0
 667 003c 079B     		ldr	r3, [sp, #28]
 668 003e 392B     		cmp	r3, #57
 669 0040 02DD     		ble	.L4
 670              		.loc 1 57 0
 671 0042 079B     		ldr	r3, [sp, #28]
 672 0044 0733     		adds	r3, r3, #7
 673 0046 0793     		str	r3, [sp, #28]
 674              	.L4:
 675              		.loc 1 58 0
 676 0048 069B     		ldr	r3, [sp, #24]
 677 004a 013B     		subs	r3, r3, #1
 678 004c 0693     		str	r3, [sp, #24]
 679 004e 079B     		ldr	r3, [sp, #28]
 680 0050 DAB2     		uxtb	r2, r3
 681 0052 069B     		ldr	r3, [sp, #24]
 682 0054 1A70     		strb	r2, [r3]
 683              		.loc 1 59 0
 684 0056 059A     		ldr	r2, [sp, #20]
 685 0058 019B     		ldr	r3, [sp, #4]
 686 005a B2FBF3F3 		udiv	r3, r2, r3
 687 005e 0593     		str	r3, [sp, #20]
 688              		.loc 1 60 0
 689 0060 049A     		ldr	r2, [sp, #16]
 690 0062 019B     		ldr	r3, [sp, #4]
 691 0064 B2FBF3F3 		udiv	r3, r2, r3
 692 0068 0493     		str	r3, [sp, #16]
 693 006a 049B     		ldr	r3, [sp, #16]
 694 006c 002B     		cmp	r3, #0
 695 006e D9D1     		bne	.L5
 696              		.loc 1 62 0
 697 0070 039B     		ldr	r3, [sp, #12]
 698 0072 0B33     		adds	r3, r3, #11
 699 0074 1A46     		mov	r2, r3
 700 0076 069B     		ldr	r3, [sp, #24]
 701 0078 D31A     		subs	r3, r2, r3
 702 007a 0793     		str	r3, [sp, #28]
 703              	.L6:
 704              		.loc 1 64 0 discriminator 1
 705 007c 039B     		ldr	r3, [sp, #12]
 706 007e 5A1C     		adds	r2, r3, #1
 707 0080 0392     		str	r2, [sp, #12]
 708 0082 069A     		ldr	r2, [sp, #24]
 709 0084 511C     		adds	r1, r2, #1
 710 0086 0691     		str	r1, [sp, #24]
 711 0088 1278     		ldrb	r2, [r2]	@ zero_extendqisi2
 712 008a 1A70     		strb	r2, [r3]
 713              		.loc 1 65 0 discriminator 1
 714 008c 079B     		ldr	r3, [sp, #28]
 715 008e 013B     		subs	r3, r3, #1
 716 0090 0793     		str	r3, [sp, #28]
 717 0092 079B     		ldr	r3, [sp, #28]
 718 0094 002B     		cmp	r3, #0
 719 0096 F1D1     		bne	.L6
ARM GAS  /tmp/ccZOirIi.s 			page 51


 720              		.loc 1 67 0
 721 0098 039B     		ldr	r3, [sp, #12]
 722              		.loc 1 68 0
 723 009a 1846     		mov	r0, r3
 724 009c 08B0     		add	sp, sp, #32
 725              		@ sp needed
 726 009e 7047     		bx	lr
 727              		.cfi_endproc
 728              	.LFE272:
 729              		.size	long_to_string_with_divisor, .-long_to_string_with_divisor
 730              		.section	.text.ch_ltoa,"ax",%progbits
 731              		.align	2
 732              		.p2align 4,,15
 733              		.thumb
 734              		.thumb_func
 735              		.type	ch_ltoa, %function
 736              	ch_ltoa:
 737              	.LFB273:
 738              		.loc 1 70 0
 739              		.cfi_startproc
 740              		@ args = 0, pretend = 0, frame = 16
 741              		@ frame_needed = 0, uses_anonymous_args = 0
 742 0000 00B5     		push	{lr}
 743              		.cfi_def_cfa_offset 4
 744              		.cfi_offset 14, -4
 745 0002 85B0     		sub	sp, sp, #20
 746              		.cfi_def_cfa_offset 24
 747 0004 0390     		str	r0, [sp, #12]
 748 0006 0291     		str	r1, [sp, #8]
 749 0008 0192     		str	r2, [sp, #4]
 750              		.loc 1 72 0
 751 000a 0398     		ldr	r0, [sp, #12]
 752 000c 0299     		ldr	r1, [sp, #8]
 753 000e 019A     		ldr	r2, [sp, #4]
 754 0010 0023     		movs	r3, #0
 755 0012 FFF7FEFF 		bl	long_to_string_with_divisor
 756 0016 0346     		mov	r3, r0
 757              		.loc 1 73 0
 758 0018 1846     		mov	r0, r3
 759 001a 05B0     		add	sp, sp, #20
 760              		@ sp needed
 761 001c 5DF804FB 		ldr	pc, [sp], #4
 762              		.cfi_endproc
 763              	.LFE273:
 764              		.size	ch_ltoa, .-ch_ltoa
 765              		.section	.rodata
 766              		.align	2
 767              	.LC0:
 768 0000 286E756C 		.ascii	"(null)\000"
 768      6C2900
 769 0007 00       		.section	.text.chvprintf,"ax",%progbits
 770              		.align	2
 771              		.p2align 4,,15
 772              		.global	chvprintf
 773              		.thumb
 774              		.thumb_func
 775              		.type	chvprintf, %function
ARM GAS  /tmp/ccZOirIi.s 			page 52


 776              	chvprintf:
 777              	.LFB274:
 778              		.loc 1 121 0
 779              		.cfi_startproc
 780              		@ args = 0, pretend = 0, frame = 64
 781              		@ frame_needed = 0, uses_anonymous_args = 0
 782 0000 00B5     		push	{lr}
 783              		.cfi_def_cfa_offset 4
 784              		.cfi_offset 14, -4
 785 0002 91B0     		sub	sp, sp, #68
 786              		.cfi_def_cfa_offset 72
 787 0004 0390     		str	r0, [sp, #12]
 788 0006 0291     		str	r1, [sp, #8]
 789 0008 0192     		str	r2, [sp, #4]
 790              		.loc 1 124 0
 791 000a 0023     		movs	r3, #0
 792 000c 0993     		str	r3, [sp, #36]
 793              	.L61:
 794              		.loc 1 135 0
 795 000e 029B     		ldr	r3, [sp, #8]
 796 0010 5A1C     		adds	r2, r3, #1
 797 0012 0292     		str	r2, [sp, #8]
 798 0014 1B78     		ldrb	r3, [r3]
 799 0016 8DF83730 		strb	r3, [sp, #55]
 800              		.loc 1 136 0
 801 001a 9DF83730 		ldrb	r3, [sp, #55]	@ zero_extendqisi2
 802 001e 002B     		cmp	r3, #0
 803 0020 01D1     		bne	.L11
 804              		.loc 1 137 0
 805 0022 099B     		ldr	r3, [sp, #36]
 806 0024 13E2     		b	.L62
 807              	.L11:
 808              		.loc 1 138 0
 809 0026 9DF83730 		ldrb	r3, [sp, #55]	@ zero_extendqisi2
 810 002a 252B     		cmp	r3, #37
 811 002c 0BD0     		beq	.L13
 812              		.loc 1 139 0
 813 002e 039B     		ldr	r3, [sp, #12]
 814 0030 1B68     		ldr	r3, [r3]
 815 0032 9B68     		ldr	r3, [r3, #8]
 816 0034 9DF83720 		ldrb	r2, [sp, #55]	@ zero_extendqisi2
 817 0038 0398     		ldr	r0, [sp, #12]
 818 003a 1146     		mov	r1, r2
 819 003c 9847     		blx	r3
 820              		.loc 1 140 0
 821 003e 099B     		ldr	r3, [sp, #36]
 822 0040 0133     		adds	r3, r3, #1
 823 0042 0993     		str	r3, [sp, #36]
 824              		.loc 1 141 0
 825 0044 02E2     		b	.L14
 826              	.L13:
 827              		.loc 1 143 0
 828 0046 04AB     		add	r3, sp, #16
 829 0048 0F93     		str	r3, [sp, #60]
 830              		.loc 1 144 0
 831 004a 04AB     		add	r3, sp, #16
 832 004c 0E93     		str	r3, [sp, #56]
ARM GAS  /tmp/ccZOirIi.s 			page 53


 833              		.loc 1 145 0
 834 004e 0023     		movs	r3, #0
 835 0050 8DF82230 		strb	r3, [sp, #34]
 836              		.loc 1 146 0
 837 0054 029B     		ldr	r3, [sp, #8]
 838 0056 1B78     		ldrb	r3, [r3]	@ zero_extendqisi2
 839 0058 2D2B     		cmp	r3, #45
 840 005a 05D1     		bne	.L15
 841              		.loc 1 147 0
 842 005c 029B     		ldr	r3, [sp, #8]
 843 005e 0133     		adds	r3, r3, #1
 844 0060 0293     		str	r3, [sp, #8]
 845              		.loc 1 148 0
 846 0062 0123     		movs	r3, #1
 847 0064 8DF82230 		strb	r3, [sp, #34]
 848              	.L15:
 849              		.loc 1 150 0
 850 0068 2023     		movs	r3, #32
 851 006a 8DF83630 		strb	r3, [sp, #54]
 852              		.loc 1 151 0
 853 006e 029B     		ldr	r3, [sp, #8]
 854 0070 1B78     		ldrb	r3, [r3]	@ zero_extendqisi2
 855 0072 302B     		cmp	r3, #48
 856 0074 05D1     		bne	.L16
 857              		.loc 1 152 0
 858 0076 029B     		ldr	r3, [sp, #8]
 859 0078 0133     		adds	r3, r3, #1
 860 007a 0293     		str	r3, [sp, #8]
 861              		.loc 1 153 0
 862 007c 3023     		movs	r3, #48
 863 007e 8DF83630 		strb	r3, [sp, #54]
 864              	.L16:
 865              		.loc 1 155 0
 866 0082 0023     		movs	r3, #0
 867 0084 0A93     		str	r3, [sp, #40]
 868              	.L21:
 869              		.loc 1 157 0
 870 0086 029B     		ldr	r3, [sp, #8]
 871 0088 5A1C     		adds	r2, r3, #1
 872 008a 0292     		str	r2, [sp, #8]
 873 008c 1B78     		ldrb	r3, [r3]
 874 008e 8DF83730 		strb	r3, [sp, #55]
 875              		.loc 1 158 0
 876 0092 9DF83730 		ldrb	r3, [sp, #55]	@ zero_extendqisi2
 877 0096 2F2B     		cmp	r3, #47
 878 0098 09D9     		bls	.L17
 879              		.loc 1 158 0 is_stmt 0 discriminator 1
 880 009a 9DF83730 		ldrb	r3, [sp, #55]	@ zero_extendqisi2
 881 009e 392B     		cmp	r3, #57
 882 00a0 05D8     		bhi	.L17
 883              		.loc 1 159 0 is_stmt 1
 884 00a2 9DF83730 		ldrb	r3, [sp, #55]
 885 00a6 303B     		subs	r3, r3, #48
 886 00a8 8DF83730 		strb	r3, [sp, #55]
 887 00ac 12E0     		b	.L18
 888              	.L17:
 889              		.loc 1 160 0
ARM GAS  /tmp/ccZOirIi.s 			page 54


 890 00ae 9DF83730 		ldrb	r3, [sp, #55]	@ zero_extendqisi2
 891 00b2 2A2B     		cmp	r3, #42
 892 00b4 06D1     		bne	.L19
 893              		.loc 1 161 0
 894 00b6 019B     		ldr	r3, [sp, #4]
 895 00b8 1A1D     		adds	r2, r3, #4
 896 00ba 0192     		str	r2, [sp, #4]
 897 00bc 1B68     		ldr	r3, [r3]
 898 00be 8DF83730 		strb	r3, [sp, #55]
 899 00c2 07E0     		b	.L18
 900              	.L19:
 901              		.loc 1 163 0
 902 00c4 00BF     		nop
 903              		.loc 1 166 0
 904 00c6 0023     		movs	r3, #0
 905 00c8 0B93     		str	r3, [sp, #44]
 906              		.loc 1 167 0
 907 00ca 9DF83730 		ldrb	r3, [sp, #55]	@ zero_extendqisi2
 908 00ce 2E2B     		cmp	r3, #46
 909 00d0 37D1     		bne	.L22
 910 00d2 0AE0     		b	.L26
 911              	.L18:
 912              		.loc 1 164 0
 913 00d4 0A9A     		ldr	r2, [sp, #40]
 914 00d6 1346     		mov	r3, r2
 915 00d8 9B00     		lsls	r3, r3, #2
 916 00da 1344     		add	r3, r3, r2
 917 00dc 5B00     		lsls	r3, r3, #1
 918 00de 1A46     		mov	r2, r3
 919 00e0 9DF83730 		ldrb	r3, [sp, #55]	@ zero_extendqisi2
 920 00e4 1344     		add	r3, r3, r2
 921 00e6 0A93     		str	r3, [sp, #40]
 922              		.loc 1 165 0
 923 00e8 CDE7     		b	.L21
 924              	.L26:
 925              		.loc 1 169 0
 926 00ea 029B     		ldr	r3, [sp, #8]
 927 00ec 5A1C     		adds	r2, r3, #1
 928 00ee 0292     		str	r2, [sp, #8]
 929 00f0 1B78     		ldrb	r3, [r3]
 930 00f2 8DF83730 		strb	r3, [sp, #55]
 931              		.loc 1 170 0
 932 00f6 9DF83730 		ldrb	r3, [sp, #55]	@ zero_extendqisi2
 933 00fa 2F2B     		cmp	r3, #47
 934 00fc 09D9     		bls	.L23
 935              		.loc 1 170 0 is_stmt 0 discriminator 1
 936 00fe 9DF83730 		ldrb	r3, [sp, #55]	@ zero_extendqisi2
 937 0102 392B     		cmp	r3, #57
 938 0104 05D8     		bhi	.L23
 939              		.loc 1 171 0 is_stmt 1
 940 0106 9DF83730 		ldrb	r3, [sp, #55]
 941 010a 303B     		subs	r3, r3, #48
 942 010c 8DF83730 		strb	r3, [sp, #55]
 943 0110 0BE0     		b	.L24
 944              	.L23:
 945              		.loc 1 172 0
 946 0112 9DF83730 		ldrb	r3, [sp, #55]	@ zero_extendqisi2
ARM GAS  /tmp/ccZOirIi.s 			page 55


 947 0116 2A2B     		cmp	r3, #42
 948 0118 06D1     		bne	.L25
 949              		.loc 1 173 0
 950 011a 019B     		ldr	r3, [sp, #4]
 951 011c 1A1D     		adds	r2, r3, #4
 952 011e 0192     		str	r2, [sp, #4]
 953 0120 1B68     		ldr	r3, [r3]
 954 0122 8DF83730 		strb	r3, [sp, #55]
 955 0126 00E0     		b	.L24
 956              	.L25:
 957              		.loc 1 175 0
 958 0128 0BE0     		b	.L22
 959              	.L24:
 960              		.loc 1 176 0
 961 012a 0B9A     		ldr	r2, [sp, #44]
 962 012c 1346     		mov	r3, r2
 963 012e 9B00     		lsls	r3, r3, #2
 964 0130 1344     		add	r3, r3, r2
 965 0132 5B00     		lsls	r3, r3, #1
 966 0134 0B93     		str	r3, [sp, #44]
 967              		.loc 1 177 0
 968 0136 9DF83730 		ldrb	r3, [sp, #55]	@ zero_extendqisi2
 969 013a 0B9A     		ldr	r2, [sp, #44]
 970 013c 1344     		add	r3, r3, r2
 971 013e 0B93     		str	r3, [sp, #44]
 972              		.loc 1 178 0
 973 0140 D3E7     		b	.L26
 974              	.L22:
 975              		.loc 1 181 0
 976 0142 9DF83730 		ldrb	r3, [sp, #55]	@ zero_extendqisi2
 977 0146 6C2B     		cmp	r3, #108
 978 0148 03D0     		beq	.L27
 979              		.loc 1 181 0 is_stmt 0 discriminator 1
 980 014a 9DF83730 		ldrb	r3, [sp, #55]	@ zero_extendqisi2
 981 014e 4C2B     		cmp	r3, #76
 982 0150 0ED1     		bne	.L28
 983              	.L27:
 984              		.loc 1 182 0 is_stmt 1
 985 0152 0123     		movs	r3, #1
 986 0154 8DF82330 		strb	r3, [sp, #35]
 987              		.loc 1 183 0
 988 0158 029B     		ldr	r3, [sp, #8]
 989 015a 1B78     		ldrb	r3, [r3]	@ zero_extendqisi2
 990 015c 002B     		cmp	r3, #0
 991 015e 06D0     		beq	.L29
 992              		.loc 1 184 0
 993 0160 029B     		ldr	r3, [sp, #8]
 994 0162 5A1C     		adds	r2, r3, #1
 995 0164 0292     		str	r2, [sp, #8]
 996 0166 1B78     		ldrb	r3, [r3]
 997 0168 8DF83730 		strb	r3, [sp, #55]
 998              		.loc 1 183 0
 999 016c 13E0     		b	.L30
 1000              	.L29:
 1001              		.loc 1 183 0 is_stmt 0 discriminator 1
 1002 016e 12E0     		b	.L30
 1003              	.L28:
ARM GAS  /tmp/ccZOirIi.s 			page 56


 1004              		.loc 1 187 0 is_stmt 1
 1005 0170 9DF83730 		ldrb	r3, [sp, #55]	@ zero_extendqisi2
 1006 0174 402B     		cmp	r3, #64
 1007 0176 05D9     		bls	.L31
 1008              		.loc 1 187 0 is_stmt 0 discriminator 1
 1009 0178 9DF83730 		ldrb	r3, [sp, #55]	@ zero_extendqisi2
 1010 017c 5A2B     		cmp	r3, #90
 1011 017e 01D8     		bhi	.L31
 1012              		.loc 1 187 0 discriminator 3
 1013 0180 0123     		movs	r3, #1
 1014 0182 00E0     		b	.L32
 1015              	.L31:
 1016              		.loc 1 187 0 discriminator 2
 1017 0184 0023     		movs	r3, #0
 1018              	.L32:
 1019              		.loc 1 187 0 discriminator 4
 1020 0186 8DF82330 		strb	r3, [sp, #35]
 1021 018a 9DF82330 		ldrb	r3, [sp, #35]
 1022 018e 03F00103 		and	r3, r3, #1
 1023 0192 8DF82330 		strb	r3, [sp, #35]
 1024              	.L30:
 1025              		.loc 1 190 0 is_stmt 1
 1026 0196 9DF83730 		ldrb	r3, [sp, #55]	@ zero_extendqisi2
 1027 019a 443B     		subs	r3, r3, #68
 1028 019c 342B     		cmp	r3, #52
 1029 019e 00F2E580 		bhi	.L33
 1030 01a2 01A2     		adr	r2, .L35
 1031 01a4 52F823F0 		ldr	pc, [r2, r3, lsl #2]
 1032              		.p2align 2
 1033              	.L35:
 1034 01a8 E5020000 		.word	.L34+1
 1035 01ac 6D030000 		.word	.L33+1
 1036 01b0 6D030000 		.word	.L33+1
 1037 01b4 6D030000 		.word	.L33+1
 1038 01b8 6D030000 		.word	.L33+1
 1039 01bc E5020000 		.word	.L34+1
 1040 01c0 6D030000 		.word	.L33+1
 1041 01c4 6D030000 		.word	.L33+1
 1042 01c8 6D030000 		.word	.L33+1
 1043 01cc 6D030000 		.word	.L33+1
 1044 01d0 6D030000 		.word	.L33+1
 1045 01d4 37030000 		.word	.L36+1
 1046 01d8 6D030000 		.word	.L33+1
 1047 01dc 6D030000 		.word	.L33+1
 1048 01e0 6D030000 		.word	.L33+1
 1049 01e4 6D030000 		.word	.L33+1
 1050 01e8 6D030000 		.word	.L33+1
 1051 01ec 2F030000 		.word	.L37+1
 1052 01f0 6D030000 		.word	.L33+1
 1053 01f4 6D030000 		.word	.L33+1
 1054 01f8 27030000 		.word	.L38+1
 1055 01fc 6D030000 		.word	.L33+1
 1056 0200 6D030000 		.word	.L33+1
 1057 0204 6D030000 		.word	.L33+1
 1058 0208 6D030000 		.word	.L33+1
 1059 020c 6D030000 		.word	.L33+1
 1060 0210 6D030000 		.word	.L33+1
ARM GAS  /tmp/ccZOirIi.s 			page 57


 1061 0214 6D030000 		.word	.L33+1
 1062 0218 6D030000 		.word	.L33+1
 1063 021c 6D030000 		.word	.L33+1
 1064 0220 6D030000 		.word	.L33+1
 1065 0224 7D020000 		.word	.L39+1
 1066 0228 E5020000 		.word	.L34+1
 1067 022c 6D030000 		.word	.L33+1
 1068 0230 6D030000 		.word	.L33+1
 1069 0234 6D030000 		.word	.L33+1
 1070 0238 6D030000 		.word	.L33+1
 1071 023c E5020000 		.word	.L34+1
 1072 0240 6D030000 		.word	.L33+1
 1073 0244 6D030000 		.word	.L33+1
 1074 0248 6D030000 		.word	.L33+1
 1075 024c 6D030000 		.word	.L33+1
 1076 0250 6D030000 		.word	.L33+1
 1077 0254 37030000 		.word	.L36+1
 1078 0258 6D030000 		.word	.L33+1
 1079 025c 6D030000 		.word	.L33+1
 1080 0260 6D030000 		.word	.L33+1
 1081 0264 97020000 		.word	.L40+1
 1082 0268 6D030000 		.word	.L33+1
 1083 026c 2F030000 		.word	.L37+1
 1084 0270 6D030000 		.word	.L33+1
 1085 0274 6D030000 		.word	.L33+1
 1086 0278 27030000 		.word	.L38+1
 1087              	.L39:
 1088              		.loc 1 192 0
 1089 027c 2023     		movs	r3, #32
 1090 027e 8DF83630 		strb	r3, [sp, #54]
 1091              		.loc 1 193 0
 1092 0282 0F9B     		ldr	r3, [sp, #60]
 1093 0284 5A1C     		adds	r2, r3, #1
 1094 0286 0F92     		str	r2, [sp, #60]
 1095 0288 019A     		ldr	r2, [sp, #4]
 1096 028a 111D     		adds	r1, r2, #4
 1097 028c 0191     		str	r1, [sp, #4]
 1098 028e 1268     		ldr	r2, [r2]
 1099 0290 D2B2     		uxtb	r2, r2
 1100 0292 1A70     		strb	r2, [r3]
 1101              		.loc 1 194 0
 1102 0294 71E0     		b	.L41
 1103              	.L40:
 1104              		.loc 1 196 0
 1105 0296 2023     		movs	r3, #32
 1106 0298 8DF83630 		strb	r3, [sp, #54]
 1107              		.loc 1 197 0
 1108 029c 019B     		ldr	r3, [sp, #4]
 1109 029e 1A1D     		adds	r2, r3, #4
 1110 02a0 0192     		str	r2, [sp, #4]
 1111 02a2 1B68     		ldr	r3, [r3]
 1112 02a4 0E93     		str	r3, [sp, #56]
 1113 02a6 0E9B     		ldr	r3, [sp, #56]
 1114 02a8 002B     		cmp	r3, #0
 1115 02aa 04D1     		bne	.L42
 1116              		.loc 1 198 0
 1117 02ac 40F20003 		movw	r3, #:lower16:.LC0
ARM GAS  /tmp/ccZOirIi.s 			page 58


 1118 02b0 C0F20003 		movt	r3, #:upper16:.LC0
 1119 02b4 0E93     		str	r3, [sp, #56]
 1120              	.L42:
 1121              		.loc 1 199 0
 1122 02b6 0B9B     		ldr	r3, [sp, #44]
 1123 02b8 002B     		cmp	r3, #0
 1124 02ba 02D1     		bne	.L43
 1125              		.loc 1 200 0
 1126 02bc 47F6FF73 		movw	r3, #32767
 1127 02c0 0B93     		str	r3, [sp, #44]
 1128              	.L43:
 1129              		.loc 1 201 0
 1130 02c2 0E9B     		ldr	r3, [sp, #56]
 1131 02c4 0F93     		str	r3, [sp, #60]
 1132 02c6 02E0     		b	.L44
 1133              	.L46:
 1134              		.loc 1 201 0 is_stmt 0 discriminator 1
 1135 02c8 0F9B     		ldr	r3, [sp, #60]
 1136 02ca 0133     		adds	r3, r3, #1
 1137 02cc 0F93     		str	r3, [sp, #60]
 1138              	.L44:
 1139 02ce 0F9B     		ldr	r3, [sp, #60]
 1140 02d0 1B78     		ldrb	r3, [r3]	@ zero_extendqisi2
 1141 02d2 002B     		cmp	r3, #0
 1142 02d4 05D0     		beq	.L45
 1143              		.loc 1 201 0 discriminator 2
 1144 02d6 0B9B     		ldr	r3, [sp, #44]
 1145 02d8 013B     		subs	r3, r3, #1
 1146 02da 0B93     		str	r3, [sp, #44]
 1147 02dc 0B9B     		ldr	r3, [sp, #44]
 1148 02de 002B     		cmp	r3, #0
 1149 02e0 F2DA     		bge	.L46
 1150              	.L45:
 1151              		.loc 1 203 0 is_stmt 1
 1152 02e2 4AE0     		b	.L41
 1153              	.L34:
 1154              		.loc 1 208 0
 1155 02e4 9DF82330 		ldrb	r3, [sp, #35]	@ zero_extendqisi2
 1156 02e8 002B     		cmp	r3, #0
 1157 02ea 05D0     		beq	.L47
 1158              		.loc 1 209 0
 1159 02ec 019B     		ldr	r3, [sp, #4]
 1160 02ee 1A1D     		adds	r2, r3, #4
 1161 02f0 0192     		str	r2, [sp, #4]
 1162 02f2 1B68     		ldr	r3, [r3]
 1163 02f4 0793     		str	r3, [sp, #28]
 1164 02f6 04E0     		b	.L48
 1165              	.L47:
 1166              		.loc 1 211 0
 1167 02f8 019B     		ldr	r3, [sp, #4]
 1168 02fa 1A1D     		adds	r2, r3, #4
 1169 02fc 0192     		str	r2, [sp, #4]
 1170 02fe 1B68     		ldr	r3, [r3]
 1171 0300 0793     		str	r3, [sp, #28]
 1172              	.L48:
 1173              		.loc 1 212 0
 1174 0302 079B     		ldr	r3, [sp, #28]
ARM GAS  /tmp/ccZOirIi.s 			page 59


 1175 0304 002B     		cmp	r3, #0
 1176 0306 07DA     		bge	.L49
 1177              		.loc 1 213 0
 1178 0308 0F9B     		ldr	r3, [sp, #60]
 1179 030a 5A1C     		adds	r2, r3, #1
 1180 030c 0F92     		str	r2, [sp, #60]
 1181 030e 2D22     		movs	r2, #45
 1182 0310 1A70     		strb	r2, [r3]
 1183              		.loc 1 214 0
 1184 0312 079B     		ldr	r3, [sp, #28]
 1185 0314 5B42     		negs	r3, r3
 1186 0316 0793     		str	r3, [sp, #28]
 1187              	.L49:
 1188              		.loc 1 216 0
 1189 0318 0F98     		ldr	r0, [sp, #60]
 1190 031a 0799     		ldr	r1, [sp, #28]
 1191 031c 0A22     		movs	r2, #10
 1192 031e FFF7FEFF 		bl	ch_ltoa
 1193 0322 0F90     		str	r0, [sp, #60]
 1194              		.loc 1 217 0
 1195 0324 29E0     		b	.L41
 1196              	.L38:
 1197              		.loc 1 230 0
 1198 0326 1023     		movs	r3, #16
 1199 0328 8DF83730 		strb	r3, [sp, #55]
 1200              		.loc 1 231 0
 1201 032c 06E0     		b	.L50
 1202              	.L37:
 1203              		.loc 1 234 0
 1204 032e 0A23     		movs	r3, #10
 1205 0330 8DF83730 		strb	r3, [sp, #55]
 1206              		.loc 1 235 0
 1207 0334 02E0     		b	.L50
 1208              	.L36:
 1209              		.loc 1 238 0
 1210 0336 0823     		movs	r3, #8
 1211 0338 8DF83730 		strb	r3, [sp, #55]
 1212              	.L50:
 1213              		.loc 1 240 0
 1214 033c 9DF82330 		ldrb	r3, [sp, #35]	@ zero_extendqisi2
 1215 0340 002B     		cmp	r3, #0
 1216 0342 05D0     		beq	.L51
 1217              		.loc 1 241 0
 1218 0344 019B     		ldr	r3, [sp, #4]
 1219 0346 1A1D     		adds	r2, r3, #4
 1220 0348 0192     		str	r2, [sp, #4]
 1221 034a 1B68     		ldr	r3, [r3]
 1222 034c 0793     		str	r3, [sp, #28]
 1223 034e 04E0     		b	.L52
 1224              	.L51:
 1225              		.loc 1 243 0
 1226 0350 019B     		ldr	r3, [sp, #4]
 1227 0352 1A1D     		adds	r2, r3, #4
 1228 0354 0192     		str	r2, [sp, #4]
 1229 0356 1B68     		ldr	r3, [r3]
 1230 0358 0793     		str	r3, [sp, #28]
 1231              	.L52:
ARM GAS  /tmp/ccZOirIi.s 			page 60


 1232              		.loc 1 244 0
 1233 035a 9DF83730 		ldrb	r3, [sp, #55]	@ zero_extendqisi2
 1234 035e 0F98     		ldr	r0, [sp, #60]
 1235 0360 0799     		ldr	r1, [sp, #28]
 1236 0362 1A46     		mov	r2, r3
 1237 0364 FFF7FEFF 		bl	ch_ltoa
 1238 0368 0F90     		str	r0, [sp, #60]
 1239              		.loc 1 245 0
 1240 036a 06E0     		b	.L41
 1241              	.L33:
 1242              		.loc 1 247 0
 1243 036c 0F9B     		ldr	r3, [sp, #60]
 1244 036e 5A1C     		adds	r2, r3, #1
 1245 0370 0F92     		str	r2, [sp, #60]
 1246 0372 9DF83720 		ldrb	r2, [sp, #55]
 1247 0376 1A70     		strb	r2, [r3]
 1248              		.loc 1 248 0
 1249 0378 00BF     		nop
 1250              	.L41:
 1251              		.loc 1 250 0
 1252 037a 0F9A     		ldr	r2, [sp, #60]
 1253 037c 0E9B     		ldr	r3, [sp, #56]
 1254 037e D31A     		subs	r3, r2, r3
 1255 0380 0C93     		str	r3, [sp, #48]
 1256              		.loc 1 251 0
 1257 0382 0A9A     		ldr	r2, [sp, #40]
 1258 0384 0C9B     		ldr	r3, [sp, #48]
 1259 0386 D31A     		subs	r3, r2, r3
 1260 0388 0A93     		str	r3, [sp, #40]
 1261 038a 0A9B     		ldr	r3, [sp, #40]
 1262 038c 002B     		cmp	r3, #0
 1263 038e 01DA     		bge	.L53
 1264              		.loc 1 252 0
 1265 0390 0023     		movs	r3, #0
 1266 0392 0A93     		str	r3, [sp, #40]
 1267              	.L53:
 1268              		.loc 1 253 0
 1269 0394 9DF82230 		ldrb	r3, [sp, #34]
 1270 0398 83F00103 		eor	r3, r3, #1
 1271 039c DBB2     		uxtb	r3, r3
 1272 039e 002B     		cmp	r3, #0
 1273 03a0 02D0     		beq	.L54
 1274              		.loc 1 254 0
 1275 03a2 0A9B     		ldr	r3, [sp, #40]
 1276 03a4 5B42     		negs	r3, r3
 1277 03a6 0A93     		str	r3, [sp, #40]
 1278              	.L54:
 1279              		.loc 1 255 0
 1280 03a8 0A9B     		ldr	r3, [sp, #40]
 1281 03aa 002B     		cmp	r3, #0
 1282 03ac 28DA     		bge	.L55
 1283              		.loc 1 256 0
 1284 03ae 0E9B     		ldr	r3, [sp, #56]
 1285 03b0 1B78     		ldrb	r3, [r3]	@ zero_extendqisi2
 1286 03b2 2D2B     		cmp	r3, #45
 1287 03b4 13D1     		bne	.L56
 1288              		.loc 1 256 0 is_stmt 0 discriminator 1
ARM GAS  /tmp/ccZOirIi.s 			page 61


 1289 03b6 9DF83630 		ldrb	r3, [sp, #54]	@ zero_extendqisi2
 1290 03ba 302B     		cmp	r3, #48
 1291 03bc 0FD1     		bne	.L56
 1292              		.loc 1 257 0 is_stmt 1
 1293 03be 039B     		ldr	r3, [sp, #12]
 1294 03c0 1B68     		ldr	r3, [r3]
 1295 03c2 9A68     		ldr	r2, [r3, #8]
 1296 03c4 0E9B     		ldr	r3, [sp, #56]
 1297 03c6 591C     		adds	r1, r3, #1
 1298 03c8 0E91     		str	r1, [sp, #56]
 1299 03ca 1B78     		ldrb	r3, [r3]	@ zero_extendqisi2
 1300 03cc 0398     		ldr	r0, [sp, #12]
 1301 03ce 1946     		mov	r1, r3
 1302 03d0 9047     		blx	r2
 1303              		.loc 1 258 0
 1304 03d2 099B     		ldr	r3, [sp, #36]
 1305 03d4 0133     		adds	r3, r3, #1
 1306 03d6 0993     		str	r3, [sp, #36]
 1307              		.loc 1 259 0
 1308 03d8 0C9B     		ldr	r3, [sp, #48]
 1309 03da 013B     		subs	r3, r3, #1
 1310 03dc 0C93     		str	r3, [sp, #48]
 1311              	.L56:
 1312              		.loc 1 262 0 discriminator 1
 1313 03de 039B     		ldr	r3, [sp, #12]
 1314 03e0 1B68     		ldr	r3, [r3]
 1315 03e2 9B68     		ldr	r3, [r3, #8]
 1316 03e4 9DF83620 		ldrb	r2, [sp, #54]	@ zero_extendqisi2
 1317 03e8 0398     		ldr	r0, [sp, #12]
 1318 03ea 1146     		mov	r1, r2
 1319 03ec 9847     		blx	r3
 1320              		.loc 1 263 0 discriminator 1
 1321 03ee 099B     		ldr	r3, [sp, #36]
 1322 03f0 0133     		adds	r3, r3, #1
 1323 03f2 0993     		str	r3, [sp, #36]
 1324              		.loc 1 264 0 discriminator 1
 1325 03f4 0A9B     		ldr	r3, [sp, #40]
 1326 03f6 0133     		adds	r3, r3, #1
 1327 03f8 0A93     		str	r3, [sp, #40]
 1328 03fa 0A9B     		ldr	r3, [sp, #40]
 1329 03fc 002B     		cmp	r3, #0
 1330 03fe EED1     		bne	.L56
 1331              	.L55:
 1332              		.loc 1 266 0
 1333 0400 0CE0     		b	.L57
 1334              	.L58:
 1335              		.loc 1 267 0
 1336 0402 039B     		ldr	r3, [sp, #12]
 1337 0404 1B68     		ldr	r3, [r3]
 1338 0406 9A68     		ldr	r2, [r3, #8]
 1339 0408 0E9B     		ldr	r3, [sp, #56]
 1340 040a 591C     		adds	r1, r3, #1
 1341 040c 0E91     		str	r1, [sp, #56]
 1342 040e 1B78     		ldrb	r3, [r3]	@ zero_extendqisi2
 1343 0410 0398     		ldr	r0, [sp, #12]
 1344 0412 1946     		mov	r1, r3
 1345 0414 9047     		blx	r2
ARM GAS  /tmp/ccZOirIi.s 			page 62


 1346              		.loc 1 268 0
 1347 0416 099B     		ldr	r3, [sp, #36]
 1348 0418 0133     		adds	r3, r3, #1
 1349 041a 0993     		str	r3, [sp, #36]
 1350              	.L57:
 1351              		.loc 1 266 0 discriminator 1
 1352 041c 0C9B     		ldr	r3, [sp, #48]
 1353 041e 013B     		subs	r3, r3, #1
 1354 0420 0C93     		str	r3, [sp, #48]
 1355 0422 0C9B     		ldr	r3, [sp, #48]
 1356 0424 002B     		cmp	r3, #0
 1357 0426 ECDA     		bge	.L58
 1358              		.loc 1 271 0
 1359 0428 0DE0     		b	.L59
 1360              	.L60:
 1361              		.loc 1 272 0
 1362 042a 039B     		ldr	r3, [sp, #12]
 1363 042c 1B68     		ldr	r3, [r3]
 1364 042e 9B68     		ldr	r3, [r3, #8]
 1365 0430 9DF83620 		ldrb	r2, [sp, #54]	@ zero_extendqisi2
 1366 0434 0398     		ldr	r0, [sp, #12]
 1367 0436 1146     		mov	r1, r2
 1368 0438 9847     		blx	r3
 1369              		.loc 1 273 0
 1370 043a 099B     		ldr	r3, [sp, #36]
 1371 043c 0133     		adds	r3, r3, #1
 1372 043e 0993     		str	r3, [sp, #36]
 1373              		.loc 1 274 0
 1374 0440 0A9B     		ldr	r3, [sp, #40]
 1375 0442 013B     		subs	r3, r3, #1
 1376 0444 0A93     		str	r3, [sp, #40]
 1377              	.L59:
 1378              		.loc 1 271 0 discriminator 1
 1379 0446 0A9B     		ldr	r3, [sp, #40]
 1380 0448 002B     		cmp	r3, #0
 1381 044a EED1     		bne	.L60
 1382              	.L14:
 1383              		.loc 1 276 0
 1384 044c DFE5     		b	.L61
 1385              	.L62:
 1386              		.loc 1 277 0
 1387 044e 1846     		mov	r0, r3
 1388 0450 11B0     		add	sp, sp, #68
 1389              		@ sp needed
 1390 0452 5DF804FB 		ldr	pc, [sp], #4
 1391              		.cfi_endproc
 1392              	.LFE274:
 1393              		.size	chvprintf, .-chvprintf
 1394 0456 00BFAFF3 		.section	.text.chprintf,"ax",%progbits
 1394      0080AFF3 
 1394      0080
 1395              		.align	2
 1396              		.p2align 4,,15
 1397              		.global	chprintf
 1398              		.thumb
 1399              		.thumb_func
 1400              		.type	chprintf, %function
ARM GAS  /tmp/ccZOirIi.s 			page 63


 1401              	chprintf:
 1402              	.LFB275:
 1403              		.loc 1 302 0
 1404              		.cfi_startproc
 1405              		@ args = 4, pretend = 12, frame = 16
 1406              		@ frame_needed = 0, uses_anonymous_args = 1
 1407 0000 0EB4     		push	{r1, r2, r3}
 1408              		.cfi_def_cfa_offset 12
 1409              		.cfi_offset 1, -12
 1410              		.cfi_offset 2, -8
 1411              		.cfi_offset 3, -4
 1412 0002 00B5     		push	{lr}
 1413              		.cfi_def_cfa_offset 16
 1414              		.cfi_offset 14, -16
 1415 0004 84B0     		sub	sp, sp, #16
 1416              		.cfi_def_cfa_offset 32
 1417 0006 0190     		str	r0, [sp, #4]
 1418              		.loc 1 306 0
 1419 0008 06AB     		add	r3, sp, #24
 1420 000a 0293     		str	r3, [sp, #8]
 1421              		.loc 1 307 0
 1422 000c 0198     		ldr	r0, [sp, #4]
 1423 000e 0599     		ldr	r1, [sp, #20]
 1424 0010 029A     		ldr	r2, [sp, #8]
 1425 0012 FFF7FEFF 		bl	chvprintf
 1426 0016 0390     		str	r0, [sp, #12]
 1427              		.loc 1 310 0
 1428 0018 039B     		ldr	r3, [sp, #12]
 1429              		.loc 1 311 0
 1430 001a 1846     		mov	r0, r3
 1431 001c 04B0     		add	sp, sp, #16
 1432              		@ sp needed
 1433 001e 5DF804EB 		ldr	lr, [sp], #4
 1434 0022 03B0     		add	sp, sp, #12
 1435 0024 7047     		bx	lr
 1436              		.cfi_endproc
 1437              	.LFE275:
 1438              		.size	chprintf, .-chprintf
 1439 0026 00BFAFF3 		.section	.text.chsnprintf,"ax",%progbits
 1439      0080AFF3 
 1439      0080
 1440              		.align	2
 1441              		.p2align 4,,15
 1442              		.global	chsnprintf
 1443              		.thumb
 1444              		.thumb_func
 1445              		.type	chsnprintf, %function
 1446              	chsnprintf:
 1447              	.LFB276:
 1448              		.loc 1 341 0
 1449              		.cfi_startproc
 1450              		@ args = 4, pretend = 8, frame = 48
 1451              		@ frame_needed = 0, uses_anonymous_args = 1
 1452 0000 0CB4     		push	{r2, r3}
 1453              		.cfi_def_cfa_offset 8
 1454              		.cfi_offset 2, -8
 1455              		.cfi_offset 3, -4
ARM GAS  /tmp/ccZOirIi.s 			page 64


 1456 0002 00B5     		push	{lr}
 1457              		.cfi_def_cfa_offset 12
 1458              		.cfi_offset 14, -12
 1459 0004 8DB0     		sub	sp, sp, #52
 1460              		.cfi_def_cfa_offset 64
 1461 0006 0190     		str	r0, [sp, #4]
 1462 0008 0091     		str	r1, [sp]
 1463              		.loc 1 348 0
 1464 000a 009B     		ldr	r3, [sp]
 1465 000c 002B     		cmp	r3, #0
 1466 000e 03D0     		beq	.L66
 1467              		.loc 1 349 0
 1468 0010 009B     		ldr	r3, [sp]
 1469 0012 013B     		subs	r3, r3, #1
 1470 0014 0B93     		str	r3, [sp, #44]
 1471 0016 01E0     		b	.L67
 1472              	.L66:
 1473              		.loc 1 351 0
 1474 0018 0023     		movs	r3, #0
 1475 001a 0B93     		str	r3, [sp, #44]
 1476              	.L67:
 1477              		.loc 1 355 0
 1478 001c 03AB     		add	r3, sp, #12
 1479 001e 1846     		mov	r0, r3
 1480 0020 0199     		ldr	r1, [sp, #4]
 1481 0022 0B9A     		ldr	r2, [sp, #44]
 1482 0024 0023     		movs	r3, #0
 1483 0026 FFF7FEFF 		bl	msObjectInit
 1484              		.loc 1 358 0
 1485 002a 03AB     		add	r3, sp, #12
 1486 002c 0A93     		str	r3, [sp, #40]
 1487              		.loc 1 359 0
 1488 002e 0FAB     		add	r3, sp, #60
 1489 0030 0893     		str	r3, [sp, #32]
 1490              		.loc 1 360 0
 1491 0032 0A98     		ldr	r0, [sp, #40]
 1492 0034 0E99     		ldr	r1, [sp, #56]
 1493 0036 089A     		ldr	r2, [sp, #32]
 1494 0038 FFF7FEFF 		bl	chvprintf
 1495 003c 0990     		str	r0, [sp, #36]
 1496              		.loc 1 364 0
 1497 003e 069A     		ldr	r2, [sp, #24]
 1498 0040 009B     		ldr	r3, [sp]
 1499 0042 9A42     		cmp	r2, r3
 1500 0044 04D2     		bcs	.L68
 1501              		.loc 1 365 0
 1502 0046 069B     		ldr	r3, [sp, #24]
 1503 0048 019A     		ldr	r2, [sp, #4]
 1504 004a 1344     		add	r3, r3, r2
 1505 004c 0022     		movs	r2, #0
 1506 004e 1A70     		strb	r2, [r3]
 1507              	.L68:
 1508              		.loc 1 368 0
 1509 0050 099B     		ldr	r3, [sp, #36]
 1510              		.loc 1 369 0
 1511 0052 1846     		mov	r0, r3
 1512 0054 0DB0     		add	sp, sp, #52
ARM GAS  /tmp/ccZOirIi.s 			page 65


 1513              		@ sp needed
 1514 0056 5DF804EB 		ldr	lr, [sp], #4
 1515 005a 02B0     		add	sp, sp, #8
 1516 005c 7047     		bx	lr
 1517              		.cfi_endproc
 1518              	.LFE276:
 1519              		.size	chsnprintf, .-chsnprintf
 1520 005e 00BF     		.text
 1521              	.Letext0:
 1522              		.file 2 "/usr/lib/gcc/arm-none-eabi/4.8.2/include/stddef.h"
 1523              		.file 3 "/usr/include/newlib/machine/_default_types.h"
 1524              		.file 4 "/usr/include/newlib/stdint.h"
 1525              		.file 5 "lib/ChibiOS_16.1.4//os/rt/ports/ARMCMx/compilers/GCC/chtypes.h"
 1526              		.file 6 "lib/ChibiOS_16.1.4//os/rt/include/chsystypes.h"
 1527              		.file 7 "lib/ChibiOS_16.1.4//os/rt/include/chschd.h"
 1528              		.file 8 "lib/ChibiOS_16.1.4//os/rt/ports/ARMCMx/chcore.h"
 1529              		.file 9 "lib/ChibiOS_16.1.4//os/rt/ports/ARMCMx/chcore_v7m.h"
 1530              		.file 10 "lib/ChibiOS_16.1.4//os/rt/include/chdebug.h"
 1531              		.file 11 "lib/ChibiOS_16.1.4//os/rt/include/chtm.h"
 1532              		.file 12 "lib/ChibiOS_16.1.4//os/rt/include/chstats.h"
 1533              		.file 13 "lib/ChibiOS_16.1.4//os/rt/include/chsem.h"
 1534              		.file 14 "lib/ChibiOS_16.1.4//os/rt/include/chmtx.h"
 1535              		.file 15 "lib/ChibiOS_16.1.4//os/rt/include/chstreams.h"
 1536              		.file 16 "/usr/lib/gcc/arm-none-eabi/4.8.2/include/stdarg.h"
 1537              		.file 17 "<built-in>"
 1538              		.file 18 "lib/ChibiOS_16.1.4//os/hal/lib/streams/memstreams.h"
 1539              		.file 19 "lib/ChibiOS_16.1.4//os/ext/CMSIS/include/core_cm4.h"