ARM GAS  /tmp/ccNiCCOZ.s 			page 1


   1              		.syntax unified
   2              		.cpu cortex-m4
   3              		.fpu softvfp
   4              		.eabi_attribute 20, 1
   5              		.eabi_attribute 21, 1
   6              		.eabi_attribute 23, 3
   7              		.eabi_attribute 24, 1
   8              		.eabi_attribute 25, 1
   9              		.eabi_attribute 26, 1
  10              		.eabi_attribute 30, 6
  11              		.eabi_attribute 34, 1
  12              		.eabi_attribute 18, 4
  13              		.thumb
  14              		.file	"chregistry.c"
  15              		.text
  16              	.Ltext0:
  17              		.section	.gnu.lto_.inline.23801fd4217c6598,"",%progbits
  18 0000 789C6362 		.ascii	"x\234cb`b\300\0066Bi6\006\006\026f\006\006&\226\017"
  18      6062C006 
  18      36426936 
  18      06061666 
  18      06062696 
  19 0015 7A0C2C10 		.ascii	"z\014,\020\265\214\030\"L\014l\012@\222i\201<\\\015"
  19      B58C1822 
  19      4C0C6C0A 
  19      40926981 
  19      3C5C0D
  20 0028 170AC1CC 		.ascii	"\027\012\301\314 h\002T \362a5#\212\012&n\024el\014"
  20      20680254 
  20      20F26135 
  20      238A0A26 
  20      6E14656C 
  21 003d 9C524041 		.ascii	"\234R@A\256\007\261\230\346\2603\010\231\242\031\201"
  21      AE07B198 
  21      E6B03308 
  21      99A21981 
  22 004d D08D6031 		.ascii	"\320\215`1\000\000\005z\012#"
  22      0000057A 
  22      0A23
  23              		.text
  24              		.section	.gnu.lto_port_lock.23801fd4217c6598,"",%progbits
  25 0000 789C6362 		.ascii	"x\234cb`b@\007\"@,\310\310\300\320\000\342030\002U0"
  25      60624007 
  25      22402CC8 
  25      C8C0D000 
  25      E2303330 
  26 0017 32310205 		.ascii	"21\002\005\030\030\031\352\231\030\353#AL\006F%\206"
  26      181819EA 
  26      9918EB23 
  26      414C0646 
  26      2586
  27 0029 850D0D93 		.ascii	"\205\015\015\223\036\264>{\3144\263\341@\313\202\206"
  27      1EB43E7B 
  27      CC34B3E1 
  27      40CB8286 
  28 0039 3FFFFF33 		.ascii	"?\377\37732f2\002M\324gdHfd\210\000r\030\025\300\024"
  28      32663202 
ARM GAS  /tmp/ccNiCCOZ.s 			page 2


  28      4DD46764 
  28      48666488 
  28      00721815 
  29 004f 130BAA15 		.ascii	"\023\013\252\025\353\231\016<\370\377\377D\347\363\275"
  29      EB990E3C 
  29      F8FFFF44 
  29      E7F3BD
  30 005e 40931912 		.ascii	"@\223\031\022\031\027\002M\003\002V\206\226\206\206"
  30      1917024D 
  30      03025686 
  30      968686
  31 006d 090A0C20 		.ascii	"\011\012\014 \335@\020\002&CA\016`>\313\320\264\003"
  31      DD401002 
  31      2643410E 
  31      603ECBD0 
  31      B403
  32 007f 48A73332 		.ascii	"H\24732\202\314c\000\252a8\307\320\364\361\355\214\307"
  32      82CC6300 
  32      AA6138C7 
  32      D0F4F1ED 
  32      8CC7
  33 0091 12705D60 		.ascii	"\022p]`F\303\201\356+\355\2540#\023\031\0273\262\002"
  33      46C381EE 
  33      2BEDAC30 
  33      23131917 
  33      33B202
  34 00a4 8D833819 		.ascii	"\215\2038\031\010S\231A>f\206x[\216\241ln\303\014\207"
  34      08539941 
  34      3E668678 
  34      5B8EA16C 
  34      6EC30C87 
  35 00b8 4C466610 		.ascii	"LFf\020/\035\254\012.U\011\221\202\272\374\"C\343\203"
  35      2F1DAC0A 
  35      2E550991 
  35      82BAFC22 
  35      43E383
  36 00cb 9DFA10E3 		.ascii	"\235\372\020\343` \004\244\001\244ZGOO\037\216\362\213"
  36      602004A4 
  36      01A45A47 
  36      4F4F1F8E 
  36      F28B
  37 00dd F58B4AF4 		.ascii	"\365\213J\364\013\362\213J\212\365\035\203|\235}+\364"
  37      0BF28B4A 
  37      8AF51D83 
  37      7C9D7D2B 
  37      F4
  38 00ee 933392F3 		.ascii	"\2233\222\363\213R\343\313\314s\3652\030X\313\022sJ"
  38      8B52E3CB 
  38      CC73F532 
  38      1858CB12 
  38      734A
  39 0100 53F5D1B4 		.ascii	"S\365\321\264\244V\224\350;\373\006{\006\353g\346%\347"
  39      A45694E8 
  39      3BFB067B 
  39      06EB67E6 
  39      25E7
  40 0112 94A6A4EA 		.ascii	"\224\246\244\352\203\265$\347\272\225\346%\003u\011"
ARM GAS  /tmp/ccNiCCOZ.s 			page 3


  40      83B524E7 
  40      BA95E625 
  40      037509
  41 0121 F8060729 		.ascii	"\370\006\007)$%\026\247\026\024e\352(\250\03200\025"
  41      242516A7 
  41      161465EA 
  41      28A81A30 
  41      3015
  42 0133 31B0E7A6 		.ascii	"1\260\347\246\346\346\027U2\000\000%\366_c"
  42      E6E61755 
  42      32000025 
  42      F65F63
  43              		.text
  44              		.section	.gnu.lto_port_unlock.23801fd4217c6598,"",%progbits
  45 0000 789C6362 		.ascii	"x\234cb`b@\007\"@,\310\310\300\320\000\342030\002U0"
  45      60624007 
  45      22402CC8 
  45      C8C0D000 
  45      E2303330 
  46 0017 32310205 		.ascii	"21\002\005\030\030\031\352\231\030\353#AL\006F%\206"
  46      181819EA 
  46      9918EB23 
  46      414C0646 
  46      2586
  47 0029 850D0D93 		.ascii	"\205\015\015\223\036\264~z\3144\263\341@\313\202\206"
  47      1EB47E7A 
  47      CC34B3E1 
  47      40CB8286 
  48 0039 3FFFFF33 		.ascii	"?\377\37732f2\002M\324gdHfd\210\000r\030\025\300\024"
  48      32663202 
  48      4DD46764 
  48      48666488 
  48      00721815 
  49 004f 130BAA15 		.ascii	"\023\013\252\025\353\231\016<\370\377\377E\347\376}"
  49      EB990E3C 
  49      F8FFFF45 
  49      E7FE7D
  50 005e 40931912 		.ascii	"@\223\031\022\031\027\002M\003\002V\206\226\206\206"
  50      1917024D 
  50      03025686 
  50      968686
  51 006d 090A0C20 		.ascii	"\011\012\014 \335@\020\002&CA\016`>\313\320\264\003"
  51      DD401002 
  51      2643410E 
  51      603ECBD0 
  51      B403
  52 007f 48A73332 		.ascii	"H\24732\202\314\003\033r\216\241\351\343\333\031\217"
  52      82CC031B 
  52      728EA1E9 
  52      E3DB198F 
  53 008f 25E0BAC0 		.ascii	"%\340\272\300\214\206\003\247\237\266\263\302\214Ld"
  53      8C8603A7 
  53      9FB6B3C2 
  53      8C4C64
  54 009e 5CCCC80A 		.ascii	"\\\314\310\0124\016\342d Le\006\371\230\031\342m9\206"
  54      340EE264 
  54      204C6506 
ARM GAS  /tmp/ccNiCCOZ.s 			page 4


  54      F99819E2 
  54      6D3986
  55 00b1 B2B90D33 		.ascii	"\262\271\0153\0342\031\231A\274t\260*\270T%D\012\352"
  55      1C321999 
  55      41BC74B0 
  55      2AB85425 
  55      440AEA
  56 00c4 F28B0C8D 		.ascii	"\362\213\014\215\017\316\353C\214\203\201\020\220\006"
  56      0FCEEB43 
  56      8C838110 
  56      9006
  57 00d2 906A1D3D 		.ascii	"\220j\035==}8\312/\326/*\321/\310/*)\326w\014\362u\366"
  57      3D7D38CA 
  57      2FD62F2A 
  57      D12FC82F 
  57      2A29D677 
  58 00ea ADD04FCE 		.ascii	"\255\320O\316H\316/J\215/3\317\325\313``-K\314)M\325"
  58      48CE2F4A 
  58      8D2F33CF 
  58      D5CB6060 
  58      2D4BCC29 
  59 0100 47D3925A 		.ascii	"G\323\222ZQ\242\357\354\033\354\031\254\237\231\227"
  59      51A2EFEC 
  59      1BEC19AC 
  59      9F9997
  60 010f 9C539A92 		.ascii	"\234S\232\222\252\017\326\222\234\353V\232\227\014\324"
  60      AA0FD692 
  60      9CEB569A 
  60      970CD4
  61 011e 25E01B1C 		.ascii	"%\340\033\034\244\220\224X\234ZP\224\251\243\240j\300"
  61      A4909458 
  61      9C5A5094 
  61      A9A3A06A 
  61      C0
  62 012f C054C4C0 		.ascii	"\300T\304\300\236\233\232\233_T\311\000\000g\003_\257"
  62      9E9B9A9B 
  62      5F54C900 
  62      0067035F 
  62      AF
  63              		.text
  64              		.section	.gnu.lto_chSysLock.23801fd4217c6598,"",%progbits
  65 0000 789C6362 		.ascii	"x\234cb`b@\007\"@|\010\210U@\034f\006F\240\012F&FF "
  65      60624007 
  65      22407C08 
  65      8855401C 
  65      660646A0 
  66 001a 8791A19E 		.ascii	"\207\221\241\236\211\261>\222\021\254l=\323\201\007"
  66      89B13E92 
  66      11AC6C3D 
  66      D38107
  67 0029 FFFFAFFB 		.ascii	"\377\377\257\3732m\331\037\306\333L 1V\206\226\206\206"
  67      326DD91F 
  67      C6DB4C20 
  67      31568696 
  67      8686
  68 003b 090A0C0C 		.ascii	"\011\012\014\014\311`\025!`2\024\244\237\371<C\363\203"
  68      C9601521 
ARM GAS  /tmp/ccNiCCOZ.s 			page 5


  68      603214A4 
  68      9FF93C43 
  68      F383
  69 004d 3DDDEC89 		.ascii	"=\335\354\211\214\013\031Y\201\202\325\014\277\032:"
  69      8C0B1959 
  69      8182D50C 
  69      BF1A3A
  70 005c 1A043219 		.ascii	"\032\0042\031\201J!\246e\202h\220\252\275\335B\330T"
  70      814A21A6 
  70      65826890 
  70      AABDDD42 
  70      D854
  71 006e 31A1AADA 		.ascii	"1\241\252\332w\232\013\233*f\204\252\213\014\215\017"
  71      779A0B9B 
  71      2A6684AA 
  71      8B0C8D0F 
  72 007e F66BC314 		.ascii	"\366k\303\024A@\010H\002d\222\222\236\236>\034\345\027"
  72      41400848 
  72      02649292 
  72      9E9E3E1C 
  72      E517
  73 0090 EB1795E8 		.ascii	"\353\027\225\350g\346%\347\224\246\244\352'g\024W\026"
  73      67E625E7 
  73      94A6A4EA 
  73      27671457 
  73      16
  74 00a1 EB653000 		.ascii	"\353e0\000\000\203q8C"
  74      00837138 
  74      43
  75              		.text
  76              		.section	.gnu.lto_chSysUnlock.23801fd4217c6598,"",%progbits
  77 0000 789CCD92 		.ascii	"x\234\315\222\275J\003A\020\200gv\367.\211Qc#\250U\010"
  77      BD4A0341 
  77      10806776 
  77      F72E8951 
  77      6323A855 
  78 0015 560AC90B 		.ascii	"V\012\311\013\370\030\011\250\235\236\222\034\030\005"
  78      F81809A8 
  78      9D9E921C 
  78      1805
  79 0023 A38558B8 		.ascii	"\243\205X\270j\012\321&Xj\023\033\261\023\354\322YX"
  79      6A0AD126 
  79      586A131B 
  79      B113ECD2 
  79      5958
  80 0035 0444C44E 		.ascii	"\004D\304N\255\202\220*\351#\"\236\263{?9c\032\305\302"
  80      AD82902A 
  80      E923229E 
  80      B37B3F39 
  80      631AC5C2 
  81 0049 E16E666F 		.ascii	"\341nfoo\346\233\331\235a\300\240Wf\3505\005\300\244"
  81      6FE69BD9 
  81      9D61C0A0 
  81      5766E835 
  81      05C0A4
  82 005c FA880092 		.ascii	"\372\210\000\222\0072\344\2449\243m\311LRB0#X\033H\006"
  82      0732E4A4 
ARM GAS  /tmp/ccNiCCOZ.s 			page 6


  82      39A36DC9 
  82      4C524230 
  82      23581B48 
  83 0071 4D440A40 		.ascii	"MD\012@\330a\\\030&\356\314\251O0Sp&\345q\243\3319\031"
  83      D8615C18 
  83      26EECCA9 
  83      4F305370 
  83      26E571A3 
  84 0088 3FACEE55 		.ascii	"?\254\356U\344\207\343\240\255~Y\010\263\264\302\244"
  84      E487E3A0 
  84      AD7E5908 
  84      B3B4C2A4 
  85 0098 360A1D16 		.ascii	"6\012\035\0267L^]\310XU\276;\016\377]\014\377/y\212"
  85      374C5E5D 
  85      C85855BE 
  85      3B0EFF5D 
  85      0CFF2F79 
  86 00ad 0897ECBA 		.ascii	"\010\227\354\272\3418\355Z\355\245\215\243&\002ebJq"
  86      E138ED5A 
  86      EDA58DA3 
  86      26026562 
  86      4A71
  87 00bf 525CA895 		.ascii	"R\\\250\225\001\232D\266,e%Y\364J!\311j\235S\315\340"
  87      019A44B6 
  87      2C652559 
  87      F44A21C9 
  87      6A9D53CD 
  88 00d4 F7B0DF78 		.ascii	"\367\260\337x<\212/\3409R\017`\033\336\344\201\034\261"
  88      3C8A2FE0 
  88      39520F60 
  88      1BDEE481 
  88      1CB1
  89 00e6 5158BA03 		.ascii	"QX\272\003@\020\332W^O\255D?/\326\365r\251\224\223\337"
  89      4010DA57 
  89      5E4FAD44 
  89      3F2FD6F5 
  89      72A99493 
  90 00fb C1DEF36B 		.ascii	"\301\336\363kg\302\365\317#N\303\024U\244\265\251u\344"
  90      67C2F5CF 
  90      234EC314 
  90      55A4B5A9 
  90      75E4
  91 010d 144E76A5 		.ascii	"\024Nv\245BD\003X\254\250S\252\003\3074k\321\255\200"
  91      42440358 
  91      ACA853AA 
  91      03C7346B 
  91      D1AD80
  92 0120 2C7AD61F 		.ascii	",z\326\037\260:\224\333\030\320\025!j\343@\230O\254"
  92      B03A94DB 
  92      18D01521 
  92      6AE34098 
  92      4FAC
  93 0132 DEF02F92 		.ascii	"\336\360/\222C\341\3269\357cX\250\310\037\226\307=h"
  93      43E1D639 
  93      EF6358A8 
  93      C81F96C7 
  93      3D68
ARM GAS  /tmp/ccNiCCOZ.s 			page 7


  94 0144 18C73528 		.ascii	"\030\3075(N \012\030$\374\254;\251:@\364\011\020\177"
  94      4E200A18 
  94      24FCAC3B 
  94      A93A40F4 
  94      09107F
  95 0157 7D4961B8 		.ascii	"}Ia\270\321S\215\350WM\035n\232\301\255\362\274\337"
  95      D1538DE8 
  95      574D1D6E 
  95      9AC1ADF2 
  95      BCDF
  96 0169 52F7BA0C 		.ascii	"R\367\272\014=,\342\333\010\014Y\336\361\325\316\230"
  96      3D2CE2DB 
  96      080C59DE 
  96      F1D5CE98 
  97 0179 8DC33468 		.ascii	"\215\3034h\236\223\215\011?\332\364F\255u\033\3517D"
  97      9E938D09 
  97      3FDAF446 
  97      AD751BE9 
  97      3744
  98 018b A23B440F 		.ascii	"\242;D\017\260\333hO\373N\256d\325\331\324\261R\351"
  98      B0DB684F 
  98      FB4EAE64 
  98      D5D9D4B1 
  98      52E9
  99 019d 742678D6 		.ascii	"t&x\326J\231\365\215\214\275j\255l.-g\254Bi\253\224"
  99      4A99F58D 
  99      8CBD6AAD 
  99      6C2E2D67 
  99      AC4269AB 
 100 01b2 2EC027B8 		.ascii	".\300'\270W\315R"
 100      57CD52
 101              		.text
 102              		.section	.gnu.lto_chRegFirstThread.23801fd4217c6598,"",%progbits
 103 0000 789C8D50 		.ascii	"x\234\215P=H\303P\020\276{/\265\255\016\212\213\024"
 103      3D48C350 
 103      10BE7B2F 
 103      B5AD0E8A 
 103      8B14
 104 0012 17A9206A 		.ascii	"\027\251 j\241\301\301\331\331M\241\202\216\032%f\020"
 104      A1C1C1D9 
 104      D94DA182 
 104      8E1A2566 
 104      10
 105 0023 A5ED220E 		.ascii	"\245\355\"\016\276\372\003\342 \342\344\017\210\"\376"
 105      BEFA03E2 
 105      20E2E40F 
 105      8822FE
 106 0032 0EEA58A8 		.ascii	"\016\352X\250C\026\207*\"]\305!\270\2719\212\210\317"
 106      4316872A 
 106      225DC521 
 106      B8B9398A 
 106      88CF
 107 0044 BBA4A928 		.ascii	"\273\244\251(\202>\222\313\345{\367}w\367\011\020\360"
 107      823E92CB 
 107      E57BF77D 
 107      77F70910 
 107      F0
ARM GAS  /tmp/ccNiCCOZ.s 			page 8


 108 0055 F3B4D2FB 		.ascii	"\363\264\322\373Lp'\377\030\200\224\242@IQ\"\022\204"
 108      4C7027FF 
 108      188094A2 
 108      40495122 
 108      1284
 109 0067 302F24CE 		.ascii	"0/$\316\217p\016\221$\354+\265\341\035\036\235\266\254"
 109      8F700E91 
 109      24EC2BB5 
 109      E11D1E9D 
 109      B6AC
 110 0079 7A6A5D7D 		.ascii	"zj]}h\215\016_Y\010\303\224a\314\377\010\374\336$\240"
 110      688D0E5F 
 110      5908C394 
 110      61CCFF08 
 110      FCDE24A0 
 111 008d A9D2E3C0 		.ascii	"\251\322\343\300\246Zr\265\356\373?\347\374D\311=\365"
 111      A65A72B5 
 111      EEFB3FE7 
 111      FC44C93D 
 111      F5
 112 009e AEB5FC2F 		.ascii	"\256\265\374/g\333-\335\224\367\221\270\205\027\255"
 112      67DB2DDD 
 112      94F791B8 
 112      8517AD
 113 00ad 1B1D5E26 		.ascii	"\033\035^&\244\265\0054\343\267V\356\326\315ZB\355-"
 113      A4B50534 
 113      E3B756EE 
 113      D6CD5A42 
 113      ED2D
 114 00bf 845B4901 		.ascii	"\204[I\001\035\370\007\363B\270\236\326W\225\223\247"
 114      1DF807F3 
 114      42B89ED6 
 114      579593A7 
 115 00cf 5D6CAE43 		.ascii	"]l\256C\030\305CL\222\3134\253\344`p\210\200?\003}\227"
 115      18C5434C 
 115      92CB34AB 
 115      E4607088 
 115      803F037D 
 116 00e4 945A6F0B 		.ascii	"\224Zo\013j\374\231\350d\3748\304\276\313{X\364\326"
 116      6AFC99E8 
 116      64FC38C4 
 116      BECB7B58 
 116      F4D6
 117 00f6 96A3A378 		.ascii	"\226\243\243x\214\021\002\347\340M\255\250&\007\015"
 117      8C1102E7 
 117      E04DADA8 
 117      26070D
 118 0105 0B83451D 		.ascii	"\013\203E\035\306\357`\341\341\365\240'\250\262\021"
 118      C6EF60E1 
 118      E1F5A027 
 118      A8B211
 119 0114 5370A6E8 		.ascii	"Sp\246\350\014R\223j\332\353`\335\016l\027\024\223\243"
 119      0C52936A 
 119      DAEB60DD 
 119      0E6C1714 
 119      93A3
 120 0126 3599D894 		.ascii	"5\231\330\224\257\302{\304|\271\261\252}c\030\372\310"
ARM GAS  /tmp/ccNiCCOZ.s 			page 9


 120      AFC27BC4 
 120      7CB9B1AA 
 120      7D6318FA 
 120      C8
 121 0137 DAC5A3AE 		.ascii	"\332\305\243\256P[\244\240\333\3018i\021\247\236z1W"
 121      505BA4A0 
 121      DBC13869 
 121      11A79E7A 
 121      3157
 122 0149 5639E28B 		.ascii	"V9\342\213S\276\214\206\024i\363\305\035,\256\310\020"
 122      53BE8C86 
 122      1469F3C5 
 122      1D2CAEC8 
 122      10
 123 015a 32086562 		.ascii	"2\010eb\034\203\352\376\340\242:l\303\037\015\210\017"
 123      1C83EAFE 
 123      E0A23A6C 
 123      C31F0D88 
 123      0F
 124 016b C0CEEC5C 		.ascii	"\300\316\354\\\377\352\214\370\346L\271x\234\010\373"
 124      FFEA8CF8 
 124      E64CB978 
 124      9C08FB
 125 017a 46EC70AF 		.ascii	"F\354p\257!\326\224\267P\240\275\307\031\254\000\326"
 125      21D694B7 
 125      50A0BDC7 
 125      19AC00D6 
 126 018a AA82920C 		.ascii	"\252\202\222\014\303\254\325\236N\233\265g:gf\363f."
 126      C3ACD59E 
 126      4E9BB567 
 126      3A6766F3 
 126      662E
 127 019c 6B99D664 		.ascii	"k\231\326dv\302vr\371\354l\332\002\221\237\371\004x"
 127      76C27672 
 127      F9EC6CDA 
 127      02919FF9 
 127      0478
 128 01ae 52AA68   		.ascii	"R\252h"
 129              		.text
 130              		.section	.gnu.lto_chRegNextThread.23801fd4217c6598,"",%progbits
 131 0000 789C9D53 		.ascii	"x\234\235SMh\023A\024~of\377\022\177\361\242\005\017"
 131      4D681341 
 131      147E6F66 
 131      FF127FF1 
 131      A2050F
 132 0013 A582500B 		.ascii	"\245\202P\013\011=\211'\317z\362PA\217\355\266\256s"
 132      093D8927 
 132      CF7AF250 
 132      418FEDB6 
 132      AE73
 133 0025 884A120F 		.ascii	"\210J\022\017\322C'm\204\322\212\004\275\204zi/R=X\264"
 133      D243276D 
 133      84D28A04 
 133      BD847A69 
 133      2F523D58 
 134 003a 20224552 		.ascii	" \"ERP0\226Rr*\255\012\213X\324\233\307(\305\365\315"
 134      50309652 
ARM GAS  /tmp/ccNiCCOZ.s 			page 10


 134      722AAD0A 
 134      8B58D49B 
 134      C728C5F5 
 135 004f CEEEA67F 		.ascii	"\316\356\246\177\320\320!\373f\367\315\373\336\367\275"
 135      D0D021FB 
 135      66F7CDFB 
 135      DEF7BD
 136 005e F7260C18 		.ascii	"\367&\014\030\354\\\227\351\271a\000t\253\217\024 E"
 136      EC5C97E9 
 136      B9610074 
 136      AB8F1420 
 136      45
 137 006f 20631C40 		.ascii	" c\034@2\362J\203\243M\036\203\231\312c)\217\211\264"
 137      32F24A83 
 137      A34D1E83 
 137      99CA6329 
 137      8F89B4
 138 0082 A115FA6D 		.ascii	"\241\025\372mt\310:\210\004F\030a\3340-\333\301\221"
 138      74C83A88 
 138      04461861 
 138      DC302DDB 
 138      C191
 139 0094 EBCA0176 		.ascii	"\353\312\001v\027\314H\371\310\337\230\177vr\302\227"
 139      17CC48F9 
 139      C8DF987F 
 139      7672C297 
 140 00a4 15F92F08 		.ascii	"\025\371/\010P\250#\027\341\032\275\021Zm\014\267k\322"
 140      50A82317 
 140      E11ABD11 
 140      5A6D0CB7 
 140      6BD2
 141 00b6 B0DACBC9 		.ascii	"\260\332\313\311\007\007\200\311\306\227+UY\256\005"
 141      070780C9 
 141      C6972B55 
 141      59AE05
 142 00c5 C1C5F631 		.ascii	"\301\305\3661/f%\237\226\233A\300\333\305L\325\032K"
 142      2F66259F 
 142      969B41C0 
 142      DBC54CD5 
 142      1A4B
 143 00d7 F519246C 		.ascii	"\365\031$l\351w\020\034\023\310[\260N\0153\366\254\352"
 143      E977101C 
 143      13C85BB0 
 143      4E0D33F6 
 143      ACEA
 144 00e9 CFA7871D 		.ascii	"\317\247\207\035rz4\256\21238\213\373 s\010s\254\346"
 144      727A34AE 
 144      8A33388B 
 144      FB207308 
 144      73ACE6
 145 00fc 07C1C2EA 		.ascii	"\007\301\302\352\367o\277\360D\032\241\037\237b\027"
 145      F76FBFF0 
 145      441AA11F 
 145      9F6217
 146 010b 30CC2111 		.ascii	"0\314!\021\353\017#\332M\240\032,ele\034eR\020\012\244"
 146      EB0F23DA 
 146      4DA01A2C 
ARM GAS  /tmp/ccNiCCOZ.s 			page 11


 146      656C651C 
 146      6552100A 
 147 0120 B3B29495 		.ascii	"\263\262\224\225N\035\230\213J\245\325\027\332\253j"
 147      4E1D988B 
 147      4AA5D517 
 147      DAAB6A
 148 012f FA7C05C6 		.ascii	"\372|\005\306\374w\367\355~\234E\032:\014\303_9.\217"
 148      FC77F7ED 
 148      7E9C451A 
 148      3A0CC35F 
 148      392E8F
 149 0142 0B345CD4 		.ascii	"\0134\\\324\215\020\312\277\014\243\353\315\271\013"
 149      8D10CABF 
 149      0CA3EBCD 
 149      B90B
 150 0150 3ACA43DE 		.ascii	":\312C\336\003\317%\255\363\304\363\004\246\250\010"
 150      03CF25AD 
 150      F3C4F304 
 150      A6A808
 151 015f CB43A68A 		.ascii	"\313C\246\212\341!f \351\341Gx\377c\361\361$O\220\232"
 151      E1216620 
 151      E9E14778 
 151      FF63F1F1 
 151      244F909A 
 152 0173 40DE1568 		.ascii	"@\336\025hGI\206\005:9d\003\270\243\361Z#%\344\304\376"
 152      47498605 
 152      3A396403 
 152      B8A3F15A 
 152      2325E4C4 
 153 0188 A6F9AA8E 		.ascii	"\246\371\252\216q\022\243\305\024\306\030:f\2759\337"
 153      7112A3C5 
 153      14C6183A 
 153      66BD39DF 
 154 0198 1D87983D 		.ascii	"\035\207\230=pN`*\021\307\267\212c[\304%IM\025\221\012"
 154      704E602A 
 154      11C7B78A 
 154      635BC425 
 154      494D1591 
 155 01ad 701BBB19 		.ascii	"p\033\273\031v\310\330\325\235\264\033%Q\236S\002\017"
 155      76C8D8D5 
 155      9DB41B25 
 155      519E5302 
 155      0F
 156 01be E5D490C2 		.ascii	"\345\324\220\302 \201\207c\264\025\351\252\276^Lh\254"
 156      20818763 
 156      B415E9AA 
 156      BE5E4C68 
 156      AC
 157 01cf 768411A8 		.ascii	"v\204\021\250^I\307\020\333S\231\226al<i\243C\336P/"
 157      5E49C710 
 157      DB539996 
 157      616C3C69 
 157      A343DE50 
 158 01e4 EAE84BFA 		.ascii	"\352\350K\372 \352h\357>\004\236\372\037k\211vt\005"
 158      20EA68EF 
 158      3E049EFA 
 158      1F6B8976 
ARM GAS  /tmp/ccNiCCOZ.s 			page 12


 158      7405
 159 01f6 3E7FD8F3 		.ascii	">\177\330\363\012\360\326\025X\201\262\377ucw\324\021"
 159      0AF0D615 
 159      5881B2FF 
 159      756377D4 
 159      11
 160 0207 178D282B 		.ascii	"\027\215(+\023xT\213\257\276\355\210\245\246<=\3305"
 160      1378548B 
 160      AFBEED88 
 160      A5A63C3D 
 160      D835
 161 0219 409A1C5F 		.ascii	"@\232\034_X\033$M\326\346\352iEO:\370\022\224h\033T"
 161      581B244D 
 161      D6E6EA69 
 161      454F3AF8 
 161      1294681B 
 162 022e 5C0D28F9 		.ascii	"\\\015(\371?\207\022\244\026\331\247\360J\370\231L&"
 162      3F8712A4 
 162      16D9A7F0 
 162      4AF8994C 
 162      26
 163 023f 9BFC6E17 		.ascii	"\233\374n\027\262\371b\266\220w\263\356\315\374\220"
 163      B2F962B6 
 163      9077B3EE 
 163      CDFC90
 164 024e 270AC5FC 		.ascii	"'\012\305\374\275\214\013\374V\361\316\177\235\311\373"
 164      BD8C0BFC 
 164      56F1CE7F 
 164      9DC9FB
 165 025d 13       		.ascii	"\023"
 166              		.text
 167              		.section	.gnu.lto_.symbol_nodes.23801fd4217c6598,"",%progbits
 168 0000 789C4DCC 		.ascii	"x\234M\3149rB1\020\204\341\356\031\364\304f8\002\227"
 168      39724231 
 168      1084E1EE 
 168      19F4C466 
 168      380297
 169 0013 E0429CA4 		.ascii	"\340B\234\244_\231*\233\320\211O@\000\347\200\334\241"
 169      5F992A9B 
 169      D0894F40 
 169      00E780DC 
 169      A1
 170 0024 63202661 		.ascii	"c &a3x)\333o\241\020J\376\3724#\031\014C\242>\366\007"
 170      337829DB 
 170      6FA1104A 
 170      FEFA3423 
 170      190C43A2 
 171 003b 012F6F80 		.ascii	"\001/o\200\364:\031YN\361\2163\312\3568\247<1\034\213"
 171      F43A1959 
 171      4EF18E33 
 171      CAEE38A7 
 171      3C311C8B 
 172 004f 5F84F045 		.ascii	"_\204\360E6\344\266\247\032\327\341\373\204v\240Bb\370"
 172      36E4B6A7 
 172      1AD7E1FB 
 172      8476A042 
 172      62F8
ARM GAS  /tmp/ccNiCCOZ.s 			page 13


 173 0061 A6154B61 		.ascii	"\246\025KaG\217\002?\250\254\036\3469y\242b\322'\325"
 173      478F023F 
 173      A8AC1EE6 
 173      3979A262 
 173      D227D5
 174 0074 4CBA50AD 		.ascii	"L\272P\255\2443\325N\372\241:7\271\001\217\253\337\242"
 174      A433D54E 
 174      FAA13A37 
 174      B9018FAB 
 174      DFA2
 175 0086 1D4CABB6 		.ascii	"\035L\253\266\261,\353=\214\253>\324\367\336\305\364"
 175      B12CEB3D 
 175      8CAB3ED4 
 175      F7DEC5F4 
 176 0096 693B7027 		.ascii	"i;p'\026e3\253\337e\216\305\272h\274:v\261\254\354\330"
 176      166533AB 
 176      DF658EC5 
 176      BA68BC3A 
 176      76B1ACEC 
 177 00ab 947BB18F 		.ascii	"\224{\261\217\361\363v\200\177\353n_l"
 177      F1F37680 
 177      7FEB6E5F 
 177      6C
 178              		.text
 179              		.section	.gnu.lto_.refs.23801fd4217c6598,"",%progbits
 180 0000 789C6362 		.ascii	"x\234cb`b\020g\200\000Vf\006\026&\026\006 dbed\003\222"
 180      60621067 
 180      80005666 
 180      06162616 
 180      06206462 
 181 0018 EC4C2C4C 		.ascii	"\354L,L\034\014\000\006\204\000a"
 181      1C0C0006 
 181      840061
 182              		.text
 183              		.section	.gnu.lto_.decls.23801fd4217c6598,"",%progbits
 184 0000 789CC55C 		.ascii	"x\234\305\\\015p\024U\236\357\356\231d\022\022\222\210"
 184      0D701455 
 184      9EEFEE99 
 184      64121292 
 184      88
 185 0011 AB0757AE 		.ascii	"\253\007W\256\033=w\317r\367\014\354\252\340m\335\252"
 185      1B3D77CF 
 185      72F70CEC 
 185      AAE06DDD 
 185      AA
 186 0022 67DDEA56 		.ascii	"g\335\352V\235\226\245k\325U]\355\015\315\244!s\316"
 186      9D96A56B 
 186      D5555DED 
 186      0DCDA421 
 186      73CE
 187 0034 24D99E0E 		.ascii	"$\331\236\016\310\336\207\235\004\002\010'! \004\002"
 187      C8DE879D 
 187      04020827 
 187      21200402 
 188 0044 24802028 		.ascii	"$\200 (\002\011\337\012\322\240\004\0044$pD\203@<\371"
 188      0209DF0A 
 188      D2A00404 
ARM GAS  /tmp/ccNiCCOZ.s 			page 14


 188      34247044 
 188      83403CF9 
 189 0058 D015F996 		.ascii	"\320\025\371\226\257 \271\377\373\367{=\335=\335\223"
 189      AF20B9FF 
 189      FBF77B3D 
 189      DD3DDD93 
 190 0068 EEA8775D 		.ascii	"\356\250w]\364\233\327\335\357\375\336\377\373\377\336"
 190      F49BD7DD 
 190      EFFDDEFF 
 190      FBFFDE
 191 0077 EB0E0227 		.ascii	"\353\016\002'p\363\005\216\353\205\243\347i\216\233"
 191      70F3058E 
 191      EB85A3E7 
 191      698E9B
 192 0086 96CD7121 		.ascii	"\226\315q!\216\343~\303%\217\\8\027\301\271\014\316"
 192      8EE37EC3 
 192      258F5C38 
 192      17C1B90C 
 192      CE
 193 0097 1570AE84 		.ascii	"\025p\256\204s5\234\223x\216{\005\316Z8\353\340\234"
 193      73359C93 
 193      788E7B05 
 193      CE5A38EB 
 193      E09C
 194 00a9 0D673D9C 		.ascii	"\015g=\234\363\340\014\302\363\205\360\373s\300\376"
 194      F3E00CC2 
 194      F385F0FB 
 194      73C0FE
 195 00b8 259C2304 		.ascii	"%\234#\004\316r\020\274\014858\363\350\030\245\320\246"
 195      CE7210BC 
 195      0C383538 
 195      F3E818A5 
 195      D0A6
 196 00ca 9CB61368 		.ascii	"\234\266\023h\033\331\326\217\243t\364\325w\231K\337"
 196      1BD9D68F 
 196      A374F4D5 
 196      77994BDF 
 197 00da 15F4F9BF 		.ascii	"\025\364\371\277A\261\230\336\013\322\373d\274Z\312"
 197      41B198DE 
 197      0BD2FB64 
 197      BC5ACA
 198 00e9 93FD203C 		.ascii	"\223\375 <\027\300\331l\0323d\302\031\006}\226\301\331"
 198      17C0D96C 
 198      1A3364C2 
 198      19067D96 
 198      C1D9
 199 00fb 08E7BFC3 		.ascii	"\010\347\277\303\275\377\200s+\334o\201\363?\241\376"
 199      BDFF8073 
 199      2BDC6F81 
 199      F33FA1FE 
 200 010b 129C3379 		.ascii	"\022\2343y\235\356\245\360\273\022\316\341pn\200s\013"
 200      9DEEA5F0 
 200      BB12CEE1 
 200      706E8073 
 200      0B
 201 011c E5878C51 		.ascii	"\345\207\214QO\345H\344\271\214\322Jd\270\320F\023\221"
 201      4FE548E4 
ARM GAS  /tmp/ccNiCCOZ.s 			page 15


 201      B98CD24A 
 201      64B8D046 
 201      1391
 202 012e 7F0E9CBC 		.ascii	"\177\016\234\274\211\236f\023=fZ\362y\235\216\000\035"
 202      899E6613 
 202      3D665AF2 
 202      799D8E00 
 202      1D
 203 013f BB05CE3C 		.ascii	"\273\005\316<^\277^\315%uJ\306\"\343\2506\271\021=\347"
 203      5EBF5ECD 
 203      25754AC6 
 203      22E3A836 
 203      B9113DE7 
 204 0153 A7198B60 		.ascii	"\247\031\213`W\012\372\230d,\302o\025\345\267\032~\033"
 204      570AFA98 
 204      642CC26F 
 204      15E5B71A 
 204      7E1B
 205 0165 E858A7E8 		.ascii	"\350X\247\350\370yT\016\004\227\214Mx%\3433\273!\366"
 205      F879540E 
 205      04978C4D 
 205      7825E333 
 205      BB21F6
 206 0178 3295D769 		.ascii	"2\225\327i\231`\243\345'\334BU\333\337=\361\344\347"
 206      9960A3E5 
 206      27DC4255 
 206      DBDF3DF1 
 206      E4E7
 207 018a C25C559B 		.ascii	"\302\\U\233\240\202\331\252|\341\355\334\253*\034M5"
 207      A082D9AA 
 207      7CE1EDDC 
 207      AB2A1C4D 
 207      35
 208 019b AACA2B22 		.ascii	"\252\312+\"\377\233\333\270\177\342E>/\233+\304Jn6\342"
 208      FF9BDBB8 
 208      7FE2453E 
 208      2F9B2BC4 
 208      4A6E36E2 
 209 01af 729CC82F 		.ascii	"r\234\310/\346o\247\265\347\003:\242\300\025\361\334"
 209      E66FA7B5 
 209      E7033AA2 
 209      C015F1DC 
 210 01bf 7DDC0AE8 		.ascii	"}\334\012\350_\253\252\213\357L\325=\034?\343\226\222"
 210      5FABAA8B 
 210      EF4CD53D 
 210      1C3FE396 
 210      92
 211 01d0 01D4E56A 		.ascii	"\001\324\345j\000\341\011\300\"\376'\346&\"\277\204"
 211      00E109C0 
 211      22FE27E6 
 211      2622BF84 
 212 01e0 B710AB93 		.ascii	"\267\020\253\223\252\325\036\313\255\255\354\356\355"
 212      AAD51ECB 
 212      ADADECEE 
 212      ED
 213 01ed 6D6C2AD0 		.ascii	"ml*\320\207\027\270Gyh\375\032\177_Z\370ev\370\327\235"
 213      8717B847 
ARM GAS  /tmp/ccNiCCOZ.s 			page 16


 213      7968FD1A 
 213      7F5F5AF8 
 213      6576F8D7 
 214 0202 E0BB37D5 		.ascii	"\340\2737\325\034\3110I\202\015Q\346e\210\025\366!\336"
 214      1CC93049 
 214      820D51E6 
 214      658815F6 
 214      21DE
 215 0214 70E4607E 		.ascii	"p\344`~g\012\007\343\275\300\257\264\303\277\225\012"
 215      670A07E3 
 215      BDC0AFB4 
 215      C3BF950A 
 216 0224 DFA47537 		.ascii	"\337\244u7\354\331\331\302\317\250Vw\253\347z{\363\013"
 216      ECD9D9C2 
 216      CFA85677 
 216      ABE77A7B 
 216      F30B
 217 0236 2CBACCE1 		.ascii	",\272\314\341^V\325*r\361\344\356\274A\334\014\362\244"
 217      5E56D52A 
 217      72F1E4EE 
 217      BC41DC0C 
 217      F2A4
 218 0248 70F2E760 		.ascii	"p\362\347`\030T\301j&\323\360H@\374)\367\032h\261{\355"
 218      1854C16A 
 218      26D3F048 
 218      40FC29F7 
 218      1A68B17B 
 219 025d DE6D7FAB 		.ascii	"\336m\177\253\252Y\"\337\302\017\002b\333y+\265}\343"
 219      AA5922DF 
 219      C20F0262 
 219      DB792BB5 
 219      7DE3
 220 026f 085C17F6 		.ascii	"\010\\\027\366Y\017\375\365\236\210\254v\317\235\276"
 220      590FFDF5 
 220      9E88AC76 
 220      CF9DBE
 221 027e B39AAF04 		.ascii	"\263\232\257\004\312\364g\234M\012\246\343.\256\011"
 221      CAF4679C 
 221      4D0AA6E3 
 221      2EAE09
 222 028d 28D7E6BC 		.ascii	"(\327\346\274\262`\210\332\264\003\3327\3639\200;Y`"
 222      B26088DA 
 222      B403DA37 
 222      F339803B 
 222      5960
 223 029f B84E164A 		.ascii	"\270N\026J\253\372A\033X\361\346}\224[+2\260\351\276"
 223      ABFA411B 
 223      58F1E67D 
 223      945B2B32 
 223      B0E9BE
 224 02b2 C10A2D60 		.ascii	"\301\012-`\215\037\315G\342\262\271\311I)s\216`T\262"
 224      8D1FCD47 
 224      E2B2B9C9 
 224      4929738E 
 224      6054B2
 225 02c5 47EADE6F 		.ascii	"G\352\336o\347\253\221\377\255\320M\340>\022\254\262"
 225      E7AB91FF 
ARM GAS  /tmp/ccNiCCOZ.s 			page 17


 225      ADD04DE0 
 225      3E12ACB2 
 226 02d5 F501357B 		.ascii	"\365\0015{\347v\276\012\2414\204\272\324o\250\2369["
 226      E776BE0A 
 226      A13484BA 
 226      D46FA89E 
 226      395B
 227 02e7 1E467DBF 		.ascii	"\036F}\277\207@o\006\254@\"\0372\304h\\\263\006\004"
 227      87406F06 
 227      AC40221F 
 227      32C4685C 
 227      B30604
 228 02fa 0D1FD30A 		.ascii	"\015\037\323\012I\204\371\334\017\334\\\3406\004<\250"
 228      4984F9DC 
 228      0FDC5CE0 
 228      36043CA8 
 229 030a 2ECBCD0E 		.ascii	".\313\315\016\324\356\372\351\373\002\304\355\003\324"
 229      D4EEFAE9 
 229      FB02C4ED 
 229      03D4
 230 0318 989B32DD 		.ascii	"\230\2332\335d$p[q\254\335v[n8\272\257\212\332\362n"
 230      6424705B 
 230      71ACDD76 
 230      5B6E38BA 
 230      AF8ADAF2 
 231 032d 4FB6BC7E 		.ascii	"O\266\274~\317\0344\027G\2474\015\337$\260\361\357\301"
 231      CF1C3417 
 231      47A7340D 
 231      DF24B0F1 
 231      EFC1
 232 033f F1CFE0F8 		.ascii	"\361\317\340\370\037\332\307_\332\273\235G\255}\350"
 232      1FDAC75F 
 232      DABB9D47 
 232      AD7DE8
 233 034e 69F4F68E 		.ascii	"i\364\366\216Y\251\243\273\306zj\031\015GO\236\247<"
 233      59A9A3BB 
 233      C67A6A19 
 233      0D474F9E 
 233      A73C
 234 0360 B6A3CB5C 		.ascii	"\266\243\313\\O\261\215Gr\254\332\203kS\003\201\253"
 234      4FB18D47 
 234      72ACDA83 
 234      6B530381 
 234      AB
 235 0371 0E32EAFB 		.ascii	"\0162\352\373\345\261\335K\337\330\203\251*\300H\250"
 235      E5B1DD4B 
 235      DFD883A9 
 235      2AC048A8 
 236 0381 F10D5868 		.ascii	"\361\015Xh\021\304\301\016\014\001:\330\024/`\256vT"
 236      11C4C10E 
 236      0C013AD8 
 236      142F60AE 
 236      7654
 237 0393 A51D3283 		.ascii	"\245\0352\203M\363\015f\245\354c3\330t/`\005\356\224"
 237      4DF30D66 
 237      A5EC6333 
 237      D8742F60 
ARM GAS  /tmp/ccNiCCOZ.s 			page 18


 237      05EE94
 238 03a6 7599C1EA 		.ascii	"u\231\301\352|\203Y)\373\324\014\366\252\027\260\301"
 238      7C835929 
 238      FBD40CF6 
 238      AA17B0C1 
 239 03b6 EE941D35 		.ascii	"\356\224\0355\203\315\365\015f\245\354\234\031l\201"
 239      83CDF50D 
 239      66A5EC9C 
 239      196C81
 240 03c5 17B04207 		.ascii	"\027\260B\007\312\214\303m\336\263\2177\314\\\340\232"
 240      CA8CC36D 
 240      DEB38F37 
 240      CC5CE09A 
 241 03d5 822C20F8 		.ascii	"\202, \3704i.\211\361Z\320o\000\263\360\015\231\364"
 241      34692E89 
 241      F15AD06F 
 241      00B3F00D 
 241      99F4
 242 03e7 C325FC4C 		.ascii	"\303%\374L\310\372CY6{\303\013b\032\203\331`N\215-\276"
 242      C8FA4359 
 242      367BC30B 
 242      621A83D9 
 242      604E8D2D 
 243 03fc C1AC6A39 		.ascii	"\301\254j9H\300,\241\206\246\243\356\245\332\340\372"
 243      48C02CA1 
 243      86A6A3EE 
 243      A5DAE0FA 
 244 040c 64ACCB62 		.ascii	"d\254\313bXdr\254\0076\230E\012Fcu\360`\347\266\"\177"
 244      586472AC 
 244      07369845 
 244      0A466375 
 244      F060E7B6 
 245 0422 86FF2994 		.ascii	"\206\377)\224g\371l\203\012\275\316j\275<\221\363\333"
 245      67F96C83 
 245      0ABDCE6A 
 245      BD3C91F3 
 245      DB
 246 0433 4187D588 		.ascii	"A\207\325\210\256\323\364]\335,\341\264\331\022\266"
 246      AED3F45D 
 246      DD2CE1B4 
 246      D912B6
 247 0442 7911531A 		.ascii	"y\021S\032W8\347&&\255F\235\314W6\337a\364{\324l\023"
 247      5738E726 
 247      26AD469D 
 247      CC5736DF 
 247      61F47BD4 
 248 0458 46743EB3 		.ascii	"Ft>\263\210N\001.a\346n\015:N\001<\201\035\231\335\306"
 248      884E012E 
 248      61E66E0D 
 248      3A4E013C 
 248      811D99DD 
 249 046d E6135710 		.ascii	"\346\023W\020\254\275\377`M=\235w\250A\221\277\216@"
 249      ACBDFF60 
 249      4D3D9D77 
 249      A84191BF 
 249      8E40
 250 047f 5D417BCE 		.ascii	"]A{\316\310\266\315'\262\255\031?;;Y\351e\207U\215?"
ARM GAS  /tmp/ccNiCCOZ.s 			page 19


 250      C8B6CD27 
 250      B2AD193F 
 250      3B3B59E9 
 250      6587558D 
 251 0494 681F37D5 		.ascii	"h\0377\325_4\253\376\204o\325[<\244\273\276\355h`\216"
 251      5F34ABFE 
 251      846FD55B 
 251      3CA4BBBE 
 251      ED68608E 
 252 04a8 AA55064C 		.ascii	"\252U\006L\266\236\3261@E\035\357\376\035f\374^\224"
 252      B69ED631 
 252      40451DEF 
 252      FE1D66FC 
 252      5E94
 253 04ba EB396705 		.ascii	"\3539g\005y\001\232\375\326\317\021\250J @\327\372\015"
 253      79019AFD 
 253      D6CF11A8 
 253      4A2040D7 
 253      FA0D
 254 04cc D43367E1 		.ascii	"\3243g\341\010\004\232\210@\225\031vM\3636M\363V\015"
 254      08049A88 
 254      40951976 
 254      4DF3364D 
 254      F3560D
 255 04df 185E479D 		.ascii	"\030^G\235\356\207j+pS3l\352\262\260\223&5\260x\333"
 255      EE876A2B 
 255      7053336C 
 255      EAB2B093 
 255      2635B078 
 256 04f4 767C267F 		.ascii	"v|&\177\261J\255\037\352C\314uT_/\243tf\246H\207\210"
 256      B14AAD1F 
 256      EA43CC75 
 256      545F2FA3 
 256      7466A648 
 257 050a DF1F1B0D 		.ascii	"\337\037\033\015\276\331\310\262\2621\375T?\330\330"
 257      BED9C8B2 
 257      B231FD54 
 257      3FD8D8
 258 0519 A6B3311D 		.ascii	"\246\2631\035\331X\362=\260\361\246o6\012Ll\300:\262"
 258      D958F23D 
 258      B0F1A66F 
 258      360A4C6C 
 258      C03AB2
 259 052c EDD22C3D 		.ascii	"\355\322,=\373\335\312\325\245\237\277\023zf\011\267"
 259      FBDDCAD5 
 259      A59FBF13 
 259      7A6609B7 
 260 053c 5AE6CEDA 		.ascii	"Z\346\316\3327md\251On\3675qV\265\231\035\246U\236\352"
 260      376D64A9 
 260      4F6EF735 
 260      7156B599 
 260      1DA6559E 
 261 0551 6969D661 		.ascii	"ii\326a\254\362\346\240\310Z2\034\034\314\013T\323\221"
 261      ACF2E6A0 
 261      C85A321C 
 261      1CCC0B54 
 261      D391
ARM GAS  /tmp/ccNiCCOZ.s 			page 20


 262 0563 43B79140 		.ascii	"C\267\221@:\017a6\365\027\246\273\247s\243\356\247\013"
 262      3A0F6136 
 262      F517A6BB 
 262      A773A3EE 
 262      A70B
 263 0575 10484B51 		.ascii	"\020HKQa\246M\203\231V\015\302%\031\351*\006\310\227"
 263      61A64D83 
 263      99560DC2 
 263      2519E92A 
 263      06C897
 264 0588 E81D7211 		.ascii	"\350\035r\021\342\376\317\373\011\334\036$\237h\317"
 264      E2FECFFB 
 264      09DC1E24 
 264      9F68CF
 265 0597 E7FC8B59 		.ascii	"\347\374\213Y\317\364}\263\330\334IWP\373wB\254\322"
 265      CFF47DB3 
 265      D8DC4957 
 265      50FB7742 
 265      ACD2
 266 05a9 B6D5B16D 		.ascii	"\266\325\261m\212G\310\354\251\353;\302\341t\3332-\260"
 266      8A47C8EC 
 266      A9EB3BC2 
 266      E174DB32 
 266      2DB0
 267 05bb ADDA5A5C 		.ascii	"\255\332Z\\\322\016\333\300\231\332\312r\371\353\002"
 267      D20EDBC0 
 267      99DACA72 
 267      F9EB02
 268 05ca 21E8B314 		.ascii	"!\350\263\024\2057\363\266u\033\271aj\342\346J\313\004"
 268      8537F3B6 
 268      751BB961 
 268      6AE2E64A 
 268      CB04
 269 05dc 530EBCF4 		.ascii	"S\016\274\364\335\370\004E\034{MWD_k\342\221\014-\027"
 269      DDF80445 
 269      1C7B4D57 
 269      445F6BE2 
 269      910C2D17 
 270 05f0 07BE8E03 		.ascii	"\007\276\216\003\277%\330\226\304\215\027\272k(\337"
 270      BF25D896 
 270      C48D17BA 
 270      6B28DF
 271 05ff E459DFBE 		.ascii	"\344Y\337\276}\370D\266Z\227\3530\236\323\014i\355\324"
 271      7DF844B6 
 271      5A97EB30 
 271      9ED30C69 
 271      EDD4
 272 0611 8333F809 		.ascii	"\2033\370\011\210\336,\220\215\26172\0357\306\232\036"
 272      88DE2C90 
 272      8DB13732 
 272      1D37C69A 
 272      1E
 273 0622 750382E9 		.ascii	"u\003\202\351(vYg'|n\333\025\266\227\260\316\003\341"
 273      28765967 
 273      277C6EDB 
 273      15B697B0 
 273      CE03E1
ARM GAS  /tmp/ccNiCCOZ.s 			page 21


 274 0635 55DAF9A9 		.ascii	"U\332\371\251\346}1\221\337\314\013\024\267\177\026"
 274      E67D3191 
 274      DFCC0B14 
 274      B77F16
 275 0644 7761AF31 		.ascii	"wa\2571\371\027\371w|\203\025:\221\312,+\311\255\310"
 275      F917F977 
 275      7C83153A 
 275      91CA2C2B 
 275      C9ADC8
 276 0657 6F10C8A4 		.ascii	"o\020\310\244}\243p\027\224\233\2404\016\201\333\233"
 276      7DA37017 
 276      949BA034 
 276      0E81DB9B 
 277 0667 C974EA24 		.ascii	"\311t\352$\272\276\275\272\361\302\325\331\2721\371"
 277      BABEBDBA 
 277      F1C2D5D9 
 277      BA31F9
 278 0676 89D4AD2C 		.ascii	"\211\324\255,R\277\203\201\340@\246\335Q\346\331\223"
 278      52BF8381 
 278      E040A6DD 
 278      51E6D993 
 279 0686 9BAF50F5 		.ascii	"\233\257P\365\211\235)\257\373\013\306\341\346\210+"
 279      899D29AF 
 279      FB0BC6E1 
 279      E6882B
 280 0695 CD8E782C 		.ascii	"\315\216x,\363;:b\333)\217\216\250\362\014\256\000G"
 280      F33B3A62 
 280      DB298F8E 
 280      A8F20CAE 
 280      0047
 281 06a7 3E8923EF 		.ascii	">\211#\357\260\033\364\266+\273'Q\203\336\341\311\023"
 281      B01BF4B6 
 281      2BBB2751 
 281      83DEE1C9 
 281      13
 282 06b8 BF414F64 		.ascii	"\277AOd\236U\027b\250\375\261\205*\355\332\227\037\360"
 282      9E551762 
 282      A8FDB185 
 282      2AEDDA97 
 282      1FF0
 283 06ca 3A1CAE66 		.ascii	":\034\256f\347\331\341\274j\201\302\335\220\374\012"
 283      E7D9E1BC 
 283      6A81C2DD 
 283      90FC0A
 284 06d9 46B72FED 		.ascii	"F\267/\355\223\023d\236\261\027yZ\034\262\233\226.\031"
 284      9313649E 
 284      B117795A 
 284      1CB29B96 
 284      2E19
 285 06eb 9369ED30 		.ascii	"\223i\3550y\312\373\350);\321Sva\371\201\331_\334\314"
 285      79CAFBE8 
 285      293BD153 
 285      7661F981 
 285      D95FDCCC 
 286 06ff 628FD92C 		.ascii	"b\217\331,\336\360\315w\241G\353\333n\036\2469\364\335"
 286      DEF0CD77 
 286      A147EBDB 
ARM GAS  /tmp/ccNiCCOZ.s 			page 22


 286      6E1EA639 
 286      F4DD
 287 0711 ACAFBEED 		.ascii	"\254\257\276\355l\020\267\370|\354~w\354d\216\333\256"
 287      6C10B7F8 
 287      7CEC7E77 
 287      EC648EDB 
 287      AE
 288 0722 CF8D52A4 		.ascii	"\317\215R\244\253\331\327\036^\366\225\337\357/+\306"
 288      ABD9D71E 
 288      5EF695DF 
 288      EF2F2BC6 
 289 0732 01812CE4 		.ascii	"\001\201,\344aeX\350 uczr\205NO\372\334\2346^\330\354"
 289      616558E8 
 289      2075637A 
 289      72854E4F 
 289      FADC9C36 
 290 0749 ABA499A9 		.ascii	"\253\244\231\251\023m\255-\344\234\231\322\354r\037"
 290      136DAD2D 
 290      E49C99D2 
 290      EC721F
 291 0758 C52E5D29 		.ascii	"\305.])\231i\372%\226\231\272<e\246\003\216\231\251"
 291      9969FA25 
 291      9699BA3C 
 291      65A6038E 
 291      99A9
 292 076a CB7F6672 		.ascii	"\313\177fr:\314\004\212\374\247\350\"G\254i\344\214"
 292      3ACC048A 
 292      FCA7E822 
 292      47AC69E4 
 292      8C
 293 077b 17E9DFEB 		.ascii	"\027\351\337\353f\214\252v\355\300|\236\322\217\242"
 293      668CAA76 
 293      EDC07C9E 
 293      D28FA2
 294 078a BC6AC773 		.ascii	"\274j\307s\012E\026<\2136\265\332C\230Y\365yfu\226\007"
 294      0A45163C 
 294      8B36B5DA 
 294      439859F5 
 294      79667596 
 295 079f E286BA81 		.ascii	"\342\206\272\201Ui\363u0\335\344\247x\001\033\341\306"
 295      5569F375 
 295      30DDE4A7 
 295      78011BE1 
 295      C6
 296 07b0 6995F6CE 		.ascii	"i\225\366\316l\246\251\3558I\234\345\033\317J\334\201"
 296      6CA6A9ED 
 296      38499CE5 
 296      1BCF4ADC 
 296      81
 297 07c1 43F3299E 		.ascii	"C\363)\236\376nk\241\027\274G\335\351;?"
 297      FE6E6BA1 
 297      17BC47DD 
 297      E93B3F
 298 07d0 DB32A95E 		.ascii	"\3332\251^\341\033\316\252\210o\017\021\305N\033\354"
 298      E11BCEAA 
 298      886F0F11 
 298      C54E1BEC 
ARM GAS  /tmp/ccNiCCOZ.s 			page 23


 299 07e0 F4FA5233 		.ascii	"\364\372R3\2027\331\261\241^u`\311\371!z\2109\215\226"
 299      8237D9B1 
 299      A15E7560 
 299      C9F9217A 
 299      88398D96 
 300 07f4 7020ABEF 		.ascii	"p \253\357\367\240V \334e\264y\224\326\334\232K\226"
 300      F7A05620 
 300      DC65B479 
 300      94D6DC9A 
 300      4B96
 301 0806 74673D79 		.ascii	"tg=y\323\332V\337\257\030;\266\350\253\365\013h$'\263"
 301      D3DA56DF 
 301      AF183BB6 
 301      E8ABF50B 
 301      682427B3 
 302 081a BE97B878 		.ascii	"\276\227\270x\006a\316\366w~\011\262l\037\262\271EU"
 302      0661CEF6 
 302      777E09B2 
 302      6C1FB2B9 
 302      4555
 303 082c A76432C2 		.ascii	"\247d2\302.\372F\264Z\333\206Vt\005\035\354\232\027"
 303      2EFA46B4 
 303      5ADB8656 
 303      74051DEC 
 303      9A17
 304 083e B034097E 		.ascii	"\2604\011~\023\001\363\363\032w\027\313>=8\376\315\357"
 304      1301F3F3 
 304      1A7717CB 
 304      3E3D38FE 
 304      CDEF
 305 0850 47CA13B3 		.ascii	"G\312\023\263\375\262a\221\011H\371\313!\233\327\251"
 305      FDB26191 
 305      0948F9CB 
 305      219BD7A9 
 306 0860 6AF3485F 		.ascii	"j\363H_;\277u[u\213Q\003\204\227I\331v^\256\330y\361"
 306      3BBF755B 
 306      758B5103 
 306      849749D9 
 306      765EAED8 
 307 0876 B88F2A70 		.ascii	"\270\217*p\265v\206\234\202\247\323;\011\247\303\354"
 307      B576869C 
 307      82A7D33B 
 307      09A7C3EC 
 308 0886 4B227F0E 		.ascii	"K\"\177\016\203\377y\234\031]\306\362*\226\327\261\354"
 308      83FF799C 
 308      195DC6F2 
 308      2A96D7B1 
 308      EC
 309 0897 B5268586 		.ascii	"\265&\205\206l[\354\260\372)\255>\351\231\220\344\207"
 309      6C5BECB0 
 309      FA29AD3E 
 309      E99990E4 
 309      87
 310 08a8 0DB098C1 		.ascii	"\015\260\230\301\367\020\233x2\354\333Xn\301r\027\226"
 310      F7109B78 
 310      32ECDB58 
 310      6EC17217 
ARM GAS  /tmp/ccNiCCOZ.s 			page 24


 310      96
 311 08b9 A7B0FC12 		.ascii	"\247\260\374\022\313\257\260\274\200\345M,\247 \261"
 311      CBAFB0BC 
 311      80E54D2C 
 311      A720B1
 312 08c8 AF603913 		.ascii	"\257`9\023\313CX\036\303\3623,?\307\362\004\226\247"
 312      CB43581E 
 312      C3F2332C 
 312      3FC7F204 
 312      96A7
 313 08da B0FC12CB 		.ascii	"\260\374\022\313\257\274L\007=\256\352\3278|\326\263"
 313      AFBC4C07 
 313      3DAEEAD7 
 313      387CD6B3 
 314 08ea C46607F4 		.ascii	"\304f\007\364#\225*\372\301\311{UO\262]\004\221_\315"
 314      23952AFA 
 314      C1C97B55 
 314      4FB25D04 
 314      915FCD
 315 08fd FFC4051B 		.ascii	"\377\304\005\033\037O\0148|\270\242]\336C\277\213\261"
 315      1F4F0C38 
 315      7CB8A25D 
 315      DE43BF8B 
 315      B1
 316 090e 7F7F4450 		.ascii	"\177\177DP\335(\235\034\320)\015\340\347V\006\207\214"
 316      DD289D1C 
 316      D0290DE0 
 316      E7560687 
 316      8C
 317 091f 6CA47C9D 		.ascii	"l\244|\235\215\362{\270%\252Z\2476HO\262\005\301\373"
 317      8DF27BB8 
 317      25AA5AA7 
 317      36484FB2 
 317      05C1FB
 318 0932 D86252C0 		.ascii	"\330bR\300\231jcwDgX\335x\374\031\023\257n\275(\201"
 318      996A6377 
 318      446758DD 
 318      78FC1913 
 318      AF6EBD28 
 319 0947 2FA7F2DA 		.ascii	"/\247\362\332]\333\335\270j\373\257\353[\324\011S\324"
 319      5DDBDDB8 
 319      6AFBAFEB 
 319      5BD40953 
 319      D4
 320 0958 9BBD2FF1 		.ascii	"\233\275/\361\3543\240\323)\"\3261\246;b\\]}m\310\\"
 320      EC33A0D3 
 320      2922D631 
 320      A63B625C 
 320      5D7D6DC8 
 321 096d 7507F954 		.ascii	"u\007\371T\351%\216A,\032\340\0141\303\021bSMg\320\200"
 321      E9258E41 
 321      2C1AE00C 
 321      31C31162 
 321      534D67D0 
 322 0982 F0FED5D7 		.ascii	"\360\376\325\327L\273\320O\247\012}\233\013!\257\272"
 322      4CBBD04F 
 322      A70A7D9B 
ARM GAS  /tmp/ccNiCCOZ.s 			page 25


 322      0B21AFBA 
 323 0992 F0B2FD2F 		.ascii	"\360\262\375/Sx\371\300\005b\216#\304\302U\037\374:"
 323      5378F9C0 
 323      05628E23 
 323      C4C2551F 
 323      FC3A
 324 09a4 05E2A40B 		.ascii	"\005\342\244\013\304\\G\210s\033?\031\322\017q4x\260"
 324      C45C4788 
 324      731B3F19 
 324      D20F7134 
 324      78B0
 325 09b6 C1C61C67 		.ascii	"\301\306\034gB\026X\011\271\233[D\010\231\333\266o\360"
 325      42165809 
 325      B99B5B44 
 325      0899DBB6 
 325      6FF0
 326 09c8 CA2A7542 		.ascii	"\312*uB3\020\320\313\367>\3428\265\370\003\243\343c"
 326      3310D0CB 
 326      F73EE238 
 326      B5F803A3 
 326      E363
 327 09da 6288C6A6 		.ascii	"b\210\306\246\324\245E4\0255\006\310,e\245m`\017P\260"
 327      D4A54534 
 327      153506C8 
 327      2C65A56D 
 327      600F50B0 
 328 09ee 7AC24E8B 		.ascii	"z\302N\213\003\251\237k\261U<y\326\367*~\301Q}\362\354"
 328      03A99F6B 
 328      B1553C79 
 328      D6F72A7E 
 328      C1517DF2 
 329 0a03 B03EEE36 		.ascii	"\260>\3566\"\356\035&\352\367v~F\251_\206\324\357p\241"
 329      22EE1D26 
 329      EAF7767E 
 329      46A95F86 
 329      D4EF70A1 
 330 0a17 DE1508D6 		.ascii	"\336\025\010\326:\330eE*\355\007k(\355+<\321~\240\313"
 330      3AD86545 
 330      2AED076B 
 330      28ED2B3C 
 330      D17EA0CB 
 331 0a2b 3AF13F62 		.ascii	":\361?b\340\246\311]\372\3418\2478\330\205\023\024}"
 331      E0A6C95D 
 331      FAE138A7 
 331      38D88513 
 331      147D
 332 0a3d 2E7CC20E 		.ascii	".|\302\016\346k\202\242j\037\353`\273\361\203\274\323"
 332      E66B82A2 
 332      6A1FEB60 
 332      BBF183BC 
 332      D3
 333 0a4e BEC10A2D 		.ascii	"\276\301\012-\224\035\233g\375\250\356\202\027\2744"
 333      941D9B67 
 333      FDA8EE82 
 333      17BC34
 334 0a5d 5F0E9CEB 		.ascii	"_\016\234\3532}9p\3357\230\225\270\313f\260\252\\\017"
 334      327D3970 
ARM GAS  /tmp/ccNiCCOZ.s 			page 26


 334      DD379895 
 334      B8CB66B0 
 334      AA5C0F
 335 0a70 604EEFD7 		.ascii	"`N\357\327\235\016\263\221\210\374\233\001\222\266W"
 335      9D0EB391 
 335      88FC9B01 
 335      92B657
 336 0a7f 06482A5D 		.ascii	"\006H*]\205\345\032,[\260\\\207\345\206\200e\0261-\227"
 336      85E51A2C 
 336      5BB05C87 
 336      E5868065 
 336      16312D97 
 337 0a93 7989A329 		.ascii	"y\211\243)\366e\022\252\266\336\335=\234\266\217\300"
 337      F66512AA 
 337      B6DEDD3D 
 337      9CB68FC0 
 338 0aa3 B94F55F2 		.ascii	"\271OU\362\023\321\206\337F\367\250\313\355\323=\354"
 338      13D186DF 
 338      46F7A8CB 
 338      EDD33DEC 
 339 0ab3 1B74CBB1 		.ascii	"\033t\313\261\313\326\024\367h\373v\"u\217\255\036\334"
 339      CBD614F7 
 339      68FB7622 
 339      758FAD1E 
 339      DC
 340 0ac4 A34ABB36 		.ascii	"\243J\2736g\201\267\257\327\214\361\177dbd\357q\266"
 340      6781B7AF 
 340      D78CF17F 
 340      646264EF 
 340      71B6
 341 0ad6 75BE0319 		.ascii	"u\276\003\031\331\3267#V \360s\354\2623\225\221\257"
 341      D9D63723 
 341      5620F073 
 341      ECB23395 
 341      91AF
 342 0ae8 19233B3D 		.ascii	"\031#;=1\262y\216\261\354\015\020\033\3536p\373\265"
 342      31B2798E 
 342      B1EC0D10 
 342      1BEB3670 
 342      FBB5
 343 0afa B4D1DEEE 		.ascii	"\264\321\336\356D\203\325\301\276\360\015f\265\376\255"
 343      4483D5C1 
 343      BEF00D66 
 343      B5FEAD
 344 0b09 9D7ED77B 		.ascii	"\235~\327{k\367\256\277O\377\014\020g\357\347l\202\355"
 344      6BF7AEBF 
 344      4FFF0C10 
 344      67EFE76C 
 344      82ED
 345 0b1b E74AE4BA 		.ascii	"\347J\344\272\027>\334\027T\240\225\263\257:l({\317"
 345      173EDC17 
 345      54A095B3 
 345      AF3A6C28 
 345      7BCF
 346 0b2d B107EC39 		.ascii	"\261\007\3549\366\021[\212M'\222\251G+\351k\240\016"
 346      F6115B8A 
 346      4D2792A9 
ARM GAS  /tmp/ccNiCCOZ.s 			page 27


 346      472BE96B 
 346      A00E
 347 0b3f D44AF540 		.ascii	"\324J\365@\253Plo\323\310Xntt\006r\\,*\345\031\004\210"
 347      AB506C6F 
 347      D3C8586E 
 347      74740672 
 347      5C2C2AE5 
 348 0b56 817EA566 		.ascii	"\201~\245f\321>y\255\275\224\275\230\304=\217Y^\000"
 348      D13E79AD 
 348      BD94BD98 
 348      C43D8F59 
 348      5E00
 349 0b68 BDAF9F76 		.ascii	"\275\257\237v\232\342\337.\214\177\2731\316\355\301"
 349      9AE2DF2E 
 349      8C7FBB31 
 349      CEEDC1
 350 0b77 721F96ED 		.ascii	"r\037\226\355X~\022\360\260\270 &o`\177\020\020h\234"
 350      587E12F0 
 350      B0B82026 
 350      6F607F10 
 350      10689C
 351 0b8a E99F1BDD 		.ascii	"\351\237\033\335H\272\221\310\357\365\015f\021\2446"
 351      48BA91C8 
 351      EFF50D66 
 351      11A436
 352 0b99 A38B6D45 		.ascii	"\243\213mE\021\257\020\371\375^\360\322\354\017\254"
 352      11AF10F9 
 352      FD5EF0D2 
 352      EC0FAC
 353 0ba8 D19392EE 		.ascii	"\321\223\222\356b\015\003y\237`\205\351\224\262\325"
 353      620D0379 
 353      9F6085E9 
 353      94B2D5
 354 0bb7 A4946DA8 		.ascii	"\244\224m\250\024\015Up\030\313O\261<bMD\257\017\264"
 354      140D5570 
 354      18CB4FB1 
 354      3C624D44 
 354      AF0FB4
 355 0bca 25226BD0 		.ascii	"%\"k\320w\312\213f\371\250\332\226\177\251\025\235B"
 355      77CA8B66 
 355      F9A8DA96 
 355      7FA9159D 
 355      42
 356 0bdb EE63ACEF 		.ascii	"\356c\254\357,\363{\317\275_\263\335\345\3170x\257\032"
 356      2CF37BCF 
 356      BD5FB3DD 
 356      E5CF3078 
 356      AF1A
 357 0bed D877F0B6 		.ascii	"\330w\360\266\"\011\334V\354s<u\226v\202\315\322\216"
 357      2209DC56 
 357      EC733C75 
 357      967682CD 
 357      D28E
 358 0bff F71DBD27 		.ascii	"\367\035\275'Tk\353\033\226%\323P\265\341\302_C\220"
 358      546BEB1B 
 358      9625D350 
 358      B5E1C25F 
ARM GAS  /tmp/ccNiCCOZ.s 			page 28


 358      4390
 359 0c11 733353CB 		.ascii	"s3S\313\027{\037\032t\364\307LUm\333afY\372\013\303"
 359      177B1F1A 
 359      74F4C74C 
 359      556DDB61 
 359      6659FA0B 
 360 0c26 4EDF7856 		.ascii	"N\337xVM\034:\214\226\245\203\035\363\002\226f\226x"
 360      4D1C3A8C 
 360      96A5831D 
 360      F3029666 
 360      9678
 361 0c38 E19F1DD5 		.ascii	"\341\237\035\325\252\0313\327\311&\2656\256\372\354"
 361      AA1933D7 
 361      C926B536 
 361      AEFAEC
 362 0c47 4E7DEA7D 		.ascii	"N}\352}\026\265\372E\337Z\265\001\021\341^\260iTk\334"
 362      16B5FA45 
 362      DF5AB501 
 362      11E15EB0 
 362      69546BDC 
 363 0c5b 85DB9B17 		.ascii	"\205\333\233\027<\345\342\215\273\23043\010\377\327"
 363      3CE5E28D 
 363      BB983433 
 363      08FFD7
 364 0c6a 91840BFD 		.ascii	"\221\204\013\375\216!\333&y\233\2438\276\253{u\027y"
 364      8E21DB26 
 364      799BA338 
 364      BEAB7B75 
 364      1779
 365 0c7c 57771565 		.ascii	"Ww\025eQ\225\347s\236EX\355\261\213\342\200\276\323"
 365      5195E773 
 365      9E4558ED 
 365      B18BE280 
 365      BED3
 366 0c8e DBE34914 		.ascii	"\333\343I\024\207[\315!K\340f \011=\375\226\305\305"
 366      875BCD21 
 366      4BE06620 
 366      093DFD96 
 366      C5C5
 367 0ca0 1AEB247F 		.ascii	"\032\353$\177\256o\274B\013\336u}\277\025\323R\243\027"
 367      AE6FBC42 
 367      0BDE757D 
 367      BF15D352 
 367      A317
 368 0cb2 AC34E174 		.ascii	"\2544\341t\346\256\371\177\241vk<\373\000q\205\035\317"
 368      E6AEF97F 
 368      A1766B3C 
 368      FB007185 
 368      1DCF
 369 0cc4 E97330EF 		.ascii	"\351s0\357\021\265\307\024Qo`D\375\026\243h/\226\225"
 369      11B5C714 
 369      516F6044 
 369      FD16A368 
 369      2F9695
 370 0cd7 41525607 		.ascii	"ARV\007=$\270+\001S\344h\311\363k\234f\001\202\247?"
 370      3D24B82B 
 370      0153E468 
ARM GAS  /tmp/ccNiCCOZ.s 			page 29


 370      C9F36B9C 
 370      660182A7 
 371 0cec 512BDEC2 		.ascii	"Q+\336\302\325R;\322-\215\331\222\341W*\363\253I\301"
 371      D5523BD2 
 371      2D8DD992 
 371      E1572AF3 
 371      AB49C1
 372 0cff 5BB066F9 		.ascii	"[\260f\371\226\001\233\270\021;9\230\374\23497;Yy\304"
 372      96019BB8 
 372      113B3998 
 372      FC9C3937 
 372      3B5979C4 
 373 0d13 E060B39D 		.ascii	"\340`\263\235\003\333\270i\024\347,\350\013&A_DA_B\021"
 373      03DBB869 
 373      14E72CE8 
 373      0B26415F 
 373      44415F42 
 374 0d28 5FC6B226 		.ascii	"_\306\262&hIZ\357\345\331\202\233-\232\370V\363q\323"
 374      68495AEF 
 374      E5D9829B 
 374      2D9AF856 
 374      F371D3
 375 0d3b E82771F4 		.ascii	"\350'q\364S8\356\237\261<\215\345\031k\342\334\237g"
 375      5338EE9F 
 375      B13C8DE5 
 375      196BE2DC 
 375      9F67
 376 0d4d 4B9CB63C 		.ascii	"K\234\266<E\353\356\257\363\272\353\247\377w\250R\325"
 376      45EBEEAF 
 376      F3BAEBA7 
 376      FF77A852 
 376      D5
 377 0d5e EA87B2BF 		.ascii	"\352\207\262\277\216;h\207\264\376)\034\255ji\242\366"
 377      8E3B6887 
 377      B4FE291C 
 377      AD6A69A2 
 377      F6
 378 0d6f D1A3B946 		.ascii	"\321\243\271F\330\356\363U\357\201%_\016\327?\306\014"
 378      D8EEF355 
 378      EF81255F 
 378      0ED73FC6 
 378      0C
 379 0d80 92D18F39 		.ascii	"\222\321\2179\007\252\364\237C\326\005m\201\352\274"
 379      07AAF49F 
 379      43D6056D 
 379      81EABC
 380 0d8f 54A8DFF5 		.ascii	"T\250\337\365\260\014<A\277\254\320_\274\234\303\361"
 380      B00C3C41 
 380      BFACD05F 
 380      BC9CC3F1 
 381 0d9f 49579F51 		.ascii	"IW\237Q\312Y\245I\312D~f\220\250t\226\325\210\256\330"
 381      CA59A549 
 381      CA447E66 
 381      90A87496 
 381      D588AED8 
 382 0db3 A5ED345E 		.ascii	"\245\3554^S\322\021\354\302&\237]\353\372s\334\027\013"
 382      53D211EC 
ARM GAS  /tmp/ccNiCCOZ.s 			page 30


 382      C2269F5D 
 382      EBFA73DC 
 382      170B
 383 0dc5 30881149 		.ascii	"0\210\021I\211_[}M\227x=J\374\272Kjp\307\301-CG\221"
 383      895F5B7D 
 383      4D97783D 
 383      4AFCBA4B 
 383      6A70C7C1 
 384 0ddd 377812F9 		.ascii	"7x\022\371E&r\375]\323\224|\236\002\366/1\\\222\310"
 384      452672FD 
 384      5DD3947C 
 384      9E02F62F 
 384      315C92C8 
 385 0df1 F242C79A 		.ascii	"\362B\307\232\356\033\253\320,M\355r\306\344\352L\366"
 385      EE1BABD0 
 385      2C4DED72 
 385      C6E4EA4C 
 385      F6
 386 0e02 7EB4DE0E 		.ascii	"~\264\336\016\346\370\222%\215#\\7\243-\361\204V\350"
 386      E6F89225 
 386      8D235C37 
 386      A32DF184 
 386      56E8
 387 0e14 D9B41A4C 		.ascii	"\331\264\032L\2465\037Mk\001&\202F,\027a\271\304jl\253"
 387      A6351F4D 
 387      6B012682 
 387      462C1761 
 387      B9C46A6C 
 388 0e29 F26DC666 		.ascii	"\362m\306f\325+\255.Ocms\333N\014Gkc\201\037\254D\377"
 388      D52BAD2E 
 388      4F636D73 
 388      DB4E0C47 
 388      6B63811F 
 389 0e40 630D8698 		.ascii	"c\015\206\230\317`\256\362\224\320\327}G\376\345.\221"
 389      CF60AEF2 
 389      94D0D77D 
 389      47FEE52E 
 389      91
 390 0e51 FF4E8393 		.ascii	"\377N\203\223wR8\261\216K\353\335N\2548\213s\261)\370"
 390      775238B1 
 390      8E4BEBDD 
 390      4EAC388B 
 390      73B129F8 
 391 0e65 BE86C177 		.ascii	"\276\206\301w)\006\334\315Xvc9\015\205\372\012\226s"
 391      2906DCCD 
 391      58766339 
 391      0D85FA0A 
 391      9673
 392 0e77 B05C6615 		.ascii	"\260\\f\025\360\236|\346K\214,\353\3064\376Mu\320\330"
 392      F09E7CE6 
 392      4B8C2CEB 
 392      C634FE4D 
 392      75D0D8
 393 0e8a 30279BE5 		.ascii	"0'\233\345\373\367woj=\233QY\253MhRo\364\366\362<\023"
 393      FBF7776F 
 393      6A3D9B51 
 393      59AB4D68 
ARM GAS  /tmp/ccNiCCOZ.s 			page 31


 393      526FF4F6 
 394 0ea1 6DBD7519 		.ascii	"m\275u\0310\222!\345b_s\253\263\256\255D\376-\337\322"
 394      309221E5 
 394      625F73AB 
 394      B3AEAD44 
 394      FE2DDFD2 
 395 0eb5 5FE5227D 		.ascii	"_\345\"}\363\367\265\311Vd\011\202\\\257L\2762\263\021"
 395      F3F7B5C9 
 395      56640982 
 395      5CAF4CBE 
 395      32B311
 396 0ec8 217087F2 		.ascii	"!p\207\362uc\270\223;\236\277\200\204\236\225H\025\345"
 396      7563B893 
 396      3B9EBF80 
 396      849E9548 
 396      15E5
 397 0eda BF61CFA9 		.ascii	"\277a\317\251g\373\346\337>?u\021@\3524v\235o\011\254"
 397      67FBE6DF 
 397      3E3F7511 
 397      40EA3476 
 397      9D6F09AC 
 398 0eee 779180F9 		.ascii	"w\221\200\371\017{\223\255\240\272:H\226\343\246\027"
 398      0F7B93AD 
 398      A0BA3A48 
 398      96E3A617 
 399 0efe 69762A04 		.ascii	"iv*\004\356\274!\202^]\004k\015\021\254\321\264\366"
 399      EEBC2182 
 399      5E5D046B 
 399      0D11ACD1 
 399      B4F6
 400 0f10 9AD9BCDA 		.ascii	"\232\331\274\332T\245\2527A\002,\347\301Zfy2\353\255"
 400      54A5AA37 
 400      41022CE7 
 400      C15A6679 
 400      32EBAD
 401 0f23 3120C946 		.ascii	"1 \311F\022\215\345\355\213\367\340'\035,h\273\266\027"
 401      128DE5ED 
 401      8BF7E027 
 401      1D2C68BB 
 401      B617
 402 0f35 F9B72146 		.ascii	"\371\267!F\364\331\2144\334b\017\355\237\220\320\276"
 402      F4D98C34 
 402      DC620FED 
 402      9F90D0BE 
 403 0f45 C5436857 		.ascii	"\305ChW\265\303\337d\2515\271T5M\217\332t\223\"\350"
 403      B5C3DF64 
 403      A935B954 
 403      354D8FDA 
 403      749322E8 
 404 0f59 6DBE55A3 		.ascii	"m\276U\243\271\250\206\355\243\011\334\246\002\2362"
 404      B9A886ED 
 404      A309DCA6 
 404      029E32
 405 0f68 D1BF74F2 		.ascii	"\321\277t\362\351\037\310\\H\237\307\267\332\261\234"
 405      E91FC85C 
 405      489FC7B7 
 405      DAB19C
ARM GAS  /tmp/ccNiCCOZ.s 			page 32


 406 0f77 E6F116AC 		.ascii	"\346\361\026\254B\013\326Q\023\326G\276\261\356\265"
 406      420BD651 
 406      13D647BE 
 406      B1EEB5
 407 0f86 609D1397 		.ascii	"`\235\023\227\263\277qQk\324{M*,`\275\005\316\364\027"
 407      B3BF7151 
 407      6BD47B4D 
 407      2A2C60BD 
 407      05CEF417 
 408 0f9a 511B7F81 		.ascii	"Q\033\177\201I~"
 408      497E
 409 0fa0 5790DC3F 		.ascii	"W\220\334?T`M\362\336\201z\346\274\256\377-\375\036"
 409      54604DF2 
 409      DE817AE6 
 409      BCAEFF2D 
 409      FD1E
 410 0fb2 043A6603 		.ascii	"\004:f\003\022\371\200m76`\335\215\015d'+\275\275\001"
 410      12F9806D 
 410      373660DD 
 410      8D0D6427 
 410      2BBDBD01 
 411 0fc6 CE5F6381 		.ascii	"\316_c\201\373\263]l\026\"\235\3046\324,6\342!\235\374"
 411      FBB35D6C 
 411      16229DC4 
 411      36D42C36 
 411      E2219DFC 
 412 0fda 79F20742 		.ascii	"y\362\007BL\021\337xQD\232\305\336%\223R\325[\374bY"
 412      4C11DF78 
 412      51449AC5 
 412      DE259352 
 412      D55BFC62 
 413 0fef FE7C49BB 		.ascii	"\376|I\273l\302\232\346\033\253\300\202u\325\2045\317"
 413      6CC29AE6 
 413      1BABC082 
 413      75D58435 
 413      CF
 414 1000 37D6600B 		.ascii	"7\326`\013\326u\023\3262\337XV'\270a\302j\366\215eu"
 414      D67513D6 
 414      32DF5856 
 414      27B861C2 
 414      6AF68D65 
 415 1015 829B26AC 		.ascii	"\202\233&\254w}cY,C\253m\315Y3\222\201\355\365\0156"
 415      777D6359 
 415      2C43AB6D 
 415      CD593392 
 415      81EDF50D 
 416 102a C2025667 		.ascii	"\302\002Vg\006\353\364\002\226\346\375\343l3\330)\337"
 416      06EBF402 
 416      96E6FDE3 
 416      6C33D829 
 416      DF
 417 103b 605613AB 		.ascii	"`V\023\2537\203]\362\015f\265\261yf\260\312A~\301\254"
 417      37835DF2 
 417      0D66B5B1 
 417      7966B0CA 
 417      417EC1AC 
 418 104f 4636DF0C 		.ascii	"F6\337\014\366_\276\301\254V\266\306\0146\3377\330\275"
ARM GAS  /tmp/ccNiCCOZ.s 			page 33


 418      F65FBEC1 
 418      AC56B6C6 
 418      0C36DF37 
 418      D8BD
 419 1061 9CF56053 		.ascii	"\234\365`S\301\2558\263~\027'{;\260|\037\313V,?\302"
 419      C1AD38B3 
 419      7E17277B 
 419      3BB07C1F 
 419      CB562C3F 
 420 1076 723F961D 		.ascii	"r?\226\035X\036\304\362\020\226\037c\331\205\345\247"
 420      581EC4F2 
 420      10961F63 
 420      D985E5A7 
 421 1086 581EC5B2 		.ascii	"X\036\305\262\033\313\377\301\3628\226'\261\374\302"
 421      1BCBFFC1 
 421      F2389627 
 421      B1FCC2
 422 1095 3A995C3E 		.ascii	":\231\\>\310\036j\365\034l\2421\231\252\271\377/*[\014"
 422      C81E6AF5 
 422      1C6CA231 
 422      99AAB9FF 
 422      2F2A5B0C 
 423 10a9 2A5D2714 		.ascii	"*]'\024_\321\031\357\003\334Zu\262\326\224\001\223j"
 423      5FD119EF 
 423      03DC5A75 
 423      B2D69401 
 423      936A
 424 10bb A49BD0AB 		.ascii	"\244\233\320\253\337{T\237\012\030\316@*d\336\020g\267"
 424      DF7B549F 
 424      0A18CE40 
 424      2A64DE10 
 424      67B7
 425 10cd 78E396C8 		.ascii	"x\343\226\310n\011\306\255(\273\0250n\225rT\022\344"
 425      6E09C6AD 
 425      28BB1530 
 425      6E957254 
 425      12E4
 426 10df 06BE2FD4 		.ascii	"\006\276/\324EB/o\247\262\241\251\346\275\241TJ\364"
 426      45422F6F 
 426      A7B2A1A9 
 426      E6BDA154 
 426      4AF4
 427 10f1 71908ACB 		.ascii	"q\220\212\313t\331\221\274\034I\005H/\263\250$\351e"
 427      74D991BC 
 427      1C490548 
 427      2FB3A824 
 427      E965
 428 1103 2E1529BD 		.ascii	".\025)\275,\240\262\245\227?\242B\246\227\203\251\264"
 428      2CA0B2A5 
 428      973FA242 
 428      A69783A9 
 428      B4
 429 1114 E9E51D54 		.ascii	"\351\345\035T\354\364\262\220\312\237^2E\320\313\273"
 429      ECF4B290 
 429      CA9F5E32 
 429      45D0CBBB 
 430 1124 A9464C1C 		.ascii	"\251FL\034~a\2764f\310)\3230K\006%\375\316\370\236\206"
ARM GAS  /tmp/ccNiCCOZ.s 			page 34


 430      7E61BE34 
 430      66C829D3 
 430      304B0625 
 430      FDCEF89E 
 431 1139 9D759986 		.ascii	"\235u\231\206\361\324.\\&\347#X\273\020\3059\347{\344"
 431      F1D42E5C 
 431      26E72358 
 431      BB10C539 
 431      E77BE4
 432 114c F32E2367 		.ascii	"\363.#g\322\221\351\177\203uem\3074~\306\352\032\225"
 432      D291E97F 
 432      8375656D 
 432      C7347EC6 
 432      EA1A95
 433 115f 7C91F752 		.ascii	"|\221\367R\243V\033\364\376\252\366b\320\366\252V\303"
 433      A3561BF4 
 433      FEAAF662 
 433      D0F6AA56 
 433      C3
 434 1170 BFFFB57C 		.ascii	"\277\377\265|\016\365\225\3059\261\245\300]\033D\371"
 434      0EF595C5 
 434      39B1A5C0 
 434      5D1B44F9 
 435 1180 A71FE8B5 		.ascii	"\247\037\350\265\267\346\326\362\354\2773\232t+nV\006"
 435      B7E6D6F2 
 435      ECBF339A 
 435      742B6E56 
 435      06
 436 1191 DD3ED1A3 		.ascii	"\335>\321\243\257\265\351\177\234u\261\362\231\301\306"
 436      AFB5E97F 
 436      9C75B1F2 
 436      99C1C6
 437 11a0 7F9C453A 		.ascii	"\177\234E:Y\374\376\233\240\345\243+\333\353_\362\345"
 437      59FCFE9B 
 437      A0E5A32B 
 437      DBEB5FF2 
 437      E5
 438 11b1 981B6F3D 		.ascii	"\230\033o=\301\034\227^\215.{P\244\327\015\327^\315"
 438      C11C975E 
 438      8D2E7B50 
 438      A4D70DD7 
 438      5ECD
 439 11c3 2EDFF692 		.ascii	".\337\366\222^\337\272\366\232\231\346\005\365M\327"
 439      5EDFBAF6 
 439      9A99E605 
 439      F54DD7
 440 11d2 5E2B9321 		.ascii	"^+\223!\"\245Wo\262W!\327H\266*\032^n\033\244N\3102"
 440      22A5576F 
 440      B25721D7 
 440      48B62A1A 
 440      5E6E1BA4 
 441 11e9 84B8DAFC 		.ascii	"\204\270\332\374\277\217\331\220\227\245\341\2752\303"
 441      BF8FD990 
 441      97A5E1BD 
 441      32C3
 442 11f7 8D9EB569 		.ascii	"\215\236\265i\350\251r\355\325\220\206\367\352\014\033"
 442      E8A972ED 
ARM GAS  /tmp/ccNiCCOZ.s 			page 35


 442      D59086F7 
 442      EA0C1B
 443 1206 175AC754 		.ascii	"\027Z\307TU\020\014\036\310\0123y\374\342\376\373\213"
 443      55100C1E 
 443      C80A3379 
 443      FCE2FEFB 
 443      8B
 444 1217 8C7F6589 		.ascii	"\214\177e\211\"Y)*/\223\225D\321c\317>\365\370S/\026"
 444      2259292A 
 444      2F939544 
 444      D163CF3E 
 444      F5F8532F 
 445 122c 454A2265 		.ascii	"EJ\"e\262\024\036;<~\177\011\227M\036\205ce\221\027"
 445      B2141E3B 
 445      3C7E7F09 
 445      974D1E85 
 445      63659117 
 446 1240 329F78FA 		.ascii	"2\237x\372\371\302\307\271\034\274QQJn\335\235\212\024"
 446      F9C2C7B9 
 446      1CBC5151 
 446      4A6EDD9D 
 446      8A14
 447 1252 2D8DC42A 		.ascii	"-\215\304*\212%\000I\214O\220\376\221\222\347\306'\376"
 447      8A250049 
 447      8C4F90FE 
 447      9192E7C6 
 447      27FE
 448 1264 111AE760 		.ascii	"\021\032\347`\355y\354\370W\251\035\023r\004:\311\322"
 448      ED79ECF8 
 448      57A91D13 
 448      72043AC9 
 448      D2
 449 1275 98684291 		.ascii	"\230hB\221\307\337\037\341\376\272\017pe|\271DF\310"
 449      C7DF1FE1 
 449      FEBA0F70 
 449      657CB944 
 449      46C8
 450 1287 52A09758 		.ascii	"R\240\227X\034V`\250\260^w\2007u\215\224\024C\267\314"
 450      1C5660A8 
 450      B05E7780 
 450      37758D94 
 450      1443B7CC 
 451 129b F270A9F4 		.ascii	"\362p\251\364\242\002?\345\2624vx_2)\213\227Gc\222\234"
 451      A2023FE5 
 451      B2347678 
 451      5F32298B 
 451      97476392 
 452 12b0 287AE2F1 		.ascii	"(z\342\361\307\001\204\015\036R\312\345hYX\371qQEB6"
 452      C701840D 
 452      1E52CAE5 
 452      685958F9 
 452      71514542 
 453 12c5 062995C6 		.ascii	"\006)\225\306\305\242\243\212\022Jq\264T!$V\300\357"
 453      C5A2A38A 
 453      124A71B4 
 453      54212456 
 453      C0EF
ARM GAS  /tmp/ccNiCCOZ.s 			page 36


 454 12d7 AF7E1956 		.ascii	"\257~\031V\376\306\251Y\\\214\224DK\245\242p\2614Z\254"
 454      FEC6A959 
 454      5C8C9444 
 454      4BA5A270 
 454      B1345AAC 
 455 12eb 88296106 		.ascii	"\210)a\006> \034f\035\221\314hY(RV\252\000\325\367z"
 455      3E201C66 
 455      1D91CC68 
 455      59285256 
 455      AA00D5F7 
 456 1300 522140E8 		.ascii	"R!@\350\332\002\220\210\362b\026\010W\224\343aE\220"
 456      DA029088 
 456      F2621608 
 456      5794E361 
 456      4590
 457 1312 1F10E407 		.ascii	"\037\020\344\007\005\371!A\036.\310#\004\371\341\200"
 457      05F92141 
 457      1E2EC823 
 457      04F9E180 
 458 1322 3C6C289C 		.ascii	"<l(\234\303\204\230\014?\277\312(\017C\373\020\221\320"
 458      C384980C 
 458      3FBFCA28 
 458      0F43FB10 
 458      91D0
 459 1334 384986DF 		.ascii	"8I\206\337\262X\261$\007#%\242L\304&\306\245\001\011"
 459      B258B124 
 459      072325A2 
 459      4CC426C6 
 459      A50109
 460 1347 E5053116 		.ascii	"\345\0051\026\035S\032V\220\271\207\036\010+\224\\\254"
 460      1D531A56 
 460      90B9871E 
 460      082B945C 
 460      AC
 461 1358 9687A141 		.ascii	"\226\207\241A,\032\217*YJB\021\025)\254\204\310\303"
 461      2C1A8F2A 
 461      594A4211 
 461      1529AC84 
 461      C8C3
 462 136a 11A026BD 		.ascii	"\021\240&\275\031\324B\244\025<\013)\361\262b\011\257"
 462      19D442A4 
 462      153C0B29 
 462      F1B26209 
 462      AF
 463 137b 47C7C431 		.ascii	"G\307\3041\211\220\"K\243\023\3104\251d\304\023c\340"
 463      8990224B 
 463      A313C834 
 463      A964C413 
 463      63E0
 464 138d 21950474 		.ascii	"!\225\004tg2\221\213\307\303\243,\351\305\250\022\001"
 464      6732918B 
 464      C7C3A32C 
 464      E9C5A812 
 464      01
 465 139e 80CC714A 		.ascii	"\200\314qJ\331\250\177-\037D\355\001\272J\262T\032\001"
 465      D9A87F2D 
 465      1F44ED01 
ARM GAS  /tmp/ccNiCCOZ.s 			page 37


 465      BA4AB254 
 465      1A01
 466 13b0 E08C718A 		.ascii	"\340\214q\212\"\227\347\202}$\244\270X^\002\262Io\272"
 466      2297E782 
 466      7D24A4B8 
 466      585E02B2 
 466      496FBA
 467 13c3 1231FD7C 		.ascii	"\0221\375|\035(\021\376c\205T\001(\005\206}\321[!\372"
 467      1D2811FE 
 467      63855401 
 467      2805867D 
 467      D15B21FA 
 468 13d7 9B112905 		.ascii	"\233\021)\005\245e$\302\360\013D@\357\362,h\033\257"
 468      A56524C2 
 468      F00B4440 
 468      EFF22C68 
 468      1BAF
 469 13e9 0055A51D 		.ascii	"\000U\245\035'\256\274Hl(N\341\342\341\262q\245 o\354"
 469      27AEBC48 
 469      6C284EE1 
 469      E2E1B271 
 469      A5206FEC 
 470 13fd 08FCC575 		.ascii	"\010\374\305u\013\035\247@\273\362\034i\254T\252\304"
 470      0B1DA740 
 470      BBF21C69 
 470      AC54AAC4 
 471 140d C5C40BF0 		.ascii	"\305\304\013\360D\032G*\201\362pE\036\243(\006~\023"
 471      441A472A 
 471      81F27045 
 471      1EA32806 
 471      7E13
 472 141f 56F24D34 		.ascii	"V\362M4\222;\331\345\341qbT\211\226\216\001\225\200"
 472      923BD9E5 
 472      E1716254 
 472      89968E01 
 472      9580
 473 1431 B0747AB1 		.ascii	"\260tz\261\0127\244r\251\024Lt\014\264\202!H\373\001"
 473      0A37A472 
 473      A9144C74 
 473      0CB48221 
 473      48FB01
 474 1444 44E4620C 		.ascii	"D\344b\014m\015n\226\227\225\305\356J\307\201B\0045"
 474      6D0D6E96 
 474      9795C5EE 
 474      4AC78142 
 474      0435
 475 1456 4889C6A5 		.ascii	"H\211\306\245p\\\022\023\025\262\024\227\2100B\262\202"
 475      705C1213 
 475      15B21497 
 475      883042B2 
 475      82
 476 1467 42098E92 		.ascii	"B\011\216\222\022 \37629\241\004cbB\311\254\300\333"
 476      1220FE32 
 476      39A10463 
 476      6242C9AC 
 476      C0DB
 477 1479 7C6996AC 		.ascii	"|i\226\254`/e@\244\"^\021\023\225\350X\211\332C\002"
ARM GAS  /tmp/ccNiCCOZ.s 			page 38


 477      602F6540 
 477      A4225E11 
 477      1395E858 
 477      89DA4302 
 478 148d 04FDAC34 		.ascii	"\004\375\2544\346\267Q\350\364{\344%\037o<\015\302\320"
 478      E6B751E8 
 478      F47BE425 
 478      1F6F3C0D 
 478      C2D0
 479 149f AF05A5FC 		.ascii	"\257\005\245\374\236tT\025K\243*\306\020\015\206\213"
 479      9E745415 
 479      4BA32AC6 
 479      100D868B 
 480 14af 478D0947 		.ascii	"G\215\011GJ\244\310\013\030\302\322v\302\241\241\323"
 480      4AA4C80B 
 480      18C2D276 
 480      C2A1A1D3 
 481 14bf 8F752248 		.ascii	"\217u\"H\011\256C\271\012G\344(\320]R\254\307\263'\305"
 481      09AE43B9 
 481      0A47E428 
 481      D05D52AC 
 481      C7B327C5 
 482 14d3 987287D1 		.ascii	"\230r\207\321\256\254<\245\331-\246\221\365X\371\263"
 482      AEAC3CA5 
 482      D92DA691 
 482      F558F9B3 
 483 14e3 B4048F07 		.ascii	"\264\004\217\007\247\212F`t0\322\337\227\024?+\305\000"
 483      A78A4660 
 483      7430D2DF 
 483      97143F2B 
 483      C500
 484 14f5 50CA2116 		.ascii	"P\312!\026\013\221N\212\353\321M\257\347\022\021\214"
 484      0B914E8A 
 484      EBD14DAF 
 484      E712118C 
 485 1505 A70A1F08 		.ascii	"\247\012\037\010\267\223\327!Y7\245L\031\303E\206\214"
 485      B793D721 
 485      5937A54C 
 485      19C34586 
 485      8C
 486 1516 7E2C533F 		.ascii	"~,S?\226u?\316\206\273\0252\270\206\222!\223N\267\215"
 486      96753FCE 
 486      86BB1532 
 486      B8869221 
 486      934EB78D 
 487 152a 8DCA4A85 		.ascii	"\215\312J\205\030\013\023\205\310\314\222n\007`\207"
 487      180B1385 
 487      C8CC926E 
 487      076087
 488 1539 07F9967B 		.ascii	"\007\371\226{\272SXn\205\306*h\266\344\227D\326lB4j"
 488      BA53586E 
 488      85C62A68 
 488      B6E49744 
 488      D66C4234 
 489 154e 3A0BEE14 		.ascii	":\013\356\024K1E\204\312\350\212\322H\030\333\220Z&"
 489      4B314584 
 489      CAE88AD2 
ARM GAS  /tmp/ccNiCCOZ.s 			page 39


 489      4818DB90 
 489      5A26
 490 1560 692BCA39 		.ascii	"i+\3129\360C\214\2044\207[d\270<\312>jT7o\363\235\354"
 490      F0438C84 
 490      34875B64 
 490      B83CCA3E 
 490      6A54376F 
 491 1577 72B1341A 		.ascii	"r\2614\032!\326\034\212&d\342\177YD\326\244r\013\361"
 491      21D61C8A 
 491      2664E27F 
 491      5944D6A4 
 491      720BF1
 492 158a 045904F7 		.ascii	"\004Y\004\367\037U1z4!5\244\214\012'\242\177\222\362"
 492      1F55317A 
 492      342135A4 
 492      8C0A27A2 
 492      7F92F2
 493 159d 08C8B848 		.ascii	"\010\310\270H\030\035\012n'$\244<\203\374\226gC\251"
 493      181D0A6E 
 493      2724A43C 
 493      83FC9667 
 493      43A9
 494 15af C7912CA8 		.ascii	"\307\221,\250ax\312\204~\345\212\234\015?:T\256\031"
 494      6178CA84 
 494      7EE58A9C 
 494      0D3F3A54 
 494      AE19
 495 15c1 37008A1E 		.ascii	"7\000\212\036\020\027!&\241i\026(\361p\004\"\343(\031"
 495      10172126 
 495      A1691628 
 495      F1700422 
 495      E32819
 496 15d4 4CBA0CC2 		.ascii	"L\272\014\302cf\331\350\321\011I\021\224x\336\013\222"
 496      6366D9E8 
 496      D1094911 
 496      9478DE0B 
 496      92
 497 15e5 5C2AC5A8 		.ascii	"\\*\305\250\331(\031\245\341\250\374\307\254R\242\""
 497      D92819A5 
 497      E1A8FCC7 
 497      AC52A222 
 498 15f5 206740DC 		.ascii	" g@\3340\036V\005\226r\315}\362\242\3051\211\2727\270"
 498      301E5605 
 498      9672CD7D 
 498      F2A2C531 
 498      89BA37B8 
 499 1609 B51029C9 		.ascii	"\265\020)\311\012\243\374\302\341\201\254r\377\203\017"
 499      0AA3FCC2 
 499      E181AC72 
 499      FF830F
 500 1618 0F7B30D7 		.ascii	"\017{0\327\224j\271\344\243\207\036\032\366p\201\315"
 500      946AB9E4 
 500      A3871E1A 
 500      F67081CD 
 501 1628 95D2A759 		.ascii	"\225\322\247Y#\035\227p\304\320\242\305 \261\350\350"
 501      231D9770 
 501      C4D0A2C5 
ARM GAS  /tmp/ccNiCCOZ.s 			page 40


 501      20B1E8E8 
 502 1638 286819AE 		.ascii	"(h\031\256\376$\311e\344\227\310\024\223\300\260\207"
 502      FE24C965 
 502      E497C814 
 502      93C0B087 
 503 1648 8C248055 		.ascii	"\214$\200Ub\032`7 \006R\005\021\222\226\304\246\211"
 503      621A6037 
 503      20065205 
 503      119296C4 
 503      A689
 504 165a B8497D60 		.ascii	"\270I}`2Z\341\223\321a\020\026Z\356\000Z\007\331\344"
 504      325AE193 
 504      D1611016 
 504      5AEE005A 
 504      07D9E4
 505 166d D22ADA30 		.ascii	"\322*\3320\273@Cf\035HB\312\247u\226vr\215k\320 \273"
 505      BB404366 
 505      1D4842CA 
 505      A7759676 
 505      728D6BD0 
 506 1683 C0ECC27A 		.ascii	"\300\354\302z\221\324\222g\014)A\320V\330#B_6\015#`"
 506      91D49267 
 506      0C2941D0 
 506      56D82342 
 506      5F360D23 
 507 1698 B7402556 		.ascii	"\267@%V\213l\242\002!\026=\376\324s\277{.)12q\212\304"
 507      8B6CA202 
 507      21163DFE 
 507      D473BF7B 
 507      2E293132 
 508 16af 7F0BF226 		.ascii	"\177\013\362&\"\013C\276Q\302\177\377\330s\377\360\314"
 508      220B43BE 
 508      51C27FFF 
 508      D873FFF0 
 508      CC
 509 16c0 B3BF1B28 		.ascii	"\263\277\033(\306\306\211\343\023\220\275b\220\3553"
 509      C6C689E3 
 509      1390BD62 
 509      90ED33
 510 16cf C68AB10A 		.ascii	"\306\212\261\012\351\177\001\260\352\365\330"
 510      E97F01B0 
 510      EAF5D8
 511              		.text
 512              		.section	.gnu.lto_.symtab.23801fd4217c6598,"",%progbits
 513 0000 63685265 		.ascii	"chRegFirstThread\000\000\000\000\000\000\000\000\000"
 513      67466972 
 513      73745468 
 513      72656164 
 513      00000000 
 514 0019 000000AF 		.ascii	"\000\000\000\257\000\000\000chRegNextThread\000\000"
 514      00000063 
 514      68526567 
 514      4E657874 
 514      54687265 
 515 0031 00000000 		.ascii	"\000\000\000\000\000\000\000\000\000\000\207\001\000"
 515      00000000 
 515      00008701 
ARM GAS  /tmp/ccNiCCOZ.s 			page 41


 515      00
 516 003e 0063685F 		.ascii	"\000ch_debug\000\000\000\000\000\000\000\000\000\000"
 516      64656275 
 516      67000000 
 516      00000000 
 516      000000
 517 0051 00003802 		.ascii	"\000\0008\002\000\000ch\000\000\002\000\000\000\000"
 517      00006368 
 517      00000200 
 517      000000
 518 0060 00000000 		.ascii	"\000\000\000\000\000\236\001\000\000_dbg_check_lock"
 518      009E0100 
 518      005F6462 
 518      675F6368 
 518      65636B5F 
 519 0078 00000200 		.ascii	"\000\000\002\000\000\000\000\000\000\000\000\000\216"
 519      00000000 
 519      00000000 
 519      8E
 520 0085 0100005F 		.ascii	"\001\000\000_stats_start_measure_crit_thd\000\000\002"
 520      73746174 
 520      735F7374 
 520      6172745F 
 520      6D656173 
 521 00a8 00000000 		.ascii	"\000\000\000\000\000\000\000\000\000\220\001\000\000"
 521      00000000 
 521      00900100 
 521      00
 522 00b5 63685379 		.ascii	"chSysHalt\000\000\002\000\000\000\000\000\000\000\000"
 522      7348616C 
 522      74000002 
 522      00000000 
 522      00000000 
 523 00c9 00920100 		.ascii	"\000\222\001\000\000_stats_stop_measure_crit_thd\000"
 523      005F7374 
 523      6174735F 
 523      73746F70 
 523      5F6D6561 
 524 00eb 00020000 		.ascii	"\000\002\000\000\000\000\000\000\000\000\000\226\001"
 524      00000000 
 524      00000096 
 524      01
 525 00f8 00005F64 		.ascii	"\000\000_dbg_check_unlock\000\000\002\000\000\000\000"
 525      62675F63 
 525      6865636B 
 525      5F756E6C 
 525      6F636B00 
 526 0112 00000000 		.ascii	"\000\000\000\000\000\230\001\000\000chThdRelease\000"
 526      00980100 
 526      00636854 
 526      68645265 
 526      6C656173 
 527 0128 00020000 		.ascii	"\000\002\000\000\000\000\000\000\000\000\000\232\001"
 527      00000000 
 527      0000009A 
 527      01
 528 0135 0000     		.ascii	"\000\000"
ARM GAS  /tmp/ccNiCCOZ.s 			page 42


 529              		.text
 530              		.section	.gnu.lto_.opts,"",%progbits
 531 0000 272D6D63 		.ascii	"'-mcpu=cortex-m4' '-mno-thumb-interwork' '-mthumb' "
 531      70753D63 
 531      6F727465 
 531      782D6D34 
 531      2720272D 
 532 0033 272D6767 		.ascii	"'-ggdb' '-O0' '-fomit-frame-pointer' '-falign-funct"
 532      64622720 
 532      272D4F30 
 532      2720272D 
 532      666F6D69 
 533 0066 696F6E73 		.ascii	"ions=16' '-ffunction-sections' '-fdata-sections' '-"
 533      3D313627 
 533      20272D66 
 533      66756E63 
 533      74696F6E 
 534 0099 666E6F2D 		.ascii	"fno-common' '-flto'\000"
 534      636F6D6D 
 534      6F6E2720 
 534      272D666C 
 534      746F2700 
 535              		.text
 536              		.cfi_sections	.debug_frame
 537              		.section	.text.port_lock,"ax",%progbits
 538              		.align	2
 539              		.p2align 4,,15
 540              		.thumb
 541              		.thumb_func
 542              		.type	port_lock, %function
 543              	port_lock:
 544              	.LFB127:
 545              		.file 1 "../../../../os/rt/ports/ARMCMx/chcore_v7m.h"
 546              		.loc 1 456 0
 547              		.cfi_startproc
 548              		@ args = 0, pretend = 0, frame = 8
 549              		@ frame_needed = 0, uses_anonymous_args = 0
 550              		@ link register save eliminated.
 551 0000 82B0     		sub	sp, sp, #8
 552              		.cfi_def_cfa_offset 8
 553 0002 2023     		movs	r3, #32
 554 0004 0193     		str	r3, [sp, #4]
 555              	.LBB6:
 556              	.LBB7:
 557              		.file 2 "../../../../os/ext/CMSIS/include/core_cmFunc.h"
 558              		.loc 2 548 0
 559 0006 019B     		ldr	r3, [sp, #4]
 560              	@ 548 "../../../../os/ext/CMSIS/include/core_cmFunc.h" 1
 561 0008 83F31188 		MSR basepri, r3
 562              	@ 0 "" 2
 563              		.thumb
 564              	.LBE7:
 565              	.LBE6:
 566              		.loc 1 473 0
 567 000c 02B0     		add	sp, sp, #8
 568              		@ sp needed
 569 000e 7047     		bx	lr
ARM GAS  /tmp/ccNiCCOZ.s 			page 43


 570              		.cfi_endproc
 571              	.LFE127:
 572              		.size	port_lock, .-port_lock
 573              		.section	.text.port_unlock,"ax",%progbits
 574              		.align	2
 575              		.p2align 4,,15
 576              		.thumb
 577              		.thumb_func
 578              		.type	port_unlock, %function
 579              	port_unlock:
 580              	.LFB128:
 581              		.loc 1 480 0
 582              		.cfi_startproc
 583              		@ args = 0, pretend = 0, frame = 8
 584              		@ frame_needed = 0, uses_anonymous_args = 0
 585              		@ link register save eliminated.
 586 0000 82B0     		sub	sp, sp, #8
 587              		.cfi_def_cfa_offset 8
 588 0002 0023     		movs	r3, #0
 589 0004 0193     		str	r3, [sp, #4]
 590              	.LBB8:
 591              	.LBB9:
 592              		.loc 2 548 0
 593 0006 019B     		ldr	r3, [sp, #4]
 594              	@ 548 "../../../../os/ext/CMSIS/include/core_cmFunc.h" 1
 595 0008 83F31188 		MSR basepri, r3
 596              	@ 0 "" 2
 597              		.thumb
 598              	.LBE9:
 599              	.LBE8:
 600              		.loc 1 487 0
 601 000c 02B0     		add	sp, sp, #8
 602              		@ sp needed
 603 000e 7047     		bx	lr
 604              		.cfi_endproc
 605              	.LFE128:
 606              		.size	port_unlock, .-port_unlock
 607              		.section	.text.chSysLock,"ax",%progbits
 608              		.align	2
 609              		.p2align 4,,15
 610              		.thumb
 611              		.thumb_func
 612              		.type	chSysLock, %function
 613              	chSysLock:
 614              	.LFB167:
 615              		.file 3 "../../../../os/rt/include/chsys.h"
 616              		.loc 3 346 0
 617              		.cfi_startproc
 618              		@ args = 0, pretend = 0, frame = 0
 619              		@ frame_needed = 0, uses_anonymous_args = 0
 620 0000 08B5     		push	{r3, lr}
 621              		.cfi_def_cfa_offset 8
 622              		.cfi_offset 3, -8
 623              		.cfi_offset 14, -4
 624              		.loc 3 348 0
 625 0002 FFF7FEFF 		bl	port_lock
 626              		.loc 3 349 0
ARM GAS  /tmp/ccNiCCOZ.s 			page 44


 627 0006 FFF7FEFF 		bl	_stats_start_measure_crit_thd
 628              		.loc 3 350 0
 629 000a FFF7FEFF 		bl	_dbg_check_lock
 630              		.loc 3 351 0
 631 000e 08BD     		pop	{r3, pc}
 632              		.cfi_endproc
 633              	.LFE167:
 634              		.size	chSysLock, .-chSysLock
 635              		.section	.text.chSysUnlock,"ax",%progbits
 636              		.align	2
 637              		.p2align 4,,15
 638              		.thumb
 639              		.thumb_func
 640              		.type	chSysUnlock, %function
 641              	chSysUnlock:
 642              	.LFB168:
 643              		.loc 3 358 0
 644              		.cfi_startproc
 645              		@ args = 0, pretend = 0, frame = 0
 646              		@ frame_needed = 0, uses_anonymous_args = 0
 647 0000 08B5     		push	{r3, lr}
 648              		.cfi_def_cfa_offset 8
 649              		.cfi_offset 3, -8
 650              		.cfi_offset 14, -4
 651              		.loc 3 360 0
 652 0002 FFF7FEFF 		bl	_dbg_check_unlock
 653              		.loc 3 361 0
 654 0006 FFF7FEFF 		bl	_stats_stop_measure_crit_thd
 655              		.loc 3 367 0
 656 000a 40F20003 		movw	r3, #:lower16:ch
 657 000e C0F20003 		movt	r3, #:upper16:ch
 658 0012 1A68     		ldr	r2, [r3]
 659 0014 40F20003 		movw	r3, #:lower16:ch
 660 0018 C0F20003 		movt	r3, #:upper16:ch
 661 001c 9A42     		cmp	r2, r3
 662 001e 13D0     		beq	.L5
 663              		.loc 3 367 0 is_stmt 0 discriminator 1
 664 0020 40F20003 		movw	r3, #:lower16:ch
 665 0024 C0F20003 		movt	r3, #:upper16:ch
 666 0028 9B69     		ldr	r3, [r3, #24]
 667 002a 9A68     		ldr	r2, [r3, #8]
 668 002c 40F20003 		movw	r3, #:lower16:ch
 669 0030 C0F20003 		movt	r3, #:upper16:ch
 670 0034 1B68     		ldr	r3, [r3]
 671 0036 9B68     		ldr	r3, [r3, #8]
 672 0038 9A42     		cmp	r2, r3
 673 003a 05D2     		bcs	.L5
 674 003c 40F20000 		movw	r0, #:lower16:__func__.5915
 675 0040 C0F20000 		movt	r0, #:upper16:__func__.5915
 676 0044 FFF7FEFF 		bl	chSysHalt
 677              	.L5:
 678              		.loc 3 371 0 is_stmt 1
 679 0048 FFF7FEFF 		bl	port_unlock
 680              		.loc 3 372 0
 681 004c 08BD     		pop	{r3, pc}
 682              		.cfi_endproc
 683              	.LFE168:
ARM GAS  /tmp/ccNiCCOZ.s 			page 45


 684              		.size	chSysUnlock, .-chSysUnlock
 685              		.global	ch_debug
 686 004e 00BF     		.section	.rodata.ch_debug,"a",%progbits
 687              		.align	2
 688              		.type	ch_debug, %object
 689              		.size	ch_debug, 22
 690              	ch_debug:
 691 0000 6D       		.byte	109
 692 0001 61       		.byte	97
 693 0002 69       		.byte	105
 694 0003 6E       		.byte	110
 695 0004 00       		.byte	0
 696 0005 16       		.byte	22
 697 0006 4318     		.short	6211
 698 0008 04       		.byte	4
 699 0009 04       		.byte	4
 700 000a 60       		.byte	96
 701 000b 08       		.byte	8
 702 000c 0C       		.byte	12
 703 000d 10       		.byte	16
 704 000e 14       		.byte	20
 705 000f 18       		.byte	24
 706 0010 1C       		.byte	28
 707 0011 20       		.byte	32
 708 0012 21       		.byte	33
 709 0013 22       		.byte	34
 710 0014 00       		.byte	0
 711 0015 00       		.byte	0
 712 0016 0000     		.section	.text.chRegFirstThread,"ax",%progbits
 713              		.align	2
 714              		.p2align 4,,15
 715              		.global	chRegFirstThread
 716              		.thumb
 717              		.thumb_func
 718              		.type	chRegFirstThread, %function
 719              	chRegFirstThread:
 720              	.LFB241:
 721              		.file 4 "../../../../os/rt/src/chregistry.c"
 722              		.loc 4 131 0
 723              		.cfi_startproc
 724              		@ args = 0, pretend = 0, frame = 8
 725              		@ frame_needed = 0, uses_anonymous_args = 0
 726 0000 00B5     		push	{lr}
 727              		.cfi_def_cfa_offset 4
 728              		.cfi_offset 14, -4
 729 0002 83B0     		sub	sp, sp, #12
 730              		.cfi_def_cfa_offset 16
 731              		.loc 4 134 0
 732 0004 FFF7FEFF 		bl	chSysLock
 733              		.loc 4 135 0
 734 0008 40F20003 		movw	r3, #:lower16:ch
 735 000c C0F20003 		movt	r3, #:upper16:ch
 736 0010 1B69     		ldr	r3, [r3, #16]
 737 0012 0193     		str	r3, [sp, #4]
 738              		.loc 4 137 0
 739 0014 019B     		ldr	r3, [sp, #4]
 740 0016 93F82230 		ldrb	r3, [r3, #34]	@ zero_extendqisi2
ARM GAS  /tmp/ccNiCCOZ.s 			page 46


 741 001a 0133     		adds	r3, r3, #1
 742 001c DAB2     		uxtb	r2, r3
 743 001e 019B     		ldr	r3, [sp, #4]
 744 0020 83F82220 		strb	r2, [r3, #34]
 745              		.loc 4 139 0
 746 0024 FFF7FEFF 		bl	chSysUnlock
 747              		.loc 4 141 0
 748 0028 019B     		ldr	r3, [sp, #4]
 749              		.loc 4 142 0
 750 002a 1846     		mov	r0, r3
 751 002c 03B0     		add	sp, sp, #12
 752              		@ sp needed
 753 002e 5DF804FB 		ldr	pc, [sp], #4
 754              		.cfi_endproc
 755              	.LFE241:
 756              		.size	chRegFirstThread, .-chRegFirstThread
 757 0032 00BFAFF3 		.section	.text.chRegNextThread,"ax",%progbits
 757      0080AFF3 
 757      0080AFF3 
 757      0080
 758              		.align	2
 759              		.p2align 4,,15
 760              		.global	chRegNextThread
 761              		.thumb
 762              		.thumb_func
 763              		.type	chRegNextThread, %function
 764              	chRegNextThread:
 765              	.LFB242:
 766              		.loc 4 155 0
 767              		.cfi_startproc
 768              		@ args = 0, pretend = 0, frame = 16
 769              		@ frame_needed = 0, uses_anonymous_args = 0
 770 0000 00B5     		push	{lr}
 771              		.cfi_def_cfa_offset 4
 772              		.cfi_offset 14, -4
 773 0002 85B0     		sub	sp, sp, #20
 774              		.cfi_def_cfa_offset 24
 775 0004 0190     		str	r0, [sp, #4]
 776              		.loc 4 158 0
 777 0006 FFF7FEFF 		bl	chSysLock
 778              		.loc 4 159 0
 779 000a 019B     		ldr	r3, [sp, #4]
 780 000c 1B69     		ldr	r3, [r3, #16]
 781 000e 0393     		str	r3, [sp, #12]
 782              		.loc 4 161 0
 783 0010 039A     		ldr	r2, [sp, #12]
 784 0012 40F20003 		movw	r3, #:lower16:ch
 785 0016 C0F20003 		movt	r3, #:upper16:ch
 786 001a 9A42     		cmp	r2, r3
 787 001c 02D1     		bne	.L9
 788              		.loc 4 163 0
 789 001e 0023     		movs	r3, #0
 790 0020 0393     		str	r3, [sp, #12]
 791 0022 12E0     		b	.L10
 792              	.L9:
 793              		.loc 4 167 0 discriminator 1
 794 0024 039B     		ldr	r3, [sp, #12]
ARM GAS  /tmp/ccNiCCOZ.s 			page 47


 795 0026 93F82230 		ldrb	r3, [r3, #34]	@ zero_extendqisi2
 796 002a FF2B     		cmp	r3, #255
 797 002c 05D1     		bne	.L11
 798 002e 40F20000 		movw	r0, #:lower16:__func__.6619
 799 0032 C0F20000 		movt	r0, #:upper16:__func__.6619
 800 0036 FFF7FEFF 		bl	chSysHalt
 801              	.L11:
 802              		.loc 4 168 0
 803 003a 039B     		ldr	r3, [sp, #12]
 804 003c 93F82230 		ldrb	r3, [r3, #34]	@ zero_extendqisi2
 805 0040 0133     		adds	r3, r3, #1
 806 0042 DAB2     		uxtb	r2, r3
 807 0044 039B     		ldr	r3, [sp, #12]
 808 0046 83F82220 		strb	r2, [r3, #34]
 809              	.L10:
 810              		.loc 4 171 0
 811 004a FFF7FEFF 		bl	chSysUnlock
 812              		.loc 4 173 0
 813 004e 0198     		ldr	r0, [sp, #4]
 814 0050 FFF7FEFF 		bl	chThdRelease
 815              		.loc 4 176 0
 816 0054 039B     		ldr	r3, [sp, #12]
 817              		.loc 4 177 0
 818 0056 1846     		mov	r0, r3
 819 0058 05B0     		add	sp, sp, #20
 820              		@ sp needed
 821 005a 5DF804FB 		ldr	pc, [sp], #4
 822              		.cfi_endproc
 823              	.LFE242:
 824              		.size	chRegNextThread, .-chRegNextThread
 825 005e 00BF     		.section	.rodata.__func__.5915,"a",%progbits
 826              		.align	2
 827              		.type	__func__.5915, %object
 828              		.size	__func__.5915, 12
 829              	__func__.5915:
 830 0000 63685379 		.ascii	"chSysUnlock\000"
 830      73556E6C 
 830      6F636B00 
 831              		.section	.rodata.__func__.6619,"a",%progbits
 832              		.align	2
 833              		.type	__func__.6619, %object
 834              		.size	__func__.6619, 16
 835              	__func__.6619:
 836 0000 63685265 		.ascii	"chRegNextThread\000"
 836      674E6578 
 836      74546872 
 836      65616400 
 837              		.text
 838              	.Letext0:
 839              		.file 5 "/usr/lib/gcc/arm-none-eabi/4.8.2/include/stddef.h"
 840              		.file 6 "/usr/include/newlib/machine/_default_types.h"
 841              		.file 7 "/usr/include/newlib/stdint.h"
 842              		.file 8 "../../../../os/rt/ports/ARMCMx/compilers/GCC/chtypes.h"
 843              		.file 9 "../../../../os/rt/include/chsystypes.h"
 844              		.file 10 "../../../../os/rt/include/chschd.h"
 845              		.file 11 "../../../../os/rt/ports/ARMCMx/chcore.h"
 846              		.file 12 "../../../../os/rt/include/chdebug.h"
ARM GAS  /tmp/ccNiCCOZ.s 			page 48


 847              		.file 13 "../../../../os/rt/include/chtm.h"
 848              		.file 14 "../../../../os/rt/include/chstats.h"
 849              		.file 15 "../../../../os/rt/include/chsem.h"
 850              		.file 16 "../../../../os/rt/include/chmtx.h"
 851              		.file 17 "../../../../os/rt/include/chregistry.h"
 852              		.file 18 "../../../../os/ext/CMSIS/include/core_cm4.h"
 853              		.section	.debug_info,"",%progbits
 854              	.Ldebug_info0:
 855 0000 3C0A0000 		.4byte	0xa3c
 856 0004 0400     		.2byte	0x4
 857 0006 00000000 		.4byte	.Ldebug_abbrev0
 858 000a 04       		.byte	0x4
 859 000b 01       		.uleb128 0x1
 860 000c 0C030000 		.4byte	.LASF159
 861 0010 01       		.byte	0x1
 862 0011 3F070000 		.4byte	.LASF160
 863 0015 B5020000 		.4byte	.LASF161
 864 0019 00000000 		.4byte	.Ldebug_ranges0+0
 865 001d 00000000 		.4byte	0
 866 0021 00000000 		.4byte	.Ldebug_line0
 867 0025 02       		.uleb128 0x2
 868 0026 04       		.byte	0x4
 869 0027 05       		.byte	0x5
 870 0028 696E7400 		.ascii	"int\000"
 871 002c 03       		.uleb128 0x3
 872 002d 22000000 		.4byte	.LASF2
 873 0031 05       		.byte	0x5
 874 0032 D4       		.byte	0xd4
 875 0033 37000000 		.4byte	0x37
 876 0037 04       		.uleb128 0x4
 877 0038 04       		.byte	0x4
 878 0039 07       		.byte	0x7
 879 003a 39020000 		.4byte	.LASF0
 880 003e 04       		.uleb128 0x4
 881 003f 01       		.byte	0x1
 882 0040 06       		.byte	0x6
 883 0041 38010000 		.4byte	.LASF1
 884 0045 03       		.uleb128 0x3
 885 0046 4B000000 		.4byte	.LASF3
 886 004a 06       		.byte	0x6
 887 004b 1C       		.byte	0x1c
 888 004c 50000000 		.4byte	0x50
 889 0050 04       		.uleb128 0x4
 890 0051 01       		.byte	0x1
 891 0052 08       		.byte	0x8
 892 0053 4A050000 		.4byte	.LASF4
 893 0057 04       		.uleb128 0x4
 894 0058 02       		.byte	0x2
 895 0059 05       		.byte	0x5
 896 005a 62050000 		.4byte	.LASF5
 897 005e 03       		.uleb128 0x3
 898 005f 6C060000 		.4byte	.LASF6
 899 0063 06       		.byte	0x6
 900 0064 26       		.byte	0x26
 901 0065 69000000 		.4byte	0x69
 902 0069 04       		.uleb128 0x4
 903 006a 02       		.byte	0x2
ARM GAS  /tmp/ccNiCCOZ.s 			page 49


 904 006b 07       		.byte	0x7
 905 006c 7E020000 		.4byte	.LASF7
 906 0070 03       		.uleb128 0x3
 907 0071 E0030000 		.4byte	.LASF8
 908 0075 06       		.byte	0x6
 909 0076 37       		.byte	0x37
 910 0077 7B000000 		.4byte	0x7b
 911 007b 04       		.uleb128 0x4
 912 007c 04       		.byte	0x4
 913 007d 05       		.byte	0x5
 914 007e 94010000 		.4byte	.LASF9
 915 0082 03       		.uleb128 0x3
 916 0083 AA060000 		.4byte	.LASF10
 917 0087 06       		.byte	0x6
 918 0088 38       		.byte	0x38
 919 0089 8D000000 		.4byte	0x8d
 920 008d 04       		.uleb128 0x4
 921 008e 04       		.byte	0x4
 922 008f 07       		.byte	0x7
 923 0090 3E060000 		.4byte	.LASF11
 924 0094 04       		.uleb128 0x4
 925 0095 08       		.byte	0x8
 926 0096 05       		.byte	0x5
 927 0097 2A010000 		.4byte	.LASF12
 928 009b 03       		.uleb128 0x3
 929 009c D9040000 		.4byte	.LASF13
 930 00a0 06       		.byte	0x6
 931 00a1 4E       		.byte	0x4e
 932 00a2 A6000000 		.4byte	0xa6
 933 00a6 04       		.uleb128 0x4
 934 00a7 08       		.byte	0x8
 935 00a8 07       		.byte	0x7
 936 00a9 A4000000 		.4byte	.LASF14
 937 00ad 03       		.uleb128 0x3
 938 00ae 1D070000 		.4byte	.LASF15
 939 00b2 07       		.byte	0x7
 940 00b3 2A       		.byte	0x2a
 941 00b4 45000000 		.4byte	0x45
 942 00b8 03       		.uleb128 0x3
 943 00b9 4E020000 		.4byte	.LASF16
 944 00bd 07       		.byte	0x7
 945 00be 36       		.byte	0x36
 946 00bf 5E000000 		.4byte	0x5e
 947 00c3 03       		.uleb128 0x3
 948 00c4 42050000 		.4byte	.LASF17
 949 00c8 07       		.byte	0x7
 950 00c9 41       		.byte	0x41
 951 00ca 70000000 		.4byte	0x70
 952 00ce 03       		.uleb128 0x3
 953 00cf 00060000 		.4byte	.LASF18
 954 00d3 07       		.byte	0x7
 955 00d4 42       		.byte	0x42
 956 00d5 82000000 		.4byte	0x82
 957 00d9 03       		.uleb128 0x3
 958 00da 99040000 		.4byte	.LASF19
 959 00de 07       		.byte	0x7
 960 00df 4E       		.byte	0x4e
ARM GAS  /tmp/ccNiCCOZ.s 			page 50


 961 00e0 9B000000 		.4byte	0x9b
 962 00e4 03       		.uleb128 0x3
 963 00e5 DC060000 		.4byte	.LASF20
 964 00e9 08       		.byte	0x8
 965 00ea 39       		.byte	0x39
 966 00eb CE000000 		.4byte	0xce
 967 00ef 03       		.uleb128 0x3
 968 00f0 0D010000 		.4byte	.LASF21
 969 00f4 08       		.byte	0x8
 970 00f5 3A       		.byte	0x3a
 971 00f6 D9000000 		.4byte	0xd9
 972 00fa 03       		.uleb128 0x3
 973 00fb 89050000 		.4byte	.LASF22
 974 00ff 08       		.byte	0x8
 975 0100 3C       		.byte	0x3c
 976 0101 AD000000 		.4byte	0xad
 977 0105 03       		.uleb128 0x3
 978 0106 9D010000 		.4byte	.LASF23
 979 010a 08       		.byte	0x8
 980 010b 3D       		.byte	0x3d
 981 010c AD000000 		.4byte	0xad
 982 0110 03       		.uleb128 0x3
 983 0111 FD040000 		.4byte	.LASF24
 984 0115 08       		.byte	0x8
 985 0116 3E       		.byte	0x3e
 986 0117 AD000000 		.4byte	0xad
 987 011b 03       		.uleb128 0x3
 988 011c 31050000 		.4byte	.LASF25
 989 0120 08       		.byte	0x8
 990 0121 40       		.byte	0x40
 991 0122 CE000000 		.4byte	0xce
 992 0126 03       		.uleb128 0x3
 993 0127 AA020000 		.4byte	.LASF26
 994 012b 08       		.byte	0x8
 995 012c 41       		.byte	0x41
 996 012d C3000000 		.4byte	0xc3
 997 0131 03       		.uleb128 0x3
 998 0132 D4030000 		.4byte	.LASF27
 999 0136 08       		.byte	0x8
 1000 0137 43       		.byte	0x43
 1001 0138 CE000000 		.4byte	0xce
 1002 013c 03       		.uleb128 0x3
 1003 013d 28020000 		.4byte	.LASF28
 1004 0141 08       		.byte	0x8
 1005 0142 45       		.byte	0x45
 1006 0143 C3000000 		.4byte	0xc3
 1007 0147 03       		.uleb128 0x3
 1008 0148 F9020000 		.4byte	.LASF29
 1009 014c 08       		.byte	0x8
 1010 014d 46       		.byte	0x46
 1011 014e CE000000 		.4byte	0xce
 1012 0152 03       		.uleb128 0x3
 1013 0153 8C060000 		.4byte	.LASF30
 1014 0157 09       		.byte	0x9
 1015 0158 33       		.byte	0x33
 1016 0159 CE000000 		.4byte	0xce
 1017 015d 03       		.uleb128 0x3
ARM GAS  /tmp/ccNiCCOZ.s 			page 51


 1018 015e 77060000 		.4byte	.LASF31
 1019 0162 09       		.byte	0x9
 1020 0163 3F       		.byte	0x3f
 1021 0164 68010000 		.4byte	0x168
 1022 0168 05       		.uleb128 0x5
 1023 0169 A0020000 		.4byte	.LASF53
 1024 016d 60       		.byte	0x60
 1025 016e 0A       		.byte	0xa
 1026 016f C2       		.byte	0xc2
 1027 0170 6E020000 		.4byte	0x26e
 1028 0174 06       		.uleb128 0x6
 1029 0175 82050000 		.4byte	.LASF32
 1030 0179 0A       		.byte	0xa
 1031 017a C3       		.byte	0xc3
 1032 017b 79020000 		.4byte	0x279
 1033 017f 00       		.byte	0
 1034 0180 06       		.uleb128 0x6
 1035 0181 2A050000 		.4byte	.LASF33
 1036 0185 0A       		.byte	0xa
 1037 0186 C5       		.byte	0xc5
 1038 0187 79020000 		.4byte	0x279
 1039 018b 04       		.byte	0x4
 1040 018c 06       		.uleb128 0x6
 1041 018d 16010000 		.4byte	.LASF34
 1042 0191 0A       		.byte	0xa
 1043 0192 C7       		.byte	0xc7
 1044 0193 1B010000 		.4byte	0x11b
 1045 0197 08       		.byte	0x8
 1046 0198 06       		.uleb128 0x6
 1047 0199 B0040000 		.4byte	.LASF35
 1048 019d 0A       		.byte	0xa
 1049 019e C8       		.byte	0xc8
 1050 019f E2040000 		.4byte	0x4e2
 1051 01a3 0C       		.byte	0xc
 1052 01a4 06       		.uleb128 0x6
 1053 01a5 C1010000 		.4byte	.LASF36
 1054 01a9 0A       		.byte	0xa
 1055 01aa CA       		.byte	0xca
 1056 01ab 79020000 		.4byte	0x279
 1057 01af 10       		.byte	0x10
 1058 01b0 06       		.uleb128 0x6
 1059 01b1 A2040000 		.4byte	.LASF37
 1060 01b5 0A       		.byte	0xa
 1061 01b6 CB       		.byte	0xcb
 1062 01b7 79020000 		.4byte	0x279
 1063 01bb 14       		.byte	0x14
 1064 01bc 06       		.uleb128 0x6
 1065 01bd 38070000 		.4byte	.LASF38
 1066 01c1 0A       		.byte	0xa
 1067 01c2 D2       		.byte	0xd2
 1068 01c3 86070000 		.4byte	0x786
 1069 01c7 18       		.byte	0x18
 1070 01c8 06       		.uleb128 0x6
 1071 01c9 2E020000 		.4byte	.LASF39
 1072 01cd 0A       		.byte	0xa
 1073 01ce D8       		.byte	0xd8
 1074 01cf 98070000 		.4byte	0x798
ARM GAS  /tmp/ccNiCCOZ.s 			page 52


 1075 01d3 1C       		.byte	0x1c
 1076 01d4 06       		.uleb128 0x6
 1077 01d5 6C050000 		.4byte	.LASF40
 1078 01d9 0A       		.byte	0xa
 1079 01da DD       		.byte	0xdd
 1080 01db 05010000 		.4byte	0x105
 1081 01df 20       		.byte	0x20
 1082 01e0 06       		.uleb128 0x6
 1083 01e1 A0050000 		.4byte	.LASF41
 1084 01e5 0A       		.byte	0xa
 1085 01e6 E1       		.byte	0xe1
 1086 01e7 FA000000 		.4byte	0xfa
 1087 01eb 21       		.byte	0x21
 1088 01ec 06       		.uleb128 0x6
 1089 01ed FF060000 		.4byte	.LASF42
 1090 01f1 0A       		.byte	0xa
 1091 01f2 E6       		.byte	0xe6
 1092 01f3 10010000 		.4byte	0x110
 1093 01f7 22       		.byte	0x22
 1094 01f8 07       		.uleb128 0x7
 1095 01f9 705F7500 		.ascii	"p_u\000"
 1096 01fd 0A       		.byte	0xa
 1097 01fe 3101     		.2byte	0x131
 1098 0200 C1060000 		.4byte	0x6c1
 1099 0204 24       		.byte	0x24
 1100 0205 08       		.uleb128 0x8
 1101 0206 2E040000 		.4byte	.LASF43
 1102 020a 0A       		.byte	0xa
 1103 020b 3601     		.2byte	0x136
 1104 020d 7F020000 		.4byte	0x27f
 1105 0211 28       		.byte	0x28
 1106 0212 08       		.uleb128 0x8
 1107 0213 5E020000 		.4byte	.LASF44
 1108 0217 0A       		.byte	0xa
 1109 0218 3C01     		.2byte	0x13c
 1110 021a A3020000 		.4byte	0x2a3
 1111 021e 2C       		.byte	0x2c
 1112 021f 08       		.uleb128 0x8
 1113 0220 7B070000 		.4byte	.LASF45
 1114 0224 0A       		.byte	0xa
 1115 0225 4001     		.2byte	0x140
 1116 0227 26010000 		.4byte	0x126
 1117 022b 34       		.byte	0x34
 1118 022c 08       		.uleb128 0x8
 1119 022d F5050000 		.4byte	.LASF46
 1120 0231 0A       		.byte	0xa
 1121 0232 4601     		.2byte	0x146
 1122 0234 31010000 		.4byte	0x131
 1123 0238 38       		.byte	0x38
 1124 0239 08       		.uleb128 0x8
 1125 023a 58050000 		.4byte	.LASF47
 1126 023e 0A       		.byte	0xa
 1127 023f 4D01     		.2byte	0x14d
 1128 0241 80070000 		.4byte	0x780
 1129 0245 3C       		.byte	0x3c
 1130 0246 08       		.uleb128 0x8
 1131 0247 96060000 		.4byte	.LASF48
ARM GAS  /tmp/ccNiCCOZ.s 			page 53


 1132 024b 0A       		.byte	0xa
 1133 024c 5101     		.2byte	0x151
 1134 024e 1B010000 		.4byte	0x11b
 1135 0252 40       		.byte	0x40
 1136 0253 08       		.uleb128 0x8
 1137 0254 61010000 		.4byte	.LASF49
 1138 0258 0A       		.byte	0xa
 1139 0259 5801     		.2byte	0x158
 1140 025b 56030000 		.4byte	0x356
 1141 025f 44       		.byte	0x44
 1142 0260 08       		.uleb128 0x8
 1143 0261 A8050000 		.4byte	.LASF50
 1144 0265 0A       		.byte	0xa
 1145 0266 5E01     		.2byte	0x15e
 1146 0268 72060000 		.4byte	0x672
 1147 026c 48       		.byte	0x48
 1148 026d 00       		.byte	0
 1149 026e 03       		.uleb128 0x3
 1150 026f 41040000 		.4byte	.LASF51
 1151 0273 09       		.byte	0x9
 1152 0274 44       		.byte	0x44
 1153 0275 79020000 		.4byte	0x279
 1154 0279 09       		.uleb128 0x9
 1155 027a 04       		.byte	0x4
 1156 027b 5D010000 		.4byte	0x15d
 1157 027f 03       		.uleb128 0x3
 1158 0280 0B040000 		.4byte	.LASF52
 1159 0284 09       		.byte	0x9
 1160 0285 49       		.byte	0x49
 1161 0286 8A020000 		.4byte	0x28a
 1162 028a 05       		.uleb128 0x5
 1163 028b 26060000 		.4byte	.LASF54
 1164 028f 04       		.byte	0x4
 1165 0290 0A       		.byte	0xa
 1166 0291 B0       		.byte	0xb0
 1167 0292 A3020000 		.4byte	0x2a3
 1168 0296 06       		.uleb128 0x6
 1169 0297 82050000 		.4byte	.LASF32
 1170 029b 0A       		.byte	0xa
 1171 029c B1       		.byte	0xb1
 1172 029d 79020000 		.4byte	0x279
 1173 02a1 00       		.byte	0
 1174 02a2 00       		.byte	0
 1175 02a3 03       		.uleb128 0x3
 1176 02a4 BA050000 		.4byte	.LASF55
 1177 02a8 09       		.byte	0x9
 1178 02a9 50       		.byte	0x50
 1179 02aa AE020000 		.4byte	0x2ae
 1180 02ae 05       		.uleb128 0x5
 1181 02af 61000000 		.4byte	.LASF56
 1182 02b3 08       		.byte	0x8
 1183 02b4 0A       		.byte	0xa
 1184 02b5 B7       		.byte	0xb7
 1185 02b6 D3020000 		.4byte	0x2d3
 1186 02ba 06       		.uleb128 0x6
 1187 02bb 82050000 		.4byte	.LASF32
 1188 02bf 0A       		.byte	0xa
ARM GAS  /tmp/ccNiCCOZ.s 			page 54


 1189 02c0 B8       		.byte	0xb8
 1190 02c1 79020000 		.4byte	0x279
 1191 02c5 00       		.byte	0
 1192 02c6 06       		.uleb128 0x6
 1193 02c7 2A050000 		.4byte	.LASF33
 1194 02cb 0A       		.byte	0xa
 1195 02cc B9       		.byte	0xb9
 1196 02cd 79020000 		.4byte	0x279
 1197 02d1 04       		.byte	0x4
 1198 02d2 00       		.byte	0
 1199 02d3 03       		.uleb128 0x3
 1200 02d4 0D000000 		.4byte	.LASF57
 1201 02d8 09       		.byte	0x9
 1202 02d9 57       		.byte	0x57
 1203 02da DE020000 		.4byte	0x2de
 1204 02de 0A       		.uleb128 0xa
 1205 02df C6030000 		.4byte	.LASF58
 1206 02e3 1C       		.byte	0x1c
 1207 02e4 0A       		.byte	0xa
 1208 02e5 9001     		.2byte	0x190
 1209 02e7 3A030000 		.4byte	0x33a
 1210 02eb 08       		.uleb128 0x8
 1211 02ec 15060000 		.4byte	.LASF59
 1212 02f0 0A       		.byte	0xa
 1213 02f1 9101     		.2byte	0x191
 1214 02f3 A3020000 		.4byte	0x2a3
 1215 02f7 00       		.byte	0
 1216 02f8 08       		.uleb128 0x8
 1217 02f9 74050000 		.4byte	.LASF60
 1218 02fd 0A       		.byte	0xa
 1219 02fe 9201     		.2byte	0x192
 1220 0300 1B010000 		.4byte	0x11b
 1221 0304 08       		.byte	0x8
 1222 0305 08       		.uleb128 0x8
 1223 0306 AA040000 		.4byte	.LASF61
 1224 030a 0A       		.byte	0xa
 1225 030b 9401     		.2byte	0x194
 1226 030d E2040000 		.4byte	0x4e2
 1227 0311 0C       		.byte	0xc
 1228 0312 08       		.uleb128 0x8
 1229 0313 D9010000 		.4byte	.LASF62
 1230 0317 0A       		.byte	0xa
 1231 0318 9701     		.2byte	0x197
 1232 031a 79020000 		.4byte	0x279
 1233 031e 10       		.byte	0x10
 1234 031f 08       		.uleb128 0x8
 1235 0320 D1040000 		.4byte	.LASF63
 1236 0324 0A       		.byte	0xa
 1237 0325 9801     		.2byte	0x198
 1238 0327 79020000 		.4byte	0x279
 1239 032b 14       		.byte	0x14
 1240 032c 08       		.uleb128 0x8
 1241 032d C7040000 		.4byte	.LASF64
 1242 0331 0A       		.byte	0xa
 1243 0332 9B01     		.2byte	0x19b
 1244 0334 79020000 		.4byte	0x279
 1245 0338 18       		.byte	0x18
ARM GAS  /tmp/ccNiCCOZ.s 			page 55


 1246 0339 00       		.byte	0
 1247 033a 03       		.uleb128 0x3
 1248 033b A1060000 		.4byte	.LASF65
 1249 033f 09       		.byte	0x9
 1250 0340 5C       		.byte	0x5c
 1251 0341 45030000 		.4byte	0x345
 1252 0345 09       		.uleb128 0x9
 1253 0346 04       		.byte	0x4
 1254 0347 4B030000 		.4byte	0x34b
 1255 034b 0B       		.uleb128 0xb
 1256 034c 56030000 		.4byte	0x356
 1257 0350 0C       		.uleb128 0xc
 1258 0351 56030000 		.4byte	0x356
 1259 0355 00       		.byte	0
 1260 0356 0D       		.uleb128 0xd
 1261 0357 04       		.byte	0x4
 1262 0358 03       		.uleb128 0x3
 1263 0359 1A050000 		.4byte	.LASF66
 1264 035d 09       		.byte	0x9
 1265 035e 61       		.byte	0x61
 1266 035f 63030000 		.4byte	0x363
 1267 0363 0A       		.uleb128 0xa
 1268 0364 CA050000 		.4byte	.LASF67
 1269 0368 14       		.byte	0x14
 1270 0369 0A       		.byte	0xa
 1271 036a 6B01     		.2byte	0x16b
 1272 036c B2030000 		.4byte	0x3b2
 1273 0370 08       		.uleb128 0x8
 1274 0371 46020000 		.4byte	.LASF68
 1275 0375 0A       		.byte	0xa
 1276 0376 6C01     		.2byte	0x16c
 1277 0378 9E070000 		.4byte	0x79e
 1278 037c 00       		.byte	0
 1279 037d 08       		.uleb128 0x8
 1280 037e EA010000 		.4byte	.LASF69
 1281 0382 0A       		.byte	0xa
 1282 0383 6D01     		.2byte	0x16d
 1283 0385 9E070000 		.4byte	0x79e
 1284 0389 04       		.byte	0x4
 1285 038a 08       		.uleb128 0x8
 1286 038b 1D060000 		.4byte	.LASF70
 1287 038f 0A       		.byte	0xa
 1288 0390 6E01     		.2byte	0x16e
 1289 0392 52010000 		.4byte	0x152
 1290 0396 08       		.byte	0x8
 1291 0397 08       		.uleb128 0x8
 1292 0398 AC070000 		.4byte	.LASF71
 1293 039c 0A       		.byte	0xa
 1294 039d 6F01     		.2byte	0x16f
 1295 039f 3A030000 		.4byte	0x33a
 1296 03a3 0C       		.byte	0xc
 1297 03a4 08       		.uleb128 0x8
 1298 03a5 E4060000 		.4byte	.LASF72
 1299 03a9 0A       		.byte	0xa
 1300 03aa 7101     		.2byte	0x171
 1301 03ac 56030000 		.4byte	0x356
 1302 03b0 10       		.byte	0x10
ARM GAS  /tmp/ccNiCCOZ.s 			page 56


 1303 03b1 00       		.byte	0
 1304 03b2 03       		.uleb128 0x3
 1305 03b3 EA030000 		.4byte	.LASF73
 1306 03b7 09       		.byte	0x9
 1307 03b8 66       		.byte	0x66
 1308 03b9 BD030000 		.4byte	0x3bd
 1309 03bd 0A       		.uleb128 0xa
 1310 03be 54040000 		.4byte	.LASF74
 1311 03c2 10       		.byte	0x10
 1312 03c3 0A       		.byte	0xa
 1313 03c4 7B01     		.2byte	0x17b
 1314 03c6 FF030000 		.4byte	0x3ff
 1315 03ca 08       		.uleb128 0x8
 1316 03cb 46020000 		.4byte	.LASF68
 1317 03cf 0A       		.byte	0xa
 1318 03d0 7C01     		.2byte	0x17c
 1319 03d2 9E070000 		.4byte	0x79e
 1320 03d6 00       		.byte	0
 1321 03d7 08       		.uleb128 0x8
 1322 03d8 EA010000 		.4byte	.LASF69
 1323 03dc 0A       		.byte	0xa
 1324 03dd 7E01     		.2byte	0x17e
 1325 03df 9E070000 		.4byte	0x79e
 1326 03e3 04       		.byte	0x4
 1327 03e4 08       		.uleb128 0x8
 1328 03e5 1D060000 		.4byte	.LASF70
 1329 03e9 0A       		.byte	0xa
 1330 03ea 8001     		.2byte	0x180
 1331 03ec 52010000 		.4byte	0x152
 1332 03f0 08       		.byte	0x8
 1333 03f1 08       		.uleb128 0x8
 1334 03f2 25070000 		.4byte	.LASF75
 1335 03f6 0A       		.byte	0xa
 1336 03f7 8801     		.2byte	0x188
 1337 03f9 52010000 		.4byte	0x152
 1338 03fd 0C       		.byte	0xc
 1339 03fe 00       		.byte	0
 1340 03ff 03       		.uleb128 0x3
 1341 0400 72000000 		.4byte	.LASF76
 1342 0404 09       		.byte	0x9
 1343 0405 6B       		.byte	0x6b
 1344 0406 0A040000 		.4byte	0x40a
 1345 040a 0E       		.uleb128 0xe
 1346 040b F2010000 		.4byte	.LASF77
 1347 040f 1404     		.2byte	0x414
 1348 0411 0A       		.byte	0xa
 1349 0412 A201     		.2byte	0x1a2
 1350 0414 4D040000 		.4byte	0x44d
 1351 0418 08       		.uleb128 0x8
 1352 0419 C3060000 		.4byte	.LASF78
 1353 041d 0A       		.byte	0xa
 1354 041e AA01     		.2byte	0x1aa
 1355 0420 A4070000 		.4byte	0x7a4
 1356 0424 00       		.byte	0
 1357 0425 08       		.uleb128 0x8
 1358 0426 06070000 		.4byte	.LASF79
 1359 042a 0A       		.byte	0xa
ARM GAS  /tmp/ccNiCCOZ.s 			page 57


 1360 042b AF01     		.2byte	0x1af
 1361 042d 3C010000 		.4byte	0x13c
 1362 0431 04       		.byte	0x4
 1363 0432 08       		.uleb128 0x8
 1364 0433 10020000 		.4byte	.LASF80
 1365 0437 0A       		.byte	0xa
 1366 0438 B301     		.2byte	0x1b3
 1367 043a 3C010000 		.4byte	0x13c
 1368 043e 08       		.byte	0x8
 1369 043f 08       		.uleb128 0x8
 1370 0440 62070000 		.4byte	.LASF81
 1371 0444 0A       		.byte	0xa
 1372 0445 B901     		.2byte	0x1b9
 1373 0447 04060000 		.4byte	0x604
 1374 044b 0C       		.byte	0xc
 1375 044c 00       		.byte	0
 1376 044d 03       		.uleb128 0x3
 1377 044e 00030000 		.4byte	.LASF82
 1378 0452 09       		.byte	0x9
 1379 0453 70       		.byte	0x70
 1380 0454 58040000 		.4byte	0x458
 1381 0458 0E       		.uleb128 0xe
 1382 0459 8A010000 		.4byte	.LASF83
 1383 045d D805     		.2byte	0x5d8
 1384 045f 0A       		.byte	0xa
 1385 0460 C201     		.2byte	0x1c2
 1386 0462 C5040000 		.4byte	0x4c5
 1387 0466 08       		.uleb128 0x8
 1388 0467 17070000 		.4byte	.LASF84
 1389 046b 0A       		.byte	0xa
 1390 046c C601     		.2byte	0x1c6
 1391 046e D3020000 		.4byte	0x2d3
 1392 0472 00       		.byte	0
 1393 0473 08       		.uleb128 0x8
 1394 0474 71010000 		.4byte	.LASF85
 1395 0478 0A       		.byte	0xa
 1396 0479 CA01     		.2byte	0x1ca
 1397 047b B2030000 		.4byte	0x3b2
 1398 047f 1C       		.byte	0x1c
 1399 0480 07       		.uleb128 0x7
 1400 0481 64626700 		.ascii	"dbg\000"
 1401 0485 0A       		.byte	0xa
 1402 0486 CE01     		.2byte	0x1ce
 1403 0488 FF030000 		.4byte	0x3ff
 1404 048c 2C       		.byte	0x2c
 1405 048d 0F       		.uleb128 0xf
 1406 048e E4000000 		.4byte	.LASF86
 1407 0492 0A       		.byte	0xa
 1408 0493 D201     		.2byte	0x1d2
 1409 0495 5D010000 		.4byte	0x15d
 1410 0499 4004     		.2byte	0x440
 1411 049b 10       		.uleb128 0x10
 1412 049c 746D00   		.ascii	"tm\000"
 1413 049f 0A       		.byte	0xa
 1414 04a0 D701     		.2byte	0x1d7
 1415 04a2 24060000 		.4byte	0x624
 1416 04a6 A004     		.2byte	0x4a0
ARM GAS  /tmp/ccNiCCOZ.s 			page 58


 1417 04a8 0F       		.uleb128 0xf
 1418 04a9 3E000000 		.4byte	.LASF87
 1419 04ad 0A       		.byte	0xa
 1420 04ae DD01     		.2byte	0x1dd
 1421 04b0 B6060000 		.4byte	0x6b6
 1422 04b4 A804     		.2byte	0x4a8
 1423 04b6 0F       		.uleb128 0xf
 1424 04b7 19020000 		.4byte	.LASF88
 1425 04bb 0A       		.byte	0xa
 1426 04bc E301     		.2byte	0x1e3
 1427 04be A9070000 		.4byte	0x7a9
 1428 04c2 E004     		.2byte	0x4e0
 1429 04c4 00       		.byte	0
 1430 04c5 04       		.uleb128 0x4
 1431 04c6 04       		.byte	0x4
 1432 04c7 07       		.byte	0x7
 1433 04c8 38040000 		.4byte	.LASF89
 1434 04cc 03       		.uleb128 0x3
 1435 04cd E1010000 		.4byte	.LASF90
 1436 04d1 0B       		.byte	0xb
 1437 04d2 65       		.byte	0x65
 1438 04d3 56030000 		.4byte	0x356
 1439 04d7 03       		.uleb128 0x3
 1440 04d8 00040000 		.4byte	.LASF91
 1441 04dc 0B       		.byte	0xb
 1442 04dd 6D       		.byte	0x6d
 1443 04de D9000000 		.4byte	0xd9
 1444 04e2 05       		.uleb128 0x5
 1445 04e3 D4060000 		.4byte	.LASF92
 1446 04e7 04       		.byte	0x4
 1447 04e8 0B       		.byte	0xb
 1448 04e9 89       		.byte	0x89
 1449 04ea FB040000 		.4byte	0x4fb
 1450 04ee 11       		.uleb128 0x11
 1451 04ef 72313300 		.ascii	"r13\000"
 1452 04f3 0B       		.byte	0xb
 1453 04f4 8A       		.byte	0x8a
 1454 04f5 76050000 		.4byte	0x576
 1455 04f9 00       		.byte	0
 1456 04fa 00       		.byte	0
 1457 04fb 05       		.uleb128 0x5
 1458 04fc 55000000 		.4byte	.LASF93
 1459 0500 24       		.byte	0x24
 1460 0501 01       		.byte	0x1
 1461 0502 FD       		.byte	0xfd
 1462 0503 76050000 		.4byte	0x576
 1463 0507 07       		.uleb128 0x7
 1464 0508 723400   		.ascii	"r4\000"
 1465 050b 01       		.byte	0x1
 1466 050c 1001     		.2byte	0x110
 1467 050e CC040000 		.4byte	0x4cc
 1468 0512 00       		.byte	0
 1469 0513 07       		.uleb128 0x7
 1470 0514 723500   		.ascii	"r5\000"
 1471 0517 01       		.byte	0x1
 1472 0518 1101     		.2byte	0x111
 1473 051a CC040000 		.4byte	0x4cc
ARM GAS  /tmp/ccNiCCOZ.s 			page 59


 1474 051e 04       		.byte	0x4
 1475 051f 07       		.uleb128 0x7
 1476 0520 723600   		.ascii	"r6\000"
 1477 0523 01       		.byte	0x1
 1478 0524 1201     		.2byte	0x112
 1479 0526 CC040000 		.4byte	0x4cc
 1480 052a 08       		.byte	0x8
 1481 052b 07       		.uleb128 0x7
 1482 052c 723700   		.ascii	"r7\000"
 1483 052f 01       		.byte	0x1
 1484 0530 1301     		.2byte	0x113
 1485 0532 CC040000 		.4byte	0x4cc
 1486 0536 0C       		.byte	0xc
 1487 0537 07       		.uleb128 0x7
 1488 0538 723800   		.ascii	"r8\000"
 1489 053b 01       		.byte	0x1
 1490 053c 1401     		.2byte	0x114
 1491 053e CC040000 		.4byte	0x4cc
 1492 0542 10       		.byte	0x10
 1493 0543 07       		.uleb128 0x7
 1494 0544 723900   		.ascii	"r9\000"
 1495 0547 01       		.byte	0x1
 1496 0548 1501     		.2byte	0x115
 1497 054a CC040000 		.4byte	0x4cc
 1498 054e 14       		.byte	0x14
 1499 054f 07       		.uleb128 0x7
 1500 0550 72313000 		.ascii	"r10\000"
 1501 0554 01       		.byte	0x1
 1502 0555 1601     		.2byte	0x116
 1503 0557 CC040000 		.4byte	0x4cc
 1504 055b 18       		.byte	0x18
 1505 055c 07       		.uleb128 0x7
 1506 055d 72313100 		.ascii	"r11\000"
 1507 0561 01       		.byte	0x1
 1508 0562 1701     		.2byte	0x117
 1509 0564 CC040000 		.4byte	0x4cc
 1510 0568 1C       		.byte	0x1c
 1511 0569 07       		.uleb128 0x7
 1512 056a 6C7200   		.ascii	"lr\000"
 1513 056d 01       		.byte	0x1
 1514 056e 1801     		.2byte	0x118
 1515 0570 CC040000 		.4byte	0x4cc
 1516 0574 20       		.byte	0x20
 1517 0575 00       		.byte	0
 1518 0576 09       		.uleb128 0x9
 1519 0577 04       		.byte	0x4
 1520 0578 FB040000 		.4byte	0x4fb
 1521 057c 12       		.uleb128 0x12
 1522 057d 10       		.byte	0x10
 1523 057e 0C       		.byte	0xc
 1524 057f 51       		.byte	0x51
 1525 0580 B5050000 		.4byte	0x5b5
 1526 0584 06       		.uleb128 0x6
 1527 0585 1A000000 		.4byte	.LASF94
 1528 0589 0C       		.byte	0xc
 1529 058a 55       		.byte	0x55
 1530 058b 52010000 		.4byte	0x152
ARM GAS  /tmp/ccNiCCOZ.s 			page 60


 1531 058f 00       		.byte	0
 1532 0590 06       		.uleb128 0x6
 1533 0591 A6010000 		.4byte	.LASF95
 1534 0595 0C       		.byte	0xc
 1535 0596 59       		.byte	0x59
 1536 0597 79020000 		.4byte	0x279
 1537 059b 04       		.byte	0x4
 1538 059c 06       		.uleb128 0x6
 1539 059d 94070000 		.4byte	.LASF96
 1540 05a1 0C       		.byte	0xc
 1541 05a2 5D       		.byte	0x5d
 1542 05a3 56030000 		.4byte	0x356
 1543 05a7 08       		.byte	0x8
 1544 05a8 06       		.uleb128 0x6
 1545 05a9 0E070000 		.4byte	.LASF97
 1546 05ad 0C       		.byte	0xc
 1547 05ae 61       		.byte	0x61
 1548 05af AD000000 		.4byte	0xad
 1549 05b3 0C       		.byte	0xc
 1550 05b4 00       		.byte	0
 1551 05b5 03       		.uleb128 0x3
 1552 05b6 7E040000 		.4byte	.LASF98
 1553 05ba 0C       		.byte	0xc
 1554 05bb 62       		.byte	0x62
 1555 05bc 7C050000 		.4byte	0x57c
 1556 05c0 13       		.uleb128 0x13
 1557 05c1 0804     		.2byte	0x408
 1558 05c3 0C       		.byte	0xc
 1559 05c4 67       		.byte	0x67
 1560 05c5 EE050000 		.4byte	0x5ee
 1561 05c9 06       		.uleb128 0x6
 1562 05ca D1010000 		.4byte	.LASF99
 1563 05ce 0C       		.byte	0xc
 1564 05cf 6B       		.byte	0x6b
 1565 05d0 37000000 		.4byte	0x37
 1566 05d4 00       		.byte	0
 1567 05d5 06       		.uleb128 0x6
 1568 05d6 77040000 		.4byte	.LASF100
 1569 05da 0C       		.byte	0xc
 1570 05db 6F       		.byte	0x6f
 1571 05dc EE050000 		.4byte	0x5ee
 1572 05e0 04       		.byte	0x4
 1573 05e1 06       		.uleb128 0x6
 1574 05e2 05050000 		.4byte	.LASF101
 1575 05e6 0C       		.byte	0xc
 1576 05e7 73       		.byte	0x73
 1577 05e8 F4050000 		.4byte	0x5f4
 1578 05ec 08       		.byte	0x8
 1579 05ed 00       		.byte	0
 1580 05ee 09       		.uleb128 0x9
 1581 05ef 04       		.byte	0x4
 1582 05f0 B5050000 		.4byte	0x5b5
 1583 05f4 14       		.uleb128 0x14
 1584 05f5 B5050000 		.4byte	0x5b5
 1585 05f9 04060000 		.4byte	0x604
 1586 05fd 15       		.uleb128 0x15
 1587 05fe C5040000 		.4byte	0x4c5
ARM GAS  /tmp/ccNiCCOZ.s 			page 61


 1588 0602 3F       		.byte	0x3f
 1589 0603 00       		.byte	0
 1590 0604 03       		.uleb128 0x3
 1591 0605 BB000000 		.4byte	.LASF102
 1592 0609 0C       		.byte	0xc
 1593 060a 74       		.byte	0x74
 1594 060b C0050000 		.4byte	0x5c0
 1595 060f 12       		.uleb128 0x12
 1596 0610 04       		.byte	0x4
 1597 0611 0D       		.byte	0xd
 1598 0612 38       		.byte	0x38
 1599 0613 24060000 		.4byte	0x624
 1600 0617 06       		.uleb128 0x6
 1601 0618 CD060000 		.4byte	.LASF103
 1602 061c 0D       		.byte	0xd
 1603 061d 3C       		.byte	0x3c
 1604 061e E4000000 		.4byte	0xe4
 1605 0622 00       		.byte	0
 1606 0623 00       		.byte	0
 1607 0624 03       		.uleb128 0x3
 1608 0625 B6040000 		.4byte	.LASF104
 1609 0629 0D       		.byte	0xd
 1610 062a 3D       		.byte	0x3d
 1611 062b 0F060000 		.4byte	0x60f
 1612 062f 12       		.uleb128 0x12
 1613 0630 18       		.byte	0x18
 1614 0631 0D       		.byte	0xd
 1615 0632 48       		.byte	0x48
 1616 0633 72060000 		.4byte	0x672
 1617 0637 06       		.uleb128 0x6
 1618 0638 80060000 		.4byte	.LASF105
 1619 063c 0D       		.byte	0xd
 1620 063d 49       		.byte	0x49
 1621 063e E4000000 		.4byte	0xe4
 1622 0642 00       		.byte	0
 1623 0643 06       		.uleb128 0x6
 1624 0644 8B000000 		.4byte	.LASF106
 1625 0648 0D       		.byte	0xd
 1626 0649 4A       		.byte	0x4a
 1627 064a E4000000 		.4byte	0xe4
 1628 064e 04       		.byte	0x4
 1629 064f 06       		.uleb128 0x6
 1630 0650 B0020000 		.4byte	.LASF107
 1631 0654 0D       		.byte	0xd
 1632 0655 4B       		.byte	0x4b
 1633 0656 E4000000 		.4byte	0xe4
 1634 065a 08       		.byte	0x8
 1635 065b 11       		.uleb128 0x11
 1636 065c 6E00     		.ascii	"n\000"
 1637 065e 0D       		.byte	0xd
 1638 065f 4C       		.byte	0x4c
 1639 0660 47010000 		.4byte	0x147
 1640 0664 0C       		.byte	0xc
 1641 0665 06       		.uleb128 0x6
 1642 0666 E4040000 		.4byte	.LASF108
 1643 066a 0D       		.byte	0xd
 1644 066b 4D       		.byte	0x4d
ARM GAS  /tmp/ccNiCCOZ.s 			page 62


 1645 066c EF000000 		.4byte	0xef
 1646 0670 10       		.byte	0x10
 1647 0671 00       		.byte	0
 1648 0672 03       		.uleb128 0x3
 1649 0673 91000000 		.4byte	.LASF109
 1650 0677 0D       		.byte	0xd
 1651 0678 4E       		.byte	0x4e
 1652 0679 2F060000 		.4byte	0x62f
 1653 067d 12       		.uleb128 0x12
 1654 067e 38       		.byte	0x38
 1655 067f 0E       		.byte	0xe
 1656 0680 38       		.byte	0x38
 1657 0681 B6060000 		.4byte	0x6b6
 1658 0685 06       		.uleb128 0x6
 1659 0686 72020000 		.4byte	.LASF110
 1660 068a 0E       		.byte	0xe
 1661 068b 39       		.byte	0x39
 1662 068c 47010000 		.4byte	0x147
 1663 0690 00       		.byte	0
 1664 0691 06       		.uleb128 0x6
 1665 0692 39050000 		.4byte	.LASF111
 1666 0696 0E       		.byte	0xe
 1667 0697 3A       		.byte	0x3a
 1668 0698 47010000 		.4byte	0x147
 1669 069c 04       		.byte	0x4
 1670 069d 06       		.uleb128 0x6
 1671 069e 81070000 		.4byte	.LASF112
 1672 06a2 0E       		.byte	0xe
 1673 06a3 3B       		.byte	0x3b
 1674 06a4 72060000 		.4byte	0x672
 1675 06a8 08       		.byte	0x8
 1676 06a9 06       		.uleb128 0x6
 1677 06aa BB030000 		.4byte	.LASF113
 1678 06ae 0E       		.byte	0xe
 1679 06af 3D       		.byte	0x3d
 1680 06b0 72060000 		.4byte	0x672
 1681 06b4 20       		.byte	0x20
 1682 06b5 00       		.byte	0
 1683 06b6 03       		.uleb128 0x3
 1684 06b7 91020000 		.4byte	.LASF114
 1685 06bb 0E       		.byte	0xe
 1686 06bc 3F       		.byte	0x3f
 1687 06bd 7D060000 		.4byte	0x67d
 1688 06c1 16       		.uleb128 0x16
 1689 06c2 04       		.byte	0x4
 1690 06c3 0A       		.byte	0xa
 1691 06c4 FA       		.byte	0xfa
 1692 06c5 1E070000 		.4byte	0x71e
 1693 06c9 17       		.uleb128 0x17
 1694 06ca 29000000 		.4byte	.LASF115
 1695 06ce 0A       		.byte	0xa
 1696 06cf 0101     		.2byte	0x101
 1697 06d1 26010000 		.4byte	0x126
 1698 06d5 17       		.uleb128 0x17
 1699 06d6 DB000000 		.4byte	.LASF116
 1700 06da 0A       		.byte	0xa
 1701 06db 0801     		.2byte	0x108
ARM GAS  /tmp/ccNiCCOZ.s 			page 63


 1702 06dd 26010000 		.4byte	0x126
 1703 06e1 17       		.uleb128 0x17
 1704 06e2 31070000 		.4byte	.LASF117
 1705 06e6 0A       		.byte	0xa
 1706 06e7 0F01     		.2byte	0x10f
 1707 06e9 56030000 		.4byte	0x356
 1708 06ed 17       		.uleb128 0x17
 1709 06ee 84010000 		.4byte	.LASF118
 1710 06f2 0A       		.byte	0xa
 1711 06f3 1601     		.2byte	0x116
 1712 06f5 1E070000 		.4byte	0x71e
 1713 06f9 17       		.uleb128 0x17
 1714 06fa 57020000 		.4byte	.LASF119
 1715 06fe 0A       		.byte	0xa
 1716 06ff 1E01     		.2byte	0x11e
 1717 0701 49070000 		.4byte	0x749
 1718 0705 17       		.uleb128 0x17
 1719 0706 65060000 		.4byte	.LASF120
 1720 070a 0A       		.byte	0xa
 1721 070b 2701     		.2byte	0x127
 1722 070d 80070000 		.4byte	0x780
 1723 0711 17       		.uleb128 0x17
 1724 0712 7B050000 		.4byte	.LASF121
 1725 0716 0A       		.byte	0xa
 1726 0717 2F01     		.2byte	0x12f
 1727 0719 31010000 		.4byte	0x131
 1728 071d 00       		.byte	0
 1729 071e 09       		.uleb128 0x9
 1730 071f 04       		.byte	0x4
 1731 0720 6E020000 		.4byte	0x26e
 1732 0724 05       		.uleb128 0x5
 1733 0725 E8050000 		.4byte	.LASF122
 1734 0729 0C       		.byte	0xc
 1735 072a 0F       		.byte	0xf
 1736 072b 34       		.byte	0x34
 1737 072c 49070000 		.4byte	0x749
 1738 0730 06       		.uleb128 0x6
 1739 0731 C9010000 		.4byte	.LASF123
 1740 0735 0F       		.byte	0xf
 1741 0736 35       		.byte	0x35
 1742 0737 A3020000 		.4byte	0x2a3
 1743 073b 00       		.byte	0
 1744 073c 06       		.uleb128 0x6
 1745 073d 78020000 		.4byte	.LASF124
 1746 0741 0F       		.byte	0xf
 1747 0742 37       		.byte	0x37
 1748 0743 3C010000 		.4byte	0x13c
 1749 0747 08       		.byte	0x8
 1750 0748 00       		.byte	0
 1751 0749 09       		.uleb128 0x9
 1752 074a 04       		.byte	0x4
 1753 074b 24070000 		.4byte	0x724
 1754 074f 05       		.uleb128 0x5
 1755 0750 F6060000 		.4byte	.LASF125
 1756 0754 10       		.byte	0x10
 1757 0755 10       		.byte	0x10
 1758 0756 39       		.byte	0x39
ARM GAS  /tmp/ccNiCCOZ.s 			page 64


 1759 0757 80070000 		.4byte	0x780
 1760 075b 06       		.uleb128 0x6
 1761 075c 69010000 		.4byte	.LASF126
 1762 0760 10       		.byte	0x10
 1763 0761 3A       		.byte	0x3a
 1764 0762 A3020000 		.4byte	0x2a3
 1765 0766 00       		.byte	0
 1766 0767 06       		.uleb128 0x6
 1767 0768 8C070000 		.4byte	.LASF127
 1768 076c 10       		.byte	0x10
 1769 076d 3C       		.byte	0x3c
 1770 076e 79020000 		.4byte	0x279
 1771 0772 08       		.byte	0x8
 1772 0773 06       		.uleb128 0x6
 1773 0774 85060000 		.4byte	.LASF128
 1774 0778 10       		.byte	0x10
 1775 0779 3E       		.byte	0x3e
 1776 077a C0080000 		.4byte	0x8c0
 1777 077e 0C       		.byte	0xc
 1778 077f 00       		.byte	0
 1779 0780 09       		.uleb128 0x9
 1780 0781 04       		.byte	0x4
 1781 0782 4F070000 		.4byte	0x74f
 1782 0786 09       		.uleb128 0x9
 1783 0787 04       		.byte	0x4
 1784 0788 8C070000 		.4byte	0x78c
 1785 078c 18       		.uleb128 0x18
 1786 078d 91070000 		.4byte	0x791
 1787 0791 04       		.uleb128 0x4
 1788 0792 01       		.byte	0x1
 1789 0793 08       		.byte	0x8
 1790 0794 50060000 		.4byte	.LASF129
 1791 0798 09       		.uleb128 0x9
 1792 0799 04       		.byte	0x4
 1793 079a D7040000 		.4byte	0x4d7
 1794 079e 09       		.uleb128 0x9
 1795 079f 04       		.byte	0x4
 1796 07a0 58030000 		.4byte	0x358
 1797 07a4 19       		.uleb128 0x19
 1798 07a5 86070000 		.4byte	0x786
 1799 07a9 14       		.uleb128 0x14
 1800 07aa D7040000 		.4byte	0x4d7
 1801 07ae B9070000 		.4byte	0x7b9
 1802 07b2 15       		.uleb128 0x15
 1803 07b3 C5040000 		.4byte	0x4c5
 1804 07b7 1E       		.byte	0x1e
 1805 07b8 00       		.byte	0
 1806 07b9 12       		.uleb128 0x12
 1807 07ba 16       		.byte	0x16
 1808 07bb 11       		.byte	0x11
 1809 07bc 34       		.byte	0x34
 1810 07bd 9A080000 		.4byte	0x89a
 1811 07c1 06       		.uleb128 0x6
 1812 07c2 9E070000 		.4byte	.LASF130
 1813 07c6 11       		.byte	0x11
 1814 07c7 35       		.byte	0x35
 1815 07c8 9A080000 		.4byte	0x89a
ARM GAS  /tmp/ccNiCCOZ.s 			page 65


 1816 07cc 00       		.byte	0
 1817 07cd 06       		.uleb128 0x6
 1818 07ce 1A040000 		.4byte	.LASF131
 1819 07d2 11       		.byte	0x11
 1820 07d3 36       		.byte	0x36
 1821 07d4 AD000000 		.4byte	0xad
 1822 07d8 04       		.byte	0x4
 1823 07d9 06       		.uleb128 0x6
 1824 07da 36060000 		.4byte	.LASF132
 1825 07de 11       		.byte	0x11
 1826 07df 37       		.byte	0x37
 1827 07e0 AD000000 		.4byte	0xad
 1828 07e4 05       		.byte	0x5
 1829 07e5 06       		.uleb128 0x6
 1830 07e6 AC010000 		.4byte	.LASF133
 1831 07ea 11       		.byte	0x11
 1832 07eb 38       		.byte	0x38
 1833 07ec B8000000 		.4byte	0xb8
 1834 07f0 06       		.byte	0x6
 1835 07f1 06       		.uleb128 0x6
 1836 07f2 0F050000 		.4byte	.LASF134
 1837 07f6 11       		.byte	0x11
 1838 07f7 39       		.byte	0x39
 1839 07f8 AD000000 		.4byte	0xad
 1840 07fc 08       		.byte	0x8
 1841 07fd 06       		.uleb128 0x6
 1842 07fe 6B040000 		.4byte	.LASF135
 1843 0802 11       		.byte	0x11
 1844 0803 3A       		.byte	0x3a
 1845 0804 AD000000 		.4byte	0xad
 1846 0808 09       		.byte	0x9
 1847 0809 06       		.uleb128 0x6
 1848 080a CD000000 		.4byte	.LASF136
 1849 080e 11       		.byte	0x11
 1850 080f 3B       		.byte	0x3b
 1851 0810 AD000000 		.4byte	0xad
 1852 0814 0A       		.byte	0xa
 1853 0815 06       		.uleb128 0x6
 1854 0816 09060000 		.4byte	.LASF137
 1855 081a 11       		.byte	0x11
 1856 081b 3C       		.byte	0x3c
 1857 081c AD000000 		.4byte	0xad
 1858 0820 0B       		.byte	0xb
 1859 0821 06       		.uleb128 0x6
 1860 0822 EB060000 		.4byte	.LASF138
 1861 0826 11       		.byte	0x11
 1862 0827 3D       		.byte	0x3d
 1863 0828 AD000000 		.4byte	0xad
 1864 082c 0C       		.byte	0xc
 1865 082d 06       		.uleb128 0x6
 1866 082e DB050000 		.4byte	.LASF139
 1867 0832 11       		.byte	0x11
 1868 0833 3E       		.byte	0x3e
 1869 0834 AD000000 		.4byte	0xad
 1870 0838 0D       		.byte	0xd
 1871 0839 06       		.uleb128 0x6
 1872 083a 00000000 		.4byte	.LASF140
ARM GAS  /tmp/ccNiCCOZ.s 			page 66


 1873 083e 11       		.byte	0x11
 1874 083f 3F       		.byte	0x3f
 1875 0840 AD000000 		.4byte	0xad
 1876 0844 0E       		.byte	0xe
 1877 0845 06       		.uleb128 0x6
 1878 0846 8D040000 		.4byte	.LASF141
 1879 084a 11       		.byte	0x11
 1880 084b 40       		.byte	0x40
 1881 084c AD000000 		.4byte	0xad
 1882 0850 0F       		.byte	0xf
 1883 0851 06       		.uleb128 0x6
 1884 0852 44010000 		.4byte	.LASF142
 1885 0856 11       		.byte	0x11
 1886 0857 41       		.byte	0x41
 1887 0858 AD000000 		.4byte	0xad
 1888 085c 10       		.byte	0x10
 1889 085d 06       		.uleb128 0x6
 1890 085e 1D010000 		.4byte	.LASF143
 1891 0862 11       		.byte	0x11
 1892 0863 43       		.byte	0x43
 1893 0864 AD000000 		.4byte	0xad
 1894 0868 11       		.byte	0x11
 1895 0869 06       		.uleb128 0x6
 1896 086a 54010000 		.4byte	.LASF144
 1897 086e 11       		.byte	0x11
 1898 086f 44       		.byte	0x44
 1899 0870 AD000000 		.4byte	0xad
 1900 0874 12       		.byte	0x12
 1901 0875 06       		.uleb128 0x6
 1902 0876 22040000 		.4byte	.LASF145
 1903 087a 11       		.byte	0x11
 1904 087b 45       		.byte	0x45
 1905 087c AD000000 		.4byte	0xad
 1906 0880 13       		.byte	0x13
 1907 0881 06       		.uleb128 0x6
 1908 0882 91050000 		.4byte	.LASF146
 1909 0886 11       		.byte	0x11
 1910 0887 46       		.byte	0x46
 1911 0888 AD000000 		.4byte	0xad
 1912 088c 14       		.byte	0x14
 1913 088d 06       		.uleb128 0x6
 1914 088e AF030000 		.4byte	.LASF147
 1915 0892 11       		.byte	0x11
 1916 0893 48       		.byte	0x48
 1917 0894 AD000000 		.4byte	0xad
 1918 0898 15       		.byte	0x15
 1919 0899 00       		.byte	0
 1920 089a 14       		.uleb128 0x14
 1921 089b 91070000 		.4byte	0x791
 1922 089f AA080000 		.4byte	0x8aa
 1923 08a3 15       		.uleb128 0x15
 1924 08a4 C5040000 		.4byte	0x4c5
 1925 08a8 03       		.byte	0x3
 1926 08a9 00       		.byte	0
 1927 08aa 03       		.uleb128 0x3
 1928 08ab B7010000 		.4byte	.LASF148
 1929 08af 11       		.byte	0x11
ARM GAS  /tmp/ccNiCCOZ.s 			page 67


 1930 08b0 49       		.byte	0x49
 1931 08b1 B9070000 		.4byte	0x7b9
 1932 08b5 03       		.uleb128 0x3
 1933 08b6 02020000 		.4byte	.LASF149
 1934 08ba 10       		.byte	0x10
 1935 08bb 34       		.byte	0x34
 1936 08bc 4F070000 		.4byte	0x74f
 1937 08c0 09       		.uleb128 0x9
 1938 08c1 04       		.byte	0x4
 1939 08c2 B5080000 		.4byte	0x8b5
 1940 08c6 1A       		.uleb128 0x1a
 1941 08c7 B5060000 		.4byte	.LASF162
 1942 08cb 02       		.byte	0x2
 1943 08cc 2202     		.2byte	0x222
 1944 08ce 03       		.byte	0x3
 1945 08cf E0080000 		.4byte	0x8e0
 1946 08d3 1B       		.uleb128 0x1b
 1947 08d4 0A020000 		.4byte	.LASF163
 1948 08d8 02       		.byte	0x2
 1949 08d9 2202     		.2byte	0x222
 1950 08db CE000000 		.4byte	0xce
 1951 08df 00       		.byte	0
 1952 08e0 1C       		.uleb128 0x1c
 1953 08e1 81000000 		.4byte	.LASF150
 1954 08e5 01       		.byte	0x1
 1955 08e6 C801     		.2byte	0x1c8
 1956 08e8 00000000 		.4byte	.LFB127
 1957 08ec 10000000 		.4byte	.LFE127-.LFB127
 1958 08f0 01       		.uleb128 0x1
 1959 08f1 9C       		.byte	0x9c
 1960 08f2 10090000 		.4byte	0x910
 1961 08f6 1D       		.uleb128 0x1d
 1962 08f7 C6080000 		.4byte	0x8c6
 1963 08fb 06000000 		.4byte	.LBB6
 1964 08ff 06000000 		.4byte	.LBE6-.LBB6
 1965 0903 01       		.byte	0x1
 1966 0904 D001     		.2byte	0x1d0
 1967 0906 1E       		.uleb128 0x1e
 1968 0907 D3080000 		.4byte	0x8d3
 1969 090b 02       		.uleb128 0x2
 1970 090c 91       		.byte	0x91
 1971 090d 7C       		.sleb128 -4
 1972 090e 00       		.byte	0
 1973 090f 00       		.byte	0
 1974 0910 1C       		.uleb128 0x1c
 1975 0911 78010000 		.4byte	.LASF151
 1976 0915 01       		.byte	0x1
 1977 0916 E001     		.2byte	0x1e0
 1978 0918 00000000 		.4byte	.LFB128
 1979 091c 10000000 		.4byte	.LFE128-.LFB128
 1980 0920 01       		.uleb128 0x1
 1981 0921 9C       		.byte	0x9c
 1982 0922 40090000 		.4byte	0x940
 1983 0926 1D       		.uleb128 0x1d
 1984 0927 C6080000 		.4byte	0x8c6
 1985 092b 06000000 		.4byte	.LBB8
 1986 092f 06000000 		.4byte	.LBE8-.LBB8
ARM GAS  /tmp/ccNiCCOZ.s 			page 68


 1987 0933 01       		.byte	0x1
 1988 0934 E301     		.2byte	0x1e3
 1989 0936 1E       		.uleb128 0x1e
 1990 0937 D3080000 		.4byte	0x8d3
 1991 093b 02       		.uleb128 0x2
 1992 093c 91       		.byte	0x91
 1993 093d 7C       		.sleb128 -4
 1994 093e 00       		.byte	0
 1995 093f 00       		.byte	0
 1996 0940 1F       		.uleb128 0x1f
 1997 0941 B0050000 		.4byte	.LASF164
 1998 0945 03       		.byte	0x3
 1999 0946 5A01     		.2byte	0x15a
 2000 0948 00000000 		.4byte	.LFB167
 2001 094c 10000000 		.4byte	.LFE167-.LFB167
 2002 0950 01       		.uleb128 0x1
 2003 0951 9C       		.byte	0x9c
 2004 0952 20       		.uleb128 0x20
 2005 0953 6F070000 		.4byte	.LASF152
 2006 0957 03       		.byte	0x3
 2007 0958 6601     		.2byte	0x166
 2008 095a 00000000 		.4byte	.LFB168
 2009 095e 4E000000 		.4byte	.LFE168-.LFB168
 2010 0962 01       		.uleb128 0x1
 2011 0963 9C       		.byte	0x9c
 2012 0964 78090000 		.4byte	0x978
 2013 0968 21       		.uleb128 0x21
 2014 0969 EF040000 		.4byte	.LASF155
 2015 096d 88090000 		.4byte	0x988
 2016 0971 05       		.uleb128 0x5
 2017 0972 03       		.byte	0x3
 2018 0973 00000000 		.4byte	__func__.5915
 2019 0977 00       		.byte	0
 2020 0978 14       		.uleb128 0x14
 2021 0979 91070000 		.4byte	0x791
 2022 097d 88090000 		.4byte	0x988
 2023 0981 15       		.uleb128 0x15
 2024 0982 C5040000 		.4byte	0x4c5
 2025 0986 0B       		.byte	0xb
 2026 0987 00       		.byte	0
 2027 0988 18       		.uleb128 0x18
 2028 0989 78090000 		.4byte	0x978
 2029 098d 22       		.uleb128 0x22
 2030 098e EF000000 		.4byte	.LASF153
 2031 0992 04       		.byte	0x4
 2032 0993 83       		.byte	0x83
 2033 0994 79020000 		.4byte	0x279
 2034 0998 00000000 		.4byte	.LFB241
 2035 099c 32000000 		.4byte	.LFE241-.LFB241
 2036 09a0 01       		.uleb128 0x1
 2037 09a1 9C       		.byte	0x9c
 2038 09a2 B4090000 		.4byte	0x9b4
 2039 09a6 23       		.uleb128 0x23
 2040 09a7 747000   		.ascii	"tp\000"
 2041 09aa 04       		.byte	0x4
 2042 09ab 84       		.byte	0x84
 2043 09ac 79020000 		.4byte	0x279
ARM GAS  /tmp/ccNiCCOZ.s 			page 69


 2044 09b0 02       		.uleb128 0x2
 2045 09b1 91       		.byte	0x91
 2046 09b2 74       		.sleb128 -12
 2047 09b3 00       		.byte	0
 2048 09b4 22       		.uleb128 0x22
 2049 09b5 55060000 		.4byte	.LASF154
 2050 09b9 04       		.byte	0x4
 2051 09ba 9B       		.byte	0x9b
 2052 09bb 79020000 		.4byte	0x279
 2053 09bf 00000000 		.4byte	.LFB242
 2054 09c3 5E000000 		.4byte	.LFE242-.LFB242
 2055 09c7 01       		.uleb128 0x1
 2056 09c8 9C       		.byte	0x9c
 2057 09c9 F8090000 		.4byte	0x9f8
 2058 09cd 24       		.uleb128 0x24
 2059 09ce 747000   		.ascii	"tp\000"
 2060 09d1 04       		.byte	0x4
 2061 09d2 9B       		.byte	0x9b
 2062 09d3 79020000 		.4byte	0x279
 2063 09d7 02       		.uleb128 0x2
 2064 09d8 91       		.byte	0x91
 2065 09d9 6C       		.sleb128 -20
 2066 09da 23       		.uleb128 0x23
 2067 09db 6E747000 		.ascii	"ntp\000"
 2068 09df 04       		.byte	0x4
 2069 09e0 9C       		.byte	0x9c
 2070 09e1 79020000 		.4byte	0x279
 2071 09e5 02       		.uleb128 0x2
 2072 09e6 91       		.byte	0x91
 2073 09e7 74       		.sleb128 -12
 2074 09e8 21       		.uleb128 0x21
 2075 09e9 30000000 		.4byte	.LASF156
 2076 09ed 080A0000 		.4byte	0xa08
 2077 09f1 05       		.uleb128 0x5
 2078 09f2 03       		.byte	0x3
 2079 09f3 00000000 		.4byte	__func__.6619
 2080 09f7 00       		.byte	0
 2081 09f8 14       		.uleb128 0x14
 2082 09f9 91070000 		.4byte	0x791
 2083 09fd 080A0000 		.4byte	0xa08
 2084 0a01 15       		.uleb128 0x15
 2085 0a02 C5040000 		.4byte	0x4c5
 2086 0a06 0F       		.byte	0xf
 2087 0a07 00       		.byte	0
 2088 0a08 18       		.uleb128 0x18
 2089 0a09 F8090000 		.4byte	0x9f8
 2090 0a0d 25       		.uleb128 0x25
 2091 0a0e 00010000 		.4byte	.LASF157
 2092 0a12 12       		.byte	0x12
 2093 0a13 FA06     		.2byte	0x6fa
 2094 0a15 190A0000 		.4byte	0xa19
 2095 0a19 19       		.uleb128 0x19
 2096 0a1a C3000000 		.4byte	0xc3
 2097 0a1e 26       		.uleb128 0x26
 2098 0a1f 636800   		.ascii	"ch\000"
 2099 0a22 0A       		.byte	0xa
 2100 0a23 0902     		.2byte	0x209
ARM GAS  /tmp/ccNiCCOZ.s 			page 70


 2101 0a25 4D040000 		.4byte	0x44d
 2102 0a29 27       		.uleb128 0x27
 2103 0a2a 69020000 		.4byte	.LASF158
 2104 0a2e 04       		.byte	0x4
 2105 0a2f 50       		.byte	0x50
 2106 0a30 3A0A0000 		.4byte	0xa3a
 2107 0a34 05       		.uleb128 0x5
 2108 0a35 03       		.byte	0x3
 2109 0a36 00000000 		.4byte	ch_debug
 2110 0a3a 18       		.uleb128 0x18
 2111 0a3b AA080000 		.4byte	0x8aa
 2112 0a3f 00       		.byte	0
 2113              		.section	.debug_abbrev,"",%progbits
 2114              	.Ldebug_abbrev0:
 2115 0000 01       		.uleb128 0x1
 2116 0001 11       		.uleb128 0x11
 2117 0002 01       		.byte	0x1
 2118 0003 25       		.uleb128 0x25
 2119 0004 0E       		.uleb128 0xe
 2120 0005 13       		.uleb128 0x13
 2121 0006 0B       		.uleb128 0xb
 2122 0007 03       		.uleb128 0x3
 2123 0008 0E       		.uleb128 0xe
 2124 0009 1B       		.uleb128 0x1b
 2125 000a 0E       		.uleb128 0xe
 2126 000b 55       		.uleb128 0x55
 2127 000c 17       		.uleb128 0x17
 2128 000d 11       		.uleb128 0x11
 2129 000e 01       		.uleb128 0x1
 2130 000f 10       		.uleb128 0x10
 2131 0010 17       		.uleb128 0x17
 2132 0011 00       		.byte	0
 2133 0012 00       		.byte	0
 2134 0013 02       		.uleb128 0x2
 2135 0014 24       		.uleb128 0x24
 2136 0015 00       		.byte	0
 2137 0016 0B       		.uleb128 0xb
 2138 0017 0B       		.uleb128 0xb
 2139 0018 3E       		.uleb128 0x3e
 2140 0019 0B       		.uleb128 0xb
 2141 001a 03       		.uleb128 0x3
 2142 001b 08       		.uleb128 0x8
 2143 001c 00       		.byte	0
 2144 001d 00       		.byte	0
 2145 001e 03       		.uleb128 0x3
 2146 001f 16       		.uleb128 0x16
 2147 0020 00       		.byte	0
 2148 0021 03       		.uleb128 0x3
 2149 0022 0E       		.uleb128 0xe
 2150 0023 3A       		.uleb128 0x3a
 2151 0024 0B       		.uleb128 0xb
 2152 0025 3B       		.uleb128 0x3b
 2153 0026 0B       		.uleb128 0xb
 2154 0027 49       		.uleb128 0x49
 2155 0028 13       		.uleb128 0x13
 2156 0029 00       		.byte	0
 2157 002a 00       		.byte	0
ARM GAS  /tmp/ccNiCCOZ.s 			page 71


 2158 002b 04       		.uleb128 0x4
 2159 002c 24       		.uleb128 0x24
 2160 002d 00       		.byte	0
 2161 002e 0B       		.uleb128 0xb
 2162 002f 0B       		.uleb128 0xb
 2163 0030 3E       		.uleb128 0x3e
 2164 0031 0B       		.uleb128 0xb
 2165 0032 03       		.uleb128 0x3
 2166 0033 0E       		.uleb128 0xe
 2167 0034 00       		.byte	0
 2168 0035 00       		.byte	0
 2169 0036 05       		.uleb128 0x5
 2170 0037 13       		.uleb128 0x13
 2171 0038 01       		.byte	0x1
 2172 0039 03       		.uleb128 0x3
 2173 003a 0E       		.uleb128 0xe
 2174 003b 0B       		.uleb128 0xb
 2175 003c 0B       		.uleb128 0xb
 2176 003d 3A       		.uleb128 0x3a
 2177 003e 0B       		.uleb128 0xb
 2178 003f 3B       		.uleb128 0x3b
 2179 0040 0B       		.uleb128 0xb
 2180 0041 01       		.uleb128 0x1
 2181 0042 13       		.uleb128 0x13
 2182 0043 00       		.byte	0
 2183 0044 00       		.byte	0
 2184 0045 06       		.uleb128 0x6
 2185 0046 0D       		.uleb128 0xd
 2186 0047 00       		.byte	0
 2187 0048 03       		.uleb128 0x3
 2188 0049 0E       		.uleb128 0xe
 2189 004a 3A       		.uleb128 0x3a
 2190 004b 0B       		.uleb128 0xb
 2191 004c 3B       		.uleb128 0x3b
 2192 004d 0B       		.uleb128 0xb
 2193 004e 49       		.uleb128 0x49
 2194 004f 13       		.uleb128 0x13
 2195 0050 38       		.uleb128 0x38
 2196 0051 0B       		.uleb128 0xb
 2197 0052 00       		.byte	0
 2198 0053 00       		.byte	0
 2199 0054 07       		.uleb128 0x7
 2200 0055 0D       		.uleb128 0xd
 2201 0056 00       		.byte	0
 2202 0057 03       		.uleb128 0x3
 2203 0058 08       		.uleb128 0x8
 2204 0059 3A       		.uleb128 0x3a
 2205 005a 0B       		.uleb128 0xb
 2206 005b 3B       		.uleb128 0x3b
 2207 005c 05       		.uleb128 0x5
 2208 005d 49       		.uleb128 0x49
 2209 005e 13       		.uleb128 0x13
 2210 005f 38       		.uleb128 0x38
 2211 0060 0B       		.uleb128 0xb
 2212 0061 00       		.byte	0
 2213 0062 00       		.byte	0
 2214 0063 08       		.uleb128 0x8
ARM GAS  /tmp/ccNiCCOZ.s 			page 72


 2215 0064 0D       		.uleb128 0xd
 2216 0065 00       		.byte	0
 2217 0066 03       		.uleb128 0x3
 2218 0067 0E       		.uleb128 0xe
 2219 0068 3A       		.uleb128 0x3a
 2220 0069 0B       		.uleb128 0xb
 2221 006a 3B       		.uleb128 0x3b
 2222 006b 05       		.uleb128 0x5
 2223 006c 49       		.uleb128 0x49
 2224 006d 13       		.uleb128 0x13
 2225 006e 38       		.uleb128 0x38
 2226 006f 0B       		.uleb128 0xb
 2227 0070 00       		.byte	0
 2228 0071 00       		.byte	0
 2229 0072 09       		.uleb128 0x9
 2230 0073 0F       		.uleb128 0xf
 2231 0074 00       		.byte	0
 2232 0075 0B       		.uleb128 0xb
 2233 0076 0B       		.uleb128 0xb
 2234 0077 49       		.uleb128 0x49
 2235 0078 13       		.uleb128 0x13
 2236 0079 00       		.byte	0
 2237 007a 00       		.byte	0
 2238 007b 0A       		.uleb128 0xa
 2239 007c 13       		.uleb128 0x13
 2240 007d 01       		.byte	0x1
 2241 007e 03       		.uleb128 0x3
 2242 007f 0E       		.uleb128 0xe
 2243 0080 0B       		.uleb128 0xb
 2244 0081 0B       		.uleb128 0xb
 2245 0082 3A       		.uleb128 0x3a
 2246 0083 0B       		.uleb128 0xb
 2247 0084 3B       		.uleb128 0x3b
 2248 0085 05       		.uleb128 0x5
 2249 0086 01       		.uleb128 0x1
 2250 0087 13       		.uleb128 0x13
 2251 0088 00       		.byte	0
 2252 0089 00       		.byte	0
 2253 008a 0B       		.uleb128 0xb
 2254 008b 15       		.uleb128 0x15
 2255 008c 01       		.byte	0x1
 2256 008d 27       		.uleb128 0x27
 2257 008e 19       		.uleb128 0x19
 2258 008f 01       		.uleb128 0x1
 2259 0090 13       		.uleb128 0x13
 2260 0091 00       		.byte	0
 2261 0092 00       		.byte	0
 2262 0093 0C       		.uleb128 0xc
 2263 0094 05       		.uleb128 0x5
 2264 0095 00       		.byte	0
 2265 0096 49       		.uleb128 0x49
 2266 0097 13       		.uleb128 0x13
 2267 0098 00       		.byte	0
 2268 0099 00       		.byte	0
 2269 009a 0D       		.uleb128 0xd
 2270 009b 0F       		.uleb128 0xf
 2271 009c 00       		.byte	0
ARM GAS  /tmp/ccNiCCOZ.s 			page 73


 2272 009d 0B       		.uleb128 0xb
 2273 009e 0B       		.uleb128 0xb
 2274 009f 00       		.byte	0
 2275 00a0 00       		.byte	0
 2276 00a1 0E       		.uleb128 0xe
 2277 00a2 13       		.uleb128 0x13
 2278 00a3 01       		.byte	0x1
 2279 00a4 03       		.uleb128 0x3
 2280 00a5 0E       		.uleb128 0xe
 2281 00a6 0B       		.uleb128 0xb
 2282 00a7 05       		.uleb128 0x5
 2283 00a8 3A       		.uleb128 0x3a
 2284 00a9 0B       		.uleb128 0xb
 2285 00aa 3B       		.uleb128 0x3b
 2286 00ab 05       		.uleb128 0x5
 2287 00ac 01       		.uleb128 0x1
 2288 00ad 13       		.uleb128 0x13
 2289 00ae 00       		.byte	0
 2290 00af 00       		.byte	0
 2291 00b0 0F       		.uleb128 0xf
 2292 00b1 0D       		.uleb128 0xd
 2293 00b2 00       		.byte	0
 2294 00b3 03       		.uleb128 0x3
 2295 00b4 0E       		.uleb128 0xe
 2296 00b5 3A       		.uleb128 0x3a
 2297 00b6 0B       		.uleb128 0xb
 2298 00b7 3B       		.uleb128 0x3b
 2299 00b8 05       		.uleb128 0x5
 2300 00b9 49       		.uleb128 0x49
 2301 00ba 13       		.uleb128 0x13
 2302 00bb 38       		.uleb128 0x38
 2303 00bc 05       		.uleb128 0x5
 2304 00bd 00       		.byte	0
 2305 00be 00       		.byte	0
 2306 00bf 10       		.uleb128 0x10
 2307 00c0 0D       		.uleb128 0xd
 2308 00c1 00       		.byte	0
 2309 00c2 03       		.uleb128 0x3
 2310 00c3 08       		.uleb128 0x8
 2311 00c4 3A       		.uleb128 0x3a
 2312 00c5 0B       		.uleb128 0xb
 2313 00c6 3B       		.uleb128 0x3b
 2314 00c7 05       		.uleb128 0x5
 2315 00c8 49       		.uleb128 0x49
 2316 00c9 13       		.uleb128 0x13
 2317 00ca 38       		.uleb128 0x38
 2318 00cb 05       		.uleb128 0x5
 2319 00cc 00       		.byte	0
 2320 00cd 00       		.byte	0
 2321 00ce 11       		.uleb128 0x11
 2322 00cf 0D       		.uleb128 0xd
 2323 00d0 00       		.byte	0
 2324 00d1 03       		.uleb128 0x3
 2325 00d2 08       		.uleb128 0x8
 2326 00d3 3A       		.uleb128 0x3a
 2327 00d4 0B       		.uleb128 0xb
 2328 00d5 3B       		.uleb128 0x3b
ARM GAS  /tmp/ccNiCCOZ.s 			page 74


 2329 00d6 0B       		.uleb128 0xb
 2330 00d7 49       		.uleb128 0x49
 2331 00d8 13       		.uleb128 0x13
 2332 00d9 38       		.uleb128 0x38
 2333 00da 0B       		.uleb128 0xb
 2334 00db 00       		.byte	0
 2335 00dc 00       		.byte	0
 2336 00dd 12       		.uleb128 0x12
 2337 00de 13       		.uleb128 0x13
 2338 00df 01       		.byte	0x1
 2339 00e0 0B       		.uleb128 0xb
 2340 00e1 0B       		.uleb128 0xb
 2341 00e2 3A       		.uleb128 0x3a
 2342 00e3 0B       		.uleb128 0xb
 2343 00e4 3B       		.uleb128 0x3b
 2344 00e5 0B       		.uleb128 0xb
 2345 00e6 01       		.uleb128 0x1
 2346 00e7 13       		.uleb128 0x13
 2347 00e8 00       		.byte	0
 2348 00e9 00       		.byte	0
 2349 00ea 13       		.uleb128 0x13
 2350 00eb 13       		.uleb128 0x13
 2351 00ec 01       		.byte	0x1
 2352 00ed 0B       		.uleb128 0xb
 2353 00ee 05       		.uleb128 0x5
 2354 00ef 3A       		.uleb128 0x3a
 2355 00f0 0B       		.uleb128 0xb
 2356 00f1 3B       		.uleb128 0x3b
 2357 00f2 0B       		.uleb128 0xb
 2358 00f3 01       		.uleb128 0x1
 2359 00f4 13       		.uleb128 0x13
 2360 00f5 00       		.byte	0
 2361 00f6 00       		.byte	0
 2362 00f7 14       		.uleb128 0x14
 2363 00f8 01       		.uleb128 0x1
 2364 00f9 01       		.byte	0x1
 2365 00fa 49       		.uleb128 0x49
 2366 00fb 13       		.uleb128 0x13
 2367 00fc 01       		.uleb128 0x1
 2368 00fd 13       		.uleb128 0x13
 2369 00fe 00       		.byte	0
 2370 00ff 00       		.byte	0
 2371 0100 15       		.uleb128 0x15
 2372 0101 21       		.uleb128 0x21
 2373 0102 00       		.byte	0
 2374 0103 49       		.uleb128 0x49
 2375 0104 13       		.uleb128 0x13
 2376 0105 2F       		.uleb128 0x2f
 2377 0106 0B       		.uleb128 0xb
 2378 0107 00       		.byte	0
 2379 0108 00       		.byte	0
 2380 0109 16       		.uleb128 0x16
 2381 010a 17       		.uleb128 0x17
 2382 010b 01       		.byte	0x1
 2383 010c 0B       		.uleb128 0xb
 2384 010d 0B       		.uleb128 0xb
 2385 010e 3A       		.uleb128 0x3a
ARM GAS  /tmp/ccNiCCOZ.s 			page 75


 2386 010f 0B       		.uleb128 0xb
 2387 0110 3B       		.uleb128 0x3b
 2388 0111 0B       		.uleb128 0xb
 2389 0112 01       		.uleb128 0x1
 2390 0113 13       		.uleb128 0x13
 2391 0114 00       		.byte	0
 2392 0115 00       		.byte	0
 2393 0116 17       		.uleb128 0x17
 2394 0117 0D       		.uleb128 0xd
 2395 0118 00       		.byte	0
 2396 0119 03       		.uleb128 0x3
 2397 011a 0E       		.uleb128 0xe
 2398 011b 3A       		.uleb128 0x3a
 2399 011c 0B       		.uleb128 0xb
 2400 011d 3B       		.uleb128 0x3b
 2401 011e 05       		.uleb128 0x5
 2402 011f 49       		.uleb128 0x49
 2403 0120 13       		.uleb128 0x13
 2404 0121 00       		.byte	0
 2405 0122 00       		.byte	0
 2406 0123 18       		.uleb128 0x18
 2407 0124 26       		.uleb128 0x26
 2408 0125 00       		.byte	0
 2409 0126 49       		.uleb128 0x49
 2410 0127 13       		.uleb128 0x13
 2411 0128 00       		.byte	0
 2412 0129 00       		.byte	0
 2413 012a 19       		.uleb128 0x19
 2414 012b 35       		.uleb128 0x35
 2415 012c 00       		.byte	0
 2416 012d 49       		.uleb128 0x49
 2417 012e 13       		.uleb128 0x13
 2418 012f 00       		.byte	0
 2419 0130 00       		.byte	0
 2420 0131 1A       		.uleb128 0x1a
 2421 0132 2E       		.uleb128 0x2e
 2422 0133 01       		.byte	0x1
 2423 0134 03       		.uleb128 0x3
 2424 0135 0E       		.uleb128 0xe
 2425 0136 3A       		.uleb128 0x3a
 2426 0137 0B       		.uleb128 0xb
 2427 0138 3B       		.uleb128 0x3b
 2428 0139 05       		.uleb128 0x5
 2429 013a 27       		.uleb128 0x27
 2430 013b 19       		.uleb128 0x19
 2431 013c 20       		.uleb128 0x20
 2432 013d 0B       		.uleb128 0xb
 2433 013e 01       		.uleb128 0x1
 2434 013f 13       		.uleb128 0x13
 2435 0140 00       		.byte	0
 2436 0141 00       		.byte	0
 2437 0142 1B       		.uleb128 0x1b
 2438 0143 05       		.uleb128 0x5
 2439 0144 00       		.byte	0
 2440 0145 03       		.uleb128 0x3
 2441 0146 0E       		.uleb128 0xe
 2442 0147 3A       		.uleb128 0x3a
ARM GAS  /tmp/ccNiCCOZ.s 			page 76


 2443 0148 0B       		.uleb128 0xb
 2444 0149 3B       		.uleb128 0x3b
 2445 014a 05       		.uleb128 0x5
 2446 014b 49       		.uleb128 0x49
 2447 014c 13       		.uleb128 0x13
 2448 014d 00       		.byte	0
 2449 014e 00       		.byte	0
 2450 014f 1C       		.uleb128 0x1c
 2451 0150 2E       		.uleb128 0x2e
 2452 0151 01       		.byte	0x1
 2453 0152 03       		.uleb128 0x3
 2454 0153 0E       		.uleb128 0xe
 2455 0154 3A       		.uleb128 0x3a
 2456 0155 0B       		.uleb128 0xb
 2457 0156 3B       		.uleb128 0x3b
 2458 0157 05       		.uleb128 0x5
 2459 0158 27       		.uleb128 0x27
 2460 0159 19       		.uleb128 0x19
 2461 015a 11       		.uleb128 0x11
 2462 015b 01       		.uleb128 0x1
 2463 015c 12       		.uleb128 0x12
 2464 015d 06       		.uleb128 0x6
 2465 015e 40       		.uleb128 0x40
 2466 015f 18       		.uleb128 0x18
 2467 0160 9742     		.uleb128 0x2117
 2468 0162 19       		.uleb128 0x19
 2469 0163 01       		.uleb128 0x1
 2470 0164 13       		.uleb128 0x13
 2471 0165 00       		.byte	0
 2472 0166 00       		.byte	0
 2473 0167 1D       		.uleb128 0x1d
 2474 0168 1D       		.uleb128 0x1d
 2475 0169 01       		.byte	0x1
 2476 016a 31       		.uleb128 0x31
 2477 016b 13       		.uleb128 0x13
 2478 016c 11       		.uleb128 0x11
 2479 016d 01       		.uleb128 0x1
 2480 016e 12       		.uleb128 0x12
 2481 016f 06       		.uleb128 0x6
 2482 0170 58       		.uleb128 0x58
 2483 0171 0B       		.uleb128 0xb
 2484 0172 59       		.uleb128 0x59
 2485 0173 05       		.uleb128 0x5
 2486 0174 00       		.byte	0
 2487 0175 00       		.byte	0
 2488 0176 1E       		.uleb128 0x1e
 2489 0177 05       		.uleb128 0x5
 2490 0178 00       		.byte	0
 2491 0179 31       		.uleb128 0x31
 2492 017a 13       		.uleb128 0x13
 2493 017b 02       		.uleb128 0x2
 2494 017c 18       		.uleb128 0x18
 2495 017d 00       		.byte	0
 2496 017e 00       		.byte	0
 2497 017f 1F       		.uleb128 0x1f
 2498 0180 2E       		.uleb128 0x2e
 2499 0181 00       		.byte	0
ARM GAS  /tmp/ccNiCCOZ.s 			page 77


 2500 0182 03       		.uleb128 0x3
 2501 0183 0E       		.uleb128 0xe
 2502 0184 3A       		.uleb128 0x3a
 2503 0185 0B       		.uleb128 0xb
 2504 0186 3B       		.uleb128 0x3b
 2505 0187 05       		.uleb128 0x5
 2506 0188 27       		.uleb128 0x27
 2507 0189 19       		.uleb128 0x19
 2508 018a 11       		.uleb128 0x11
 2509 018b 01       		.uleb128 0x1
 2510 018c 12       		.uleb128 0x12
 2511 018d 06       		.uleb128 0x6
 2512 018e 40       		.uleb128 0x40
 2513 018f 18       		.uleb128 0x18
 2514 0190 9642     		.uleb128 0x2116
 2515 0192 19       		.uleb128 0x19
 2516 0193 00       		.byte	0
 2517 0194 00       		.byte	0
 2518 0195 20       		.uleb128 0x20
 2519 0196 2E       		.uleb128 0x2e
 2520 0197 01       		.byte	0x1
 2521 0198 03       		.uleb128 0x3
 2522 0199 0E       		.uleb128 0xe
 2523 019a 3A       		.uleb128 0x3a
 2524 019b 0B       		.uleb128 0xb
 2525 019c 3B       		.uleb128 0x3b
 2526 019d 05       		.uleb128 0x5
 2527 019e 27       		.uleb128 0x27
 2528 019f 19       		.uleb128 0x19
 2529 01a0 11       		.uleb128 0x11
 2530 01a1 01       		.uleb128 0x1
 2531 01a2 12       		.uleb128 0x12
 2532 01a3 06       		.uleb128 0x6
 2533 01a4 40       		.uleb128 0x40
 2534 01a5 18       		.uleb128 0x18
 2535 01a6 9642     		.uleb128 0x2116
 2536 01a8 19       		.uleb128 0x19
 2537 01a9 01       		.uleb128 0x1
 2538 01aa 13       		.uleb128 0x13
 2539 01ab 00       		.byte	0
 2540 01ac 00       		.byte	0
 2541 01ad 21       		.uleb128 0x21
 2542 01ae 34       		.uleb128 0x34
 2543 01af 00       		.byte	0
 2544 01b0 03       		.uleb128 0x3
 2545 01b1 0E       		.uleb128 0xe
 2546 01b2 49       		.uleb128 0x49
 2547 01b3 13       		.uleb128 0x13
 2548 01b4 34       		.uleb128 0x34
 2549 01b5 19       		.uleb128 0x19
 2550 01b6 02       		.uleb128 0x2
 2551 01b7 18       		.uleb128 0x18
 2552 01b8 00       		.byte	0
 2553 01b9 00       		.byte	0
 2554 01ba 22       		.uleb128 0x22
 2555 01bb 2E       		.uleb128 0x2e
 2556 01bc 01       		.byte	0x1
ARM GAS  /tmp/ccNiCCOZ.s 			page 78


 2557 01bd 3F       		.uleb128 0x3f
 2558 01be 19       		.uleb128 0x19
 2559 01bf 03       		.uleb128 0x3
 2560 01c0 0E       		.uleb128 0xe
 2561 01c1 3A       		.uleb128 0x3a
 2562 01c2 0B       		.uleb128 0xb
 2563 01c3 3B       		.uleb128 0x3b
 2564 01c4 0B       		.uleb128 0xb
 2565 01c5 27       		.uleb128 0x27
 2566 01c6 19       		.uleb128 0x19
 2567 01c7 49       		.uleb128 0x49
 2568 01c8 13       		.uleb128 0x13
 2569 01c9 11       		.uleb128 0x11
 2570 01ca 01       		.uleb128 0x1
 2571 01cb 12       		.uleb128 0x12
 2572 01cc 06       		.uleb128 0x6
 2573 01cd 40       		.uleb128 0x40
 2574 01ce 18       		.uleb128 0x18
 2575 01cf 9642     		.uleb128 0x2116
 2576 01d1 19       		.uleb128 0x19
 2577 01d2 01       		.uleb128 0x1
 2578 01d3 13       		.uleb128 0x13
 2579 01d4 00       		.byte	0
 2580 01d5 00       		.byte	0
 2581 01d6 23       		.uleb128 0x23
 2582 01d7 34       		.uleb128 0x34
 2583 01d8 00       		.byte	0
 2584 01d9 03       		.uleb128 0x3
 2585 01da 08       		.uleb128 0x8
 2586 01db 3A       		.uleb128 0x3a
 2587 01dc 0B       		.uleb128 0xb
 2588 01dd 3B       		.uleb128 0x3b
 2589 01de 0B       		.uleb128 0xb
 2590 01df 49       		.uleb128 0x49
 2591 01e0 13       		.uleb128 0x13
 2592 01e1 02       		.uleb128 0x2
 2593 01e2 18       		.uleb128 0x18
 2594 01e3 00       		.byte	0
 2595 01e4 00       		.byte	0
 2596 01e5 24       		.uleb128 0x24
 2597 01e6 05       		.uleb128 0x5
 2598 01e7 00       		.byte	0
 2599 01e8 03       		.uleb128 0x3
 2600 01e9 08       		.uleb128 0x8
 2601 01ea 3A       		.uleb128 0x3a
 2602 01eb 0B       		.uleb128 0xb
 2603 01ec 3B       		.uleb128 0x3b
 2604 01ed 0B       		.uleb128 0xb
 2605 01ee 49       		.uleb128 0x49
 2606 01ef 13       		.uleb128 0x13
 2607 01f0 02       		.uleb128 0x2
 2608 01f1 18       		.uleb128 0x18
 2609 01f2 00       		.byte	0
 2610 01f3 00       		.byte	0
 2611 01f4 25       		.uleb128 0x25
 2612 01f5 34       		.uleb128 0x34
 2613 01f6 00       		.byte	0
ARM GAS  /tmp/ccNiCCOZ.s 			page 79


 2614 01f7 03       		.uleb128 0x3
 2615 01f8 0E       		.uleb128 0xe
 2616 01f9 3A       		.uleb128 0x3a
 2617 01fa 0B       		.uleb128 0xb
 2618 01fb 3B       		.uleb128 0x3b
 2619 01fc 05       		.uleb128 0x5
 2620 01fd 49       		.uleb128 0x49
 2621 01fe 13       		.uleb128 0x13
 2622 01ff 3F       		.uleb128 0x3f
 2623 0200 19       		.uleb128 0x19
 2624 0201 3C       		.uleb128 0x3c
 2625 0202 19       		.uleb128 0x19
 2626 0203 00       		.byte	0
 2627 0204 00       		.byte	0
 2628 0205 26       		.uleb128 0x26
 2629 0206 34       		.uleb128 0x34
 2630 0207 00       		.byte	0
 2631 0208 03       		.uleb128 0x3
 2632 0209 08       		.uleb128 0x8
 2633 020a 3A       		.uleb128 0x3a
 2634 020b 0B       		.uleb128 0xb
 2635 020c 3B       		.uleb128 0x3b
 2636 020d 05       		.uleb128 0x5
 2637 020e 49       		.uleb128 0x49
 2638 020f 13       		.uleb128 0x13
 2639 0210 3F       		.uleb128 0x3f
 2640 0211 19       		.uleb128 0x19
 2641 0212 3C       		.uleb128 0x3c
 2642 0213 19       		.uleb128 0x19
 2643 0214 00       		.byte	0
 2644 0215 00       		.byte	0
 2645 0216 27       		.uleb128 0x27
 2646 0217 34       		.uleb128 0x34
 2647 0218 00       		.byte	0
 2648 0219 03       		.uleb128 0x3
 2649 021a 0E       		.uleb128 0xe
 2650 021b 3A       		.uleb128 0x3a
 2651 021c 0B       		.uleb128 0xb
 2652 021d 3B       		.uleb128 0x3b
 2653 021e 0B       		.uleb128 0xb
 2654 021f 49       		.uleb128 0x49
 2655 0220 13       		.uleb128 0x13
 2656 0221 3F       		.uleb128 0x3f
 2657 0222 19       		.uleb128 0x19
 2658 0223 02       		.uleb128 0x2
 2659 0224 18       		.uleb128 0x18
 2660 0225 00       		.byte	0
 2661 0226 00       		.byte	0
 2662 0227 00       		.byte	0
 2663              		.section	.debug_aranges,"",%progbits
 2664 0000 44000000 		.4byte	0x44
 2665 0004 0200     		.2byte	0x2
 2666 0006 00000000 		.4byte	.Ldebug_info0
 2667 000a 04       		.byte	0x4
 2668 000b 00       		.byte	0
 2669 000c 0000     		.2byte	0
 2670 000e 0000     		.2byte	0
ARM GAS  /tmp/ccNiCCOZ.s 			page 80


 2671 0010 00000000 		.4byte	.LFB127
 2672 0014 10000000 		.4byte	.LFE127-.LFB127
 2673 0018 00000000 		.4byte	.LFB128
 2674 001c 10000000 		.4byte	.LFE128-.LFB128
 2675 0020 00000000 		.4byte	.LFB167
 2676 0024 10000000 		.4byte	.LFE167-.LFB167
 2677 0028 00000000 		.4byte	.LFB168
 2678 002c 4E000000 		.4byte	.LFE168-.LFB168
 2679 0030 00000000 		.4byte	.LFB241
 2680 0034 32000000 		.4byte	.LFE241-.LFB241
 2681 0038 00000000 		.4byte	.LFB242
 2682 003c 5E000000 		.4byte	.LFE242-.LFB242
 2683 0040 00000000 		.4byte	0
 2684 0044 00000000 		.4byte	0
 2685              		.section	.debug_ranges,"",%progbits
 2686              	.Ldebug_ranges0:
 2687 0000 00000000 		.4byte	.LFB127
 2688 0004 10000000 		.4byte	.LFE127
 2689 0008 00000000 		.4byte	.LFB128
 2690 000c 10000000 		.4byte	.LFE128
 2691 0010 00000000 		.4byte	.LFB167
 2692 0014 10000000 		.4byte	.LFE167
 2693 0018 00000000 		.4byte	.LFB168
 2694 001c 4E000000 		.4byte	.LFE168
 2695 0020 00000000 		.4byte	.LFB241
 2696 0024 32000000 		.4byte	.LFE241
 2697 0028 00000000 		.4byte	.LFB242
 2698 002c 5E000000 		.4byte	.LFE242
 2699 0030 00000000 		.4byte	0
 2700 0034 00000000 		.4byte	0
 2701              		.section	.debug_line,"",%progbits
 2702              	.Ldebug_line0:
 2703 0000 A8020000 		.section	.debug_str,"MS",%progbits,1
 2703      0200FE01 
 2703      00000201 
 2703      FB0E0D00 
 2703      01010101 
 2704              	.LASF140:
 2705 0000 63665F6F 		.ascii	"cf_off_older\000"
 2705      66665F6F 
 2705      6C646572 
 2705      00
 2706              	.LASF57:
 2707 000d 72656164 		.ascii	"ready_list_t\000"
 2707      795F6C69 
 2707      73745F74 
 2707      00
 2708              	.LASF94:
 2709 001a 73655F74 		.ascii	"se_time\000"
 2709      696D6500 
 2710              	.LASF2:
 2711 0022 73697A65 		.ascii	"size_t\000"
 2711      5F7400
 2712              	.LASF115:
 2713 0029 7264796D 		.ascii	"rdymsg\000"
 2713      736700
 2714              	.LASF156:
ARM GAS  /tmp/ccNiCCOZ.s 			page 81


 2715 0030 5F5F6675 		.ascii	"__func__.6619\000"
 2715      6E635F5F 
 2715      2E363631 
 2715      3900
 2716              	.LASF87:
 2717 003e 6B65726E 		.ascii	"kernel_stats\000"
 2717      656C5F73 
 2717      74617473 
 2717      00
 2718              	.LASF3:
 2719 004b 5F5F7569 		.ascii	"__uint8_t\000"
 2719      6E74385F 
 2719      7400
 2720              	.LASF93:
 2721 0055 706F7274 		.ascii	"port_intctx\000"
 2721      5F696E74 
 2721      63747800 
 2722              	.LASF56:
 2723 0061 63685F74 		.ascii	"ch_threads_queue\000"
 2723      68726561 
 2723      64735F71 
 2723      75657565 
 2723      00
 2724              	.LASF76:
 2725 0072 73797374 		.ascii	"system_debug_t\000"
 2725      656D5F64 
 2725      65627567 
 2725      5F7400
 2726              	.LASF150:
 2727 0081 706F7274 		.ascii	"port_lock\000"
 2727      5F6C6F63 
 2727      6B00
 2728              	.LASF106:
 2729 008b 776F7273 		.ascii	"worst\000"
 2729      7400
 2730              	.LASF109:
 2731 0091 74696D65 		.ascii	"time_measurement_t\000"
 2731      5F6D6561 
 2731      73757265 
 2731      6D656E74 
 2731      5F7400
 2732              	.LASF14:
 2733 00a4 6C6F6E67 		.ascii	"long long unsigned int\000"
 2733      206C6F6E 
 2733      6720756E 
 2733      7369676E 
 2733      65642069 
 2734              	.LASF102:
 2735 00bb 63685F74 		.ascii	"ch_trace_buffer_t\000"
 2735      72616365 
 2735      5F627566 
 2735      6665725F 
 2735      7400
 2736              	.LASF136:
 2737 00cd 63685F74 		.ascii	"ch_threadsize\000"
 2737      68726561 
 2737      6473697A 
ARM GAS  /tmp/ccNiCCOZ.s 			page 82


 2737      6500
 2738              	.LASF116:
 2739 00db 65786974 		.ascii	"exitcode\000"
 2739      636F6465 
 2739      00
 2740              	.LASF86:
 2741 00e4 6D61696E 		.ascii	"mainthread\000"
 2741      74687265 
 2741      616400
 2742              	.LASF153:
 2743 00ef 63685265 		.ascii	"chRegFirstThread\000"
 2743      67466972 
 2743      73745468 
 2743      72656164 
 2743      00
 2744              	.LASF157:
 2745 0100 49544D5F 		.ascii	"ITM_RxBuffer\000"
 2745      52784275 
 2745      66666572 
 2745      00
 2746              	.LASF21:
 2747 010d 72747469 		.ascii	"rttime_t\000"
 2747      6D655F74 
 2747      00
 2748              	.LASF34:
 2749 0116 705F7072 		.ascii	"p_prio\000"
 2749      696F00
 2750              	.LASF143:
 2751 011d 63665F6F 		.ascii	"cf_off_state\000"
 2751      66665F73 
 2751      74617465 
 2751      00
 2752              	.LASF12:
 2753 012a 6C6F6E67 		.ascii	"long long int\000"
 2753      206C6F6E 
 2753      6720696E 
 2753      7400
 2754              	.LASF1:
 2755 0138 7369676E 		.ascii	"signed char\000"
 2755      65642063 
 2755      68617200 
 2756              	.LASF142:
 2757 0144 63665F6F 		.ascii	"cf_off_stklimit\000"
 2757      66665F73 
 2757      746B6C69 
 2757      6D697400 
 2758              	.LASF144:
 2759 0154 63665F6F 		.ascii	"cf_off_flags\000"
 2759      66665F66 
 2759      6C616773 
 2759      00
 2760              	.LASF49:
 2761 0161 705F6D70 		.ascii	"p_mpool\000"
 2761      6F6F6C00 
 2762              	.LASF126:
 2763 0169 6D5F7175 		.ascii	"m_queue\000"
 2763      65756500 
ARM GAS  /tmp/ccNiCCOZ.s 			page 83


 2764              	.LASF85:
 2765 0171 76746C69 		.ascii	"vtlist\000"
 2765      737400
 2766              	.LASF151:
 2767 0178 706F7274 		.ascii	"port_unlock\000"
 2767      5F756E6C 
 2767      6F636B00 
 2768              	.LASF118:
 2769 0184 77747472 		.ascii	"wttrp\000"
 2769      7000
 2770              	.LASF83:
 2771 018a 63685F73 		.ascii	"ch_system\000"
 2771      79737465 
 2771      6D00
 2772              	.LASF9:
 2773 0194 6C6F6E67 		.ascii	"long int\000"
 2773      20696E74 
 2773      00
 2774              	.LASF23:
 2775 019d 74737461 		.ascii	"tstate_t\000"
 2775      74655F74 
 2775      00
 2776              	.LASF95:
 2777 01a6 73655F74 		.ascii	"se_tp\000"
 2777      7000
 2778              	.LASF133:
 2779 01ac 63685F76 		.ascii	"ch_version\000"
 2779      65727369 
 2779      6F6E00
 2780              	.LASF148:
 2781 01b7 63686465 		.ascii	"chdebug_t\000"
 2781      6275675F 
 2781      7400
 2782              	.LASF36:
 2783 01c1 705F6E65 		.ascii	"p_newer\000"
 2783      77657200 
 2784              	.LASF123:
 2785 01c9 735F7175 		.ascii	"s_queue\000"
 2785      65756500 
 2786              	.LASF99:
 2787 01d1 74625F73 		.ascii	"tb_size\000"
 2787      697A6500 
 2788              	.LASF62:
 2789 01d9 725F6E65 		.ascii	"r_newer\000"
 2789      77657200 
 2790              	.LASF90:
 2791 01e1 72656761 		.ascii	"regarm_t\000"
 2791      726D5F74 
 2791      00
 2792              	.LASF69:
 2793 01ea 76745F70 		.ascii	"vt_prev\000"
 2793      72657600 
 2794              	.LASF77:
 2795 01f2 63685F73 		.ascii	"ch_system_debug\000"
 2795      79737465 
 2795      6D5F6465 
 2795      62756700 
ARM GAS  /tmp/ccNiCCOZ.s 			page 84


 2796              	.LASF149:
 2797 0202 6D757465 		.ascii	"mutex_t\000"
 2797      785F7400 
 2798              	.LASF163:
 2799 020a 76616C75 		.ascii	"value\000"
 2799      6500
 2800              	.LASF80:
 2801 0210 6C6F636B 		.ascii	"lock_cnt\000"
 2801      5F636E74 
 2801      00
 2802              	.LASF88:
 2803 0219 69646C65 		.ascii	"idle_thread_wa\000"
 2803      5F746872 
 2803      6561645F 
 2803      776100
 2804              	.LASF28:
 2805 0228 636E745F 		.ascii	"cnt_t\000"
 2805      7400
 2806              	.LASF39:
 2807 022e 705F7374 		.ascii	"p_stklimit\000"
 2807      6B6C696D 
 2807      697400
 2808              	.LASF0:
 2809 0239 756E7369 		.ascii	"unsigned int\000"
 2809      676E6564 
 2809      20696E74 
 2809      00
 2810              	.LASF68:
 2811 0246 76745F6E 		.ascii	"vt_next\000"
 2811      65787400 
 2812              	.LASF16:
 2813 024e 75696E74 		.ascii	"uint16_t\000"
 2813      31365F74 
 2813      00
 2814              	.LASF119:
 2815 0257 77747365 		.ascii	"wtsemp\000"
 2815      6D7000
 2816              	.LASF44:
 2817 025e 705F6D73 		.ascii	"p_msgqueue\000"
 2817      67717565 
 2817      756500
 2818              	.LASF158:
 2819 0269 63685F64 		.ascii	"ch_debug\000"
 2819      65627567 
 2819      00
 2820              	.LASF110:
 2821 0272 6E5F6972 		.ascii	"n_irq\000"
 2821      7100
 2822              	.LASF124:
 2823 0278 735F636E 		.ascii	"s_cnt\000"
 2823      7400
 2824              	.LASF7:
 2825 027e 73686F72 		.ascii	"short unsigned int\000"
 2825      7420756E 
 2825      7369676E 
 2825      65642069 
 2825      6E7400
ARM GAS  /tmp/ccNiCCOZ.s 			page 85


 2826              	.LASF114:
 2827 0291 6B65726E 		.ascii	"kernel_stats_t\000"
 2827      656C5F73 
 2827      74617473 
 2827      5F7400
 2828              	.LASF53:
 2829 02a0 63685F74 		.ascii	"ch_thread\000"
 2829      68726561 
 2829      6400
 2830              	.LASF26:
 2831 02aa 6D73675F 		.ascii	"msg_t\000"
 2831      7400
 2832              	.LASF107:
 2833 02b0 6C617374 		.ascii	"last\000"
 2833      00
 2834              	.LASF161:
 2835 02b5 2F686F6D 		.ascii	"/home/jerker/chibios/ChibiOS_16.1.4/testhal/STM32/S"
 2835      652F6A65 
 2835      726B6572 
 2835      2F636869 
 2835      62696F73 
 2836 02e8 544D3332 		.ascii	"TM32F4xx/USB_CDC\000"
 2836      46347878 
 2836      2F555342 
 2836      5F434443 
 2836      00
 2837              	.LASF29:
 2838 02f9 75636E74 		.ascii	"ucnt_t\000"
 2838      5F7400
 2839              	.LASF82:
 2840 0300 63685F73 		.ascii	"ch_system_t\000"
 2840      79737465 
 2840      6D5F7400 
 2841              	.LASF159:
 2842 030c 474E5520 		.ascii	"GNU C 4.8.2 -mcpu=cortex-m4 -mno-thumb-interwork -m"
 2842      4320342E 
 2842      382E3220 
 2842      2D6D6370 
 2842      753D636F 
 2843 033f 7468756D 		.ascii	"thumb -ggdb -O0 -fomit-frame-pointer -falign-functi"
 2843      62202D67 
 2843      67646220 
 2843      2D4F3020 
 2843      2D666F6D 
 2844 0372 6F6E733D 		.ascii	"ons=16 -ffunction-sections -fdata-sections -fno-com"
 2844      3136202D 
 2844      6666756E 
 2844      6374696F 
 2844      6E2D7365 
 2845 03a5 6D6F6E20 		.ascii	"mon -flto\000"
 2845      2D666C74 
 2845      6F00
 2846              	.LASF147:
 2847 03af 63665F6F 		.ascii	"cf_off_time\000"
 2847      66665F74 
 2847      696D6500 
 2848              	.LASF113:
ARM GAS  /tmp/ccNiCCOZ.s 			page 86


 2849 03bb 6D5F6372 		.ascii	"m_crit_isr\000"
 2849      69745F69 
 2849      737200
 2850              	.LASF58:
 2851 03c6 63685F72 		.ascii	"ch_ready_list\000"
 2851      65616479 
 2851      5F6C6973 
 2851      7400
 2852              	.LASF27:
 2853 03d4 6576656E 		.ascii	"eventmask_t\000"
 2853      746D6173 
 2853      6B5F7400 
 2854              	.LASF8:
 2855 03e0 5F5F696E 		.ascii	"__int32_t\000"
 2855      7433325F 
 2855      7400
 2856              	.LASF73:
 2857 03ea 76697274 		.ascii	"virtual_timers_list_t\000"
 2857      75616C5F 
 2857      74696D65 
 2857      72735F6C 
 2857      6973745F 
 2858              	.LASF91:
 2859 0400 73746B61 		.ascii	"stkalign_t\000"
 2859      6C69676E 
 2859      5F7400
 2860              	.LASF52:
 2861 040b 74687265 		.ascii	"threads_list_t\000"
 2861      6164735F 
 2861      6C697374 
 2861      5F7400
 2862              	.LASF131:
 2863 041a 63685F7A 		.ascii	"ch_zero\000"
 2863      65726F00 
 2864              	.LASF145:
 2865 0422 63665F6F 		.ascii	"cf_off_refs\000"
 2865      66665F72 
 2865      65667300 
 2866              	.LASF43:
 2867 042e 705F7761 		.ascii	"p_waiting\000"
 2867      6974696E 
 2867      6700
 2868              	.LASF89:
 2869 0438 73697A65 		.ascii	"sizetype\000"
 2869      74797065 
 2869      00
 2870              	.LASF51:
 2871 0441 74687265 		.ascii	"thread_reference_t\000"
 2871      61645F72 
 2871      65666572 
 2871      656E6365 
 2871      5F7400
 2872              	.LASF74:
 2873 0454 63685F76 		.ascii	"ch_virtual_timers_list\000"
 2873      69727475 
 2873      616C5F74 
 2873      696D6572 
ARM GAS  /tmp/ccNiCCOZ.s 			page 87


 2873      735F6C69 
 2874              	.LASF135:
 2875 046b 63685F74 		.ascii	"ch_timesize\000"
 2875      696D6573 
 2875      697A6500 
 2876              	.LASF100:
 2877 0477 74625F70 		.ascii	"tb_ptr\000"
 2877      747200
 2878              	.LASF98:
 2879 047e 63685F73 		.ascii	"ch_swc_event_t\000"
 2879      77635F65 
 2879      76656E74 
 2879      5F7400
 2880              	.LASF141:
 2881 048d 63665F6F 		.ascii	"cf_off_name\000"
 2881      66665F6E 
 2881      616D6500 
 2882              	.LASF19:
 2883 0499 75696E74 		.ascii	"uint64_t\000"
 2883      36345F74 
 2883      00
 2884              	.LASF37:
 2885 04a2 705F6F6C 		.ascii	"p_older\000"
 2885      64657200 
 2886              	.LASF61:
 2887 04aa 725F6374 		.ascii	"r_ctx\000"
 2887      7800
 2888              	.LASF35:
 2889 04b0 705F6374 		.ascii	"p_ctx\000"
 2889      7800
 2890              	.LASF104:
 2891 04b6 746D5F63 		.ascii	"tm_calibration_t\000"
 2891      616C6962 
 2891      72617469 
 2891      6F6E5F74 
 2891      00
 2892              	.LASF64:
 2893 04c7 725F6375 		.ascii	"r_current\000"
 2893      7272656E 
 2893      7400
 2894              	.LASF63:
 2895 04d1 725F6F6C 		.ascii	"r_older\000"
 2895      64657200 
 2896              	.LASF13:
 2897 04d9 5F5F7569 		.ascii	"__uint64_t\000"
 2897      6E743634 
 2897      5F7400
 2898              	.LASF108:
 2899 04e4 63756D75 		.ascii	"cumulative\000"
 2899      6C617469 
 2899      766500
 2900              	.LASF155:
 2901 04ef 5F5F6675 		.ascii	"__func__.5915\000"
 2901      6E635F5F 
 2901      2E353931 
 2901      3500
 2902              	.LASF24:
ARM GAS  /tmp/ccNiCCOZ.s 			page 88


 2903 04fd 74726566 		.ascii	"trefs_t\000"
 2903      735F7400 
 2904              	.LASF101:
 2905 0505 74625F62 		.ascii	"tb_buffer\000"
 2905      75666665 
 2905      7200
 2906              	.LASF134:
 2907 050f 63685F70 		.ascii	"ch_ptrsize\000"
 2907      74727369 
 2907      7A6500
 2908              	.LASF66:
 2909 051a 76697274 		.ascii	"virtual_timer_t\000"
 2909      75616C5F 
 2909      74696D65 
 2909      725F7400 
 2910              	.LASF33:
 2911 052a 705F7072 		.ascii	"p_prev\000"
 2911      657600
 2912              	.LASF25:
 2913 0531 74707269 		.ascii	"tprio_t\000"
 2913      6F5F7400 
 2914              	.LASF111:
 2915 0539 6E5F6374 		.ascii	"n_ctxswc\000"
 2915      78737763 
 2915      00
 2916              	.LASF17:
 2917 0542 696E7433 		.ascii	"int32_t\000"
 2917      325F7400 
 2918              	.LASF4:
 2919 054a 756E7369 		.ascii	"unsigned char\000"
 2919      676E6564 
 2919      20636861 
 2919      7200
 2920              	.LASF47:
 2921 0558 705F6D74 		.ascii	"p_mtxlist\000"
 2921      786C6973 
 2921      7400
 2922              	.LASF5:
 2923 0562 73686F72 		.ascii	"short int\000"
 2923      7420696E 
 2923      7400
 2924              	.LASF40:
 2925 056c 705F7374 		.ascii	"p_state\000"
 2925      61746500 
 2926              	.LASF60:
 2927 0574 725F7072 		.ascii	"r_prio\000"
 2927      696F00
 2928              	.LASF121:
 2929 057b 65776D61 		.ascii	"ewmask\000"
 2929      736B00
 2930              	.LASF32:
 2931 0582 705F6E65 		.ascii	"p_next\000"
 2931      787400
 2932              	.LASF22:
 2933 0589 746D6F64 		.ascii	"tmode_t\000"
 2933      655F7400 
 2934              	.LASF146:
ARM GAS  /tmp/ccNiCCOZ.s 			page 89


 2935 0591 63665F6F 		.ascii	"cf_off_preempt\000"
 2935      66665F70 
 2935      7265656D 
 2935      707400
 2936              	.LASF41:
 2937 05a0 705F666C 		.ascii	"p_flags\000"
 2937      61677300 
 2938              	.LASF50:
 2939 05a8 705F7374 		.ascii	"p_stats\000"
 2939      61747300 
 2940              	.LASF164:
 2941 05b0 63685379 		.ascii	"chSysLock\000"
 2941      734C6F63 
 2941      6B00
 2942              	.LASF55:
 2943 05ba 74687265 		.ascii	"threads_queue_t\000"
 2943      6164735F 
 2943      71756575 
 2943      655F7400 
 2944              	.LASF67:
 2945 05ca 63685F76 		.ascii	"ch_virtual_timer\000"
 2945      69727475 
 2945      616C5F74 
 2945      696D6572 
 2945      00
 2946              	.LASF139:
 2947 05db 63665F6F 		.ascii	"cf_off_newer\000"
 2947      66665F6E 
 2947      65776572 
 2947      00
 2948              	.LASF122:
 2949 05e8 63685F73 		.ascii	"ch_semaphore\000"
 2949      656D6170 
 2949      686F7265 
 2949      00
 2950              	.LASF46:
 2951 05f5 705F6570 		.ascii	"p_epending\000"
 2951      656E6469 
 2951      6E6700
 2952              	.LASF18:
 2953 0600 75696E74 		.ascii	"uint32_t\000"
 2953      33325F74 
 2953      00
 2954              	.LASF137:
 2955 0609 63665F6F 		.ascii	"cf_off_prio\000"
 2955      66665F70 
 2955      72696F00 
 2956              	.LASF59:
 2957 0615 725F7175 		.ascii	"r_queue\000"
 2957      65756500 
 2958              	.LASF70:
 2959 061d 76745F64 		.ascii	"vt_delta\000"
 2959      656C7461 
 2959      00
 2960              	.LASF54:
 2961 0626 63685F74 		.ascii	"ch_threads_list\000"
 2961      68726561 
ARM GAS  /tmp/ccNiCCOZ.s 			page 90


 2961      64735F6C 
 2961      69737400 
 2962              	.LASF132:
 2963 0636 63685F73 		.ascii	"ch_size\000"
 2963      697A6500 
 2964              	.LASF11:
 2965 063e 6C6F6E67 		.ascii	"long unsigned int\000"
 2965      20756E73 
 2965      69676E65 
 2965      6420696E 
 2965      7400
 2966              	.LASF129:
 2967 0650 63686172 		.ascii	"char\000"
 2967      00
 2968              	.LASF154:
 2969 0655 63685265 		.ascii	"chRegNextThread\000"
 2969      674E6578 
 2969      74546872 
 2969      65616400 
 2970              	.LASF120:
 2971 0665 77746D74 		.ascii	"wtmtxp\000"
 2971      787000
 2972              	.LASF6:
 2973 066c 5F5F7569 		.ascii	"__uint16_t\000"
 2973      6E743136 
 2973      5F7400
 2974              	.LASF31:
 2975 0677 74687265 		.ascii	"thread_t\000"
 2975      61645F74 
 2975      00
 2976              	.LASF105:
 2977 0680 62657374 		.ascii	"best\000"
 2977      00
 2978              	.LASF128:
 2979 0685 6D5F6E65 		.ascii	"m_next\000"
 2979      787400
 2980              	.LASF30:
 2981 068c 73797374 		.ascii	"systime_t\000"
 2981      696D655F 
 2981      7400
 2982              	.LASF48:
 2983 0696 705F7265 		.ascii	"p_realprio\000"
 2983      616C7072 
 2983      696F00
 2984              	.LASF65:
 2985 06a1 76746675 		.ascii	"vtfunc_t\000"
 2985      6E635F74 
 2985      00
 2986              	.LASF10:
 2987 06aa 5F5F7569 		.ascii	"__uint32_t\000"
 2987      6E743332 
 2987      5F7400
 2988              	.LASF162:
 2989 06b5 5F5F7365 		.ascii	"__set_BASEPRI\000"
 2989      745F4241 
 2989      53455052 
 2989      4900
ARM GAS  /tmp/ccNiCCOZ.s 			page 91


 2990              	.LASF78:
 2991 06c3 70616E69 		.ascii	"panic_msg\000"
 2991      635F6D73 
 2991      6700
 2992              	.LASF103:
 2993 06cd 6F666673 		.ascii	"offset\000"
 2993      657400
 2994              	.LASF92:
 2995 06d4 636F6E74 		.ascii	"context\000"
 2995      65787400 
 2996              	.LASF20:
 2997 06dc 7274636E 		.ascii	"rtcnt_t\000"
 2997      745F7400 
 2998              	.LASF72:
 2999 06e4 76745F70 		.ascii	"vt_par\000"
 2999      617200
 3000              	.LASF138:
 3001 06eb 63665F6F 		.ascii	"cf_off_ctx\000"
 3001      66665F63 
 3001      747800
 3002              	.LASF125:
 3003 06f6 63685F6D 		.ascii	"ch_mutex\000"
 3003      75746578 
 3003      00
 3004              	.LASF42:
 3005 06ff 705F7265 		.ascii	"p_refs\000"
 3005      667300
 3006              	.LASF79:
 3007 0706 6973725F 		.ascii	"isr_cnt\000"
 3007      636E7400 
 3008              	.LASF97:
 3009 070e 73655F73 		.ascii	"se_state\000"
 3009      74617465 
 3009      00
 3010              	.LASF84:
 3011 0717 726C6973 		.ascii	"rlist\000"
 3011      7400
 3012              	.LASF15:
 3013 071d 75696E74 		.ascii	"uint8_t\000"
 3013      385F7400 
 3014              	.LASF75:
 3015 0725 76745F6C 		.ascii	"vt_lasttime\000"
 3015      61737474 
 3015      696D6500 
 3016              	.LASF117:
 3017 0731 77746F62 		.ascii	"wtobjp\000"
 3017      6A7000
 3018              	.LASF38:
 3019 0738 705F6E61 		.ascii	"p_name\000"
 3019      6D6500
 3020              	.LASF160:
 3021 073f 2E2E2F2E 		.ascii	"../../../../os/rt/src/chregistry.c\000"
 3021      2E2F2E2E 
 3021      2F2E2E2F 
 3021      6F732F72 
 3021      742F7372 
 3022              	.LASF81:
ARM GAS  /tmp/ccNiCCOZ.s 			page 92


 3023 0762 74726163 		.ascii	"trace_buffer\000"
 3023      655F6275 
 3023      66666572 
 3023      00
 3024              	.LASF152:
 3025 076f 63685379 		.ascii	"chSysUnlock\000"
 3025      73556E6C 
 3025      6F636B00 
 3026              	.LASF45:
 3027 077b 705F6D73 		.ascii	"p_msg\000"
 3027      6700
 3028              	.LASF112:
 3029 0781 6D5F6372 		.ascii	"m_crit_thd\000"
 3029      69745F74 
 3029      686400
 3030              	.LASF127:
 3031 078c 6D5F6F77 		.ascii	"m_owner\000"
 3031      6E657200 
 3032              	.LASF96:
 3033 0794 73655F77 		.ascii	"se_wtobjp\000"
 3033      746F626A 
 3033      7000
 3034              	.LASF130:
 3035 079e 63685F69 		.ascii	"ch_identifier\000"
 3035      64656E74 
 3035      69666965 
 3035      7200
 3036              	.LASF71:
 3037 07ac 76745F66 		.ascii	"vt_func\000"
 3037      756E6300 
 3038              		.comm	__gnu_lto_v1,1,1
 3039              		.ident	"GCC: (4.8.2-14ubuntu1+6) 4.8.2"
ARM GAS  /tmp/ccNiCCOZ.s 			page 93


DEFINED SYMBOLS
                            *ABS*:0000000000000000 chregistry.c
     /tmp/ccNiCCOZ.s:538    .text.port_lock:0000000000000000 $t
     /tmp/ccNiCCOZ.s:543    .text.port_lock:0000000000000000 port_lock
     /tmp/ccNiCCOZ.s:574    .text.port_unlock:0000000000000000 $t
     /tmp/ccNiCCOZ.s:579    .text.port_unlock:0000000000000000 port_unlock
     /tmp/ccNiCCOZ.s:608    .text.chSysLock:0000000000000000 $t
     /tmp/ccNiCCOZ.s:613    .text.chSysLock:0000000000000000 chSysLock
     /tmp/ccNiCCOZ.s:636    .text.chSysUnlock:0000000000000000 $t
     /tmp/ccNiCCOZ.s:641    .text.chSysUnlock:0000000000000000 chSysUnlock
     /tmp/ccNiCCOZ.s:829    .rodata.__func__.5915:0000000000000000 __func__.5915
     /tmp/ccNiCCOZ.s:690    .rodata.ch_debug:0000000000000000 ch_debug
     /tmp/ccNiCCOZ.s:687    .rodata.ch_debug:0000000000000000 $d
     /tmp/ccNiCCOZ.s:713    .text.chRegFirstThread:0000000000000000 $t
     /tmp/ccNiCCOZ.s:719    .text.chRegFirstThread:0000000000000000 chRegFirstThread
     /tmp/ccNiCCOZ.s:758    .text.chRegNextThread:0000000000000000 $t
     /tmp/ccNiCCOZ.s:764    .text.chRegNextThread:0000000000000000 chRegNextThread
     /tmp/ccNiCCOZ.s:835    .rodata.__func__.6619:0000000000000000 __func__.6619
     /tmp/ccNiCCOZ.s:826    .rodata.__func__.5915:0000000000000000 $d
     /tmp/ccNiCCOZ.s:832    .rodata.__func__.6619:0000000000000000 $d
                            *COM*:0000000000000001 __gnu_lto_v1
                     .debug_frame:0000000000000010 $d

UNDEFINED SYMBOLS
_stats_start_measure_crit_thd
_dbg_check_lock
_dbg_check_unlock
_stats_stop_measure_crit_thd
ch
chSysHalt
chThdRelease
