ARM GAS  /tmp/ccFbAnkP.s 			page 1


   1              		.syntax unified
   2              		.cpu cortex-m4
   3              		.fpu softvfp
   4              		.eabi_attribute 20, 1
   5              		.eabi_attribute 21, 1
   6              		.eabi_attribute 23, 3
   7              		.eabi_attribute 24, 1
   8              		.eabi_attribute 25, 1
   9              		.eabi_attribute 26, 1
  10              		.eabi_attribute 30, 6
  11              		.eabi_attribute 34, 1
  12              		.eabi_attribute 18, 4
  13              		.thumb
  14              		.file	"chregistry.c"
  15              		.text
  16              	.Ltext0:
  17              		.section	.gnu.lto_.inline.956c86598476884d,"",%progbits
  18 0000 789C6362 		.ascii	"x\234cb`b\300\0066Bi6\006\006\026f\006\006&\226\017"
  18      6062C006 
  18      36426936 
  18      06061666 
  18      06062696 
  19 0015 7A0C2C10 		.ascii	"z\014,\020\265\214\030\"L\014l\012@\222i\201<\\\015"
  19      B58C1822 
  19      4C0C6C0A 
  19      40926981 
  19      3C5C0D
  20 0028 170AC1CC 		.ascii	"\027\012\301\314 h\002T \362a5#\212\012&n\024el\014"
  20      20680254 
  20      20F26135 
  20      238A0A26 
  20      6E14656C 
  21 003d 9C524041 		.ascii	"\234R@A\256\007\261\230\346\2603\010\231\242\031\201"
  21      AE07B198 
  21      E6B03308 
  21      99A21981 
  22 004d D08D6031 		.ascii	"\320\215`1\000\000\005z\012#"
  22      0000057A 
  22      0A23
  23              		.text
  24              		.section	.gnu.lto_port_lock.956c86598476884d,"",%progbits
  25 0000 789C6362 		.ascii	"x\234cb`b@\007\"@,\314\310\3000\001\304af`\004\252`"
  25      60624007 
  25      22402CCC 
  25      C8C03001 
  25      C4616660 
  26 0017 6462040A 		.ascii	"db\004\012002\32431\326G\202\230\014\214J\014\013\033"
  26      303032D4 
  26      3331D647 
  26      82980C8C 
  26      4A0C0B1B 
  27 002b 1A263D68 		.ascii	"\032&=h}\366\230if\303\201\226\005\015\177\376\377g"
  27      7DF69869 
  27      66C38196 
  27      050D7FFE 
  27      FF67
  28 003d 64CC6404 		.ascii	"d\314d\004\232h\316\310\220\314\310\020\001\3440*\200"
ARM GAS  /tmp/ccFbAnkP.s 			page 2


  28      9A68CEC8 
  28      90CCC810 
  28      01E4302A 
  28      80
  29 004e 29261654 		.ascii	")&\026T+\3263\035x\360\377\377\211\316\347{\201&3$2"
  29      2BD6331D 
  29      78F0FFFF 
  29      89CEE77B 
  29      81263324 
  30 0063 2E049A06 		.ascii	".\004\232\006\004\254\014-\015\015\023\024\030@\272"
  30      04AC0C2D 
  30      0D0D1314 
  30      1840BA
  31 0072 8120044C 		.ascii	"\201 \004L\206\202\034\300|\226\241i\007\220Ngd\004"
  31      86821CC0 
  31      7C96A169 
  31      07904E67 
  31      6404
  32 0084 99C70054 		.ascii	"\231\307\000T\303p\216\241\351\343\337\031\217%\340"
  32      C3708EA1 
  32      E9E3DF19 
  32      8F25E0
  33 0093 BAC08C86 		.ascii	"\272\300\214\206\003\335W\332YaF&2.fd\005\032\007q2"
  33      03DD57DA 
  33      59614626 
  33      322E6664 
  33      051A0771 
  34 00a8 10963283 		.ascii	"\020\2262\203|\314\014\361\266\034C\033\343\334\206"
  34      7CCC0CF1 
  34      B61C431B 
  34      E3DC86
  35 00b7 190E998C 		.ascii	"\031\016\231\214\314 n:X\031\\\256\023*\007u\373E\206"
  35      CC206E3A 
  35      58195CAE 
  35      132A0775 
  35      FB4586
  36 00ca C6073BF5 		.ascii	"\306\007;\365!\006\302@\010H\007H\271INf\222\276sFf"
  36      2106C240 
  36      08480748 
  36      B9494E66 
  36      92BE7346 
  37 00df 52A67F70 		.ascii	"R\246\177p\274\241\231\236\241\236\211\276~~\261~Q\211"
  37      BCA1999E 
  37      A19E89BE 
  37      7E7EB17E 
  37      5189
  38 00f1 7E417E51 		.ascii	"~A~QI\261\276c\220\257\263o\205~rFr~Qj|\231y\256^\006"
  38      49B1BE63 
  38      90AFB36F 
  38      857E7246 
  38      727E516A 
  39 010b 036B5962 		.ascii	"\003kYbNi\2529\016\255\251\025%\372\316\276\301\236"
  39      4E69AA39 
  39      0EADA915 
  39      25FACEBE 
  39      C19E
  40 011d C1FA9979 		.ascii	"\301\372\231y\3119\245)\251\372`\255\311\271n\245y\311"
ARM GAS  /tmp/ccFbAnkP.s 			page 3


  40      C939A529 
  40      A9FA60AD 
  40      C9B96EA5 
  40      79C9
  41 012f 40DD02BE 		.ascii	"@\335\002\276\301A\012I\211\305\251\005E\231:\012\252"
  41      C1410A49 
  41      89C5A905 
  41      45993A0A 
  41      AA
  42 0140 060C4C45 		.ascii	"\006\014LE\014\354\271\251\271\371E\225\014\000\027"
  42      0CECB9A9 
  42      B9F94595 
  42      0C0017
  43 014f 1D670F   		.ascii	"\035g\017"
  44              		.text
  45              		.section	.gnu.lto_port_unlock.956c86598476884d,"",%progbits
  46 0000 789C6362 		.ascii	"x\234cb`b@\007\"@,\314\310\3000\001\304af`\004\252`"
  46      60624007 
  46      22402CCC 
  46      C8C03001 
  46      C4616660 
  47 0017 6462040A 		.ascii	"db\004\012002\32431\326G\202\230\014\214J\014\013\033"
  47      303032D4 
  47      3331D647 
  47      82980C8C 
  47      4A0C0B1B 
  48 002b 1A263D68 		.ascii	"\032&=h\375\364\230if\303\201\226\005\015\177\376\377"
  48      FDF49869 
  48      66C38196 
  48      050D7FFE 
  48      FF
  49 003c 6764CC64 		.ascii	"gd\314d\004\232h\316\310\220\314\310\020\001\3440*\200"
  49      049A68CE 
  49      C890CCC8 
  49      1001E430 
  49      2A80
  50 004e 29261654 		.ascii	")&\026T+\3263\035x\360\377\377\213\316\375\373\200&"
  50      2BD6331D 
  50      78F0FFFF 
  50      8BCEFDFB 
  50      8026
  51 0060 3324322E 		.ascii	"3$2.\004\232\006\004\254\014-\015\015\023\024\030@\272"
  51      049A0604 
  51      AC0C2D0D 
  51      0D131418 
  51      40BA
  52 0072 8120044C 		.ascii	"\201 \004L\206\202\034\300|\226\241i\007\220Ngd\004"
  52      86821CC0 
  52      7C96A169 
  52      07904E67 
  52      6404
  53 0084 990736E4 		.ascii	"\231\0076\344\034C\323\307\2773\036K\300u\201\031\015"
  53      1C43D3C7 
  53      BF331E4B 
  53      C0758119 
  53      0D
  54 0095 074E3F6D 		.ascii	"\007N?mg\205\031\231\310\270\230\221\025h\034\304\311"
ARM GAS  /tmp/ccFbAnkP.s 			page 4


  54      67851999 
  54      C8B89891 
  54      15681CC4 
  54      C9
  55 00a6 4058CA0C 		.ascii	"@X\312\014\36213\304\333r\014m\214s\033f8d22\203\270"
  55      F23133C4 
  55      DB720C6D 
  55      8C731B66 
  55      38643232 
  56 00bc E9606570 		.ascii	"\351`ep\271N\250\034\324\355\027\031\032\037\234\327"
  56      B94EA81C 
  56      D4ED1719 
  56      1A1F9CD7 
  57 00cc 87180803 		.ascii	"\207\030\010\003! \035 \345&9\231I\372\316\031\231I"
  57      21201D20 
  57      E5263999 
  57      49FACE19 
  57      9949
  58 00de 99FEC1F1 		.ascii	"\231\376\301\361\206fz\206z&\372\372\371\305\372E%\372"
  58      86667A86 
  58      7A26FAFA 
  58      F9C5FA45 
  58      25FA
  59 00f0 05F94525 		.ascii	"\005\371E%\305\372\216A\276\316\276\025\372\311\031"
  59      C5FA8E41 
  59      BECEBE15 
  59      FAC919
  60 00ff C9F945A9 		.ascii	"\311\371E\251\361e\346\271z\031\014\254e\2119\245\251"
  60      F165E6B9 
  60      7A190CAC 
  60      658939A5 
  60      A9
  61 0110 E638B4A6 		.ascii	"\3468\264\246V\224\350;\373\006{\006\353g\346%\347\224"
  61      5694E83B 
  61      FB067B06 
  61      EB67E625 
  61      E794
  62 0122 A6A4EA83 		.ascii	"\246\244\352\203\265&\347\272\225\346%\003u\013\370"
  62      B526E7BA 
  62      95E62503 
  62      750BF8
  63 0131 06072924 		.ascii	"\006\007)$%\026\247\026\024e\352(\250\03200\0251\260"
  63      2516A716 
  63      1465EA28 
  63      A81A3030 
  63      1531B0
  64 0144 E7A6E6E6 		.ascii	"\347\246\346\346\027U2\000\000]Vg["
  64      17553200 
  64      005D5667 
  64      5B
  65              		.text
  66              		.section	.gnu.lto_chSysLock.956c86598476884d,"",%progbits
  67 0000 789C6362 		.ascii	"x\234cb`b@\007\"@|\010\210u@\034f\006F\240\012F&FF "
  67      60624007 
  67      22407C08 
  67      8875401C 
  67      660646A0 
ARM GAS  /tmp/ccFbAnkP.s 			page 5


  68 001a 8791A19E 		.ascii	"\207\221\241\236\211\261>\222\021\254l=\323\201\007"
  68      89B13E92 
  68      11AC6C3D 
  68      D38107
  69 0029 FFFFAFFB 		.ascii	"\377\377\257\3732m\331\037\306\333L 1V\206\226\206\206"
  69      326DD91F 
  69      C6DB4C20 
  69      31568696 
  69      8686
  70 003b 090A0C0C 		.ascii	"\011\012\014\014\311`\025!`2\024\244\237\371<C\363\203"
  70      C9601521 
  70      603214A4 
  70      9FF93C43 
  70      F383
  71 004d 3DDDEC89 		.ascii	"=\335\354\211\214\013\031Y\201\202\325\014\277\032:"
  71      8C0B1959 
  71      8182D50C 
  71      BF1A3A
  72 005c 1A043219 		.ascii	"\032\0042\031\201J!\246e\202h\220\252\275\335B\330T"
  72      814A21A6 
  72      65826890 
  72      AABDDD42 
  72      D854
  73 006e 31A1AADA 		.ascii	"1\241\252\332w\232\013\233*f\204\252\213\014\215\017"
  73      779A0B9B 
  73      2A6684AA 
  73      8B0C8D0F 
  74 007e F66BC314 		.ascii	"\366k\303\024A@\010H\002d\222VNf\222\276sFfR\246\177"
  74      41400848 
  74      02649256 
  74      4E6692BE 
  74      73466652 
  75 0094 70BCA199 		.ascii	"p\274\241\231\236\241\236\211\276~~\261~Q\211~f^rNi"
  75      9EA19E89 
  75      BE7E7EB1 
  75      7E51897E 
  75      665E724E 
  76 00a9 4AAA7E72 		.ascii	"J\252~rFqe\261^\006\003\000\204\275;\363"
  76      467165B1 
  76      5E060300 
  76      84BD3BF3 
  77              		.text
  78              		.section	.gnu.lto_chSysUnlock.956c86598476884d,"",%progbits
  79 0000 789CCD92 		.ascii	"x\234\315\222\275/DA\020\300gv\367\275s\276\033\011"
  79      BD2F4441 
  79      10C06776 
  79      F7BD73BE 
  79      1B09
  80 0012 2A513AB9 		.ascii	"*Q:\271\027\211\250t\376\000\005\0224\342\036q\233\334"
  80      1789A874 
  80      FE000512 
  80      34E21E71 
  80      9BDC
  81 0024 91380A51 		.ascii	"\2218\012Q\330;W\010\215(ihD'\321\351\024\012\211\210"
  81      D83B5708 
  81      8D286968 
  81      4427D1E9 
ARM GAS  /tmp/ccFbAnkP.s 			page 6


  81      140A8988 
  82 0038 E8505D24 		.ascii	"\350P]$*\327\023\021\317\354\276\367\316s\256!\012\223"
  82      2AD71311 
  82      CFECBEF7 
  82      CE73AE21 
  82      0A93
  83 004a BC99DD7D 		.ascii	"\274\231\335}3\277\231\335\031\006\014\252e\220>[\000"
  83      33BF99DD 
  83      19060CAA 
  83      65903E5B 
  83      00
  84 005b F4EA4D0C 		.ascii	"\364\352M\014\220<\220!'\315\031\035+f\223\022\202Y"
  84      903C9021 
  84      27CD191D 
  84      2B669312 
  84      8259
  85 006d 95B58564 		.ascii	"\225\265\205d\320F\244\000\2045\306\205e\343\332\204"
  85      D046A400 
  85      8435C685 
  85      65E3DA84 
  86 007d DE82DD0D 		.ascii	"\336\202\335\015\007J\355\224\036\237w;6\367\013\333"
  86      074AED94 
  86      1E9F773B 
  86      36F70BDB 
  87 008d EADDF350 		.ascii	"\352\335\363P\352_.\3028\255\260\313\030\215\216\212"
  87      EA5F2EC2 
  87      38ADB0CB 
  87      188D8E8A 
  88 009d 1FA64E8E 		.ascii	"\037\246N\216T|_\275y\036\377]\014\377/y\262\010\307"
  88      547C5FBD 
  88      791EFF5D 
  88      0CFF2F79 
  88      B208C7
  89 00b0 ECACE479 		.ascii	"\354\254\344y\345\323\323\2072\266\331\010\224\211i"
  89      E5D3D387 
  89      32B6D908 
  89      948969
  90 00bf C54971A1 		.ascii	"\305Iq\241W\026\030\022\331\242R\333]\331\240\024\222"
  90      57161812 
  90      D9A252DB 
  90      5DD9A014 
  90      92
  91 00d0 51A3C774 		.ascii	"Q\243\307t3\3705\254\227n\267\032\246\361\020\251\007"
  91      33F835AC 
  91      976EB71A 
  91      A6F110A9 
  91      07
  92 00e1 B00AAF6A 		.ascii	"\260\012\257jC\265J\024\256\351\000\020\204\316\265"
  92      43B54A14 
  92      AEE90010 
  92      84CEB5
  93 00f0 D7DD534B 		.ascii	"\327\335SK-/\366\351\345S)'\277\202\302\375\313s\247"
  93      2D2FF6E9 
  93      E5532927 
  93      BF82C2FD 
  93      CB73A7
  94 0103 EF3F8798 		.ascii	"\357?\207\230\200\036\252\310h\333\350\330\036\354\346"
ARM GAS  /tmp/ccFbAnkP.s 			page 7


  94      801EAAC8 
  94      68DBE8D8 
  94      1EECE6
  95 0112 9546D455 		.ascii	"\225F\324U`\361\254I\251/\0347\254\224_\001Y\014l8`"
  95      60F1AC49 
  95      A92F1C37 
  95      AC945F01 
  95      590C6C38 
  96 0127 17502C63 		.ascii	"\027P,c\205\256\011u\022\353\243|bU\207\177\2211\024"
  96      85AE0975 
  96      12EBA37C 
  96      6255877F 
  96      913114
  97 013a 7E9D9321 		.ascii	"~\235\223!\206E\212\374ay<\200Fq\334\200\032\010D\001"
  97      86458AFC 
  97      61793C80 
  97      4671DC80 
  97      1A084401 
  98 014e 8D841FF7 		.ascii	"\215\204\037\367'\325\004\210\032\001\342\257\037)\012"
  98      27D50488 
  98      1A01E2AF 
  98      1F290A
  99 015d B7AAAA11 		.ascii	"\267\252\252\021\265\252\271\200\363\307\312\253\362"
  99      B5AAB980 
  99      F3C7CAAB 
  99      F2
 100 016a B9B0A5FE 		.ascii	"\271\260\245\376sYfX\304\267\021hr\203\353\353\223v"
 100      73596658 
 100      C4B71168 
 100      7283EBEB 
 100      9376
 101 017c 89CD3468 		.ascii	"\211\3154h\201\223\304\2260\332\016F\355\3512Vk\210"
 101      8193C496 
 101      30DA0E46 
 101      EDE93256 
 101      6B88
 102 018e C4E710DD 		.ascii	"\304\347\020\335@\276TN\204N\276\214\352\273\351k\365"
 102      40BE544E 
 102      844EBE8C 
 102      EABBE96B 
 102      F5
 103 019f 6464CA19 		.ascii	"dd\312\031J\313\224\034\036\231\352\033H\366%\373\035"
 103      4ACB941C 
 103      1E99EA1B 
 103      48F625FB 
 103      1D
 104 01b0 6721E72C 		.ascii	"g!\347,.9r\336\315,\317\314:n:\267\222K\246\341\003"
 104      2E3972DE 
 104      CD2CCFCC 
 104      3A6E3AB7 
 104      924BA6E1 
 105 01c5 7DC6D102 		.ascii	"}\306\321\002"
 106              		.text
 107              		.section	.gnu.lto_chRegFirstThread.956c86598476884d,"",%progbits
 108 0000 789C8D50 		.ascii	"x\234\215PM(DQ\024>\347\3367f\260 \033M6\262cj\236)"
 108      4D284451 
 108      143EE7DE 
ARM GAS  /tmp/ccFbAnkP.s 			page 8


 108      3766B020 
 108      1B4D36B2 
 109 0018 6C2DACAC 		.ascii	"l-\254\254\020\212\225\314\243q\213hf6\262p\307P\262"
 109      108A95CC 
 109      A3718B68 
 109      6636B270 
 109      C750B2
 110 002b 90AC1825 		.ascii	"\220\254\030%\222\337\005\226\212\305l,\206$[YLvv\226"
 110      92DF0596 
 110      8AC56C2C 
 110      86245B59 
 110      4C767696 
 111 003f 925CE7BC 		.ascii	"\222\\\347\2747\217Hq\353\235{\336w\317\367\235s>\001"
 111      378F4871 
 111      EB9D7BDE 
 111      77CFF79D 
 111      733E01
 112 0052 027E9E3A 		.ascii	"\002~\236:\372\236\010n\346\037\013\220R\024()JD\202"
 112      FA9E086E 
 112      E61F0B90 
 112      52142829 
 112      4A4482
 113 0065 106685C4 		.ascii	"\020f\205\304\331A\316!\320\000\333Z\257\026w\367\016"
 113      D941CE21 
 113      D000DB5A 
 113      AF1677F7 
 113      0E
 114 0076 6B978A7A 		.ascii	"k\227\212zE\277\033\203\212\237\034\204\001\3120\344"
 114      45BF1B83 
 114      8A9F1C84 
 114      01CA30E4 
 115 0086 5E02BF37 		.ascii	"^\002\2777\361h\372\374\241{M\317\347\215i\377?\347"
 115      F168FAFC 
 115      A17B4DCF 
 115      E78D69FF 
 115      3FE7
 116 0098 F840CB2D 		.ascii	"\370@\313-\375f\214\374/'\227?\277*l#q3\317\306T)^\306"
 116      FD668CFC 
 116      2F27973F 
 116      BF2A6C23 
 116      7133CFC6 
 117 00b0 A7D57B34 		.ascii	"\247\325{4\353\267V\371\365\253\345\260\336\232\363"
 117      EBB756F9 
 117      F5ABE5B0 
 117      DE9AF3
 118 00bf B79202A2 		.ascii	"\267\222\002\242\370\007\363D\344\213\306\\\334\035"
 118      F807F344 
 118      E48BC65C 
 118      DC1D
 119 00cd 3C6E624D 		.ascii	"<nbM\031\3020\356b\003\271L\263J\016\026\207\000\270"
 119      19C230EE 
 119      6203B94C 
 119      B34A0E16 
 119      8700B8
 120 00e0 33D03DAF 		.ascii	"3\320=\257\365J\275W\343\316D\247\317\215\375\354\273"
 120      F54ABD57 
 120      E3CE44A7 
ARM GAS  /tmp/ccFbAnkP.s 			page 9


 120      CF8DFDEC 
 120      BB
 121 00f1 BC856C71 		.ascii	"\274\205lqy!8\214\373\030 p\006^\365\242\256Vh9\350"
 121      7921388C 
 121      FB182070 
 121      065EF5A2 
 121      AE566839 
 122 0106 2DAA18BF 		.ascii	"-\252\030\277\201\271\373\227\235\230W\225@\214\300"
 122      81B9FB97 
 122      9D985795 
 122      408CC0
 123 0115 91A6D343 		.ascii	"\221\246\323CMJi\253\302\262\015\310e4\223\203\2372"
 123      4D4A69AB 
 123      C2B20DC8 
 123      65349383 
 123      9F32
 124 0127 A1095785 		.ascii	"\241\011W\205\367\010\271r\361\222}q\364}d\355\263\275"
 124      F708B972 
 124      F1927D71 
 124      F47D64ED 
 124      B3BD
 125 0139 465F5B44 		.ascii	"F_[D\240Ia9i\021\247\202z1W\2268\342\213S8\015\372\024"
 125      A0496139 
 125      6911A782 
 125      7A315796 
 125      38E28B53 
 126 0151 99E0871B 		.ascii	"\231\340\207\033\310.J\037\262\010eb9z\325\235\336C"
 126      C82E4A1F 
 126      B2086562 
 126      397AD59D 
 126      DE43
 127 0163 69D8CA3F 		.ascii	"i\330\312?\032\020\037\200\235\331\270\374\325\031\361"
 127      1A101F80 
 127      9DD9B8FC 
 127      D519F1
 128 0172 CD99C2D9 		.ascii	"\315\231\302\331~\330\357\033H\370{\365\263\246\274"
 128      7ED8EF1B 
 128      48F87BF5 
 128      B3A6BC
 129 0181 860CED3D 		.ascii	"\206\014\355=\302\340\035\340g\225W\322\3070kE\306U"
 129      C2E01DE0 
 129      679557D2 
 129      C7306B45 
 129      C655
 130 0193 DCEE1853 		.ascii	"\334\356\030Sq\325\325;\024k\213\306\242-\266=\231\262"
 130      71D5D53B 
 130      146B8BC6 
 130      A22DB63D 
 130      99B2
 131 01a5 93693B95 		.ascii	"\223i;\225tlg,9\232P\251tr:\352\200HO}\0001R\256 "
 131      746C672C 
 131      399A50A9 
 131      74723AEA 
 131      80484F7D 
 132              		.text
 133              		.section	.gnu.lto_chRegNextThread.956c86598476884d,"",%progbits
 134 0000 789C9D53 		.ascii	"x\234\235SMh\023A\024~of\177\222\370\213\027-x(\275"
ARM GAS  /tmp/ccFbAnkP.s 			page 10


 134      4D681341 
 134      147E6F66 
 134      7F92F88B 
 134      172D7828 
 135 0015 69204B40 		.ascii	"i K@\024O\036<\351E\301\012z\222f[\267\003F%i\017\322"
 135      144F1E3C 
 135      E945C10A 
 135      7A92665B 
 135      B7034625 
 136 002c 43276D84 		.ascii	"C'm\204bE\202^B\275\264\027\251\036,Z\020\221\")(\030"
 136      6245825E 
 136      42BDB417 
 136      A91E2C5A 
 136      10912229 
 137 0042 4B293995 		.ascii	"K)9\225V\205 \026\365\3461Jq}\263\263\331\364\017\032"
 137      56852016 
 137      F5E6314A 
 137      717DB3B3 
 137      D9F40F1A 
 138 0056 1CD837BB 		.ascii	"\034\3307\273o\276\357\275\357\2757\313\200\301\326"
 138      6FBEEFBD 
 138      EFBD37CB 
 138      80C1D6
 139 0065 759E9EEB 		.ascii	"u\236\236\353\006@Z}\304\001\011\201\214q\000\311\310"
 139      06405A7D 
 139      C4010981 
 139      8C7100C9 
 139      C8
 140 0076 2B0D8E36 		.ascii	"+\015\2166y\014f*\217\245<&\322\206V\340\2671F6\206"
 140      790C662A 
 140      8FA53C26 
 140      D28656E0 
 140      B7314636 
 141 008b 48648461 		.ascii	"Hd\204a\306\015\323\262c8|U9\300\356\202))\037\326\327"
 141      C60DD3B2 
 141      63387C55 
 141      39C0EE82 
 141      29291FD6 
 142 00a0 669F1EBE 		.ascii	"f\237\036\276W\227%\371\327\367Q\250#\027\341\012\275"
 142      579725F9 
 142      D7F751A8 
 142      2317E10A 
 142      BD
 143 00b1 115B6D0C 		.ascii	"\021[m\0147k\322\264\312\213\361\373\377A\223\265\317"
 143      376BD2B4 
 143      CA8BF1FB 
 143      FF4193B5 
 143      CF
 144 00c2 17CBB258 		.ascii	"\027\313\262X\361\3753\355s\236OK>)\327}\237\267\313"
 144      F1FD33ED 
 144      739E4F4B 
 144      3E29D77D 
 144      9FB7CB
 145 00d5 99A8D416 		.ascii	"\231\250\324\026\252SH\334\302/\337? \220\267h\235\232"
 145      AA5348DC 
 145      C22FDF3F 
 145      2090B768 
ARM GAS  /tmp/ccFbAnkP.s 			page 11


 145      9D9A
 146 00e7 66EC58D5 		.ascii	"f\354X\325\357\217\017:\344\344H\263*\316 \205\2730"
 146      EF8F0F3A 
 146      E4E448B3 
 146      2ACE2085 
 146      BB30
 147 00f9 B30833AC 		.ascii	"\263\0103\254R\367\375\271\345o_\177\342\241\004B\017"
 147      52F7FDB9 
 147      E56F5F7F 
 147      E2A10442 
 147      0F
 148 010a 3EC12E60 		.ascii	">\301.`\230EJ\254?\214p7\201j\260\224\261\225\211)\023"
 148      98454AAC 
 148      3F8C7037 
 148      816AB094 
 148      B1958929 
 149 011f 8740209D 		.ascii	"\207@ \235\025\245,uj`6,\225Vw`/\253\351\363%\030\255"
 149      15A52C75 
 149      6A60362C 
 149      95567760 
 149      2FABE9F3 
 150 0136 BFBD6BF7 		.ascii	"\277\275k\367\3404\322\320a\010\376\3101yP\240\341\242"
 150      E034D2D0 
 150      6108FEC8 
 150      317950A0 
 150      E1A2
 151 0148 6E8450FE 		.ascii	"n\204P\376E\030Ym\314\234\326(\017y\022\236IZ\247(\317"
 151      4518596D 
 151      CC9CD628 
 151      0F79129E 
 151      495AA728 
 152 015d 6398A022 		.ascii	"c\230\240\",\017\231*\206\007\234L\324\303\017\360\356"
 152      2C0F992A 
 152      86079C4C 
 152      D4C30FF0 
 152      EE
 153 016e FBFCA371 		.ascii	"\373\374\243q\0361u\0029(\320\016\203\014\011\214e\221"
 153      1E317502 
 153      3928D00E 
 153      830C098C 
 153      6591
 154 0180 65704BE3 		.ascii	"epK\343\265F\012\310)\373\353\306\313*6\203\030\255"
 154      B5460AC8 
 154      29FBEBC6 
 154      CB2A3683 
 154      18AD
 155 0192 4C01C6D0 		.ascii	"L\001\306\320\230\325\306\354\261&\304L\302q\201\361"
 155      98D5C6EC 
 155      B126C44C 
 155      C27181F1 
 156 01a2 481CDF28 		.ascii	"H\034\337(\216m\020\027\0055\025\"\356\343\246\354f"
 156      8E6D1017 
 156      05351522 
 156      EEE3A6EC 
 156      66
 157 01b3 D021635B 		.ascii	"\320!c[w\022n\030Dy\216\010\334\223UC\012@\002\3676"
 157      77126E18 
ARM GAS  /tmp/ccFbAnkP.s 			page 12


 157      44798E08 
 157      DC935543 
 157      0A4002F7 
 158 01c8 D956A8AB 		.ascii	"\331V\250\253\374j>Jc\265#\214H\325R\242I\261=\025i"
 158      FC6A3E4A 
 158      63B5238C 
 158      48D552A2 
 158      49B13D15 
 159 01dd 1146C7A2 		.ascii	"\021F\307\2426\306\310\033\350E\215>\247\017\302\216"
 159      36C6C81B 
 159      E8458D3E 
 159      A70FC28E 
 160 01ed A67749E0 		.ascii	"\246wI\340\251\377XK\264\303+\360\351\375\216W\200\267"
 160      A9FF584B 
 160      B4C32BF0 
 160      E9FD8E57 
 160      80B7
 161 01ff AEC01214 		.ascii	"\256\300\022\024\353_\326\266\243\366\271h\204Q\231"
 161      EB5FD6B6 
 161      A3F6B968 
 161      845199
 162 020e C0FD5A7C 		.ascii	"\300\375Z|\371MGSj\334\323\203]\001\244\311\361\271"
 162      F94D4753 
 162      6ADCD383 
 162      5D01A4C9 
 162      F1B9
 163 0220 955ED264 		.ascii	"\225^\322d\255/\037U\351I\007_\200\002m\275*W\015\012"
 163      AD2F1F55 
 163      E949075F 
 163      80026DBD 
 163      2A570D0A 
 164 0234 F51F7D11 		.ascii	"\365\037}\021S\213\354V|%<yCd\234\263\375\"#.\\\272"
 164      538BEC56 
 164      7C253C79 
 164      43649CB3 
 164      FD22232E 
 165 024a 963E994A 		.ascii	"\226>\231J\247N8\316\255\274\223\033p\3629\327q\373"
 165      A74E38CE 
 165      ADBC931B 
 165      70F239D7 
 165      71FB
 166 025c 737D9EC8 		.ascii	"s}\236\310\017\344\356\244\\\3407\007n\377\003\364\017"
 166      0FE4EEA4 
 166      5CE03707 
 166      6EFF03F4 
 166      0F
 167 026d FECB     		.ascii	"\376\313"
 168              		.text
 169              		.section	.gnu.lto_.symbol_nodes.956c86598476884d,"",%progbits
 170 0000 789C4DCC 		.ascii	"x\234M\3149rB1\020\204\341\356\031\364\304f8\002\227"
 170      39724231 
 170      1084E1EE 
 170      19F4C466 
 170      380297
 171 0013 E0429CA4 		.ascii	"\340B\234\244_\231*\233\320\211O@\000\347\200\334\241"
 171      5F992A9B 
 171      D0894F40 
ARM GAS  /tmp/ccFbAnkP.s 			page 13


 171      00E780DC 
 171      A1
 172 0024 63202661 		.ascii	"c &a3x)\333o\241\020J\376\3724#\031\014C\242>\366\007"
 172      337829DB 
 172      6FA1104A 
 172      FEFA3423 
 172      190C43A2 
 173 003b 012F6F80 		.ascii	"\001/o\200\364:\031YN\361\2163\312\3568\247<1\034\213"
 173      F43A1959 
 173      4EF18E33 
 173      CAEE38A7 
 173      3C311C8B 
 174 004f 5F84F045 		.ascii	"_\204\360E6\344\266\247\032\327\341\373\204v\240Bb\370"
 174      36E4B6A7 
 174      1AD7E1FB 
 174      8476A042 
 174      62F8
 175 0061 A6154B61 		.ascii	"\246\025KaG\217\002?\250\254\036\3469y\242b\322'\325"
 175      478F023F 
 175      A8AC1EE6 
 175      3979A262 
 175      D227D5
 176 0074 4CBA50AD 		.ascii	"L\272P\255\2443\325N\372\241:7\271\001\217\253\337\242"
 176      A433D54E 
 176      FAA13A37 
 176      B9018FAB 
 176      DFA2
 177 0086 1D4CABB6 		.ascii	"\035L\253\266\261,\353=\214\253>\324\367\336\305\364"
 177      B12CEB3D 
 177      8CAB3ED4 
 177      F7DEC5F4 
 178 0096 693B7027 		.ascii	"i;p'\026e3\253\337e\216\305\272h\274:v\261\254\354\330"
 178      166533AB 
 178      DF658EC5 
 178      BA68BC3A 
 178      76B1ACEC 
 179 00ab 947BB18F 		.ascii	"\224{\261\217\361\363v\200\177\353n_l"
 179      F1F37680 
 179      7FEB6E5F 
 179      6C
 180              		.text
 181              		.section	.gnu.lto_.refs.956c86598476884d,"",%progbits
 182 0000 789C6362 		.ascii	"x\234cb`b\020g\200\000Vf\006\026&\026\006 dbed\003\222"
 182      60621067 
 182      80005666 
 182      06162616 
 182      06206462 
 183 0018 EC4C2C4C 		.ascii	"\354L,L\034\014\000\006\204\000a"
 183      1C0C0006 
 183      840061
 184              		.text
 185              		.section	.gnu.lto_.decls.956c86598476884d,"",%progbits
 186 0000 789CC55C 		.ascii	"x\234\305\\\013p\025U\232\356\356{\363\"!\0118\272\260"
 186      0B701555 
 186      9AEEEE7B 
 186      F3222109 
 186      38BAB0
ARM GAS  /tmp/ccFbAnkP.s 			page 14


 187 0013 E538196B 		.ascii	"\3458\031kf\313\325Y\0023\012\270S;\350R;2U\253k\351"
 187      66CBD559 
 187      02330AB8 
 187      533BE852 
 187      3B3255AB 
 188 0029 58B5555B 		.ascii	"X\265U[\263\227\346\246!w\2757\311\364\355\200\314>"
 188      B397E6A6 
 188      2177BD37 
 188      C9F4ED80 
 188      CC3E
 189 003b E8040CA0 		.ascii	"\350\004\014\240\026\206\004!\020\"\001$\200\203\002"
 189      16860421 
 189      10220124 
 189      808302
 190 004a 5140E4D5 		.ascii	"Q@\344\325\240$\210\210\020\220G\202\020\221\307\210"
 190      A0248888 
 190      10904782 
 190      1091C788 
 191 005a 0F0841DE 		.ascii	"\017\010A\336\220\375\317\337\347\364\355\356\333}\323"
 191      90FDCFDF 
 191      E7F4EDEE 
 191      DB7DD3
 192 0069 1D75B7AB 		.ascii	"\035u\267\253\372\334\323\335\347|\347\177\237g\"p\002"
 192      FADCD3DD 
 192      E77CE77F 
 192      9F672270 
 192      02
 193 007a B750E0B8 		.ascii	"\267P\340\270\036\270n=\301q\301~\034\227\301q\334o"
 193      1EB86E3D 
 193      C171C17E 
 193      1C97C171 
 193      DC6F
 194 008c B8C49503 		.ascii	"\270\304\225\003\367b\270\233\340^\011\367*\270W\303"
 194      F762B89B 
 194      E05E09F7 
 194      2AB857C3 
 195 009c 3D9DE7B8 		.ascii	"=\235\347\270YpW\303]\003\367\\\270\353\340^\000w\020"
 195      597057C3 
 195      5D03F75C 
 195      B8EBE05E 
 195      007710
 196 00af BEBF0ABF 		.ascii	"\276\277\012\277\017\000\366/\341\036)p\226\213\340"
 196      0F00F62F 
 196      E11E2970 
 196      968BE0
 197 00be A5C1ADC1 		.ascii	"\245\301\255\301\235K\333(\2012e\264\234@\313\310\266"
 197      9D4BDB28 
 197      813265B4 
 197      9C40CBC8 
 197      B6
 198 00cf 7A1CA5A3 		.ascii	"z\034\245\243\267\272M.uW\322\357\377\011\311\022\372"
 198      B7BA4D2E 
 198      7557D2EF 
 198      FF09C912 
 198      FA
 199 00e0 2E48DF93 		.ascii	".H\337\223\366\252)O\366\213\360\234\017\367ZS\233\031"
 199      F6AA294F 
ARM GAS  /tmp/ccFbAnkP.s 			page 15


 199      F68BF09C 
 199      0FF75A53 
 199      9B19
 200 00f2 269C6150 		.ascii	"&\234aP\247\011\356Ep\377\027\274\373o\270\267\300\373"
 200      A709EE45 
 200      70FF17BC 
 200      FB6FB8B7 
 200      C0FB
 201 0104 66B8FF07 		.ascii	"f\270\377\007\362S\340\256\345u\272\227\301\357*\270"
 201      F253E0AE 
 201      E575BA97 
 201      C1EF2AB8 
 202 0114 47C0BD1E 		.ascii	"G\300\275\036\356\315\224\037\322F\035\225#\221g\023"
 202      EECD941F 
 202      D2461D95 
 202      23916713 
 203 0124 A595C8F0 		.ascii	"\245\225\310\360U\033MD\376\331p\363&z\326\232\3501"
 203      551B4D44 
 203      FED970F3 
 203      267AD69A 
 203      E831
 204 0136 D392C7EB 		.ascii	"\323\222\307\353t\004h\333\315p\347\362\372\363j.\241"
 204      740468DB 
 204      CD70E7F2 
 204      FAF36A2E 
 204      A1
 205 0147 53D21669 		.ascii	"S\322\026iG\265\311\215\3509/E[\004\273B\320\333$m\021"
 205      47B5C98D 
 205      E8392F45 
 205      5B04BB42 
 205      D0DB246D 
 206 015c 7E2B29BF 		.ascii	"~+)\277S\341\267\236\266u\226\266\237K\345@pI\333\204"
 206      53E1B79E 
 206      B67596B6 
 206      9F4BE540 
 206      7049DB84 
 207 0170 57D23EB3 		.ascii	"W\322>\263\033b//\362:-\323l\264\374\204{U\325\366u"
 207      1B622F2F 
 207      F23A2DD3 
 207      6CB4FC84 
 207      7B55D5F6 
 208 0185 3E7FE673 		.ascii	">\177\346sa\276\252MS\301lU\276\340.\356\025\025\256"
 208      61BEAA4D 
 208      53C16C55 
 208      BEE02EEE 
 208      1515AE
 209 0198 C62A55E5 		.ascii	"\306*U\345\025\221\377\315\235\334\277\362\"\237\233"
 209      1591FFCD 
 209      9DDCBFF2 
 209      229F9B
 210 01a7 C5156026 		.ascii	"\305\025`&'\013q9N\344\227\360w\321\3343\001\035Q z"
 210      270B7139 
 210      4EE497F0 
 210      77D1DC33 
 210      011D5120 
 211 01bc B89F5B09 		.ascii	"\270\237[\011\365\253Uu\311\275\016\312\207\353o\270"
 211      F5AB5575 
ARM GAS  /tmp/ccFbAnkP.s 			page 16


 211      C9BD0ECA 
 211      87EB6FB8 
 212 01cc 65A40575 		.ascii	"e\244\005u\205\032@|\202\260\230\377\211\271\210\310"
 212      851A407C 
 212      82B098FF 
 212      89B988C8 
 213 01dc 2FE52DD4 		.ascii	"/\345-\324\352\264j\325'r\252+:{z\0265\346\353\355\013"
 213      EAB46AD5 
 213      2772AA2B 
 213      3A7B7A16 
 213      35E6EBED 
 214 01f1 DC181E4A 		.ascii	"\334\030\036J\277\306\337\237\022\276\311\016\277\334"
 214      BFC6DF9F 
 214      12BEC90E 
 214      BFDC
 215 01ff 09BEF348 		.ascii	"\011\276\363H\325\247i&Q\260&\246xib\245\275\211\327"
 215      D5A76926 
 215      51B026A6 
 215      786962A5 
 215      BD89D7
 216 0212 1D395878 		.ascii	"\0359Xx8\211\203\231\274\027\374Uv\3747\222\361\033"
 216      38898399 
 216      BC17FC55 
 216      76FC3792 
 216      F11B
 217 0224 B5CE8EDD 		.ascii	"\265\316\216\335;\233\371\331S\325]\352\205\236\236"
 217      3B9BF9D9 
 217      53D55DEA 
 217      859E9E
 218 0233 BC7C8B36 		.ascii	"\274|\2136\263\271\027T\265\222<\214\331\225;\220\233"
 218      B3B91754 
 218      B5923C8C 
 218      D9953B90 
 218      9B
 219 0244 4DBE14CC 		.ascii	"M\276\024\314\370\034\264DU\254\2463\035\217\005\304"
 219      F81CB444 
 219      55ACA633 
 219      1D8F05C4 
 220 0254 9F73AF81 		.ascii	"\237s\257\201\036;k\367n\373{U\315\024\371f~ P\333e"
 220      1E3B6BF7 
 220      6EFB7B55 
 220      CD14F966 
 220      7E2050DB 
 221 0269 A3B6771C 		.ascii	"\243\266w\034\201\273\216u\326A}\275&\"\253\235\363"
 221      81BB8E75 
 221      D6417DBD 
 221      2622AB9D 
 221      F3
 222 027a 6B764EE5 		.ascii	"kvN\345+\2002\375\033g\223\202\351\372)\327\010\224"
 222      2B8032FD 
 222      1B679382 
 222      E9FA29D7 
 222      0894
 223 028c 6BF36635 		.ascii	"k\363f5\014V\033w@\371\265|6\340\256\021\030\256\223"
 223      0C561B77 
 223      40F9B57C 
 223      36E0AE11 
ARM GAS  /tmp/ccFbAnkP.s 			page 17


 223      18AE93
 224 029f 8DD2AC7E 		.ascii	"\215\322\254~\321\002V\274\005{s\252E\006\266\3017X"
 224      D10256BC 
 224      057B73AA 
 224      4506B6C1 
 224      3758
 225 02b1 81056CD1 		.ascii	"\201\005l\321\336\205H\\\0267#!e\316\021\214J\366V\355"
 225      DE85485C 
 225      16372321 
 225      65CE118C 
 225      4AF656ED 
 226 02c5 FBFBF9A9 		.ascii	"\373\373\371\251\310\377\026\250&p\267\005\253l\275"
 226      C8FF16A8 
 226      2670B705 
 226      AB6CBD
 227 02d4 43352CD8 		.ascii	"C5,\330\271\235\257D(\015\241^\013\364\025jS\375\346"
 227      B99DAF44 
 227      280DA15E 
 227      0BF4156A 
 227      53FDE6
 228 02e7 8751DFEF 		.ascii	"\207Q\337\357!P\207\015H\3443\0141\032\317\254\000A"
 228      2150870D 
 228      48E4330C 
 228      311ACFAC 
 228      0041
 229 02f9 C3CF3443 		.ascii	"\303\3174C\272\302<\356\007..pg\002\036T\227\351f\007"
 229      BAC23CEE 
 229      072E2E70 
 229      67021E54 
 229      97E96607 
 230 030d 6A675DCD 		.ascii	"jg]\315\236\000\361\373\0005\346\306t7\031\011\334\327"
 230      9E00F1FB 
 230      0035E6C6 
 230      74371909 
 230      DCD7
 231 031f D8D62EBB 		.ascii	"\330\326.\273-w\234\330SImy\227'[^\267{\036\232\213"
 231      2D779CD8 
 231      53496D79 
 231      97275B5E 
 231      B77B1E9A 
 232 0334 A3539A9A 		.ascii	"\243S\232\232o\024X\373?\303\366\233\202\244\375\217"
 232      6F1458FB 
 232      3FC3F69B 
 232      82A4FD8F 
 233 0344 ECED2FEB 		.ascii	"\354\355/\353\331\316\243\326>\362\324\372\376\2669"
 233      D9CEA3D6 
 233      3EF2D4FA 
 233      FEB639
 234 0353 C9ADBB46 		.ascii	"\311\255\273F{j\031\035'\316tQ\036\367\243\3134\007"
 234      7B6A191D 
 234      27CE7451 
 234      1EF7A3CB 
 234      3407
 235 0365 EDB6312A 		.ascii	"\355\2661*\333\252=x6\025\020\270M\006\365}\362\330"
 235      DBAA3D78 
 235      361510B8 
 235      4D06F57D 
ARM GAS  /tmp/ccFbAnkP.s 			page 18


 235      F2D8
 236 0377 CE65AFEF 		.ascii	"\316e\257\357\306\316*\300H\330\352\033\260\300\"\210"
 236      C6CE2AC0 
 236      48D8EA1B 
 236      B0C02288 
 237 0387 836D1802 		.ascii	"\203m\030\002t\260\355^\300\\\355\250R;d\006{\3377\230"
 237      74B0ED5E 
 237      C05CEDA8 
 237      523B6406 
 237      7BDF3798 
 238 039b 95B22366 		.ascii	"\225\262#f\260V/`\371\356\224\265\233\301v\373\006\263"
 238      B0562F60 
 238      F9EE94B5 
 238      9BC176FB 
 238      06B3
 239 03ad 5276CC0C 		.ascii	"Rv\314\014\366\221\027\260A\356\224\0357\203\355\367"
 239      F69117B0 
 239      41EE941D 
 239      3783EDF7 
 240 03bd 0D66A5EC 		.ascii	"\015f\245\354\202\031\354\023/`\005\016\224\031\227"
 240      8219EC13 
 240      2F60050E 
 240      941997
 241 03cc DBC8670F 		.ascii	"\333\310g\017o\230\271\300\035\011\262\200\340\323\244"
 241      6F98B9C0 
 241      1D09B280 
 241      E0D3A4
 242 03db B904C6B1 		.ascii	"\271\004\306\261\240\337\000f\341\033z\322\217\226\362"
 242      A0DF0066 
 242      E11B7AD2 
 242      8F96F2
 243 03ea B5D0EB0F 		.ascii	"\265\320\353\017e\275\331I/\210)\014f\275\271k<\347"
 243      65BDD949 
 243      2F88290C 
 243      66BDB96B 
 243      3CE7
 244 03fc 1BCCAA96 		.ascii	"\033\314\252\226\203\004\314\022jhw\324\271L\033T\227"
 244      8304CC12 
 244      6A6877D4 
 244      B94C1B54 
 244      97
 245 040d 8875990C 		.ascii	"\210u\231\014\213\014\034\365\300\006\343H\301(\254"
 245      8B0C1CF5 
 245      C006E348 
 245      C128AC
 246 041c 0E1AE45C 		.ascii	"\016\032\344\\V\344\277\341\177\016\351y>\313\240B\317"
 246      56E4BFE1 
 246      7F0EE979 
 246      3ECBA042 
 246      CF
 247 042d B35C0F4F 		.ascii	"\263\\\017O\344|1\350<$\355\265\252\233%|e\266\204+"
 247      E47C31E8 
 247      3C24EDB5 
 247      AA9B257C 
 247      65B6842B 
 248 0441 5EC494C2 		.ascii	"^\304\224\302\025.\270\211I\253Rg\360\025k\3576\352"
 248      152EB889 
ARM GAS  /tmp/ccFbAnkP.s 			page 19


 248      49AB5267 
 248      F0156BEF 
 248      36EA
 249 0453 3D62B609 		.ascii	"=b\266\011#:\177\263\230\016\001.\351\243\211\240\343"
 249      233A7FB3 
 249      980E012E 
 249      E9A389A0 
 249      E3
 250 0464 10C01358 		.ascii	"\020\300\023X\303\202\217\331x\342\012\202\315L\353"
 250      C3828FD9 
 250      78E20A82 
 250      CD4CEB
 251 0473 3358E3A6 		.ascii	"3X\343\246\216\273\325\240\310_G\240\2324{\237\221e"
 251      8EBBD5A0 
 251      C85F47A0 
 251      9A347B9F 
 251      9165
 252 0485 1B4F6459 		.ascii	"\033OdY{\374\254\254D\246\207]V5\376\240u\334T\337m"
 252      7BFCACAC 
 252      44A6875D 
 252      5635FEA0 
 252      75DC54DF 
 253 049a 567D439A 		.ascii	"V}C\232_\325[<\244\263\256\355x`\236\252U\004L\266\236"
 253      5FD55B3C 
 253      A4B3AEED 
 253      78609EAA 
 253      55044CB6 
 254 04af D23160F4 		.ascii	"\3221`\364x`\353?`\217\337\203r]\341\254 \017@\015\013"
 254      7860EB3F 
 254      608FDF83 
 254      725DE1AC 
 254      200F400D 
 255 04c4 DE780081 		.ascii	"\336x\000\201*\005\002\264\266\317@\233\352_\035\211"
 255      2A0502B4 
 255      B6CF409B 
 255      EA5F1D89 
 256 04d4 40CF23D0 		.ascii	"@\317#\320\306$M\3636M\363V\015\030^G\235\356\207*+"
 256      C6244DF3 
 256      364DF356 
 256      0D185E47 
 256      9DEE872A 
 257 04e9 70EFD9D5 		.ascii	"p\357\331\325ea'E\327\300\342m\333\251Z\276\273R\255"
 257      65612745 
 257      D7C0E26D 
 257      DBA95ABE 
 257      BB52AD
 258 04fc 1BEA435F 		.ascii	"\033\352C_\265T_/\240t>L\222\016\021\277?6\016\370f"
 258      B5545F2F 
 258      A0743E4C 
 258      920E11BF 
 258      3F360EF8 
 259 0511 23D3CA46 		.ascii	"#\323\312F\315\331>\260\261Mg\343ed\243\343{`\343s\337"
 259      CDD93EB0 
 259      B14D67E3 
 259      6564A3E3 
 259      7B60E373 
 260 0526 6CE49BD8 		.ascii	"l\344\233\330\200yd\333\2459z\357w\007W\223z\374N\350"
ARM GAS  /tmp/ccFbAnkP.s 			page 20


 260      807964DB 
 260      A5397AEF 
 260      77075793 
 260      7AFC4EE8 
 261 053a 9923DC61 		.ascii	"\231#\334a\031;k\337~L\346\372\344uo\003gU\253m3\315"
 261      193B6BDF 
 261      7E4CE6FA 
 261      E4756F03 
 261      6755AB6D 
 262 0550 F2544FB3 		.ascii	"\362TO\263\274\003\306,o\036\212\354\234\223\203y\201"
 262      BC03C62C 
 262      6F1E8AEC 
 262      9C938379 
 262      81
 263 0561 6A6C68BF 		.ascii	"jlh\277\223\004\322\005\010s\241\2570\235\233:6\350"
 263      9304D205 
 263      0873A1AF 
 263      309D9B3A 
 263      36E8
 264 0573 7EDA8040 		.ascii	"~\332\200@W\223T\230n\323`\272U\203\360HZ\272\212\001"
 264      57935498 
 264      6ED360BA 
 264      5583F048 
 264      5ABA8A01 
 265 0587 720A7D43 		.ascii	"r\012}C\0362\270\377\363z\002W\231\316S\245\372\034"
 265      1E32B8FF 
 265      F37A0257 
 265      99CE53A5 
 265      FA1C
 266 0599 7F31EBA9 		.ascii	"\1771\353\251\3313\207\215\235t\005\315\374N\210\225"
 266      D933878D 
 266      9D7405CD 
 266      FC4E8895 
 267 05a9 DAB61AB6 		.ascii	"\332\266\032\266L1\212\214\236j\276#\034\016\267-\303"
 267      4C318A8C 
 267      9E6ABE23 
 267      1C0EB72D 
 267      C3
 268 05ba 02DBACAD 		.ascii	"\002\333\254\255\331\245\333a\0138\263ZX_\276\\ \004"
 268      D9A5DB61 
 268      0B38B35A 
 268      585FBE5C 
 268      2004
 269 05cc CD4FB72B 		.ascii	"\315O\267+|-o\233\267\221\027\246\"n\256\324$\230\372"
 269      7C2D6F9B 
 269      B79117A6 
 269      226EAED4 
 269      2498FA
 270 05df C055DF8D 		.ascii	"\300U\337\215OP\304\211\327tE\3646'\036\313\320r\260"
 270      4F50C489 
 270      D77445F4 
 270      36271ECB 
 270      D072B0
 271 05f2 E1666CF8 		.ascii	"\341fl\370\015\3016%\356\351\356\254\242|\223o\275\373"
 271      0DC13625 
 271      EEE9EEAC 
 271      A27C936F 
ARM GAS  /tmp/ccFbAnkP.s 			page 21


 271      BDFB
 272 0604 76C7E92C 		.ascii	"v\307\351,\265&\307\241=\247\021R\355\254\203\263\371"
 272      B526C7A1 
 272      3DA71152 
 272      EDAC83B3 
 272      F9
 273 0615 6988BE56 		.ascii	"i\210\276V \013c\347lRek\011\217\270\001\011\334u\254"
 273      200B63E7 
 273      6C52656B 
 273      098FB801 
 273      09DC75AC 
 274 0629 F2B69DF0 		.ascii	"\362\266\235\360\371mW\330Z\302\333\036\010\257\324"
 274      F96D57D8 
 274      5AC2DB1E 
 274      08AFD4
 275 0638 BA5E34AF 		.ascii	"\272^4\257\213\211\374F^\240\270}\263\270\213\037\032"
 275      8B89FC46 
 275      5EA0B87D 
 275      B3B88B1F 
 275      1A
 276 0649 837F91DF 		.ascii	"\203\177\221\337\344\033\254\300\211TfY\011nE~\275@"
 276      E41BACC0 
 276      89546659 
 276      096E457E 
 276      BD40
 277 065b 06ED1B84 		.ascii	"\006\355\033\204\237B\372\016\244\306%p/f0\235:\211"
 277      9F42FA0E 
 277      A4C62570 
 277      2F66309D 
 277      3A89
 278 066d AE77AFEE 		.ascii	"\256w\257\356\351\276:W7&?\221\272\205E\352M\030\010"
 278      E9BE3A57 
 278      37263F91 
 278      BA8545EA 
 278      4D1808
 279 0680 6A33EC8E 		.ascii	"j3\354\216\262\300\336\271\371\012U\363\355Ly]_0.7G"
 279      B2C0DEB9 
 279      F90A55F3 
 279      ED4C795D 
 279      5F302E37 
 280 0695 5C6576C4 		.ascii	"\\ev\304E\031\337\321\021\333\316ztD\225gp\371\330r"
 280      4519DFD1 
 280      11DBCE7A 
 280      74449567 
 280      70F9D872 
 281 06a9 13B6BCC3 		.ascii	"\023\266\274\303n\320\333n\354\232N\015z\207'O\374\026"
 281      6ED0DB6E 
 281      EC9A4E0D 
 281      7A87274F 
 281      FC16
 282 06bb 3D917956 		.ascii	"=\221yV\273\201\332\027[\250\324\256}\361\001\257\303"
 282      BB81DA17 
 282      5BA8D4AE 
 282      7DF101AF 
 282      C3
 283 06cc E953633B 		.ascii	"\351Sc;\234W-P\270\233\222_\301\350\366\245\035=M\306"
 283      9C572D50 
ARM GAS  /tmp/ccFbAnkP.s 			page 22


 283      B89B925F 
 283      C1E8F6A5 
 283      1D3D4DC6 
 284 06e0 191FEAD1 		.ascii	"\031\037\352\321\"\311\264t\311\230Lk\207\311S\336G"
 284      22C9B474 
 284      C9984C6B 
 284      87C953DE 
 284      47
 285 06f1 4FD9899E 		.ascii	"O\331\211\236\322\212\351\007f\177q3\213\335f\263\270"
 285      D28AE907 
 285      667F7133 
 285      8BDD66B3 
 285      B8
 286 0702 E89BEF02 		.ascii	"\350\233\357\002\217\326\267\335\334\314\265\357h}u"
 286      8FD6B7DD 
 286      DCCCB5EF 
 286      687D75
 287 0711 6DE783B8 		.ascii	"m\347\203\270\304\347c!\375\300N\346\270\373\321q\325"
 287      C4E76321 
 287      FDC04EE6 
 287      B8FBD171 
 287      D5
 288 0722 4CBB7435 		.ascii	"L\273t5\373\334\303\313\272\362K\231}d\305\270 \206"
 288      FBDCC3CB 
 288      BAF24B99 
 288      7D64C5B8 
 288      2086
 289 0734 647A9819 		.ascii	"dz\230\031\0268H\335\030\236\\\241\303\223^\027\247"
 289      163848DD 
 289      189E5CA1 
 289      C3935E17 
 289      A7
 290 0745 8D0D9B3D 		.ascii	"\215\015\233=\025\264g:\214\2666/\323\271gJ\261\312"
 290      15B4673A 
 290      8CB6362F 
 290      D3B9674A 
 290      B1CA
 291 0757 DD8455DA 		.ascii	"\335\204U\332\223z\246\232K\254gj\367\3243\035p\354"
 291      937AA69A 
 291      4BAC676A 
 291      F7D4331D 
 291      70EC
 292 0769 99DAFDF7 		.ascii	"\231\332\375\367LN\227\231@\221?\206.\362\251\265\033"
 292      4C4E9799 
 292      40913F86 
 292      2EF2A9B5 
 292      1B
 293 077a 59EF45FA 		.ascii	"Y\357E\372\367\271\031\243\252];\260\220\247\364\243"
 293      F7B919A3 
 293      AA5D3BB0 
 293      90A7F4A3 
 294 078a 28353B9E 		.ascii	"(5;\236S(\262\340Y\264\251U\037\302\236U\037g~\350\205"
 294      5328B2E0 
 294      59B4A955 
 294      1FC29E55 
 294      1F677EE8 
 295 079f B8A16E60 		.ascii	"\270\241n`\225\332B\035L7\371\375^\300F\272qZ\251m\232"
ARM GAS  /tmp/ccFbAnkP.s 			page 23


 295      95DA421D 
 295      4C37F9FD 
 295      5EC046BA 
 295      715AA96D 
 296 07b4 CB34B51D 		.ascii	"\3134\265\035\007\211\307|\343Y\211;ph!\305\323\367"
 296      0789C77C 
 296      E359893B 
 296      706821C5 
 296      D3F7
 297 07c6 B6CE78C1 		.ascii	"\266\316x\301{\304\235\276\256\271"
 297      7BC49DBE 
 297      AEB9
 298 07d0 96417597 		.ascii	"\226Au\227o8\253\"n\035\"\212}i\220\323\366\245f\004"
 298      6F38AB22 
 298      6E1D228A 
 298      7D6990D3 
 298      F6A56604 
 299 07e4 6FB26243 		.ascii	"o\262bC\275\252{y\327`=\304|\205\226\2604\253\367}P"
 299      BDAA7B79 
 299      D7603DC4 
 299      7C8596B0 
 299      34ABF77D 
 300 07f9 2B10AE32 		.ascii	"+\020\2562\332<J[\333\222C\246t\347=y\323[-\276\267"
 300      DA3C4A5B 
 300      DB9243A6 
 300      74E73D79 
 300      D35B2DBE 
 301 080e 180F6CD6 		.ascii	"\030\017l\326g\353\027\321H\326g}/qq+\302\234\357\353"
 301      67EB17D1 
 301      48D6677D 
 301      2F71712B 
 301      C29CEFEB 
 302 0822 F81264B9 		.ascii	"\370\022d\271\177\360\306fU\235\231\316\010{\3177\242"
 302      7FF0C666 
 302      559D99CE 
 302      087BCF37 
 302      A2
 303 0833 D5DAD6B7 		.ascii	"\325\332\326\267\240+\350`\037x\001K\321\301\277C\300"
 303      A02BE860 
 303      1F78014B 
 303      D1C1BF43 
 303      C0
 304 0844 FC6CE3B6 		.ascii	"\374l\343\266\262\336\347\006\266\277\367\373\221\362"
 304      B2DEE706 
 304      B6BFF7FB 
 304      91F2
 305 0852 27BED9B0 		.ascii	"'\276\331\260\310\004\244\374\305\340\215o\253\352\332"
 305      C804A4FC 
 305      C5E08D6F 
 305      ABEADA
 306 0861 B17E567E 		.ascii	"\261~V~o\325n\321-F\015\020^\016'\361r\305\316\213\307"
 306      6FD56ED1 
 306      2D460D10 
 306      5E0E27F1 
 306      72C5CE8B 
 307 0876 755481EB 		.ascii	"uT\201\353\2643\344\024<\235\366$\234.\263/\211\374"
 307      B433E414 
ARM GAS  /tmp/ccFbAnkP.s 			page 24


 307      3C9DF624 
 307      9C2EB32F 
 307      89FC
 308 0888 050CFE5D 		.ascii	"\005\014\376]82\272\214\351UL\257c\332c\355\024\276"
 308      3832BA8C 
 308      E9554CAF 
 308      63DA63ED 
 308      14BE
 309 089a CCB2C50E 		.ascii	"\314\262\305\016\253\237\322\354\030\317\204$\0166\300"
 309      AB9FD2EC 
 309      18CF8424 
 309      0E36C0
 310 08a9 6406F721 		.ascii	"d\006\367!\336\341I\263\357b\272\031\323VL\317b\372"
 310      DEE149B3 
 310      EF62BA19 
 310      D3564CCF 
 310      62FA
 311 08bb 05A65F62 		.ascii	"\005\246_bz\021\323\333\230\316DbgaZ\213\351!LO`\372"
 311      7A11D3DB 
 311      98CE4462 
 311      67615A8B 
 311      E9214C4F 
 312 08d1 19A69F63 		.ascii	"\031\246\237cz\032\323\263\230~\201\351\227^\206\203"
 312      7A1AD3B3 
 312      987E81E9 
 312      975E8683 
 313 08e1 1E67F56B 		.ascii	"\036g\365k\034\016\366t\333\354\200\036R\251\244\007"
 313      1C0EF674 
 313      DBEC801E 
 313      52A9A407 
 314 08f1 4EDEAB1C 		.ascii	"N\336\253\034\303V\021D~5\377\023\027l\374\374|\300"
 314      C3561144 
 314      7E35FF13 
 314      176CFCFC 
 314      7CC0
 315 0903 E1E08A76 		.ascii	"\341\340\212vy7=\030c?\201DP\335(\235\021\320)\015\340"
 315      79373D18 
 315      633F8144 
 315      50DD289D 
 315      11D0290D 
 316 0918 812B8343 		.ascii	"\201+\203CF6R>\255\237\225\362\237qKU\265F\255\227\306"
 316      4636523E 
 316      AD9F95F2 
 316      9F714B55 
 316      B546AD97 
 317 092d B009C11C 		.ascii	"\260\011\301\034,1=\340L\265\261:\2423\254n8\365\244"
 317      2C313DE0 
 317      4CB5B13A 
 317      A233AC6E 
 317      38F5A4
 318 0940 8957B75A 		.ascii	"\211W\267Z\224\300\027\222y\355\254\356<\321\274\375"
 318      94C01792 
 318      79EDACEE 
 318      3CD1BCFD 
 319 0950 D775CDEA 		.ascii	"\327u\315\352\264\231\352\355\236)<;\007\364~?\273\210"
 319      B499EAED 
 319      9E293C3B 
ARM GAS  /tmp/ccFbAnkP.s 			page 25


 319      07F47E3F 
 319      BB88
 320 0962 758C971D 		.ascii	"u\214\227\0351\216\254\2776x\276\272\203\234U\232\302"
 320      318EACBF 
 320      3678BEBA 
 320      839C559A 
 320      C2
 321 0973 31888A6C 		.ascii	"1\210\212lg\210\331\316\020U\207\203\006\204\367s_\265"
 321      6788D9CE 
 321      10558783 
 321      0684F773 
 321      5FB5
 322 0985 76A17F95 		.ascii	"v\241\177\225,\364E.\204\274\342\302\313\366\277N\342"
 322      2CF4452E 
 322      84BCE2C2 
 322      CBF6BF4E 
 322      E2
 323 0996 65A50BC4 		.ascii	"e\245\013\304<G\210\343\315\037\374:\011\242\305\005"
 323      3C4788E3 
 323      CD1FFC3A 
 323      09A2C505 
 324 09a6 62BE23C4 		.ascii	"b\276#\304\205\255G\007\367A\034\365\036lpz\2163!\015"
 324      85AD4707 
 324      F7411CF5 
 324      1E6C707A 
 324      8E33210D 
 325 09ba 5642EEE5 		.ascii	"VB\356\345\026\023B\346\267\355\031\264\252R\235\266"
 325      161342E6 
 325      B7ED19B4 
 325      AA529DB6 
 326 09ca 1608E8E1 		.ascii	"\026\010\350\341{F9\016-\376\300\3508B\014\321X\224"
 326      7B46390E 
 326      2DFEC0E8 
 326      38420CD1 
 326      5894
 327 09dc BAB49876 		.ascii	"\272\264\230vE\213\002d\2242\307\326\260\007(\201k\304"
 327      458B0264 
 327      9432C7D6 
 327      B0072881 
 327      6BC4
 328 09ee 4A4B02C9 		.ascii	"JK\002\311\307\265\330,\236|\353}\026\337p\\\037<;\314"
 328      C7B5D82C 
 328      9E7CEB7D 
 328      16DF705C 
 328      1F3C3BCC 
 329 0a02 8F3B8D88 		.ascii	"\217;\215\210{\267\211\372\275\207?\243\3247!\365\257"
 329      7BB789FA 
 329      BD873FA3 
 329      D43721F5 
 329      AF
 330 0a13 BB50EF0A 		.ascii	"\273P\357\012$p\033\260\312\312d\332\017VQ\332Wz\242"
 330      24701BB0 
 330      CACA64DA 
 330      0F5651DA 
 330      577AA2
 331 0a26 FD40BB75 		.ascii	"\375@\273u\340\277\323\300M\321w\351\227\343\230\342"
 331      E0BFD3C0 
ARM GAS  /tmp/ccFbAnkP.s 			page 26


 331      4DD177E9 
 331      97E398E2 
 332 0a36 603B0E50 		.ascii	"`;\016P\364\261\360Gv0_\003\024U;\242\203\355\302\003"
 332      F4B1F047 
 332      76305F03 
 332      14553BA2 
 332      83EDC203 
 333 0a4a 79077D83 		.ascii	"y\007}\203\025X(;\261\300z\250\256\335\013^\212\223"
 333      1558283B 
 333      B1C07AA8 
 333      AEDD0B5E 
 333      8A93
 334 0a5c 0317DA4D 		.ascii	"\003\027\332M'\007N\372\006\263\022w\331\014v\316\013"
 334      27074EFA 
 334      06B31277 
 334      D90C76CE 
 334      0B
 335 0a6d 98D3FEBA 		.ascii	"\230\323\376\272\323e6\022\221\377s\200t\333\253\002"
 335      D3653612 
 335      91FF7380 
 335      74DBAB02 
 336 0a7d A42B7D13 		.ascii	"\244+}\023\3235\2306c\3726\246\353\003\226Q\304%\303"
 336      D3359836 
 336      63FA36A6 
 336      EB039651 
 336      C425C3
 337 0a90 4B1C4DB1 		.ascii	"K\034M\2617\223P\265u\356\356\341\264|\004\316}\266"
 337      379350B5 
 337      75EEEEE1 
 337      B47C04CE 
 337      7DB6
 338 0aa2 827F1E6D 		.ascii	"\202\177\036m\370]t\217\353\275\273\207}\201\256\272"
 338      F85D748F 
 338      EBBDBB87 
 338      7D81AEBA 
 339 0ab2 3FA9B225 		.ascii	"?\251\262%\311=\332n=O\335c\213\007\367\250\324\256"
 339      C93DDA6E 
 339      3D4FDD63 
 339      8B07F7A8 
 339      D4AE
 340 0ac4 CD6BF076 		.ascii	"\315k\360vz\315h\377G&F\366\236bK\347;\220\221\345\375"
 340      7ACD68FF 
 340      472646F6 
 340      9E624BE7 
 340      3B9091E5 
 341 0ad9 7B65C40A 		.ascii	"{e\304\012\004~\216Uv&3\3625cd\247'F6\3163\246\275\001"
 341      047E8E55 
 341      762633F2 
 341      356364A7 
 341      274636CE 
 342 0af1 6263BB0C 		.ascii	"bc\273\014\334>Mm\264w\017\243\301\352`\373|\203Y\255"
 342      DC3E4D6D 
 342      B4770FA3 
 342      C1EA60FB 
 342      7C8359AD 
 343 0b05 7FCB61BF 		.ascii	"\177\313a\277\363\275\332\275\353\356\327\217\001\342"
 343      F3BDDABD 
ARM GAS  /tmp/ccFbAnkP.s 			page 27


 343      EBEED78F 
 343      01E2
 344 0b13 E8FD884D 		.ascii	"\350\375\210M\260}\234\211\234\364\302\207\373\204\012"
 344      B07D9C89 
 344      9CF4C287 
 344      FB840A
 345 0b22 B472FE15 		.ascii	"\264r\376\025\207\005e\357}\354\001{\037;\312\326\305"
 345      870565EF 
 345      7DEC017B 
 345      1F3BCAD6 
 345      C5
 346 0b33 A612C9AC 		.ascii	"\246\022\311\254\343\025t\033\250\015\265\362\245M("
 346      E315741B 
 346      A80DB5F2 
 346      A54D28
 347 0b42 B6DD34D2 		.ascii	"\266\3354\322\226\033\035\207\003\331.\026\225\364\015"
 347      961B1D87 
 347      03D92E16 
 347      95F40D
 348 0b51 02846FA9 		.ascii	"\002\204o\251Y\264O\266\265\227\261\215I\\\363\270\351"
 348      59B44FB6 
 348      B597B18D 
 348      495CF3B8 
 348      E9
 349 0b62 05D0FBFC 		.ascii	"\005\320\373\374i\247)\376\265b\374\333\205qn7\246{"
 349      69A729FE 
 349      B562FCDB 
 349      85716E37 
 349      A67B
 350 0b74 30DD8FE9 		.ascii	"0\335\217\351\321\200\207\311\0051y\003\373\203\200"
 350      D18087C9 
 350      05317903 
 350      FB8380
 351 0b83 40E34CDF 		.ascii	"@\343L\337\334\350f\302\215D\376C\337`\026Aj\263\333"
 351      DCE866C2 
 351      8D44FE43 
 351      DF601641 
 351      6AB3DB
 352 0b96 D95214F1 		.ascii	"\331R\024\361\012\221\337\347\005/\305\372\300\032\275"
 352      0A91DFE7 
 352      052FC5FA 
 352      C01ABD
 353 0ba5 53D25D6C 		.ascii	"S\322]lj.\357\023\254 \225R\266\230\224\262\015\225"
 353      6A2EEF13 
 353      AC209552 
 353      B69894B2 
 353      0D95
 354 0bb7 A2A10A3A 		.ascii	"\242\241\012:0=\206\351\247\326\216\350\345\\[Gd\015"
 354      303D86E9 
 354      A7D68EE8 
 354      E55C5B47 
 354      640D
 355 0bc9 FA4EFDA2 		.ascii	"\372N\375\242Y>\252\266\371\337\253E\247\220\373(\253"
 355      593EAAB6 
 355      F9DFAB45 
 355      A790FB28 
 355      AB
ARM GAS  /tmp/ccFbAnkP.s 			page 28


 356 0bda 3BC7BCEF 		.ascii	";\307\274\357\271\367k\266\272\374\031\006\357\271\271"
 356      B9F76BB6 
 356      BAFC1906 
 356      EFB9B9
 357 0be9 BD076F2B 		.ascii	"\275\007o+\222\300-\303:\247\222Gi\247\331(\355T\357"
 357      92C02DC3 
 357      3AA79247 
 357      69A7D928 
 357      ED54EF
 358 0bfc D17BDA54 		.ascii	"\321{\332Tm]}S\242\033\232j\270\360\327\020\344\334"
 358      6D5D7D53 
 358      A21B9A6A 
 358      B8F0D710 
 358      E4DC
 359 0c0e CCD47262 		.ascii	"\314\324rbo\235AG_\314T\325\266u0\313\3227\014\267\371"
 359      6F9D4147 
 359      5FCC54D5 
 359      B67530CB 
 359      D2370CB7 
 360 0c23 C6B36AE2 		.ascii	"\306\263j\342P\007Z\226\016\326\352\005,\305(\361\342"
 360      50075A96 
 360      0ED6EA05 
 360      2CC528F1 
 360      E2
 361 0c34 BF39AA55 		.ascii	"\2779\252U3F\2563Lj=\321\374\331=\372\320\373<ju_\357"
 361      3346AE33 
 361      4C6A3DD1 
 361      FCD93DFA 
 361      D0FB3C6A 
 362 0c4b 5AB50111 		.ascii	"Z\265\001\021\341^\264iT[\324\212\313\233\027=\365\305"
 362      E15EB469 
 362      545BD48A 
 362      CB9B173D 
 362      F5C5
 363 0c5d 1B5A9934 		.ascii	"\033Z\2314\323\010\377'\221\204\213}\216!\333\246{\033"
 363      D308FF27 
 363      91848B7D 
 363      8E21DBA6 
 363      7B1B
 364 0c6f A338EED5 		.ascii	"\2438\356\325\275\322J\366\352\256\242,\316\365.\013"
 364      BDD24AF6 
 364      EAAEA22C 
 364      CEF52E0B 
 365 0c7f 2B0661F5 		.ascii	"+\006a\365\206]\024\007\364\225\336\033\236D\321\321"
 365      865D1407 
 365      F495DE1B 
 365      9E44D1D1 
 366 0c8f 620E5902 		.ascii	"b\016Y\002w\015I\270\321gYtWY\007\371\025y~\361\012"
 366      770D49B8 
 366      D1675974 
 366      575907F9 
 366      15797EF1 
 367 0ca4 2C78D7F5 		.ascii	",x\327\365\365V\354\226\246{\301J\021Nk[\027\376\225"
 367      F556EC96 
 367      A67BC14A 
 367      114E6B5B 
 367      17FE95
ARM GAS  /tmp/ccFbAnkP.s 			page 29


 368 0cb7 DAA9F1EC 		.ascii	"\332\251\361\354\000\342l;\236\323q0\357\021\365\206"
 368      00E26C3B 
 368      9ED37130 
 368      EF11F586 
 369 0cc7 29A2DEC4 		.ascii	")\242\336\304\210z\013\243h\017\246\025A\222N\015z\350"
 369      887A0BA3 
 369      680FA615 
 369      41924E0D 
 369      7AE8
 370 0cd9 E0AE044C 		.ascii	"\340\256\004L\221cA\236_\3434\013\020<\375\261jq\000"
 370      9163419E 
 370      5FE3340B 
 370      103CFDB1 
 370      6A7100
 371 0cec 574DED48 		.ascii	"WM\355H\2674fK\206_\251\314\257\246\007\007`\316r\226"
 371      B734664B 
 371      865FA9CC 
 371      AFA60707 
 371      60CE7296 
 372 0d00 018BB811 		.ascii	"\001\213\270\021;#\2308\316\234\223\225\310\21428Xl"
 372      3B239838 
 372      CE9C9395 
 372      C88C3238 
 372      586C
 373 0d12 E7C0D66E 		.ascii	"\347\300\326n\012\3059\013\372\242I\320\335(\350K(\342"
 373      0AC5390B 
 373      FAA249D0 
 373      DD28E84B 
 373      28E2
 374 0d24 CB985605 		.ascii	"\313\230V\005-\235\326\237\363l\301\315\026M|\253\371"
 374      2D9DD69F 
 374      F36CC1CD 
 374      164D7CAB 
 374      F9
 375 0d35 94A9F533 		.ascii	"\224\251\3653\330\372Yl\367\034\246_a\372\215\265\343"
 375      D8FA596C 
 375      F71CA65F 
 375      61FA8DB5 
 375      E3
 376 0d46 7C27CFD6 		.ascii	"|'\317\326q\332\372)\232w\337\316\353\254\253\371$\243"
 376      71DAFA29 
 376      9A77DFCE 
 376      EBACABF9 
 376      24A3
 377 0d58 42D5EA86 		.ascii	"B\325\352\206\262\277\216\333l\207\264\376)\034\315"
 377      B2BF8EDB 
 377      6C87B4FE 
 377      291CCD
 378 0d67 6A29A2F6 		.ascii	"j)\242\366\361\3439F\330\356u\253\267{\371\027#\364"
 378      F1E33946 
 378      D8EE75AB 
 378      B77BF917 
 378      23F4
 379 0d79 C39841D2 		.ascii	"\303\230A\322zk\236\317\215^\"\270\232\240-PuI\005\372"
 379      7A6B9ECF 
 379      8D5E22B8 
 379      9AA02D50 
ARM GAS  /tmp/ccFbAnkP.s 			page 30


 379      754905FA 
 380 0d8d 5B0FD3C0 		.ascii	"[\017\323\300\323\364d\205\276\361r\004\333'U}F)g\225"
 380      D3F46485 
 380      BEF17204 
 380      DB27557D 
 380      46296795 
 381 0da1 262813F9 		.ascii	"&(\023\371\332 Q\351\034\253\021\235\260K\333\251\275"
 381      DA2051E9 
 381      1CAB119D 
 381      B04BDBA9 
 381      BD
 382 0db2 C68423D8 		.ascii	"\306\204#\330\205M\216]\353\372s\\\027\0130\210\221"
 382      854D8E5D 
 382      EBFA735C 
 382      170B3088 
 382      91
 383 0dc3 09891F5D 		.ascii	"\011\211\037]\177M\227x\035J\374\244\263\304S\340\340"
 383      7F4D9778 
 383      1D4AFCA4 
 383      B3C453E0 
 383      E0
 384 0dd4 92A1A3C8 		.ascii	"\222\241\243\310\353=\211\274\233\211\\\337k\352B\002"
 384      EB3D89BC 
 384      9B895CDF 
 384      6BEA4202 
 385 0de4 EAFD8B9C 		.ascii	"\352\375\213\234\302]\222\310\364B\307\272\342\033\253"
 385      C25D92C8 
 385      F442C7BA 
 385      E21BAB
 386 0df3 C02C4DED 		.ascii	"\300,M\355r\332\214\251\351l\177T\315\267\2019n\262"
 386      72DA8CA9 
 386      E96C7F54 
 386      CDB78139 
 386      6EB2
 387 0e05 A47084EB 		.ascii	"\244p\204\353f\264\027=\241\025x6\255z\223i-D\323j\300"
 387      66B4173D 
 387      A1157836 
 387      AD7A9369 
 387      2D44D36A 
 388 0e1a 8E6011A6 		.ascii	"\216`\021\246\2131]j5\266\271\3716c\263\352\225fW\244"
 388      8B315D6A 
 388      35B6B9F9 
 388      3663B3EA 
 388      956657A4 
 389 0e2e B0B6F96D 		.ascii	"\260\266\371m\247G\240\265\261\300\017V\242\377\261"
 389      A747A0B5 
 389      B1C00F56 
 389      A2FFB1
 390 0e3d 0643CC63 		.ascii	"\006C\314c0WyJ\350r\337\221\177\205K\344\277\307\340"
 390      3057794A 
 390      E872DF91 
 390      7F854BE4 
 390      BFC7E0
 391 0e50 64691227 		.ascii	"di\022'\326vi\276\323\211\025gq.1\005\337\3270\370."
 391      D67669BE 
 391      D3891567 
 391      712E3105 
ARM GAS  /tmp/ccFbAnkP.s 			page 31


 391      DFD730F8 
 392 0e65 C380BB11 		.ascii	"\303\200\273\021\323NL_B\241\316\302t\036\246MV\001"
 392      D34E4C5F 
 392      42A1CEC2 
 392      741EA64D 
 392      5601
 393 0e77 37E7335F 		.ascii	"7\3473_bdY\027\246\361\217\252\203\306\2029Y,\337\267"
 393      62645917 
 393      A6F18FAA 
 393      83C68239 
 393      592CDFB7 
 394 0e8b AFF348CB 		.ascii	"\257\363H\313\371\264\212jmZ\243z\263\247\207\347\231"
 394      F9B48A6A 
 394      6D5AA37A 
 394      B3A787E7 
 394      99
 395 0e9c 68EBACD3 		.ascii	"h\353\254\323\200\261\014)\007\353\232K\235w-%\362o"
 395      80B10C29 
 395      07EB9A4B 
 395      9D772D25 
 395      F26F
 396 0eae F896FE9B 		.ascii	"\370\226\376\233.\3227\237\257M\224\"S\020\344zUb\313"
 396      2ED2379F 
 396      AF4D9422 
 396      5310E47A 
 396      5562CB
 397 0ec1 CC4684C0 		.ascii	"\314F\204\300m\315\327\215\341\036nO~\003\011=\253\220"
 397      6DCDD78D 
 397      E11E6E4F 
 397      7E03093D 
 397      AB90
 398 0ed3 2ACA7FC7 		.ascii	"*\312\177\307\356\263O\365\316\277}|\352\"\200\344a"
 398      EEB34FF5 
 398      CEBF7D7C 
 398      EA2280E4 
 398      61
 399 0ee4 ECDBBE25 		.ascii	"\354\333\276%\260\316E\002\346?\354M\224\202\354\352"
 399      B0CE4502 
 399      E63FEC4D 
 399      9482ECEA 
 400 0ef4 20998E9B 		.ascii	" \231\216\2336\322\354T\010\334QC\004gu\021\274e\210"
 400      36D2EC54 
 400      08DC5143 
 400      04677511 
 400      BC6588
 401 0f07 608DA6ED 		.ascii	"`\215\246\355\257\232\313\253\215\225\252z\033$\300"
 401      AF9ACBAB 
 401      8D95AA7A 
 401      1B24C0
 402 0f16 FA3C98CB 		.ascii	"\372<\230\313\254H\364zk\014H\262\220Dcy\327\362\335"
 402      AC48F47A 
 402      6B0C48B2 
 402      90446379 
 402      D7F2DD
 403 0f29 78A48305 		.ascii	"x\244\203\005m\327\362\"\377.\304\210^\213\221\202\233"
 403      6DD7F222 
 403      FF2EC488 
ARM GAS  /tmp/ccFbAnkP.s 			page 32


 403      5E8B9182 
 403      9B
 404 0f3a EDA1FD28 		.ascii	"\355\241\375(\011\355\233=\204vU\353\3706S\255\312\241"
 404      09ED9B3D 
 404      847655EB 
 404      F83653AD 
 404      CAA1
 405 0f4c AA697CC4 		.ascii	"\252i|\304\246\233$Ao\363\255\032\315E5l\035M\340V\014"
 405      A69B2441 
 405      6FF3AD1A 
 405      CD45356C 
 405      1D4DE056 
 406 0f61 E029137D 		.ascii	"\340)\023}\353N\216\375\201\214\205\364q\374z;\226\323"
 406      EB4E8EFD 
 406      818C85F4 
 406      71FC7A3B 
 406      96D3
 407 0f73 38DE8255 		.ascii	"8\336\202U`\301:n\302\332\352\033\353>\013\326\005q"
 407      60C13A6E 
 407      C2DAEA1B 
 407      EB3E0BD6 
 407      0571
 408 0f85 05FB1B17 		.ascii	"\005\373\033\027\265J\275\317\244\302|V[\340L\177\021"
 408      B54ABDCF 
 408      A4C27C56 
 408      5BE04C7F 
 408      11
 409 0f96 B5E117D8 		.ascii	"\265\341\027\330\311\267\006\311\373\226"
 409      C9B706C9 
 409      FB96
 410 0fa0 01D64EDE 		.ascii	"\001\326N\336;\320\246\372\345\372\337\322\357F\240"
 410      3BD0A6FA 
 410      E5FADFD2 
 410      EF46A0
 411 0faf 8F6D4022 		.ascii	"\217m@\"\037\260\255\306\006\254\253\261\201\254D\246"
 411      1FB0ADC6 
 411      06ACABB1 
 411      81AC44A6 
 412 0fbf A727C0F9 		.ascii	"\247'\300\371+,p\355v\261Y\210t\022\333P\263\330\210"
 412      2B2C70ED 
 412      76B15988 
 412      7412DB50 
 412      B3D888
 413 0fd2 871CE6BB 		.ascii	"\207\034\346\273\310\037\0101E\234\366\242\210\024\223"
 413      C81F0831 
 413      459CF6A2 
 413      881493
 414 0fe1 BD4B26A5 		.ascii	"\275K&\245^\360\215e\371\363%\355\262\011\353\246o\254"
 414      5EF08D65 
 414      F9F325ED 
 414      B209EBA6 
 414      6FAC
 415 0ff3 7C0BD655 		.ascii	"|\013\326U\023\326\013\003\375b\015\262`"
 415      13D60B03 
 415      FD620DB2 
 415      60
 416 1000 5D3761CD 		.ascii	"]7a\315\365\215eu\202\233&\254\305\276\261\254Np\333"
ARM GAS  /tmp/ccFbAnkP.s 			page 33


 416      F58D6575 
 416      829B26AC 
 416      C5BEB1AC 
 416      4E70DB
 417 1013 84F5A66F 		.ascii	"\204\365\246o,\213eh\325-\331k\3062\260M\276\301FZ\300"
 417      2C8B6568 
 417      D52DD96B 
 417      C632B04D 
 417      BEC1465A 
 418 1028 6ACC60AD 		.ascii	"j\314`\255^\300R\354?\3165\203\035\366\015f5\261:3\330"
 418      5EC052EC 
 418      3FCE3583 
 418      1DF60D66 
 418      35B13A33 
 419 103d 29DF6056 		.ascii	")\337`V\033[`\006\353\362\015f5\262\205f\260[\276\301"
 419      1B5B6006 
 419      EBF20D66 
 419      35B28566 
 419      B05BBEC1 
 420 1051 AC56B6C6 		.ascii	"\254V\266\306\014\366\322\035~\301\356\343\254\027\033"
 420      0CF6D21D 
 420      7EC1EEE3 
 420      AC171B
 421 1060 0A6EC191 		.ascii	"\012n\301\221\365V\034\354\355\300\364}L[0\335\213\351"
 421      F5561CEC 
 421      EDC0F47D 
 421      4C5B30DD 
 421      8BE9
 422 1072 3E4CDB30 		.ascii	">L\3330=\210\351!L\217`\332\216\3511L\217c\332\211\351"
 422      3D88E921 
 422      4C8F60DA 
 422      8EE9314C 
 422      8F63DA89 
 423 1087 494C4F61 		.ascii	"ILOaz\006\323\277X\007\223uw\330C\255\336\007\233hL"
 423      7A06D3BF 
 423      58079375 
 423      77D843AD 
 423      DE079B68 
 424 109c 74D5DCFF 		.ascii	"t\325\334\377\027\225K\014*]\007\024_\322\021\357\203"
 424      17954B0C 
 424      2A5D0714 
 424      5FD211EF 
 424      83
 425 10ad DC5BEA0C 		.ascii	"\334[\352\014\2551\015\006\325H7\241W\177\367\210>\024"
 425      AD310D06 
 425      D54837A1 
 425      577FF788 
 425      3E14
 426 10bf 309C8164 		.ascii	"0\234\201d\310\270!\306^\361\306+\221\275\022\214W\021"
 426      C8B821C6 
 426      5EF1C62B 
 426      91BD128C 
 426      5711
 427 10d1 F62A60BC 		.ascii	"\366*`\274*\341\250$\310\013\334/\324EB\037\357\242"
 427      2AE1A824 
 427      C80BDC2F 
 427      D445421F 
ARM GAS  /tmp/ccFbAnkP.s 			page 34


 427      EFA2
 428 10e3 B2A15DCD 		.ascii	"\262\241]\315{C\251\224\350\347 \025\227\351\261-\361"
 428      7B43A994 
 428      E8E72015 
 428      97E9B12D 
 428      F1
 429 10f4 38960A90 		.ascii	"8\226\012\220>fRI\322\307\034*R\372\230OeK\037\177D"
 429      3E665249 
 429      D2C71C2A 
 429      52FA984F 
 429      654B1F7F 
 430 1109 854C1F07 		.ascii	"\205L\037\007Qi\323\307\273\251\330\351c\001\225?}d"
 430      5169D3C7 
 430      BBA9D8E9 
 430      6301953F 
 430      7D64
 431 111b 8AA08FF7 		.ascii	"\212\240\217\367R\215\2308\374\213\371\321\030!'\015"
 431      528D9838 
 431      FC8BF9D1 
 431      1821270D 
 432 112b C32C3D28 		.ascii	"\303,=(\251\367\215\357a\330y\227a\030O\355\302ep>\222"
 432      A9F78DEF 
 432      61D87997 
 432      61184FED 
 432      C265703E 
 433 1140 95CBA038 		.ascii	"\225\313\2408\027|\267\334\345\322r:m\231\376\037\254"
 433      177CB7DC 
 433      E5D2723A 
 433      6D99FE1F 
 433      AC
 434 1151 0D9BDA5E 		.ascii	"\015\233\332^\342g\257\256R\311\211\274)\213\264\352"
 434      E267AFAE 
 434      52C989BC 
 434      298BB4EA 
 435 1161 A0F7ADDA 		.ascii	"\240\367\255\332\356\240m\253V\303\277\377\265\034\207"
 435      EEA06DAB 
 435      56C3BFFF 
 435      B51C87
 436 1170 FADCE29C 		.ascii	"\372\334\342\234X\022\002\342\035\224\177z@o\177KN5"
 436      581202E2 
 436      1D947F7A 
 436      406F7F4B 
 436      4E35
 437 1182 CFFE9D51 		.ascii	"\317\376\235Q\017\326\270\030t;\242G\267\265\351?\316"
 437      0FD6B818 
 437      743BA247 
 437      B7B5E93F 
 437      CE
 438 1193 EAAE7872 		.ascii	"\352\256xr\220\361\217\263H%\213\337\177\033\264\034"
 438      90F18FB3 
 438      48258BDF 
 438      7F1BB41C 
 439 11a3 BAB26DFF 		.ascii	"\272\262m\377\222\223cn\274\335\010f\273\324Z\344\262"
 439      9293636E 
 439      BCDD0866 
 439      BBD45AE4 
 439      B2
ARM GAS  /tmp/ccFbAnkP.s 			page 35


 440 11b4 06456ADD 		.ascii	"\006Ej\335t\255\265\326\345l/\251u\313\265Vm\212\015"
 440      74ADB5D6 
 440      E56C2FA9 
 440      75CBB556 
 440      6D8A0D
 441 11c7 EADBAEB5 		.ascii	"\352\333\256\265V%BDR\255\236D\255\002n\021Y\252\350"
 441      56254244 
 441      52AD9E44 
 441      AD026E11 
 441      59AAE8
 442 11da 78E1E381 		.ascii	"x\341\343\201\352\264LC\210\253\315\377}\314\206\334"
 442      EAB44C43 
 442      88ABCDFF 
 442      7DCC86DC 
 443 11ea 9482F78A 		.ascii	"\224\202\367\21247z\336JAO\245k\255\372\024\274OM\263"
 443      34377ADE 
 443      4A414FA5 
 443      6BADFA14 
 443      BC4F4DB3 
 444 11fe 71A1B5BD 		.ascii	"q\241\265\275\250\012\202\301\003\231a&\256\007\243"
 444      A80A82C1 
 444      03996126 
 444      AE07A3
 445 120d 917185A3 		.ascii	"\221q\205\243\213#\343\"\377\362th\330\360!\303\206"
 445      8B23E322 
 445      FFF27468 
 445      D8F021C3 
 445      86
 446 121e 3C585858 		.ascii	"<XXX\032/\224\225\302\262RY\211\027>\372\324\343\243"
 446      1A2F9495 
 446      C2B25259 
 446      89173EFA 
 446      D4E3A3
 447 1231 1F7FAE30 		.ascii	"\037\177\2560\\\034.\225\245\320\304\021\261!\305\\"
 447      5C1C2E95 
 447      A5D0C411 
 447      B121C55C 
 448 1241 16F9148A 		.ascii	"\026\371\024\212\226\206\237M\177\354\211g\012Fs\331"
 448      96869F4D 
 448      7FEC8967 
 448      0A4673D9 
 449 1251 F8A2BC84 		.ascii	"\370\242\274\204\274\272\337\0351R\022\216\226\027I"
 449      BCBADF1D 
 449      3152128E 
 449      961749
 450 1260 00169F1C 		.ascii	"\000\026\237\034'8\341\342\247'\307\377\031*ec\356\031"
 450      2738E1E2 
 450      A727C7FF 
 450      192A6563 
 450      EE19
 451 1272 0478C01D 		.ascii	"\004x\300\035 .\207\241\262,M\210\304\025y\362\2200"
 451      202E87A1 
 451      B22C4D88 
 451      C41579F2 
 451      9030
 452 1284 57E8B131 		.ascii	"W\350\2611er\231DZ\314T\240\266X\024R\240\351\220\236"
 452      65729944 
ARM GAS  /tmp/ccFbAnkP.s 			page 36


 452      5ACC54A0 
 452      B6581452 
 452      A0E9909E 
 453 1298 4FD19C09 		.ascii	"O\321\234\011\"\\\\\004\325\323\313B%\322s\012\374\224"
 453      225C5C04 
 453      D5D3CB42 
 453      25D2730A 
 453      FC94
 454 12aa C9D2C451 		.ascii	"\311\322\304Q^eW\032+\213D%9^\370\330\350\321\000\306"
 454      5E65571A 
 454      2B8B4425 
 454      395EF8D8 
 454      E8D100C6 
 455 12be 88C950CA 		.ascii	"\210\311P\312\344HiH\371qay\\6\032+\221&\021\334\270"
 455      E4486948 
 455      F9716179 
 455      5C361A2B 
 455      912611DC 
 456 12d3 52142951 		.ascii	"R\024)Q\010\311\345\360\373\253_\206\224\277s*\026\023"
 456      08C9E5F0 
 456      FBAB5F86 
 456      94BF732A 
 456      1613
 457 12e5 C3C59112 		.ascii	"\303\305\221\022\2510T$\215\027\313\243J\210\201\367"
 457      A9305424 
 457      8D17CBA3 
 457      4A8881F7 
 458 12f5 0B855845 		.ascii	"\013\205XE$7R\232\021.-Q\200\372\241\276T\016P\272v"
 458      2437529A 
 458      112E2D51 
 458      80FAA1BE 
 458      540E50BA 
 459 130a 012CAC3C 		.ascii	"\001,\254<\227\011\302\027\345XH\021\344\007\005\371"
 459      9709C217 
 459      E5584811 
 459      E40705F9 
 460 131a 21411E2E 		.ascii	"!A\036.\310#\004y\244 ?\034\220\207\015\205{\230\020"
 460      C8230479 
 460      A4203F1C 
 460      90870D85 
 460      7B9810
 461 132d 95E1E757 		.ascii	"\225\341\347Wie!(\237A$6I\222\341\2674Z$\311\301p\261"
 461      69652128 
 461      9F412436 
 461      4992E1B7 
 461      345A24C9 
 462 1344 2813318A 		.ascii	"(\0231\2121\251_\\yV\214F&\224\204\024dr\370\203!\205"
 462      31A95F5C 
 462      79568C46 
 462      26948414 
 462      6472F883 
 463 135a 928DD9B2 		.ascii	"\222\215\331\262\020\024\210Fb\021%S\211+\242\"\205"
 463      10148846 
 463      62112553 
 463      892BA222 
 463      85
 464 136b 940CF271 		.ascii	"\224\014\362q$\250O/\006\271\014R\012\276e(\261\322"
ARM GAS  /tmp/ccFbAnkP.s 			page 37


 464      24A84F2F 
 464      06B90C52 
 464      0ABE6528 
 464      B1D2
 465 137d 22099FC7 		.ascii	"\"\011\237\307G\305\011\361\014E\226\306\307\221y\222"
 465      47C509F1 
 465      0C4596C6 
 465      C7917992 
 466 138d 498BC527 		.ascii	"I\213\305'\300G*\021\250\316d#\027M\206O\231\322s\021"
 466      C0472A11 
 466      A8CE6423 
 466      174D864F 
 466      99D27311 
 467 13a1 250C00E9 		.ascii	"%\014\000\351\223\224\322q\377Q6\220\332\011T\225d\251"
 467      9394D271 
 467      FF513690 
 467      DA095495 
 467      64A9
 468 13b3 240CC069 		.ascii	"$\014\300i\223\024E.\313\001\273\211K1\261\254\030d"
 468      9314452E 
 468      CB01BB89 
 468      4B31B1AC 
 468      1864
 469 13c5 E3CDD425 		.ascii	"\343\315\324%\3422y:`<\364\307r\251\034\320\362\015"
 469      E232793A 
 469      603CF4C7 
 469      72A91CD0 
 469      F20D
 470 13d7 FBA3AF32 		.ascii	"\373\243\2572\350oZ\270\004\224\230\026\017\301/\020"
 470      E86F5AB8 
 470      04949816 
 470      0FC12F10 
 471 13e7 03B5CB32 		.ascii	"\003\265\3132\241l\254\034T\347\251\275\230\362\034"
 471      A16CAC1C 
 471      54E7A9BD 
 471      98F21C
 472 13f6 B1AD1885 		.ascii	"\261\255\030\205\215\205J'\225\200\374\021\000\370\215"
 472      8D854A27 
 472      9580FC11 
 472      00F88D
 473 1405 E9163C49 		.ascii	"\351\026<I\201re\331\322D\251D\211\211\361g\341\213"
 473      817265D9 
 473      D244A944 
 473      8989F167 
 473      E18B
 474 1417 34896402 		.ascii	"4\211d\002e\241\362\\FY\024\374,\244\344\231h%o\262"
 474      65A1F25C 
 474      465914FC 
 474      2CA4E499 
 474      68256FB2 
 475 142b CA4293C4 		.ascii	"\312B\223\304\210\022)\231\000*\002\341\351tc\026^H"
 475      88122999 
 475      002A02E1 
 475      E9746316 
 475      5E48
 476 143d 65520998 		.ascii	"eR\011\230\356\004(\005M\220\362\375\210\012\304(\332"
 476      EE042805 
ARM GAS  /tmp/ccFbAnkP.s 			page 38


 476      4D90F2FD 
 476      880AC428 
 476      DA
 477 144e 20BC2C2B 		.ascii	" \274,+-\215\376\255\027N\024\"\270\201J$&\205b\222"
 477      2D8DFEAD 
 477      174E1422 
 477      B8814A24 
 477      26856292 
 478 1462 182F97A5 		.ascii	"\030/\227\245\230D\204\223!+(\244\3408)\016j)\225\343"
 478      98448493 
 478      212B28A4 
 478      E038290E 
 478      6A2995E3 
 479 1476 4A302AC6 		.ascii	"J0*\306\225\364r|\315\227d\312\012\326R\372\205\313"
 479      95F4727C 
 479      CD9764CA 
 479      0AD652FA 
 479      85CB
 480 1488 63E55151 		.ascii	"c\345QQ\211L\224\250\235\304A\360OI\023~\033\201J\277"
 480      894C94A8 
 480      9DC441F0 
 480      4F49137E 
 480      1B814ABF 
 481 149c 479EF2F0 		.ascii	"G\236\362\360\305\023 \024\375YP\312~\341\205\272\""
 481      C5132014 
 481      FD5950CA 
 481      7EE185BA 
 481      22
 482 14ad 695CF904 		.ascii	"i\\\371\004\242\331P\321\270\011\241p\261\024~\026C"
 482      A2D950D1 
 482      B809A170 
 482      B1147E16 
 482      43
 483 14be A2A7CA48 		.ascii	"\242\247\312H\012T\376\261N\024I\301\305(\227\241\260"
 483      0A54FEB1 
 483      4E1449C1 
 483      C52897A1 
 483      B0
 484 14cf 1C013E8A 		.ascii	"\034\001>\212\213\364\3708F\214*w\033\345J\313\222\212"
 484      8BF4F838 
 484      468C2A77 
 484      1BE54ACB 
 484      928A
 485 14e1 0D3051A0 		.ascii	"\0150Q\240\307\340!\236\030\230\014N\030\011\003\025"
 485      C7E0219E 
 485      18980C4E 
 485      18090315 
 486 14f1 60D4BF2F 		.ascii	"`\324\277/.zJ\212\002\260\224M,\034\"\246\024\323\243"
 486      2E7A4A8A 
 486      02B0944D 
 486      2C1C22A6 
 486      14D3A3
 487 1504 A49ECF21 		.ascii	"\244\236\317!\242\231L\015\242?\274N<g\310\272\251\245"
 487      A2994C0D 
 487      A23FBC4E 
 487      3C67C8BA 
 487      A9A5
ARM GAS  /tmp/ccFbAnkP.s 			page 39


 488 1516 CB1866D2 		.ascii	"\313\030f\322d\364{\231\372\275\254\373}\026\274-\227"
 488      64F47B99 
 488      FABDACFB 
 488      7D16BC2D 
 488      97
 489 1527 C1959434 		.ascii	"\301\225\2244\231T\272sbDV\312\305h\210(Jf\226v\027"
 489      9954BA73 
 489      624456CA 
 489      C5688828 
 489      4A669676 
 490 153c 003B7CC8 		.ascii	"\000;|\310\263\274\323\235\307\362*c\242\202fM~Id\316"
 490      B3BCD39D 
 490      C7F22A63 
 490      A282664D 
 490      7E4964CE 
 491 1550 2244A305 		.ascii	"\"D\243\005d\302\233\")\252\210\220\031_^\022\016a\031"
 491      64C29B22 
 491      29AA8890 
 491      195F5E12 
 491      0E6119
 492 1563 924B2765 		.ascii	"\222K'eE9\033~\210\361\220\342\360\2124\227K\331G\015"
 492      45391B7E 
 492      88F190E2 
 492      F08A3497 
 492      4BD9470D 
 493 1577 EBE66F7E 		.ascii	"\353\346o~\223U&\226D\302\304\3323\"q\231\370i&\221"
 493      93552696 
 493      44C2C4DA 
 493      33227199 
 493      F8692691 
 494 158b 39C90C20 		.ascii	"9\311\014 \236\"\213\020.\306\225\217\037OH\315P\306"
 494      9E228B10 
 494      2EC6958F 
 494      1F4F48CD 
 494      50C6
 495 159d 85E2913F 		.ascii	"\205\342\221?I\271\004dR8\204\016\007\257\343\022R\236"
 495      49B90464 
 495      5238840E 
 495      07AFE312 
 495      529E
 496 15af 467ECBB2 		.ascii	"F~\313\262 \325\343N&\3440\234\245C\2752E\316\202\037"
 496      20D5E34E 
 496      26E4309C 
 496      A543BD32 
 496      45CE821F 
 497 15c3 1D2AC78C 		.ascii	"\035*\307\214\033\000\205\367\213\211\020\303\320d\363"
 497      1B0085F7 
 497      8B8910C3 
 497      D064F3
 498 15d2 9558280C 		.ascii	"\225X(\014\221t\234\014\246^\012\3414\275t\374\370\270"
 498      91749C0C 
 498      A65E0AE1 
 498      34BD74FC 
 498      F8B8
 499 15e4 A4084A2C 		.ascii	"\244\010J,\367YI.\221\242\324|\224\264\222PD\376cf\011"
 499      F759492E 
 499      91A2D47C 
ARM GAS  /tmp/ccFbAnkP.s 			page 40


 499      94B49250 
 499      44FE6366 
 500 15f9 511190D3 		.ascii	"Q\021\220\323/f\030\021\313\002K9\346:\271\221\242\250"
 500      2F661811 
 500      CB024B39 
 500      E63AB991 
 500      A2A8
 501 160b 44DD1FDC 		.ascii	"D\335\037\334^\010\027g\206P~\241P\177\226\031\362\320"
 501      5E081767 
 501      86507EA1 
 501      507F9619 
 501      F2D0
 502 161d C3C31ECA 		.ascii	"\303\303\036\3121u\341\\\342\323\360\341\303\036\316"
 502      3175E15C 
 502      E2D3F0E1 
 502      C31ECE
 503 162c B7B998B7 		.ascii	"\267\271\230\267n\333\350\346\2139bp\221\"\220\\d|\004"
 503      6EDBE8E6 
 503      8B396270 
 503      9122905C 
 503      647C04
 504 163f B40D4F7F 		.ascii	"\264\015O\177\222\344R\362Kd\213\235\307\260\341F\347"
 504      92E452F2 
 504      4B648B9D 
 504      C7B0E146 
 504      E7
 505 1650 81596222 		.ascii	"\201Yb\"`? \016\222\005Q\222\222\304\266\211\330I\276"
 505      603F200E 
 505      92055192 
 505      92C4B689 
 505      D849BE
 506 1663 7F22AAE1 		.ascii	"\177\"\252\341\227\361!\020\032Zp?\232\007\031\345\320"
 506      97F12110 
 506      1A5A703F 
 506      9A0719E5 
 506      D0
 507 1674 2CDA327B 		.ascii	",\3322{@\203f\025HG\226G\363\254\273\3121\236A\223\354"
 507      40836615 
 507      48479647 
 507      F3ACBBCA 
 507      319E4193 
 508 1689 017B2556 		.ascii	"\001{%V\213tI\271F\223\022\004y\205}\"\364e\321\360"
 508      8B7449B9 
 508      46931204 
 508      79857D22 
 508      F465D1F0 
 509 169d 02F60B54 		.ascii	"\002\366\013Tbv\204\213\310@\250\205\243\037\177\372"
 509      6276848B 
 509      C840A885 
 509      A31F7FFA 
 510 16ad 774F2724 		.ascii	"wO'$G\006j\341\330oA\376Dt!\350\257\224\320?>\372\364"
 510      47066AE1 
 510      D86F41FE 
 510      447421E8 
 510      AF94D03F 
 511 16c4 3F3DF9D4 		.ascii	"?=\371\324\357\372\213\321I\342\3448\364~Q\0305\244"
 511      EFFA8BD1 
ARM GAS  /tmp/ccFbAnkP.s 			page 41


 511      49E2E438 
 511      F47E5118 
 511      35A4
 512 16d6 4D14A3E5 		.ascii	"M\024\243\345\322\377\002\021\3102D"
 512      D2FF0211 
 512      C83244
 513              		.text
 514              		.section	.gnu.lto_.symtab.956c86598476884d,"",%progbits
 515 0000 63685265 		.ascii	"chRegFirstThread\000\000\000\000\000\000\000\000\000"
 515      67466972 
 515      73745468 
 515      72656164 
 515      00000000 
 516 0019 000000AF 		.ascii	"\000\000\000\257\000\000\000chRegNextThread\000\000"
 516      00000063 
 516      68526567 
 516      4E657874 
 516      54687265 
 517 0031 00000000 		.ascii	"\000\000\000\000\000\000\000\000\000\000\207\001\000"
 517      00000000 
 517      00008701 
 517      00
 518 003e 0063685F 		.ascii	"\000ch_debug\000\000\000\000\000\000\000\000\000\000"
 518      64656275 
 518      67000000 
 518      00000000 
 518      000000
 519 0051 00003802 		.ascii	"\000\0008\002\000\000ch\000\000\002\000\000\000\000"
 519      00006368 
 519      00000200 
 519      000000
 520 0060 00000000 		.ascii	"\000\000\000\000\000\236\001\000\000_dbg_check_lock"
 520      009E0100 
 520      005F6462 
 520      675F6368 
 520      65636B5F 
 521 0078 00000200 		.ascii	"\000\000\002\000\000\000\000\000\000\000\000\000\216"
 521      00000000 
 521      00000000 
 521      8E
 522 0085 0100005F 		.ascii	"\001\000\000_stats_start_measure_crit_thd\000\000\002"
 522      73746174 
 522      735F7374 
 522      6172745F 
 522      6D656173 
 523 00a8 00000000 		.ascii	"\000\000\000\000\000\000\000\000\000\220\001\000\000"
 523      00000000 
 523      00900100 
 523      00
 524 00b5 63685379 		.ascii	"chSysHalt\000\000\002\000\000\000\000\000\000\000\000"
 524      7348616C 
 524      74000002 
 524      00000000 
 524      00000000 
 525 00c9 00920100 		.ascii	"\000\222\001\000\000_stats_stop_measure_crit_thd\000"
 525      005F7374 
 525      6174735F 
ARM GAS  /tmp/ccFbAnkP.s 			page 42


 525      73746F70 
 525      5F6D6561 
 526 00eb 00020000 		.ascii	"\000\002\000\000\000\000\000\000\000\000\000\226\001"
 526      00000000 
 526      00000096 
 526      01
 527 00f8 00005F64 		.ascii	"\000\000_dbg_check_unlock\000\000\002\000\000\000\000"
 527      62675F63 
 527      6865636B 
 527      5F756E6C 
 527      6F636B00 
 528 0112 00000000 		.ascii	"\000\000\000\000\000\230\001\000\000chThdRelease\000"
 528      00980100 
 528      00636854 
 528      68645265 
 528      6C656173 
 529 0128 00020000 		.ascii	"\000\002\000\000\000\000\000\000\000\000\000\232\001"
 529      00000000 
 529      0000009A 
 529      01
 530 0135 0000     		.ascii	"\000\000"
 531              		.text
 532              		.section	.gnu.lto_.opts,"",%progbits
 533 0000 272D6D63 		.ascii	"'-mcpu=cortex-m4' '-mno-thumb-interwork' '-mthumb' "
 533      70753D63 
 533      6F727465 
 533      782D6D34 
 533      2720272D 
 534 0033 272D6767 		.ascii	"'-ggdb' '-O0' '-fomit-frame-pointer' '-falign-funct"
 534      64622720 
 534      272D4F30 
 534      2720272D 
 534      666F6D69 
 535 0066 696F6E73 		.ascii	"ions=16' '-ffunction-sections' '-fdata-sections' '-"
 535      3D313627 
 535      20272D66 
 535      66756E63 
 535      74696F6E 
 536 0099 666E6F2D 		.ascii	"fno-common' '-flto'\000"
 536      636F6D6D 
 536      6F6E2720 
 536      272D666C 
 536      746F2700 
 537              		.text
 538              		.cfi_sections	.debug_frame
 539              		.section	.text.port_lock,"ax",%progbits
 540              		.align	2
 541              		.p2align 4,,15
 542              		.thumb
 543              		.thumb_func
 544              		.type	port_lock, %function
 545              	port_lock:
 546              	.LFB127:
 547              		.file 1 "lib/ChibiOS_16.1.4//os/rt/ports/ARMCMx/chcore_v7m.h"
 548              		.loc 1 456 0
 549              		.cfi_startproc
 550              		@ args = 0, pretend = 0, frame = 8
ARM GAS  /tmp/ccFbAnkP.s 			page 43


 551              		@ frame_needed = 0, uses_anonymous_args = 0
 552              		@ link register save eliminated.
 553 0000 82B0     		sub	sp, sp, #8
 554              		.cfi_def_cfa_offset 8
 555 0002 2023     		movs	r3, #32
 556 0004 0193     		str	r3, [sp, #4]
 557              	.LBB6:
 558              	.LBB7:
 559              		.file 2 "lib/ChibiOS_16.1.4//os/ext/CMSIS/include/core_cmFunc.h"
 560              		.loc 2 548 0
 561 0006 019B     		ldr	r3, [sp, #4]
 562              	@ 548 "lib/ChibiOS_16.1.4//os/ext/CMSIS/include/core_cmFunc.h" 1
 563 0008 83F31188 		MSR basepri, r3
 564              	@ 0 "" 2
 565              		.thumb
 566              	.LBE7:
 567              	.LBE6:
 568              		.loc 1 473 0
 569 000c 02B0     		add	sp, sp, #8
 570              		@ sp needed
 571 000e 7047     		bx	lr
 572              		.cfi_endproc
 573              	.LFE127:
 574              		.size	port_lock, .-port_lock
 575              		.section	.text.port_unlock,"ax",%progbits
 576              		.align	2
 577              		.p2align 4,,15
 578              		.thumb
 579              		.thumb_func
 580              		.type	port_unlock, %function
 581              	port_unlock:
 582              	.LFB128:
 583              		.loc 1 480 0
 584              		.cfi_startproc
 585              		@ args = 0, pretend = 0, frame = 8
 586              		@ frame_needed = 0, uses_anonymous_args = 0
 587              		@ link register save eliminated.
 588 0000 82B0     		sub	sp, sp, #8
 589              		.cfi_def_cfa_offset 8
 590 0002 0023     		movs	r3, #0
 591 0004 0193     		str	r3, [sp, #4]
 592              	.LBB8:
 593              	.LBB9:
 594              		.loc 2 548 0
 595 0006 019B     		ldr	r3, [sp, #4]
 596              	@ 548 "lib/ChibiOS_16.1.4//os/ext/CMSIS/include/core_cmFunc.h" 1
 597 0008 83F31188 		MSR basepri, r3
 598              	@ 0 "" 2
 599              		.thumb
 600              	.LBE9:
 601              	.LBE8:
 602              		.loc 1 487 0
 603 000c 02B0     		add	sp, sp, #8
 604              		@ sp needed
 605 000e 7047     		bx	lr
 606              		.cfi_endproc
 607              	.LFE128:
ARM GAS  /tmp/ccFbAnkP.s 			page 44


 608              		.size	port_unlock, .-port_unlock
 609              		.section	.text.chSysLock,"ax",%progbits
 610              		.align	2
 611              		.p2align 4,,15
 612              		.thumb
 613              		.thumb_func
 614              		.type	chSysLock, %function
 615              	chSysLock:
 616              	.LFB167:
 617              		.file 3 "lib/ChibiOS_16.1.4//os/rt/include/chsys.h"
 618              		.loc 3 346 0
 619              		.cfi_startproc
 620              		@ args = 0, pretend = 0, frame = 0
 621              		@ frame_needed = 0, uses_anonymous_args = 0
 622 0000 08B5     		push	{r3, lr}
 623              		.cfi_def_cfa_offset 8
 624              		.cfi_offset 3, -8
 625              		.cfi_offset 14, -4
 626              		.loc 3 348 0
 627 0002 FFF7FEFF 		bl	port_lock
 628              		.loc 3 349 0
 629 0006 FFF7FEFF 		bl	_stats_start_measure_crit_thd
 630              		.loc 3 350 0
 631 000a FFF7FEFF 		bl	_dbg_check_lock
 632              		.loc 3 351 0
 633 000e 08BD     		pop	{r3, pc}
 634              		.cfi_endproc
 635              	.LFE167:
 636              		.size	chSysLock, .-chSysLock
 637              		.section	.text.chSysUnlock,"ax",%progbits
 638              		.align	2
 639              		.p2align 4,,15
 640              		.thumb
 641              		.thumb_func
 642              		.type	chSysUnlock, %function
 643              	chSysUnlock:
 644              	.LFB168:
 645              		.loc 3 358 0
 646              		.cfi_startproc
 647              		@ args = 0, pretend = 0, frame = 0
 648              		@ frame_needed = 0, uses_anonymous_args = 0
 649 0000 08B5     		push	{r3, lr}
 650              		.cfi_def_cfa_offset 8
 651              		.cfi_offset 3, -8
 652              		.cfi_offset 14, -4
 653              		.loc 3 360 0
 654 0002 FFF7FEFF 		bl	_dbg_check_unlock
 655              		.loc 3 361 0
 656 0006 FFF7FEFF 		bl	_stats_stop_measure_crit_thd
 657              		.loc 3 367 0
 658 000a 40F20003 		movw	r3, #:lower16:ch
 659 000e C0F20003 		movt	r3, #:upper16:ch
 660 0012 1A68     		ldr	r2, [r3]
 661 0014 40F20003 		movw	r3, #:lower16:ch
 662 0018 C0F20003 		movt	r3, #:upper16:ch
 663 001c 9A42     		cmp	r2, r3
 664 001e 13D0     		beq	.L5
ARM GAS  /tmp/ccFbAnkP.s 			page 45


 665              		.loc 3 367 0 is_stmt 0 discriminator 1
 666 0020 40F20003 		movw	r3, #:lower16:ch
 667 0024 C0F20003 		movt	r3, #:upper16:ch
 668 0028 9B69     		ldr	r3, [r3, #24]
 669 002a 9A68     		ldr	r2, [r3, #8]
 670 002c 40F20003 		movw	r3, #:lower16:ch
 671 0030 C0F20003 		movt	r3, #:upper16:ch
 672 0034 1B68     		ldr	r3, [r3]
 673 0036 9B68     		ldr	r3, [r3, #8]
 674 0038 9A42     		cmp	r2, r3
 675 003a 05D2     		bcs	.L5
 676 003c 40F20000 		movw	r0, #:lower16:__func__.5915
 677 0040 C0F20000 		movt	r0, #:upper16:__func__.5915
 678 0044 FFF7FEFF 		bl	chSysHalt
 679              	.L5:
 680              		.loc 3 371 0 is_stmt 1
 681 0048 FFF7FEFF 		bl	port_unlock
 682              		.loc 3 372 0
 683 004c 08BD     		pop	{r3, pc}
 684              		.cfi_endproc
 685              	.LFE168:
 686              		.size	chSysUnlock, .-chSysUnlock
 687              		.global	ch_debug
 688 004e 00BF     		.section	.rodata.ch_debug,"a",%progbits
 689              		.align	2
 690              		.type	ch_debug, %object
 691              		.size	ch_debug, 22
 692              	ch_debug:
 693 0000 6D       		.byte	109
 694 0001 61       		.byte	97
 695 0002 69       		.byte	105
 696 0003 6E       		.byte	110
 697 0004 00       		.byte	0
 698 0005 16       		.byte	22
 699 0006 4318     		.short	6211
 700 0008 04       		.byte	4
 701 0009 04       		.byte	4
 702 000a 60       		.byte	96
 703 000b 08       		.byte	8
 704 000c 0C       		.byte	12
 705 000d 10       		.byte	16
 706 000e 14       		.byte	20
 707 000f 18       		.byte	24
 708 0010 1C       		.byte	28
 709 0011 20       		.byte	32
 710 0012 21       		.byte	33
 711 0013 22       		.byte	34
 712 0014 00       		.byte	0
 713 0015 00       		.byte	0
 714 0016 0000     		.section	.text.chRegFirstThread,"ax",%progbits
 715              		.align	2
 716              		.p2align 4,,15
 717              		.global	chRegFirstThread
 718              		.thumb
 719              		.thumb_func
 720              		.type	chRegFirstThread, %function
 721              	chRegFirstThread:
ARM GAS  /tmp/ccFbAnkP.s 			page 46


 722              	.LFB241:
 723              		.file 4 "lib/ChibiOS_16.1.4//os/rt/src/chregistry.c"
 724              		.loc 4 131 0
 725              		.cfi_startproc
 726              		@ args = 0, pretend = 0, frame = 8
 727              		@ frame_needed = 0, uses_anonymous_args = 0
 728 0000 00B5     		push	{lr}
 729              		.cfi_def_cfa_offset 4
 730              		.cfi_offset 14, -4
 731 0002 83B0     		sub	sp, sp, #12
 732              		.cfi_def_cfa_offset 16
 733              		.loc 4 134 0
 734 0004 FFF7FEFF 		bl	chSysLock
 735              		.loc 4 135 0
 736 0008 40F20003 		movw	r3, #:lower16:ch
 737 000c C0F20003 		movt	r3, #:upper16:ch
 738 0010 1B69     		ldr	r3, [r3, #16]
 739 0012 0193     		str	r3, [sp, #4]
 740              		.loc 4 137 0
 741 0014 019B     		ldr	r3, [sp, #4]
 742 0016 93F82230 		ldrb	r3, [r3, #34]	@ zero_extendqisi2
 743 001a 0133     		adds	r3, r3, #1
 744 001c DAB2     		uxtb	r2, r3
 745 001e 019B     		ldr	r3, [sp, #4]
 746 0020 83F82220 		strb	r2, [r3, #34]
 747              		.loc 4 139 0
 748 0024 FFF7FEFF 		bl	chSysUnlock
 749              		.loc 4 141 0
 750 0028 019B     		ldr	r3, [sp, #4]
 751              		.loc 4 142 0
 752 002a 1846     		mov	r0, r3
 753 002c 03B0     		add	sp, sp, #12
 754              		@ sp needed
 755 002e 5DF804FB 		ldr	pc, [sp], #4
 756              		.cfi_endproc
 757              	.LFE241:
 758              		.size	chRegFirstThread, .-chRegFirstThread
 759 0032 00BFAFF3 		.section	.text.chRegNextThread,"ax",%progbits
 759      0080AFF3 
 759      0080AFF3 
 759      0080
 760              		.align	2
 761              		.p2align 4,,15
 762              		.global	chRegNextThread
 763              		.thumb
 764              		.thumb_func
 765              		.type	chRegNextThread, %function
 766              	chRegNextThread:
 767              	.LFB242:
 768              		.loc 4 155 0
 769              		.cfi_startproc
 770              		@ args = 0, pretend = 0, frame = 16
 771              		@ frame_needed = 0, uses_anonymous_args = 0
 772 0000 00B5     		push	{lr}
 773              		.cfi_def_cfa_offset 4
 774              		.cfi_offset 14, -4
 775 0002 85B0     		sub	sp, sp, #20
ARM GAS  /tmp/ccFbAnkP.s 			page 47


 776              		.cfi_def_cfa_offset 24
 777 0004 0190     		str	r0, [sp, #4]
 778              		.loc 4 158 0
 779 0006 FFF7FEFF 		bl	chSysLock
 780              		.loc 4 159 0
 781 000a 019B     		ldr	r3, [sp, #4]
 782 000c 1B69     		ldr	r3, [r3, #16]
 783 000e 0393     		str	r3, [sp, #12]
 784              		.loc 4 161 0
 785 0010 039A     		ldr	r2, [sp, #12]
 786 0012 40F20003 		movw	r3, #:lower16:ch
 787 0016 C0F20003 		movt	r3, #:upper16:ch
 788 001a 9A42     		cmp	r2, r3
 789 001c 02D1     		bne	.L9
 790              		.loc 4 163 0
 791 001e 0023     		movs	r3, #0
 792 0020 0393     		str	r3, [sp, #12]
 793 0022 12E0     		b	.L10
 794              	.L9:
 795              		.loc 4 167 0 discriminator 1
 796 0024 039B     		ldr	r3, [sp, #12]
 797 0026 93F82230 		ldrb	r3, [r3, #34]	@ zero_extendqisi2
 798 002a FF2B     		cmp	r3, #255
 799 002c 05D1     		bne	.L11
 800 002e 40F20000 		movw	r0, #:lower16:__func__.6619
 801 0032 C0F20000 		movt	r0, #:upper16:__func__.6619
 802 0036 FFF7FEFF 		bl	chSysHalt
 803              	.L11:
 804              		.loc 4 168 0
 805 003a 039B     		ldr	r3, [sp, #12]
 806 003c 93F82230 		ldrb	r3, [r3, #34]	@ zero_extendqisi2
 807 0040 0133     		adds	r3, r3, #1
 808 0042 DAB2     		uxtb	r2, r3
 809 0044 039B     		ldr	r3, [sp, #12]
 810 0046 83F82220 		strb	r2, [r3, #34]
 811              	.L10:
 812              		.loc 4 171 0
 813 004a FFF7FEFF 		bl	chSysUnlock
 814              		.loc 4 173 0
 815 004e 0198     		ldr	r0, [sp, #4]
 816 0050 FFF7FEFF 		bl	chThdRelease
 817              		.loc 4 176 0
 818 0054 039B     		ldr	r3, [sp, #12]
 819              		.loc 4 177 0
 820 0056 1846     		mov	r0, r3
 821 0058 05B0     		add	sp, sp, #20
 822              		@ sp needed
 823 005a 5DF804FB 		ldr	pc, [sp], #4
 824              		.cfi_endproc
 825              	.LFE242:
 826              		.size	chRegNextThread, .-chRegNextThread
 827 005e 00BF     		.section	.rodata.__func__.5915,"a",%progbits
 828              		.align	2
 829              		.type	__func__.5915, %object
 830              		.size	__func__.5915, 12
 831              	__func__.5915:
 832 0000 63685379 		.ascii	"chSysUnlock\000"
ARM GAS  /tmp/ccFbAnkP.s 			page 48


 832      73556E6C 
 832      6F636B00 
 833              		.section	.rodata.__func__.6619,"a",%progbits
 834              		.align	2
 835              		.type	__func__.6619, %object
 836              		.size	__func__.6619, 16
 837              	__func__.6619:
 838 0000 63685265 		.ascii	"chRegNextThread\000"
 838      674E6578 
 838      74546872 
 838      65616400 
 839              		.text
 840              	.Letext0:
 841              		.file 5 "/usr/lib/gcc/arm-none-eabi/4.8.2/include/stddef.h"
 842              		.file 6 "/usr/include/newlib/machine/_default_types.h"
 843              		.file 7 "/usr/include/newlib/stdint.h"
 844              		.file 8 "lib/ChibiOS_16.1.4//os/rt/ports/ARMCMx/compilers/GCC/chtypes.h"
 845              		.file 9 "lib/ChibiOS_16.1.4//os/rt/include/chsystypes.h"
 846              		.file 10 "lib/ChibiOS_16.1.4//os/rt/include/chschd.h"
 847              		.file 11 "lib/ChibiOS_16.1.4//os/rt/ports/ARMCMx/chcore.h"
 848              		.file 12 "lib/ChibiOS_16.1.4//os/rt/include/chdebug.h"
 849              		.file 13 "lib/ChibiOS_16.1.4//os/rt/include/chtm.h"
 850              		.file 14 "lib/ChibiOS_16.1.4//os/rt/include/chstats.h"
 851              		.file 15 "lib/ChibiOS_16.1.4//os/rt/include/chsem.h"
 852              		.file 16 "lib/ChibiOS_16.1.4//os/rt/include/chmtx.h"
 853              		.file 17 "lib/ChibiOS_16.1.4//os/rt/include/chregistry.h"
 854              		.file 18 "lib/ChibiOS_16.1.4//os/ext/CMSIS/include/core_cm4.h"