ARM GAS  /tmp/ccxoMysM.s 			page 1


   1              		.syntax unified
   2              		.cpu cortex-m4
   3              		.fpu softvfp
   4              		.eabi_attribute 20, 1
   5              		.eabi_attribute 21, 1
   6              		.eabi_attribute 23, 3
   7              		.eabi_attribute 24, 1
   8              		.eabi_attribute 25, 1
   9              		.eabi_attribute 26, 1
  10              		.eabi_attribute 30, 6
  11              		.eabi_attribute 34, 1
  12              		.eabi_attribute 18, 4
  13              		.thumb
  14              		.file	"chstats.c"
  15              		.text
  16              	.Ltext0:
  17              		.section	.gnu.lto_.inline.500a1248df126dd5,"",%progbits
  18 0000 789C6362 		.ascii	"x\234cb`b\300\006\376Cin\006\006\026f\006\006&\226\017"
  18      6062C006 
  18      FE43696E 
  18      06061666 
  18      06062696 
  19 0015 7A0C2C10 		.ascii	"z\014,\020\265\214\030\"L\014,<@\222i\201<\\\015\027"
  19      B58C1822 
  19      4C0C2C3C 
  19      40926981 
  19      3C5C0D17 
  20 0029 9060C62E 		.ascii	"\220`\306.\314\302\300)\005\024f;`\007\327\317\015#"
  20      CCC2C029 
  20      0514663B 
  20      6007D7CF 
  20      0D23
  21 003b D8183824 		.ascii	"\330\0308$\201L\216\011~(Z\300\004;\003\247 \252\034"
  21      814C8E09 
  21      7E285AC0 
  21      043B03A7 
  21      20AA1C
  22 004e 33D07806 		.ascii	"3\320x\006\016\006V^T[\300&qb\027\346\302.\314\215]"
  22      0E06565E 
  22      545BC026 
  22      716217E6 
  22      C22ECC8D 
  23 0063 9801005A 		.ascii	"\230\001\000Z[\014\233"
  23      5B0C9B
  24              		.text
  25              		.section	.gnu.lto_port_lock.500a1248df126dd5,"",%progbits
  26 0000 789C6362 		.ascii	"x\234cb`b@\007\"@,\310\310\300\320\000\342030\002U0"
  26      60624007 
  26      22402CC8 
  26      C8C0D000 
  26      E2303330 
  27 0017 32310205 		.ascii	"21\002\005\030\030\031\352\231\030\353#AL\006F%\206"
  27      181819EA 
  27      9918EB23 
  27      414C0646 
  27      2586
  28 0029 850D0D93 		.ascii	"\205\015\015\223\036\264>{\3144\263\341@\313\202\206"
ARM GAS  /tmp/ccxoMysM.s 			page 2


  28      1EB43E7B 
  28      CC34B3E1 
  28      40CB8286 
  29 0039 3FFFFF33 		.ascii	"?\377\37732f2\002M\324gdHfd\210\000r\030\025\300\024"
  29      32663202 
  29      4DD46764 
  29      48666488 
  29      00721815 
  30 004f 130BAA15 		.ascii	"\023\013\252\025\353\231\016<\370\377\377D\347\363\275"
  30      EB990E3C 
  30      F8FFFF44 
  30      E7F3BD
  31 005e 40931912 		.ascii	"@\223\031\022\031\027\002M\003\002V\206\226\206\206"
  31      1917024D 
  31      03025686 
  31      968686
  32 006d 090A0C20 		.ascii	"\011\012\014 \335@\020\002&CA\016`>\313\320\264\003"
  32      DD401002 
  32      2643410E 
  32      603ECBD0 
  32      B403
  33 007f 48A73332 		.ascii	"H\24732\202\314c\000\252a8\307\320\364\361\355\214\307"
  33      82CC6300 
  33      AA6138C7 
  33      D0F4F1ED 
  33      8CC7
  34 0091 12705D60 		.ascii	"\022p]`F\303\201\356+\355\2540#\023\031\0273\262\002"
  34      46C381EE 
  34      2BEDAC30 
  34      23131917 
  34      33B202
  35 00a4 8D833819 		.ascii	"\215\2038\031\010S\231A>f\206x[\216\241ln\303\014\207"
  35      08539941 
  35      3E668678 
  35      5B8EA16C 
  35      6EC30C87 
  36 00b8 4C466610 		.ascii	"LFf\020/\035\254\012.U\011\221\202\272\374\"C\343\203"
  36      2F1DAC0A 
  36      2E550991 
  36      82BAFC22 
  36      43E383
  37 00cb 9DFA10E3 		.ascii	"\235\372\020\343` \004\244\001\244ZGOO\037\216\362\213"
  37      602004A4 
  37      01A45A47 
  37      4F4F1F8E 
  37      F28B
  38 00dd F58B4AF4 		.ascii	"\365\213J\364\013\362\213J\212\365\035\203|\235}+\364"
  38      0BF28B4A 
  38      8AF51D83 
  38      7C9D7D2B 
  38      F4
  39 00ee 933392F3 		.ascii	"\2233\222\363\213R\343\313\314s\3652\030X\313\022sJ"
  39      8B52E3CB 
  39      CC73F532 
  39      1858CB12 
  39      734A
  40 0100 53F5D1B4 		.ascii	"S\365\321\264\244V\224\350;\373\006{\006\353g\346%\347"
ARM GAS  /tmp/ccxoMysM.s 			page 3


  40      A45694E8 
  40      3BFB067B 
  40      06EB67E6 
  40      25E7
  41 0112 94A6A4EA 		.ascii	"\224\246\244\352\203\265$\347\272\225\346%\003u\011"
  41      83B524E7 
  41      BA95E625 
  41      037509
  42 0121 F8060729 		.ascii	"\370\006\007)$%\026\247\026\024e\352(\250\03200\025"
  42      242516A7 
  42      161465EA 
  42      28A81A30 
  42      3015
  43 0133 31B0E7A6 		.ascii	"1\260\347\246\346\346\027U2\000\000%\366_c"
  43      E6E61755 
  43      32000025 
  43      F65F63
  44              		.text
  45              		.section	.gnu.lto_port_unlock.500a1248df126dd5,"",%progbits
  46 0000 789C6362 		.ascii	"x\234cb`b@\007\"@,\310\310\300\320\000\342030\002U0"
  46      60624007 
  46      22402CC8 
  46      C8C0D000 
  46      E2303330 
  47 0017 32310205 		.ascii	"21\002\005\030\030\031\352\231\030\353#AL\006F%\206"
  47      181819EA 
  47      9918EB23 
  47      414C0646 
  47      2586
  48 0029 850D0D93 		.ascii	"\205\015\015\223\036\264~z\3144\263\341@\313\202\206"
  48      1EB47E7A 
  48      CC34B3E1 
  48      40CB8286 
  49 0039 3FFFFF33 		.ascii	"?\377\37732f2\002M\324gdHfd\210\000r\030\025\300\024"
  49      32663202 
  49      4DD46764 
  49      48666488 
  49      00721815 
  50 004f 130BAA15 		.ascii	"\023\013\252\025\353\231\016<\370\377\377E\347\376}"
  50      EB990E3C 
  50      F8FFFF45 
  50      E7FE7D
  51 005e 40931912 		.ascii	"@\223\031\022\031\027\002M\003\002V\206\226\206\206"
  51      1917024D 
  51      03025686 
  51      968686
  52 006d 090A0C20 		.ascii	"\011\012\014 \335@\020\002&CA\016`>\313\320\264\003"
  52      DD401002 
  52      2643410E 
  52      603ECBD0 
  52      B403
  53 007f 48A73332 		.ascii	"H\24732\202\314\003\033r\216\241\351\343\333\031\217"
  53      82CC031B 
  53      728EA1E9 
  53      E3DB198F 
  54 008f 25E0BAC0 		.ascii	"%\340\272\300\214\206\003\247\237\266\263\302\214Ld"
  54      8C8603A7 
ARM GAS  /tmp/ccxoMysM.s 			page 4


  54      9FB6B3C2 
  54      8C4C64
  55 009e 5CCCC80A 		.ascii	"\\\314\310\0124\016\342d Le\006\371\230\031\342m9\206"
  55      340EE264 
  55      204C6506 
  55      F99819E2 
  55      6D3986
  56 00b1 B2B90D33 		.ascii	"\262\271\0153\0342\031\231A\274t\260*\270T%D\012\352"
  56      1C321999 
  56      41BC74B0 
  56      2AB85425 
  56      440AEA
  57 00c4 F28B0C8D 		.ascii	"\362\213\014\215\017\316\353C\214\203\201\020\220\006"
  57      0FCEEB43 
  57      8C838110 
  57      9006
  58 00d2 906A1D3D 		.ascii	"\220j\035==}8\312/\326/*\321/\310/*)\326w\014\362u\366"
  58      3D7D38CA 
  58      2FD62F2A 
  58      D12FC82F 
  58      2A29D677 
  59 00ea ADD04FCE 		.ascii	"\255\320O\316H\316/J\215/3\317\325\313``-K\314)M\325"
  59      48CE2F4A 
  59      8D2F33CF 
  59      D5CB6060 
  59      2D4BCC29 
  60 0100 47D3925A 		.ascii	"G\323\222ZQ\242\357\354\033\354\031\254\237\231\227"
  60      51A2EFEC 
  60      1BEC19AC 
  60      9F9997
  61 010f 9C539A92 		.ascii	"\234S\232\222\252\017\326\222\234\353V\232\227\014\324"
  61      AA0FD692 
  61      9CEB569A 
  61      970CD4
  62 011e 25E01B1C 		.ascii	"%\340\033\034\244\220\224X\234ZP\224\251\243\240j\300"
  62      A4909458 
  62      9C5A5094 
  62      A9A3A06A 
  62      C0
  63 012f C054C4C0 		.ascii	"\300T\304\300\236\233\232\233_T\311\000\000g\003_\257"
  63      9E9B9A9B 
  63      5F54C900 
  63      0067035F 
  63      AF
  64              		.text
  65              		.section	.gnu.lto_port_lock_from_isr.500a1248df126dd5,"",%progbits
  66 0000 789C6362 		.ascii	"x\234cb`b@\007\"@\\\006\304z \0163\003#P\005#\023##"
  66      60624007 
  66      22405C06 
  66      C47A200E 
  66      33032350 
  67 0019 90C3C850 		.ascii	"\220\303\310P\317\304X\037\311\010V\266\236\351\300"
  67      CFC4581F 
  67      C90856B6 
  67      9EE9C0
  68 0028 83FFFFD7 		.ascii	"\203\377\377\327\355\273\277n\015\343?&\220\030+CKC"
  68      EDBBBF6E 
ARM GAS  /tmp/ccxoMysM.s 			page 5


  68      0DE33F26 
  68      90182B43 
  68      4B43
  69 003a C3040506 		.ascii	"\303\004\005\006\206d\260\212\0200\031\012\322\317|"
  69      8664B08A 
  69      1030190A 
  69      D2CF7C
  70 0049 9EA1F9C1 		.ascii	"\236\241\371\301\313~\366D\306\205\214\254@\301j\206"
  70      CB7EF644 
  70      C6858CAC 
  70      40C16A86 
  71 0059 5F0D1D0D 		.ascii	"_\015\035\015\002\231\214@\245\020\3232A\364E\206\306"
  71      02998C40 
  71      A510D332 
  71      41F44586 
  71      C6
  72 006a 07AFF461 		.ascii	"\007\257\364a\212  \004$\001r\244\216\236\236>\034\345"
  72      8A202004 
  72      240172A4 
  72      8E9E9E3E 
  72      1CE5
  73 007c 17EB1795 		.ascii	"\027\353\027\225\350\027\344\027\225\024\353;\006\371"
  73      E817E417 
  73      9514EB3B 
  73      06F9
  74 008a 3AFB56E8 		.ascii	":\373V\350'g$\347\027\245\306\227\231\347\352e0\000"
  74      276724E7 
  74      17A5C697 
  74      99E7EA65 
  74      3000
  75 009c 00577E29 		.ascii	"\000W~)\223"
  75      93
  76              		.text
  77              		.section	.gnu.lto_port_unlock_from_isr.500a1248df126dd5,"",%progbits
  78 0000 789C6362 		.ascii	"x\234cb`b@\007\"@\\\006\304z \0163\003#P\005#\023##"
  78      60624007 
  78      22405C06 
  78      C47A200E 
  78      33032350 
  79 0019 90C3C850 		.ascii	"\220\303\310P\317\304X\037\311\010V\266\236\351\300"
  79      CFC4581F 
  79      C90856B6 
  79      9EE9C0
  80 0028 83FFFFD7 		.ascii	"\203\377\377\327}\271\277\376\016\343\177&\220\030+"
  80      7DB9BFFE 
  80      0EE37F26 
  80      90182B
  81 0037 434B43C3 		.ascii	"CKC\303\004\005\006\206d\260\212\0200\031\012\322\317"
  81      04050686 
  81      64B08A10 
  81      30190AD2 
  81      CF
  82 0048 7C9EA1F9 		.ascii	"|\236\241\371\301\237\363\354\211\214\013\031Y\201\202"
  82      C19FF3EC 
  82      898C0B19 
  82      598182
  83 0057 D50CBF1A 		.ascii	"\325\014\277\032:\032\0042\031\201J!\246e\202\350\213"
ARM GAS  /tmp/ccxoMysM.s 			page 6


  83      3A1A0432 
  83      19814A21 
  83      A66582E8 
  83      8B
  84 0068 0C8D0FFE 		.ascii	"\014\215\017\376\352\303\024A@\010H\002\344H\035==}"
  84      EAC31441 
  84      40084802 
  84      E4481D3D 
  84      3D7D
  85 007a 38CA2FD6 		.ascii	"8\312/\326/*\321/\310/*)\326w\014\362u\366\255\320O"
  85      2F2AD12F 
  85      C82F2A29 
  85      D6770CF2 
  85      75F6ADD0 
  86 008f CE48CE2F 		.ascii	"\316H\316/J\215/3\317\325\313`\000\000\273\315*a"
  86      4A8D2F33 
  86      CFD5CB60 
  86      0000BBCD 
  86      2A61
  87              		.text
  88              		.section	.gnu.lto__stats_init.500a1248df126dd5,"",%progbits
  89 0000 789C6362 		.ascii	"x\234cb`b@\007\"@|\236\221\201A\011\304af`\004\252`"
  89      60624007 
  89      22407C9E 
  89      91814109 
  89      C4616660 
  90 0017 6462040A 		.ascii	"db\004\012002\32431\326G2\202\225\255g:\360\340\377"
  90      303032D4 
  90      3331D647 
  90      328295AD 
  90      673AF0E0 
  91 002c FF757F1E 		.ascii	"\377u\177\036>\354a\024\004\011\2612\26444LP``H\006"
  91      3EEC6114 
  91      0409B132 
  91      B434344C 
  91      50606048 
  92 0041 2B080193 		.ascii	"+\010\001\223\241 \355\314g\031\232v\314xt\2029\221"
  92      A120EDCC 
  92      67199A76 
  92      CC787482 
  92      3991
  93 0053 7121232B 		.ascii	"q!#+\2036\303\252\006 \010\315d\2041\2713\031\031g3"
  93      8336C3AA 
  93      062008CD 
  93      648431B9 
  93      33191967 
  94 0068 CC6A6C68 		.ascii	"\314jlh\020\310dd\252f\370\325\320\001b1\347\202\315"
  94      10C86464 
  94      AA66F8D5 
  94      D0016231 
  94      E782CD
  95 007b 88600432 		.ascii	"\210`\0042\301v&A\254\006\322\020\006H\206\005\304\000"
  95      C1762641 
  95      AC06D210 
  95      06488605 
  95      C400
  96 008d 59B0E3D1 		.ascii	"Y\260\343\321\003*Z\300\204j\301y\206\226\007]\213\271"
ARM GAS  /tmp/ccxoMysM.s 			page 7


  96      032A5AC0 
  96      846AC179 
  96      8696075D 
  96      8BB9
  97 009f 20E63330 		.ascii	" \34630\300M`M\206:\005$\302\221\311\310\006\265p*P"
  97      C04D604D 
  97      863A0524 
  97      C291C9C8 
  97      06B5702A 
  98 00b4 233B941D 		.ascii	"#;\224\035\015\264\034h\021\302l\210]P\2632\0319 \306"
  98      0DB41C68 
  98      11C26C88 
  98      5D50B332 
  98      193920C6 
  99 00c8 7753CB78 		.ascii	"wS\313x\026\014\343/24>\350Q\206\231\016\001! \223A"
  99      160CE32F 
  99      32343EE8 
  99      5186990E 
  99      01212093 
 100 00dd BE54D0D3 		.ascii	"\276T\320\323\323\207\243\374b\375\242\022\375\342\242"
 100      D387A3FC 
 100      62FDA212 
 100      FDE2A2
 101 00ec 64FDE48C 		.ascii	"d\375\344\214\342\222\304\222b\275d\006\000\2714q\""
 101      E292C492 
 101      62BD6406 
 101      00B93471 
 101      22
 102              		.text
 103              		.section	.gnu.lto__stats_increase_irq.500a1248df126dd5,"",%progbits
 104 0000 789C6362 		.ascii	"x\234cb`b@\007\"@|\237\221\201A\011\304af`\004\252`"
 104      60624007 
 104      22407C9F 
 104      91814109 
 104      C4616660 
 105 0017 6462040A 		.ascii	"db\004\012002\32431\326G\202\230\014LJ\014\013\033\032"
 105      303032D4 
 105      3331D647 
 105      82980C4C 
 105      4A0C0B1B 
 106 002c 263D687D 		.ascii	"&=h}~\201i\346\224\003-\013\032\376\374\377\317\310"
 106      7E8169E6 
 106      94032D0B 
 106      1AFEFCFF 
 106      CFC8
 107 003e 9809924C 		.ascii	"\230\011\222Lfd\210\000\262\030\025\300\024\023\013"
 107      66648800 
 107      B21815C0 
 107      14130B
 108 004d AAF9108D 		.ascii	"\252\371\020\215\015\037\237\004\234hh9\360\377\277"
 108      0D1F9F04 
 108      9C686839 
 108      F0FFBF
 109 005c 3D117AD6 		.ascii	"=\021z\3263\035x\360\377\377\234\315\013\036\315c\024"
 109      331D78F0 
 109      FFFF9CCD 
 109      0B1ECD63 
ARM GAS  /tmp/ccxoMysM.s 			page 8


 109      14
 110 006d 64666400 		.ascii	"dfd\000jab\000\353c`ehih\230\240\0006\001\010B\300d"
 110      6A616200 
 110      EB636065 
 110      68696898 
 110      A0003601 
 111 0085 28C8D5CC 		.ascii	"(\310\325\314\347\031\232\037\314^\314\235\310\270\230"
 111      E7199A1F 
 111      CC5ECC9D 
 111      C8B898
 112 0094 91152858 		.ascii	"\221\025(X\315\360\253\241\243A \223\2219\031\354\035"
 112      CDF0ABA1 
 112      A3412093 
 112      913919EC 
 112      1D
 113 00a5 06A00940 		.ascii	"\006\240\011@{\31624\335\232\001\364\005DY:#\2436\203"
 113      7BCE3234 
 113      DD9A01F4 
 113      0544593A 
 113      23A33683 
 114 00b9 562623AB 		.ascii	"V&#\2536\303\252\006 \340\316dd\233\3150\253\261\001"
 114      36C3AA06 
 114      20E0CE64 
 114      649BCD30 
 114      ABB101
 115 00cc A4911D6E 		.ascii	"\244\221\035n\004G.\330\004\220[9\300F%AL\004\322P\006"
 115      04472ED8 
 115      04905B39 
 115      C0462541 
 115      4C04D250 
 116 00e1 D0DCE68E 		.ascii	"\320\334\346\216\346G\2140c\231\200&\203\224\2632\202"
 116      E6478C30 
 116      63998026 
 116      8394B332 
 116      82
 117 00f2 E59A3C21 		.ascii	"\345\232<!\022PkB)\2671\035\344g\220\227\347>\306\352"
 117      12506B42 
 117      29B7311D 
 117      E4679097 
 117      E73EC6EA 
 118 0106 65268497 		.ascii	"e&\204\227/24>\230\247\014S\004\001! c@j\024\364\364"
 118      2F32343E 
 118      98A70C53 
 118      04012120 
 118      63406A14 
 119 011c F4E128BF 		.ascii	"\364\341(\277X\277\250D\277\270(Y?9\243\270$\261\244"
 119      58BFA844 
 119      BFB82859 
 119      3F39A3B8 
 119      24B1A4
 120 012f 582F9901 		.ascii	"X/\231\001\000Q\317t0"
 120      0051CF74 
 120      30
 121              		.text
 122              		.section	.gnu.lto__stats_ctxswc.500a1248df126dd5,"",%progbits
 123 0000 789CA592 		.ascii	"x\234\245\222=H\303@\024\307\337\273$\255\265\016\012"
 123      3D48C340 
ARM GAS  /tmp/ccxoMysM.s 			page 9


 123      14C7DFBB 
 123      24ADB50E 
 123      0A
 124 0011 2E6EA56E 		.ascii	".n\245n\026\232\335\305\331\315\241\005\035k\206zC\021"
 124      169ADDC5 
 124      D9CDA105 
 124      1D6B867A 
 124      4311
 125 0023 9A4E76E8 		.ascii	"\232Nv\350\365K\212 \024q\360\203B\035\204\342\"\010"
 125      F54B8A20 
 125      1471F083 
 125      421D84E2 
 125      2208
 126 0035 2E052138 		.ascii	".\005!8\271\024uu*(\010\"]\034\204\"\306w\3274\264\202"
 126      B9147575 
 126      2A280822 
 126      5D1C8422 
 126      C677D734 
 127 004b 50F091DC 		.ascii	"P\360\221\334\375/\357\336\357\375s\034\003\006\277"
 127      FD2FEFDE 
 127      EFFD731C 
 127      0306BF
 128 005a 639EDE5B 		.ascii	"c\236\336[\372\034\225\013\015\220$2DZ \024\030\026"
 128      FA1C950B 
 128      0D902432 
 128      445A2014 
 128      1816
 129 006c 36A4043D 		.ascii	"6\244\004=\012gB\034t\253\275\007v|\350T\232\342\313"
 129      0A67421C 
 129      74ABBD07 
 129      767CE854 
 129      9AE2CB
 130 007f 7511B94C 		.ascii	"u\021\271LZ\010\353\2440\242&\246\217\363\007\205\342"
 130      5A08EBA4 
 130      30A226A6 
 130      8FF30785 
 130      E2
 131 0090 F365ED4E 		.ascii	"\363e\355NT\034\327]\231\270\306\371\330m,\3545Ku\361"
 131      541CD75D 
 131      99B8C6F9 
 131      D86D2CEC 
 131      354B75F1 
 132 00a4 4DBD386A 		.ascii	"M\2758j\023\266\272j\211\220\362\247MPs\311\234\256"
 132      13B6BA6A 
 132      8990F2A7 
 132      4D5073C9 
 132      9CAE
 133 00b6 EBBE5FB7 		.ascii	"\353\276_\267\236\3338\027D wL\016\032f\020tR\232A\012"
 133      9EDB3817 
 133      4420774C 
 133      0E1A6610 
 133      74529A41 
 134 00cb 03A05860 		.ascii	"\003\240X`@E\210zDQ)\022jL\312C\323:Pz:\242\343I\341"
 134      4045887A 
 134      44512912 
 134      6A4CCA43 
 134      D33A507A 
ARM GAS  /tmp/ccxoMysM.s 			page 10


 135 00e4 391A9046 		.ascii	"9\032\220F\214\301\022G=\006\027\202\"\314\3218\205"
 135      8CC11247 
 135      3D061782 
 135      22CCD138 
 135      85
 136 00f5 93A210B3 		.ascii	"\223\242\020\263\034\003y\350\213\232T\301\214\254U"
 136      1C0379E8 
 136      8B9A54C1 
 136      8CAC55
 137 0104 CE82CACF 		.ascii	"\316\202\312\317&\2027{\002:P\256\225{8\3042\"\313\355"
 137      2682377B 
 137      023A50AE 
 137      957B38C4 
 137      3222CBED 
 138 0118 3AAA5C69 		.ascii	":\252\\iu\220\360\332$\377\3371-\363\004\356\227_\367"
 138      7590F0DA 
 138      24FFDF31 
 138      2DF304EE 
 138      975FF7
 139 012b 97875DF5 		.ascii	"\227\207]\365<\354\320\011x\350\002\307)B\023\"\224"
 139      3CECD009 
 139      78E802C7 
 139      29421322 
 139      94
 140 013c 464DA2A6 		.ascii	"FM\242\246=\304\310\375R\2107\337w`\214p\203\243\010"
 140      3DC4C8FD 
 140      528837DF 
 140      77608C70 
 140      83A308
 141 014f E30FC43D 		.ascii	"\343\017\304=T\035\317\002\200\377\007a\313w\252\023"
 141      541DCF02 
 141      80FF0761 
 141      CB77AA13 
 142 015f 97E30CC0 		.ascii	"\227\343\014\300#\024\273\355\305\341\326A$\3446I\213"
 142      2314BBED 
 142      C5E1D641 
 142      24E43649 
 142      8B
 143 0170 C4E3A6FF 		.ascii	"\304\343\246\377l\333f6g\332Y\313\264\266\354\\*g\307"
 143      6CDB6636 
 143      67DA59CB 
 143      B4B6EC5C 
 143      2A67C7
 144 0183 2DF801CC 		.ascii	"-\370\001\314\"\242R"
 144      22A252
 145              		.text
 146              		.section	.gnu.lto__stats_start_measure_crit_thd.500a1248df126dd5,"",%progbits
 147 0000 789C6362 		.ascii	"x\234cb`b@\007\"@\274\036\210\225@\034f\006F\240\012"
 147      60624007 
 147      2240BC1E 
 147      8895401C 
 147      660646A0 
 148 0015 46264646 		.ascii	"F&FF \207\221\241\236\211\261>\222\021\254l=\323\201"
 148      208791A1 
 148      9E89B13E 
 148      9211AC6C 
 148      3DD381
ARM GAS  /tmp/ccxoMysM.s 			page 11


 149 0028 07FFFFAF 		.ascii	"\007\377\377\257\373\327\266v\015\343\034&\220\030+"
 149      FBD7B676 
 149      0DE31C26 
 149      90182B
 150 0037 434B43C3 		.ascii	"CKC\303\004\005\006\206d\260\212\0200\031\012\322\317"
 150      04050686 
 150      64B08A10 
 150      30190AD2 
 150      CF
 151 0048 7C9EA1E5 		.ascii	"|\236\241\345\301\311f\276D\306\205\214\254@\301j\206"
 151      C1C966BE 
 151      44C6858C 
 151      AC40C16A 
 151      86
 152 0059 5F0D1D0D 		.ascii	"_\015\035\015\002\231\214@\245\020\323@\"\034\231\214"
 152      02998C40 
 152      A510D340 
 152      221C998C 
 153 0069 8CDA0CAB 		.ascii	"\214\332\014\253\032\200`3c&#\023\224]\231\311\310\234"
 153      1A806033 
 153      63262313 
 153      945D99C9 
 153      C89C
 154 007b CBC89004 		.ascii	"\313\310\220\004Q\010\244!\014\250Y\231\214,\014\014"
 154      5108A421 
 154      0CA85999 
 154      8C2C0C0C 
 155 008b 17191A1F 		.ascii	"\027\031\032\037\234R\206\231\016\001! u \337)\350\351"
 155      9C528699 
 155      0E012120 
 155      7520DF29 
 155      E8E9
 156 009d E9C3517E 		.ascii	"\351\303Q~\261~Q\211~qQ\262~rFqIbI\261^2\003\000K{1"
 156      B17E5189 
 156      7E7151B2 
 156      7E724671 
 156      496249B1 
 157 00b8 42       		.ascii	"B"
 158              		.text
 159              		.section	.gnu.lto__stats_stop_measure_crit_thd.500a1248df126dd5,"",%progbits
 160 0000 789C6362 		.ascii	"x\234cb`b@\007\"@\274\036\210\225@\034f\006F\240\012"
 160      60624007 
 160      2240BC1E 
 160      8895401C 
 160      660646A0 
 161 0015 46264646 		.ascii	"F&FF \207\221\241\236\211\261>\222\021\254l=\323\201"
 161      208791A1 
 161      9E89B13E 
 161      9211AC6C 
 161      3DD381
 162 0028 07FFFFAF 		.ascii	"\007\377\377\257\233w|\315\032\306\271L 1V\206\226\206"
 162      9B777CCD 
 162      1AC6B94C 
 162      20315686 
 162      9686
 163 003a 86090A0C 		.ascii	"\206\011\012\014\014\311`\025!`2\024\244\237\371<C\313"
 163      0CC96015 
ARM GAS  /tmp/ccxoMysM.s 			page 12


 163      21603214 
 163      A49FF93C 
 163      43CB
 164 004c 839B8FB9 		.ascii	"\203\233\217\271\023\031\0272\262\002\005\253\031~5"
 164      13191732 
 164      B20205AB 
 164      197E35
 165 005b 74340864 		.ascii	"t4\010d2\002\225BL\003\211pd22j3\254j\000\202\215\214"
 165      32029542 
 165      4C038970 
 165      6432326A 
 165      33AC6A00 
 166 0072 998C4C50 		.ascii	"\231\214LPvy&#s.#C\022D!\220\2060\240fe2\26200\\dh|"
 166      76792623 
 166      732E2343 
 166      12442190 
 166      8630A066 
 167 008f 704B1966 		.ascii	"pK\031f:\004\204\200\324\201|\247\240\247\247\017G\371"
 167      3A048480 
 167      D4817CA7 
 167      A0A7A70F 
 167      47F9
 168 00a1 C5FA4525 		.ascii	"\305\372E%\372\305E\311\372\311\031\305%\211%\305z\311"
 168      FAC545C9 
 168      FAC919C5 
 168      258925C5 
 168      7AC9
 169 00b3 0C007669 		.ascii	"\014\000vi1\234"
 169      319C
 170              		.text
 171              		.section	.gnu.lto__stats_start_measure_crit_isr.500a1248df126dd5,"",%progbits
 172 0000 789C6362 		.ascii	"x\234cb`b@\007\"@\274\036\210\225@\034f\006F\240\012"
 172      60624007 
 172      2240BC1E 
 172      8895401C 
 172      660646A0 
 173 0015 46264646 		.ascii	"F&FF \207\221\241\236\211\261>\222\021\254l=\323\201"
 173      208791A1 
 173      9E89B13E 
 173      9211AC6C 
 173      3DD381
 174 0028 07FFFFAF 		.ascii	"\007\377\377\257\333\327\276v\015\343<&\220\030+CKC"
 174      DBD7BE76 
 174      0DE33C26 
 174      90182B43 
 174      4B43
 175 003a C3040506 		.ascii	"\303\004\005\006\206d\260\212\0200\031\012\322\317|"
 175      8664B08A 
 175      1030190A 
 175      D2CF7C
 176 0049 9EA1E5C1 		.ascii	"\236\241\345\301\313f\276D\306\205\214\254@\301j\206"
 176      CB66BE44 
 176      C6858CAC 
 176      40C16A86 
 177 0059 5F0D1D0D 		.ascii	"_\015\035\015\002\231\214@\245\020\323@\"\034\231\214"
 177      02998C40 
 177      A510D340 
ARM GAS  /tmp/ccxoMysM.s 			page 13


 177      221C998C 
 178 0069 8CDA0CAB 		.ascii	"\214\332\014\253\032\200`3c&#\023\224]\231\311\310\234"
 178      1A806033 
 178      63262313 
 178      945D99C9 
 178      C89C
 179 007b CBC89004 		.ascii	"\313\310\220\004Q\010\244!\014\250Y\231\214,\014\014"
 179      5108A421 
 179      0CA85999 
 179      8C2C0C0C 
 180 008b 17191A1F 		.ascii	"\027\031\032\037\274R\206\231\016\001! u \337)\350\351"
 180      BC528699 
 180      0E012120 
 180      7520DF29 
 180      E8E9
 181 009d E9C3517E 		.ascii	"\351\303Q~\261~Q\211~qQ\262~rFqIbI\261^2\003\0007Y1"
 181      B17E5189 
 181      7E7151B2 
 181      7E724671 
 181      496249B1 
 182 00b8 45       		.ascii	"E"
 183              		.text
 184              		.section	.gnu.lto__stats_stop_measure_crit_isr.500a1248df126dd5,"",%progbits
 185 0000 789C6362 		.ascii	"x\234cb`b@\007\"@\274\036\210\225@\034f\006F\240\012"
 185      60624007 
 185      2240BC1E 
 185      8895401C 
 185      660646A0 
 186 0015 46264646 		.ascii	"F&FF \207\221\241\236\211\261>\222\021\254l=\323\201"
 186      208791A1 
 186      9E89B13E 
 186      9211AC6C 
 186      3DD381
 187 0028 07FFFFAF 		.ascii	"\007\377\377\257\273w|\315\032\306\371L 1V\206\226\206"
 187      BB777CCD 
 187      1AC6F94C 
 187      20315686 
 187      9686
 188 003a 86090A0C 		.ascii	"\206\011\012\014\014\311`\025!`2\024\244\237\371<C\313"
 188      0CC96015 
 188      21603214 
 188      A49FF93C 
 188      43CB
 189 004c 839F8FB9 		.ascii	"\203\237\217\271\023\031\0272\262\002\005\253\031~5"
 189      13191732 
 189      B20205AB 
 189      197E35
 190 005b 74340864 		.ascii	"t4\010d2\002\225BL\003\211pd22j3\254j\000\202\215\214"
 190      32029542 
 190      4C038970 
 190      6432326A 
 190      33AC6A00 
 191 0072 998C4C50 		.ascii	"\231\214LPvy&#s.#C\022D!\220\2060\240fe2\26200\\dh|"
 191      76792623 
 191      732E2343 
 191      12442190 
 191      8630A066 
ARM GAS  /tmp/ccxoMysM.s 			page 14


 192 008f F04B1966 		.ascii	"\360K\031f:\004\204\200\324\201|\247\240\247\247\017"
 192      3A048480 
 192      D4817CA7 
 192      A0A7A70F 
 193 009f 47F9C5FA 		.ascii	"G\371\305\372E%\372\305E\311\372\311\031\305%\211%\305"
 193      4525FAC5 
 193      45C9FAC9 
 193      19C52589 
 193      25C5
 194 00b1 7AC90C00 		.ascii	"z\311\014\000\303\0052\036"
 194      C305321E 
 195              		.text
 196              		.section	.gnu.lto_.symbol_nodes.500a1248df126dd5,"",%progbits
 197 0000 789C4DCC 		.ascii	"x\234M\314\271\021\302@\020D\321\351Y\335\027\031\221"
 197      B911C240 
 197      1044D1E9 
 197      59DD1719 
 197      91
 198 0011 0B91B410 		.ascii	"\013\221\264\020\216L\034\" \024|Ll(\"\340>\013\220"
 198      8E4C1C22 
 198      20147C4C 
 198      6C2822E0 
 198      3E0B90
 199 0024 6A55EC8E 		.ascii	"jU\354\216\363\353\2651**c\210=\375\012E\346k\021r\321"
 199      F3EBB531 
 199      2A2A6388 
 199      3DFD0A45 
 199      E66B1172 
 200 0039 4EB406E1 		.ascii	"N\264\006\341q\012\252\307\0064\036\017`0p\323\"\274"
 200      710AAAC7 
 200      06341E0F 
 200      603070D3 
 200      22BC
 201 004b 774F297A 		.ascii	"wO)z\004C\267\352\011\214<\236\301\330\343\005L<^\301"
 201      0443B7EA 
 201      098C3C9E 
 201      C1D8E305 
 201      4C3C5EC1 
 202 005f D4E30DCC 		.ascii	"\324\343\015\314\034\361\000s\313\272\006\236`\341\364"
 202      1CF10073 
 202      CBBA069E 
 202      60E1F4
 203 006e 024BA737 		.ascii	"\002K\2477X\375eT\244\331~`\014l\203BVC\367}#\265{d"
 203      58FD6554 
 203      A4D97E60 
 203      0C6C8342 
 203      5643F77D 
 204 0086 A4D9758D 		.ascii	"\244\331u\215KY\366M*\231\365{:\262\315\006\347\326"
 204      4B59F64D 
 204      2A99F57B 
 204      3AB2CD06 
 204      E7D6
 205 0098 F20349FF 		.ascii	"\362\003I\377g\230"
 205      6798
 206              		.text
 207              		.section	.gnu.lto_.refs.500a1248df126dd5,"",%progbits
 208 0000 789C6362 		.ascii	"x\234cb`bPg\200\000\026\026FVFV&\020dc\000\261\330A"
ARM GAS  /tmp/ccxoMysM.s 			page 15


 208      60625067 
 208      80001616 
 208      46564656 
 208      26106463 
 209 0018 24230713 		.ascii	"$#\007\023+#'\020s\00117\023+\003\000\022\276\000\273"
 209      2B232710 
 209      73013137 
 209      132B0300 
 209      12BE00BB 
 210              		.text
 211              		.section	.gnu.lto_.decls.500a1248df126dd5,"",%progbits
 212 0000 789CBD5C 		.ascii	"x\234\275\\{t\324\326\231\2274c\217\007\033C\310\243"
 212      7B74D4D6 
 212      99973463 
 212      8F071B43 
 212      C8A3
 213 0012 70364D26 		.ascii	"p6M&\335\264\333Cwc\332f\003\335s\266!\345t\223\234"
 213      DDB4DB43 
 213      7763DA66 
 213      03DD73B6 
 213      21E57493 
 214 0027 2D6D4FD2 		.ascii	"-mO\322\236\223s\366\354N\304X\340)\363\252F\306\260"
 214      9E9373F6 
 214      EC4EC458 
 214      E029F3AA 
 214      46C6B0
 215 003a FF443660 		.ascii	"\377D6` $`06\317\200\015\030\002%\020 \274\312\303\202"
 215      20246030 
 215      36CF800D 
 215      18022510 
 215      20BCCAC3 
 216 004f 04CC2BD8 		.ascii	"\004\314+\330`\002\004\2021\345\221M6!\274\002\201\020"
 216      60020482 
 216      31E5914D 
 216      3621BC02 
 216      8110
 217 0061 BCDFFD74 		.ascii	"\274\337\375t\245\2214\322X2\311\352\240+\215t\357\357"
 217      A59134D2 
 217      5832C9EA 
 217      A02B8D74 
 217      EFEF
 218 0073 7EEFFBDD 		.ascii	"~\357\373\335{e8\206cj|\014\323\005\307\300a\014\363"
 218      7B653886 
 218      636A7C0C 
 218      D305C7C0 
 218      610CF3
 219 0086 4201C314 		.ascii	"B\001\303\0241\014\363K&s\364\201\263\021\316ep\256"
 219      310CF34B 
 219      2673F481 
 219      B311CE65 
 219      70AE
 220 0098 8073159C 		.ascii	"\200s\025\234k\340\\\007\347\0068kY\206\251\207s.\234"
 220      6BE05C07 
 220      E706386B 
 220      5986A987 
 220      732E9C
 221 00ab 0BE05C04 		.ascii	"\013\340\\\004\347R8\377\002\347j8\341\037\263\226e"
ARM GAS  /tmp/ccxoMysM.s 			page 16


 221      E75238FF 
 221      02E76A38 
 221      E11FB396 
 221      65
 222 00bc 4C07C1CB 		.ascii	"L\007\301\313\203\263\005\316b\206\366\3111\314PN}\317"
 222      83B305CE 
 222      6286F6C9 
 222      31CC504E 
 222      7DCF
 223 00ce D13ABFE2 		.ascii	"\321:\277\342\230\254c\231\213\266\313\034\332\256\240"
 223      98AC6399 
 223      8BB6CB1C 
 223      DAAEA0
 224 00dd EFFF1D8A 		.ascii	"\357\377\035\212\305L\246\376\012\332\237\365X\345P"
 224      C54CA6FE 
 224      0ADA9FF5 
 224      58E550
 225 00ec 7F15EDC3 		.ascii	"\177\025\355\303z\020\271\004\341\254\002~\177\002\025"
 225      7A10B904 
 225      E1AC027E 
 225      7F0215
 226 00fb D7C1F537 		.ascii	"\327\301\3657p\015\300\263\341\004\003~\247\341l`U\036"
 226      700DC0B3 
 226      E104037E 
 226      A7E16C60 
 226      551E
 227 010d 06C2B341 		.ascii	"\006\302\263Ap\376\014\316'\341|\212S\361\011\316\""
 227      70FE0CCE 
 227      27E17C8A 
 227      53F109CE 
 227      22
 228 011e 07D9ADA3 		.ascii	"\007\331\255\243}\004\014\374k\364Y\373\345\014}\370"
 228      7D040CFC 
 228      6BF459FB 
 228      E50C7DF8 
 229 012e 685B4D87 		.ascii	"h[M\207v\330D\237\275-\330\204f+.\341a\013\274\333\014"
 229      76D8449F 
 229      BD2DD884 
 229      662B2EE1 
 229      610BBCDB 
 230 0143 E76FE177 		.ascii	"\347o\341w\023\253\342\017\244\274\210\254\3327\301"
 230      13ABE20F 
 230      A4BC88AC 
 230      DA37C1
 231 0152 5B4ADFD5 		.ascii	"[J\337\325\300u\032\233\335g-\225\205Q>\244\257\006"
 231      C0751A9B 
 231      DD672D95 
 231      85513EA4 
 231      AF06
 232 0164 3643FF93 		.ascii	"6C\377\223\224\227ZjWv\264\327{\300\251\317a\233s]\340"
 232      94975A6A 
 232      5776B4D7 
 232      7BC0A9CF 
 232      619B735D 
 233 0179 687A9A9B 		.ascii	"hz\232\233\203\236\005\036p\026\344\240\347Qf\241\254"
 233      839E051E 
 233      7016E4A0 
ARM GAS  /tmp/ccxoMysM.s 			page 17


 233      E75166A1 
 233      AC
 234 018a B4754EBC 		.ascii	"\264uN\274x\216\233++\023dpU\231\015=\304\324\311p4"
 234      788E9B2B 
 234      2B136470 
 234      55990D3D 
 234      C4D4C970 
 235 019f 54CB322B 		.ascii	"T\3132+\361\354/\037d^by\2668\310\204\360\246(\310\370"
 235      F1EC2F1F 
 235      645E6279 
 235      B638C884 
 235      F0A628C8 
 236 01b4 B135CF2E 		.ascii	"\2615\317.f\037\242w\177\364\251\210\034S\3022\003\231"
 236      661FA277 
 236      7FF4A988 
 236      1C53C232 
 236      0399
 237 01c6 15D0BE46 		.ascii	"\025\320\276F\226\027?\302\330\035?b\232H\007\362\233"
 237      96173FC2 
 237      D81D3F62 
 237      9A4807F2 
 237      9B
 238 01d7 B20FE109 		.ascii	"\262\017\341\011@#\373\250\261\012\317.aMN\246\222\252"
 238      4023FBA8 
 238      B10ACF2E 
 238      614D4EA6 
 238      92AA
 239 01e9 D49C29AA 		.ascii	"\324\234)\252\251\354\354\352Z\324\320W\355\236c\206"
 239      A9ECECEA 
 239      5AD4D057 
 239      ED9E6386 
 240 01f9 B2507B29 		.ascii	"\262P{);0'\3742+\374r[\370\035\331\360\277q\003\277"
 240      3B3027FC 
 240      322BFC72 
 240      5BF81DD9 
 240      F0BF7103 
 241 020e C20ABFD2 		.ascii	"\302\012\277\322\026\376z6|\330\015\374*+\374[\331\360"
 241      16FE7A36 
 241      7CD80DFC 
 241      2A2BFC5B 
 241      D9F0
 242 0220 0D4AE787 		.ascii	"\015J\347\207\223\232\3633zd\264.\352X7}\254\261\366"
 242      939AF333 
 242      7A64B42E 
 242      EA58377D 
 242      ACB1F6
 243 0233 F1B65D1F 		.ascii	"\361\266]\037\312\272=\224\205\220\006\337\350\012~"
 243      CABA3D94 
 243      859006DF 
 243      E80A7E
 244 0242 9D157EBD 		.ascii	"\235\025~\275-\374G:\274{+\334H\255\320\207\366\316"
 244      2DFC473A 
 244      BC7B2BDC 
 244      48ADD087 
 244      F6CE
 245 0254 1432AFCA 		.ascii	"\0242\257\312r\025i\370\334\336\342~\314\014\202\022"
 245      721569F8 
ARM GAS  /tmp/ccxoMysM.s 			page 18


 245      DCDEE27E 
 245      CC0C8212 
 246 0264 9A7C0E4C 		.ascii	"\232|\016L\237\002\310\371\032\302\313P\375\207\314"
 246      9F02C8F9 
 246      1AC2CB50 
 246      FD87CC
 247 0273 52B0D5CE 		.ascii	"R\260\325\316S\007\232\377E\226\013xv\013\333\017pN"
 247      53079AFF 
 247      45960B78 
 247      760BDB0F 
 247      704E
 248 0285 5B98EA1E 		.ascii	"[\230\352\036\207c.b\233m\320^m\211\310r\347\341\351"
 248      87632E62 
 248      9B6DD05E 
 248      6D89C872 
 248      E7E1E9
 249 0298 BBC7B395 		.ascii	"\273\307\263\225\300\205\372\216\261\010\313p<\3064"
 249      C085FA8E 
 249      B108CB70 
 249      3CC634
 250 02a7 00E5CAEC 		.ascii	"\000\345\312\354io\014\220\033vA\375\315l!\340\316\342"
 250      696F0C90 
 250      1B7641FD 
 250      CD6C21E0 
 250      CEE2
 251 02b9 345C3B09 		.ascii	"4\\;\011\320[\365\240\025\314x\363\016\025\325\360\032"
 251      D05BF5A0 
 251      15CC78F3 
 251      0E15D5F0 
 251      1A
 252 02ca D87CCF60 		.ascii	"\330|\317`!\023\330\242C\013\220\270 39#e\306\026\214"
 252      2113D8A2 
 252      430B90B8 
 252      20333923 
 252      65C6168C 
 253 02de 4AB6AEF6 		.ascii	"J\266\256\366\275\303\354x\344\377=h\3061'9\263l=@\315"
 253      BDC3EC78 
 253      E4FF3D68 
 253      C6312739 
 253      B36C3D40 
 254 02f3 DEBD93AD 		.ascii	"\336\275\223\255B\250\026\204\222}=\205Z?o\333/P\337"
 254      42A81684 
 254      927D3D85 
 254      5A3F6FDB 
 254      2F50DF
 255 0306 FB116893 		.ascii	"\373\021h\223\005\210g\003\272\030\365\337Z\005\202"
 255      05886703 
 255      BA18F5DF 
 255      5A0582
 256 0315 86AFE90D 		.ascii	"\206\257\351\015Iq\3720\337qu\216\331\345s\241\272\002"
 256      4971FA30 
 256      DF71758E 
 256      D9E573A1 
 256      BA02
 257 0327 273B903B 		.ascii	"';\220;\333\246\037\364\221\360\340\243\306\334\220"
 257      DBA61FF4 
 257      91F0E0A3 
ARM GAS  /tmp/ccxoMysM.s 			page 19


 257      C6DC90
 258 0336 EF24238E 		.ascii	"\357$#\216\331\207}\265Zm\271\275\343`\025\265\345V"
 258      D9877DB5 
 258      5A6DB9BD 
 258      E36015B5 
 258      E556
 259 0348 57B6BC61 		.ascii	"W\266\274a\377l4\027[\2474t\337\300i\375?\216\375\337"
 259      FF6C3417 
 259      5BA73474 
 259      DFC069FD 
 259      3F8EFDDF 
 260 035c C6FE8F5A 		.ascii	"\306\376\217Z\373o\352\332\311\242\326\216\272\352\375"
 260      FB6FEADA 
 260      C9A2D68E 
 260      BAEAFD
 261 036b F09159D9 		.ascii	"\360\221Y\331\275;\306\022j\031\355\035\027\257P\036"
 261      BD3BC612 
 261      6A19ED1D 
 261      17AF501E 
 262 037b 4FA0CB54 		.ascii	"O\240\313T\373\255\266\361t\241Y{\360\333P\201c\246"
 262      FBADB6F1 
 262      74A1597B 
 262      F0DB5081 
 262      63A6
 263 038d FB35EA7B 		.ascii	"\3735\352{\344\261\235M+\367\343\200\354\323H\230\351"
 263      E4B19D4D 
 263      2BF7E380 
 263      ECD34898 
 263      E9
 264 039e 19306412 		.ascii	"\0310d\022\304\321#\030\002T\260:7`\216vT\245\0343\202"
 264      C4D12318 
 264      0254B03A 
 264      37608E76 
 264      54A51C33 
 265 03b3 CDF10C66 		.ascii	"\315\361\014f\246\354\204\021l\276\033\260\276\316\224"
 265      A6EC8411 
 265      6CBE1BB0 
 265      BECE94
 266 03c2 9D34822D 		.ascii	"\2354\202-\364\014f\246\354##X\243\033\260\376\316\224"
 266      F40C66A6 
 266      EC232358 
 266      A31BB0FE 
 266      CE94
 267 03d4 7518C19A 		.ascii	"u\030\301\232<\203\231)\273l\004[\341\006,dC\231~8\215"
 267      3C839929 
 267      BB6C045B 
 267      E1062C64 
 267      43997E38 
 268 03e9 ABEDAC6E 		.ascii	"\253\355\254n\346\034\263\312\257\005\004\217&\315d"
 268      E61CB3CA 
 268      AF05048F 
 268      26CD64
 269 03f8 30DEF67B 		.ascii	"0\336\366{\015`&\276a$}\177\011[;^\336;H\033\3156\272"
 269      0D6026BE 
 269      61247D7F 
 269      095B3B5E 
 269      DE3B481B 
ARM GAS  /tmp/ccxoMysM.s 			page 20


 270 040f 41CC6130 		.ascii	"A\314a0\033\215C\343\016\317`f\265\034%`\246PC\207\243"
 270      1B8D43E3 
 270      0ECF6066 
 270      B51C2560 
 270      A6504387 
 271 0424 CE26A5FF 		.ascii	"\316&\245\377\234L\254+\320\260H6\256\0066\310\2259"
 271      9C4CAC2B 
 271      D0B04836 
 271      AE0636C8 
 271      9539
 272 0436 BDB2DCBF 		.ascii	"\275\262\334\277\277}]\236\375\222\375!\2247\330\240"
 272      BF7D5D9E 
 272      FD92FD21 
 272      9437D8A0 
 273 0446 4E857AAF 		.ascii	"N\205z\257\335u\341\004`\217\337\222\347kGwM\235,\341"
 273      DD75E104 
 273      608FDF92 
 273      E76B4777 
 273      4D9D2CE1 
 274 045a 9AD1120E 		.ascii	"\232\321\022\016\270\021S\016W\270\354$&\245Z\236\314"
 274      B811530E 
 274      57B8EC24 
 274      26A55A9E 
 274      CC
 275 046b 56AE7D58 		.ascii	"V\256}Xo7\324h\023zt\276\324HS\200\257q\344>\342\267"
 275      6F37D468 
 275      137A74BE 
 275      D4485380 
 275      AF71E43E 
 276 0481 4D015C81 		.ascii	"M\001\\\201\325\315n\325\362\211\273\010v\272\347`\015"
 276      D5CD6ED5 
 276      F289BB08 
 276      76BAE760 
 276      0D
 277 0492 EB4F3E2C 		.ascii	"\353O>,\373y\266\222#@\027\263\306\214\240%\237\010"
 277      FB79B692 
 277      234017B3 
 277      C68CA025 
 277      9F08
 278 04a4 9A47FC60 		.ascii	"\232G\374`0s\323\245\035f5~\247m\234T\177\333\250\372"
 278      3073D3A5 
 278      1D66357E 
 278      A76D9C54 
 278      7FDBA8FA 
 279 04b8 2B9E556F 		.ascii	"+\236Uo\362\220\316\266\326\016\337lY\251\364\031l="
 279      F290CEB6 
 279      D60EDF6C 
 279      59A9F419 
 279      6C3D
 280 04ca A763808A 		.ascii	"\247c\200\212\332w\374+\216\370\325(\327;\366\012r\003"
 280      DA77FC2B 
 280      8EF8D528 
 280      D73BF60A 
 280      7203
 281 04dc 34FBAD9F 		.ascii	"4\373\255\237 \320\024\004\232\230\327S\240\365\363"
 281      20D01404 
 281      9A98D753 
ARM GAS  /tmp/ccxoMysM.s 			page 21


 281      A0F5F3
 282 04eb 160E41A0 		.ascii	"\026\016A\240\327\020\350\365<\253\246Y\213\246Y\263"
 282      D710E8F5 
 282      3CABA659 
 282      8BA659B3 
 283 04fb 0674AFA3 		.ascii	"\006t\257\243N\367]\325\345\230\331y\026u\231\330\311"
 283      4EF75DD5 
 283      E598D979 
 283      167599D8 
 283      C9
 284 050c 313468F1 		.ascii	"14h\361\266\365|-{\255J\2363\310\203\230k\251\276f\240"
 284      B6F57C2D 
 284      7BAD4A9E 
 284      33C88398 
 284      6BA9BE66 
 285 0521 74166549 		.ascii	"t\026eI\207\210\337\033\033\313=\263Q`fc\372\307=`\243"
 285      8788DF1B 
 285      1BCB3DB3 
 285      51606663 
 285      FAC73D60 
 286 0536 5965A31E 		.ascii	"Ye\243\036\331X\363-\260\261\3113\033}\015l\300<\262"
 286      D958F32D 
 286      B0B1C933 
 286      1B7D0D6C 
 286      C03CB2
 287 0549 F5FA2C75 		.ascii	"\365\372,u\364\273\237\231\231;\177'\364\314\347\356"
 287      F4BB9F99 
 287      993B7F27 
 287      F4CCE7EE 
 288 0559 37E5CECA 		.ascii	"7\345\316\312\227\255lH}\334]\342,+\265G\014\263<\331"
 288      97AD6C48 
 288      7DDC5DE2 
 288      2C2BB547 
 288      0CB33CD9 
 289 056d D5D4AC5D 		.ascii	"\325\324\254]\237\345-D\221\355\260s07P\015u\307\037"
 289      9FE52D44 
 289      91EDB073 
 289      3037500D 
 289      75C71F
 290 0580 2481B411 		.ascii	"$\201\264\021a\336\353)L\347\372\223\233T?]\212@\007"
 290      61DEEB29 
 290      4CE7FA93 
 290      9B543F5D 
 290      8A4007
 291 0593 B354986F 		.ascii	"\263T\230o\321`\276Y\203\360\223\364\364\025\006\310"
 291      D160BE59 
 291      83F093F4 
 291      F41506C8 
 292 05a3 57E813F2 		.ascii	"W\350\023\362#\300\374\277\267\343\230cH>\321\236\307"
 292      23C0FCBF 
 292      B7E39863 
 292      483ED19E 
 292      C7
 293 05b4 FC4BB39E 		.ascii	"\374K\263\236\351\007gi\271\223\252\240\323\367\204"
 293      E9076769 
 293      B993AAA0 
 293      D3F784
ARM GAS  /tmp/ccxoMysM.s 			page 22


 294 05c3 58A534CF 		.ascii	"X\2454\317\324\226)\236&\331\323\305{\204\303t\333\224"
 294      D496299E 
 294      26D9D3C5 
 294      7B84C374 
 294      DB94
 295 05d5 1658666D 		.ascii	"\026Xfm[\034\206\035m\001g\352\036m,_\315\021\202>\317"
 295      5B1C861D 
 295      6D0167EA 
 295      1E6D2C5F 
 295      CD11823E 
 296 05ea 52F866D6 		.ascii	"R\370f\3262o#\017\014U\234\\\351-\3160\006\312\371\367"
 296      326F230F 
 296      0C559C5C 
 296      E92DCE30 
 296      06CAF9F7 
 297 05fe C42728E2 		.ascii	"\304'(\342\314RU\021\335\315\211_\326\320\212\260\343"
 297      CC525511 
 297      DDCD895F 
 297      D6D08AB0 
 297      E3
 298 060f 6AECF81D 		.ascii	"j\354\370\035\3162%>~\265\263\232\362M\336u\357\333"
 298      CE32253E 
 298      7EB5B39A 
 298      F24DDE75 
 298      EFDB
 299 0621 A72E04E5 		.ascii	"\247.\004\345\231E6\375\331eH\247\246\036\235\301N@"
 299      994536FD 
 299      D96548A7 
 299      A61E9DC1 
 299      4E40
 300 0633 F4CD1C59 		.ascii	"\364\315\034Y\030\333\230o\2730\3260\324\011\010\322"
 300      18DB986F 
 300      BB30D630 
 300      D40908D2 
 301 0643 516CB2D5 		.ascii	"Ql\262\325J\370\341\326\233\332Z\302V\027\204W)W\246"
 301      4AF8E1D6 
 301      9BDA5AC2 
 301      56178457 
 301      2957A6
 302 0656 1AD7C578 		.ascii	"\032\327\305xVa9\212\3333\213\273z@O\376yv\227g\260"
 302      5661398A 
 302      DB338BBB 
 302      7A404FFE 
 302      79769767 
 303 066b 901DA99A 		.ascii	"\220\035\251\232ee\270\345\331\355\034I\332wp\217A\331"
 303      6565B8E5 
 303      D9ED1C49 
 303      DA77708F 
 303      41D9
 304 067d 0CA57E70 		.ascii	"\014\245~p\314q]\247v\242\353\336\253\217_\375\252^"
 304      CC715DA7 
 304      76A2EBDE 
 304      AB8F5FFD 
 304      AA5E
 305 068f 35262F91 		.ascii	"5&/\221z\217\026\251wa 8\223ou\224F\353\340\346)T]\260"
 305      7A8F16A9 
 305      77612038 
ARM GAS  /tmp/ccxoMysM.s 			page 23


 305      936F7594 
 305      46EBE0E6 
 306 06a7 32E5767D 		.ascii	"2\345v}A?\234\034q\275\321\021\377\367^\035\261\365"
 306      413F9C1C 
 306      71BDD111 
 306      FFF75E1D 
 306      B1F5
 307 06b9 63978E28 		.ascii	"c\227\216(\263\032\\_\354\371*\366\274\317j\3207o\356"
 307      B31A5C5F 
 307      ECF92AF6 
 307      BCCF6AD0 
 307      376FEE
 308 06cc 9D440D7A 		.ascii	"\235D\015z\237+O\374\022=Q\363\254\205\001\015\265'"
 308      9F2B4FFC 
 308      123D51F3 
 308      AC85010D 
 308      B527
 309 06de B650A5DC 		.ascii	"\266P\245\334\372d\037\253\302\341lv\231\025\316\255"
 309      FA641FAB 
 309      C2E16C76 
 309      9915CEAD 
 310 06ee 1628DC1D 		.ascii	"\026(\334\035\301\253`T\373R>\274@\362\214#\310\323"
 310      C1AB6054 
 310      FB523EBC 
 310      40F28C23 
 310      C8D3
 311 0700 EA80D5B4 		.ascii	"\352\200\325\264T\311\030Lk\237\301S\016\240\247\034"
 311      54C9184C 
 311      6B9FC153 
 311      0EA0A71C 
 312 0710 444F3984 		.ascii	"DO9\204e\233\321_\234\314\342\260\321,6z\346;\344\322"
 312      659BD15F 
 312      9CCCE2B0 
 312      D12C367A 
 312      E63BE4D2 
 313 0724 FAF61ABB 		.ascii	"\372\366\032\273\331\036\2707\353kk\375\302\217K|\036"
 313      D91EB837 
 313      EB6B6BFD 
 313      C28F4B7C 
 313      1E
 314 0735 56BFDB77 		.ascii	"V\277\333wk\216{B\315\215\262\244\333b\235{\270YWn\353"
 314      6B8E7B42 
 314      CD8DB2A4 
 314      DB629D7B 
 314      B859576E 
 315 074a 292BFA01 		.ascii	")+\372\001\201,\340bf\030\262\221\272\236\236\334\244"
 315      812CE062 
 315      6618B291 
 315      BA9E9EDC 
 315      A4
 316 075b E949B78B 		.ascii	"\351I\267\213\323\372\206\315\301J:2u\240\255\235\012"
 316      D3FA86CD 
 316      C14A3A32 
 316      75A0AD9D 
 316      0A
 317 076c D88F4C39 		.ascii	"\330\217L9V\271?\305&g\263F\246\351\327\265\221\351"
 317      56B93FC5 
ARM GAS  /tmp/ccxoMysM.s 			page 24


 317      2667B346 
 317      A6E9D7B5 
 317      91E9
 318 077e ACAB91A9 		.ascii	"\254\253\221\251\335vd:\353}d\262;\214\004\362\3549"
 318      DD76643A 
 318      EB7D64B2 
 318      3B8C04F2 
 318      EC39
 319 0790 7491F3E6 		.ascii	"t\221\363\346a\344\266\033\351\377\330\311\030e\345"
 319      61E4B61B 
 319      E9FFD8C9 
 319      1865E5
 320 079f 56FB0296 		.ascii	"V\373\002\226\322\217\242\234P`\301\263\013E&<\2236"
 320      D28FA29C 
 320      5060C1B3 
 320      0B45263C 
 320      9336
 321 07b1 959A6338 		.ascii	"\225\232c8\262\252y\346t+\230\035q\203\234\300\252\224"
 321      B2AA79E6 
 321      742B981D 
 321      71839CC0 
 321      AA94
 322 07c3 052A986A 		.ascii	"\005*\230j\362un\300\2068qZ\245"
 322      F2756EC0 
 322      8638715A 
 322      A5
 323 07d0 6CADD734 		.ascii	"l\255\3274\265\027\223\304\006\317xf\342\332\217-\240"
 323      B51793C4 
 323      06CF7866 
 323      E2DA8F2D 
 323      A0
 324 07e1 78EADED6 		.ascii	"x\352\336\326J7xC\235\351\273RoJ\2527x\2063+\342\233"
 324      4A377843 
 324      9DE9BB52 
 324      6F4AAA37 
 324      7886332B 
 325 07f7 6344B1AF 		.ascii	"cD\261\257\365\267\333\276T\364\340MVl\250W}\275\344"
 325      F5B7DBBE 
 325      54F4E04D 
 325      566CA857 
 325      7DBDE4
 326 080a CA0035C4 		.ascii	"\312\0005\304\\CK8S\320\375>\250\031\010W\031-\036\245"
 326      5C434B38 
 326      53D0FD3E 
 326      A8190857 
 326      192D1EA5 
 327 081e ACDD5344 		.ascii	"\254\335SD\246t7\\y\323\372=\236\267\030\333\267\251"
 327      A674375C 
 327      79D3FA3D 
 327      9EB718DB 
 327      B7A9
 328 0830 B3F55B68 		.ascii	"\263\365[h$W\013\276\225\270x\033an\3644\277\004Y\036"
 328      24570BBE 
 328      95B8781B 
 328      616EF434 
 328      BF04591E 
 329 0844 1EB0659D 		.ascii	"\036\260e\235,O\311\327\010\353\362\214h\266\266\215"
ARM GAS  /tmp/ccxoMysM.s 			page 25


 329      2C4FC9D7 
 329      08EBF28C 
 329      68B6B68D 
 330 0854 7BD01554 		.ascii	"{\320\025T\260\211A\027`9\006\370\315\004\314\3136n"
 330      B0894117 
 330      603906F8 
 330      CD04CCCB 
 330      366E
 331 0866 8B36FA54 		.ascii	"\2136\372T\371H\377\257\006\277\025)\317\360\314\206"
 331      F948FFAF 
 331      06BF1529 
 331      CFF0CC86 
 332 0876 492620E5 		.ascii	"I& \345O\006lyG\226\327\276\354i\345\267v\273j1\223"
 332      4F066C79 
 332      4796D7BE 
 332      EC69E5B7 
 332      76BB6A31 
 333 088b 9097DA2C 		.ascii	"\220\227\332,^\356Zyq\271\216\3121\013\254\014\331\005"
 333      5EEE5A79 
 333      71B98ECA 
 333      310BAC0C 
 333      D905
 334 089d 4FBB3D09 		.ascii	"O\273=\011\273\303\350K<{\023\203\377W\230\031}\203"
 334      BBC3E84B 
 334      3C7B1383 
 334      FF579819 
 334      7D83
 335 08af 65179695 		.ascii	"e\027\226\225>RV\373L\203\302\362\240%v\230\375\224"
 335      3E5256FB 
 335      4C83C2F2 
 335      A0257698 
 335      FD94
 336 08c1 DE3EE79A 		.ascii	"\336>\347\232\220\314\207\0150\231\301}\210f\226t\273"
 336      90CC870D 
 336      3099C17D 
 336      88669674 
 336      BB
 337 08d2 13CB77B1 		.ascii	"\023\313w\261<\204\345%,/cy\025\313[XNDbk\260\254\303"
 337      3C84E525 
 337      2C2F6379 
 337      15CB5B58 
 337      4E44626B 
 338 08e9 721E96A7 		.ascii	"r\036\226\247\261\274\210\345\377`\371)\226\237ay\011"
 338      B1BC88E5 
 338      FF60F929 
 338      969F6179 
 338      09
 339 08fa CBCB585E 		.ascii	"\313\313X^u\223\016Zf\365\364\263\020}\372\237\371X"
 339      75930E5A 
 339      66F5F4B3 
 339      107DFA9F 
 339      F958
 340 090c 09C5B4C6 		.ascii	"\011\305\264\306\242\372\307\231%\262<\263\363\303I"
 340      A2FAC799 
 340      25B23CB3 
 340      F3C349
 341 091b C7CF9284 		.ascii	"\307\317\222\204\3449-\237\336\216\3656\260\217\332"
ARM GAS  /tmp/ccxoMysM.s 			page 26


 341      E4392D9F 
 341      DE8EF536 
 341      B08FDA
 342 092a F64BD1D5 		.ascii	"\366K\321\325\306\362VAo\266\323M3\375\223\231\327\345"
 342      C6F25641 
 342      6FB6D34D 
 342      33FD9399 
 342      D7E5
 343 093c 897D59FD 		.ascii	"\211}Y\375\233\231\015\326of^\367e}3\323\331\246\334"
 343      9B990DD6 
 343      6F665EF7 
 343      657D33D3 
 343      D9A6DC
 344 094f CDFA2467 		.ascii	"\315\372$g\267\205'\373Orj}\026\370Y\266\360\013[\254"
 344      B78527FB 
 344      4F726A7D 
 344      16F859B6 
 344      F00B5BAC 
 345 0963 F0E75CC1 		.ascii	"\360\347\\\301\327[\341g\333\302\357\310\202\227{\271"
 345      D75BE167 
 345      DBC2EFC8 
 345      82977BB9 
 346 0973 819F6B85 		.ascii	"\201\237k\205\237g\013\337\221\005\277\320\025\374\002"
 346      9F670BDF 
 346      9105BFD0 
 346      15FC02
 347 0982 2BFC1B36 		.ascii	"+\374\0336\360d\274<\373ws\326\311\023\246\310w\273"
 347      F064BC3C 
 347      FB7773D6 
 347      C913A6C8 
 347      77BB
 348 0994 5E61DD7F 		.ascii	"^a\335\177\263\324\340s\376fI\035{\235Z.\366\025f\210"
 348      B3D4E073 
 348      FE66491D 
 348      7B9D5A2E 
 348      F6156688 
 349 09a8 3259F2D6 		.ascii	"2Y\362\326,\306\324JK\354(W\272\366\314\032 7V)]]\315"
 349      2CC6D44A 
 349      4BEC2857 
 349      BAF6CC1A 
 349      20375629 
 350 09bf 4319F784 		.ascii	"C\031\367\2047\231\011W\3511\375\310&l\277\2110\254"
 350      37990957 
 350      E931FDC8 
 350      266CBF89 
 350      30AC
 351 09d1 CC317FEB 		.ascii	"\3141\177\353e\332\317\340\3317m\311\274\275\3475\231"
 351      65DACFE0 
 351      D9376DC9 
 351      BCBDE735 
 351      99
 352 09e2 D53548C4 		.ascii	"\3255H\304\0063\377l<\236]in\316\263\253l\361\356\330"
 352      0633FF6C 
 352      3C9E5D69 
 352      6ECEB3AB 
 352      6CF1EED8 
 353 09f6 E05516BA 		.ascii	"\340U\026\272\301[c~\360\003\246\221\030\300\341\326"
ARM GAS  /tmp/ccxoMysM.s 			page 27


 353      C15B637E 
 353      F003A691 
 353      18C0E1D6 
 354 0a06 83FD5755 		.ascii	"\203\375WU\311\023\326\202\370\272\330\256\247m\023"
 354      C913D682 
 354      F8BAD8AE 
 354      A76D13
 355 0a15 A4FFD4A4 		.ascii	"\244\377\324\244x\202\210G_Z\273\336H\007\324u>\222"
 355      78828847 
 355      5F5ABBDE 
 355      4807D475 
 355      3E92
 356 0a27 6BD5179A 		.ascii	"k\325\027\232\365\347\002\212c\026c\243\015\276\354"
 356      F5E7028A 
 356      631663A3 
 356      0DBEEC
 357 0a36 8FCEB4B5 		.ascii	"\217\316\264\265\010\362\256\373\265\2107:\324)\200"
 357      08F2AEFB 
 357      B588373A 
 357      D42980
 358 0a45 CD2CBF53 		.ascii	"\315,\277S\0377\0366P\177\000\342\243J\375\026\244~"
 358      1F371E36 
 358      507F00E2 
 358      A34AFD16 
 358      A47E
 359 0a57 9503F58E 		.ascii	"\225\003\365\216@\034\263\005\233l\313\246\375h\265"
 359      401CB305 
 359      9B6CCBA6 
 359      FD68B5
 360 0a66 F6C19C2B 		.ascii	"\366\301\234+\332\333O\232\247/-:n\216\021X=l3\243\243"
 360      DADB4F9A 
 360      A72F2D3A 
 360      6E8E1158 
 360      3D6C33A3 
 361 0a7b 2731CD52 		.ascii	"'1\315R3\372V+\230\2474KVN\250`\255\370Y\3411\317`!"
 361      33FA562B 
 361      98A7344B 
 361      564EA860 
 361      ADF859E1 
 362 0a93 136567E6 		.ascii	"\023eg\346\231?\015\374\310\015^\216\357\037.\2374|"
 362      993F0DFC 
 362      C80D5E8E 
 362      EF1F2E9F 
 362      347C
 363 0aa5 FF70DE33 		.ascii	"\377p\3363\230\231\270\033F\260\317\334\200\331}%`w"
 363      9899B81B 
 363      46B0CFDC 
 363      80D97D25 
 363      6077
 364 0ab7 188D0492 		.ascii	"\030\215\004\222\017\037&\037\230\363\354\304\362],"
 364      0F1F261F 
 364      98F3ECC4 
 364      F25D2C
 365 0ac6 7763D982 		.ascii	"wc\331\202\345>s.tC\367\022[S\354\316$de\203\263{\330"
 365      E53E732E 
 365      7443F712 
 365      5B53ECCE 
ARM GAS  /tmp/ccxoMysM.s 			page 28


 365      24646583 
 366 0add 2D828173 		.ascii	"-\202\201s\177\\\311ND\033~\037\335\343N\367\356a]f"
 366      7F5CC94E 
 366      441B7E1F 
 366      DDE34EF7 
 366      EE615D66 
 367 0af1 9C59449A 		.ascii	"\234YD\232\264e\271G\3537\023\251{\264\271p\217*\345"
 367      B465B947 
 367      EB3713A9 
 367      7BB4B970 
 367      8F2AE5
 368 0b04 D6EC37DC 		.ascii	"\326\3547\334}\203\247\367\377\200\201\221\003\347\265"
 368      7D83A7F7 
 368      FF808191 
 368      03E7B5
 369 0b13 0D800F90 		.ascii	"\015\200\017\220\221\025E\3352b\006\002?\307&'\262\031"
 369      911545DD 
 369      32620602 
 369      3FC72627 
 369      B219
 370 0b25 F95C63E4 		.ascii	"\371\\c\344\204+F\266\314\326\254\377\250\217\330\330"
 370      842B46B6 
 370      CCD6ACFF 
 370      A88FD8D8 
 371 0b35 7E1DB747 		.ascii	"~\035\267G\0234\345\257\307\321`U\260#\236\301\314\326"
 371      1334E5AF 
 371      C7D16055 
 371      B0239EC1 
 371      CCD6
 372 0b47 BFFDB8D7 		.ascii	"\277\375\270\327Y\353\251\003\033\006\342\034\244\023"
 372      59EBA903 
 372      1B06E21C 
 372      A413
 373 0b55 E720272D 		.ascii	"\347 '-\202\355\341|\352\274\033>\234\247\205\240\225"
 373      82EDE17C 
 373      EABC1B3E 
 373      9CA785A0 
 373      95
 374 0b66 2FEA6C96 		.ascii	"/\352l\226\305\335g\010\027\255\031\002~\035iH\010r"
 374      C5DD6708 
 374      17AD1902 
 374      7E1D6948 
 374      0872
 375 0b78 89646A47 		.ascii	"\211djG%\335\314\272\200Z\371\334\"\024K\242D\372r\242"
 375      25DDCCBA 
 375      805AF9DC 
 375      22144BA2 
 375      44FA72A2 
 376 0b8c E3535FA1 		.ascii	"\343S_\241\203Ee\275\203\000\341Yj&\355\223\315\371"
 376      834565BD 
 376      8300E159 
 376      6A26ED93 
 376      CDF9
 377 0b9e 266D7B15 		.ascii	"&m{\025Wn\356\272\001t?\013<a\210\177'1\376\235\302"
 377      576EEEBA 
 377      01743F0B 
 377      3C61887F 
ARM GAS  /tmp/ccxoMysM.s 			page 29


 377      2731FE9D 
 378 0bb3 38771ACB 		.ascii	"8w\032\3133X\236\307\3623\237\213)\322Qc\022\371\221"
 378      33589EC7 
 378      F2339F8B 
 378      29D25163 
 378      12F991
 379 0bc6 8FA371A6 		.ascii	"\217\243q\246gnt'\343F<\333\341\031\314$He\306ImA\215"
 379      676E7427 
 379      E3463CDB 
 379      E119CC24 
 379      4865C649 
 380 0bdd 7805CF9E 		.ascii	"x\005\317\236s\203\227c\225\343muPR]lbo\326#X(\227R"
 380      73839763 
 380      95E36D75 
 380      50525D6C 
 380      626FD623 
 381 0bf5 DA0C4A39 		.ascii	"\332\014J9\202JiG\025\\\302\362\013,/\233\007\242\031"
 381      824A6947 
 381      155CC2F2 
 381      0B2C2F9B 
 381      07A219
 382 0c08 BD2D0391 		.ascii	"\275-\003\2219\350\333\215\213F\371\310\312\266\377"
 382      39E8DB8D 
 382      8B46F9C8 
 382      CAB6FF
 383 0c17 AAE1ED42 		.ascii	"\252\341\355B\3563Z\333Y\306\335\333\003\237kk\344\327"
 383      EE335ADB 
 383      59C6DDDB 
 383      039F6B6B 
 383      E4D7
 384 0c29 3178CFE9 		.ascii	"1x\317\351\335}\3606#q\314rls3;K\273\240ei7\273\217"
 384      DD7DF036 
 384      2371CC72 
 384      6C73333B 
 384      4BBBA065 
 385 0c41 DE13C62B 		.ascii	"\336\023\306+\033\346/\313\014C\343u\027\276\016A\316"
 385      1BE62FCB 
 385      0C43E375 
 385      17BE0E41 
 385      CE
 386 0c52 C94C4DDF 		.ascii	"\311LM\337\035n\322\351\350\211\231\312J\363)\315\262"
 386      1D6ED2E9 
 386      E88999CA 
 386      4AF329CD 
 386      B2
 387 0c63 D46DCF9D 		.ascii	"\324m\317\235\236\361\314\2328v\012-K\005\333\347\006"
 387      9EF1CC9A 
 387      38760A2D 
 387      4B05DBE7 
 387      06
 388 0c74 2C479678 		.ascii	",G\226x\365?l\325\252\350\231\353d\203Z?\270t\366\021"
 388      F53F6CD5 
 388      AAE899EB 
 388      64835A3F 
 388      B874F611 
 389 0c88 BA12E727 		.ascii	"\272\022\347'Z\275\331\275V-@D\270\023\375\226E\332"
 389      5ABDD9BD 
ARM GAS  /tmp/ccxoMysM.s 			page 30


 389      562D4044 
 389      B813FD96 
 389      45DA
 390 0c9a 452DB848 		.ascii	"E-\270HK\236w?\026oj\321\244\231G\370\237R\314R\310"
 390      4B9E773F 
 390      166F6AD1 
 390      A49947F8 
 390      9F52CC52 
 391 0caf 9EC590E6 		.ascii	"\236\305\220\346I\356r\024\333\035\307\272\026\262\343"
 391      49EE7214 
 391      DB1DC7BA 
 391      16B2E3
 392 0cbe 38156531 		.ascii	"8\025e1\243\330c\236EX\235f\025E\273\272^=\315\225("
 392      A3D8639E 
 392      45589D66 
 392      1545BBBA 
 392      5E3DCD95 
 393 0cd3 4EED3186 		.ascii	"N\3551\206,\216i@\022\246\365X\026\327\252\315I\376"
 393      2C8E6940 
 393      12A6F558 
 393      16D7AACD 
 393      49FE
 394 0ce5 9B9EF142 		.ascii	"\233\236\361B&\274\333\352\2521\016K\253\335`\345\010"
 394      26BCDBEA 
 394      AA310E4B 
 394      ABDD60E5 
 394      08
 395 0cf6 A7B52D0B 		.ascii	"\247\265-\013\276'w*\254\366\031\345f+\236\335Gm\356"
 395      BE27772A 
 395      ACF619E5 
 395      662B9EDD 
 395      476DEE
 396 0d09 236A4611 		.ascii	"#jF\021<;\335O\"j\215\237D\321\231X\316\302\262\336"
 396      3C3BDD4F 
 396      226A8D9F 
 396      44D19958 
 396      CEC2B2DE 
 397 0d1d EF62807B 		.ascii	"\357b\200{\325o\210\034;=\033\247Q\200\340\351\317\326"
 397      D56F881C 
 397      3B3D1BA7 
 397      5180E0E9 
 397      CFD6
 398 0d2f F0F73135 		.ascii	"\360\36715\324\216TK\323lI\367+Y\363\253y\376\373\360"
 398      D48E544B 
 398      D36C49F7 
 398      2B59F3AB 
 398      79FEFBF0 
 399 0d43 CEF44506 		.ascii	"\316\364E\006Vq\"v\276?\363QvQ0s\363\264\316\301^+\007"
 399      56712276 
 399      BE3FF351 
 399      76513073 
 399      F3B4CEC1 
 400 0d5a 967E7328 		.ascii	"\226~s(\316^\320\023\015\202\256FAOB\341N\301r\256\337"
 400      CE5ED013 
 400      0D82AE46 
 400      414F42E1 
 400      4EC172AE 
ARM GAS  /tmp/ccxoMysM.s 			page 31


 401 0d6f 34681D29 		.ascii	"4h\035)\266\0047K4\361\254\346\233\206\201\363\026\016"
 401      B604374B 
 401      34F1ACE6 
 401      9B8681F3 
 401      160E
 402 0d81 9CB771B0 		.ascii	"\234\267q\260\374\006\313.,+\3154\234)\266\014\234\226"
 402      FC06CB2E 
 402      2C2BCD34 
 402      9C29B60C 
 402      9C96
 403 0d93 718ADE3B 		.ascii	"q\212\336;oJv\266M\377 P)+s\006i\177\343w\316\012i\376"
 403      6F4A76B6 
 403      4DFF2050 
 403      292B7306 
 403      697FE377 
 404 0dab 833E7AAB 		.ascii	"\203>z\253\344\210\332\035\035Ez\330\356v\303\372\353"
 404      E488DA1D 
 404      1D457AD8 
 404      EE76C3FA 
 404      EB
 405 0dbc 259F0CC6 		.ascii	"%\237\014\306t\1771\006\252K\366\201*\367G\235M\326"
 405      747F3106 
 405      AA4BF681 
 405      2AF7479D 
 405      4DD6
 406 0dce 40754508 		.ascii	"@uE\010\251O]L\003/\320\357C\350^\024\366\337\344=J"
 406      A94F5D4C 
 406      032FD0EF 
 406      43E85E14 
 406      F6DFE43D 
 407 0de3 D9ABB4C9 		.ascii	"\331\253\264\311`P\313\320\240\226\233\025X\335\307"
 407      6050CBD0 
 407      A0969B15 
 407      58DDC7
 408 0df2 226DBBFE 		.ascii	"\"m\273\376\0322\216`\0256\371x\\\325\237\355\272\230"
 408      1A328E60 
 408      1536F978 
 408      5CD59FED 
 408      BA98
 409 0e04 4F831892 		.ascii	"O\203\030\222\221\370\372\333\267T\211\377\005%\276"
 409      91F8FADB 
 409      B75489FF 
 409      0525BE
 410 0e13 BA8F8BF5 		.ascii	"\272\217\213\3655\023\016al\265\255\310W\273\022\371"
 410      35130E61 
 410      6CB5ADC8 
 410      57BB12F9 
 411 0e23 354DE4EA 		.ascii	"5M\344\352\216\331v$`u\217\007\206\353\002\231^\250"
 411      8ED97624 
 411      60758F07 
 411      86EB0299 
 411      5EA8
 412 0e35 58EF7AC6 		.ascii	"X\357z\306\012\031\245\251\334\310\233<>_\333\345=h"
 412      0A19A5A9 
 412      DCC89B3C 
 412      3E5FDBE5 
 412      3D68
ARM GAS  /tmp/ccxoMysM.s 			page 32


 413 0e47 05B3DD2A 		.ascii	"\005\263\335*\312\341\010\267\215h\307]\241\205\\\233"
 413      CAE108B7 
 413      8D68C75D 
 413      A1855C9B 
 414 0e57 D66A8369 		.ascii	"\326j\203i\255A\323z\033\243\324:,\337\301r\243\331"
 414      AD41D37A 
 414      1BA3D43A 
 414      2CDFC172 
 414      A3D9
 415 0e69 D8FE6635 		.ascii	"\330\376f56\263^\351\355\2339\254\355p\353\205\301h"
 415      36B35EE9 
 415      ED9B39AC 
 415      ED70EB85 
 415      C168
 416 0e7b 6D5AE007 		.ascii	"mZ\340\007+Q\377\344DC\354\243\301|\305RB\377\3529\362"
 416      2B51FFE4 
 416      4443ECA3 
 416      C17CC552 
 416      42FFEA39 
 417 0e90 6F7588FC 		.ascii	"ou\210\374\217\350\234|\221\305\211\271_z\337i\307\212"
 417      8FE89C7C 
 417      91C589B9 
 417      5F7ADF69 
 417      C78A
 418 0ea2 BD383718 		.ascii	"\27587\030\202\357&\014\276\2331\340\036\304\362\032"
 418      82EF260C 
 418      BE9B31E0 
 418      1EC4F21A 
 419 0eb2 968B50A8 		.ascii	"\226\213P\250\215X\256\304r\213Y\300wu_\322\3102/L\223"
 419      8D58AEC4 
 419      728B59C0 
 419      77755FD2 
 419      C8322F4C 
 420 0ec7 8EB6FBF5 		.ascii	"\216\266\373\365\005s*\304\206\241s\212\325\2776\242"
 420      05732AC4 
 420      86A1738A 
 420      D5BF36A2 
 421 0ed7 ADFA6A8D 		.ascii	"\255\372j\2158\332f\207g\0216;\210\2205w\035\262\364"
 421      38DA6687 
 421      6711363B 
 421      88903577 
 421      1DB2F4
 422 0eea 3C44AB17 		.ascii	"<D\253\027\2408\212\347\236w:\364\234O{\246\377\273"
 422      A0388AE7 
 422      9E773AF4 
 422      9C4F7BA6 
 422      FFBB
 423 0efc 42EDE223 		.ascii	"B\355\342#\257\2613\326T\313d\327\341\225EJ\215\337"
 423      AFB133D6 
 423      54CB64D7 
 423      E195454A 
 423      8DDF
 424 0f0e FD5ACABB 		.ascii	"\375Z\312\273~\313ZJ\013\376\231\201iwem_\233\335\225"
 424      7ECB5A4A 
 424      0BFE9981 
 424      6977656D 
 424      5F9BDD95 
ARM GAS  /tmp/ccxoMysM.s 			page 33


 425 0f22 E6BE947F 		.ascii	"\346\276\224\177\272#y\030r@V\373\253\351\367\261\305"
 425      BA237918 
 425      724056FB 
 425      ABE9F7B1 
 425      C5
 426 0f33 2EBFD39E 		.ascii	".\277\323\236$]w\242\333b\327*\177\337_\337\026#\215"
 426      245D77A2 
 426      DB62D72A 
 426      7FDF5FDF 
 426      16238D
 427 0f46 4CD6B4DB 		.ascii	"L\326\264\333o\332\025\261\254\317\220\0357'\336\016"
 427      6FDA15B1 
 427      ACCF901D 
 427      3727DE0E 
 428 0f56 6452344B 		.ascii	"dR4K\253u\016\203\004iu\320\261UC\216\265\240\367\035"
 428      AB750E83 
 428      046975D0 
 428      B155438E 
 428      B5A0F71D 
 429 0f6a 5B35E568 		.ascii	"[5\345hu(\323\212\371\307'\236(\321\377%\323%\242T\222"
 429      7528D38A 
 429      F9C7279E 
 429      28D1FF25 
 429      D325A254 
 430 0f7f 4A8A52BA 		.ascii	"J\212R\272\344\231\027\206\017\033>\266$R\026I\212B"
 430      E4991786 
 430      0F1B3EB6 
 430      24521649 
 430      8A42
 431 0f91 78CCE0F8 		.ascii	"x\314\340\370\023eL\220\274\012\307\222\221\321\371"
 431      13654C90 
 431      BC0AC792 
 431      91D1F9
 432 0fa0 CFFEF68F 		.ascii	"\317\376\366\217\241aL!>(O\220G\375\364\227\341\221"
 432      A1614C21 
 432      3E284F90 
 432      47FDF497 
 432      E191
 433 0fb2 62321E8E 		.ascii	"b2\036\216\246\305\007\014\257\365\207\241\354\036\323"
 433      A6C5070C 
 433      AFF587A1 
 433      EC1ED3
 434 0fc1 62043A4A 		.ascii	"b\004:JK\274\224~\"\302\024\206\361.\034MD\245\373\365"
 434      4BBC947E 
 434      22C21486 
 434      F12E1C4D 
 434      44A5FBF5 
 435 0fd5 FB8828F0 		.ascii	"\373\210(\360i!\034\025\377\374\017\331\000\360:V^*"
 435      69211C15 
 435      FFFC0FD9 
 435      00F03A56 
 435      5E2A
 436 0fe7 10907169 		.ascii	"\020\220qii\\JH\003\265\005R\031\264)\015K\301HYX\275"
 436      695C4A48 
 436      03B50552 
 436      19B4290D 
 436      4BC14859 
ARM GAS  /tmp/ccxoMysM.s 			page 34


 437 0ffd FFFB9C   		.ascii	"\377\373\234"
 438 1000 4D2365A5 		.ascii	"M#e\245\320,?\025N\010c%\270\244Da\314\340\356\344\223"
 438      D02C3F15 
 438      4E086325 
 438      B8A44461 
 438      CCE0EEE4 
 439 1015 8CA7A231 		.ascii	"\214\247\2421AL\227<;l\030\200h\235\007\244\224\030"
 439      414C973C 
 439      3B6C1880 
 439      689D07A4 
 439      9418
 440 1027 4D86A5EF 		.ascii	"M\206\245\357\227\224\247E\275\223\204P\021\213\216"
 440      9794A745 
 440      BD938450 
 440      118B8E
 441 1036 28494BA5 		.ascii	"(IK\245\321\204DH,\207\353\317\177\026\226\376\311\256"
 441      D1844448 
 441      2C87EBCF 
 441      7F1696FE 
 441      C9AE
 442 1048 5A9C8F94 		.ascii	"Z\234\217\224E\023BI\270T\030\311\227\307\244\260\006"
 442      45134249 
 442      B85418C9 
 442      97C7A4B0 
 442      06
 443 1059 DE2B1CD6 		.ascii	"\336+\034\326\032\"\231\321d \222LH@\365\217]\251\023"
 443      1A2299D1 
 443      6420924C 
 443      4840F58F 
 443      5DA913
 444 106c 2054CD01 		.ascii	" T\315\001HD\032[ \012\243x1\036\2268\361IN\374gN|\212"
 444      48441A5B 
 444      200AA378 
 444      311E9638 
 444      F1494EFC 
 445 1084 130773E2 		.ascii	"\023\007s\342\020N\374\205O\374\351 8\177\312\305D\270"
 445      104EFC85 
 445      4FFCE920 
 445      387FCAC5 
 445      44B8
 446 1096 FC3C2F15 		.ascii	"\374</\025\206\372\001\"\241\012A\204k2V*\210\376H\031"
 446      86FA0122 
 446      A10A4184 
 446      6B32562A 
 446      88FE4819 
 447 10aa 2F12B1F1 		.ascii	"/\022\261\361q\241WZ\032\315\307\242\243\022a\011\231"
 447      71A1575A 
 447      1ACDC7A2 
 447      A3126109 
 447      99
 448 10bb 7BEAC9B0 		.ascii	"{\352\311\260D\311\305\333\024(tt,\032\217J\005\022"
 448      44C9C5DB 
 448      14287474 
 448      2C1A8F4A 
 448      0512
 449 10cd 51AD1096 		.ascii	"Q\255\020\226\002\344\345\020P\223Z\015\356\002)T\273"
 449      02E4E510 
ARM GAS  /tmp/ccxoMysM.s 			page 35


 449      50935A0D 
 449      EE022954 
 449      BB
 450 10de 1090E2C9 		.ascii	"\020\220\342\311R\001\177\217\214\361\243\322\001I\024"
 450      52017F8F 
 450      8CF1A3D2 
 450      014914
 451 10ed 46A69169 		.ascii	"F\246\221ir\223\027O\217\202\227T\022\320\\\223\211"
 451      7293174F 
 451      8F829754 
 451      12D05C93 
 451      89
 452 10fe 583A0E5E 		.ascii	"X:\016^\025\010c\243R\004\000\362+\244\344\210?\245"
 452      150863A3 
 452      520400F2 
 452      2BA4E488 
 452      3FA5
 453 1110 FA517B80 		.ascii	"\372Q{\200\246\202($\"\000\234W!Ib\252\010\354#-\304"
 453      A6822824 
 453      22009C57 
 453      214962AA 
 453      08EC232D 
 454 1125 F95419C8 		.ascii	"\371T\031\310\346\0079MD n\320G\005J\207\377\\.\224"
 454      E607394D 
 454      44206ED0 
 454      47054A87 
 454      FF5C2E94 
 455 1139 034A5FDD 		.ascii	"\003J_\335\276\350\243\000\275\346E\022\240\264\274"
 455      BEE8A300 
 455      BDE64512 
 455      A0B4BC
 456 1148 7418AE40 		.ascii	"t\030\256@\004\264N\025@\335x9\250*g?qi,\261\2418\205"
 456      04B44E15 
 456      40DD7839 
 456      A82A673F 
 456      71692CB1 
 457 115f 8B879315 		.ascii	"\213\207\223\025\011\22076\004\376\342\252\205VHP/U"
 457      09903736 
 457      04FEE2AA 
 457      85564850 
 457      2F55
 458 1171 288C1112 		.ascii	"(\214\021\022R\234O\217\2067B\005\271\361\245\302\345"
 458      529C4F8F 
 458      86374205 
 458      B9F1A5C2 
 458      E5
 459 1182 C51A45B1 		.ascii	"\305\032E\261h\032\210\350c\240\221<\011\246\302\025"
 459      681A88E8 
 459      63A0913C 
 459      09A6C215 
 460 1192 7C548A26 		.ascii	"|T\212&F\201J@X*\275x\013\017\204\224\220\000\023\035"
 460      46814A40 
 460      582ABD78 
 460      0B0F8494 
 460      9000131D 
 461 11a6 05B5A00B 		.ascii	"\005\265\240\013R\277\027\0219\037C[\203\207\251d2\366"
 461      52BF1711 
ARM GAS  /tmp/ccxoMysM.s 			page 36


 461      391F435B 
 461      8387A964 
 461      32F6
 462 11b8 582E0E24 		.ascii	"X.\016$\"\250~R4.\204\343\340\270\345\242\020\027\210"
 462      22A87E52 
 462      342E84E3 
 462      E0B8E5A2 
 462      101788
 463 11cb 3002A284 		.ascii	"0\002\242\204B\361\217\020\322 \376\244\230\226\374"
 463      42F18F10 
 463      D220FEA4 
 463      9896FC
 464 11da 313E2DE5 		.ascii	"1>-\345\227\343c6Q J\330J\352\025)\217\227\307x):F\240"
 464      97E36336 
 464      51204AD8 
 464      4AEA1529 
 464      8F97C778 
 465 11f2 F690EE4D 		.ascii	"\366\220\356M\243\001\330`\272\"\342KH)_RJ}\237>\205"
 465      A301D860 
 465      BA22E24B 
 465      48295F52 
 465      4A7D9F3E 
 466 1207 124C9AF6 		.ascii	"\022L\232\366\026\216\210Q\300++}X\177\233Le\275\314"
 466      168E8851 
 466      C02B2B7D 
 466      587F9B4C 
 466      65BDCC
 467 121a D1142295 		.ascii	"\321\024\"\225sSxY\034)\373\303\360\337\215\370\223"
 467      73537859 
 467      1C29FBC3 
 467      F0DF8DF8 
 467      93
 468 122b 10919E87 		.ascii	"\020\221\236\207@\365=\362sX\031\037M\014\317\260\373"
 468      40F53DF2 
 468      7358191F 
 468      4D0CCFB0 
 468      FB
 469 123c 87E44B05 		.ascii	"\207\344K\005\211d4\021\003/~\220Tx\221\364c\250\360"
 469      89643411 
 469      032F7E90 
 469      547891F4 
 469      63A8F0
 470 124f D203EAD3 		.ascii	"\322\003\352\323d\312\370\260\220\330#\3041!\256\306"
 470      64CAF8B0 
 470      90D823C4 
 470      3121AEC6 
 471 125f 2EF5BE88 		.ascii	".\365\276\210(o\034Ugox\234\371\035\020UC\311\0271\030"
 471      286F1C55 
 471      676F789C 
 471      F91D1055 
 471      43C91731 
 472 1274 E489E8A5 		.ascii	"\344\211\350\245\"\365RQ\365\322 <-\027\301\360\245"
 472      22F55251 
 472      F5D2203C 
 472      2D17C1F0 
 472      A5
 473 1285 3C91347A 		.ascii	"<\2214zpLT\224\312\371X\230\210[\324\354\344!\000\266"
ARM GAS  /tmp/ccxoMysM.s 			page 37


 473      704C5494 
 473      CAF95898 
 473      885BD4EC 
 473      E42100B6 
 474 1299 79D1C7F4 		.ascii	"y\321\307\364L5y\323\243\300\030\011\215\222\\I\334"
 474      4C3579D3 
 474      A3C01809 
 474      8D925C49 
 474      DC
 475 12aa 0C12A251 		.ascii	"\014\022\242Q\217\005\360\244T\210I<\334\214,OD\302"
 475      8F05F0A4 
 475      5488493C 
 475      DC8C2C4F 
 475      44C2
 476 12bc 5887DCE5 		.ascii	"X\207\334\345\223\272\274X\010\027b\002\244:<\"\335"
 476      93BABC58 
 476      08176202 
 476      A43A3C22 
 476      DD
 477 12cd 1553F64B 		.ascii	"\025S\366K\205\021\345\243T\3435>\011\246\370D4Bl5\000"
 477      8511E5A3 
 477      54E3353E 
 477      09A6F844 
 477      34426C35 
 478 12e2 9A20DE55 		.ascii	"\232 \336U\200C\014\334<\236\313(\2611\330\345}\304"
 478      80430CDC 
 478      3C9ECB28 
 478      B131D8E5 
 478      7DC4
 479 12f4 19441E22 		.ascii	"\031D\036\"\300\210\362\221#\011?\001iD8\035\375o\241"
 479      C088F291 
 479      23093F01 
 479      6944381D 
 479      FD6FA1
 480 1307 98F45411 		.ascii	"\230\364T\021\011\243O\301c\030q\010Yy\344\232\012B"
 480      09A34FC1 
 480      63187108 
 480      5979E49A 
 480      0A42
 481 1319 A9869202 		.ascii	"\251\206\222\002\270\303\010\225\017\355R\222\030\204"
 481      B8C30895 
 481      0FED5292 
 481      1884
 482 1327 8B0A5564 		.ascii	"\213\012Ud\304\365\225\216\030\325+\0166\241z^_)\036"
 482      C4F5958E 
 482      18D52B0E 
 482      36A17A5E 
 482      5F291E
 483 133a 8E40701C 		.ascii	"\216@p\034!\202U'!B\346'G\216L\013\022'\305s\222\255"
 483      21825527 
 483      2142E627 
 483      478E4C0B 
 483      1227C573 
 484 1350 0E8C654C 		.ascii	"\016\214eL\361hAL\0101j\225R^\202\214\206\005\011\352"
 484      F168414C 
 484      08316A95 
 484      525E828C 
ARM GAS  /tmp/ccxoMysM.s 			page 38


 484      860509EA 
 485 1364 0EBDE2BA 		.ascii	"\016\275\342\272Yk\267 \234\"c\233\342hiL\240a\000\334"
 485      596BB720 
 485      9C22639B 
 485      E268694C 
 485      A06100DC 
 486 1378 9F8B9495 		.ascii	"\237\213\224\225X\372\005\015\226\014\033\376\342\363"
 486      58FA050D 
 486      960C1BFE 
 486      E2F3
 487 1386 2F66BA27 		.ascii	"/f\272'\303\177$\376o\240/ \241w\030\"\245\024\376\325"
 487      C37F24FE 
 487      6FA02F20 
 487      A1771822 
 487      A514FED5 
 488 139a 332FFEFA 		.ascii	"3/\376\372\367/<\337\233\217U\360\343\310\350L,<o\014"
 488      F72F3CDF 
 488      9B8F55F0 
 488      E3C8E84C 
 488      2C3C6F0C 
 489 13ae 1F2B17FE 		.ascii	"\037+\027\376\017\340\321\227\376"
 489      0FE0D197 
 489      FE
 490              		.text
 491              		.section	.gnu.lto_.symtab.500a1248df126dd5,"",%progbits
 492 0000 5F737461 		.ascii	"_stats_init\000\000\000\000\000\000\000\000\000\000"
 492      74735F69 
 492      6E697400 
 492      00000000 
 492      00000000 
 493 0015 0000AF00 		.ascii	"\000\000\257\000\000\000_stats_increase_irq\000\000"
 493      00005F73 
 493      74617473 
 493      5F696E63 
 493      72656173 
 494 0030 00000000 		.ascii	"\000\000\000\000\000\000\000\000\000\000\262\000\000"
 494      00000000 
 494      0000B200 
 494      00
 495 003d 005F7374 		.ascii	"\000_stats_ctxswc\000\000\000\000\000\000\000\000\000"
 495      6174735F 
 495      63747873 
 495      77630000 
 495      00000000 
 496 0054 000000B5 		.ascii	"\000\000\000\265\000\000\000_stats_start_measure_cr"
 496      0000005F 
 496      73746174 
 496      735F7374 
 496      6172745F 
 497 0072 69745F74 		.ascii	"it_thd\000\000\000\000\000\000\000\000\000\000\000\000"
 497      68640000 
 497      00000000 
 497      00000000 
 497      0000
 498 0084 93010000 		.ascii	"\223\001\000\000_stats_stop_measure_crit_thd\000\000"
 498      5F737461 
 498      74735F73 
ARM GAS  /tmp/ccxoMysM.s 			page 39


 498      746F705F 
 498      6D656173 
 499 00a6 00000000 		.ascii	"\000\000\000\000\000\000\000\000\000\000\226\001\000"
 499      00000000 
 499      00009601 
 499      00
 500 00b3 005F7374 		.ascii	"\000_stats_start_measure_crit_isr\000\000\000\000\000"
 500      6174735F 
 500      73746172 
 500      745F6D65 
 500      61737572 
 501 00d6 00000000 		.ascii	"\000\000\000\000\000\000\000\231\001\000\000_stats_"
 501      00000099 
 501      0100005F 
 501      73746174 
 501      735F
 502 00e8 73746F70 		.ascii	"stop_measure_crit_isr\000\000\000\000\000\000\000\000"
 502      5F6D6561 
 502      73757265 
 502      5F637269 
 502      745F6973 
 503 0105 00000000 		.ascii	"\000\000\000\000\234\001\000\000ch\000\000\002\000\000"
 503      9C010000 
 503      63680000 
 503      020000
 504 0114 00000000 		.ascii	"\000\000\000\000\000\000\000\261\001\000\000chTMObj"
 504      000000B1 
 504      01000063 
 504      68544D4F 
 504      626A
 505 0126 65637449 		.ascii	"ectInit\000\000\002\000\000\000\000\000\000\000\000"
 505      6E697400 
 505      00020000 
 505      00000000 
 505      0000
 506 0138 009F0100 		.ascii	"\000\237\001\000\000chTMChainMeasurementToX\000\000"
 506      00636854 
 506      4D436861 
 506      696E4D65 
 506      61737572 
 507 0156 02000000 		.ascii	"\002\000\000\000\000\000\000\000\000\000\244\001\000"
 507      00000000 
 507      0000A401 
 507      00
 508 0163 00636854 		.ascii	"\000chTMStartMeasurementX\000\000\002\000\000\000\000"
 508      4D537461 
 508      72744D65 
 508      61737572 
 508      656D656E 
 509 0180 00000000 		.ascii	"\000\000\000\000\000\253\001\000\000chTMStopMeasure"
 509      00AB0100 
 509      00636854 
 509      4D53746F 
 509      704D6561 
 510 0198 6D656E74 		.ascii	"mentX\000\000\002\000\000\000\000\000\000\000\000\000"
 510      58000002 
 510      00000000 
ARM GAS  /tmp/ccxoMysM.s 			page 40


 510      00000000 
 510      00
 511 01a9 AE010000 		.ascii	"\256\001\000\000"
 512              		.text
 513              		.section	.gnu.lto_.opts,"",%progbits
 514 0000 272D6D63 		.ascii	"'-mcpu=cortex-m4' '-mno-thumb-interwork' '-mthumb' "
 514      70753D63 
 514      6F727465 
 514      782D6D34 
 514      2720272D 
 515 0033 272D6767 		.ascii	"'-ggdb' '-O0' '-fomit-frame-pointer' '-falign-funct"
 515      64622720 
 515      272D4F30 
 515      2720272D 
 515      666F6D69 
 516 0066 696F6E73 		.ascii	"ions=16' '-ffunction-sections' '-fdata-sections' '-"
 516      3D313627 
 516      20272D66 
 516      66756E63 
 516      74696F6E 
 517 0099 666E6F2D 		.ascii	"fno-common' '-flto'\000"
 517      636F6D6D 
 517      6F6E2720 
 517      272D666C 
 517      746F2700 
 518              		.text
 519              		.cfi_sections	.debug_frame
 520              		.section	.text.port_lock,"ax",%progbits
 521              		.align	2
 522              		.p2align 4,,15
 523              		.thumb
 524              		.thumb_func
 525              		.type	port_lock, %function
 526              	port_lock:
 527              	.LFB127:
 528              		.file 1 "../../../../os/rt/ports/ARMCMx/chcore_v7m.h"
 529              		.loc 1 456 0
 530              		.cfi_startproc
 531              		@ args = 0, pretend = 0, frame = 8
 532              		@ frame_needed = 0, uses_anonymous_args = 0
 533              		@ link register save eliminated.
 534 0000 82B0     		sub	sp, sp, #8
 535              		.cfi_def_cfa_offset 8
 536 0002 2023     		movs	r3, #32
 537 0004 0193     		str	r3, [sp, #4]
 538              	.LBB6:
 539              	.LBB7:
 540              		.file 2 "../../../../os/ext/CMSIS/include/core_cmFunc.h"
 541              		.loc 2 548 0
 542 0006 019B     		ldr	r3, [sp, #4]
 543              	@ 548 "../../../../os/ext/CMSIS/include/core_cmFunc.h" 1
 544 0008 83F31188 		MSR basepri, r3
 545              	@ 0 "" 2
 546              		.thumb
 547              	.LBE7:
 548              	.LBE6:
 549              		.loc 1 473 0
ARM GAS  /tmp/ccxoMysM.s 			page 41


 550 000c 02B0     		add	sp, sp, #8
 551              		@ sp needed
 552 000e 7047     		bx	lr
 553              		.cfi_endproc
 554              	.LFE127:
 555              		.size	port_lock, .-port_lock
 556              		.section	.text.port_unlock,"ax",%progbits
 557              		.align	2
 558              		.p2align 4,,15
 559              		.thumb
 560              		.thumb_func
 561              		.type	port_unlock, %function
 562              	port_unlock:
 563              	.LFB128:
 564              		.loc 1 480 0
 565              		.cfi_startproc
 566              		@ args = 0, pretend = 0, frame = 8
 567              		@ frame_needed = 0, uses_anonymous_args = 0
 568              		@ link register save eliminated.
 569 0000 82B0     		sub	sp, sp, #8
 570              		.cfi_def_cfa_offset 8
 571 0002 0023     		movs	r3, #0
 572 0004 0193     		str	r3, [sp, #4]
 573              	.LBB8:
 574              	.LBB9:
 575              		.loc 2 548 0
 576 0006 019B     		ldr	r3, [sp, #4]
 577              	@ 548 "../../../../os/ext/CMSIS/include/core_cmFunc.h" 1
 578 0008 83F31188 		MSR basepri, r3
 579              	@ 0 "" 2
 580              		.thumb
 581              	.LBE9:
 582              	.LBE8:
 583              		.loc 1 487 0
 584 000c 02B0     		add	sp, sp, #8
 585              		@ sp needed
 586 000e 7047     		bx	lr
 587              		.cfi_endproc
 588              	.LFE128:
 589              		.size	port_unlock, .-port_unlock
 590              		.section	.text.port_lock_from_isr,"ax",%progbits
 591              		.align	2
 592              		.p2align 4,,15
 593              		.thumb
 594              		.thumb_func
 595              		.type	port_lock_from_isr, %function
 596              	port_lock_from_isr:
 597              	.LFB129:
 598              		.loc 1 495 0
 599              		.cfi_startproc
 600              		@ args = 0, pretend = 0, frame = 0
 601              		@ frame_needed = 0, uses_anonymous_args = 0
 602 0000 08B5     		push	{r3, lr}
 603              		.cfi_def_cfa_offset 8
 604              		.cfi_offset 3, -8
 605              		.cfi_offset 14, -4
 606              		.loc 1 497 0
ARM GAS  /tmp/ccxoMysM.s 			page 42


 607 0002 FFF7FEFF 		bl	port_lock
 608              		.loc 1 498 0
 609 0006 08BD     		pop	{r3, pc}
 610              		.cfi_endproc
 611              	.LFE129:
 612              		.size	port_lock_from_isr, .-port_lock_from_isr
 613 0008 AFF30080 		.section	.text.port_unlock_from_isr,"ax",%progbits
 613      AFF30080 
 614              		.align	2
 615              		.p2align 4,,15
 616              		.thumb
 617              		.thumb_func
 618              		.type	port_unlock_from_isr, %function
 619              	port_unlock_from_isr:
 620              	.LFB130:
 621              		.loc 1 506 0
 622              		.cfi_startproc
 623              		@ args = 0, pretend = 0, frame = 0
 624              		@ frame_needed = 0, uses_anonymous_args = 0
 625 0000 08B5     		push	{r3, lr}
 626              		.cfi_def_cfa_offset 8
 627              		.cfi_offset 3, -8
 628              		.cfi_offset 14, -4
 629              		.loc 1 508 0
 630 0002 FFF7FEFF 		bl	port_unlock
 631              		.loc 1 509 0
 632 0006 08BD     		pop	{r3, pc}
 633              		.cfi_endproc
 634              	.LFE130:
 635              		.size	port_unlock_from_isr, .-port_unlock_from_isr
 636 0008 AFF30080 		.section	.text._stats_init,"ax",%progbits
 636      AFF30080 
 637              		.align	2
 638              		.p2align 4,,15
 639              		.global	_stats_init
 640              		.thumb
 641              		.thumb_func
 642              		.type	_stats_init, %function
 643              	_stats_init:
 644              	.LFB241:
 645              		.file 3 "../../../../os/rt/src/chstats.c"
 646              		.loc 3 62 0
 647              		.cfi_startproc
 648              		@ args = 0, pretend = 0, frame = 0
 649              		@ frame_needed = 0, uses_anonymous_args = 0
 650 0000 08B5     		push	{r3, lr}
 651              		.cfi_def_cfa_offset 8
 652              		.cfi_offset 3, -8
 653              		.cfi_offset 14, -4
 654              		.loc 3 64 0
 655 0002 40F20003 		movw	r3, #:lower16:ch
 656 0006 C0F20003 		movt	r3, #:upper16:ch
 657 000a 0022     		movs	r2, #0
 658 000c C3F8A824 		str	r2, [r3, #1192]
 659              		.loc 3 65 0
 660 0010 40F20003 		movw	r3, #:lower16:ch
 661 0014 C0F20003 		movt	r3, #:upper16:ch
ARM GAS  /tmp/ccxoMysM.s 			page 43


 662 0018 0022     		movs	r2, #0
 663 001a C3F8AC24 		str	r2, [r3, #1196]
 664              		.loc 3 66 0
 665 001e 0348     		ldr	r0, .L6
 666 0020 FFF7FEFF 		bl	chTMObjectInit
 667              		.loc 3 67 0
 668 0024 0248     		ldr	r0, .L6+4
 669 0026 FFF7FEFF 		bl	chTMObjectInit
 670              		.loc 3 68 0
 671 002a 08BD     		pop	{r3, pc}
 672              	.L7:
 673              		.align	2
 674              	.L6:
 675 002c B0040000 		.word	ch+1200
 676 0030 C8040000 		.word	ch+1224
 677              		.cfi_endproc
 678              	.LFE241:
 679              		.size	_stats_init, .-_stats_init
 680 0034 AFF30080 		.section	.text._stats_increase_irq,"ax",%progbits
 680      AFF30080 
 680      AFF30080 
 681              		.align	2
 682              		.p2align 4,,15
 683              		.global	_stats_increase_irq
 684              		.thumb
 685              		.thumb_func
 686              		.type	_stats_increase_irq, %function
 687              	_stats_increase_irq:
 688              	.LFB242:
 689              		.loc 3 73 0
 690              		.cfi_startproc
 691              		@ args = 0, pretend = 0, frame = 0
 692              		@ frame_needed = 0, uses_anonymous_args = 0
 693 0000 08B5     		push	{r3, lr}
 694              		.cfi_def_cfa_offset 8
 695              		.cfi_offset 3, -8
 696              		.cfi_offset 14, -4
 697              		.loc 3 75 0
 698 0002 FFF7FEFF 		bl	port_lock_from_isr
 699              		.loc 3 76 0
 700 0006 40F20003 		movw	r3, #:lower16:ch
 701 000a C0F20003 		movt	r3, #:upper16:ch
 702 000e D3F8A834 		ldr	r3, [r3, #1192]
 703 0012 5A1C     		adds	r2, r3, #1
 704 0014 40F20003 		movw	r3, #:lower16:ch
 705 0018 C0F20003 		movt	r3, #:upper16:ch
 706 001c C3F8A824 		str	r2, [r3, #1192]
 707              		.loc 3 77 0
 708 0020 FFF7FEFF 		bl	port_unlock_from_isr
 709              		.loc 3 78 0
 710 0024 08BD     		pop	{r3, pc}
 711              		.cfi_endproc
 712              	.LFE242:
 713              		.size	_stats_increase_irq, .-_stats_increase_irq
 714 0026 00BFAFF3 		.section	.text._stats_ctxswc,"ax",%progbits
 714      0080AFF3 
 714      0080
ARM GAS  /tmp/ccxoMysM.s 			page 44


 715              		.align	2
 716              		.p2align 4,,15
 717              		.global	_stats_ctxswc
 718              		.thumb
 719              		.thumb_func
 720              		.type	_stats_ctxswc, %function
 721              	_stats_ctxswc:
 722              	.LFB243:
 723              		.loc 3 86 0
 724              		.cfi_startproc
 725              		@ args = 0, pretend = 0, frame = 8
 726              		@ frame_needed = 0, uses_anonymous_args = 0
 727 0000 00B5     		push	{lr}
 728              		.cfi_def_cfa_offset 4
 729              		.cfi_offset 14, -4
 730 0002 83B0     		sub	sp, sp, #12
 731              		.cfi_def_cfa_offset 16
 732 0004 0190     		str	r0, [sp, #4]
 733 0006 0091     		str	r1, [sp]
 734              		.loc 3 88 0
 735 0008 40F20003 		movw	r3, #:lower16:ch
 736 000c C0F20003 		movt	r3, #:upper16:ch
 737 0010 D3F8AC34 		ldr	r3, [r3, #1196]
 738 0014 5A1C     		adds	r2, r3, #1
 739 0016 40F20003 		movw	r3, #:lower16:ch
 740 001a C0F20003 		movt	r3, #:upper16:ch
 741 001e C3F8AC24 		str	r2, [r3, #1196]
 742              		.loc 3 89 0
 743 0022 009B     		ldr	r3, [sp]
 744 0024 03F14802 		add	r2, r3, #72
 745 0028 019B     		ldr	r3, [sp, #4]
 746 002a 4833     		adds	r3, r3, #72
 747 002c 1046     		mov	r0, r2
 748 002e 1946     		mov	r1, r3
 749 0030 FFF7FEFF 		bl	chTMChainMeasurementToX
 750              		.loc 3 90 0
 751 0034 03B0     		add	sp, sp, #12
 752              		@ sp needed
 753 0036 5DF804FB 		ldr	pc, [sp], #4
 754              		.cfi_endproc
 755              	.LFE243:
 756              		.size	_stats_ctxswc, .-_stats_ctxswc
 757 003a 00BFAFF3 		.section	.text._stats_start_measure_crit_thd,"ax",%progbits
 757      0080
 758              		.align	2
 759              		.p2align 4,,15
 760              		.global	_stats_start_measure_crit_thd
 761              		.thumb
 762              		.thumb_func
 763              		.type	_stats_start_measure_crit_thd, %function
 764              	_stats_start_measure_crit_thd:
 765              	.LFB244:
 766              		.loc 3 95 0
 767              		.cfi_startproc
 768              		@ args = 0, pretend = 0, frame = 0
 769              		@ frame_needed = 0, uses_anonymous_args = 0
 770 0000 08B5     		push	{r3, lr}
ARM GAS  /tmp/ccxoMysM.s 			page 45


 771              		.cfi_def_cfa_offset 8
 772              		.cfi_offset 3, -8
 773              		.cfi_offset 14, -4
 774              		.loc 3 97 0
 775 0002 0248     		ldr	r0, .L11
 776 0004 FFF7FEFF 		bl	chTMStartMeasurementX
 777              		.loc 3 98 0
 778 0008 08BD     		pop	{r3, pc}
 779              	.L12:
 780 000a 00BF     		.align	2
 781              	.L11:
 782 000c B0040000 		.word	ch+1200
 783              		.cfi_endproc
 784              	.LFE244:
 785              		.size	_stats_start_measure_crit_thd, .-_stats_start_measure_crit_thd
 786              		.section	.text._stats_stop_measure_crit_thd,"ax",%progbits
 787              		.align	2
 788              		.p2align 4,,15
 789              		.global	_stats_stop_measure_crit_thd
 790              		.thumb
 791              		.thumb_func
 792              		.type	_stats_stop_measure_crit_thd, %function
 793              	_stats_stop_measure_crit_thd:
 794              	.LFB245:
 795              		.loc 3 103 0
 796              		.cfi_startproc
 797              		@ args = 0, pretend = 0, frame = 0
 798              		@ frame_needed = 0, uses_anonymous_args = 0
 799 0000 08B5     		push	{r3, lr}
 800              		.cfi_def_cfa_offset 8
 801              		.cfi_offset 3, -8
 802              		.cfi_offset 14, -4
 803              		.loc 3 105 0
 804 0002 0248     		ldr	r0, .L14
 805 0004 FFF7FEFF 		bl	chTMStopMeasurementX
 806              		.loc 3 106 0
 807 0008 08BD     		pop	{r3, pc}
 808              	.L15:
 809 000a 00BF     		.align	2
 810              	.L14:
 811 000c B0040000 		.word	ch+1200
 812              		.cfi_endproc
 813              	.LFE245:
 814              		.size	_stats_stop_measure_crit_thd, .-_stats_stop_measure_crit_thd
 815              		.section	.text._stats_start_measure_crit_isr,"ax",%progbits
 816              		.align	2
 817              		.p2align 4,,15
 818              		.global	_stats_start_measure_crit_isr
 819              		.thumb
 820              		.thumb_func
 821              		.type	_stats_start_measure_crit_isr, %function
 822              	_stats_start_measure_crit_isr:
 823              	.LFB246:
 824              		.loc 3 111 0
 825              		.cfi_startproc
 826              		@ args = 0, pretend = 0, frame = 0
 827              		@ frame_needed = 0, uses_anonymous_args = 0
ARM GAS  /tmp/ccxoMysM.s 			page 46


 828 0000 08B5     		push	{r3, lr}
 829              		.cfi_def_cfa_offset 8
 830              		.cfi_offset 3, -8
 831              		.cfi_offset 14, -4
 832              		.loc 3 113 0
 833 0002 0248     		ldr	r0, .L17
 834 0004 FFF7FEFF 		bl	chTMStartMeasurementX
 835              		.loc 3 114 0
 836 0008 08BD     		pop	{r3, pc}
 837              	.L18:
 838 000a 00BF     		.align	2
 839              	.L17:
 840 000c C8040000 		.word	ch+1224
 841              		.cfi_endproc
 842              	.LFE246:
 843              		.size	_stats_start_measure_crit_isr, .-_stats_start_measure_crit_isr
 844              		.section	.text._stats_stop_measure_crit_isr,"ax",%progbits
 845              		.align	2
 846              		.p2align 4,,15
 847              		.global	_stats_stop_measure_crit_isr
 848              		.thumb
 849              		.thumb_func
 850              		.type	_stats_stop_measure_crit_isr, %function
 851              	_stats_stop_measure_crit_isr:
 852              	.LFB247:
 853              		.loc 3 119 0
 854              		.cfi_startproc
 855              		@ args = 0, pretend = 0, frame = 0
 856              		@ frame_needed = 0, uses_anonymous_args = 0
 857 0000 08B5     		push	{r3, lr}
 858              		.cfi_def_cfa_offset 8
 859              		.cfi_offset 3, -8
 860              		.cfi_offset 14, -4
 861              		.loc 3 121 0
 862 0002 0248     		ldr	r0, .L20
 863 0004 FFF7FEFF 		bl	chTMStopMeasurementX
 864              		.loc 3 122 0
 865 0008 08BD     		pop	{r3, pc}
 866              	.L21:
 867 000a 00BF     		.align	2
 868              	.L20:
 869 000c C8040000 		.word	ch+1224
 870              		.cfi_endproc
 871              	.LFE247:
 872              		.size	_stats_stop_measure_crit_isr, .-_stats_stop_measure_crit_isr
 873              		.text
 874              	.Letext0:
 875              		.file 4 "/usr/include/newlib/machine/_default_types.h"
 876              		.file 5 "/usr/include/newlib/stdint.h"
 877              		.file 6 "../../../../os/rt/ports/ARMCMx/compilers/GCC/chtypes.h"
 878              		.file 7 "../../../../os/rt/include/chsystypes.h"
 879              		.file 8 "../../../../os/rt/include/chschd.h"
 880              		.file 9 "../../../../os/rt/ports/ARMCMx/chcore.h"
 881              		.file 10 "../../../../os/rt/include/chdebug.h"
 882              		.file 11 "../../../../os/rt/include/chtm.h"
 883              		.file 12 "../../../../os/rt/include/chstats.h"
 884              		.file 13 "../../../../os/rt/include/chsem.h"
ARM GAS  /tmp/ccxoMysM.s 			page 47


 885              		.file 14 "../../../../os/rt/include/chmtx.h"
 886              		.file 15 "../../../../os/ext/CMSIS/include/core_cm4.h"
 887              		.section	.debug_info,"",%progbits
 888              	.Ldebug_info0:
 889 0000 F8080000 		.4byte	0x8f8
 890 0004 0400     		.2byte	0x4
 891 0006 00000000 		.4byte	.Ldebug_abbrev0
 892 000a 04       		.byte	0x4
 893 000b 01       		.uleb128 0x1
 894 000c 2A040000 		.4byte	.LASF139
 895 0010 01       		.byte	0x1
 896 0011 C7020000 		.4byte	.LASF140
 897 0015 70020000 		.4byte	.LASF141
 898 0019 00000000 		.4byte	.Ldebug_ranges0+0
 899 001d 00000000 		.4byte	0
 900 0021 00000000 		.4byte	.Ldebug_line0
 901 0025 02       		.uleb128 0x2
 902 0026 04       		.byte	0x4
 903 0027 05       		.byte	0x5
 904 0028 696E7400 		.ascii	"int\000"
 905 002c 03       		.uleb128 0x3
 906 002d 04       		.byte	0x4
 907 002e 07       		.byte	0x7
 908 002f 06020000 		.4byte	.LASF0
 909 0033 03       		.uleb128 0x3
 910 0034 01       		.byte	0x1
 911 0035 06       		.byte	0x6
 912 0036 3D010000 		.4byte	.LASF1
 913 003a 04       		.uleb128 0x4
 914 003b 3F000000 		.4byte	.LASF5
 915 003f 04       		.byte	0x4
 916 0040 1C       		.byte	0x1c
 917 0041 45000000 		.4byte	0x45
 918 0045 03       		.uleb128 0x3
 919 0046 01       		.byte	0x1
 920 0047 08       		.byte	0x8
 921 0048 DE040000 		.4byte	.LASF2
 922 004c 03       		.uleb128 0x3
 923 004d 02       		.byte	0x2
 924 004e 05       		.byte	0x5
 925 004f F6040000 		.4byte	.LASF3
 926 0053 03       		.uleb128 0x3
 927 0054 02       		.byte	0x2
 928 0055 07       		.byte	0x7
 929 0056 39020000 		.4byte	.LASF4
 930 005a 04       		.uleb128 0x4
 931 005b AB050000 		.4byte	.LASF6
 932 005f 04       		.byte	0x4
 933 0060 37       		.byte	0x37
 934 0061 65000000 		.4byte	0x65
 935 0065 03       		.uleb128 0x3
 936 0066 04       		.byte	0x4
 937 0067 05       		.byte	0x5
 938 0068 76010000 		.4byte	.LASF7
 939 006c 04       		.uleb128 0x4
 940 006d 04060000 		.4byte	.LASF8
 941 0071 04       		.byte	0x4
ARM GAS  /tmp/ccxoMysM.s 			page 48


 942 0072 38       		.byte	0x38
 943 0073 77000000 		.4byte	0x77
 944 0077 03       		.uleb128 0x3
 945 0078 04       		.byte	0x4
 946 0079 07       		.byte	0x7
 947 007a 94050000 		.4byte	.LASF9
 948 007e 03       		.uleb128 0x3
 949 007f 08       		.byte	0x8
 950 0080 05       		.byte	0x5
 951 0081 2F010000 		.4byte	.LASF10
 952 0085 04       		.uleb128 0x4
 953 0086 E3030000 		.4byte	.LASF11
 954 008a 04       		.byte	0x4
 955 008b 4E       		.byte	0x4e
 956 008c 90000000 		.4byte	0x90
 957 0090 03       		.uleb128 0x3
 958 0091 08       		.byte	0x8
 959 0092 07       		.byte	0x7
 960 0093 98000000 		.4byte	.LASF12
 961 0097 04       		.uleb128 0x4
 962 0098 86060000 		.4byte	.LASF13
 963 009c 05       		.byte	0x5
 964 009d 2A       		.byte	0x2a
 965 009e 3A000000 		.4byte	0x3a
 966 00a2 04       		.uleb128 0x4
 967 00a3 D6040000 		.4byte	.LASF14
 968 00a7 05       		.byte	0x5
 969 00a8 41       		.byte	0x41
 970 00a9 5A000000 		.4byte	0x5a
 971 00ad 04       		.uleb128 0x4
 972 00ae 56050000 		.4byte	.LASF15
 973 00b2 05       		.byte	0x5
 974 00b3 42       		.byte	0x42
 975 00b4 6C000000 		.4byte	0x6c
 976 00b8 04       		.uleb128 0x4
 977 00b9 29000000 		.4byte	.LASF16
 978 00bd 05       		.byte	0x5
 979 00be 4E       		.byte	0x4e
 980 00bf 85000000 		.4byte	0x85
 981 00c3 04       		.uleb128 0x4
 982 00c4 36060000 		.4byte	.LASF17
 983 00c8 06       		.byte	0x6
 984 00c9 39       		.byte	0x39
 985 00ca AD000000 		.4byte	0xad
 986 00ce 04       		.uleb128 0x4
 987 00cf 1F010000 		.4byte	.LASF18
 988 00d3 06       		.byte	0x6
 989 00d4 3A       		.byte	0x3a
 990 00d5 B8000000 		.4byte	0xb8
 991 00d9 04       		.uleb128 0x4
 992 00da E7020000 		.4byte	.LASF19
 993 00de 06       		.byte	0x6
 994 00df 3C       		.byte	0x3c
 995 00e0 97000000 		.4byte	0x97
 996 00e4 04       		.uleb128 0x4
 997 00e5 7F010000 		.4byte	.LASF20
 998 00e9 06       		.byte	0x6
ARM GAS  /tmp/ccxoMysM.s 			page 49


 999 00ea 3D       		.byte	0x3d
 1000 00eb 97000000 		.4byte	0x97
 1001 00ef 04       		.uleb128 0x4
 1002 00f0 F9030000 		.4byte	.LASF21
 1003 00f4 06       		.byte	0x6
 1004 00f5 3E       		.byte	0x3e
 1005 00f6 97000000 		.4byte	0x97
 1006 00fa 04       		.uleb128 0x4
 1007 00fb 22040000 		.4byte	.LASF22
 1008 00ff 06       		.byte	0x6
 1009 0100 40       		.byte	0x40
 1010 0101 AD000000 		.4byte	0xad
 1011 0105 04       		.uleb128 0x4
 1012 0106 65020000 		.4byte	.LASF23
 1013 010a 06       		.byte	0x6
 1014 010b 41       		.byte	0x41
 1015 010c A2000000 		.4byte	0xa2
 1016 0110 04       		.uleb128 0x4
 1017 0111 08030000 		.4byte	.LASF24
 1018 0115 06       		.byte	0x6
 1019 0116 43       		.byte	0x43
 1020 0117 AD000000 		.4byte	0xad
 1021 011b 04       		.uleb128 0x4
 1022 011c F5010000 		.4byte	.LASF25
 1023 0120 06       		.byte	0x6
 1024 0121 45       		.byte	0x45
 1025 0122 A2000000 		.4byte	0xa2
 1026 0126 04       		.uleb128 0x4
 1027 0127 B4020000 		.4byte	.LASF26
 1028 012b 06       		.byte	0x6
 1029 012c 46       		.byte	0x46
 1030 012d AD000000 		.4byte	0xad
 1031 0131 04       		.uleb128 0x4
 1032 0132 E6050000 		.4byte	.LASF27
 1033 0136 07       		.byte	0x7
 1034 0137 33       		.byte	0x33
 1035 0138 AD000000 		.4byte	0xad
 1036 013c 04       		.uleb128 0x4
 1037 013d D1050000 		.4byte	.LASF28
 1038 0141 07       		.byte	0x7
 1039 0142 3F       		.byte	0x3f
 1040 0143 47010000 		.4byte	0x147
 1041 0147 05       		.uleb128 0x5
 1042 0148 5B020000 		.4byte	.LASF50
 1043 014c 60       		.byte	0x60
 1044 014d 08       		.byte	0x8
 1045 014e C2       		.byte	0xc2
 1046 014f 4D020000 		.4byte	0x24d
 1047 0153 06       		.uleb128 0x6
 1048 0154 16050000 		.4byte	.LASF29
 1049 0158 08       		.byte	0x8
 1050 0159 C3       		.byte	0xc3
 1051 015a 58020000 		.4byte	0x258
 1052 015e 00       		.byte	0
 1053 015f 06       		.uleb128 0x6
 1054 0160 1B040000 		.4byte	.LASF30
 1055 0164 08       		.byte	0x8
ARM GAS  /tmp/ccxoMysM.s 			page 50


 1056 0165 C5       		.byte	0xc5
 1057 0166 58020000 		.4byte	0x258
 1058 016a 04       		.byte	0x4
 1059 016b 06       		.uleb128 0x6
 1060 016c 28010000 		.4byte	.LASF31
 1061 0170 08       		.byte	0x8
 1062 0171 C7       		.byte	0xc7
 1063 0172 FA000000 		.4byte	0xfa
 1064 0176 08       		.byte	0x8
 1065 0177 06       		.uleb128 0x6
 1066 0178 12070000 		.4byte	.LASF32
 1067 017c 08       		.byte	0x8
 1068 017d C8       		.byte	0xc8
 1069 017e C1040000 		.4byte	0x4c1
 1070 0182 0C       		.byte	0xc
 1071 0183 06       		.uleb128 0x6
 1072 0184 8E010000 		.4byte	.LASF33
 1073 0188 08       		.byte	0x8
 1074 0189 CA       		.byte	0xca
 1075 018a 58020000 		.4byte	0x258
 1076 018e 10       		.byte	0x10
 1077 018f 06       		.uleb128 0x6
 1078 0190 B2030000 		.4byte	.LASF34
 1079 0194 08       		.byte	0x8
 1080 0195 CB       		.byte	0xcb
 1081 0196 58020000 		.4byte	0x258
 1082 019a 14       		.byte	0x14
 1083 019b 06       		.uleb128 0x6
 1084 019c A3060000 		.4byte	.LASF35
 1085 01a0 08       		.byte	0x8
 1086 01a1 D2       		.byte	0xd2
 1087 01a2 65070000 		.4byte	0x765
 1088 01a6 18       		.byte	0x18
 1089 01a7 06       		.uleb128 0x6
 1090 01a8 FB010000 		.4byte	.LASF36
 1091 01ac 08       		.byte	0x8
 1092 01ad D8       		.byte	0xd8
 1093 01ae 77070000 		.4byte	0x777
 1094 01b2 1C       		.byte	0x1c
 1095 01b3 06       		.uleb128 0x6
 1096 01b4 00050000 		.4byte	.LASF37
 1097 01b8 08       		.byte	0x8
 1098 01b9 DD       		.byte	0xdd
 1099 01ba E4000000 		.4byte	0xe4
 1100 01be 20       		.byte	0x20
 1101 01bf 06       		.uleb128 0x6
 1102 01c0 1D050000 		.4byte	.LASF38
 1103 01c4 08       		.byte	0x8
 1104 01c5 E1       		.byte	0xe1
 1105 01c6 D9000000 		.4byte	0xd9
 1106 01ca 21       		.byte	0x21
 1107 01cb 06       		.uleb128 0x6
 1108 01cc 71060000 		.4byte	.LASF39
 1109 01d0 08       		.byte	0x8
 1110 01d1 E6       		.byte	0xe6
 1111 01d2 EF000000 		.4byte	0xef
 1112 01d6 22       		.byte	0x22
ARM GAS  /tmp/ccxoMysM.s 			page 51


 1113 01d7 07       		.uleb128 0x7
 1114 01d8 705F7500 		.ascii	"p_u\000"
 1115 01dc 08       		.byte	0x8
 1116 01dd 3101     		.2byte	0x131
 1117 01df A0060000 		.4byte	0x6a0
 1118 01e3 24       		.byte	0x24
 1119 01e4 08       		.uleb128 0x8
 1120 01e5 3D030000 		.4byte	.LASF40
 1121 01e9 08       		.byte	0x8
 1122 01ea 3601     		.2byte	0x136
 1123 01ec 5E020000 		.4byte	0x25e
 1124 01f0 28       		.byte	0x28
 1125 01f1 08       		.uleb128 0x8
 1126 01f2 22020000 		.4byte	.LASF41
 1127 01f6 08       		.byte	0x8
 1128 01f7 3C01     		.2byte	0x13c
 1129 01f9 82020000 		.4byte	0x282
 1130 01fd 2C       		.byte	0x2c
 1131 01fe 08       		.uleb128 0x8
 1132 01ff C6060000 		.4byte	.LASF42
 1133 0203 08       		.byte	0x8
 1134 0204 4001     		.2byte	0x140
 1135 0206 05010000 		.4byte	0x105
 1136 020a 34       		.byte	0x34
 1137 020b 08       		.uleb128 0x8
 1138 020c 4B050000 		.4byte	.LASF43
 1139 0210 08       		.byte	0x8
 1140 0211 4601     		.2byte	0x146
 1141 0213 10010000 		.4byte	0x110
 1142 0217 38       		.byte	0x38
 1143 0218 08       		.uleb128 0x8
 1144 0219 EC040000 		.4byte	.LASF44
 1145 021d 08       		.byte	0x8
 1146 021e 4D01     		.2byte	0x14d
 1147 0220 5F070000 		.4byte	0x75f
 1148 0224 3C       		.byte	0x3c
 1149 0225 08       		.uleb128 0x8
 1150 0226 F0050000 		.4byte	.LASF45
 1151 022a 08       		.byte	0x8
 1152 022b 5101     		.2byte	0x151
 1153 022d FA000000 		.4byte	0xfa
 1154 0231 40       		.byte	0x40
 1155 0232 08       		.uleb128 0x8
 1156 0233 49010000 		.4byte	.LASF46
 1157 0237 08       		.byte	0x8
 1158 0238 5801     		.2byte	0x158
 1159 023a 35030000 		.4byte	0x335
 1160 023e 44       		.byte	0x44
 1161 023f 08       		.uleb128 0x8
 1162 0240 25050000 		.4byte	.LASF47
 1163 0244 08       		.byte	0x8
 1164 0245 5E01     		.2byte	0x15e
 1165 0247 51060000 		.4byte	0x651
 1166 024b 48       		.byte	0x48
 1167 024c 00       		.byte	0
 1168 024d 04       		.uleb128 0x4
 1169 024e 6D030000 		.4byte	.LASF48
ARM GAS  /tmp/ccxoMysM.s 			page 52


 1170 0252 07       		.byte	0x7
 1171 0253 44       		.byte	0x44
 1172 0254 58020000 		.4byte	0x258
 1173 0258 09       		.uleb128 0x9
 1174 0259 04       		.byte	0x4
 1175 025a 3C010000 		.4byte	0x13c
 1176 025e 04       		.uleb128 0x4
 1177 025f AA060000 		.4byte	.LASF49
 1178 0263 07       		.byte	0x7
 1179 0264 49       		.byte	0x49
 1180 0265 69020000 		.4byte	0x269
 1181 0269 05       		.uleb128 0x5
 1182 026a 84050000 		.4byte	.LASF51
 1183 026e 04       		.byte	0x4
 1184 026f 08       		.byte	0x8
 1185 0270 B0       		.byte	0xb0
 1186 0271 82020000 		.4byte	0x282
 1187 0275 06       		.uleb128 0x6
 1188 0276 16050000 		.4byte	.LASF29
 1189 027a 08       		.byte	0x8
 1190 027b B1       		.byte	0xb1
 1191 027c 58020000 		.4byte	0x258
 1192 0280 00       		.byte	0
 1193 0281 00       		.byte	0
 1194 0282 04       		.uleb128 0x4
 1195 0283 58060000 		.4byte	.LASF52
 1196 0287 07       		.byte	0x7
 1197 0288 50       		.byte	0x50
 1198 0289 8D020000 		.4byte	0x28d
 1199 028d 05       		.uleb128 0x5
 1200 028e 55000000 		.4byte	.LASF53
 1201 0292 08       		.byte	0x8
 1202 0293 08       		.byte	0x8
 1203 0294 B7       		.byte	0xb7
 1204 0295 B2020000 		.4byte	0x2b2
 1205 0299 06       		.uleb128 0x6
 1206 029a 16050000 		.4byte	.LASF29
 1207 029e 08       		.byte	0x8
 1208 029f B8       		.byte	0xb8
 1209 02a0 58020000 		.4byte	0x258
 1210 02a4 00       		.byte	0
 1211 02a5 06       		.uleb128 0x6
 1212 02a6 1B040000 		.4byte	.LASF30
 1213 02aa 08       		.byte	0x8
 1214 02ab B9       		.byte	0xb9
 1215 02ac 58020000 		.4byte	0x258
 1216 02b0 04       		.byte	0x4
 1217 02b1 00       		.byte	0
 1218 02b2 04       		.uleb128 0x4
 1219 02b3 07000000 		.4byte	.LASF54
 1220 02b7 07       		.byte	0x7
 1221 02b8 57       		.byte	0x57
 1222 02b9 BD020000 		.4byte	0x2bd
 1223 02bd 0A       		.uleb128 0xa
 1224 02be FA020000 		.4byte	.LASF55
 1225 02c2 1C       		.byte	0x1c
 1226 02c3 08       		.byte	0x8
ARM GAS  /tmp/ccxoMysM.s 			page 53


 1227 02c4 9001     		.2byte	0x190
 1228 02c6 19030000 		.4byte	0x319
 1229 02ca 08       		.uleb128 0x8
 1230 02cb 73050000 		.4byte	.LASF56
 1231 02cf 08       		.byte	0x8
 1232 02d0 9101     		.2byte	0x191
 1233 02d2 82020000 		.4byte	0x282
 1234 02d6 00       		.byte	0
 1235 02d7 08       		.uleb128 0x8
 1236 02d8 08050000 		.4byte	.LASF57
 1237 02dc 08       		.byte	0x8
 1238 02dd 9201     		.2byte	0x192
 1239 02df FA000000 		.4byte	0xfa
 1240 02e3 08       		.byte	0x8
 1241 02e4 08       		.uleb128 0x8
 1242 02e5 BA030000 		.4byte	.LASF58
 1243 02e9 08       		.byte	0x8
 1244 02ea 9401     		.2byte	0x194
 1245 02ec C1040000 		.4byte	0x4c1
 1246 02f0 0C       		.byte	0xc
 1247 02f1 08       		.uleb128 0x8
 1248 02f2 A6010000 		.4byte	.LASF59
 1249 02f6 08       		.byte	0x8
 1250 02f7 9701     		.2byte	0x197
 1251 02f9 58020000 		.4byte	0x258
 1252 02fd 10       		.byte	0x10
 1253 02fe 08       		.uleb128 0x8
 1254 02ff DB030000 		.4byte	.LASF60
 1255 0303 08       		.byte	0x8
 1256 0304 9801     		.2byte	0x198
 1257 0306 58020000 		.4byte	0x258
 1258 030a 14       		.byte	0x14
 1259 030b 08       		.uleb128 0x8
 1260 030c D1030000 		.4byte	.LASF61
 1261 0310 08       		.byte	0x8
 1262 0311 9B01     		.2byte	0x19b
 1263 0313 58020000 		.4byte	0x258
 1264 0317 18       		.byte	0x18
 1265 0318 00       		.byte	0
 1266 0319 04       		.uleb128 0x4
 1267 031a FB050000 		.4byte	.LASF62
 1268 031e 07       		.byte	0x7
 1269 031f 5C       		.byte	0x5c
 1270 0320 24030000 		.4byte	0x324
 1271 0324 09       		.uleb128 0x9
 1272 0325 04       		.byte	0x4
 1273 0326 2A030000 		.4byte	0x32a
 1274 032a 0B       		.uleb128 0xb
 1275 032b 35030000 		.4byte	0x335
 1276 032f 0C       		.uleb128 0xc
 1277 0330 35030000 		.4byte	0x335
 1278 0334 00       		.byte	0
 1279 0335 0D       		.uleb128 0xd
 1280 0336 04       		.byte	0x4
 1281 0337 04       		.uleb128 0x4
 1282 0338 0B040000 		.4byte	.LASF63
 1283 033c 07       		.byte	0x7
ARM GAS  /tmp/ccxoMysM.s 			page 54


 1284 033d 61       		.byte	0x61
 1285 033e 42030000 		.4byte	0x342
 1286 0342 0A       		.uleb128 0xa
 1287 0343 2D050000 		.4byte	.LASF64
 1288 0347 14       		.byte	0x14
 1289 0348 08       		.byte	0x8
 1290 0349 6B01     		.2byte	0x16b
 1291 034b 91030000 		.4byte	0x391
 1292 034f 08       		.uleb128 0x8
 1293 0350 13020000 		.4byte	.LASF65
 1294 0354 08       		.byte	0x8
 1295 0355 6C01     		.2byte	0x16c
 1296 0357 7D070000 		.4byte	0x77d
 1297 035b 00       		.byte	0
 1298 035c 08       		.uleb128 0x8
 1299 035d B7010000 		.4byte	.LASF66
 1300 0361 08       		.byte	0x8
 1301 0362 6D01     		.2byte	0x16d
 1302 0364 7D070000 		.4byte	0x77d
 1303 0368 04       		.byte	0x4
 1304 0369 08       		.uleb128 0x8
 1305 036a 7B050000 		.4byte	.LASF67
 1306 036e 08       		.byte	0x8
 1307 036f 6E01     		.2byte	0x16e
 1308 0371 31010000 		.4byte	0x131
 1309 0375 08       		.byte	0x8
 1310 0376 08       		.uleb128 0x8
 1311 0377 18070000 		.4byte	.LASF68
 1312 037b 08       		.byte	0x8
 1313 037c 6F01     		.2byte	0x16f
 1314 037e 19030000 		.4byte	0x319
 1315 0382 0C       		.byte	0xc
 1316 0383 08       		.uleb128 0x8
 1317 0384 51060000 		.4byte	.LASF69
 1318 0388 08       		.byte	0x8
 1319 0389 7101     		.2byte	0x171
 1320 038b 35030000 		.4byte	0x335
 1321 038f 10       		.byte	0x10
 1322 0390 00       		.byte	0
 1323 0391 04       		.uleb128 0x4
 1324 0392 FC000000 		.4byte	.LASF70
 1325 0396 07       		.byte	0x7
 1326 0397 66       		.byte	0x66
 1327 0398 9C030000 		.4byte	0x39c
 1328 039c 0A       		.uleb128 0xa
 1329 039d 80030000 		.4byte	.LASF71
 1330 03a1 10       		.byte	0x10
 1331 03a2 08       		.byte	0x8
 1332 03a3 7B01     		.2byte	0x17b
 1333 03a5 DE030000 		.4byte	0x3de
 1334 03a9 08       		.uleb128 0x8
 1335 03aa 13020000 		.4byte	.LASF65
 1336 03ae 08       		.byte	0x8
 1337 03af 7C01     		.2byte	0x17c
 1338 03b1 7D070000 		.4byte	0x77d
 1339 03b5 00       		.byte	0
 1340 03b6 08       		.uleb128 0x8
ARM GAS  /tmp/ccxoMysM.s 			page 55


 1341 03b7 B7010000 		.4byte	.LASF66
 1342 03bb 08       		.byte	0x8
 1343 03bc 7E01     		.2byte	0x17e
 1344 03be 7D070000 		.4byte	0x77d
 1345 03c2 04       		.byte	0x4
 1346 03c3 08       		.uleb128 0x8
 1347 03c4 7B050000 		.4byte	.LASF67
 1348 03c8 08       		.byte	0x8
 1349 03c9 8001     		.2byte	0x180
 1350 03cb 31010000 		.4byte	0x131
 1351 03cf 08       		.byte	0x8
 1352 03d0 08       		.uleb128 0x8
 1353 03d1 A6030000 		.4byte	.LASF72
 1354 03d5 08       		.byte	0x8
 1355 03d6 8801     		.2byte	0x188
 1356 03d8 31010000 		.4byte	0x131
 1357 03dc 0C       		.byte	0xc
 1358 03dd 00       		.byte	0
 1359 03de 04       		.uleb128 0x4
 1360 03df 66000000 		.4byte	.LASF73
 1361 03e3 07       		.byte	0x7
 1362 03e4 6B       		.byte	0x6b
 1363 03e5 E9030000 		.4byte	0x3e9
 1364 03e9 0E       		.uleb128 0xe
 1365 03ea BF010000 		.4byte	.LASF74
 1366 03ee 1404     		.2byte	0x414
 1367 03f0 08       		.byte	0x8
 1368 03f1 A201     		.2byte	0x1a2
 1369 03f3 2C040000 		.4byte	0x42c
 1370 03f7 08       		.uleb128 0x8
 1371 03f8 1D060000 		.4byte	.LASF75
 1372 03fc 08       		.byte	0x8
 1373 03fd AA01     		.2byte	0x1aa
 1374 03ff 83070000 		.4byte	0x783
 1375 0403 00       		.byte	0
 1376 0404 08       		.uleb128 0x8
 1377 0405 78060000 		.4byte	.LASF76
 1378 0409 08       		.byte	0x8
 1379 040a AF01     		.2byte	0x1af
 1380 040c 1B010000 		.4byte	0x11b
 1381 0410 04       		.byte	0x4
 1382 0411 08       		.uleb128 0x8
 1383 0412 DD010000 		.4byte	.LASF77
 1384 0416 08       		.byte	0x8
 1385 0417 B301     		.2byte	0x1b3
 1386 0419 1B010000 		.4byte	0x11b
 1387 041d 08       		.byte	0x8
 1388 041e 08       		.uleb128 0x8
 1389 041f B9060000 		.4byte	.LASF78
 1390 0423 08       		.byte	0x8
 1391 0424 B901     		.2byte	0x1b9
 1392 0426 E3050000 		.4byte	0x5e3
 1393 042a 0C       		.byte	0xc
 1394 042b 00       		.byte	0
 1395 042c 04       		.uleb128 0x4
 1396 042d BB020000 		.4byte	.LASF79
 1397 0431 07       		.byte	0x7
ARM GAS  /tmp/ccxoMysM.s 			page 56


 1398 0432 70       		.byte	0x70
 1399 0433 37040000 		.4byte	0x437
 1400 0437 0E       		.uleb128 0xe
 1401 0438 6C010000 		.4byte	.LASF80
 1402 043c D805     		.2byte	0x5d8
 1403 043e 08       		.byte	0x8
 1404 043f C201     		.2byte	0x1c2
 1405 0441 A4040000 		.4byte	0x4a4
 1406 0445 08       		.uleb128 0x8
 1407 0446 80060000 		.4byte	.LASF81
 1408 044a 08       		.byte	0x8
 1409 044b C601     		.2byte	0x1c6
 1410 044d B2020000 		.4byte	0x2b2
 1411 0451 00       		.byte	0
 1412 0452 08       		.uleb128 0x8
 1413 0453 59010000 		.4byte	.LASF82
 1414 0457 08       		.byte	0x8
 1415 0458 CA01     		.2byte	0x1ca
 1416 045a 91030000 		.4byte	0x391
 1417 045e 1C       		.byte	0x1c
 1418 045f 07       		.uleb128 0x7
 1419 0460 64626700 		.ascii	"dbg\000"
 1420 0464 08       		.byte	0x8
 1421 0465 CE01     		.2byte	0x1ce
 1422 0467 DE030000 		.4byte	0x3de
 1423 046b 2C       		.byte	0x2c
 1424 046c 0F       		.uleb128 0xf
 1425 046d D3000000 		.4byte	.LASF83
 1426 0471 08       		.byte	0x8
 1427 0472 D201     		.2byte	0x1d2
 1428 0474 3C010000 		.4byte	0x13c
 1429 0478 4004     		.2byte	0x440
 1430 047a 10       		.uleb128 0x10
 1431 047b 746D00   		.ascii	"tm\000"
 1432 047e 08       		.byte	0x8
 1433 047f D701     		.2byte	0x1d7
 1434 0481 03060000 		.4byte	0x603
 1435 0485 A004     		.2byte	0x4a0
 1436 0487 0F       		.uleb128 0xf
 1437 0488 32000000 		.4byte	.LASF84
 1438 048c 08       		.byte	0x8
 1439 048d DD01     		.2byte	0x1dd
 1440 048f 95060000 		.4byte	0x695
 1441 0493 A804     		.2byte	0x4a8
 1442 0495 0F       		.uleb128 0xf
 1443 0496 E6010000 		.4byte	.LASF85
 1444 049a 08       		.byte	0x8
 1445 049b E301     		.2byte	0x1e3
 1446 049d 88070000 		.4byte	0x788
 1447 04a1 E004     		.2byte	0x4e0
 1448 04a3 00       		.byte	0
 1449 04a4 03       		.uleb128 0x3
 1450 04a5 04       		.byte	0x4
 1451 04a6 07       		.byte	0x7
 1452 04a7 64030000 		.4byte	.LASF86
 1453 04ab 04       		.uleb128 0x4
 1454 04ac AE010000 		.4byte	.LASF87
ARM GAS  /tmp/ccxoMysM.s 			page 57


 1455 04b0 09       		.byte	0x9
 1456 04b1 65       		.byte	0x65
 1457 04b2 35030000 		.4byte	0x335
 1458 04b6 04       		.uleb128 0x4
 1459 04b7 32030000 		.4byte	.LASF88
 1460 04bb 09       		.byte	0x9
 1461 04bc 6D       		.byte	0x6d
 1462 04bd B8000000 		.4byte	0xb8
 1463 04c1 05       		.uleb128 0x5
 1464 04c2 2E060000 		.4byte	.LASF89
 1465 04c6 04       		.byte	0x4
 1466 04c7 09       		.byte	0x9
 1467 04c8 89       		.byte	0x89
 1468 04c9 DA040000 		.4byte	0x4da
 1469 04cd 11       		.uleb128 0x11
 1470 04ce 72313300 		.ascii	"r13\000"
 1471 04d2 09       		.byte	0x9
 1472 04d3 8A       		.byte	0x8a
 1473 04d4 55050000 		.4byte	0x555
 1474 04d8 00       		.byte	0
 1475 04d9 00       		.byte	0
 1476 04da 05       		.uleb128 0x5
 1477 04db 49000000 		.4byte	.LASF90
 1478 04df 24       		.byte	0x24
 1479 04e0 01       		.byte	0x1
 1480 04e1 FD       		.byte	0xfd
 1481 04e2 55050000 		.4byte	0x555
 1482 04e6 07       		.uleb128 0x7
 1483 04e7 723400   		.ascii	"r4\000"
 1484 04ea 01       		.byte	0x1
 1485 04eb 1001     		.2byte	0x110
 1486 04ed AB040000 		.4byte	0x4ab
 1487 04f1 00       		.byte	0
 1488 04f2 07       		.uleb128 0x7
 1489 04f3 723500   		.ascii	"r5\000"
 1490 04f6 01       		.byte	0x1
 1491 04f7 1101     		.2byte	0x111
 1492 04f9 AB040000 		.4byte	0x4ab
 1493 04fd 04       		.byte	0x4
 1494 04fe 07       		.uleb128 0x7
 1495 04ff 723600   		.ascii	"r6\000"
 1496 0502 01       		.byte	0x1
 1497 0503 1201     		.2byte	0x112
 1498 0505 AB040000 		.4byte	0x4ab
 1499 0509 08       		.byte	0x8
 1500 050a 07       		.uleb128 0x7
 1501 050b 723700   		.ascii	"r7\000"
 1502 050e 01       		.byte	0x1
 1503 050f 1301     		.2byte	0x113
 1504 0511 AB040000 		.4byte	0x4ab
 1505 0515 0C       		.byte	0xc
 1506 0516 07       		.uleb128 0x7
 1507 0517 723800   		.ascii	"r8\000"
 1508 051a 01       		.byte	0x1
 1509 051b 1401     		.2byte	0x114
 1510 051d AB040000 		.4byte	0x4ab
 1511 0521 10       		.byte	0x10
ARM GAS  /tmp/ccxoMysM.s 			page 58


 1512 0522 07       		.uleb128 0x7
 1513 0523 723900   		.ascii	"r9\000"
 1514 0526 01       		.byte	0x1
 1515 0527 1501     		.2byte	0x115
 1516 0529 AB040000 		.4byte	0x4ab
 1517 052d 14       		.byte	0x14
 1518 052e 07       		.uleb128 0x7
 1519 052f 72313000 		.ascii	"r10\000"
 1520 0533 01       		.byte	0x1
 1521 0534 1601     		.2byte	0x116
 1522 0536 AB040000 		.4byte	0x4ab
 1523 053a 18       		.byte	0x18
 1524 053b 07       		.uleb128 0x7
 1525 053c 72313100 		.ascii	"r11\000"
 1526 0540 01       		.byte	0x1
 1527 0541 1701     		.2byte	0x117
 1528 0543 AB040000 		.4byte	0x4ab
 1529 0547 1C       		.byte	0x1c
 1530 0548 07       		.uleb128 0x7
 1531 0549 6C7200   		.ascii	"lr\000"
 1532 054c 01       		.byte	0x1
 1533 054d 1801     		.2byte	0x118
 1534 054f AB040000 		.4byte	0x4ab
 1535 0553 20       		.byte	0x20
 1536 0554 00       		.byte	0
 1537 0555 09       		.uleb128 0x9
 1538 0556 04       		.byte	0x4
 1539 0557 DA040000 		.4byte	0x4da
 1540 055b 12       		.uleb128 0x12
 1541 055c 10       		.byte	0x10
 1542 055d 0A       		.byte	0xa
 1543 055e 51       		.byte	0x51
 1544 055f 94050000 		.4byte	0x594
 1545 0563 06       		.uleb128 0x6
 1546 0564 14000000 		.4byte	.LASF91
 1547 0568 0A       		.byte	0xa
 1548 0569 55       		.byte	0x55
 1549 056a 31010000 		.4byte	0x131
 1550 056e 00       		.byte	0
 1551 056f 06       		.uleb128 0x6
 1552 0570 88010000 		.4byte	.LASF92
 1553 0574 0A       		.byte	0xa
 1554 0575 59       		.byte	0x59
 1555 0576 58020000 		.4byte	0x258
 1556 057a 04       		.byte	0x4
 1557 057b 06       		.uleb128 0x6
 1558 057c 08070000 		.4byte	.LASF93
 1559 0580 0A       		.byte	0xa
 1560 0581 5D       		.byte	0x5d
 1561 0582 35030000 		.4byte	0x335
 1562 0586 08       		.byte	0x8
 1563 0587 06       		.uleb128 0x6
 1564 0588 C1000000 		.4byte	.LASF94
 1565 058c 0A       		.byte	0xa
 1566 058d 61       		.byte	0x61
 1567 058e 97000000 		.4byte	0x97
 1568 0592 0C       		.byte	0xc
ARM GAS  /tmp/ccxoMysM.s 			page 59


 1569 0593 00       		.byte	0
 1570 0594 04       		.uleb128 0x4
 1571 0595 97030000 		.4byte	.LASF95
 1572 0599 0A       		.byte	0xa
 1573 059a 62       		.byte	0x62
 1574 059b 5B050000 		.4byte	0x55b
 1575 059f 13       		.uleb128 0x13
 1576 05a0 0804     		.2byte	0x408
 1577 05a2 0A       		.byte	0xa
 1578 05a3 67       		.byte	0x67
 1579 05a4 CD050000 		.4byte	0x5cd
 1580 05a8 06       		.uleb128 0x6
 1581 05a9 9E010000 		.4byte	.LASF96
 1582 05ad 0A       		.byte	0xa
 1583 05ae 6B       		.byte	0x6b
 1584 05af 2C000000 		.4byte	0x2c
 1585 05b3 00       		.byte	0
 1586 05b4 06       		.uleb128 0x6
 1587 05b5 00000000 		.4byte	.LASF97
 1588 05b9 0A       		.byte	0xa
 1589 05ba 6F       		.byte	0x6f
 1590 05bb CD050000 		.4byte	0x5cd
 1591 05bf 04       		.byte	0x4
 1592 05c0 06       		.uleb128 0x6
 1593 05c1 01040000 		.4byte	.LASF98
 1594 05c5 0A       		.byte	0xa
 1595 05c6 73       		.byte	0x73
 1596 05c7 D3050000 		.4byte	0x5d3
 1597 05cb 08       		.byte	0x8
 1598 05cc 00       		.byte	0
 1599 05cd 09       		.uleb128 0x9
 1600 05ce 04       		.byte	0x4
 1601 05cf 94050000 		.4byte	0x594
 1602 05d3 14       		.uleb128 0x14
 1603 05d4 94050000 		.4byte	0x594
 1604 05d8 E3050000 		.4byte	0x5e3
 1605 05dc 15       		.uleb128 0x15
 1606 05dd A4040000 		.4byte	0x4a4
 1607 05e1 3F       		.byte	0x3f
 1608 05e2 00       		.byte	0
 1609 05e3 04       		.uleb128 0x4
 1610 05e4 AF000000 		.4byte	.LASF99
 1611 05e8 0A       		.byte	0xa
 1612 05e9 74       		.byte	0x74
 1613 05ea 9F050000 		.4byte	0x59f
 1614 05ee 12       		.uleb128 0x12
 1615 05ef 04       		.byte	0x4
 1616 05f0 0B       		.byte	0xb
 1617 05f1 38       		.byte	0x38
 1618 05f2 03060000 		.4byte	0x603
 1619 05f6 06       		.uleb128 0x6
 1620 05f7 27060000 		.4byte	.LASF100
 1621 05fb 0B       		.byte	0xb
 1622 05fc 3C       		.byte	0x3c
 1623 05fd C3000000 		.4byte	0xc3
 1624 0601 00       		.byte	0
 1625 0602 00       		.byte	0
ARM GAS  /tmp/ccxoMysM.s 			page 60


 1626 0603 04       		.uleb128 0x4
 1627 0604 C0030000 		.4byte	.LASF101
 1628 0608 0B       		.byte	0xb
 1629 0609 3D       		.byte	0x3d
 1630 060a EE050000 		.4byte	0x5ee
 1631 060e 12       		.uleb128 0x12
 1632 060f 18       		.byte	0x18
 1633 0610 0B       		.byte	0xb
 1634 0611 48       		.byte	0x48
 1635 0612 51060000 		.4byte	0x651
 1636 0616 06       		.uleb128 0x6
 1637 0617 DA050000 		.4byte	.LASF102
 1638 061b 0B       		.byte	0xb
 1639 061c 49       		.byte	0x49
 1640 061d C3000000 		.4byte	0xc3
 1641 0621 00       		.byte	0
 1642 0622 06       		.uleb128 0x6
 1643 0623 7F000000 		.4byte	.LASF103
 1644 0627 0B       		.byte	0xb
 1645 0628 4A       		.byte	0x4a
 1646 0629 C3000000 		.4byte	0xc3
 1647 062d 04       		.byte	0x4
 1648 062e 06       		.uleb128 0x6
 1649 062f 6B020000 		.4byte	.LASF104
 1650 0633 0B       		.byte	0xb
 1651 0634 4B       		.byte	0x4b
 1652 0635 C3000000 		.4byte	0xc3
 1653 0639 08       		.byte	0x8
 1654 063a 11       		.uleb128 0x11
 1655 063b 6E00     		.ascii	"n\000"
 1656 063d 0B       		.byte	0xb
 1657 063e 4C       		.byte	0x4c
 1658 063f 26010000 		.4byte	0x126
 1659 0643 0C       		.byte	0xc
 1660 0644 06       		.uleb128 0x6
 1661 0645 EE030000 		.4byte	.LASF105
 1662 0649 0B       		.byte	0xb
 1663 064a 4D       		.byte	0x4d
 1664 064b CE000000 		.4byte	0xce
 1665 064f 10       		.byte	0x10
 1666 0650 00       		.byte	0
 1667 0651 04       		.uleb128 0x4
 1668 0652 85000000 		.4byte	.LASF106
 1669 0656 0B       		.byte	0xb
 1670 0657 4E       		.byte	0x4e
 1671 0658 0E060000 		.4byte	0x60e
 1672 065c 12       		.uleb128 0x12
 1673 065d 38       		.byte	0x38
 1674 065e 0C       		.byte	0xc
 1675 065f 38       		.byte	0x38
 1676 0660 95060000 		.4byte	0x695
 1677 0664 06       		.uleb128 0x6
 1678 0665 2D020000 		.4byte	.LASF107
 1679 0669 0C       		.byte	0xc
 1680 066a 39       		.byte	0x39
 1681 066b 26010000 		.4byte	0x126
 1682 066f 00       		.byte	0
ARM GAS  /tmp/ccxoMysM.s 			page 61


 1683 0670 06       		.uleb128 0x6
 1684 0671 CD040000 		.4byte	.LASF108
 1685 0675 0C       		.byte	0xc
 1686 0676 3A       		.byte	0x3a
 1687 0677 26010000 		.4byte	0x126
 1688 067b 04       		.byte	0x4
 1689 067c 06       		.uleb128 0x6
 1690 067d F5060000 		.4byte	.LASF109
 1691 0681 0C       		.byte	0xc
 1692 0682 3B       		.byte	0x3b
 1693 0683 51060000 		.4byte	0x651
 1694 0687 08       		.byte	0x8
 1695 0688 06       		.uleb128 0x6
 1696 0689 EF020000 		.4byte	.LASF110
 1697 068d 0C       		.byte	0xc
 1698 068e 3D       		.byte	0x3d
 1699 068f 51060000 		.4byte	0x651
 1700 0693 20       		.byte	0x20
 1701 0694 00       		.byte	0
 1702 0695 04       		.uleb128 0x4
 1703 0696 4C020000 		.4byte	.LASF111
 1704 069a 0C       		.byte	0xc
 1705 069b 3F       		.byte	0x3f
 1706 069c 5C060000 		.4byte	0x65c
 1707 06a0 16       		.uleb128 0x16
 1708 06a1 04       		.byte	0x4
 1709 06a2 08       		.byte	0x8
 1710 06a3 FA       		.byte	0xfa
 1711 06a4 FD060000 		.4byte	0x6fd
 1712 06a8 17       		.uleb128 0x17
 1713 06a9 22000000 		.4byte	.LASF112
 1714 06ad 08       		.byte	0x8
 1715 06ae 0101     		.2byte	0x101
 1716 06b0 05010000 		.4byte	0x105
 1717 06b4 17       		.uleb128 0x17
 1718 06b5 CA000000 		.4byte	.LASF113
 1719 06b9 08       		.byte	0x8
 1720 06ba 0801     		.2byte	0x108
 1721 06bc 05010000 		.4byte	0x105
 1722 06c0 17       		.uleb128 0x17
 1723 06c1 9C060000 		.4byte	.LASF114
 1724 06c5 08       		.byte	0x8
 1725 06c6 0F01     		.2byte	0x10f
 1726 06c8 35030000 		.4byte	0x335
 1727 06cc 17       		.uleb128 0x17
 1728 06cd 1C000000 		.4byte	.LASF115
 1729 06d1 08       		.byte	0x8
 1730 06d2 1601     		.2byte	0x116
 1731 06d4 FD060000 		.4byte	0x6fd
 1732 06d8 17       		.uleb128 0x17
 1733 06d9 1B020000 		.4byte	.LASF116
 1734 06dd 08       		.byte	0x8
 1735 06de 1E01     		.2byte	0x11e
 1736 06e0 28070000 		.4byte	0x728
 1737 06e4 17       		.uleb128 0x17
 1738 06e5 B5050000 		.4byte	.LASF117
 1739 06e9 08       		.byte	0x8
ARM GAS  /tmp/ccxoMysM.s 			page 62


 1740 06ea 2701     		.2byte	0x127
 1741 06ec 5F070000 		.4byte	0x75f
 1742 06f0 17       		.uleb128 0x17
 1743 06f1 0F050000 		.4byte	.LASF118
 1744 06f5 08       		.byte	0x8
 1745 06f6 2F01     		.2byte	0x12f
 1746 06f8 10010000 		.4byte	0x110
 1747 06fc 00       		.byte	0
 1748 06fd 09       		.uleb128 0x9
 1749 06fe 04       		.byte	0x4
 1750 06ff 4D020000 		.4byte	0x24d
 1751 0703 05       		.uleb128 0x5
 1752 0704 3E050000 		.4byte	.LASF119
 1753 0708 0C       		.byte	0xc
 1754 0709 0D       		.byte	0xd
 1755 070a 34       		.byte	0x34
 1756 070b 28070000 		.4byte	0x728
 1757 070f 06       		.uleb128 0x6
 1758 0710 96010000 		.4byte	.LASF120
 1759 0714 0D       		.byte	0xd
 1760 0715 35       		.byte	0x35
 1761 0716 82020000 		.4byte	0x282
 1762 071a 00       		.byte	0
 1763 071b 06       		.uleb128 0x6
 1764 071c 33020000 		.4byte	.LASF121
 1765 0720 0D       		.byte	0xd
 1766 0721 37       		.byte	0x37
 1767 0722 1B010000 		.4byte	0x11b
 1768 0726 08       		.byte	0x8
 1769 0727 00       		.byte	0
 1770 0728 09       		.uleb128 0x9
 1771 0729 04       		.byte	0x4
 1772 072a 03070000 		.4byte	0x703
 1773 072e 05       		.uleb128 0x5
 1774 072f 68060000 		.4byte	.LASF122
 1775 0733 10       		.byte	0x10
 1776 0734 0E       		.byte	0xe
 1777 0735 39       		.byte	0x39
 1778 0736 5F070000 		.4byte	0x75f
 1779 073a 06       		.uleb128 0x6
 1780 073b 51010000 		.4byte	.LASF123
 1781 073f 0E       		.byte	0xe
 1782 0740 3A       		.byte	0x3a
 1783 0741 82020000 		.4byte	0x282
 1784 0745 00       		.byte	0
 1785 0746 06       		.uleb128 0x6
 1786 0747 00070000 		.4byte	.LASF124
 1787 074b 0E       		.byte	0xe
 1788 074c 3C       		.byte	0x3c
 1789 074d 58020000 		.4byte	0x258
 1790 0751 08       		.byte	0x8
 1791 0752 06       		.uleb128 0x6
 1792 0753 DF050000 		.4byte	.LASF125
 1793 0757 0E       		.byte	0xe
 1794 0758 3E       		.byte	0x3e
 1795 0759 A3070000 		.4byte	0x7a3
 1796 075d 0C       		.byte	0xc
ARM GAS  /tmp/ccxoMysM.s 			page 63


 1797 075e 00       		.byte	0
 1798 075f 09       		.uleb128 0x9
 1799 0760 04       		.byte	0x4
 1800 0761 2E070000 		.4byte	0x72e
 1801 0765 09       		.uleb128 0x9
 1802 0766 04       		.byte	0x4
 1803 0767 6B070000 		.4byte	0x76b
 1804 076b 18       		.uleb128 0x18
 1805 076c 70070000 		.4byte	0x770
 1806 0770 03       		.uleb128 0x3
 1807 0771 01       		.byte	0x1
 1808 0772 08       		.byte	0x8
 1809 0773 A6050000 		.4byte	.LASF126
 1810 0777 09       		.uleb128 0x9
 1811 0778 04       		.byte	0x4
 1812 0779 B6040000 		.4byte	0x4b6
 1813 077d 09       		.uleb128 0x9
 1814 077e 04       		.byte	0x4
 1815 077f 37030000 		.4byte	0x337
 1816 0783 19       		.uleb128 0x19
 1817 0784 65070000 		.4byte	0x765
 1818 0788 14       		.uleb128 0x14
 1819 0789 B6040000 		.4byte	0x4b6
 1820 078d 98070000 		.4byte	0x798
 1821 0791 15       		.uleb128 0x15
 1822 0792 A4040000 		.4byte	0x4a4
 1823 0796 1E       		.byte	0x1e
 1824 0797 00       		.byte	0
 1825 0798 04       		.uleb128 0x4
 1826 0799 CF010000 		.4byte	.LASF127
 1827 079d 0E       		.byte	0xe
 1828 079e 34       		.byte	0x34
 1829 079f 2E070000 		.4byte	0x72e
 1830 07a3 09       		.uleb128 0x9
 1831 07a4 04       		.byte	0x4
 1832 07a5 98070000 		.4byte	0x798
 1833 07a9 1A       		.uleb128 0x1a
 1834 07aa 0F060000 		.4byte	.LASF142
 1835 07ae 02       		.byte	0x2
 1836 07af 2202     		.2byte	0x222
 1837 07b1 03       		.byte	0x3
 1838 07b2 C3070000 		.4byte	0x7c3
 1839 07b6 1B       		.uleb128 0x1b
 1840 07b7 D7010000 		.4byte	.LASF143
 1841 07bb 02       		.byte	0x2
 1842 07bc 2202     		.2byte	0x222
 1843 07be AD000000 		.4byte	0xad
 1844 07c2 00       		.byte	0
 1845 07c3 1C       		.uleb128 0x1c
 1846 07c4 75000000 		.4byte	.LASF128
 1847 07c8 01       		.byte	0x1
 1848 07c9 C801     		.2byte	0x1c8
 1849 07cb 00000000 		.4byte	.LFB127
 1850 07cf 10000000 		.4byte	.LFE127-.LFB127
 1851 07d3 01       		.uleb128 0x1
 1852 07d4 9C       		.byte	0x9c
 1853 07d5 F3070000 		.4byte	0x7f3
ARM GAS  /tmp/ccxoMysM.s 			page 64


 1854 07d9 1D       		.uleb128 0x1d
 1855 07da A9070000 		.4byte	0x7a9
 1856 07de 06000000 		.4byte	.LBB6
 1857 07e2 06000000 		.4byte	.LBE6-.LBB6
 1858 07e6 01       		.byte	0x1
 1859 07e7 D001     		.2byte	0x1d0
 1860 07e9 1E       		.uleb128 0x1e
 1861 07ea B6070000 		.4byte	0x7b6
 1862 07ee 02       		.uleb128 0x2
 1863 07ef 91       		.byte	0x91
 1864 07f0 7C       		.sleb128 -4
 1865 07f1 00       		.byte	0
 1866 07f2 00       		.byte	0
 1867 07f3 1C       		.uleb128 0x1c
 1868 07f4 60010000 		.4byte	.LASF129
 1869 07f8 01       		.byte	0x1
 1870 07f9 E001     		.2byte	0x1e0
 1871 07fb 00000000 		.4byte	.LFB128
 1872 07ff 10000000 		.4byte	.LFE128-.LFB128
 1873 0803 01       		.uleb128 0x1
 1874 0804 9C       		.byte	0x9c
 1875 0805 23080000 		.4byte	0x823
 1876 0809 1D       		.uleb128 0x1d
 1877 080a A9070000 		.4byte	0x7a9
 1878 080e 06000000 		.4byte	.LBB8
 1879 0812 06000000 		.4byte	.LBE8-.LBB8
 1880 0816 01       		.byte	0x1
 1881 0817 E301     		.2byte	0x1e3
 1882 0819 1E       		.uleb128 0x1e
 1883 081a B6070000 		.4byte	0x7b6
 1884 081e 02       		.uleb128 0x2
 1885 081f 91       		.byte	0x91
 1886 0820 7C       		.sleb128 -4
 1887 0821 00       		.byte	0
 1888 0822 00       		.byte	0
 1889 0823 1F       		.uleb128 0x1f
 1890 0824 3E060000 		.4byte	.LASF130
 1891 0828 01       		.byte	0x1
 1892 0829 EF01     		.2byte	0x1ef
 1893 082b 00000000 		.4byte	.LFB129
 1894 082f 08000000 		.4byte	.LFE129-.LFB129
 1895 0833 01       		.uleb128 0x1
 1896 0834 9C       		.byte	0x9c
 1897 0835 1F       		.uleb128 0x1f
 1898 0836 BC050000 		.4byte	.LASF131
 1899 083a 01       		.byte	0x1
 1900 083b FA01     		.2byte	0x1fa
 1901 083d 00000000 		.4byte	.LFB130
 1902 0841 08000000 		.4byte	.LFE130-.LFB130
 1903 0845 01       		.uleb128 0x1
 1904 0846 9C       		.byte	0x9c
 1905 0847 20       		.uleb128 0x20
 1906 0848 CC060000 		.4byte	.LASF132
 1907 084c 03       		.byte	0x3
 1908 084d 3E       		.byte	0x3e
 1909 084e 00000000 		.4byte	.LFB241
 1910 0852 34000000 		.4byte	.LFE241-.LFB241
ARM GAS  /tmp/ccxoMysM.s 			page 65


 1911 0856 01       		.uleb128 0x1
 1912 0857 9C       		.byte	0x9c
 1913 0858 20       		.uleb128 0x20
 1914 0859 5F050000 		.4byte	.LASF133
 1915 085d 03       		.byte	0x3
 1916 085e 49       		.byte	0x49
 1917 085f 00000000 		.4byte	.LFB242
 1918 0863 26000000 		.4byte	.LFE242-.LFB242
 1919 0867 01       		.uleb128 0x1
 1920 0868 9C       		.byte	0x9c
 1921 0869 21       		.uleb128 0x21
 1922 086a 8E060000 		.4byte	.LASF144
 1923 086e 03       		.byte	0x3
 1924 086f 56       		.byte	0x56
 1925 0870 00000000 		.4byte	.LFB243
 1926 0874 3A000000 		.4byte	.LFE243-.LFB243
 1927 0878 01       		.uleb128 0x1
 1928 0879 9C       		.byte	0x9c
 1929 087a 9B080000 		.4byte	0x89b
 1930 087e 22       		.uleb128 0x22
 1931 087f 6E747000 		.ascii	"ntp\000"
 1932 0883 03       		.byte	0x3
 1933 0884 56       		.byte	0x56
 1934 0885 58020000 		.4byte	0x258
 1935 0889 02       		.uleb128 0x2
 1936 088a 91       		.byte	0x91
 1937 088b 74       		.sleb128 -12
 1938 088c 22       		.uleb128 0x22
 1939 088d 6F747000 		.ascii	"otp\000"
 1940 0891 03       		.byte	0x3
 1941 0892 56       		.byte	0x56
 1942 0893 58020000 		.4byte	0x258
 1943 0897 02       		.uleb128 0x2
 1944 0898 91       		.byte	0x91
 1945 0899 70       		.sleb128 -16
 1946 089a 00       		.byte	0
 1947 089b 20       		.uleb128 0x20
 1948 089c DE000000 		.4byte	.LASF134
 1949 08a0 03       		.byte	0x3
 1950 08a1 5F       		.byte	0x5f
 1951 08a2 00000000 		.4byte	.LFB244
 1952 08a6 10000000 		.4byte	.LFE244-.LFB244
 1953 08aa 01       		.uleb128 0x1
 1954 08ab 9C       		.byte	0x9c
 1955 08ac 20       		.uleb128 0x20
 1956 08ad 47030000 		.4byte	.LASF135
 1957 08b1 03       		.byte	0x3
 1958 08b2 67       		.byte	0x67
 1959 08b3 00000000 		.4byte	.LFB245
 1960 08b7 10000000 		.4byte	.LFE245-.LFB245
 1961 08bb 01       		.uleb128 0x1
 1962 08bc 9C       		.byte	0x9c
 1963 08bd 20       		.uleb128 0x20
 1964 08be 14030000 		.4byte	.LASF136
 1965 08c2 03       		.byte	0x3
 1966 08c3 6F       		.byte	0x6f
 1967 08c4 00000000 		.4byte	.LFB246
ARM GAS  /tmp/ccxoMysM.s 			page 66


 1968 08c8 10000000 		.4byte	.LFE246-.LFB246
 1969 08cc 01       		.uleb128 0x1
 1970 08cd 9C       		.byte	0x9c
 1971 08ce 20       		.uleb128 0x20
 1972 08cf D8060000 		.4byte	.LASF137
 1973 08d3 03       		.byte	0x3
 1974 08d4 77       		.byte	0x77
 1975 08d5 00000000 		.4byte	.LFB247
 1976 08d9 10000000 		.4byte	.LFE247-.LFB247
 1977 08dd 01       		.uleb128 0x1
 1978 08de 9C       		.byte	0x9c
 1979 08df 23       		.uleb128 0x23
 1980 08e0 12010000 		.4byte	.LASF138
 1981 08e4 0F       		.byte	0xf
 1982 08e5 FA06     		.2byte	0x6fa
 1983 08e7 EB080000 		.4byte	0x8eb
 1984 08eb 19       		.uleb128 0x19
 1985 08ec A2000000 		.4byte	0xa2
 1986 08f0 24       		.uleb128 0x24
 1987 08f1 636800   		.ascii	"ch\000"
 1988 08f4 08       		.byte	0x8
 1989 08f5 0902     		.2byte	0x209
 1990 08f7 2C040000 		.4byte	0x42c
 1991 08fb 00       		.byte	0
 1992              		.section	.debug_abbrev,"",%progbits
 1993              	.Ldebug_abbrev0:
 1994 0000 01       		.uleb128 0x1
 1995 0001 11       		.uleb128 0x11
 1996 0002 01       		.byte	0x1
 1997 0003 25       		.uleb128 0x25
 1998 0004 0E       		.uleb128 0xe
 1999 0005 13       		.uleb128 0x13
 2000 0006 0B       		.uleb128 0xb
 2001 0007 03       		.uleb128 0x3
 2002 0008 0E       		.uleb128 0xe
 2003 0009 1B       		.uleb128 0x1b
 2004 000a 0E       		.uleb128 0xe
 2005 000b 55       		.uleb128 0x55
 2006 000c 17       		.uleb128 0x17
 2007 000d 11       		.uleb128 0x11
 2008 000e 01       		.uleb128 0x1
 2009 000f 10       		.uleb128 0x10
 2010 0010 17       		.uleb128 0x17
 2011 0011 00       		.byte	0
 2012 0012 00       		.byte	0
 2013 0013 02       		.uleb128 0x2
 2014 0014 24       		.uleb128 0x24
 2015 0015 00       		.byte	0
 2016 0016 0B       		.uleb128 0xb
 2017 0017 0B       		.uleb128 0xb
 2018 0018 3E       		.uleb128 0x3e
 2019 0019 0B       		.uleb128 0xb
 2020 001a 03       		.uleb128 0x3
 2021 001b 08       		.uleb128 0x8
 2022 001c 00       		.byte	0
 2023 001d 00       		.byte	0
 2024 001e 03       		.uleb128 0x3
ARM GAS  /tmp/ccxoMysM.s 			page 67


 2025 001f 24       		.uleb128 0x24
 2026 0020 00       		.byte	0
 2027 0021 0B       		.uleb128 0xb
 2028 0022 0B       		.uleb128 0xb
 2029 0023 3E       		.uleb128 0x3e
 2030 0024 0B       		.uleb128 0xb
 2031 0025 03       		.uleb128 0x3
 2032 0026 0E       		.uleb128 0xe
 2033 0027 00       		.byte	0
 2034 0028 00       		.byte	0
 2035 0029 04       		.uleb128 0x4
 2036 002a 16       		.uleb128 0x16
 2037 002b 00       		.byte	0
 2038 002c 03       		.uleb128 0x3
 2039 002d 0E       		.uleb128 0xe
 2040 002e 3A       		.uleb128 0x3a
 2041 002f 0B       		.uleb128 0xb
 2042 0030 3B       		.uleb128 0x3b
 2043 0031 0B       		.uleb128 0xb
 2044 0032 49       		.uleb128 0x49
 2045 0033 13       		.uleb128 0x13
 2046 0034 00       		.byte	0
 2047 0035 00       		.byte	0
 2048 0036 05       		.uleb128 0x5
 2049 0037 13       		.uleb128 0x13
 2050 0038 01       		.byte	0x1
 2051 0039 03       		.uleb128 0x3
 2052 003a 0E       		.uleb128 0xe
 2053 003b 0B       		.uleb128 0xb
 2054 003c 0B       		.uleb128 0xb
 2055 003d 3A       		.uleb128 0x3a
 2056 003e 0B       		.uleb128 0xb
 2057 003f 3B       		.uleb128 0x3b
 2058 0040 0B       		.uleb128 0xb
 2059 0041 01       		.uleb128 0x1
 2060 0042 13       		.uleb128 0x13
 2061 0043 00       		.byte	0
 2062 0044 00       		.byte	0
 2063 0045 06       		.uleb128 0x6
 2064 0046 0D       		.uleb128 0xd
 2065 0047 00       		.byte	0
 2066 0048 03       		.uleb128 0x3
 2067 0049 0E       		.uleb128 0xe
 2068 004a 3A       		.uleb128 0x3a
 2069 004b 0B       		.uleb128 0xb
 2070 004c 3B       		.uleb128 0x3b
 2071 004d 0B       		.uleb128 0xb
 2072 004e 49       		.uleb128 0x49
 2073 004f 13       		.uleb128 0x13
 2074 0050 38       		.uleb128 0x38
 2075 0051 0B       		.uleb128 0xb
 2076 0052 00       		.byte	0
 2077 0053 00       		.byte	0
 2078 0054 07       		.uleb128 0x7
 2079 0055 0D       		.uleb128 0xd
 2080 0056 00       		.byte	0
 2081 0057 03       		.uleb128 0x3
ARM GAS  /tmp/ccxoMysM.s 			page 68


 2082 0058 08       		.uleb128 0x8
 2083 0059 3A       		.uleb128 0x3a
 2084 005a 0B       		.uleb128 0xb
 2085 005b 3B       		.uleb128 0x3b
 2086 005c 05       		.uleb128 0x5
 2087 005d 49       		.uleb128 0x49
 2088 005e 13       		.uleb128 0x13
 2089 005f 38       		.uleb128 0x38
 2090 0060 0B       		.uleb128 0xb
 2091 0061 00       		.byte	0
 2092 0062 00       		.byte	0
 2093 0063 08       		.uleb128 0x8
 2094 0064 0D       		.uleb128 0xd
 2095 0065 00       		.byte	0
 2096 0066 03       		.uleb128 0x3
 2097 0067 0E       		.uleb128 0xe
 2098 0068 3A       		.uleb128 0x3a
 2099 0069 0B       		.uleb128 0xb
 2100 006a 3B       		.uleb128 0x3b
 2101 006b 05       		.uleb128 0x5
 2102 006c 49       		.uleb128 0x49
 2103 006d 13       		.uleb128 0x13
 2104 006e 38       		.uleb128 0x38
 2105 006f 0B       		.uleb128 0xb
 2106 0070 00       		.byte	0
 2107 0071 00       		.byte	0
 2108 0072 09       		.uleb128 0x9
 2109 0073 0F       		.uleb128 0xf
 2110 0074 00       		.byte	0
 2111 0075 0B       		.uleb128 0xb
 2112 0076 0B       		.uleb128 0xb
 2113 0077 49       		.uleb128 0x49
 2114 0078 13       		.uleb128 0x13
 2115 0079 00       		.byte	0
 2116 007a 00       		.byte	0
 2117 007b 0A       		.uleb128 0xa
 2118 007c 13       		.uleb128 0x13
 2119 007d 01       		.byte	0x1
 2120 007e 03       		.uleb128 0x3
 2121 007f 0E       		.uleb128 0xe
 2122 0080 0B       		.uleb128 0xb
 2123 0081 0B       		.uleb128 0xb
 2124 0082 3A       		.uleb128 0x3a
 2125 0083 0B       		.uleb128 0xb
 2126 0084 3B       		.uleb128 0x3b
 2127 0085 05       		.uleb128 0x5
 2128 0086 01       		.uleb128 0x1
 2129 0087 13       		.uleb128 0x13
 2130 0088 00       		.byte	0
 2131 0089 00       		.byte	0
 2132 008a 0B       		.uleb128 0xb
 2133 008b 15       		.uleb128 0x15
 2134 008c 01       		.byte	0x1
 2135 008d 27       		.uleb128 0x27
 2136 008e 19       		.uleb128 0x19
 2137 008f 01       		.uleb128 0x1
 2138 0090 13       		.uleb128 0x13
ARM GAS  /tmp/ccxoMysM.s 			page 69


 2139 0091 00       		.byte	0
 2140 0092 00       		.byte	0
 2141 0093 0C       		.uleb128 0xc
 2142 0094 05       		.uleb128 0x5
 2143 0095 00       		.byte	0
 2144 0096 49       		.uleb128 0x49
 2145 0097 13       		.uleb128 0x13
 2146 0098 00       		.byte	0
 2147 0099 00       		.byte	0
 2148 009a 0D       		.uleb128 0xd
 2149 009b 0F       		.uleb128 0xf
 2150 009c 00       		.byte	0
 2151 009d 0B       		.uleb128 0xb
 2152 009e 0B       		.uleb128 0xb
 2153 009f 00       		.byte	0
 2154 00a0 00       		.byte	0
 2155 00a1 0E       		.uleb128 0xe
 2156 00a2 13       		.uleb128 0x13
 2157 00a3 01       		.byte	0x1
 2158 00a4 03       		.uleb128 0x3
 2159 00a5 0E       		.uleb128 0xe
 2160 00a6 0B       		.uleb128 0xb
 2161 00a7 05       		.uleb128 0x5
 2162 00a8 3A       		.uleb128 0x3a
 2163 00a9 0B       		.uleb128 0xb
 2164 00aa 3B       		.uleb128 0x3b
 2165 00ab 05       		.uleb128 0x5
 2166 00ac 01       		.uleb128 0x1
 2167 00ad 13       		.uleb128 0x13
 2168 00ae 00       		.byte	0
 2169 00af 00       		.byte	0
 2170 00b0 0F       		.uleb128 0xf
 2171 00b1 0D       		.uleb128 0xd
 2172 00b2 00       		.byte	0
 2173 00b3 03       		.uleb128 0x3
 2174 00b4 0E       		.uleb128 0xe
 2175 00b5 3A       		.uleb128 0x3a
 2176 00b6 0B       		.uleb128 0xb
 2177 00b7 3B       		.uleb128 0x3b
 2178 00b8 05       		.uleb128 0x5
 2179 00b9 49       		.uleb128 0x49
 2180 00ba 13       		.uleb128 0x13
 2181 00bb 38       		.uleb128 0x38
 2182 00bc 05       		.uleb128 0x5
 2183 00bd 00       		.byte	0
 2184 00be 00       		.byte	0
 2185 00bf 10       		.uleb128 0x10
 2186 00c0 0D       		.uleb128 0xd
 2187 00c1 00       		.byte	0
 2188 00c2 03       		.uleb128 0x3
 2189 00c3 08       		.uleb128 0x8
 2190 00c4 3A       		.uleb128 0x3a
 2191 00c5 0B       		.uleb128 0xb
 2192 00c6 3B       		.uleb128 0x3b
 2193 00c7 05       		.uleb128 0x5
 2194 00c8 49       		.uleb128 0x49
 2195 00c9 13       		.uleb128 0x13
ARM GAS  /tmp/ccxoMysM.s 			page 70


 2196 00ca 38       		.uleb128 0x38
 2197 00cb 05       		.uleb128 0x5
 2198 00cc 00       		.byte	0
 2199 00cd 00       		.byte	0
 2200 00ce 11       		.uleb128 0x11
 2201 00cf 0D       		.uleb128 0xd
 2202 00d0 00       		.byte	0
 2203 00d1 03       		.uleb128 0x3
 2204 00d2 08       		.uleb128 0x8
 2205 00d3 3A       		.uleb128 0x3a
 2206 00d4 0B       		.uleb128 0xb
 2207 00d5 3B       		.uleb128 0x3b
 2208 00d6 0B       		.uleb128 0xb
 2209 00d7 49       		.uleb128 0x49
 2210 00d8 13       		.uleb128 0x13
 2211 00d9 38       		.uleb128 0x38
 2212 00da 0B       		.uleb128 0xb
 2213 00db 00       		.byte	0
 2214 00dc 00       		.byte	0
 2215 00dd 12       		.uleb128 0x12
 2216 00de 13       		.uleb128 0x13
 2217 00df 01       		.byte	0x1
 2218 00e0 0B       		.uleb128 0xb
 2219 00e1 0B       		.uleb128 0xb
 2220 00e2 3A       		.uleb128 0x3a
 2221 00e3 0B       		.uleb128 0xb
 2222 00e4 3B       		.uleb128 0x3b
 2223 00e5 0B       		.uleb128 0xb
 2224 00e6 01       		.uleb128 0x1
 2225 00e7 13       		.uleb128 0x13
 2226 00e8 00       		.byte	0
 2227 00e9 00       		.byte	0
 2228 00ea 13       		.uleb128 0x13
 2229 00eb 13       		.uleb128 0x13
 2230 00ec 01       		.byte	0x1
 2231 00ed 0B       		.uleb128 0xb
 2232 00ee 05       		.uleb128 0x5
 2233 00ef 3A       		.uleb128 0x3a
 2234 00f0 0B       		.uleb128 0xb
 2235 00f1 3B       		.uleb128 0x3b
 2236 00f2 0B       		.uleb128 0xb
 2237 00f3 01       		.uleb128 0x1
 2238 00f4 13       		.uleb128 0x13
 2239 00f5 00       		.byte	0
 2240 00f6 00       		.byte	0
 2241 00f7 14       		.uleb128 0x14
 2242 00f8 01       		.uleb128 0x1
 2243 00f9 01       		.byte	0x1
 2244 00fa 49       		.uleb128 0x49
 2245 00fb 13       		.uleb128 0x13
 2246 00fc 01       		.uleb128 0x1
 2247 00fd 13       		.uleb128 0x13
 2248 00fe 00       		.byte	0
 2249 00ff 00       		.byte	0
 2250 0100 15       		.uleb128 0x15
 2251 0101 21       		.uleb128 0x21
 2252 0102 00       		.byte	0
ARM GAS  /tmp/ccxoMysM.s 			page 71


 2253 0103 49       		.uleb128 0x49
 2254 0104 13       		.uleb128 0x13
 2255 0105 2F       		.uleb128 0x2f
 2256 0106 0B       		.uleb128 0xb
 2257 0107 00       		.byte	0
 2258 0108 00       		.byte	0
 2259 0109 16       		.uleb128 0x16
 2260 010a 17       		.uleb128 0x17
 2261 010b 01       		.byte	0x1
 2262 010c 0B       		.uleb128 0xb
 2263 010d 0B       		.uleb128 0xb
 2264 010e 3A       		.uleb128 0x3a
 2265 010f 0B       		.uleb128 0xb
 2266 0110 3B       		.uleb128 0x3b
 2267 0111 0B       		.uleb128 0xb
 2268 0112 01       		.uleb128 0x1
 2269 0113 13       		.uleb128 0x13
 2270 0114 00       		.byte	0
 2271 0115 00       		.byte	0
 2272 0116 17       		.uleb128 0x17
 2273 0117 0D       		.uleb128 0xd
 2274 0118 00       		.byte	0
 2275 0119 03       		.uleb128 0x3
 2276 011a 0E       		.uleb128 0xe
 2277 011b 3A       		.uleb128 0x3a
 2278 011c 0B       		.uleb128 0xb
 2279 011d 3B       		.uleb128 0x3b
 2280 011e 05       		.uleb128 0x5
 2281 011f 49       		.uleb128 0x49
 2282 0120 13       		.uleb128 0x13
 2283 0121 00       		.byte	0
 2284 0122 00       		.byte	0
 2285 0123 18       		.uleb128 0x18
 2286 0124 26       		.uleb128 0x26
 2287 0125 00       		.byte	0
 2288 0126 49       		.uleb128 0x49
 2289 0127 13       		.uleb128 0x13
 2290 0128 00       		.byte	0
 2291 0129 00       		.byte	0
 2292 012a 19       		.uleb128 0x19
 2293 012b 35       		.uleb128 0x35
 2294 012c 00       		.byte	0
 2295 012d 49       		.uleb128 0x49
 2296 012e 13       		.uleb128 0x13
 2297 012f 00       		.byte	0
 2298 0130 00       		.byte	0
 2299 0131 1A       		.uleb128 0x1a
 2300 0132 2E       		.uleb128 0x2e
 2301 0133 01       		.byte	0x1
 2302 0134 03       		.uleb128 0x3
 2303 0135 0E       		.uleb128 0xe
 2304 0136 3A       		.uleb128 0x3a
 2305 0137 0B       		.uleb128 0xb
 2306 0138 3B       		.uleb128 0x3b
 2307 0139 05       		.uleb128 0x5
 2308 013a 27       		.uleb128 0x27
 2309 013b 19       		.uleb128 0x19
ARM GAS  /tmp/ccxoMysM.s 			page 72


 2310 013c 20       		.uleb128 0x20
 2311 013d 0B       		.uleb128 0xb
 2312 013e 01       		.uleb128 0x1
 2313 013f 13       		.uleb128 0x13
 2314 0140 00       		.byte	0
 2315 0141 00       		.byte	0
 2316 0142 1B       		.uleb128 0x1b
 2317 0143 05       		.uleb128 0x5
 2318 0144 00       		.byte	0
 2319 0145 03       		.uleb128 0x3
 2320 0146 0E       		.uleb128 0xe
 2321 0147 3A       		.uleb128 0x3a
 2322 0148 0B       		.uleb128 0xb
 2323 0149 3B       		.uleb128 0x3b
 2324 014a 05       		.uleb128 0x5
 2325 014b 49       		.uleb128 0x49
 2326 014c 13       		.uleb128 0x13
 2327 014d 00       		.byte	0
 2328 014e 00       		.byte	0
 2329 014f 1C       		.uleb128 0x1c
 2330 0150 2E       		.uleb128 0x2e
 2331 0151 01       		.byte	0x1
 2332 0152 03       		.uleb128 0x3
 2333 0153 0E       		.uleb128 0xe
 2334 0154 3A       		.uleb128 0x3a
 2335 0155 0B       		.uleb128 0xb
 2336 0156 3B       		.uleb128 0x3b
 2337 0157 05       		.uleb128 0x5
 2338 0158 27       		.uleb128 0x27
 2339 0159 19       		.uleb128 0x19
 2340 015a 11       		.uleb128 0x11
 2341 015b 01       		.uleb128 0x1
 2342 015c 12       		.uleb128 0x12
 2343 015d 06       		.uleb128 0x6
 2344 015e 40       		.uleb128 0x40
 2345 015f 18       		.uleb128 0x18
 2346 0160 9742     		.uleb128 0x2117
 2347 0162 19       		.uleb128 0x19
 2348 0163 01       		.uleb128 0x1
 2349 0164 13       		.uleb128 0x13
 2350 0165 00       		.byte	0
 2351 0166 00       		.byte	0
 2352 0167 1D       		.uleb128 0x1d
 2353 0168 1D       		.uleb128 0x1d
 2354 0169 01       		.byte	0x1
 2355 016a 31       		.uleb128 0x31
 2356 016b 13       		.uleb128 0x13
 2357 016c 11       		.uleb128 0x11
 2358 016d 01       		.uleb128 0x1
 2359 016e 12       		.uleb128 0x12
 2360 016f 06       		.uleb128 0x6
 2361 0170 58       		.uleb128 0x58
 2362 0171 0B       		.uleb128 0xb
 2363 0172 59       		.uleb128 0x59
 2364 0173 05       		.uleb128 0x5
 2365 0174 00       		.byte	0
 2366 0175 00       		.byte	0
ARM GAS  /tmp/ccxoMysM.s 			page 73


 2367 0176 1E       		.uleb128 0x1e
 2368 0177 05       		.uleb128 0x5
 2369 0178 00       		.byte	0
 2370 0179 31       		.uleb128 0x31
 2371 017a 13       		.uleb128 0x13
 2372 017b 02       		.uleb128 0x2
 2373 017c 18       		.uleb128 0x18
 2374 017d 00       		.byte	0
 2375 017e 00       		.byte	0
 2376 017f 1F       		.uleb128 0x1f
 2377 0180 2E       		.uleb128 0x2e
 2378 0181 00       		.byte	0
 2379 0182 03       		.uleb128 0x3
 2380 0183 0E       		.uleb128 0xe
 2381 0184 3A       		.uleb128 0x3a
 2382 0185 0B       		.uleb128 0xb
 2383 0186 3B       		.uleb128 0x3b
 2384 0187 05       		.uleb128 0x5
 2385 0188 27       		.uleb128 0x27
 2386 0189 19       		.uleb128 0x19
 2387 018a 11       		.uleb128 0x11
 2388 018b 01       		.uleb128 0x1
 2389 018c 12       		.uleb128 0x12
 2390 018d 06       		.uleb128 0x6
 2391 018e 40       		.uleb128 0x40
 2392 018f 18       		.uleb128 0x18
 2393 0190 9642     		.uleb128 0x2116
 2394 0192 19       		.uleb128 0x19
 2395 0193 00       		.byte	0
 2396 0194 00       		.byte	0
 2397 0195 20       		.uleb128 0x20
 2398 0196 2E       		.uleb128 0x2e
 2399 0197 00       		.byte	0
 2400 0198 3F       		.uleb128 0x3f
 2401 0199 19       		.uleb128 0x19
 2402 019a 03       		.uleb128 0x3
 2403 019b 0E       		.uleb128 0xe
 2404 019c 3A       		.uleb128 0x3a
 2405 019d 0B       		.uleb128 0xb
 2406 019e 3B       		.uleb128 0x3b
 2407 019f 0B       		.uleb128 0xb
 2408 01a0 27       		.uleb128 0x27
 2409 01a1 19       		.uleb128 0x19
 2410 01a2 11       		.uleb128 0x11
 2411 01a3 01       		.uleb128 0x1
 2412 01a4 12       		.uleb128 0x12
 2413 01a5 06       		.uleb128 0x6
 2414 01a6 40       		.uleb128 0x40
 2415 01a7 18       		.uleb128 0x18
 2416 01a8 9642     		.uleb128 0x2116
 2417 01aa 19       		.uleb128 0x19
 2418 01ab 00       		.byte	0
 2419 01ac 00       		.byte	0
 2420 01ad 21       		.uleb128 0x21
 2421 01ae 2E       		.uleb128 0x2e
 2422 01af 01       		.byte	0x1
 2423 01b0 3F       		.uleb128 0x3f
ARM GAS  /tmp/ccxoMysM.s 			page 74


 2424 01b1 19       		.uleb128 0x19
 2425 01b2 03       		.uleb128 0x3
 2426 01b3 0E       		.uleb128 0xe
 2427 01b4 3A       		.uleb128 0x3a
 2428 01b5 0B       		.uleb128 0xb
 2429 01b6 3B       		.uleb128 0x3b
 2430 01b7 0B       		.uleb128 0xb
 2431 01b8 27       		.uleb128 0x27
 2432 01b9 19       		.uleb128 0x19
 2433 01ba 11       		.uleb128 0x11
 2434 01bb 01       		.uleb128 0x1
 2435 01bc 12       		.uleb128 0x12
 2436 01bd 06       		.uleb128 0x6
 2437 01be 40       		.uleb128 0x40
 2438 01bf 18       		.uleb128 0x18
 2439 01c0 9642     		.uleb128 0x2116
 2440 01c2 19       		.uleb128 0x19
 2441 01c3 01       		.uleb128 0x1
 2442 01c4 13       		.uleb128 0x13
 2443 01c5 00       		.byte	0
 2444 01c6 00       		.byte	0
 2445 01c7 22       		.uleb128 0x22
 2446 01c8 05       		.uleb128 0x5
 2447 01c9 00       		.byte	0
 2448 01ca 03       		.uleb128 0x3
 2449 01cb 08       		.uleb128 0x8
 2450 01cc 3A       		.uleb128 0x3a
 2451 01cd 0B       		.uleb128 0xb
 2452 01ce 3B       		.uleb128 0x3b
 2453 01cf 0B       		.uleb128 0xb
 2454 01d0 49       		.uleb128 0x49
 2455 01d1 13       		.uleb128 0x13
 2456 01d2 02       		.uleb128 0x2
 2457 01d3 18       		.uleb128 0x18
 2458 01d4 00       		.byte	0
 2459 01d5 00       		.byte	0
 2460 01d6 23       		.uleb128 0x23
 2461 01d7 34       		.uleb128 0x34
 2462 01d8 00       		.byte	0
 2463 01d9 03       		.uleb128 0x3
 2464 01da 0E       		.uleb128 0xe
 2465 01db 3A       		.uleb128 0x3a
 2466 01dc 0B       		.uleb128 0xb
 2467 01dd 3B       		.uleb128 0x3b
 2468 01de 05       		.uleb128 0x5
 2469 01df 49       		.uleb128 0x49
 2470 01e0 13       		.uleb128 0x13
 2471 01e1 3F       		.uleb128 0x3f
 2472 01e2 19       		.uleb128 0x19
 2473 01e3 3C       		.uleb128 0x3c
 2474 01e4 19       		.uleb128 0x19
 2475 01e5 00       		.byte	0
 2476 01e6 00       		.byte	0
 2477 01e7 24       		.uleb128 0x24
 2478 01e8 34       		.uleb128 0x34
 2479 01e9 00       		.byte	0
 2480 01ea 03       		.uleb128 0x3
ARM GAS  /tmp/ccxoMysM.s 			page 75


 2481 01eb 08       		.uleb128 0x8
 2482 01ec 3A       		.uleb128 0x3a
 2483 01ed 0B       		.uleb128 0xb
 2484 01ee 3B       		.uleb128 0x3b
 2485 01ef 05       		.uleb128 0x5
 2486 01f0 49       		.uleb128 0x49
 2487 01f1 13       		.uleb128 0x13
 2488 01f2 3F       		.uleb128 0x3f
 2489 01f3 19       		.uleb128 0x19
 2490 01f4 3C       		.uleb128 0x3c
 2491 01f5 19       		.uleb128 0x19
 2492 01f6 00       		.byte	0
 2493 01f7 00       		.byte	0
 2494 01f8 00       		.byte	0
 2495              		.section	.debug_aranges,"",%progbits
 2496 0000 6C000000 		.4byte	0x6c
 2497 0004 0200     		.2byte	0x2
 2498 0006 00000000 		.4byte	.Ldebug_info0
 2499 000a 04       		.byte	0x4
 2500 000b 00       		.byte	0
 2501 000c 0000     		.2byte	0
 2502 000e 0000     		.2byte	0
 2503 0010 00000000 		.4byte	.LFB127
 2504 0014 10000000 		.4byte	.LFE127-.LFB127
 2505 0018 00000000 		.4byte	.LFB128
 2506 001c 10000000 		.4byte	.LFE128-.LFB128
 2507 0020 00000000 		.4byte	.LFB129
 2508 0024 08000000 		.4byte	.LFE129-.LFB129
 2509 0028 00000000 		.4byte	.LFB130
 2510 002c 08000000 		.4byte	.LFE130-.LFB130
 2511 0030 00000000 		.4byte	.LFB241
 2512 0034 34000000 		.4byte	.LFE241-.LFB241
 2513 0038 00000000 		.4byte	.LFB242
 2514 003c 26000000 		.4byte	.LFE242-.LFB242
 2515 0040 00000000 		.4byte	.LFB243
 2516 0044 3A000000 		.4byte	.LFE243-.LFB243
 2517 0048 00000000 		.4byte	.LFB244
 2518 004c 10000000 		.4byte	.LFE244-.LFB244
 2519 0050 00000000 		.4byte	.LFB245
 2520 0054 10000000 		.4byte	.LFE245-.LFB245
 2521 0058 00000000 		.4byte	.LFB246
 2522 005c 10000000 		.4byte	.LFE246-.LFB246
 2523 0060 00000000 		.4byte	.LFB247
 2524 0064 10000000 		.4byte	.LFE247-.LFB247
 2525 0068 00000000 		.4byte	0
 2526 006c 00000000 		.4byte	0
 2527              		.section	.debug_ranges,"",%progbits
 2528              	.Ldebug_ranges0:
 2529 0000 00000000 		.4byte	.LFB127
 2530 0004 10000000 		.4byte	.LFE127
 2531 0008 00000000 		.4byte	.LFB128
 2532 000c 10000000 		.4byte	.LFE128
 2533 0010 00000000 		.4byte	.LFB129
 2534 0014 08000000 		.4byte	.LFE129
 2535 0018 00000000 		.4byte	.LFB130
 2536 001c 08000000 		.4byte	.LFE130
 2537 0020 00000000 		.4byte	.LFB241
ARM GAS  /tmp/ccxoMysM.s 			page 76


 2538 0024 34000000 		.4byte	.LFE241
 2539 0028 00000000 		.4byte	.LFB242
 2540 002c 26000000 		.4byte	.LFE242
 2541 0030 00000000 		.4byte	.LFB243
 2542 0034 3A000000 		.4byte	.LFE243
 2543 0038 00000000 		.4byte	.LFB244
 2544 003c 10000000 		.4byte	.LFE244
 2545 0040 00000000 		.4byte	.LFB245
 2546 0044 10000000 		.4byte	.LFE245
 2547 0048 00000000 		.4byte	.LFB246
 2548 004c 10000000 		.4byte	.LFE246
 2549 0050 00000000 		.4byte	.LFB247
 2550 0054 10000000 		.4byte	.LFE247
 2551 0058 00000000 		.4byte	0
 2552 005c 00000000 		.4byte	0
 2553              		.section	.debug_line,"",%progbits
 2554              	.Ldebug_line0:
 2555 0000 9D020000 		.section	.debug_str,"MS",%progbits,1
 2555      0200AB01 
 2555      00000201 
 2555      FB0E0D00 
 2555      01010101 
 2556              	.LASF97:
 2557 0000 74625F70 		.ascii	"tb_ptr\000"
 2557      747200
 2558              	.LASF54:
 2559 0007 72656164 		.ascii	"ready_list_t\000"
 2559      795F6C69 
 2559      73745F74 
 2559      00
 2560              	.LASF91:
 2561 0014 73655F74 		.ascii	"se_time\000"
 2561      696D6500 
 2562              	.LASF115:
 2563 001c 77747472 		.ascii	"wttrp\000"
 2563      7000
 2564              	.LASF112:
 2565 0022 7264796D 		.ascii	"rdymsg\000"
 2565      736700
 2566              	.LASF16:
 2567 0029 75696E74 		.ascii	"uint64_t\000"
 2567      36345F74 
 2567      00
 2568              	.LASF84:
 2569 0032 6B65726E 		.ascii	"kernel_stats\000"
 2569      656C5F73 
 2569      74617473 
 2569      00
 2570              	.LASF5:
 2571 003f 5F5F7569 		.ascii	"__uint8_t\000"
 2571      6E74385F 
 2571      7400
 2572              	.LASF90:
 2573 0049 706F7274 		.ascii	"port_intctx\000"
 2573      5F696E74 
 2573      63747800 
 2574              	.LASF53:
ARM GAS  /tmp/ccxoMysM.s 			page 77


 2575 0055 63685F74 		.ascii	"ch_threads_queue\000"
 2575      68726561 
 2575      64735F71 
 2575      75657565 
 2575      00
 2576              	.LASF73:
 2577 0066 73797374 		.ascii	"system_debug_t\000"
 2577      656D5F64 
 2577      65627567 
 2577      5F7400
 2578              	.LASF128:
 2579 0075 706F7274 		.ascii	"port_lock\000"
 2579      5F6C6F63 
 2579      6B00
 2580              	.LASF103:
 2581 007f 776F7273 		.ascii	"worst\000"
 2581      7400
 2582              	.LASF106:
 2583 0085 74696D65 		.ascii	"time_measurement_t\000"
 2583      5F6D6561 
 2583      73757265 
 2583      6D656E74 
 2583      5F7400
 2584              	.LASF12:
 2585 0098 6C6F6E67 		.ascii	"long long unsigned int\000"
 2585      206C6F6E 
 2585      6720756E 
 2585      7369676E 
 2585      65642069 
 2586              	.LASF99:
 2587 00af 63685F74 		.ascii	"ch_trace_buffer_t\000"
 2587      72616365 
 2587      5F627566 
 2587      6665725F 
 2587      7400
 2588              	.LASF94:
 2589 00c1 73655F73 		.ascii	"se_state\000"
 2589      74617465 
 2589      00
 2590              	.LASF113:
 2591 00ca 65786974 		.ascii	"exitcode\000"
 2591      636F6465 
 2591      00
 2592              	.LASF83:
 2593 00d3 6D61696E 		.ascii	"mainthread\000"
 2593      74687265 
 2593      616400
 2594              	.LASF134:
 2595 00de 5F737461 		.ascii	"_stats_start_measure_crit_thd\000"
 2595      74735F73 
 2595      74617274 
 2595      5F6D6561 
 2595      73757265 
 2596              	.LASF70:
 2597 00fc 76697274 		.ascii	"virtual_timers_list_t\000"
 2597      75616C5F 
 2597      74696D65 
ARM GAS  /tmp/ccxoMysM.s 			page 78


 2597      72735F6C 
 2597      6973745F 
 2598              	.LASF138:
 2599 0112 49544D5F 		.ascii	"ITM_RxBuffer\000"
 2599      52784275 
 2599      66666572 
 2599      00
 2600              	.LASF18:
 2601 011f 72747469 		.ascii	"rttime_t\000"
 2601      6D655F74 
 2601      00
 2602              	.LASF31:
 2603 0128 705F7072 		.ascii	"p_prio\000"
 2603      696F00
 2604              	.LASF10:
 2605 012f 6C6F6E67 		.ascii	"long long int\000"
 2605      206C6F6E 
 2605      6720696E 
 2605      7400
 2606              	.LASF1:
 2607 013d 7369676E 		.ascii	"signed char\000"
 2607      65642063 
 2607      68617200 
 2608              	.LASF46:
 2609 0149 705F6D70 		.ascii	"p_mpool\000"
 2609      6F6F6C00 
 2610              	.LASF123:
 2611 0151 6D5F7175 		.ascii	"m_queue\000"
 2611      65756500 
 2612              	.LASF82:
 2613 0159 76746C69 		.ascii	"vtlist\000"
 2613      737400
 2614              	.LASF129:
 2615 0160 706F7274 		.ascii	"port_unlock\000"
 2615      5F756E6C 
 2615      6F636B00 
 2616              	.LASF80:
 2617 016c 63685F73 		.ascii	"ch_system\000"
 2617      79737465 
 2617      6D00
 2618              	.LASF7:
 2619 0176 6C6F6E67 		.ascii	"long int\000"
 2619      20696E74 
 2619      00
 2620              	.LASF20:
 2621 017f 74737461 		.ascii	"tstate_t\000"
 2621      74655F74 
 2621      00
 2622              	.LASF92:
 2623 0188 73655F74 		.ascii	"se_tp\000"
 2623      7000
 2624              	.LASF33:
 2625 018e 705F6E65 		.ascii	"p_newer\000"
 2625      77657200 
 2626              	.LASF120:
 2627 0196 735F7175 		.ascii	"s_queue\000"
 2627      65756500 
ARM GAS  /tmp/ccxoMysM.s 			page 79


 2628              	.LASF96:
 2629 019e 74625F73 		.ascii	"tb_size\000"
 2629      697A6500 
 2630              	.LASF59:
 2631 01a6 725F6E65 		.ascii	"r_newer\000"
 2631      77657200 
 2632              	.LASF87:
 2633 01ae 72656761 		.ascii	"regarm_t\000"
 2633      726D5F74 
 2633      00
 2634              	.LASF66:
 2635 01b7 76745F70 		.ascii	"vt_prev\000"
 2635      72657600 
 2636              	.LASF74:
 2637 01bf 63685F73 		.ascii	"ch_system_debug\000"
 2637      79737465 
 2637      6D5F6465 
 2637      62756700 
 2638              	.LASF127:
 2639 01cf 6D757465 		.ascii	"mutex_t\000"
 2639      785F7400 
 2640              	.LASF143:
 2641 01d7 76616C75 		.ascii	"value\000"
 2641      6500
 2642              	.LASF77:
 2643 01dd 6C6F636B 		.ascii	"lock_cnt\000"
 2643      5F636E74 
 2643      00
 2644              	.LASF85:
 2645 01e6 69646C65 		.ascii	"idle_thread_wa\000"
 2645      5F746872 
 2645      6561645F 
 2645      776100
 2646              	.LASF25:
 2647 01f5 636E745F 		.ascii	"cnt_t\000"
 2647      7400
 2648              	.LASF36:
 2649 01fb 705F7374 		.ascii	"p_stklimit\000"
 2649      6B6C696D 
 2649      697400
 2650              	.LASF0:
 2651 0206 756E7369 		.ascii	"unsigned int\000"
 2651      676E6564 
 2651      20696E74 
 2651      00
 2652              	.LASF65:
 2653 0213 76745F6E 		.ascii	"vt_next\000"
 2653      65787400 
 2654              	.LASF116:
 2655 021b 77747365 		.ascii	"wtsemp\000"
 2655      6D7000
 2656              	.LASF41:
 2657 0222 705F6D73 		.ascii	"p_msgqueue\000"
 2657      67717565 
 2657      756500
 2658              	.LASF107:
 2659 022d 6E5F6972 		.ascii	"n_irq\000"
ARM GAS  /tmp/ccxoMysM.s 			page 80


 2659      7100
 2660              	.LASF121:
 2661 0233 735F636E 		.ascii	"s_cnt\000"
 2661      7400
 2662              	.LASF4:
 2663 0239 73686F72 		.ascii	"short unsigned int\000"
 2663      7420756E 
 2663      7369676E 
 2663      65642069 
 2663      6E7400
 2664              	.LASF111:
 2665 024c 6B65726E 		.ascii	"kernel_stats_t\000"
 2665      656C5F73 
 2665      74617473 
 2665      5F7400
 2666              	.LASF50:
 2667 025b 63685F74 		.ascii	"ch_thread\000"
 2667      68726561 
 2667      6400
 2668              	.LASF23:
 2669 0265 6D73675F 		.ascii	"msg_t\000"
 2669      7400
 2670              	.LASF104:
 2671 026b 6C617374 		.ascii	"last\000"
 2671      00
 2672              	.LASF141:
 2673 0270 2F686F6D 		.ascii	"/home/jerker/chibios/ChibiOS_16.1.4/testhal/STM32/S"
 2673      652F6A65 
 2673      726B6572 
 2673      2F636869 
 2673      62696F73 
 2674 02a3 544D3332 		.ascii	"TM32F4xx/USB_CDC\000"
 2674      46347878 
 2674      2F555342 
 2674      5F434443 
 2674      00
 2675              	.LASF26:
 2676 02b4 75636E74 		.ascii	"ucnt_t\000"
 2676      5F7400
 2677              	.LASF79:
 2678 02bb 63685F73 		.ascii	"ch_system_t\000"
 2678      79737465 
 2678      6D5F7400 
 2679              	.LASF140:
 2680 02c7 2E2E2F2E 		.ascii	"../../../../os/rt/src/chstats.c\000"
 2680      2E2F2E2E 
 2680      2F2E2E2F 
 2680      6F732F72 
 2680      742F7372 
 2681              	.LASF19:
 2682 02e7 746D6F64 		.ascii	"tmode_t\000"
 2682      655F7400 
 2683              	.LASF110:
 2684 02ef 6D5F6372 		.ascii	"m_crit_isr\000"
 2684      69745F69 
 2684      737200
 2685              	.LASF55:
ARM GAS  /tmp/ccxoMysM.s 			page 81


 2686 02fa 63685F72 		.ascii	"ch_ready_list\000"
 2686      65616479 
 2686      5F6C6973 
 2686      7400
 2687              	.LASF24:
 2688 0308 6576656E 		.ascii	"eventmask_t\000"
 2688      746D6173 
 2688      6B5F7400 
 2689              	.LASF136:
 2690 0314 5F737461 		.ascii	"_stats_start_measure_crit_isr\000"
 2690      74735F73 
 2690      74617274 
 2690      5F6D6561 
 2690      73757265 
 2691              	.LASF88:
 2692 0332 73746B61 		.ascii	"stkalign_t\000"
 2692      6C69676E 
 2692      5F7400
 2693              	.LASF40:
 2694 033d 705F7761 		.ascii	"p_waiting\000"
 2694      6974696E 
 2694      6700
 2695              	.LASF135:
 2696 0347 5F737461 		.ascii	"_stats_stop_measure_crit_thd\000"
 2696      74735F73 
 2696      746F705F 
 2696      6D656173 
 2696      7572655F 
 2697              	.LASF86:
 2698 0364 73697A65 		.ascii	"sizetype\000"
 2698      74797065 
 2698      00
 2699              	.LASF48:
 2700 036d 74687265 		.ascii	"thread_reference_t\000"
 2700      61645F72 
 2700      65666572 
 2700      656E6365 
 2700      5F7400
 2701              	.LASF71:
 2702 0380 63685F76 		.ascii	"ch_virtual_timers_list\000"
 2702      69727475 
 2702      616C5F74 
 2702      696D6572 
 2702      735F6C69 
 2703              	.LASF95:
 2704 0397 63685F73 		.ascii	"ch_swc_event_t\000"
 2704      77635F65 
 2704      76656E74 
 2704      5F7400
 2705              	.LASF72:
 2706 03a6 76745F6C 		.ascii	"vt_lasttime\000"
 2706      61737474 
 2706      696D6500 
 2707              	.LASF34:
 2708 03b2 705F6F6C 		.ascii	"p_older\000"
 2708      64657200 
 2709              	.LASF58:
ARM GAS  /tmp/ccxoMysM.s 			page 82


 2710 03ba 725F6374 		.ascii	"r_ctx\000"
 2710      7800
 2711              	.LASF101:
 2712 03c0 746D5F63 		.ascii	"tm_calibration_t\000"
 2712      616C6962 
 2712      72617469 
 2712      6F6E5F74 
 2712      00
 2713              	.LASF61:
 2714 03d1 725F6375 		.ascii	"r_current\000"
 2714      7272656E 
 2714      7400
 2715              	.LASF60:
 2716 03db 725F6F6C 		.ascii	"r_older\000"
 2716      64657200 
 2717              	.LASF11:
 2718 03e3 5F5F7569 		.ascii	"__uint64_t\000"
 2718      6E743634 
 2718      5F7400
 2719              	.LASF105:
 2720 03ee 63756D75 		.ascii	"cumulative\000"
 2720      6C617469 
 2720      766500
 2721              	.LASF21:
 2722 03f9 74726566 		.ascii	"trefs_t\000"
 2722      735F7400 
 2723              	.LASF98:
 2724 0401 74625F62 		.ascii	"tb_buffer\000"
 2724      75666665 
 2724      7200
 2725              	.LASF63:
 2726 040b 76697274 		.ascii	"virtual_timer_t\000"
 2726      75616C5F 
 2726      74696D65 
 2726      725F7400 
 2727              	.LASF30:
 2728 041b 705F7072 		.ascii	"p_prev\000"
 2728      657600
 2729              	.LASF22:
 2730 0422 74707269 		.ascii	"tprio_t\000"
 2730      6F5F7400 
 2731              	.LASF139:
 2732 042a 474E5520 		.ascii	"GNU C 4.8.2 -mcpu=cortex-m4 -mno-thumb-interwork -m"
 2732      4320342E 
 2732      382E3220 
 2732      2D6D6370 
 2732      753D636F 
 2733 045d 7468756D 		.ascii	"thumb -ggdb -O0 -fomit-frame-pointer -falign-functi"
 2733      62202D67 
 2733      67646220 
 2733      2D4F3020 
 2733      2D666F6D 
 2734 0490 6F6E733D 		.ascii	"ons=16 -ffunction-sections -fdata-sections -fno-com"
 2734      3136202D 
 2734      6666756E 
 2734      6374696F 
 2734      6E2D7365 
ARM GAS  /tmp/ccxoMysM.s 			page 83


 2735 04c3 6D6F6E20 		.ascii	"mon -flto\000"
 2735      2D666C74 
 2735      6F00
 2736              	.LASF108:
 2737 04cd 6E5F6374 		.ascii	"n_ctxswc\000"
 2737      78737763 
 2737      00
 2738              	.LASF14:
 2739 04d6 696E7433 		.ascii	"int32_t\000"
 2739      325F7400 
 2740              	.LASF2:
 2741 04de 756E7369 		.ascii	"unsigned char\000"
 2741      676E6564 
 2741      20636861 
 2741      7200
 2742              	.LASF44:
 2743 04ec 705F6D74 		.ascii	"p_mtxlist\000"
 2743      786C6973 
 2743      7400
 2744              	.LASF3:
 2745 04f6 73686F72 		.ascii	"short int\000"
 2745      7420696E 
 2745      7400
 2746              	.LASF37:
 2747 0500 705F7374 		.ascii	"p_state\000"
 2747      61746500 
 2748              	.LASF57:
 2749 0508 725F7072 		.ascii	"r_prio\000"
 2749      696F00
 2750              	.LASF118:
 2751 050f 65776D61 		.ascii	"ewmask\000"
 2751      736B00
 2752              	.LASF29:
 2753 0516 705F6E65 		.ascii	"p_next\000"
 2753      787400
 2754              	.LASF38:
 2755 051d 705F666C 		.ascii	"p_flags\000"
 2755      61677300 
 2756              	.LASF47:
 2757 0525 705F7374 		.ascii	"p_stats\000"
 2757      61747300 
 2758              	.LASF64:
 2759 052d 63685F76 		.ascii	"ch_virtual_timer\000"
 2759      69727475 
 2759      616C5F74 
 2759      696D6572 
 2759      00
 2760              	.LASF119:
 2761 053e 63685F73 		.ascii	"ch_semaphore\000"
 2761      656D6170 
 2761      686F7265 
 2761      00
 2762              	.LASF43:
 2763 054b 705F6570 		.ascii	"p_epending\000"
 2763      656E6469 
 2763      6E6700
 2764              	.LASF15:
ARM GAS  /tmp/ccxoMysM.s 			page 84


 2765 0556 75696E74 		.ascii	"uint32_t\000"
 2765      33325F74 
 2765      00
 2766              	.LASF133:
 2767 055f 5F737461 		.ascii	"_stats_increase_irq\000"
 2767      74735F69 
 2767      6E637265 
 2767      6173655F 
 2767      69727100 
 2768              	.LASF56:
 2769 0573 725F7175 		.ascii	"r_queue\000"
 2769      65756500 
 2770              	.LASF67:
 2771 057b 76745F64 		.ascii	"vt_delta\000"
 2771      656C7461 
 2771      00
 2772              	.LASF51:
 2773 0584 63685F74 		.ascii	"ch_threads_list\000"
 2773      68726561 
 2773      64735F6C 
 2773      69737400 
 2774              	.LASF9:
 2775 0594 6C6F6E67 		.ascii	"long unsigned int\000"
 2775      20756E73 
 2775      69676E65 
 2775      6420696E 
 2775      7400
 2776              	.LASF126:
 2777 05a6 63686172 		.ascii	"char\000"
 2777      00
 2778              	.LASF6:
 2779 05ab 5F5F696E 		.ascii	"__int32_t\000"
 2779      7433325F 
 2779      7400
 2780              	.LASF117:
 2781 05b5 77746D74 		.ascii	"wtmtxp\000"
 2781      787000
 2782              	.LASF131:
 2783 05bc 706F7274 		.ascii	"port_unlock_from_isr\000"
 2783      5F756E6C 
 2783      6F636B5F 
 2783      66726F6D 
 2783      5F697372 
 2784              	.LASF28:
 2785 05d1 74687265 		.ascii	"thread_t\000"
 2785      61645F74 
 2785      00
 2786              	.LASF102:
 2787 05da 62657374 		.ascii	"best\000"
 2787      00
 2788              	.LASF125:
 2789 05df 6D5F6E65 		.ascii	"m_next\000"
 2789      787400
 2790              	.LASF27:
 2791 05e6 73797374 		.ascii	"systime_t\000"
 2791      696D655F 
 2791      7400
ARM GAS  /tmp/ccxoMysM.s 			page 85


 2792              	.LASF45:
 2793 05f0 705F7265 		.ascii	"p_realprio\000"
 2793      616C7072 
 2793      696F00
 2794              	.LASF62:
 2795 05fb 76746675 		.ascii	"vtfunc_t\000"
 2795      6E635F74 
 2795      00
 2796              	.LASF8:
 2797 0604 5F5F7569 		.ascii	"__uint32_t\000"
 2797      6E743332 
 2797      5F7400
 2798              	.LASF142:
 2799 060f 5F5F7365 		.ascii	"__set_BASEPRI\000"
 2799      745F4241 
 2799      53455052 
 2799      4900
 2800              	.LASF75:
 2801 061d 70616E69 		.ascii	"panic_msg\000"
 2801      635F6D73 
 2801      6700
 2802              	.LASF100:
 2803 0627 6F666673 		.ascii	"offset\000"
 2803      657400
 2804              	.LASF89:
 2805 062e 636F6E74 		.ascii	"context\000"
 2805      65787400 
 2806              	.LASF17:
 2807 0636 7274636E 		.ascii	"rtcnt_t\000"
 2807      745F7400 
 2808              	.LASF130:
 2809 063e 706F7274 		.ascii	"port_lock_from_isr\000"
 2809      5F6C6F63 
 2809      6B5F6672 
 2809      6F6D5F69 
 2809      737200
 2810              	.LASF69:
 2811 0651 76745F70 		.ascii	"vt_par\000"
 2811      617200
 2812              	.LASF52:
 2813 0658 74687265 		.ascii	"threads_queue_t\000"
 2813      6164735F 
 2813      71756575 
 2813      655F7400 
 2814              	.LASF122:
 2815 0668 63685F6D 		.ascii	"ch_mutex\000"
 2815      75746578 
 2815      00
 2816              	.LASF39:
 2817 0671 705F7265 		.ascii	"p_refs\000"
 2817      667300
 2818              	.LASF76:
 2819 0678 6973725F 		.ascii	"isr_cnt\000"
 2819      636E7400 
 2820              	.LASF81:
 2821 0680 726C6973 		.ascii	"rlist\000"
 2821      7400
ARM GAS  /tmp/ccxoMysM.s 			page 86


 2822              	.LASF13:
 2823 0686 75696E74 		.ascii	"uint8_t\000"
 2823      385F7400 
 2824              	.LASF144:
 2825 068e 5F737461 		.ascii	"_stats_ctxswc\000"
 2825      74735F63 
 2825      74787377 
 2825      6300
 2826              	.LASF114:
 2827 069c 77746F62 		.ascii	"wtobjp\000"
 2827      6A7000
 2828              	.LASF35:
 2829 06a3 705F6E61 		.ascii	"p_name\000"
 2829      6D6500
 2830              	.LASF49:
 2831 06aa 74687265 		.ascii	"threads_list_t\000"
 2831      6164735F 
 2831      6C697374 
 2831      5F7400
 2832              	.LASF78:
 2833 06b9 74726163 		.ascii	"trace_buffer\000"
 2833      655F6275 
 2833      66666572 
 2833      00
 2834              	.LASF42:
 2835 06c6 705F6D73 		.ascii	"p_msg\000"
 2835      6700
 2836              	.LASF132:
 2837 06cc 5F737461 		.ascii	"_stats_init\000"
 2837      74735F69 
 2837      6E697400 
 2838              	.LASF137:
 2839 06d8 5F737461 		.ascii	"_stats_stop_measure_crit_isr\000"
 2839      74735F73 
 2839      746F705F 
 2839      6D656173 
 2839      7572655F 
 2840              	.LASF109:
 2841 06f5 6D5F6372 		.ascii	"m_crit_thd\000"
 2841      69745F74 
 2841      686400
 2842              	.LASF124:
 2843 0700 6D5F6F77 		.ascii	"m_owner\000"
 2843      6E657200 
 2844              	.LASF93:
 2845 0708 73655F77 		.ascii	"se_wtobjp\000"
 2845      746F626A 
 2845      7000
 2846              	.LASF32:
 2847 0712 705F6374 		.ascii	"p_ctx\000"
 2847      7800
 2848              	.LASF68:
 2849 0718 76745F66 		.ascii	"vt_func\000"
 2849      756E6300 
 2850              		.comm	__gnu_lto_v1,1,1
 2851              		.ident	"GCC: (4.8.2-14ubuntu1+6) 4.8.2"
ARM GAS  /tmp/ccxoMysM.s 			page 87


DEFINED SYMBOLS
                            *ABS*:0000000000000000 chstats.c
     /tmp/ccxoMysM.s:521    .text.port_lock:0000000000000000 $t
     /tmp/ccxoMysM.s:526    .text.port_lock:0000000000000000 port_lock
     /tmp/ccxoMysM.s:557    .text.port_unlock:0000000000000000 $t
     /tmp/ccxoMysM.s:562    .text.port_unlock:0000000000000000 port_unlock
     /tmp/ccxoMysM.s:591    .text.port_lock_from_isr:0000000000000000 $t
     /tmp/ccxoMysM.s:596    .text.port_lock_from_isr:0000000000000000 port_lock_from_isr
     /tmp/ccxoMysM.s:614    .text.port_unlock_from_isr:0000000000000000 $t
     /tmp/ccxoMysM.s:619    .text.port_unlock_from_isr:0000000000000000 port_unlock_from_isr
     /tmp/ccxoMysM.s:637    .text._stats_init:0000000000000000 $t
     /tmp/ccxoMysM.s:643    .text._stats_init:0000000000000000 _stats_init
     /tmp/ccxoMysM.s:675    .text._stats_init:000000000000002c $d
     /tmp/ccxoMysM.s:681    .text._stats_increase_irq:0000000000000000 $t
     /tmp/ccxoMysM.s:687    .text._stats_increase_irq:0000000000000000 _stats_increase_irq
     /tmp/ccxoMysM.s:715    .text._stats_ctxswc:0000000000000000 $t
     /tmp/ccxoMysM.s:721    .text._stats_ctxswc:0000000000000000 _stats_ctxswc
     /tmp/ccxoMysM.s:758    .text._stats_start_measure_crit_thd:0000000000000000 $t
     /tmp/ccxoMysM.s:764    .text._stats_start_measure_crit_thd:0000000000000000 _stats_start_measure_crit_thd
     /tmp/ccxoMysM.s:782    .text._stats_start_measure_crit_thd:000000000000000c $d
     /tmp/ccxoMysM.s:787    .text._stats_stop_measure_crit_thd:0000000000000000 $t
     /tmp/ccxoMysM.s:793    .text._stats_stop_measure_crit_thd:0000000000000000 _stats_stop_measure_crit_thd
     /tmp/ccxoMysM.s:811    .text._stats_stop_measure_crit_thd:000000000000000c $d
     /tmp/ccxoMysM.s:816    .text._stats_start_measure_crit_isr:0000000000000000 $t
     /tmp/ccxoMysM.s:822    .text._stats_start_measure_crit_isr:0000000000000000 _stats_start_measure_crit_isr
     /tmp/ccxoMysM.s:840    .text._stats_start_measure_crit_isr:000000000000000c $d
     /tmp/ccxoMysM.s:845    .text._stats_stop_measure_crit_isr:0000000000000000 $t
     /tmp/ccxoMysM.s:851    .text._stats_stop_measure_crit_isr:0000000000000000 _stats_stop_measure_crit_isr
     /tmp/ccxoMysM.s:869    .text._stats_stop_measure_crit_isr:000000000000000c $d
                            *COM*:0000000000000001 __gnu_lto_v1
                     .debug_frame:0000000000000010 $d
     /tmp/ccxoMysM.s:680    .text._stats_init:0000000000000034 $t

UNDEFINED SYMBOLS
ch
chTMObjectInit
chTMChainMeasurementToX
chTMStartMeasurementX
chTMStopMeasurementX
