ARM GAS  /tmp/ccoP5Ehd.s 			page 1


   1              		.syntax unified
   2              		.cpu cortex-m4
   3              		.fpu softvfp
   4              		.eabi_attribute 20, 1
   5              		.eabi_attribute 21, 1
   6              		.eabi_attribute 23, 3
   7              		.eabi_attribute 24, 1
   8              		.eabi_attribute 25, 1
   9              		.eabi_attribute 26, 1
  10              		.eabi_attribute 30, 6
  11              		.eabi_attribute 34, 1
  12              		.eabi_attribute 18, 4
  13              		.thumb
  14              		.file	"chstats.c"
  15              		.text
  16              	.Ltext0:
  17              		.section	.gnu.lto_.inline.e0ac6c2a37ec9ce2,"",%progbits
  18 0000 789C6362 		.ascii	"x\234cb`b\300\006\376Cin\006\006\026f\006\006&\226\017"
  18      6062C006 
  18      FE43696E 
  18      06061666 
  18      06062696 
  19 0015 7A0C2C10 		.ascii	"z\014,\020\265\214\030\"L\014,<@\222i\201<\\\015\027"
  19      B58C1822 
  19      4C0C2C3C 
  19      40926981 
  19      3C5C0D17 
  20 0029 9060C62E 		.ascii	"\220`\306.\314\302\300)\005\024f;`\007\327\317\015#"
  20      CCC2C029 
  20      0514663B 
  20      6007D7CF 
  20      0D23
  21 003b D8183824 		.ascii	"\330\0308$\201L\216\011~(Z\300\004;\003\247 \252\034"
  21      814C8E09 
  21      7E285AC0 
  21      043B03A7 
  21      20AA1C
  22 004e 33D07806 		.ascii	"3\320x\006\016\006V^T[\300&qb\027\346\302.\314\215]"
  22      0E06565E 
  22      545BC026 
  22      716217E6 
  22      C22ECC8D 
  23 0063 9801005A 		.ascii	"\230\001\000Z[\014\233"
  23      5B0C9B
  24              		.text
  25              		.section	.gnu.lto_port_lock.e0ac6c2a37ec9ce2,"",%progbits
  26 0000 789C6362 		.ascii	"x\234cb`b@\007\"@,\314\310\3000\001\304af`\004\252`"
  26      60624007 
  26      22402CCC 
  26      C8C03001 
  26      C4616660 
  27 0017 6462040A 		.ascii	"db\004\012002\32431\326G\202\230\014\214J\014\013\033"
  27      303032D4 
  27      3331D647 
  27      82980C8C 
  27      4A0C0B1B 
  28 002b 1A263D68 		.ascii	"\032&=h}\366\230if\303\201\226\005\015\177\376\377g"
ARM GAS  /tmp/ccoP5Ehd.s 			page 2


  28      7DF69869 
  28      66C38196 
  28      050D7FFE 
  28      FF67
  29 003d 64CC6404 		.ascii	"d\314d\004\232h\316\310\220\314\310\020\001\3440*\200"
  29      9A68CEC8 
  29      90CCC810 
  29      01E4302A 
  29      80
  30 004e 29261654 		.ascii	")&\026T+\3263\035x\360\377\377\211\316\347{\201&3$2"
  30      2BD6331D 
  30      78F0FFFF 
  30      89CEE77B 
  30      81263324 
  31 0063 2E049A06 		.ascii	".\004\232\006\004\254\014-\015\015\023\024\030@\272"
  31      04AC0C2D 
  31      0D0D1314 
  31      1840BA
  32 0072 8120044C 		.ascii	"\201 \004L\206\202\034\300|\226\241i\007\220Ngd\004"
  32      86821CC0 
  32      7C96A169 
  32      07904E67 
  32      6404
  33 0084 99C70054 		.ascii	"\231\307\000T\303p\216\241\351\343\337\031\217%\340"
  33      C3708EA1 
  33      E9E3DF19 
  33      8F25E0
  34 0093 BAC08C86 		.ascii	"\272\300\214\206\003\335W\332YaF&2.fd\005\032\007q2"
  34      03DD57DA 
  34      59614626 
  34      322E6664 
  34      051A0771 
  35 00a8 10963283 		.ascii	"\020\2262\203|\314\014\361\266\034C\033\343\334\206"
  35      7CCC0CF1 
  35      B61C431B 
  35      E3DC86
  36 00b7 190E998C 		.ascii	"\031\016\231\214\314 n:X\031\\\256\023*\007u\373E\206"
  36      CC206E3A 
  36      58195CAE 
  36      132A0775 
  36      FB4586
  37 00ca C6073BF5 		.ascii	"\306\007;\365!\006\302@\010H\007H\271INf\222\276sFf"
  37      2106C240 
  37      08480748 
  37      B9494E66 
  37      92BE7346 
  38 00df 52A67F70 		.ascii	"R\246\177p\274\241\231\236\241\236\211\276~~\261~Q\211"
  38      BCA1999E 
  38      A19E89BE 
  38      7E7EB17E 
  38      5189
  39 00f1 7E417E51 		.ascii	"~A~QI\261\276c\220\257\263o\205~rFr~Qj|\231y\256^\006"
  39      49B1BE63 
  39      90AFB36F 
  39      857E7246 
  39      727E516A 
  40 010b 036B5962 		.ascii	"\003kYbNi\2529\016\255\251\025%\372\316\276\301\236"
ARM GAS  /tmp/ccoP5Ehd.s 			page 3


  40      4E69AA39 
  40      0EADA915 
  40      25FACEBE 
  40      C19E
  41 011d C1FA9979 		.ascii	"\301\372\231y\3119\245)\251\372`\255\311\271n\245y\311"
  41      C939A529 
  41      A9FA60AD 
  41      C9B96EA5 
  41      79C9
  42 012f 40DD02BE 		.ascii	"@\335\002\276\301A\012I\211\305\251\005E\231:\012\252"
  42      C1410A49 
  42      89C5A905 
  42      45993A0A 
  42      AA
  43 0140 060C4C45 		.ascii	"\006\014LE\014\354\271\251\271\371E\225\014\000\027"
  43      0CECB9A9 
  43      B9F94595 
  43      0C0017
  44 014f 1D670F   		.ascii	"\035g\017"
  45              		.text
  46              		.section	.gnu.lto_port_unlock.e0ac6c2a37ec9ce2,"",%progbits
  47 0000 789C6362 		.ascii	"x\234cb`b@\007\"@,\314\310\3000\001\304af`\004\252`"
  47      60624007 
  47      22402CCC 
  47      C8C03001 
  47      C4616660 
  48 0017 6462040A 		.ascii	"db\004\012002\32431\326G\202\230\014\214J\014\013\033"
  48      303032D4 
  48      3331D647 
  48      82980C8C 
  48      4A0C0B1B 
  49 002b 1A263D68 		.ascii	"\032&=h\375\364\230if\303\201\226\005\015\177\376\377"
  49      FDF49869 
  49      66C38196 
  49      050D7FFE 
  49      FF
  50 003c 6764CC64 		.ascii	"gd\314d\004\232h\316\310\220\314\310\020\001\3440*\200"
  50      049A68CE 
  50      C890CCC8 
  50      1001E430 
  50      2A80
  51 004e 29261654 		.ascii	")&\026T+\3263\035x\360\377\377\213\316\375\373\200&"
  51      2BD6331D 
  51      78F0FFFF 
  51      8BCEFDFB 
  51      8026
  52 0060 3324322E 		.ascii	"3$2.\004\232\006\004\254\014-\015\015\023\024\030@\272"
  52      049A0604 
  52      AC0C2D0D 
  52      0D131418 
  52      40BA
  53 0072 8120044C 		.ascii	"\201 \004L\206\202\034\300|\226\241i\007\220Ngd\004"
  53      86821CC0 
  53      7C96A169 
  53      07904E67 
  53      6404
  54 0084 990736E4 		.ascii	"\231\0076\344\034C\323\307\2773\036K\300u\201\031\015"
ARM GAS  /tmp/ccoP5Ehd.s 			page 4


  54      1C43D3C7 
  54      BF331E4B 
  54      C0758119 
  54      0D
  55 0095 074E3F6D 		.ascii	"\007N?mg\205\031\231\310\270\230\221\025h\034\304\311"
  55      67851999 
  55      C8B89891 
  55      15681CC4 
  55      C9
  56 00a6 4058CA0C 		.ascii	"@X\312\014\36213\304\333r\014m\214s\033f8d22\203\270"
  56      F23133C4 
  56      DB720C6D 
  56      8C731B66 
  56      38643232 
  57 00bc E9606570 		.ascii	"\351`ep\271N\250\034\324\355\027\031\032\037\234\327"
  57      B94EA81C 
  57      D4ED1719 
  57      1A1F9CD7 
  58 00cc 87180803 		.ascii	"\207\030\010\003! \035 \345&9\231I\372\316\031\231I"
  58      21201D20 
  58      E5263999 
  58      49FACE19 
  58      9949
  59 00de 99FEC1F1 		.ascii	"\231\376\301\361\206fz\206z&\372\372\371\305\372E%\372"
  59      86667A86 
  59      7A26FAFA 
  59      F9C5FA45 
  59      25FA
  60 00f0 05F94525 		.ascii	"\005\371E%\305\372\216A\276\316\276\025\372\311\031"
  60      C5FA8E41 
  60      BECEBE15 
  60      FAC919
  61 00ff C9F945A9 		.ascii	"\311\371E\251\361e\346\271z\031\014\254e\2119\245\251"
  61      F165E6B9 
  61      7A190CAC 
  61      658939A5 
  61      A9
  62 0110 E638B4A6 		.ascii	"\3468\264\246V\224\350;\373\006{\006\353g\346%\347\224"
  62      5694E83B 
  62      FB067B06 
  62      EB67E625 
  62      E794
  63 0122 A6A4EA83 		.ascii	"\246\244\352\203\265&\347\272\225\346%\003u\013\370"
  63      B526E7BA 
  63      95E62503 
  63      750BF8
  64 0131 06072924 		.ascii	"\006\007)$%\026\247\026\024e\352(\250\03200\0251\260"
  64      2516A716 
  64      1465EA28 
  64      A81A3030 
  64      1531B0
  65 0144 E7A6E6E6 		.ascii	"\347\246\346\346\027U2\000\000]Vg["
  65      17553200 
  65      005D5667 
  65      5B
  66              		.text
  67              		.section	.gnu.lto_port_lock_from_isr.e0ac6c2a37ec9ce2,"",%progbits
ARM GAS  /tmp/ccoP5Ehd.s 			page 5


  68 0000 789C6362 		.ascii	"x\234cb`b@\007\"@\\\006\304f \0163\003#P\005#\023##"
  68      60624007 
  68      22405C06 
  68      C466200E 
  68      33032350 
  69 0019 90C3C850 		.ascii	"\220\303\310P\317\304X\037\311\010V\266\236\351\300"
  69      CFC4581F 
  69      C90856B6 
  69      9EE9C0
  70 0028 83FFFFD7 		.ascii	"\203\377\377\327\355\273\277n\015\343?&\220\030+CKC"
  70      EDBBBF6E 
  70      0DE33F26 
  70      90182B43 
  70      4B43
  71 003a C3040506 		.ascii	"\303\004\005\006\206d\260\212\0200\031\012\322\317|"
  71      8664B08A 
  71      1030190A 
  71      D2CF7C
  72 0049 9EA1F9C1 		.ascii	"\236\241\371\301\313~\366D\306\205\214\254@\301j\206"
  72      CB7EF644 
  72      C6858CAC 
  72      40C16A86 
  73 0059 5F0D1D0D 		.ascii	"_\015\035\015\002\231\214@\245\020\3232A\364E\206\306"
  73      02998C40 
  73      A510D332 
  73      41F44586 
  73      C6
  74 006a 07AFF461 		.ascii	"\007\257\364a\212  \004$\001r\244INf\222\276sFfR\246"
  74      8A202004 
  74      240172A4 
  74      494E6692 
  74      BE734666 
  75 0080 7F70BCA1 		.ascii	"\177p\274\241\231\236\241\236\211\276~~\261~Q\211~A"
  75      999EA19E 
  75      89BE7E7E 
  75      B17E5189 
  75      7E41
  76 0092 7E5149B1 		.ascii	"~QI\261\276c\220\257\263o\205~rFr~Qj|\231y\256^\006"
  76      BE6390AF 
  76      B36F857E 
  76      7246727E 
  76      516A7C99 
  77 00aa 0300EC4B 		.ascii	"\003\000\354K-C"
  77      2D43
  78              		.text
  79              		.section	.gnu.lto_port_unlock_from_isr.e0ac6c2a37ec9ce2,"",%progbits
  80 0000 789C6362 		.ascii	"x\234cb`b@\007\"@\\\006\304f \0163\003#P\005#\023##"
  80      60624007 
  80      22405C06 
  80      C466200E 
  80      33032350 
  81 0019 90C3C850 		.ascii	"\220\303\310P\317\304X\037\311\010V\266\236\351\300"
  81      CFC4581F 
  81      C90856B6 
  81      9EE9C0
  82 0028 83FFFFD7 		.ascii	"\203\377\377\327}\271\277\376\016\343\177&\220\030+"
  82      7DB9BFFE 
ARM GAS  /tmp/ccoP5Ehd.s 			page 6


  82      0EE37F26 
  82      90182B
  83 0037 434B43C3 		.ascii	"CKC\303\004\005\006\206d\260\212\0200\031\012\322\317"
  83      04050686 
  83      64B08A10 
  83      30190AD2 
  83      CF
  84 0048 7C9EA1F9 		.ascii	"|\236\241\371\301\237\363\354\211\214\013\031Y\201\202"
  84      C19FF3EC 
  84      898C0B19 
  84      598182
  85 0057 D50CBF1A 		.ascii	"\325\014\277\032:\032\0042\031\201J!\246e\202\350\213"
  85      3A1A0432 
  85      19814A21 
  85      A66582E8 
  85      8B
  86 0068 0C8D0FFE 		.ascii	"\014\215\017\376\352\303\024A@\010H\002\344H\223\234"
  86      EAC31441 
  86      40084802 
  86      E448939C 
  87 0078 CC247DE7 		.ascii	"\314$}\347\214\314\244L\377\340xC3=C=\023}\375\374b"
  87      8CCCA44C 
  87      FFE07843 
  87      333D433D 
  87      137DFDFC 
  88 008d FDA212FD 		.ascii	"\375\242\022\375\202\374\242\222b}\307 _g\337\012\375"
  88      82FCA292 
  88      627DC720 
  88      5F67DF0A 
  88      FD
  89 009e E48CE4FC 		.ascii	"\344\214\344\374\242\324\3702\363\\\275\014\006\000"
  89      A2D4F832 
  89      F35CBD0C 
  89      0600
  90 00ac 57192E11 		.ascii	"W\031.\021"
  91              		.text
  92              		.section	.gnu.lto__stats_init.e0ac6c2a37ec9ce2,"",%progbits
  93 0000 789C6362 		.ascii	"x\234cb`b@\007\"@|\236\221\201A\013\304af`\004\252`"
  93      60624007 
  93      22407C9E 
  93      9181410B 
  93      C4616660 
  94 0017 6462040A 		.ascii	"db\004\012002\32431\326G2\202\225\255g:\360\340\377"
  94      303032D4 
  94      3331D647 
  94      328295AD 
  94      673AF0E0 
  95 002c FF757F1E 		.ascii	"\377u\177\036>\354a\024\004\011\2612\26444LP``H\006"
  95      3EEC6114 
  95      0409B132 
  95      B434344C 
  95      50606048 
  96 0041 2B080193 		.ascii	"+\010\001\223\241 \355\314g\031\232v\314xt\2029\221"
  96      A120EDCC 
  96      67199A76 
  96      CC787482 
  96      3991
ARM GAS  /tmp/ccoP5Ehd.s 			page 7


  97 0053 7121232B 		.ascii	"q!#+\2036\303\252\006 \010\315d\2041\2713\031\031g3"
  97      8336C3AA 
  97      062008CD 
  97      648431B9 
  97      33191967 
  98 0068 CC6A6C68 		.ascii	"\314jlh\020\310dd\252f\370\325\320\001b1\347\202\315"
  98      10C86464 
  98      AA66F8D5 
  98      D0016231 
  98      E782CD
  99 007b 88600432 		.ascii	"\210`\0042\301v&A\254\006\322\020\006H\206\005\304\000"
  99      C1762641 
  99      AC06D210 
  99      06488605 
  99      C400
 100 008d 59B0E3D1 		.ascii	"Y\260\343\321\003*Z\300\204j\301y\206\226\007]\213\271"
 100      032A5AC0 
 100      846AC179 
 100      8696075D 
 100      8BB9
 101 009f 20E63330 		.ascii	" \34630\300M`M\206:\005$\302\221\311\310\006\265p*P"
 101      C04D604D 
 101      863A0524 
 101      C291C9C8 
 101      06B5702A 
 102 00b4 233B941D 		.ascii	"#;\224\035\015\264\034h\021\302l\210]P\2632\0319 \306"
 102      0DB41C68 
 102      11C26C88 
 102      5D50B332 
 102      193920C6 
 103 00c8 7753CB78 		.ascii	"wS\313x\026\014\343/24>\350Q\206\231\016\001! \223A"
 103      160CE32F 
 103      32343EE8 
 103      5186990E 
 103      01212093 
 104 00dd BED4C8C9 		.ascii	"\276\324\310\311L\322w\316\310L\312\364\017\21674\323"
 104      4CD277CE 
 104      C84CCAF4 
 104      0F8E3734 
 104      D3
 105 00ee 33D433D1 		.ascii	"3\3243\321\327\317/\326/*\321/.J\326O\316(.I,)\326K"
 105      D7CF2FD6 
 105      2F2AD12F 
 105      2E4AD64F 
 105      CE282E49 
 106 0106 66000089 		.ascii	"f\000\000\211&t\322"
 106      2674D2
 107              		.text
 108              		.section	.gnu.lto__stats_increase_irq.e0ac6c2a37ec9ce2,"",%progbits
 109 0000 789C6362 		.ascii	"x\234cb`b@\007\"@|\237\221\201A\013\304af`\004\252`"
 109      60624007 
 109      22407C9F 
 109      9181410B 
 109      C4616660 
 110 0017 6462040A 		.ascii	"db\004\012002\32431\326G\202\230\014LJ\014\013\033\032"
 110      303032D4 
 110      3331D647 
ARM GAS  /tmp/ccoP5Ehd.s 			page 8


 110      82980C4C 
 110      4A0C0B1B 
 111 002c 263D687D 		.ascii	"&=h}~\201i\346\224\003-\013\032\376\374\377\317\310"
 111      7E8169E6 
 111      94032D0B 
 111      1AFEFCFF 
 111      CFC8
 112 003e 9809924C 		.ascii	"\230\011\222Lfd\210\000\262\030\025\300\024\023\013"
 112      66648800 
 112      B21815C0 
 112      14130B
 113 004d AAF9108D 		.ascii	"\252\371\020\215\015\037\237\004\234hh9\360\377\277"
 113      0D1F9F04 
 113      9C686839 
 113      F0FFBF
 114 005c 3D117AD6 		.ascii	"=\021z\3263\035x\360\377\377\234\315\013\036\315c\024"
 114      331D78F0 
 114      FFFF9CCD 
 114      0B1ECD63 
 114      14
 115 006d 64666400 		.ascii	"dfd\000jab\000\353c`ehih\230\240\0006\001\010B\300d"
 115      6A616200 
 115      EB636065 
 115      68696898 
 115      A0003601 
 116 0085 28C8D5CC 		.ascii	"(\310\325\314\347\031\232\037\314^\314\235\310\270\230"
 116      E7199A1F 
 116      CC5ECC9D 
 116      C8B898
 117 0094 91152858 		.ascii	"\221\025(X\315\360\253\241\243A \223\2219\031\354\035"
 117      CDF0ABA1 
 117      A3412093 
 117      913919EC 
 117      1D
 118 00a5 06A00940 		.ascii	"\006\240\011@{\31624\335\232\001\364\005DY:#\2436\203"
 118      7BCE3234 
 118      DD9A01F4 
 118      0544593A 
 118      23A33683 
 119 00b9 562623AB 		.ascii	"V&#\2536\303\252\006 \340\316dd\233\3150\253\261\001"
 119      36C3AA06 
 119      20E0CE64 
 119      649BCD30 
 119      ABB101
 120 00cc A4911D6E 		.ascii	"\244\221\035n\004G.\330\004\220[9\300F%AL\004\322P\006"
 120      04472ED8 
 120      04905B39 
 120      C0462541 
 120      4C04D250 
 121 00e1 D0DCE68E 		.ascii	"\320\334\346\216\346G\2140c\231\200&\203\224\2632\202"
 121      E6478C30 
 121      63998026 
 121      8394B332 
 121      82
 122 00f2 E59A3C21 		.ascii	"\345\232<!\022PkB)\2671\035\344g\220\227\347>\306\352"
 122      12506B42 
 122      29B7311D 
ARM GAS  /tmp/ccoP5Ehd.s 			page 9


 122      E4679097 
 122      E73EC6EA 
 123 0106 65268497 		.ascii	"e&\204\227/24>\230\247\014S\004\001! c@j4r2\223\364"
 123      2F32343E 
 123      98A70C53 
 123      04012120 
 123      63406A34 
 124 011e 9D333293 		.ascii	"\23532\2232\375\203\343\015\315\364\014\365L\364\365"
 124      32FD83E3 
 124      0DCDF40C 
 124      F54CF4F5 
 125 012e F38BF58B 		.ascii	"\363\213\365\213J\364\213\213\222\365\2233\212K\022"
 125      4AF48B8B 
 125      92F59333 
 125      8A4B12
 126 013d 4B8AF592 		.ascii	"K\212\365\222\031\000:\261w\340"
 126      19003AB1 
 126      77E0
 127              		.text
 128              		.section	.gnu.lto__stats_ctxswc.e0ac6c2a37ec9ce2,"",%progbits
 129 0000 789CA592 		.ascii	"x\234\245\222?HBQ\024\306\317\271\357=\315l(hi\223Z"
 129      3F484251 
 129      14C6CFB9 
 129      EF3DCD6C 
 129      28686993 
 130 0015 42C18710 		.ascii	"B\301\207\020\015-\015MM\005%\324\024\372\006\275\220"
 130      0D2D0D4D 
 130      4D0525D4 
 130      14FA06BD 
 130      90
 131 0026 04E99483 		.ascii	"\004\351\224\2037\265\210 \210h\350\017\201\015\201"
 131      37B58820 
 131      8868E80F 
 131      810D81
 132 0035 B404418B 		.ascii	"\264\004A\213\020<\232Z\244Z\233\204\202 \242\245!\220"
 132      103C9A5A 
 132      A45A9B84 
 132      8220A2A5 
 132      2190
 133 0047 E875EEF5 		.ascii	"\350u\356\365)\032\004B\007\336\275\337}\347\234\337"
 133      291A0442 
 133      07DEBDDF 
 133      7DE79CDF 
 134 0057 F9DEE531 		.ascii	"\371\336\3451`\360;\006\351\271\241\327Ay\320\000I\""
 134      60F03B06 
 134      E9B9A1D7 
 134      4179D000 
 134      4922
 135 0069 43A40342 		.ascii	"C\244\003B\216anQJ\320\207\341T\210\275\332\306\373"
 135      8E616E51 
 135      4AD087E1 
 135      5488BDDA 
 135      C6FB
 136 007b 3D3BDCB7 		.ascii	"=;\334\267\213%\361\3458\210\\&-\204\005R\030P\033\323"
 136      8B25F1E5 
 136      38885C26 
 136      2D840552 
ARM GAS  /tmp/ccoP5Ehd.s 			page 10


 136      18501BD3 
 137 008f 3BF98D46 		.ascii	";\371\215F\361\371<{+\212\266\343Lv\335c\177l\236\014"
 137      F1F93C7B 
 137      2B8AB6E3 
 137      4C76DD63 
 137      7F6C9E0C 
 138 00a3 6D97F2BB 		.ascii	"m\227\362\273\342\233fq\324\272\034uY\026>\345O\353"
 138      E29B6671 
 138      D4BA1C75 
 138      59163EE5 
 138      4FEB
 139 00b5 A2E782D9 		.ascii	"\242\347\202\3315\307y\273*?Up\300\213@\356\230\\4L"
 139      35C779BB 
 139      2A3F5570 
 139      C08B40EE 
 139      985C344C 
 140 00c9 21E8A434 		.ascii	"!\350\2444\203\024z@\261\300\200\242\020\273\001E\245"
 140      83147A40 
 140      B1C080A2 
 140      10BB0145 
 140      A5
 141 00da 98576B54 		.ascii	"\230WkT^\232V\205\374\343\001]O\014\317\320\200\004"
 141      5E9A5685 
 141      FCE3015D 
 141      4F0CCFD0 
 141      8004
 142 00ec 6208821C 		.ascii	"b\010\202\034\365\020\234\013\012?G\343\030\216\326"
 142      F5109C0B 
 142      0A3F47E3 
 142      188ED6
 143 00fb 85E8E7E8 		.ascii	"\205\350\347\350\311B]lI\345M\311^\345\314\253\374\304"
 143      C9425D6C 
 143      49E54DC9 
 143      5EE5CCAB 
 143      FCC4
 144 010d 11DCDD15 		.ascii	"\021\334\335\025P\205\302V\341\035\233XFdY\256\243\312"
 144      5085C256 
 144      E11D9B58 
 144      466459AE 
 144      A3CA
 145 011f E5A71B09 		.ascii	"\345\247\033\011wL\364\377\023\0232O\340z\341eg\242"
 145      774CF4FF 
 145      1313324F 
 145      E07AE165 
 145      67A2
 146 0131 3955CFC2 		.ascii	"9U\317\302\032\335\200\213\316q\354!4!|\011\324$\252"
 146      1ADD808B 
 146      CE71EC21 
 146      34217C09 
 146      D424AA
 147 0144 D745B4FD 		.ascii	"\327E\264\375_\012\361\332\362\355\351 \\c;\302\370"
 147      5F0AF1DA 
 147      F2EDE920 
 147      5C633BC2 
 147      F8
 148 0155 0371071B 		.ascii	"\003q\007\033\266k\001\240\365\005~\253\345T'.\307>"
 148      B66B01A0 
ARM GAS  /tmp/ccoP5Ehd.s 			page 11


 148      F5057EAB 
 148      E554272E 
 148      C73E
 149 0167 800758AF 		.ascii	"\200\007X\257UF\232\245\215\230\227e\2226\272\314\343"
 149      55469AA5 
 149      8D989765 
 149      9236BACC 
 149      E3
 150 0178 E65492C7 		.ascii	"\346T\222\307\371\314\334Rd<\034\011\217\231\346J\332"
 150      F9CCDC52 
 150      643C1C09 
 150      8F99E64A 
 150      DA
 151 0189 5CCD98E9 		.ascii	"\\\315\230\351U\313\264\222\351L,\223\016[\360\003-"
 151      55CBB492 
 151      E94C2C93 
 151      0E5BF003 
 151      2D
 152 019a 4AA602   		.ascii	"J\246\002"
 153              		.text
 154              		.section	.gnu.lto__stats_start_measure_crit_thd.e0ac6c2a37ec9ce2,"",%progbits
 155 0000 789C6362 		.ascii	"x\234cb`b@\007\"@\274\036\210\265@\034f\006F\240\012"
 155      60624007 
 155      2240BC1E 
 155      88B5401C 
 155      660646A0 
 156 0015 46264646 		.ascii	"F&FF \207\221\241\236\211\261>\222\021\254l=\323\201"
 156      208791A1 
 156      9E89B13E 
 156      9211AC6C 
 156      3DD381
 157 0028 07FFFFAF 		.ascii	"\007\377\377\257\373\327\266v\015\343\034&\220\030+"
 157      FBD7B676 
 157      0DE31C26 
 157      90182B
 158 0037 434B43C3 		.ascii	"CKC\303\004\005\006\206d\260\212\0200\031\012\322\317"
 158      04050686 
 158      64B08A10 
 158      30190AD2 
 158      CF
 159 0048 7C9EA1E5 		.ascii	"|\236\241\345\301\311f\276D\306\205\214\254@\301j\206"
 159      C1C966BE 
 159      44C6858C 
 159      AC40C16A 
 159      86
 160 0059 5F0D1D0D 		.ascii	"_\015\035\015\002\231\214@\245\020\323@\"\034\231\214"
 160      02998C40 
 160      A510D340 
 160      221C998C 
 161 0069 8CDA0CAB 		.ascii	"\214\332\014\253\032\200`3c&#\023\224]\231\311\310\234"
 161      1A806033 
 161      63262313 
 161      945D99C9 
 161      C89C
 162 007b CBC89004 		.ascii	"\313\310\220\004Q\010\244!\014\250Y\231\214,\014\014"
 162      5108A421 
 162      0CA85999 
ARM GAS  /tmp/ccoP5Ehd.s 			page 12


 162      8C2C0C0C 
 163 008b 17191A1F 		.ascii	"\027\031\032\037\234R\206\231\016\001! u \337i\344d"
 163      9C528699 
 163      0E012120 
 163      7520DF69 
 163      E464
 164 009d 26E93B67 		.ascii	"&\351;gd&e\372\007\307\033\232\351\031\352\231\350\353"
 164      642665FA 
 164      07C71B9A 
 164      E919EA99 
 164      E8EB
 165 00af E717EB17 		.ascii	"\347\027\353\027\225\350\027\027%\353'g\024\227$\226"
 165      95E81717 
 165      25EB2767 
 165      14972496 
 166 00bf 14EB2533 		.ascii	"\024\353%3\000\000\023O4\362"
 166      0000134F 
 166      34F2
 167              		.text
 168              		.section	.gnu.lto__stats_stop_measure_crit_thd.e0ac6c2a37ec9ce2,"",%progbits
 169 0000 789C6362 		.ascii	"x\234cb`b@\007\"@\274\036\210\265@\034f\006F\240\012"
 169      60624007 
 169      2240BC1E 
 169      88B5401C 
 169      660646A0 
 170 0015 46264646 		.ascii	"F&FF \207\221\241\236\211\261>\222\021\254l=\323\201"
 170      208791A1 
 170      9E89B13E 
 170      9211AC6C 
 170      3DD381
 171 0028 07FFFFAF 		.ascii	"\007\377\377\257\233w|\315\032\306\271L 1V\206\226\206"
 171      9B777CCD 
 171      1AC6B94C 
 171      20315686 
 171      9686
 172 003a 86090A0C 		.ascii	"\206\011\012\014\014\311`\025!`2\024\244\237\371<C\313"
 172      0CC96015 
 172      21603214 
 172      A49FF93C 
 172      43CB
 173 004c 839B8FB9 		.ascii	"\203\233\217\271\023\031\0272\262\002\005\253\031~5"
 173      13191732 
 173      B20205AB 
 173      197E35
 174 005b 74340864 		.ascii	"t4\010d2\002\225BL\003\211pd22j3\254j\000\202\215\214"
 174      32029542 
 174      4C038970 
 174      6432326A 
 174      33AC6A00 
 175 0072 998C4C50 		.ascii	"\231\214LPvy&#s.#C\022D!\220\2060\240fe2\26200\\dh|"
 175      76792623 
 175      732E2343 
 175      12442190 
 175      8630A066 
 176 008f 704B1966 		.ascii	"pK\031f:\004\204\200\324\201|\247\221\223\231\244\357"
 176      3A048480 
 176      D4817CA7 
ARM GAS  /tmp/ccoP5Ehd.s 			page 13


 176      919399A4 
 176      EF
 177 00a0 9C919994 		.ascii	"\234\221\231\224\351\037\034oh\246g\250g\242\257\237"
 177      E91F1C6F 
 177      68A667A8 
 177      67A2AF9F 
 178 00b0 5FAC5F54 		.ascii	"_\254_T\242_\\\224\254\237\234Q\\\222XR\254\227\314"
 178      A25F5C94 
 178      AC9F9C51 
 178      5C925852 
 178      AC97CC
 179 00c3 0000410D 		.ascii	"\000\000A\0155L"
 179      354C
 180              		.text
 181              		.section	.gnu.lto__stats_start_measure_crit_isr.e0ac6c2a37ec9ce2,"",%progbits
 182 0000 789C6362 		.ascii	"x\234cb`b@\007\"@\274\036\210\265@\034f\006F\240\012"
 182      60624007 
 182      2240BC1E 
 182      88B5401C 
 182      660646A0 
 183 0015 46264646 		.ascii	"F&FF \207\221\241\236\211\261>\222\021\254l=\323\201"
 183      208791A1 
 183      9E89B13E 
 183      9211AC6C 
 183      3DD381
 184 0028 07FFFFAF 		.ascii	"\007\377\377\257\333\327\276v\015\343<&\220\030+CKC"
 184      DBD7BE76 
 184      0DE33C26 
 184      90182B43 
 184      4B43
 185 003a C3040506 		.ascii	"\303\004\005\006\206d\260\212\0200\031\012\322\317|"
 185      8664B08A 
 185      1030190A 
 185      D2CF7C
 186 0049 9EA1E5C1 		.ascii	"\236\241\345\301\313f\276D\306\205\214\254@\301j\206"
 186      CB66BE44 
 186      C6858CAC 
 186      40C16A86 
 187 0059 5F0D1D0D 		.ascii	"_\015\035\015\002\231\214@\245\020\323@\"\034\231\214"
 187      02998C40 
 187      A510D340 
 187      221C998C 
 188 0069 8CDA0CAB 		.ascii	"\214\332\014\253\032\200`3c&#\023\224]\231\311\310\234"
 188      1A806033 
 188      63262313 
 188      945D99C9 
 188      C89C
 189 007b CBC89004 		.ascii	"\313\310\220\004Q\010\244!\014\250Y\231\214,\014\014"
 189      5108A421 
 189      0CA85999 
 189      8C2C0C0C 
 190 008b 17191A1F 		.ascii	"\027\031\032\037\274R\206\231\016\001! u \337i\344d"
 190      BC528699 
 190      0E012120 
 190      7520DF69 
 190      E464
 191 009d 26E93B67 		.ascii	"&\351;gd&e\372\007\307\033\232\351\031\352\231\350\353"
ARM GAS  /tmp/ccoP5Ehd.s 			page 14


 191      642665FA 
 191      07C71B9A 
 191      E919EA99 
 191      E8EB
 192 00af E717EB17 		.ascii	"\347\027\353\027\225\350\027\027%\353'g\024\227$\226"
 192      95E81717 
 192      25EB2767 
 192      14972496 
 193 00bf 14EB2533 		.ascii	"\024\353%3\000\000\37764\365"
 193      0000FF36 
 193      34F5
 194              		.text
 195              		.section	.gnu.lto__stats_stop_measure_crit_isr.e0ac6c2a37ec9ce2,"",%progbits
 196 0000 789C6362 		.ascii	"x\234cb`b@\007\"@\274\036\210\265@\034f\006F\240\012"
 196      60624007 
 196      2240BC1E 
 196      88B5401C 
 196      660646A0 
 197 0015 46264646 		.ascii	"F&FF \207\221\241\236\211\261>\222\021\254l=\323\201"
 197      208791A1 
 197      9E89B13E 
 197      9211AC6C 
 197      3DD381
 198 0028 07FFFFAF 		.ascii	"\007\377\377\257\273w|\315\032\306\371L 1V\206\226\206"
 198      BB777CCD 
 198      1AC6F94C 
 198      20315686 
 198      9686
 199 003a 86090A0C 		.ascii	"\206\011\012\014\014\311`\025!`2\024\244\237\371<C\313"
 199      0CC96015 
 199      21603214 
 199      A49FF93C 
 199      43CB
 200 004c 839F8FB9 		.ascii	"\203\237\217\271\023\031\0272\262\002\005\253\031~5"
 200      13191732 
 200      B20205AB 
 200      197E35
 201 005b 74340864 		.ascii	"t4\010d2\002\225BL\003\211pd22j3\254j\000\202\215\214"
 201      32029542 
 201      4C038970 
 201      6432326A 
 201      33AC6A00 
 202 0072 998C4C50 		.ascii	"\231\214LPvy&#s.#C\022D!\220\2060\240fe2\26200\\dh|"
 202      76792623 
 202      732E2343 
 202      12442190 
 202      8630A066 
 203 008f F04B1966 		.ascii	"\360K\031f:\004\204\200\324\201|\247\221\223\231\244"
 203      3A048480 
 203      D4817CA7 
 203      919399A4 
 204 009f EF9C9199 		.ascii	"\357\234\221\231\224\351\037\034oh\246g\250g\242\257"
 204      94E91F1C 
 204      6F68A667 
 204      A867A2AF 
 205 00af 9F5FAC5F 		.ascii	"\237_\254_T\242_\\\224\254\237\234Q\\\222XR\254\227"
 205      54A25F5C 
ARM GAS  /tmp/ccoP5Ehd.s 			page 15


 205      94AC9F9C 
 205      515C9258 
 205      52AC97
 206 00c2 CC000091 		.ascii	"\314\000\000\221\2715\316"
 206      B935CE
 207              		.text
 208              		.section	.gnu.lto_.symbol_nodes.e0ac6c2a37ec9ce2,"",%progbits
 209 0000 789C4DCC 		.ascii	"x\234M\314\271\021\302@\020D\321\351Y\335\027\031\221"
 209      B911C240 
 209      1044D1E9 
 209      59DD1719 
 209      91
 210 0011 0B91B410 		.ascii	"\013\221\264\020\216L\034\" \024|Ll(\"\340>\013\220"
 210      8E4C1C22 
 210      20147C4C 
 210      6C2822E0 
 210      3E0B90
 211 0024 6A55EC8E 		.ascii	"jU\354\216\363\353\2651**c\210=\375\012E\346k\021r\321"
 211      F3EBB531 
 211      2A2A6388 
 211      3DFD0A45 
 211      E66B1172 
 212 0039 4EB406E1 		.ascii	"N\264\006\341q\012\252\307\0064\036\017`0p\323\"\274"
 212      710AAAC7 
 212      06341E0F 
 212      603070D3 
 212      22BC
 213 004b 774F297A 		.ascii	"wO)z\004C\267\352\011\214<\236\301\330\343\005L<^\301"
 213      0443B7EA 
 213      098C3C9E 
 213      C1D8E305 
 213      4C3C5EC1 
 214 005f D4E30DCC 		.ascii	"\324\343\015\314\034\361\000s\313\272\006\236`\341\364"
 214      1CF10073 
 214      CBBA069E 
 214      60E1F4
 215 006e 024BA737 		.ascii	"\002K\2477X\375eT\244\331~`\014l\203BVC\367}#\265{d"
 215      58FD6554 
 215      A4D97E60 
 215      0C6C8342 
 215      5643F77D 
 216 0086 A4D9758D 		.ascii	"\244\331u\215KY\366M*\231\365{:\262\315\006\347\326"
 216      4B59F64D 
 216      2A99F57B 
 216      3AB2CD06 
 216      E7D6
 217 0098 F20349FF 		.ascii	"\362\003I\377g\230"
 217      6798
 218              		.text
 219              		.section	.gnu.lto_.refs.e0ac6c2a37ec9ce2,"",%progbits
 220 0000 789C6362 		.ascii	"x\234cb`bPg\200\000\026\026FVFV&\020dc\000\261\330A"
 220      60625067 
 220      80001616 
 220      46564656 
 220      26106463 
 221 0018 24230713 		.ascii	"$#\007\023+#'\020s\00117\023+\003\000\022\276\000\273"
 221      2B232710 
ARM GAS  /tmp/ccoP5Ehd.s 			page 16


 221      73013137 
 221      132B0300 
 221      12BE00BB 
 222              		.text
 223              		.section	.gnu.lto_.decls.e0ac6c2a37ec9ce2,"",%progbits
 224 0000 789CBD5C 		.ascii	"x\234\275\\\177p\324\326\235\227\264k\257\027\033\233"
 224      7F70D4D6 
 224      9D97B46B 
 224      AF171B9B 
 225 0010 FC2C994B 		.ascii	"\374,\231K\033\267\323vZr\027\223\226\013\364f\256!"
 225      1BB7D376 
 225      5A721793 
 225      960BF466 
 225      AE21
 226 0022 657A49E6 		.ascii	"ezI\346\216\266\323\2443\231\271\271\333\210\265\300"
 226      8EB6D3A4 
 226      3399B9B9 
 226      DB88B5C0 
 227 0032 5BF657B5 		.ascii	"[\366W\2652\016\367Od\003\006\332\204\030\0036\277\261"
 227      320EF74F 
 227      640306DA 
 227      84180336 
 227      BFB1
 228 0044 01434208 		.ascii	"\001CB\010`\007\023~$X!\301\206\204\030\260\211!\220"
 228      6007137E 
 228      245821C1 
 228      868418B0 
 228      892190
 229 0057 C23209E4 		.ascii	"\3022\011\344\222i\371e~\206\200\357\373\276z\322JZ"
 229      9269F965 
 229      7E8680EF 
 229      FBBE7AD2 
 229      4A5A
 230 0069 692D39C9 		.ascii	"i-9\311i\320\223Vz\357\363\276\277\337\367\275'\303"
 230      69D09356 
 230      7AEFF3BE 
 230      BFDFF7BD 
 230      27C3
 231 007b 311C53E7 		.ascii	"1\034S\347c\230\0018\036\234\3000m\005\014S\3040\314"
 231      63980138 
 231      1E9CC030 
 231      6D050C53 
 231      C430CC
 232 008e 2F99CC51 		.ascii	"/\231\314Q\002g3\234\353\340|\005\316\215pn\206\263"
 232      0267339C 
 232      EBE07C05 
 232      CE8D706E 
 232      86B3
 233 00a0 0DCE7638 		.ascii	"\015\316v8\027\260\014\323\000\347\0228\227\303\271"
 233      17B00CD3 
 233      00E71238 
 233      97C3B9
 234 00af 0ACEB570 		.ascii	"\012\316\265p\276\012\347&8\341\037\323\3122\246\203"
 234      BE0AE726 
 234      38E11FD3 
 234      CA32A683 
 235 00bf E0E5C1D9 		.ascii	"\340\345\301\331\005g1C\373\344\030f<\247\276\347h\235"
ARM GAS  /tmp/ccoP5Ehd.s 			page 17


 235      05673143 
 235      FBE41866 
 235      3CA7BEE7 
 235      689D
 236 00d1 5F714CD6 		.ascii	"_qL\326\261\316E\333u\016m_\241\357\377\035\212\325"
 236      B1CE45DB 
 236      750E6D5F 
 236      A1EFFF1D 
 236      8AD5
 237 00e3 4CA6FE2B 		.ascii	"L\246\376+\264?\353\261\321\241\376F\332\207\365 r\011"
 237      B43FEBB1 
 237      D1A1FE46 
 237      DA87F520 
 237      7209
 238 00f5 C25903FC 		.ascii	"\302Y\003\374>\010\025\333\340\372\037p\015\300\263"
 238      3E0815DB 
 238      E0FA1F70 
 238      0DC0B3
 239 0104 8904037E 		.ascii	"\211\004\003~\247\340lbU\036F\301\263\321p\376\014\316"
 239      A7E06C62 
 239      551E46C1 
 239      B3D170FE 
 239      0CCE
 240 0116 31703EC2 		.ascii	"1p>\302\251\370\004g\225\203\354\332h\037\001\003\377"
 240      A9F80467 
 240      9583ECDA 
 240      681F0103 
 240      FF
 241 0127 1A7DD67E 		.ascii	"\032}\326~9C\037>\332V\323\241\0356\321\347p\0136\241"
 241      39431F3E 
 241      DA56D3A1 
 241      1D36D1E7 
 241      700B36A1 
 242 013b D98A4B78 		.ascii	"\331\212Kx\330\001\357\266\303\371\033\370\335\302\252"
 242      D801EFB6 
 242      C3F91BF8 
 242      DDC2AA
 243 014a F8A3282F 		.ascii	"\370\243(/\"\253\366M\360\326\322wup\235\307f\367\271"
 243      22ABF64D 
 243      F0D6D277 
 243      75709DC7 
 243      66F7B9
 244 015d 80CAC228 		.ascii	"\200\312\302(\037\322W\023\233\241\177\014\345e\001"
 244      1FD25713 
 244      9BA17F0C 
 244      E56501
 245 016c B52B3BDA 		.ascii	"\265+;\332\033<\3404\344\260\315%.p4=-\311A\317r\017"
 245      1B3CE034 
 245      E4B0CD25 
 245      2E70343D 
 245      2DC941CF 
 246 0182 38CB73D0 		.ascii	"8\313s\320\363\000\263RV\016\245g\235\375\204[\"+3e"
 246      F300B352 
 246      560EA567 
 246      9DFD845B 
 246      222B3365 
 247 0196 7055992D 		.ascii	"pU\231-\275\227Y$\303\321T+\313\254\304\263\277\274"
ARM GAS  /tmp/ccoP5Ehd.s 			page 18


 247      BD975924 
 247      C3D1542B 
 247      CBACC4B3 
 247      BFBC
 248 01a8 877986E5 		.ascii	"\207y\206\345\331\342 S\2127EA\306\217\255yv5{/\275"
 248      D9E22053 
 248      8A374541 
 248      C68FAD79 
 248      76357B2F 
 249 01bd FB834F45 		.ascii	"\373\203OE\344\230\261,3\212y\005\332\327\311\362\352"
 249      E498B12C 
 249      338A7905 
 249      DAD7C9F2 
 249      EA
 250 01ce 1F583AA4 		.ascii	"\037X:\244\307\217\231\026\322\203\374\262\354C|\202"
 250      C78F9916 
 250      D283FCB2 
 250      EC437C82 
 251 01de D0CC3E60 		.ascii	"\320\314>`\254\302\263kX\223\227\251\264*u\247\212\352"
 251      ACC2B36B 
 251      589397A9 
 251      B42A75A7 
 251      8AEA
 252 01f0 AAD30303 		.ascii	"\252\323\003\003\253\232F\250\375s\314\023,\324^\313"
 252      AB9A46A8 
 252      FD73CC13 
 252      2CD45ECB 
 253 0200 8ECA09BF 		.ascii	"\216\312\011\277\316\012\277\336\026~w6\374\323n\340"
 253      CE0ABFDE 
 253      167E7736 
 253      FCD36EE0 
 254 0210 5FB1C26F 		.ascii	"_\261\302o\260\205\277\234\015?\305\015\374F+\374k\331"
 254      B085BF9C 
 254      0D3FC50D 
 254      FC462BFC 
 254      6BD9
 255 0222 F04D4AFA 		.ascii	"\360MJ\372\306\354\216\374\214\"\031\255\213\026\326"
 255      C6EC8EFC 
 255      8C2219AD 
 255      8B16D6
 256 0231 4D1F9BAD 		.ascii	"M\037\233\255}l\261\353Ci\353\244,\224j\360\255\256"
 256      7D6CB1EB 
 256      4369EBA4 
 256      2C946AF0 
 256      ADAE
 257 0243 E0DBACF0 		.ascii	"\340\333\254\360\257\333\302\177\254\303\2737\303m\324"
 257      AFDBC27F 
 257      ACC3BB37 
 257      C36DD4
 258 0252 0C7D68F0 		.ascii	"\014}h\360L!\363gY\256!\015\237\330W|'3\237\240\224"
 258      4C21F367 
 258      59AE210D 
 258      9FD8577C 
 258      27339FA0 
 259 0267 CEF9044C 		.ascii	"\316\371\004L\221\002\310\371\032\302\263P\375G\314"
 259      9102C8F9 
 259      1AC2B350 
ARM GAS  /tmp/ccoP5Ehd.s 			page 19


 259      FD47CC
 260 0276 5A30D6F4 		.ascii	"Z0\326\364\262\356\216\177\221\345\002\236\335\301\336"
 260      B2EE8E7F 
 260      91E5029E 
 260      DDC1DE
 261 0285 0938572C 		.ascii	"\0118W,L\015\216\3031\267\261\315\233\320^m\211\310"
 261      4C0D8EC3 
 261      31B7B1CD 
 261      9BD05E6D 
 261      89C8
 262 0297 72BAB57E 		.ascii	"r\272\265~\357\014\266\032\270P\3371\026a\031\216\357"
 262      EF0CB61A 
 262      B850DF31 
 262      1661198E 
 262      EF
 263 02a8 334D40B9 		.ascii	"3M@\271\3228o\305}r\323\036\250\277\235-\004\334\255"
 263      D2386FC5 
 263      7D72D31E 
 263      A8BF9D2D 
 263      04DCAD
 264 02bb 9C866B27 		.ascii	"\234\206k'\001z\253\036\264\202\031oiwQ\035\257\201"
 264      017AAB1E 
 264      B482196F 
 264      6977511D 
 264      AF81
 265 02cd EDF20C56 		.ascii	"\355\362\014Vj\002[\325\275\034\211\0132s2Rfl\301\250"
 265      6A025BD5 
 265      BD1C890B 
 265      32733252 
 265      666CC1A8 
 266 02e1 641735BC 		.ascii	"d\0275\274{\230\235\201\374\277\013\3158\246\306g\226"
 266      7B989D81 
 266      FCBF0BCD 
 266      38A6C667 
 266      96
 267 02f2 AD7BA8F6 		.ascii	"\255{\250\366\245{\337fk\020\252\013\241^\0362T\357"
 267      A57BDF66 
 267      6B10AA0B 
 267      A15E1E32 
 267      54EF
 268 0304 B2377F81 		.ascii	"\2627\177\201\372~\017\201NY\200x6\240\213Q\377\255"
 268      FA7E0F81 
 268      4E598078 
 268      36A08B51 
 268      FFAD
 269 0316 552068F8 		.ascii	"U h\370\232\336\220\034\247\204\371\226\253s\314\027"
 269      9ADE901C 
 269      A784F996 
 269      AB73CC17 
 270 0326 3E17AA2B 		.ascii	">\027\252+p\262\0039\275\245\376\200\217\204\007\037"
 270      70B20339 
 270      BDA5FE80 
 270      8F84071F 
 271 0336 35E6A67C 		.ascii	"5\346\246|'\031q\314E\354\353\240\325\226\373O\035\250"
 271      271971CC 
 271      45ECEBA0 
 271      D596FB4F 
ARM GAS  /tmp/ccoP5Ehd.s 			page 20


 271      1DA8
 272 0348 A1B67CD0 		.ascii	"\241\266|\320\225-\267\277\327\210\346b\353\224\206"
 272      952DB7BF 
 272      D788E662 
 272      EB9486
 273 0357 EE9B38AD 		.ascii	"\356\2338\255\377\037b\377\033\374\244\377#\326\376"
 273      FF1F62FF 
 273      1BFCA4FF 
 273      23D6FE
 274 0366 5B06DE66 		.ascii	"[\006\336fQkG\\\365~\270gav\357\216\261\204ZF\377\251"
 274      516B475C 
 274      F57EB867 
 274      6176EF8E 
 274      B1845A46 
 275 037c B317298F 		.ascii	"\263\027)\217\307\320e\266\371\255\266\361h\241Y{\360"
 275      C7D065B6 
 275      F9ADB6F1 
 275      68A1597B 
 275      F0
 276 038d DB508163 		.ascii	"\333P\201c:t\352\207\344\261\351\226\015\357\341\210"
 276      3A74EA87 
 276      E4B1E996 
 276      0DEFE188 
 277 039d ECD348D8 		.ascii	"\354\323H\330\343\031\260\324$\210#=\030\002T\260\275"
 277      E319B0D4 
 277      2488233D 
 277      180254B0 
 277      BD
 278 03ae 6EC01CED 		.ascii	"n\300\034\355\250F\3513\202\355\363\014f\246\354\230"
 278      A846E933 
 278      82EDF30C 
 278      66A6EC98 
 279 03be 11EC7D37 		.ascii	"\021\354}7`#\234);n\004\353\366\014f\246\354c#\330a"
 279      60239C29 
 279      3B6E04EB 
 279      F60C66A6 
 279      EC6323D8 
 280 03d3 3760239D 		.ascii	"7`#\235);i\004\373\3203\230\231\262\013F\260\217\334"
 280      293B6904 
 280      FBD03398 
 280      99B20B46 
 280      B08FDC
 281 03e6 8095DA50 		.ascii	"\200\225\332P\246\037N\343j/\253\2339\307|\354\327\002"
 281      A61F4EE3 
 281      6A2FAB9B 
 281      39C77CEC 
 281      D702
 282 03f8 82479366 		.ascii	"\202G\223f2\030i\277\327\000f\342\033F\322\017\326\260"
 282      321869BF 
 282      D70066E2 
 282      1B46D20F 
 282      D6B0
 283 040a 0B66C8FB 		.ascii	"\013f\310\373Fk\243\331Y7\2109\014f\233qh<\347\031\314"
 283      466BA3D9 
 283      59378839 
 283      0C669B71 
 283      683CE719 
ARM GAS  /tmp/ccoP5Ehd.s 			page 21


 284 041f AC962304 		.ascii	"\254\226#\004\314\024j\350p\224nQF.\316\304\272\002"
 284      CC146AE8 
 284      70946E51 
 284      462ECEC4 
 284      BA02
 285 0431 0D8B64C7 		.ascii	"\015\213d\307j`\203d\231\323+\313#G\332\327\345\331"
 285      6A608364 
 285      99D32BCB 
 285      2347DAD7 
 285      E5D9
 286 0443 2BEC8FA0 		.ascii	"+\354\217\240\274\312\006u*\324{\355n\000g\000W\375"
 286      BCCA0675 
 286      2AD47BED 
 286      6E006700 
 286      57FD
 287 0455 F679F7A0 		.ascii	"\366y\367\240M\235,\241\337h\0117\335\210)\207+\\p\022"
 287      4D9D2CA1 
 287      DF680937 
 287      DD882987 
 287      2B5C7012 
 288 0469 93522BCF 		.ascii	"\223R+\317a\253[\357\327\333\2157\332\204\036\235\317"
 288      61AB5BEF 
 288      D7DB8D37 
 288      DA841E9D 
 288      CF
 289 047a 35D314E0 		.ascii	"5\323\024\340\246\232M\344\331\246\000\256\300\332\227"
 289      A69A4DE4 
 289      D9A600AE 
 289      C0DA97
 290 0489 1ED4F289 		.ascii	"\036\324\362\211\333\010\366\342\320\301\232zO\334/"
 290      DB08F6E2 
 290      D0C19A7A 
 290      4FDC2F
 291 0498 FB79B69A 		.ascii	"\373y\266\232#@\015y\3261#h\311'\202\346\021?\030\314"
 291      23400D79 
 291      D6312368 
 291      C92782E6 
 291      113F18CC 
 292 04ac DC0C6887 		.ascii	"\334\014h\207Y\215\337j\033'\325\177iT}s\236W\325\233"
 292      598DDF6A 
 292      1B27D57F 
 292      69547D73 
 292      9E57D59B 
 293 04c0 3C24BDA5 		.ascii	"<$\275\245\347\244\257QV\252}\006[\317\351\030\220="
 293      E7A4AF51 
 293      56AA7D06 
 293      5BCFE918 
 293      903D
 294 04d2 F6EDFE57 		.ascii	"\366\355\376W\034\361kQ\256\033\355\025\344\002\250"
 294      1CF16B51 
 294      AE1BED15 
 294      E402A8
 295 04e1 7DE96B0F 		.ascii	"}\351k\017\"\320\\\004j\0372P\357\262\225\343\020\350"
 295      22D05C04 
 295      6A1F3250 
 295      EFB295E3 
 295      10E8
ARM GAS  /tmp/ccoP5Ehd.s 			page 22


 296 04f3 05047A2B 		.ascii	"\005\004z+K\323\254E\323\254Y\003\272\327Q\247\373\266"
 296      4BD3AC45 
 296      D3AC5903 
 296      BAD751A7 
 296      FBB6
 297 0505 EA724C97 		.ascii	"\352rL\227U]&vr\014\015Z\274\355\371t\001\333_#/\036"
 297      555D2676 
 297      720C0D5A 
 297      BCEDF974 
 297      01DB5F23 
 298 051b ED415F0D 		.ascii	"\355A_\015T_\363Q:\007\263\244C\304\357\215\215\243"
 298      545FF351 
 298      3A07B3A4 
 298      43C4EF8D 
 298      8DA3
 299 052d 9ED92830 		.ascii	"\236\331(0\263Q\377\331\020\330\350P\331h@6N}\003l|"
 299      B351FFD9 
 299      10D8E850 
 299      D9684036 
 299      4E7D036C 
 300 0542 E6998D11 		.ascii	"\346\231\215\021\0066`\036\331sy\241:\372\335\305\324"
 300      0636601E 
 300      D97379A1 
 300      3AFADDC5 
 300      D4
 301 0553 E7CEDF09 		.ascii	"\347\316\337\011=\313\270\273L\271\263r\345 [\252>\036"
 301      3DCBB8BB 
 301      4CB9B372 
 301      E5205BAA 
 301      3E1E
 302 0565 2C719695 		.ascii	",q\226\225\005=\206Y\236\354j\226\327\247\317\362V\242"
 302      053D8659 
 302      9EEC6A96 
 302      D7A7CFF2 
 302      56A2
 303 0577 C8CED939 		.ascii	"\310\316\3319\230\033\250\246\366\343\367\220@\332\214"
 303      981BA8A6 
 303      F6E3F790 
 303      40DA8C
 304 0586 3097870A 		.ascii	"0\227\207\012\223\356=\361\206\352\247k\021\350\253"
 304      93EE3DF1 
 304      86EAA76B 
 304      11E8AB
 305 0595 2C15E65B 		.ascii	",\025\346[4\230o\326 \374$=]\307\000\371<}B~\004\230"
 305      34986FD6 
 305      20FC243D 
 305      5DC700F9 
 305      3C7D427E 
 306 05ab FFF7761C 		.ascii	"\377\367v\034S\233\317R\245z\314\2774\353\251?\260P"
 306      539BCF52 
 306      A57ACCBF 
 306      34EBA93F 
 306      B050
 307 05bd CB9D5405 		.ascii	"\313\235T\005\275\370\265\020k\224\216zm\231\342Q\222"
 307      BDF8B510 
 307      6B948E7A 
 307      6D99E251 
ARM GAS  /tmp/ccoP5Ehd.s 			page 23


 307      92
 308 05ce 3D357C4D 		.ascii	"=5|M8L\267Mi\201e\326\266\303a\330\321\026p\346ujc\371"
 308      384CB74D 
 308      698165D6 
 308      B6C361D8 
 308      D11670E6 
 309 05e6 268E10B4 		.ascii	"&\216\020\264\"\337\252\360\355\254e\336F\036\030\252"
 309      22DFAAF0 
 309      EDAC65DE 
 309      461E18AA 
 310 05f6 38B9D26B 		.ascii	"8\271\322k\234a\014\334\362\365\370\004E\234Z\253*b"
 310      9C610CDC 
 310      F2F5F804 
 310      459C5AAB 
 310      2A62
 311 0608 B039F1B3 		.ascii	"\2609\361\263\032Z\021v\274\015;\336\312Y\246\304\215"
 311      1A5A1176 
 311      BC0D3BDE 
 311      CA59A6C4 
 311      8D
 312 0619 57D3B594 		.ascii	"W\323\265\224o\362np\337>q&(\327\027\331\364g\227!-"
 312      6FF26E70 
 312      DF3E7126 
 312      28D717D9 
 312      F4679721 
 313 062e 9B77643E 		.ascii	"\233wd>;\023\321\267sda\354\234E\252\332Z\302x' \216"
 313      3B13D1B7 
 313      736461EC 
 313      9C45AADA 
 313      5AC27827 
 314 0644 B98D4D76 		.ascii	"\271\215MvY\011o\355\271\246\255%\354rAx\215r\361/\306"
 314      59096FED 
 314      B9A6AD25 
 314      EC724178 
 314      8D72F12F 
 315 0659 75319E55 		.ascii	"u1\236UX\216\342\016\315\342.\275\257'\377<\273\307"
 315      588EE20E 
 315      CDE22EBD 
 315      AF27FF3C 
 315      BBC7
 316 066b 3358A91D 		.ascii	"3X\251\035\251\232ee\270\345\331\2678\222\264\357\346"
 316      A99A6565 
 316      B8E5D9B7 
 316      3892B4EF 
 316      E6
 317 067c BE0F6507 		.ascii	"\276\017e\007\224\372\3011/\0054\235\332\211np\257n"
 317      94FAC131 
 317      2F05349D 
 317      DA896E70 
 317      AF6E
 318 068e BC7ABD41 		.ascii	"\274z\275A5&/\221\272S\213\324{0\0204\006\254\216\322"
 318      35262F91 
 318      BA538BD4 
 318      7B301034 
 318      06AC8ED2 
 319 06a2 6C1DDC3C 		.ascii	"l\035\334<\205\252\025V\246\334\256/\350\207\223#\276"
 319      85AA1556 
ARM GAS  /tmp/ccoP5Ehd.s 			page 24


 319      A6DCAE2F 
 319      E8879323 
 319      BE
 320 06b3 6E74C435 		.ascii	"nt\3045\201\257\351\210=\237\271tD\231\325\340F`\317"
 320      81AFE988 
 320      3D9FB974 
 320      4499D5E0 
 320      4660CF
 321 06c6 1BB0E7FD 		.ascii	"\033\260\347\375V\203>zs\337lj\320\373]y\342\025\364"
 321      56833E7A 
 321      73DF6C6A 
 321      D0FB5D79 
 321      E215F4
 322 06d9 44CDB34E 		.ascii	"D\315\263N\352\250C\261\205\032\345\306\347\373Y\025"
 322      EAA843B1 
 322      851AE5C6 
 322      E7FB5915 
 323 06e9 4E9D1A5B 		.ascii	"N\235\032[\341\334j\201\302}%x\025\214j_\312GgH\236"
 323      E1DC6A81 
 323      C27D2578 
 323      158C6A5F 
 323      CA476748 
 324 06fe D1A3468B 		.ascii	"\321\243F\213,\323R%c0\255\375\006Oy\037=\345\000zJ"
 324      2CD35225 
 324      6330ADFD 
 324      064F791F 
 324      3DE5007A 
 325 0713 3796878C 		.ascii	"7\226\207\214\376\342d\026\207\215fq\3253\337\245.\255"
 325      FEE26416 
 325      878D6671 
 325      D533DFA5 
 325      2EAD
 326 0725 6F9FB19B 		.ascii	"o\237\261\233[_\323\372\266\364\234\367\343\022\237"
 326      5B5FD3FA 
 326      B6F49CF7 
 326      E3129F
 327 0734 8785F4BE 		.ascii	"\207\205\364\276\275\232\343\036C\307\235Y`\225n\227"
 327      BD9AE31E 
 327      43C79D59 
 327      60956E97 
 328 0744 75EEE166 		.ascii	"u\356\341f]\271\256`\210\254\350\007\304\220\002\027"
 328      5DB9AE60 
 328      88ACE807 
 328      C4900217 
 329 0754 33C3521B 		.ascii	"3\303R\033\251\353\351\3115\232\236\014\2728\255o\330"
 329      A9EBE9C9 
 329      359A9E0C 
 329      BA38AD6F 
 329      D8
 330 0765 1CA8A623 		.ascii	"\034\250\246#\323I\264\265e\005\366#S\216U\356\015\330"
 330      D349B4B5 
 330      6505F623 
 330      538E55EE 
 330      0DD8
 331 0777 E474D6C8 		.ascii	"\344t\326\310T\177Y\033\231N\273\032\231zmG\246\323"
 331      547F591B 
 331      994EBB1A 
ARM GAS  /tmp/ccoP5Ehd.s 			page 25


 331      997A6D47 
 331      A6D3
 332 0789 DE4726BB 		.ascii	"\336G&\273\303H \317~\202.\362\251y\030\331\351F\372"
 332      C34820CF 
 332      7E822EF2 
 332      A97918D9 
 332      E946FA
 333 079c 3F713246 		.ascii	"?q2FY\271\321\273\234\245\364\243(\337\265\342\331\205"
 333      59B9D1BB 
 333      9CA5F4A3 
 333      28DFB5E2 
 333      D985
 334 07ae 22139E49 		.ascii	"\"\023\236I\233J]\037\216\254j\236y\320\015q\243\235"
 334      9B4A5D1F 
 334      8EAC6A9E 
 334      79D00D71 
 334      A39D
 335 07c0 C06A94E5 		.ascii	"\300j\224\345*\230j\362\037\272\001\033\347\304i\215"
 335      2A986AF2 
 335      1FBA011B 
 335      E7C4698D 
 336 07d0 B2AB41D3 		.ascii	"\262\253A\323\324>L\022\323\236\361\314\304\365\366"
 336      D43E4C12 
 336      D39EF1CC 
 336      C4F5F6
 337 07df 2DA778EA 		.ascii	"-\247x\352\336\326\027n\360\306;\323w\261\301\224T_"
 337      DED6176E 
 337      F0C63BD3 
 337      77B1C194 
 337      545F
 338 07f1 F10C6756 		.ascii	"\361\014gV\304\255>\242\330\027F\332m_*z\360&+6\324"
 338      C4AD3EA2 
 338      D81746DA 
 338      6D5F2A7A 
 338      F0262B36 
 339 0806 AB6EAEBF 		.ascii	"\253n\256\277x\237\032b\372\321\022\326\007\007\337"
 339      789F1A62 
 339      FAD112D6 
 339      0707DF
 340 0815 073503E1 		.ascii	"\0075\003\341*\243\305\243\224\326\316\"2\245\273\352"
 340      2AA3C5A3 
 340      94D6CE22 
 340      32A5BBEA 
 341 0825 CA9B5EEF 		.ascii	"\312\233^\357\364\274\305\330\367\246:[\277\201F\262"
 341      F4BCC5D8 
 341      F7A63A5B 
 341      BF8146B2 
 342 0835 33F88DC4 		.ascii	"3\370\215\304\305=\010su\250\371%\310\362\360};\332"
 342      C53D0873 
 342      75A8F925 
 342      C8F2F07D 
 342      3BDA
 343 0847 64796EBE 		.ascii	"dyn\276FX\227gD\263\265m\353DWP\301>p\003\226c\200\337"
 343      46589767 
 343      44B3B56D 
 343      EB445750 
 343      C13E7003 
ARM GAS  /tmp/ccoP5Ehd.s 			page 26


 344 085f 4EC0BC6C 		.ascii	"N\300\274l\343vi\243O\215\217\364\337\363\315H\371#"
 344      E37669A3 
 344      4F8D8FF4 
 344      DFF3CD48 
 344      F923
 345 0871 CF6C9864 		.ascii	"\317l\230d\002R\376\374\276\035[e\271\365Y/+\277\213"
 345      0252FEFC 
 345      BE1D5B65 
 345      B9F5592F 
 345      2BBF8B
 346 0884 1ADE522D 		.ascii	"\032\336R-f6\362r\"\213\227\333V^\\\256\243r\314\247"
 346      6636F272 
 346      228B97DB 
 346      565E5CAE 
 346      A372CCA7 
 347 0898 5686EC82 		.ascii	"V\206\354\202\247\335\236\204\335a\364%\236\275\206"
 347      A7DD9E84 
 347      DD61F425 
 347      9EBD86
 348 08a7 C1FF3A66 		.ascii	"\301\377:fF\267\260\034\300\262\332G\312Z\237iP8\037"
 348      46B7B01C 
 348      C0B2DA47 
 348      CA5A9F69 
 348      50381F
 349 08ba B4C40EB3 		.ascii	"\264\304\016\263\237\322\333'\\\023\222\371\260\001"
 349      9FD2DB27 
 349      5C1392F9 
 349      B001
 350 08c8 2633B80F 		.ascii	"&3\270\017\321\301\222n\337\306\362\035,\273\261<\207"
 350      D1C1926E 
 350      DFC6F21D 
 350      2CBBB13C 
 350      87
 351 08d9 E5052C2F 		.ascii	"\345\005,/ay\003\313YHl\035\226\213\260\\\212\345_\261"
 351      617903CB 
 351      59486C1D 
 351      968BB05C 
 351      8AE55FB1 
 352 08ed 3C8BE5FF 		.ascii	"<\213\345\377b\371\005\226\177\303\362\034\226\027\260"
 352      62F90596 
 352      7FC3F21C 
 352      9617B0
 353 08fc BCE4261D 		.ascii	"\274\344&\035\264\314\352\351g!\372\364?\363\265\022"
 353      B4CCEAE9 
 353      6721FAF4 
 353      3FF3B512 
 354 090c 8AE99A45 		.ascii	"\212\351\232E\365?d\326\310r}\372\306\354\243\247IB"
 354      F53F64D6 
 354      C8727DFA 
 354      C6ECA3A7 
 354      4942
 355 091e F284964F 		.ascii	"\362\204\226O\317\032F\352\265\263\017\330\366K\321"
 355      CF1A46EA 
 355      B5B30FD8 
 355      F64BD1
 356 092d D5C6F22E 		.ascii	"\325\306\362.Ao6\327M3\375\223\231\027\345Y#X\375\233"
 356      416F36D7 
ARM GAS  /tmp/ccoP5Ehd.s 			page 27


 356      4D33FD93 
 356      9917E559 
 356      2358FD9B 
 357 0941 9976EB37 		.ascii	"\231v\35373/\372\262\276\231I\037Rng}\222\363\34207"
 357      332FFAB2 
 357      BE99491F 
 357      526E677D 
 357      92F3E230 
 358 0956 9FE42CF0 		.ascii	"\237\344,\360Y\340\027\332\302\257\354\262\302\277\352"
 358      59E017DA 
 358      C2AFECB2 
 358      C2BFEA
 359 0965 0ABEC10A 		.ascii	"\012\276\301\012\337h\013\277;\013~\237+\370%V\370\245"
 359      DF680BBF 
 359      3B0B7E9F 
 359      2BF82556 
 359      F8A5
 360 0977 B6F027B3 		.ascii	"\266\360'\263\340\317\272\202_n\205_a\003O\306\313\323"
 360      E0CFBA82 
 360      5F6E855F 
 360      61034FC6 
 360      CBD3
 361 0989 FFB0B84D 		.ascii	"\377\260\270M\2369W\276=\360<\353\376\233\245&\237\363"
 361      9E3957BE 
 361      3DF03CEB 
 361      FE9BA526 
 361      9FF3
 362 099b 374BEAD8 		.ascii	"7K\352\330\353\324r\265\2570C\224\311\222g\024Z\031"
 362      EBD472B5 
 362      AF304394 
 362      C9926714 
 362      5A19
 363 09ad 532BADB1 		.ascii	"S+\255\261\243\\\031\350\\x\237\334\\\243\014\014t\214"
 363      A35C19E8 
 363      5C789FDC 
 363      5CA30C0C 
 363      748C
 364 09bf 67DC13DE 		.ascii	"g\334\023\336b&\\\245\307\364#\233\260z\023aX\031r\357"
 364      62265CA5 
 364      C7F4239B 
 364      B07A1361 
 364      581972EF 
 365 09d3 42D37E06 		.ascii	"B\323~\006\317\276lK\346\227\235/\310\254\256A\"6\216"
 365      CFBE6C4B 
 365      E6979D2F 
 365      C8ACAE41 
 365      22368E
 366 09e6 793D1B8F 		.ascii	"y=\033\217g7\230\233\363\354F[\274\257l\360\366\273"
 366      6737989B 
 366      F3EC465B 
 366      BCAF6CF0 
 366      F6BB
 367 09f8 C2DB6C7E 		.ascii	"\302\333l~\360\003\246\231\030@k\317\201\221\033k\344"
 367      F003A699 
 367      18406BCF 
 367      81911B6B 
 367      E4
ARM GAS  /tmp/ccoP5Ehd.s 			page 28


 368 0a09 99AD20BE 		.ascii	"\231\255 \276\001v\340Q\333\004\351\2774)\036#\342\321"
 368      0176E051 
 368      DB04E9BF 
 368      34291E23 
 368      E2D1
 369 0a1b 97D62E37 		.ascii	"\227\326.7\323\001\265\315\207\013\000\026\375\271\200"
 369      D301B5CD 
 369      870B0016 
 369      FDB980
 370 0a2a 8284131B 		.ascii	"\202\204\023\033\265\373\262?:\323\326\"\310\273\301"
 370      B5FBB23F 
 370      3AD3D622 
 370      C8BBC1
 371 0a39 D722569C 		.ascii	"\327\"V\234T\247\0006\263\374\264>n\334o\240\276\033"
 371      54A70036 
 371      B3FCB43E 
 371      6EDC6FA0 
 371      BE1B
 372 0a4b E2A34AFD 		.ascii	"\342\243J\375\016\244\376\262\003\365\216@\034S]\204"
 372      0EA4FEB2 
 372      03F58E40 
 372      1C535D84 
 373 0a5b 235436ED 		.ascii	"#T6\355Gj\265\017\346\\\321\336{\334<}yI\307\3151\002"
 373      476AB50F 
 373      E65CD1DE 
 373      7BDC3C7D 
 373      7949C7CD 
 374 0a71 AB876D66 		.ascii	"\253\207mft\3448\246YjF\337h\005\363\224f\311\3121\025"
 374      74E438A6 
 374      596A46DF 
 374      6805F394 
 374      66C9CA31 
 375 0a86 EC207E56 		.ascii	"\354 ~V\270\3223X\251\211\262SK\315\237\006\256u\203"
 375      B8D23358 
 375      A989B253 
 375      4BCD9F06 
 375      AE7583
 376 0a99 97E3FB87 		.ascii	"\227\343\373\207\013\307\015\337?l\364\014f&\356\252"
 376      0BC70DDF 
 376      3F6CF40C 
 376      6626EEAA 
 377 0aa9 116CAB1B 		.ascii	"\021l\253\0330\273\257\004\354\016\243\221@\362\341"
 377      30BBAF04 
 377      EC0EA391 
 377      40F2E1
 378 0ab8 C3E40373 		.ascii	"\303\344\003s\236\267\261|\007\313\275Xva\271\337\234"
 378      9EB7B17C 
 378      07CBBD58 
 378      7661B9DF 
 378      9C
 379 0ac9 0BED2ED2 		.ascii	"\013\355.\322\274\304\326\024\0073\011Yiwv\017\273E"
 379      BCC4D614 
 379      07330959 
 379      6977760F 
 379      BB45
 380 0adb 3070EECF 		.ascii	"0p\356\317\252\331Yh\303\037\240{\274[4\250{X\227\031"
 380      AAD95968 
ARM GAS  /tmp/ccoP5Ehd.s 			page 29


 380      C31FA07B 
 380      BC5B34A8 
 380      7B589719 
 381 0aef 8F639343 		.ascii	"\217c\223CY\356\321sk\026u\217C.\334\243F\271\321\270"
 381      59EED173 
 381      6B16758F 
 381      432EDCA3 
 381      46B9D1B8 
 382 0b03 C2DD3778 		.ascii	"\302\3357xz\377w\033\030\351\376T\333\000\370\020\031"
 382      7AFF771B 
 382      18E9FE54 
 382      DB00F810 
 382      19
 383 0b14 B9383823 		.ascii	"\27188#f \360\363\341\244\311\261lF\376\2561r\314\025"
 383      6620F0F3 
 383      E1A4C9B1 
 383      6C46FEAE 
 383      3172CC15 
 384 0b28 233B1A35 		.ascii	"#;\0325\353?\342#6V\257\343\016i\202\246\354<\212\006"
 384      EB3FE223 
 384      3656AFE3 
 384      0E6982A6 
 384      EC3C8A06 
 385 0b3c AB822DF5 		.ascii	"\253\202-\365\014f\266\376\267\216z\235\265.\353n\037"
 385      0C66B6FE 
 385      B78E7A9D 
 385      B52EEB6E 
 385      1F
 386 0b4d 85739034 		.ascii	"\205s\2204\316AV\017\377F\346S\033\335\360\341<-\004"
 386      CE41560F 
 386      FF46E653 
 386      1BDDF0E1 
 386      3C2D04
 387 0b60 AD9C5F64 		.ascii	"\255\234_d\263,\356>C8k\315\020\360\353HCB\220K$\363"
 387      B32CEE3E 
 387      43386BCD 
 387      10F0EB48 
 387      4342904B 
 388 0b76 4E56D3CD 		.ascii	"NV\323\315\2543\250\225v\213P,\211\022\351\313\211\216"
 388      AC33A895 
 388      768B502C 
 388      8912E9CB 
 388      898E
 389 0b88 2F7C850E 		.ascii	"/|\205\016\026\225\365\016\002\204g\251\231\264O6\347"
 389      1695F50E 
 389      028467A9 
 389      99B44F36 
 389      E7
 390 0b99 5BB4ED55 		.ascii	"[\264\355U\\\271\351t\003\350~\026x\314\020\377\216"
 390      5CB9E974 
 390      03E87E16 
 390      78CC10FF 
 390      8E
 391 0baa 63FC3B81 		.ascii	"c\374;\201q\356\257X\236\302\362S,\377\346s1E:bL\"?"
 391      71EEAF58 
 391      9EC2F253 
 391      2CFFE673 
ARM GAS  /tmp/ccoP5Ehd.s 			page 30


 391      31453A62 
 392 0bc1 F67134CE 		.ascii	"\366q4\316\014\315\215\276\312\270\021\317\236\364\014"
 392      0CCD8DBE 
 392      CAB811CF 
 392      9EF40C
 393 0bd0 6612A432 		.ascii	"f\022\2442\377\270\266\240F\274\202g?q\203\227c\225"
 393      FFB8B6A0 
 393      46BC8267 
 393      3F718397 
 393      6395
 394 0be2 638B3A28 		.ascii	"c\213:(\251.\366\301p\326#Xi.\245\0342(\245\007\225"
 394      A92EF6C1 
 394      70D62358 
 394      692EA51C 
 394      3228A507 
 395 0bf7 D28B2A38 		.ascii	"\322\213*8\207\345y,/\230\007\242\217\206[\006\"s\320"
 395      87E5792C 
 395      2F9807A2 
 395      8F865B06 
 395      2273D0
 396 0c0a B71B178D 		.ascii	"\267\033\027\215\362\221\2257\377\273\216\267\013\271"
 396      F2919537 
 396      FFBB8EB7 
 396      0BB9
 397 0c18 8F696D17 		.ascii	"\217im\027\032wo\273\377\256\255\221_\306\340\235\036"
 397      1A776FBB 
 397      FFAEAD91 
 397      5FC6E09D 
 397      1E
 398 0c29 3E78F036 		.ascii	">x\3606#q\314yls-;K;\243ei\327\006\217\3363g(\355\313"
 398      2371CC79 
 398      6C732D3B 
 398      4B3BA365 
 398      69D7068F 
 399 0c43 D66586A1 		.ascii	"\326e\206\241\031\272\013_\206 \347d\246\246\357\016"
 399      19BA0B5F 
 399      8620E764 
 399      A6A6EF0E 
 400 0c53 07743A86 		.ascii	"\007t:\206b\246\262\322qB\263,u\333sn\261W<\263&\372"
 400      62A6B2D2 
 400      7142B32C 
 400      75DB736E 
 400      B1573CB3 
 401 0c69 4EA065A9 		.ascii	"N\240e\251`\363\335\200\345\310\022/\375\247\255Z\025"
 401      60F3DD80 
 401      E5C8122F 
 401      FDA7AD5A 
 401      15
 402 0c7a 3D739D63 		.ascii	"=s\235cP\353\225K\247\277GW\342\374D\253]\305\203j\325"
 402      50EB954B 
 402      A7BF4757 
 402      E2FC44AB 
 402      5DC5836A 
 403 0c8f 0244843B 		.ascii	"\002D\204;\313oY\244]\325\205\213\264\344\371\340c\361"
 403      CB6F59A4 
 403      5DD5858B 
 403      B4E4F9E0 
ARM GAS  /tmp/ccoP5Ehd.s 			page 31


 403      63F1
 404 0ca1 1B5D9A34 		.ascii	"\033]\2324\363\010\377\037!\011\244\351\320bH\307lw"
 404      F308FF1F 
 404      2109A4E9 
 404      D06248C7 
 404      6C77
 405 0cb3 398AED8E 		.ascii	"9\212\355\216\343\242.\262\343\370\027\224\305\351\301"
 405      E3A22EB2 
 405      E3F81794 
 405      C5E9C1
 406 0cc2 6561C620 		.ascii	"ea\306 \254\316\263\212\242W]\257\236\347J\024':\215"
 406      ACCEB38A 
 406      A2575DAF 
 406      9EE74A14 
 406      273A8D
 407 0cd5 218B632E 		.ascii	"!\213c. \011\363\206,\213\376Zs\222\177\3353^\251\011"
 407      2009F386 
 407      2C8BFE5A 
 407      73927FDD 
 407      335EA909 
 408 0ce9 EF4B75D5 		.ascii	"\357Ku\325\030\207\245\333n\260r\204\323\005]\313\277"
 408      1887A5DB 
 408      6EB07284 
 408      D3055DCB 
 408      BF
 409 0cfa 23A71556 		.ascii	"#\247\025V\373\214rN\211\005\317\356\2436\367\0215\243"
 409      FB8C724E 
 409      8905CFEE 
 409      A336F711 
 409      35A3
 410 0d0c 089E7DC9 		.ascii	"\010\236}\311O\"j\235\237D\321z,\027b\331\340w1\300"
 410      4F226A9D 
 410      9F44D17A 
 410      2C1762D9 
 410      E07731C0 
 411 0d20 FDD96F88 		.ascii	"\375\331o\210\034\363K\274\032\247Q\200\340\351\217"
 411      1CF34BBC 
 411      1AA75180 
 411      E0E98F
 412 0d2f D7F17730 		.ascii	"\327\361w0u\324\216TK\323lI\367+Y\363\253\245\376;\360"
 412      75D48E54 
 412      4BD36C49 
 412      F72B59F3 
 412      ABA5FE3B 
 413 0d44 CEF44506 		.ascii	"\316\364E\006Vq\"v\231?\363QvQ0s\363\250\316\301b+\007"
 413      56712276 
 413      993FF351 
 413      76513073 
 413      F3A8CEC1 
 414 0d5b 967E7328 		.ascii	"\226~s(\316^\320\263\014\202\256EA\317F\341\316\305"
 414      CE5ED0B3 
 414      0C82AE45 
 414      41CF46E1 
 414      CEC5
 415 0d6d 7289DF34 		.ascii	"r\211\3374h\255.\261\0047K4\361\254\346k\206\201\363"
 415      68AD2EB1 
 415      04374B34 
ARM GAS  /tmp/ccoP5Ehd.s 			page 32


 415      F1ACE66B 
 415      8681F3
 416 0d80 060E9C5F 		.ascii	"\006\016\234_\342`y\013\313\001,\253\3154l.\261\014"
 416      E260790B 
 416      CB012CAB 
 416      CD346C2E 
 416      B10C
 417 0d92 9C96718A 		.ascii	"\234\226q\212\336;oJ\246\267\324\177\030\250\226\225"
 417      DE3B6F4A 
 417      A6B7D47F 
 417      18A89695 
 418 0da2 C5A3B5BF 		.ascii	"\305\243\265\277\361{\335\012i\376\203>z\253\344\210"
 418      F17BDD0A 
 418      69FE833E 
 418      7AABE488 
 419 0db2 DA274F16 		.ascii	"\332'O\026\351a{\320\015\353\233\353?\037\213\351\376"
 419      E9617BD0 
 419      0DEB9BEB 
 419      3F1F8BE9 
 419      FE
 420 0dc3 6A0C54BB 		.ascii	"j\014T\273K<nW\343\352\2335P]\024J\325\247.\246\201"
 420      4B3C6E57 
 420      E3EA9B35 
 420      505D144A 
 420      D5A72EA6 
 421 0dd8 67E8F721 		.ascii	"g\350\367!\352\366\321A\354\277\305{\224\262Wi\213\301"
 421      EAF6D141 
 421      ECBFC57B 
 421      94B25769 
 421      8BC1
 422 0dea A0D6A141 		.ascii	"\240\326\241A\2557+\260\317*m\273\376\2322\216`\025"
 422      AD372BB0 
 422      CF2A6DBB 
 422      FE9A328E 
 422      6015
 423 0dfc 36F9785C 		.ascii	"6\371x\\\325\237\355\272\230O\203\030\227\221x\377\355"
 423      D59FEDBA 
 423      984F8318 
 423      979178FF 
 423      ED
 424 0e0d 1BAAC45F 		.ascii	"\033\252\304_E\211\327\216p\261\276f\302!\214m\262\025"
 424      4589D78E 
 424      70B1BE66 
 424      C2218C6D 
 424      B215
 425 0e1f F9265722 		.ascii	"\371&W\"\357\327D\256\356\230-B\0026\015y`\270,\220"
 425      EFD744AE 
 425      EE982D42 
 425      02360D79 
 425      60B82C90 
 426 0e33 E9858AB5 		.ascii	"\351\205\212\265\3143V\251Q\232\312\325\27493\362\265"
 426      CC3356A9 
 426      519ACAD5 
 426      BC3933F2 
 426      B5
 427 0e44 5DDEB556 		.ascii	"]\336\265V0\333\255\242\034\216\360\245\021m\263+\264"
 427      30DBADA2 
ARM GAS  /tmp/ccoP5Ehd.s 			page 33


 427      1C8EF0A5 
 427      116DB32B 
 427      B4
 428 0e55 52D7A6B5 		.ascii	"R\327\246\265\311`Z\233\321\264\266`\224j\303r+\226"
 428      C9605A9B 
 428      D1B4B660 
 428      946AC372 
 428      2B96
 429 0e67 DBCCC6B6 		.ascii	"\333\314\306\266s\204\305\330\314z\245\267/\347\260"
 429      7384C5D8 
 429      CC7AA5B7 
 429      2FE7B0
 430 0e76 B6D69E33 		.ascii	"\266\326\2363c\321\332\264\300\017V\242\376\311\211"
 430      63D1DAB4 
 430      C00F56A2 
 430      FEC989
 431 0e85 8658A2C1 		.ascii	"\206X\242\301\\g)\241;=G\376]\016\221\377{:']Y\234\230"
 431      5C6729A1 
 431      3B3D47FE 
 431      5D0E91FF 
 431      7B3A275D 
 432 0e9c FBA5F769 		.ascii	"\373\245\367i;V\354\305\331n\010\276o`\360\335\216\001"
 432      3B56ECC5 
 432      D96E08BE 
 432      6F60F0DD 
 432      8E01
 433 0eae F70096FD 		.ascii	"\367\000\226\375X\256B\2416c\271\001\313\035\026o\326"
 433      58AE42A1 
 433      3663B901 
 433      CB1D166F 
 433      D6
 434 0ebf 7D4923CB 		.ascii	"}I#\313\2740M:z\313\257/\230S!6\215_\\\254\376\265\021"
 434      BC304D3A 
 434      7ACBAF2F 
 434      98532136 
 434      8D5F5CAC 
 435 0ed6 6D35426B 		.ascii	"m5Bk\304\3216\273=\213\260\303A\204\254\271\353RK\317"
 435      C4D136BB 
 435      3D8BB0C3 
 435      4184ACB9 
 435      EB524BCF 
 436 0eea E3B47A01 		.ascii	"\343\264z\001\212\243x\356\371m\207\236\363i\317\364"
 436      8AA378EE 
 436      F96D879E 
 436      F369CFF4 
 437 0efa BF57E85F 		.ascii	"\277W\350_\327\363\002;\177s\255Lv\035\236_\245\324"
 437      D7F3023B 
 437      7F73AD4C 
 437      761D9E5F 
 437      A5D4
 438 0f0c F9DDAFA5 		.ascii	"\371\335\257\245\274\343\267\254\245t\341\237\031\230"
 438      BCE3B7AC 
 438      A574E19F 
 438      1998
 439 0f1a 7657E6DF 		.ascii	"vW\346\337a\263\273\262\352\016\312?\335\221<\0149 "
 439      61B3BBB2 
 439      EA0ECA3F 
ARM GAS  /tmp/ccoP5Ehd.s 			page 34


 439      DD913C0C 
 439      3920
 440 0f2c ABFDD5F4 		.ascii	"\253\375\325\364k\330b\217\337iO\222\256;\321m\261\376"
 440      6BD8628F 
 440      DF694F92 
 440      AE3BD16D 
 440      B1FE
 441 0f3e EADF8DD4 		.ascii	"\352\337\215\324\267\305H#\2235\355\365\233vE,\3533"
 441      B7C54823 
 441      9335EDF5 
 441      9B76452C 
 441      EB33
 442 0f50 64C7CD89 		.ascii	"d\307\315\211\267\3673)\232\245U\233\303 AZ\035pl\325"
 442      B7F73329 
 442      9AA5559B 
 442      C320415A 
 442      1D706CD5 
 443 0f64 94632DE8 		.ascii	"\224c-\350\003\307V-9ZugZ1c\242\221Ie\023*\"\223\"\277"
 443      03C7562D 
 443      395A7567 
 443      5A3163A2 
 443      91496513 
 444 0f7d 7D2AF4F0 		.ascii	"}*\364\360#\017=\374\320\230\262\262D\252L\224\312\222"
 444      230F3DFC 
 444      D098B2B2 
 444      44AA4C94 
 444      CA92
 445 0f8f 09514A95 		.ascii	"\011QJ\225=\366\373\211\023&>W\026\256\010'D"
 445      3DF6FB89 
 445      13263E57 
 445      16AE0827 
 445      44
 446 0fa0 21346D6C 		.ascii	"!4ml\354\241\012&H^\205\242\211\360\324\374\307\177"
 446      ECA10A26 
 446      485E85A2 
 446      89F0D4FC 
 446      C77F
 447 0fb2 F387D209 		.ascii	"\363\207\322\011L!>\250\214\223Gw\352/C\223\305D,\024"
 447      4C213EA8 
 447      8C934777 
 447      EA2F4393 
 447      C5442C14 
 448 0fc6 4989771B 		.ascii	"I\211w\033^\353\017\177\342\334sJ\014C\207)\211\227"
 448      5EEB0F7F 
 448      E2DC734A 
 448      0C438729 
 448      8997
 449 0fd8 520F8599 		.ascii	"R\017\205\231\302\020\336\205\"\361\210t\227~\037\026"
 449      C210DE85 
 449      22F18874 
 449      977E1F16 
 450 0fe8 053E2584 		.ascii	"\005>%\204\"\342\237\312\234\201\240Z\264\262\\ `\323"
 450      22E29FCA 
 450      9C81A05A 
 450      B4B25C20 
 450      60D3
 451 0ffa 53D2F4A4 		.ascii	"S\322\364\244\220\002"
ARM GAS  /tmp/ccoP5Ehd.s 			page 35


 451      9002
 452 1000 EA0BA40A 		.ascii	"\352\013\244\012h[\036\222\202\341\212\220z\377\240"
 452      685B1E92 
 452      82E18A90 
 452      7AFFA0
 453 100f 2B887045 		.ascii	"+\210pE94\317O\206\342\302s\022\\\222\2420\355Q\267"
 453      3934CF4F 
 453      86E2C273 
 453      125C92A2 
 453      30ED51B7 
 454 1023 F24BC492 		.ascii	"\362K\304\222\221\250 \246\312\036\2370\001\3004b\002"
 454      91A820A6 
 454      CA1E9F30 
 454      01C03462 
 454      02
 455 1034 52528C24 		.ascii	"RR\214$B\322w\313*S\242\336Y\\\250\"\270)\251<\022\227"
 455      42D277CB 
 455      2A53A2DE 
 455      595CA822 
 455      B829A93C 
 456 104a 08C99570 		.ascii	"\010\311\225p\375\371\317B\322?\331U\213\361\341\212"
 456      FDF9CF42 
 456      D23FD955 
 456      8BF1E18A 
 457 105a 485C280B 		.ascii	"H\\(\013\225\013\223\371\312\250\024\322\300\207\205"
 457      950B93F9 
 457      CAA814D2 
 457      C08785
 458 1069 425A4324 		.ascii	"BZC$7\222\010\204\023q\011\250\037\355I\355\000\245"
 458      37920884 
 458      137109A8 
 458      1FED49ED 
 458      00A5
 459 107b 6A18C0C2 		.ascii	"j\030\300\302\322s\005\2420\205\027c!\211\023\307p\342"
 459      D27305A2 
 459      30851763 
 459      218913C7 
 459      70E2
 460 108d 3F73E223 		.ascii	"?s\342#\2348\226\023\307q\342/|\342\303\243\341|\230"
 460      9C389613 
 460      C771E22F 
 460      7CE2C3A3 
 460      E17C98
 461 10a0 8B8A70F9 		.ascii	"\213\212p\371y^2\004\365\003DbU\202\010\327D\264\\\020"
 461      795E3204 
 461      F5034462 
 461      558208D7 
 461      44B45C10 
 462 10b4 FDE10A5E 		.ascii	"\375\341\012^$b\344c\302\260\2244\225\217F\246\304C"
 462      2462E463 
 462      C2B09434 
 462      958F46A6 
 462      C443
 463 10c6 1232F9C8 		.ascii	"\0222\371\310\230\220D\311\306\333$(|j4\022\213H\005"
 463      989044C9 
 463      C6DB2428 
 463      7C6A3412 
ARM GAS  /tmp/ccoP5Ehd.s 			page 36


 463      8B4805
 464 10d9 1251BD10 		.ascii	"\022Q\275\020\222\002\344\3458P\237Z\015\356\002I4\013"
 464      9202E4E5 
 464      38509F5A 
 464      0DEE0249 
 464      340B
 465 10eb 2120C512 		.ascii	"! \305\022\345\002\376\236\034\345\247\244\002\222("
 465      E502FE9E 
 465      1CE5A7A4 
 465      029228
 466 10fa 4C4E21F3 		.ascii	"LN!\363\344&/\226\232\002/\251D\240\271&\033\261|:\274"
 466      E4262F96 
 466      9A022FA9 
 466      44A0B926 
 466      1BB17C3A 
 467 110f 2A109E8B 		.ascii	"*\020\236\213Ha\000\310\257\222\022\223\376\230\274"
 467      486100C8 
 467      AF921293 
 467      FE98BC
 468 111e 93DA0934 		.ascii	"\223\332\0114\025D!\036\006\340\274*I\022\223E`7)!\306"
 468      1544211E 
 468      06E0BC2A 
 468      49129345 
 468      60372921 
 469 1133 272B4036 		.ascii	"'+@6\243\\\231\216@\334\246D\005L\205\376T)T\002\332"
 469      A35C998E 
 469      40DCA644 
 469      054C85FE 
 469      54295402 
 470 1148 08DDFEE8 		.ascii	"\010\335\376\350\243\000\275\346\205\343\240\304\274"
 470      A300BDE6 
 470      85E3A0C4 
 470      BC
 471 1155 5408AE40 		.ascii	"T\010\256@\014\264N\026@\335X%\250\316U\1771\3519b["
 471      0CB44E16 
 471      40DD5825 
 471      A8CE557F 
 471      31E93962 
 472 116a 310A1B0B 		.ascii	"1\012\033\013%\252\342 \177\004\000~c\252\005WIP/Y("
 472      25AAE220 
 472      7F04007E 
 472      63AA0557 
 472      49502F59 
 473 117f 4C13E252 		.ascii	"L\023\342R\214OM\2057B\025\271\361%C\225\305\032e\321"
 473      8C4F4D85 
 473      374215B9 
 473      F1254395 
 473      C51A65D1 
 474 1193 480A8829 		.ascii	"H\012\210)1\320J\236\004\223\241*>\"E\342S@E <\225n"
 474      31D04A9E 
 474      0493A12A 
 474      3E2245E2 
 474      53404520 
 475 11aa BC850742 		.ascii	"\274\205\007BR\210\203\351N\201Z\320\005\251?\214\250"
 475      528883E9 
 475      4E815AD0 
 475      05A93F8C 
ARM GAS  /tmp/ccoP5Ehd.s 			page 37


 475      A8
 476 11bb 808FA20D 		.ascii	"\200\217\242\015\302\303d\"\021\375\251\033N$\"\270"
 476      C2C36422 
 476      11FDA91B 
 476      4E2422B8 
 477 11cb 3BA5484C 		.ascii	";\245HL\010\305\300\341+E!&\020\341\004D\011\205\344"
 477      08C5C0E1 
 477      2B452126 
 477      10E10444 
 477      0985E4
 478 11de 9F24A440 		.ascii	"\237$\244@-\0111%\371\243|J\312\257\304\307l\274@\224"
 478      2D093125 
 478      F9A37C4A 
 478      CAAFC4C7 
 478      6CBC4094 
 479 11f2 B095342C 		.ascii	"\260\2254,\\\031\253\214\362Rd\232@\355$5\234F\021\260"
 479      5C19AB8C 
 479      F252649A 
 479      40ED2435 
 479      9C4611B0 
 480 1206 CD5455D8 		.ascii	"\315TU\330\027\227\222\276\204\224\374.}\012%\230:\355"
 480      179792BE 
 480      8494FC2E 
 480      7D0A2598 
 480      3AED
 481 1218 2D141623 		.ascii	"-\024\026#\200WQ~\277\3766\221\314z\231\243)D:\347\246"
 481      8057517E 
 481      BFFE3691 
 481      CC7A99A3 
 481      29443AE7 
 482 122d F0B2385C 		.ascii	"\360\2628\\\361\364\304\337N\372\243\020\226\236\204"
 482      F1F4C4DF 
 482      4EFAA310 
 482      969E84
 483 123c 00F71DF2 		.ascii	"\000\367\035\362sB\005\037\211O\314\260\373t\342\231"
 483      7342051F 
 483      894FCCB0 
 483      FB74E299 
 484 124c 82782212 		.ascii	"\202x\"\022\217\202\227\337C*<E\3721Tx\346n\365i\"i"
 484      8F8297DF 
 484      432A3C45 
 484      FA315478 
 484      E66EF569 
 485 1262 7C5848EC 		.ascii	"|XH\354\024\342\236\020Sc\235z_D\2248\235\252u8<\316"
 485      14E29E10 
 485      53639D7A 
 485      5F449438 
 485      9DAA7538 
 486 1278 FC0E88AA 		.ascii	"\374\016\210\252\301\344\213\030,\362D\364^\221z\257"
 486      C1E48B18 
 486      2CF244F4 
 486      5E917AAF 
 487 1288 A87A6F10 		.ascii	"\250zo\020\236V\212\340\020R\236H\032\3353-\"J\225|"
 487      9E568AE0 
 487      10529E48 
 487      1ADD332D 
 487      224A957C 
ARM GAS  /tmp/ccoP5Ehd.s 			page 38


 488 129c 3444C42D 		.ascii	"4D\304-j\366r/\000\333\274(1=S]\300\364(0MB\343$W\022"
 488      6AF6722F 
 488      00DBBC28 
 488      313D535D 
 488      C0F42830 
 489 12b6 5F838468 		.ascii	"_\203\204h\324c\001<)\027\242\022\0177\223+\343\341"
 489      D463013C 
 489      2917A212 
 489      0F37932B 
 489      E3E1
 490 12c8 10D62177 		.ascii	"\020\326!w\371\244./\026\302\205\230\000\251\016\217"
 490      F9A42E2F 
 490      16C28598 
 490      00A90E8F 
 491 12d8 4877C594 		.ascii	"Hw\305\224\375raR\345\024\325\210\215O\202I>\036\011"
 491      FD726152 
 491      E514D588 
 491      8D4F8249 
 491      3E1E09
 492 12eb 139B0D80 		.ascii	"\023\233\015\200&\210\267\025\340\020\0057\377\350\306"
 492      2688B715 
 492      E0100537 
 492      FFE8C6
 493 12fa 381104EC 		.ascii	"8\021\004\354\363\016\342\034\"\017\021bR\345\344\311"
 493      F30EE21C 
 493      220F1162 
 493      52E5E4C9 
 494 130a 84AF8034 		.ascii	"\204\257\2004)\224\212\374\217PLz\254\012\207\320\307"
 494      29948AFC 
 494      8F504C7A 
 494      AC0A87D0 
 494      C7
 495 131b E0318C58 		.ascii	"\3401\214X\204\274<rM\006\241TCM\001\334a\004\313\207"
 495      84BC3C72 
 495      4D06A154 
 495      434D01DC 
 495      6104CB87 
 496 132f 7649490C 		.ascii	"vII\014\302E\205*2\342\372\312'M\031\026\003\333P=q"
 496      C245852A 
 496      32E2FACA 
 496      274D1916 
 496      03DB503D 
 497 1344 84140B85 		.ascii	"\204\024\013\205!xN\022\301\272\023\020A\363\023\223"
 497      21784E12 
 497      C1BA1310 
 497      41F31393 
 498 1354 27A70489 		.ascii	"'\247\004\211\223b\256\310W\007\330\012\246x\252 \306"
 498      9362AEC8 
 498      5707D80A 
 498      A678AA20 
 498      C6
 499 1365 8528B552 		.ascii	"\205(\265R)/NF\325\2028u\217a1\335\314\265[\020V\221"
 499      292F4E46 
 499      D5823875 
 499      8F6131DD 
 499      CCB55B10 
 500 137b B14D71A4 		.ascii	"\261Mq\244<*\320\360\000a\201\013W\214u\350\0374[6a"
ARM GAS  /tmp/ccoP5Ehd.s 			page 39


 500      3C2AD0F0 
 500      0061810B 
 500      578C75E8 
 500      1F345B36 
 501 1390 E2534F3E 		.ascii	"\342SO>\225!\203\244\025\341\330\277\201\036\201\224"
 501      952183A4 
 501      15E1D8BF 
 501      811E8194 
 502 13a0 E12188AC 		.ascii	"\341!\210\254R\350W\217=\365\353\337\375\376\311\341"
 502      52E8578F 
 502      3DF5EBDF 
 502      FDFEC9E1 
 503 13b0 7CB48A9F 		.ascii	"|\264\212\237NF{b\371y\323\370h\245\360\177as\301\376"
 503      4E467B62 
 503      F979D3F8 
 503      68A5F07F 
 503      6173C1FE 
 504              		.text
 505              		.section	.gnu.lto_.symtab.e0ac6c2a37ec9ce2,"",%progbits
 506 0000 5F737461 		.ascii	"_stats_init\000\000\000\000\000\000\000\000\000\000"
 506      74735F69 
 506      6E697400 
 506      00000000 
 506      00000000 
 507 0015 0000AF00 		.ascii	"\000\000\257\000\000\000_stats_increase_irq\000\000"
 507      00005F73 
 507      74617473 
 507      5F696E63 
 507      72656173 
 508 0030 00000000 		.ascii	"\000\000\000\000\000\000\000\000\000\000\262\000\000"
 508      00000000 
 508      0000B200 
 508      00
 509 003d 005F7374 		.ascii	"\000_stats_ctxswc\000\000\000\000\000\000\000\000\000"
 509      6174735F 
 509      63747873 
 509      77630000 
 509      00000000 
 510 0054 000000B5 		.ascii	"\000\000\000\265\000\000\000_stats_start_measure_cr"
 510      0000005F 
 510      73746174 
 510      735F7374 
 510      6172745F 
 511 0072 69745F74 		.ascii	"it_thd\000\000\000\000\000\000\000\000\000\000\000\000"
 511      68640000 
 511      00000000 
 511      00000000 
 511      0000
 512 0084 93010000 		.ascii	"\223\001\000\000_stats_stop_measure_crit_thd\000\000"
 512      5F737461 
 512      74735F73 
 512      746F705F 
 512      6D656173 
 513 00a6 00000000 		.ascii	"\000\000\000\000\000\000\000\000\000\000\226\001\000"
 513      00000000 
 513      00009601 
 513      00
ARM GAS  /tmp/ccoP5Ehd.s 			page 40


 514 00b3 005F7374 		.ascii	"\000_stats_start_measure_crit_isr\000\000\000\000\000"
 514      6174735F 
 514      73746172 
 514      745F6D65 
 514      61737572 
 515 00d6 00000000 		.ascii	"\000\000\000\000\000\000\000\231\001\000\000_stats_"
 515      00000099 
 515      0100005F 
 515      73746174 
 515      735F
 516 00e8 73746F70 		.ascii	"stop_measure_crit_isr\000\000\000\000\000\000\000\000"
 516      5F6D6561 
 516      73757265 
 516      5F637269 
 516      745F6973 
 517 0105 00000000 		.ascii	"\000\000\000\000\234\001\000\000ch\000\000\002\000\000"
 517      9C010000 
 517      63680000 
 517      020000
 518 0114 00000000 		.ascii	"\000\000\000\000\000\000\000\261\001\000\000chTMObj"
 518      000000B1 
 518      01000063 
 518      68544D4F 
 518      626A
 519 0126 65637449 		.ascii	"ectInit\000\000\002\000\000\000\000\000\000\000\000"
 519      6E697400 
 519      00020000 
 519      00000000 
 519      0000
 520 0138 009F0100 		.ascii	"\000\237\001\000\000chTMChainMeasurementToX\000\000"
 520      00636854 
 520      4D436861 
 520      696E4D65 
 520      61737572 
 521 0156 02000000 		.ascii	"\002\000\000\000\000\000\000\000\000\000\244\001\000"
 521      00000000 
 521      0000A401 
 521      00
 522 0163 00636854 		.ascii	"\000chTMStartMeasurementX\000\000\002\000\000\000\000"
 522      4D537461 
 522      72744D65 
 522      61737572 
 522      656D656E 
 523 0180 00000000 		.ascii	"\000\000\000\000\000\253\001\000\000chTMStopMeasure"
 523      00AB0100 
 523      00636854 
 523      4D53746F 
 523      704D6561 
 524 0198 6D656E74 		.ascii	"mentX\000\000\002\000\000\000\000\000\000\000\000\000"
 524      58000002 
 524      00000000 
 524      00000000 
 524      00
 525 01a9 AE010000 		.ascii	"\256\001\000\000"
 526              		.text
 527              		.section	.gnu.lto_.opts,"",%progbits
 528 0000 272D6D63 		.ascii	"'-mcpu=cortex-m4' '-mno-thumb-interwork' '-mthumb' "
ARM GAS  /tmp/ccoP5Ehd.s 			page 41


 528      70753D63 
 528      6F727465 
 528      782D6D34 
 528      2720272D 
 529 0033 272D6767 		.ascii	"'-ggdb' '-O0' '-fomit-frame-pointer' '-falign-funct"
 529      64622720 
 529      272D4F30 
 529      2720272D 
 529      666F6D69 
 530 0066 696F6E73 		.ascii	"ions=16' '-ffunction-sections' '-fdata-sections' '-"
 530      3D313627 
 530      20272D66 
 530      66756E63 
 530      74696F6E 
 531 0099 666E6F2D 		.ascii	"fno-common' '-flto'\000"
 531      636F6D6D 
 531      6F6E2720 
 531      272D666C 
 531      746F2700 
 532              		.text
 533              		.cfi_sections	.debug_frame
 534              		.section	.text.port_lock,"ax",%progbits
 535              		.align	2
 536              		.p2align 4,,15
 537              		.thumb
 538              		.thumb_func
 539              		.type	port_lock, %function
 540              	port_lock:
 541              	.LFB127:
 542              		.file 1 "lib/ChibiOS_16.1.4//os/rt/ports/ARMCMx/chcore_v7m.h"
 543              		.loc 1 456 0
 544              		.cfi_startproc
 545              		@ args = 0, pretend = 0, frame = 8
 546              		@ frame_needed = 0, uses_anonymous_args = 0
 547              		@ link register save eliminated.
 548 0000 82B0     		sub	sp, sp, #8
 549              		.cfi_def_cfa_offset 8
 550 0002 2023     		movs	r3, #32
 551 0004 0193     		str	r3, [sp, #4]
 552              	.LBB6:
 553              	.LBB7:
 554              		.file 2 "lib/ChibiOS_16.1.4//os/ext/CMSIS/include/core_cmFunc.h"
 555              		.loc 2 548 0
 556 0006 019B     		ldr	r3, [sp, #4]
 557              	@ 548 "lib/ChibiOS_16.1.4//os/ext/CMSIS/include/core_cmFunc.h" 1
 558 0008 83F31188 		MSR basepri, r3
 559              	@ 0 "" 2
 560              		.thumb
 561              	.LBE7:
 562              	.LBE6:
 563              		.loc 1 473 0
 564 000c 02B0     		add	sp, sp, #8
 565              		@ sp needed
 566 000e 7047     		bx	lr
 567              		.cfi_endproc
 568              	.LFE127:
 569              		.size	port_lock, .-port_lock
ARM GAS  /tmp/ccoP5Ehd.s 			page 42


 570              		.section	.text.port_unlock,"ax",%progbits
 571              		.align	2
 572              		.p2align 4,,15
 573              		.thumb
 574              		.thumb_func
 575              		.type	port_unlock, %function
 576              	port_unlock:
 577              	.LFB128:
 578              		.loc 1 480 0
 579              		.cfi_startproc
 580              		@ args = 0, pretend = 0, frame = 8
 581              		@ frame_needed = 0, uses_anonymous_args = 0
 582              		@ link register save eliminated.
 583 0000 82B0     		sub	sp, sp, #8
 584              		.cfi_def_cfa_offset 8
 585 0002 0023     		movs	r3, #0
 586 0004 0193     		str	r3, [sp, #4]
 587              	.LBB8:
 588              	.LBB9:
 589              		.loc 2 548 0
 590 0006 019B     		ldr	r3, [sp, #4]
 591              	@ 548 "lib/ChibiOS_16.1.4//os/ext/CMSIS/include/core_cmFunc.h" 1
 592 0008 83F31188 		MSR basepri, r3
 593              	@ 0 "" 2
 594              		.thumb
 595              	.LBE9:
 596              	.LBE8:
 597              		.loc 1 487 0
 598 000c 02B0     		add	sp, sp, #8
 599              		@ sp needed
 600 000e 7047     		bx	lr
 601              		.cfi_endproc
 602              	.LFE128:
 603              		.size	port_unlock, .-port_unlock
 604              		.section	.text.port_lock_from_isr,"ax",%progbits
 605              		.align	2
 606              		.p2align 4,,15
 607              		.thumb
 608              		.thumb_func
 609              		.type	port_lock_from_isr, %function
 610              	port_lock_from_isr:
 611              	.LFB129:
 612              		.loc 1 495 0
 613              		.cfi_startproc
 614              		@ args = 0, pretend = 0, frame = 0
 615              		@ frame_needed = 0, uses_anonymous_args = 0
 616 0000 08B5     		push	{r3, lr}
 617              		.cfi_def_cfa_offset 8
 618              		.cfi_offset 3, -8
 619              		.cfi_offset 14, -4
 620              		.loc 1 497 0
 621 0002 FFF7FEFF 		bl	port_lock
 622              		.loc 1 498 0
 623 0006 08BD     		pop	{r3, pc}
 624              		.cfi_endproc
 625              	.LFE129:
 626              		.size	port_lock_from_isr, .-port_lock_from_isr
ARM GAS  /tmp/ccoP5Ehd.s 			page 43


 627 0008 AFF30080 		.section	.text.port_unlock_from_isr,"ax",%progbits
 627      AFF30080 
 628              		.align	2
 629              		.p2align 4,,15
 630              		.thumb
 631              		.thumb_func
 632              		.type	port_unlock_from_isr, %function
 633              	port_unlock_from_isr:
 634              	.LFB130:
 635              		.loc 1 506 0
 636              		.cfi_startproc
 637              		@ args = 0, pretend = 0, frame = 0
 638              		@ frame_needed = 0, uses_anonymous_args = 0
 639 0000 08B5     		push	{r3, lr}
 640              		.cfi_def_cfa_offset 8
 641              		.cfi_offset 3, -8
 642              		.cfi_offset 14, -4
 643              		.loc 1 508 0
 644 0002 FFF7FEFF 		bl	port_unlock
 645              		.loc 1 509 0
 646 0006 08BD     		pop	{r3, pc}
 647              		.cfi_endproc
 648              	.LFE130:
 649              		.size	port_unlock_from_isr, .-port_unlock_from_isr
 650 0008 AFF30080 		.section	.text._stats_init,"ax",%progbits
 650      AFF30080 
 651              		.align	2
 652              		.p2align 4,,15
 653              		.global	_stats_init
 654              		.thumb
 655              		.thumb_func
 656              		.type	_stats_init, %function
 657              	_stats_init:
 658              	.LFB241:
 659              		.file 3 "lib/ChibiOS_16.1.4//os/rt/src/chstats.c"
 660              		.loc 3 62 0
 661              		.cfi_startproc
 662              		@ args = 0, pretend = 0, frame = 0
 663              		@ frame_needed = 0, uses_anonymous_args = 0
 664 0000 08B5     		push	{r3, lr}
 665              		.cfi_def_cfa_offset 8
 666              		.cfi_offset 3, -8
 667              		.cfi_offset 14, -4
 668              		.loc 3 64 0
 669 0002 40F20003 		movw	r3, #:lower16:ch
 670 0006 C0F20003 		movt	r3, #:upper16:ch
 671 000a 0022     		movs	r2, #0
 672 000c C3F8A824 		str	r2, [r3, #1192]
 673              		.loc 3 65 0
 674 0010 40F20003 		movw	r3, #:lower16:ch
 675 0014 C0F20003 		movt	r3, #:upper16:ch
 676 0018 0022     		movs	r2, #0
 677 001a C3F8AC24 		str	r2, [r3, #1196]
 678              		.loc 3 66 0
 679 001e 0348     		ldr	r0, .L6
 680 0020 FFF7FEFF 		bl	chTMObjectInit
 681              		.loc 3 67 0
ARM GAS  /tmp/ccoP5Ehd.s 			page 44


 682 0024 0248     		ldr	r0, .L6+4
 683 0026 FFF7FEFF 		bl	chTMObjectInit
 684              		.loc 3 68 0
 685 002a 08BD     		pop	{r3, pc}
 686              	.L7:
 687              		.align	2
 688              	.L6:
 689 002c B0040000 		.word	ch+1200
 690 0030 C8040000 		.word	ch+1224
 691              		.cfi_endproc
 692              	.LFE241:
 693              		.size	_stats_init, .-_stats_init
 694 0034 AFF30080 		.section	.text._stats_increase_irq,"ax",%progbits
 694      AFF30080 
 694      AFF30080 
 695              		.align	2
 696              		.p2align 4,,15
 697              		.global	_stats_increase_irq
 698              		.thumb
 699              		.thumb_func
 700              		.type	_stats_increase_irq, %function
 701              	_stats_increase_irq:
 702              	.LFB242:
 703              		.loc 3 73 0
 704              		.cfi_startproc
 705              		@ args = 0, pretend = 0, frame = 0
 706              		@ frame_needed = 0, uses_anonymous_args = 0
 707 0000 08B5     		push	{r3, lr}
 708              		.cfi_def_cfa_offset 8
 709              		.cfi_offset 3, -8
 710              		.cfi_offset 14, -4
 711              		.loc 3 75 0
 712 0002 FFF7FEFF 		bl	port_lock_from_isr
 713              		.loc 3 76 0
 714 0006 40F20003 		movw	r3, #:lower16:ch
 715 000a C0F20003 		movt	r3, #:upper16:ch
 716 000e D3F8A834 		ldr	r3, [r3, #1192]
 717 0012 5A1C     		adds	r2, r3, #1
 718 0014 40F20003 		movw	r3, #:lower16:ch
 719 0018 C0F20003 		movt	r3, #:upper16:ch
 720 001c C3F8A824 		str	r2, [r3, #1192]
 721              		.loc 3 77 0
 722 0020 FFF7FEFF 		bl	port_unlock_from_isr
 723              		.loc 3 78 0
 724 0024 08BD     		pop	{r3, pc}
 725              		.cfi_endproc
 726              	.LFE242:
 727              		.size	_stats_increase_irq, .-_stats_increase_irq
 728 0026 00BFAFF3 		.section	.text._stats_ctxswc,"ax",%progbits
 728      0080AFF3 
 728      0080
 729              		.align	2
 730              		.p2align 4,,15
 731              		.global	_stats_ctxswc
 732              		.thumb
 733              		.thumb_func
 734              		.type	_stats_ctxswc, %function
ARM GAS  /tmp/ccoP5Ehd.s 			page 45


 735              	_stats_ctxswc:
 736              	.LFB243:
 737              		.loc 3 86 0
 738              		.cfi_startproc
 739              		@ args = 0, pretend = 0, frame = 8
 740              		@ frame_needed = 0, uses_anonymous_args = 0
 741 0000 00B5     		push	{lr}
 742              		.cfi_def_cfa_offset 4
 743              		.cfi_offset 14, -4
 744 0002 83B0     		sub	sp, sp, #12
 745              		.cfi_def_cfa_offset 16
 746 0004 0190     		str	r0, [sp, #4]
 747 0006 0091     		str	r1, [sp]
 748              		.loc 3 88 0
 749 0008 40F20003 		movw	r3, #:lower16:ch
 750 000c C0F20003 		movt	r3, #:upper16:ch
 751 0010 D3F8AC34 		ldr	r3, [r3, #1196]
 752 0014 5A1C     		adds	r2, r3, #1
 753 0016 40F20003 		movw	r3, #:lower16:ch
 754 001a C0F20003 		movt	r3, #:upper16:ch
 755 001e C3F8AC24 		str	r2, [r3, #1196]
 756              		.loc 3 89 0
 757 0022 009B     		ldr	r3, [sp]
 758 0024 03F14802 		add	r2, r3, #72
 759 0028 019B     		ldr	r3, [sp, #4]
 760 002a 4833     		adds	r3, r3, #72
 761 002c 1046     		mov	r0, r2
 762 002e 1946     		mov	r1, r3
 763 0030 FFF7FEFF 		bl	chTMChainMeasurementToX
 764              		.loc 3 90 0
 765 0034 03B0     		add	sp, sp, #12
 766              		@ sp needed
 767 0036 5DF804FB 		ldr	pc, [sp], #4
 768              		.cfi_endproc
 769              	.LFE243:
 770              		.size	_stats_ctxswc, .-_stats_ctxswc
 771 003a 00BFAFF3 		.section	.text._stats_start_measure_crit_thd,"ax",%progbits
 771      0080
 772              		.align	2
 773              		.p2align 4,,15
 774              		.global	_stats_start_measure_crit_thd
 775              		.thumb
 776              		.thumb_func
 777              		.type	_stats_start_measure_crit_thd, %function
 778              	_stats_start_measure_crit_thd:
 779              	.LFB244:
 780              		.loc 3 95 0
 781              		.cfi_startproc
 782              		@ args = 0, pretend = 0, frame = 0
 783              		@ frame_needed = 0, uses_anonymous_args = 0
 784 0000 08B5     		push	{r3, lr}
 785              		.cfi_def_cfa_offset 8
 786              		.cfi_offset 3, -8
 787              		.cfi_offset 14, -4
 788              		.loc 3 97 0
 789 0002 0248     		ldr	r0, .L11
 790 0004 FFF7FEFF 		bl	chTMStartMeasurementX
ARM GAS  /tmp/ccoP5Ehd.s 			page 46


 791              		.loc 3 98 0
 792 0008 08BD     		pop	{r3, pc}
 793              	.L12:
 794 000a 00BF     		.align	2
 795              	.L11:
 796 000c B0040000 		.word	ch+1200
 797              		.cfi_endproc
 798              	.LFE244:
 799              		.size	_stats_start_measure_crit_thd, .-_stats_start_measure_crit_thd
 800              		.section	.text._stats_stop_measure_crit_thd,"ax",%progbits
 801              		.align	2
 802              		.p2align 4,,15
 803              		.global	_stats_stop_measure_crit_thd
 804              		.thumb
 805              		.thumb_func
 806              		.type	_stats_stop_measure_crit_thd, %function
 807              	_stats_stop_measure_crit_thd:
 808              	.LFB245:
 809              		.loc 3 103 0
 810              		.cfi_startproc
 811              		@ args = 0, pretend = 0, frame = 0
 812              		@ frame_needed = 0, uses_anonymous_args = 0
 813 0000 08B5     		push	{r3, lr}
 814              		.cfi_def_cfa_offset 8
 815              		.cfi_offset 3, -8
 816              		.cfi_offset 14, -4
 817              		.loc 3 105 0
 818 0002 0248     		ldr	r0, .L14
 819 0004 FFF7FEFF 		bl	chTMStopMeasurementX
 820              		.loc 3 106 0
 821 0008 08BD     		pop	{r3, pc}
 822              	.L15:
 823 000a 00BF     		.align	2
 824              	.L14:
 825 000c B0040000 		.word	ch+1200
 826              		.cfi_endproc
 827              	.LFE245:
 828              		.size	_stats_stop_measure_crit_thd, .-_stats_stop_measure_crit_thd
 829              		.section	.text._stats_start_measure_crit_isr,"ax",%progbits
 830              		.align	2
 831              		.p2align 4,,15
 832              		.global	_stats_start_measure_crit_isr
 833              		.thumb
 834              		.thumb_func
 835              		.type	_stats_start_measure_crit_isr, %function
 836              	_stats_start_measure_crit_isr:
 837              	.LFB246:
 838              		.loc 3 111 0
 839              		.cfi_startproc
 840              		@ args = 0, pretend = 0, frame = 0
 841              		@ frame_needed = 0, uses_anonymous_args = 0
 842 0000 08B5     		push	{r3, lr}
 843              		.cfi_def_cfa_offset 8
 844              		.cfi_offset 3, -8
 845              		.cfi_offset 14, -4
 846              		.loc 3 113 0
 847 0002 0248     		ldr	r0, .L17
ARM GAS  /tmp/ccoP5Ehd.s 			page 47


 848 0004 FFF7FEFF 		bl	chTMStartMeasurementX
 849              		.loc 3 114 0
 850 0008 08BD     		pop	{r3, pc}
 851              	.L18:
 852 000a 00BF     		.align	2
 853              	.L17:
 854 000c C8040000 		.word	ch+1224
 855              		.cfi_endproc
 856              	.LFE246:
 857              		.size	_stats_start_measure_crit_isr, .-_stats_start_measure_crit_isr
 858              		.section	.text._stats_stop_measure_crit_isr,"ax",%progbits
 859              		.align	2
 860              		.p2align 4,,15
 861              		.global	_stats_stop_measure_crit_isr
 862              		.thumb
 863              		.thumb_func
 864              		.type	_stats_stop_measure_crit_isr, %function
 865              	_stats_stop_measure_crit_isr:
 866              	.LFB247:
 867              		.loc 3 119 0
 868              		.cfi_startproc
 869              		@ args = 0, pretend = 0, frame = 0
 870              		@ frame_needed = 0, uses_anonymous_args = 0
 871 0000 08B5     		push	{r3, lr}
 872              		.cfi_def_cfa_offset 8
 873              		.cfi_offset 3, -8
 874              		.cfi_offset 14, -4
 875              		.loc 3 121 0
 876 0002 0248     		ldr	r0, .L20
 877 0004 FFF7FEFF 		bl	chTMStopMeasurementX
 878              		.loc 3 122 0
 879 0008 08BD     		pop	{r3, pc}
 880              	.L21:
 881 000a 00BF     		.align	2
 882              	.L20:
 883 000c C8040000 		.word	ch+1224
 884              		.cfi_endproc
 885              	.LFE247:
 886              		.size	_stats_stop_measure_crit_isr, .-_stats_stop_measure_crit_isr
 887              		.text
 888              	.Letext0:
 889              		.file 4 "/usr/include/newlib/machine/_default_types.h"
 890              		.file 5 "/usr/include/newlib/stdint.h"
 891              		.file 6 "lib/ChibiOS_16.1.4//os/rt/ports/ARMCMx/compilers/GCC/chtypes.h"
 892              		.file 7 "lib/ChibiOS_16.1.4//os/rt/include/chsystypes.h"
 893              		.file 8 "lib/ChibiOS_16.1.4//os/rt/include/chschd.h"
 894              		.file 9 "lib/ChibiOS_16.1.4//os/rt/ports/ARMCMx/chcore.h"
 895              		.file 10 "lib/ChibiOS_16.1.4//os/rt/include/chdebug.h"
 896              		.file 11 "lib/ChibiOS_16.1.4//os/rt/include/chtm.h"
 897              		.file 12 "lib/ChibiOS_16.1.4//os/rt/include/chstats.h"
 898              		.file 13 "lib/ChibiOS_16.1.4//os/rt/include/chsem.h"
 899              		.file 14 "lib/ChibiOS_16.1.4//os/rt/include/chmtx.h"
 900              		.file 15 "lib/ChibiOS_16.1.4//os/ext/CMSIS/include/core_cm4.h"
 901              		.section	.debug_info,"",%progbits
 902              	.Ldebug_info0:
 903 0000 F8080000 		.4byte	0x8f8
 904 0004 0400     		.2byte	0x4
ARM GAS  /tmp/ccoP5Ehd.s 			page 48


 905 0006 00000000 		.4byte	.Ldebug_abbrev0
 906 000a 04       		.byte	0x4
 907 000b 01       		.uleb128 0x1
 908 000c A2020000 		.4byte	.LASF139
 909 0010 01       		.byte	0x1
 910 0011 E9050000 		.4byte	.LASF140
 911 0015 49010000 		.4byte	.LASF141
 912 0019 00000000 		.4byte	.Ldebug_ranges0+0
 913 001d 00000000 		.4byte	0
 914 0021 00000000 		.4byte	.Ldebug_line0
 915 0025 02       		.uleb128 0x2
 916 0026 04       		.byte	0x4
 917 0027 05       		.byte	0x5
 918 0028 696E7400 		.ascii	"int\000"
 919 002c 03       		.uleb128 0x3
 920 002d 04       		.byte	0x4
 921 002e 07       		.byte	0x7
 922 002f 25020000 		.4byte	.LASF0
 923 0033 03       		.uleb128 0x3
 924 0034 01       		.byte	0x1
 925 0035 06       		.byte	0x6
 926 0036 3D010000 		.4byte	.LASF1
 927 003a 04       		.uleb128 0x4
 928 003b 3F000000 		.4byte	.LASF5
 929 003f 04       		.byte	0x4
 930 0040 1C       		.byte	0x1c
 931 0041 45000000 		.4byte	0x45
 932 0045 03       		.uleb128 0x3
 933 0046 01       		.byte	0x1
 934 0047 08       		.byte	0x8
 935 0048 99040000 		.4byte	.LASF2
 936 004c 03       		.uleb128 0x3
 937 004d 02       		.byte	0x2
 938 004e 05       		.byte	0x5
 939 004f B1040000 		.4byte	.LASF3
 940 0053 03       		.uleb128 0x3
 941 0054 02       		.byte	0x2
 942 0055 07       		.byte	0x7
 943 0056 58020000 		.4byte	.LASF4
 944 005a 04       		.uleb128 0x4
 945 005b 66050000 		.4byte	.LASF6
 946 005f 04       		.byte	0x4
 947 0060 37       		.byte	0x37
 948 0061 65000000 		.4byte	0x65
 949 0065 03       		.uleb128 0x3
 950 0066 04       		.byte	0x4
 951 0067 05       		.byte	0x5
 952 0068 95010000 		.4byte	.LASF7
 953 006c 04       		.uleb128 0x4
 954 006d BF050000 		.4byte	.LASF8
 955 0071 04       		.byte	0x4
 956 0072 38       		.byte	0x38
 957 0073 77000000 		.4byte	0x77
 958 0077 03       		.uleb128 0x3
 959 0078 04       		.byte	0x4
 960 0079 07       		.byte	0x7
 961 007a 4F050000 		.4byte	.LASF9
ARM GAS  /tmp/ccoP5Ehd.s 			page 49


 962 007e 03       		.uleb128 0x3
 963 007f 08       		.byte	0x8
 964 0080 05       		.byte	0x5
 965 0081 2F010000 		.4byte	.LASF10
 966 0085 04       		.uleb128 0x4
 967 0086 41040000 		.4byte	.LASF11
 968 008a 04       		.byte	0x4
 969 008b 4E       		.byte	0x4e
 970 008c 90000000 		.4byte	0x90
 971 0090 03       		.uleb128 0x3
 972 0091 08       		.byte	0x8
 973 0092 07       		.byte	0x7
 974 0093 98000000 		.4byte	.LASF12
 975 0097 04       		.uleb128 0x4
 976 0098 69060000 		.4byte	.LASF13
 977 009c 05       		.byte	0x5
 978 009d 2A       		.byte	0x2a
 979 009e 3A000000 		.4byte	0x3a
 980 00a2 04       		.uleb128 0x4
 981 00a3 91040000 		.4byte	.LASF14
 982 00a7 05       		.byte	0x5
 983 00a8 41       		.byte	0x41
 984 00a9 5A000000 		.4byte	0x5a
 985 00ad 04       		.uleb128 0x4
 986 00ae 11050000 		.4byte	.LASF15
 987 00b2 05       		.byte	0x5
 988 00b3 42       		.byte	0x42
 989 00b4 6C000000 		.4byte	0x6c
 990 00b8 04       		.uleb128 0x4
 991 00b9 29000000 		.4byte	.LASF16
 992 00bd 05       		.byte	0x5
 993 00be 4E       		.byte	0x4e
 994 00bf 85000000 		.4byte	0x85
 995 00c3 04       		.uleb128 0x4
 996 00c4 19060000 		.4byte	.LASF17
 997 00c8 06       		.byte	0x6
 998 00c9 39       		.byte	0x39
 999 00ca AD000000 		.4byte	0xad
 1000 00ce 04       		.uleb128 0x4
 1001 00cf 1F010000 		.4byte	.LASF18
 1002 00d3 06       		.byte	0x6
 1003 00d4 3A       		.byte	0x3a
 1004 00d5 B8000000 		.4byte	0xb8
 1005 00d9 04       		.uleb128 0x4
 1006 00da 45030000 		.4byte	.LASF19
 1007 00de 06       		.byte	0x6
 1008 00df 3C       		.byte	0x3c
 1009 00e0 97000000 		.4byte	0x97
 1010 00e4 04       		.uleb128 0x4
 1011 00e5 9E010000 		.4byte	.LASF20
 1012 00e9 06       		.byte	0x6
 1013 00ea 3D       		.byte	0x3d
 1014 00eb 97000000 		.4byte	0x97
 1015 00ef 04       		.uleb128 0x4
 1016 00f0 57040000 		.4byte	.LASF21
 1017 00f4 06       		.byte	0x6
 1018 00f5 3E       		.byte	0x3e
ARM GAS  /tmp/ccoP5Ehd.s 			page 50


 1019 00f6 97000000 		.4byte	0x97
 1020 00fa 04       		.uleb128 0x4
 1021 00fb 80040000 		.4byte	.LASF22
 1022 00ff 06       		.byte	0x6
 1023 0100 40       		.byte	0x40
 1024 0101 AD000000 		.4byte	0xad
 1025 0105 04       		.uleb128 0x4
 1026 0106 84020000 		.4byte	.LASF23
 1027 010a 06       		.byte	0x6
 1028 010b 41       		.byte	0x41
 1029 010c A2000000 		.4byte	0xa2
 1030 0110 04       		.uleb128 0x4
 1031 0111 66030000 		.4byte	.LASF24
 1032 0115 06       		.byte	0x6
 1033 0116 43       		.byte	0x43
 1034 0117 AD000000 		.4byte	0xad
 1035 011b 04       		.uleb128 0x4
 1036 011c 14020000 		.4byte	.LASF25
 1037 0120 06       		.byte	0x6
 1038 0121 45       		.byte	0x45
 1039 0122 A2000000 		.4byte	0xa2
 1040 0126 04       		.uleb128 0x4
 1041 0127 8F020000 		.4byte	.LASF26
 1042 012b 06       		.byte	0x6
 1043 012c 46       		.byte	0x46
 1044 012d AD000000 		.4byte	0xad
 1045 0131 04       		.uleb128 0x4
 1046 0132 A1050000 		.4byte	.LASF27
 1047 0136 07       		.byte	0x7
 1048 0137 33       		.byte	0x33
 1049 0138 AD000000 		.4byte	0xad
 1050 013c 04       		.uleb128 0x4
 1051 013d 8C050000 		.4byte	.LASF28
 1052 0141 07       		.byte	0x7
 1053 0142 3F       		.byte	0x3f
 1054 0143 47010000 		.4byte	0x147
 1055 0147 05       		.uleb128 0x5
 1056 0148 7A020000 		.4byte	.LASF50
 1057 014c 60       		.byte	0x60
 1058 014d 08       		.byte	0x8
 1059 014e C2       		.byte	0xc2
 1060 014f 4D020000 		.4byte	0x24d
 1061 0153 06       		.uleb128 0x6
 1062 0154 D1040000 		.4byte	.LASF29
 1063 0158 08       		.byte	0x8
 1064 0159 C3       		.byte	0xc3
 1065 015a 58020000 		.4byte	0x258
 1066 015e 00       		.byte	0
 1067 015f 06       		.uleb128 0x6
 1068 0160 79040000 		.4byte	.LASF30
 1069 0164 08       		.byte	0x8
 1070 0165 C5       		.byte	0xc5
 1071 0166 58020000 		.4byte	0x258
 1072 016a 04       		.byte	0x4
 1073 016b 06       		.uleb128 0x6
 1074 016c 28010000 		.4byte	.LASF31
 1075 0170 08       		.byte	0x8
ARM GAS  /tmp/ccoP5Ehd.s 			page 51


 1076 0171 C7       		.byte	0xc7
 1077 0172 FA000000 		.4byte	0xfa
 1078 0176 08       		.byte	0x8
 1079 0177 06       		.uleb128 0x6
 1080 0178 F5060000 		.4byte	.LASF32
 1081 017c 08       		.byte	0x8
 1082 017d C8       		.byte	0xc8
 1083 017e C1040000 		.4byte	0x4c1
 1084 0182 0C       		.byte	0xc
 1085 0183 06       		.uleb128 0x6
 1086 0184 AD010000 		.4byte	.LASF33
 1087 0188 08       		.byte	0x8
 1088 0189 CA       		.byte	0xca
 1089 018a 58020000 		.4byte	0x258
 1090 018e 10       		.byte	0x10
 1091 018f 06       		.uleb128 0x6
 1092 0190 10040000 		.4byte	.LASF34
 1093 0194 08       		.byte	0x8
 1094 0195 CB       		.byte	0xcb
 1095 0196 58020000 		.4byte	0x258
 1096 019a 14       		.byte	0x14
 1097 019b 06       		.uleb128 0x6
 1098 019c 86060000 		.4byte	.LASF35
 1099 01a0 08       		.byte	0x8
 1100 01a1 D2       		.byte	0xd2
 1101 01a2 65070000 		.4byte	0x765
 1102 01a6 18       		.byte	0x18
 1103 01a7 06       		.uleb128 0x6
 1104 01a8 1A020000 		.4byte	.LASF36
 1105 01ac 08       		.byte	0x8
 1106 01ad D8       		.byte	0xd8
 1107 01ae 77070000 		.4byte	0x777
 1108 01b2 1C       		.byte	0x1c
 1109 01b3 06       		.uleb128 0x6
 1110 01b4 BB040000 		.4byte	.LASF37
 1111 01b8 08       		.byte	0x8
 1112 01b9 DD       		.byte	0xdd
 1113 01ba E4000000 		.4byte	0xe4
 1114 01be 20       		.byte	0x20
 1115 01bf 06       		.uleb128 0x6
 1116 01c0 D8040000 		.4byte	.LASF38
 1117 01c4 08       		.byte	0x8
 1118 01c5 E1       		.byte	0xe1
 1119 01c6 D9000000 		.4byte	0xd9
 1120 01ca 21       		.byte	0x21
 1121 01cb 06       		.uleb128 0x6
 1122 01cc 54060000 		.4byte	.LASF39
 1123 01d0 08       		.byte	0x8
 1124 01d1 E6       		.byte	0xe6
 1125 01d2 EF000000 		.4byte	0xef
 1126 01d6 22       		.byte	0x22
 1127 01d7 07       		.uleb128 0x7
 1128 01d8 705F7500 		.ascii	"p_u\000"
 1129 01dc 08       		.byte	0x8
 1130 01dd 3101     		.2byte	0x131
 1131 01df A0060000 		.4byte	0x6a0
 1132 01e3 24       		.byte	0x24
ARM GAS  /tmp/ccoP5Ehd.s 			page 52


 1133 01e4 08       		.uleb128 0x8
 1134 01e5 9B030000 		.4byte	.LASF40
 1135 01e9 08       		.byte	0x8
 1136 01ea 3601     		.2byte	0x136
 1137 01ec 5E020000 		.4byte	0x25e
 1138 01f0 28       		.byte	0x28
 1139 01f1 08       		.uleb128 0x8
 1140 01f2 41020000 		.4byte	.LASF41
 1141 01f6 08       		.byte	0x8
 1142 01f7 3C01     		.2byte	0x13c
 1143 01f9 82020000 		.4byte	0x282
 1144 01fd 2C       		.byte	0x2c
 1145 01fe 08       		.uleb128 0x8
 1146 01ff A9060000 		.4byte	.LASF42
 1147 0203 08       		.byte	0x8
 1148 0204 4001     		.2byte	0x140
 1149 0206 05010000 		.4byte	0x105
 1150 020a 34       		.byte	0x34
 1151 020b 08       		.uleb128 0x8
 1152 020c 06050000 		.4byte	.LASF43
 1153 0210 08       		.byte	0x8
 1154 0211 4601     		.2byte	0x146
 1155 0213 10010000 		.4byte	0x110
 1156 0217 38       		.byte	0x38
 1157 0218 08       		.uleb128 0x8
 1158 0219 A7040000 		.4byte	.LASF44
 1159 021d 08       		.byte	0x8
 1160 021e 4D01     		.2byte	0x14d
 1161 0220 5F070000 		.4byte	0x75f
 1162 0224 3C       		.byte	0x3c
 1163 0225 08       		.uleb128 0x8
 1164 0226 AB050000 		.4byte	.LASF45
 1165 022a 08       		.byte	0x8
 1166 022b 5101     		.2byte	0x151
 1167 022d FA000000 		.4byte	0xfa
 1168 0231 40       		.byte	0x40
 1169 0232 08       		.uleb128 0x8
 1170 0233 68010000 		.4byte	.LASF46
 1171 0237 08       		.byte	0x8
 1172 0238 5801     		.2byte	0x158
 1173 023a 35030000 		.4byte	0x335
 1174 023e 44       		.byte	0x44
 1175 023f 08       		.uleb128 0x8
 1176 0240 E0040000 		.4byte	.LASF47
 1177 0244 08       		.byte	0x8
 1178 0245 5E01     		.2byte	0x15e
 1179 0247 51060000 		.4byte	0x651
 1180 024b 48       		.byte	0x48
 1181 024c 00       		.byte	0
 1182 024d 04       		.uleb128 0x4
 1183 024e CB030000 		.4byte	.LASF48
 1184 0252 07       		.byte	0x7
 1185 0253 44       		.byte	0x44
 1186 0254 58020000 		.4byte	0x258
 1187 0258 09       		.uleb128 0x9
 1188 0259 04       		.byte	0x4
 1189 025a 3C010000 		.4byte	0x13c
ARM GAS  /tmp/ccoP5Ehd.s 			page 53


 1190 025e 04       		.uleb128 0x4
 1191 025f 8D060000 		.4byte	.LASF49
 1192 0263 07       		.byte	0x7
 1193 0264 49       		.byte	0x49
 1194 0265 69020000 		.4byte	0x269
 1195 0269 05       		.uleb128 0x5
 1196 026a 3F050000 		.4byte	.LASF51
 1197 026e 04       		.byte	0x4
 1198 026f 08       		.byte	0x8
 1199 0270 B0       		.byte	0xb0
 1200 0271 82020000 		.4byte	0x282
 1201 0275 06       		.uleb128 0x6
 1202 0276 D1040000 		.4byte	.LASF29
 1203 027a 08       		.byte	0x8
 1204 027b B1       		.byte	0xb1
 1205 027c 58020000 		.4byte	0x258
 1206 0280 00       		.byte	0
 1207 0281 00       		.byte	0
 1208 0282 04       		.uleb128 0x4
 1209 0283 3B060000 		.4byte	.LASF52
 1210 0287 07       		.byte	0x7
 1211 0288 50       		.byte	0x50
 1212 0289 8D020000 		.4byte	0x28d
 1213 028d 05       		.uleb128 0x5
 1214 028e 55000000 		.4byte	.LASF53
 1215 0292 08       		.byte	0x8
 1216 0293 08       		.byte	0x8
 1217 0294 B7       		.byte	0xb7
 1218 0295 B2020000 		.4byte	0x2b2
 1219 0299 06       		.uleb128 0x6
 1220 029a D1040000 		.4byte	.LASF29
 1221 029e 08       		.byte	0x8
 1222 029f B8       		.byte	0xb8
 1223 02a0 58020000 		.4byte	0x258
 1224 02a4 00       		.byte	0
 1225 02a5 06       		.uleb128 0x6
 1226 02a6 79040000 		.4byte	.LASF30
 1227 02aa 08       		.byte	0x8
 1228 02ab B9       		.byte	0xb9
 1229 02ac 58020000 		.4byte	0x258
 1230 02b0 04       		.byte	0x4
 1231 02b1 00       		.byte	0
 1232 02b2 04       		.uleb128 0x4
 1233 02b3 07000000 		.4byte	.LASF54
 1234 02b7 07       		.byte	0x7
 1235 02b8 57       		.byte	0x57
 1236 02b9 BD020000 		.4byte	0x2bd
 1237 02bd 0A       		.uleb128 0xa
 1238 02be 58030000 		.4byte	.LASF55
 1239 02c2 1C       		.byte	0x1c
 1240 02c3 08       		.byte	0x8
 1241 02c4 9001     		.2byte	0x190
 1242 02c6 19030000 		.4byte	0x319
 1243 02ca 08       		.uleb128 0x8
 1244 02cb 2E050000 		.4byte	.LASF56
 1245 02cf 08       		.byte	0x8
 1246 02d0 9101     		.2byte	0x191
ARM GAS  /tmp/ccoP5Ehd.s 			page 54


 1247 02d2 82020000 		.4byte	0x282
 1248 02d6 00       		.byte	0
 1249 02d7 08       		.uleb128 0x8
 1250 02d8 C3040000 		.4byte	.LASF57
 1251 02dc 08       		.byte	0x8
 1252 02dd 9201     		.2byte	0x192
 1253 02df FA000000 		.4byte	0xfa
 1254 02e3 08       		.byte	0x8
 1255 02e4 08       		.uleb128 0x8
 1256 02e5 18040000 		.4byte	.LASF58
 1257 02e9 08       		.byte	0x8
 1258 02ea 9401     		.2byte	0x194
 1259 02ec C1040000 		.4byte	0x4c1
 1260 02f0 0C       		.byte	0xc
 1261 02f1 08       		.uleb128 0x8
 1262 02f2 C5010000 		.4byte	.LASF59
 1263 02f6 08       		.byte	0x8
 1264 02f7 9701     		.2byte	0x197
 1265 02f9 58020000 		.4byte	0x258
 1266 02fd 10       		.byte	0x10
 1267 02fe 08       		.uleb128 0x8
 1268 02ff 39040000 		.4byte	.LASF60
 1269 0303 08       		.byte	0x8
 1270 0304 9801     		.2byte	0x198
 1271 0306 58020000 		.4byte	0x258
 1272 030a 14       		.byte	0x14
 1273 030b 08       		.uleb128 0x8
 1274 030c 2F040000 		.4byte	.LASF61
 1275 0310 08       		.byte	0x8
 1276 0311 9B01     		.2byte	0x19b
 1277 0313 58020000 		.4byte	0x258
 1278 0317 18       		.byte	0x18
 1279 0318 00       		.byte	0
 1280 0319 04       		.uleb128 0x4
 1281 031a B6050000 		.4byte	.LASF62
 1282 031e 07       		.byte	0x7
 1283 031f 5C       		.byte	0x5c
 1284 0320 24030000 		.4byte	0x324
 1285 0324 09       		.uleb128 0x9
 1286 0325 04       		.byte	0x4
 1287 0326 2A030000 		.4byte	0x32a
 1288 032a 0B       		.uleb128 0xb
 1289 032b 35030000 		.4byte	0x335
 1290 032f 0C       		.uleb128 0xc
 1291 0330 35030000 		.4byte	0x335
 1292 0334 00       		.byte	0
 1293 0335 0D       		.uleb128 0xd
 1294 0336 04       		.byte	0x4
 1295 0337 04       		.uleb128 0x4
 1296 0338 69040000 		.4byte	.LASF63
 1297 033c 07       		.byte	0x7
 1298 033d 61       		.byte	0x61
 1299 033e 42030000 		.4byte	0x342
 1300 0342 0A       		.uleb128 0xa
 1301 0343 E8040000 		.4byte	.LASF64
 1302 0347 14       		.byte	0x14
 1303 0348 08       		.byte	0x8
ARM GAS  /tmp/ccoP5Ehd.s 			page 55


 1304 0349 6B01     		.2byte	0x16b
 1305 034b 91030000 		.4byte	0x391
 1306 034f 08       		.uleb128 0x8
 1307 0350 32020000 		.4byte	.LASF65
 1308 0354 08       		.byte	0x8
 1309 0355 6C01     		.2byte	0x16c
 1310 0357 7D070000 		.4byte	0x77d
 1311 035b 00       		.byte	0
 1312 035c 08       		.uleb128 0x8
 1313 035d D6010000 		.4byte	.LASF66
 1314 0361 08       		.byte	0x8
 1315 0362 6D01     		.2byte	0x16d
 1316 0364 7D070000 		.4byte	0x77d
 1317 0368 04       		.byte	0x4
 1318 0369 08       		.uleb128 0x8
 1319 036a 36050000 		.4byte	.LASF67
 1320 036e 08       		.byte	0x8
 1321 036f 6E01     		.2byte	0x16e
 1322 0371 31010000 		.4byte	0x131
 1323 0375 08       		.byte	0x8
 1324 0376 08       		.uleb128 0x8
 1325 0377 FB060000 		.4byte	.LASF68
 1326 037b 08       		.byte	0x8
 1327 037c 6F01     		.2byte	0x16f
 1328 037e 19030000 		.4byte	0x319
 1329 0382 0C       		.byte	0xc
 1330 0383 08       		.uleb128 0x8
 1331 0384 34060000 		.4byte	.LASF69
 1332 0388 08       		.byte	0x8
 1333 0389 7101     		.2byte	0x171
 1334 038b 35030000 		.4byte	0x335
 1335 038f 10       		.byte	0x10
 1336 0390 00       		.byte	0
 1337 0391 04       		.uleb128 0x4
 1338 0392 FC000000 		.4byte	.LASF70
 1339 0396 07       		.byte	0x7
 1340 0397 66       		.byte	0x66
 1341 0398 9C030000 		.4byte	0x39c
 1342 039c 0A       		.uleb128 0xa
 1343 039d DE030000 		.4byte	.LASF71
 1344 03a1 10       		.byte	0x10
 1345 03a2 08       		.byte	0x8
 1346 03a3 7B01     		.2byte	0x17b
 1347 03a5 DE030000 		.4byte	0x3de
 1348 03a9 08       		.uleb128 0x8
 1349 03aa 32020000 		.4byte	.LASF65
 1350 03ae 08       		.byte	0x8
 1351 03af 7C01     		.2byte	0x17c
 1352 03b1 7D070000 		.4byte	0x77d
 1353 03b5 00       		.byte	0
 1354 03b6 08       		.uleb128 0x8
 1355 03b7 D6010000 		.4byte	.LASF66
 1356 03bb 08       		.byte	0x8
 1357 03bc 7E01     		.2byte	0x17e
 1358 03be 7D070000 		.4byte	0x77d
 1359 03c2 04       		.byte	0x4
 1360 03c3 08       		.uleb128 0x8
ARM GAS  /tmp/ccoP5Ehd.s 			page 56


 1361 03c4 36050000 		.4byte	.LASF67
 1362 03c8 08       		.byte	0x8
 1363 03c9 8001     		.2byte	0x180
 1364 03cb 31010000 		.4byte	0x131
 1365 03cf 08       		.byte	0x8
 1366 03d0 08       		.uleb128 0x8
 1367 03d1 04040000 		.4byte	.LASF72
 1368 03d5 08       		.byte	0x8
 1369 03d6 8801     		.2byte	0x188
 1370 03d8 31010000 		.4byte	0x131
 1371 03dc 0C       		.byte	0xc
 1372 03dd 00       		.byte	0
 1373 03de 04       		.uleb128 0x4
 1374 03df 66000000 		.4byte	.LASF73
 1375 03e3 07       		.byte	0x7
 1376 03e4 6B       		.byte	0x6b
 1377 03e5 E9030000 		.4byte	0x3e9
 1378 03e9 0E       		.uleb128 0xe
 1379 03ea DE010000 		.4byte	.LASF74
 1380 03ee 1404     		.2byte	0x414
 1381 03f0 08       		.byte	0x8
 1382 03f1 A201     		.2byte	0x1a2
 1383 03f3 2C040000 		.4byte	0x42c
 1384 03f7 08       		.uleb128 0x8
 1385 03f8 D8050000 		.4byte	.LASF75
 1386 03fc 08       		.byte	0x8
 1387 03fd AA01     		.2byte	0x1aa
 1388 03ff 83070000 		.4byte	0x783
 1389 0403 00       		.byte	0
 1390 0404 08       		.uleb128 0x8
 1391 0405 5B060000 		.4byte	.LASF76
 1392 0409 08       		.byte	0x8
 1393 040a AF01     		.2byte	0x1af
 1394 040c 1B010000 		.4byte	0x11b
 1395 0410 04       		.byte	0x4
 1396 0411 08       		.uleb128 0x8
 1397 0412 FC010000 		.4byte	.LASF77
 1398 0416 08       		.byte	0x8
 1399 0417 B301     		.2byte	0x1b3
 1400 0419 1B010000 		.4byte	0x11b
 1401 041d 08       		.byte	0x8
 1402 041e 08       		.uleb128 0x8
 1403 041f 9C060000 		.4byte	.LASF78
 1404 0423 08       		.byte	0x8
 1405 0424 B901     		.2byte	0x1b9
 1406 0426 E3050000 		.4byte	0x5e3
 1407 042a 0C       		.byte	0xc
 1408 042b 00       		.byte	0
 1409 042c 04       		.uleb128 0x4
 1410 042d 96020000 		.4byte	.LASF79
 1411 0431 07       		.byte	0x7
 1412 0432 70       		.byte	0x70
 1413 0433 37040000 		.4byte	0x437
 1414 0437 0E       		.uleb128 0xe
 1415 0438 8B010000 		.4byte	.LASF80
 1416 043c D805     		.2byte	0x5d8
 1417 043e 08       		.byte	0x8
ARM GAS  /tmp/ccoP5Ehd.s 			page 57


 1418 043f C201     		.2byte	0x1c2
 1419 0441 A4040000 		.4byte	0x4a4
 1420 0445 08       		.uleb128 0x8
 1421 0446 63060000 		.4byte	.LASF81
 1422 044a 08       		.byte	0x8
 1423 044b C601     		.2byte	0x1c6
 1424 044d B2020000 		.4byte	0x2b2
 1425 0451 00       		.byte	0
 1426 0452 08       		.uleb128 0x8
 1427 0453 78010000 		.4byte	.LASF82
 1428 0457 08       		.byte	0x8
 1429 0458 CA01     		.2byte	0x1ca
 1430 045a 91030000 		.4byte	0x391
 1431 045e 1C       		.byte	0x1c
 1432 045f 07       		.uleb128 0x7
 1433 0460 64626700 		.ascii	"dbg\000"
 1434 0464 08       		.byte	0x8
 1435 0465 CE01     		.2byte	0x1ce
 1436 0467 DE030000 		.4byte	0x3de
 1437 046b 2C       		.byte	0x2c
 1438 046c 0F       		.uleb128 0xf
 1439 046d D3000000 		.4byte	.LASF83
 1440 0471 08       		.byte	0x8
 1441 0472 D201     		.2byte	0x1d2
 1442 0474 3C010000 		.4byte	0x13c
 1443 0478 4004     		.2byte	0x440
 1444 047a 10       		.uleb128 0x10
 1445 047b 746D00   		.ascii	"tm\000"
 1446 047e 08       		.byte	0x8
 1447 047f D701     		.2byte	0x1d7
 1448 0481 03060000 		.4byte	0x603
 1449 0485 A004     		.2byte	0x4a0
 1450 0487 0F       		.uleb128 0xf
 1451 0488 32000000 		.4byte	.LASF84
 1452 048c 08       		.byte	0x8
 1453 048d DD01     		.2byte	0x1dd
 1454 048f 95060000 		.4byte	0x695
 1455 0493 A804     		.2byte	0x4a8
 1456 0495 0F       		.uleb128 0xf
 1457 0496 05020000 		.4byte	.LASF85
 1458 049a 08       		.byte	0x8
 1459 049b E301     		.2byte	0x1e3
 1460 049d 88070000 		.4byte	0x788
 1461 04a1 E004     		.2byte	0x4e0
 1462 04a3 00       		.byte	0
 1463 04a4 03       		.uleb128 0x3
 1464 04a5 04       		.byte	0x4
 1465 04a6 07       		.byte	0x7
 1466 04a7 C2030000 		.4byte	.LASF86
 1467 04ab 04       		.uleb128 0x4
 1468 04ac CD010000 		.4byte	.LASF87
 1469 04b0 09       		.byte	0x9
 1470 04b1 65       		.byte	0x65
 1471 04b2 35030000 		.4byte	0x335
 1472 04b6 04       		.uleb128 0x4
 1473 04b7 90030000 		.4byte	.LASF88
 1474 04bb 09       		.byte	0x9
ARM GAS  /tmp/ccoP5Ehd.s 			page 58


 1475 04bc 6D       		.byte	0x6d
 1476 04bd B8000000 		.4byte	0xb8
 1477 04c1 05       		.uleb128 0x5
 1478 04c2 11060000 		.4byte	.LASF89
 1479 04c6 04       		.byte	0x4
 1480 04c7 09       		.byte	0x9
 1481 04c8 89       		.byte	0x89
 1482 04c9 DA040000 		.4byte	0x4da
 1483 04cd 11       		.uleb128 0x11
 1484 04ce 72313300 		.ascii	"r13\000"
 1485 04d2 09       		.byte	0x9
 1486 04d3 8A       		.byte	0x8a
 1487 04d4 55050000 		.4byte	0x555
 1488 04d8 00       		.byte	0
 1489 04d9 00       		.byte	0
 1490 04da 05       		.uleb128 0x5
 1491 04db 49000000 		.4byte	.LASF90
 1492 04df 24       		.byte	0x24
 1493 04e0 01       		.byte	0x1
 1494 04e1 FD       		.byte	0xfd
 1495 04e2 55050000 		.4byte	0x555
 1496 04e6 07       		.uleb128 0x7
 1497 04e7 723400   		.ascii	"r4\000"
 1498 04ea 01       		.byte	0x1
 1499 04eb 1001     		.2byte	0x110
 1500 04ed AB040000 		.4byte	0x4ab
 1501 04f1 00       		.byte	0
 1502 04f2 07       		.uleb128 0x7
 1503 04f3 723500   		.ascii	"r5\000"
 1504 04f6 01       		.byte	0x1
 1505 04f7 1101     		.2byte	0x111
 1506 04f9 AB040000 		.4byte	0x4ab
 1507 04fd 04       		.byte	0x4
 1508 04fe 07       		.uleb128 0x7
 1509 04ff 723600   		.ascii	"r6\000"
 1510 0502 01       		.byte	0x1
 1511 0503 1201     		.2byte	0x112
 1512 0505 AB040000 		.4byte	0x4ab
 1513 0509 08       		.byte	0x8
 1514 050a 07       		.uleb128 0x7
 1515 050b 723700   		.ascii	"r7\000"
 1516 050e 01       		.byte	0x1
 1517 050f 1301     		.2byte	0x113
 1518 0511 AB040000 		.4byte	0x4ab
 1519 0515 0C       		.byte	0xc
 1520 0516 07       		.uleb128 0x7
 1521 0517 723800   		.ascii	"r8\000"
 1522 051a 01       		.byte	0x1
 1523 051b 1401     		.2byte	0x114
 1524 051d AB040000 		.4byte	0x4ab
 1525 0521 10       		.byte	0x10
 1526 0522 07       		.uleb128 0x7
 1527 0523 723900   		.ascii	"r9\000"
 1528 0526 01       		.byte	0x1
 1529 0527 1501     		.2byte	0x115
 1530 0529 AB040000 		.4byte	0x4ab
 1531 052d 14       		.byte	0x14
ARM GAS  /tmp/ccoP5Ehd.s 			page 59


 1532 052e 07       		.uleb128 0x7
 1533 052f 72313000 		.ascii	"r10\000"
 1534 0533 01       		.byte	0x1
 1535 0534 1601     		.2byte	0x116
 1536 0536 AB040000 		.4byte	0x4ab
 1537 053a 18       		.byte	0x18
 1538 053b 07       		.uleb128 0x7
 1539 053c 72313100 		.ascii	"r11\000"
 1540 0540 01       		.byte	0x1
 1541 0541 1701     		.2byte	0x117
 1542 0543 AB040000 		.4byte	0x4ab
 1543 0547 1C       		.byte	0x1c
 1544 0548 07       		.uleb128 0x7
 1545 0549 6C7200   		.ascii	"lr\000"
 1546 054c 01       		.byte	0x1
 1547 054d 1801     		.2byte	0x118
 1548 054f AB040000 		.4byte	0x4ab
 1549 0553 20       		.byte	0x20
 1550 0554 00       		.byte	0
 1551 0555 09       		.uleb128 0x9
 1552 0556 04       		.byte	0x4
 1553 0557 DA040000 		.4byte	0x4da
 1554 055b 12       		.uleb128 0x12
 1555 055c 10       		.byte	0x10
 1556 055d 0A       		.byte	0xa
 1557 055e 51       		.byte	0x51
 1558 055f 94050000 		.4byte	0x594
 1559 0563 06       		.uleb128 0x6
 1560 0564 14000000 		.4byte	.LASF91
 1561 0568 0A       		.byte	0xa
 1562 0569 55       		.byte	0x55
 1563 056a 31010000 		.4byte	0x131
 1564 056e 00       		.byte	0
 1565 056f 06       		.uleb128 0x6
 1566 0570 A7010000 		.4byte	.LASF92
 1567 0574 0A       		.byte	0xa
 1568 0575 59       		.byte	0x59
 1569 0576 58020000 		.4byte	0x258
 1570 057a 04       		.byte	0x4
 1571 057b 06       		.uleb128 0x6
 1572 057c EB060000 		.4byte	.LASF93
 1573 0580 0A       		.byte	0xa
 1574 0581 5D       		.byte	0x5d
 1575 0582 35030000 		.4byte	0x335
 1576 0586 08       		.byte	0x8
 1577 0587 06       		.uleb128 0x6
 1578 0588 C1000000 		.4byte	.LASF94
 1579 058c 0A       		.byte	0xa
 1580 058d 61       		.byte	0x61
 1581 058e 97000000 		.4byte	0x97
 1582 0592 0C       		.byte	0xc
 1583 0593 00       		.byte	0
 1584 0594 04       		.uleb128 0x4
 1585 0595 F5030000 		.4byte	.LASF95
 1586 0599 0A       		.byte	0xa
 1587 059a 62       		.byte	0x62
 1588 059b 5B050000 		.4byte	0x55b
ARM GAS  /tmp/ccoP5Ehd.s 			page 60


 1589 059f 13       		.uleb128 0x13
 1590 05a0 0804     		.2byte	0x408
 1591 05a2 0A       		.byte	0xa
 1592 05a3 67       		.byte	0x67
 1593 05a4 CD050000 		.4byte	0x5cd
 1594 05a8 06       		.uleb128 0x6
 1595 05a9 BD010000 		.4byte	.LASF96
 1596 05ad 0A       		.byte	0xa
 1597 05ae 6B       		.byte	0x6b
 1598 05af 2C000000 		.4byte	0x2c
 1599 05b3 00       		.byte	0
 1600 05b4 06       		.uleb128 0x6
 1601 05b5 00000000 		.4byte	.LASF97
 1602 05b9 0A       		.byte	0xa
 1603 05ba 6F       		.byte	0x6f
 1604 05bb CD050000 		.4byte	0x5cd
 1605 05bf 04       		.byte	0x4
 1606 05c0 06       		.uleb128 0x6
 1607 05c1 5F040000 		.4byte	.LASF98
 1608 05c5 0A       		.byte	0xa
 1609 05c6 73       		.byte	0x73
 1610 05c7 D3050000 		.4byte	0x5d3
 1611 05cb 08       		.byte	0x8
 1612 05cc 00       		.byte	0
 1613 05cd 09       		.uleb128 0x9
 1614 05ce 04       		.byte	0x4
 1615 05cf 94050000 		.4byte	0x594
 1616 05d3 14       		.uleb128 0x14
 1617 05d4 94050000 		.4byte	0x594
 1618 05d8 E3050000 		.4byte	0x5e3
 1619 05dc 15       		.uleb128 0x15
 1620 05dd A4040000 		.4byte	0x4a4
 1621 05e1 3F       		.byte	0x3f
 1622 05e2 00       		.byte	0
 1623 05e3 04       		.uleb128 0x4
 1624 05e4 AF000000 		.4byte	.LASF99
 1625 05e8 0A       		.byte	0xa
 1626 05e9 74       		.byte	0x74
 1627 05ea 9F050000 		.4byte	0x59f
 1628 05ee 12       		.uleb128 0x12
 1629 05ef 04       		.byte	0x4
 1630 05f0 0B       		.byte	0xb
 1631 05f1 38       		.byte	0x38
 1632 05f2 03060000 		.4byte	0x603
 1633 05f6 06       		.uleb128 0x6
 1634 05f7 E2050000 		.4byte	.LASF100
 1635 05fb 0B       		.byte	0xb
 1636 05fc 3C       		.byte	0x3c
 1637 05fd C3000000 		.4byte	0xc3
 1638 0601 00       		.byte	0
 1639 0602 00       		.byte	0
 1640 0603 04       		.uleb128 0x4
 1641 0604 1E040000 		.4byte	.LASF101
 1642 0608 0B       		.byte	0xb
 1643 0609 3D       		.byte	0x3d
 1644 060a EE050000 		.4byte	0x5ee
 1645 060e 12       		.uleb128 0x12
ARM GAS  /tmp/ccoP5Ehd.s 			page 61


 1646 060f 18       		.byte	0x18
 1647 0610 0B       		.byte	0xb
 1648 0611 48       		.byte	0x48
 1649 0612 51060000 		.4byte	0x651
 1650 0616 06       		.uleb128 0x6
 1651 0617 95050000 		.4byte	.LASF102
 1652 061b 0B       		.byte	0xb
 1653 061c 49       		.byte	0x49
 1654 061d C3000000 		.4byte	0xc3
 1655 0621 00       		.byte	0
 1656 0622 06       		.uleb128 0x6
 1657 0623 7F000000 		.4byte	.LASF103
 1658 0627 0B       		.byte	0xb
 1659 0628 4A       		.byte	0x4a
 1660 0629 C3000000 		.4byte	0xc3
 1661 062d 04       		.byte	0x4
 1662 062e 06       		.uleb128 0x6
 1663 062f 8A020000 		.4byte	.LASF104
 1664 0633 0B       		.byte	0xb
 1665 0634 4B       		.byte	0x4b
 1666 0635 C3000000 		.4byte	0xc3
 1667 0639 08       		.byte	0x8
 1668 063a 11       		.uleb128 0x11
 1669 063b 6E00     		.ascii	"n\000"
 1670 063d 0B       		.byte	0xb
 1671 063e 4C       		.byte	0x4c
 1672 063f 26010000 		.4byte	0x126
 1673 0643 0C       		.byte	0xc
 1674 0644 06       		.uleb128 0x6
 1675 0645 4C040000 		.4byte	.LASF105
 1676 0649 0B       		.byte	0xb
 1677 064a 4D       		.byte	0x4d
 1678 064b CE000000 		.4byte	0xce
 1679 064f 10       		.byte	0x10
 1680 0650 00       		.byte	0
 1681 0651 04       		.uleb128 0x4
 1682 0652 85000000 		.4byte	.LASF106
 1683 0656 0B       		.byte	0xb
 1684 0657 4E       		.byte	0x4e
 1685 0658 0E060000 		.4byte	0x60e
 1686 065c 12       		.uleb128 0x12
 1687 065d 38       		.byte	0x38
 1688 065e 0C       		.byte	0xc
 1689 065f 38       		.byte	0x38
 1690 0660 95060000 		.4byte	0x695
 1691 0664 06       		.uleb128 0x6
 1692 0665 4C020000 		.4byte	.LASF107
 1693 0669 0C       		.byte	0xc
 1694 066a 39       		.byte	0x39
 1695 066b 26010000 		.4byte	0x126
 1696 066f 00       		.byte	0
 1697 0670 06       		.uleb128 0x6
 1698 0671 88040000 		.4byte	.LASF108
 1699 0675 0C       		.byte	0xc
 1700 0676 3A       		.byte	0x3a
 1701 0677 26010000 		.4byte	0x126
 1702 067b 04       		.byte	0x4
ARM GAS  /tmp/ccoP5Ehd.s 			page 62


 1703 067c 06       		.uleb128 0x6
 1704 067d D8060000 		.4byte	.LASF109
 1705 0681 0C       		.byte	0xc
 1706 0682 3B       		.byte	0x3b
 1707 0683 51060000 		.4byte	0x651
 1708 0687 08       		.byte	0x8
 1709 0688 06       		.uleb128 0x6
 1710 0689 4D030000 		.4byte	.LASF110
 1711 068d 0C       		.byte	0xc
 1712 068e 3D       		.byte	0x3d
 1713 068f 51060000 		.4byte	0x651
 1714 0693 20       		.byte	0x20
 1715 0694 00       		.byte	0
 1716 0695 04       		.uleb128 0x4
 1717 0696 6B020000 		.4byte	.LASF111
 1718 069a 0C       		.byte	0xc
 1719 069b 3F       		.byte	0x3f
 1720 069c 5C060000 		.4byte	0x65c
 1721 06a0 16       		.uleb128 0x16
 1722 06a1 04       		.byte	0x4
 1723 06a2 08       		.byte	0x8
 1724 06a3 FA       		.byte	0xfa
 1725 06a4 FD060000 		.4byte	0x6fd
 1726 06a8 17       		.uleb128 0x17
 1727 06a9 22000000 		.4byte	.LASF112
 1728 06ad 08       		.byte	0x8
 1729 06ae 0101     		.2byte	0x101
 1730 06b0 05010000 		.4byte	0x105
 1731 06b4 17       		.uleb128 0x17
 1732 06b5 CA000000 		.4byte	.LASF113
 1733 06b9 08       		.byte	0x8
 1734 06ba 0801     		.2byte	0x108
 1735 06bc 05010000 		.4byte	0x105
 1736 06c0 17       		.uleb128 0x17
 1737 06c1 7F060000 		.4byte	.LASF114
 1738 06c5 08       		.byte	0x8
 1739 06c6 0F01     		.2byte	0x10f
 1740 06c8 35030000 		.4byte	0x335
 1741 06cc 17       		.uleb128 0x17
 1742 06cd 1C000000 		.4byte	.LASF115
 1743 06d1 08       		.byte	0x8
 1744 06d2 1601     		.2byte	0x116
 1745 06d4 FD060000 		.4byte	0x6fd
 1746 06d8 17       		.uleb128 0x17
 1747 06d9 3A020000 		.4byte	.LASF116
 1748 06dd 08       		.byte	0x8
 1749 06de 1E01     		.2byte	0x11e
 1750 06e0 28070000 		.4byte	0x728
 1751 06e4 17       		.uleb128 0x17
 1752 06e5 70050000 		.4byte	.LASF117
 1753 06e9 08       		.byte	0x8
 1754 06ea 2701     		.2byte	0x127
 1755 06ec 5F070000 		.4byte	0x75f
 1756 06f0 17       		.uleb128 0x17
 1757 06f1 CA040000 		.4byte	.LASF118
 1758 06f5 08       		.byte	0x8
 1759 06f6 2F01     		.2byte	0x12f
ARM GAS  /tmp/ccoP5Ehd.s 			page 63


 1760 06f8 10010000 		.4byte	0x110
 1761 06fc 00       		.byte	0
 1762 06fd 09       		.uleb128 0x9
 1763 06fe 04       		.byte	0x4
 1764 06ff 4D020000 		.4byte	0x24d
 1765 0703 05       		.uleb128 0x5
 1766 0704 F9040000 		.4byte	.LASF119
 1767 0708 0C       		.byte	0xc
 1768 0709 0D       		.byte	0xd
 1769 070a 34       		.byte	0x34
 1770 070b 28070000 		.4byte	0x728
 1771 070f 06       		.uleb128 0x6
 1772 0710 B5010000 		.4byte	.LASF120
 1773 0714 0D       		.byte	0xd
 1774 0715 35       		.byte	0x35
 1775 0716 82020000 		.4byte	0x282
 1776 071a 00       		.byte	0
 1777 071b 06       		.uleb128 0x6
 1778 071c 52020000 		.4byte	.LASF121
 1779 0720 0D       		.byte	0xd
 1780 0721 37       		.byte	0x37
 1781 0722 1B010000 		.4byte	0x11b
 1782 0726 08       		.byte	0x8
 1783 0727 00       		.byte	0
 1784 0728 09       		.uleb128 0x9
 1785 0729 04       		.byte	0x4
 1786 072a 03070000 		.4byte	0x703
 1787 072e 05       		.uleb128 0x5
 1788 072f 4B060000 		.4byte	.LASF122
 1789 0733 10       		.byte	0x10
 1790 0734 0E       		.byte	0xe
 1791 0735 39       		.byte	0x39
 1792 0736 5F070000 		.4byte	0x75f
 1793 073a 06       		.uleb128 0x6
 1794 073b 70010000 		.4byte	.LASF123
 1795 073f 0E       		.byte	0xe
 1796 0740 3A       		.byte	0x3a
 1797 0741 82020000 		.4byte	0x282
 1798 0745 00       		.byte	0
 1799 0746 06       		.uleb128 0x6
 1800 0747 E3060000 		.4byte	.LASF124
 1801 074b 0E       		.byte	0xe
 1802 074c 3C       		.byte	0x3c
 1803 074d 58020000 		.4byte	0x258
 1804 0751 08       		.byte	0x8
 1805 0752 06       		.uleb128 0x6
 1806 0753 9A050000 		.4byte	.LASF125
 1807 0757 0E       		.byte	0xe
 1808 0758 3E       		.byte	0x3e
 1809 0759 A3070000 		.4byte	0x7a3
 1810 075d 0C       		.byte	0xc
 1811 075e 00       		.byte	0
 1812 075f 09       		.uleb128 0x9
 1813 0760 04       		.byte	0x4
 1814 0761 2E070000 		.4byte	0x72e
 1815 0765 09       		.uleb128 0x9
 1816 0766 04       		.byte	0x4
ARM GAS  /tmp/ccoP5Ehd.s 			page 64


 1817 0767 6B070000 		.4byte	0x76b
 1818 076b 18       		.uleb128 0x18
 1819 076c 70070000 		.4byte	0x770
 1820 0770 03       		.uleb128 0x3
 1821 0771 01       		.byte	0x1
 1822 0772 08       		.byte	0x8
 1823 0773 61050000 		.4byte	.LASF126
 1824 0777 09       		.uleb128 0x9
 1825 0778 04       		.byte	0x4
 1826 0779 B6040000 		.4byte	0x4b6
 1827 077d 09       		.uleb128 0x9
 1828 077e 04       		.byte	0x4
 1829 077f 37030000 		.4byte	0x337
 1830 0783 19       		.uleb128 0x19
 1831 0784 65070000 		.4byte	0x765
 1832 0788 14       		.uleb128 0x14
 1833 0789 B6040000 		.4byte	0x4b6
 1834 078d 98070000 		.4byte	0x798
 1835 0791 15       		.uleb128 0x15
 1836 0792 A4040000 		.4byte	0x4a4
 1837 0796 1E       		.byte	0x1e
 1838 0797 00       		.byte	0
 1839 0798 04       		.uleb128 0x4
 1840 0799 EE010000 		.4byte	.LASF127
 1841 079d 0E       		.byte	0xe
 1842 079e 34       		.byte	0x34
 1843 079f 2E070000 		.4byte	0x72e
 1844 07a3 09       		.uleb128 0x9
 1845 07a4 04       		.byte	0x4
 1846 07a5 98070000 		.4byte	0x798
 1847 07a9 1A       		.uleb128 0x1a
 1848 07aa CA050000 		.4byte	.LASF142
 1849 07ae 02       		.byte	0x2
 1850 07af 2202     		.2byte	0x222
 1851 07b1 03       		.byte	0x3
 1852 07b2 C3070000 		.4byte	0x7c3
 1853 07b6 1B       		.uleb128 0x1b
 1854 07b7 F6010000 		.4byte	.LASF143
 1855 07bb 02       		.byte	0x2
 1856 07bc 2202     		.2byte	0x222
 1857 07be AD000000 		.4byte	0xad
 1858 07c2 00       		.byte	0
 1859 07c3 1C       		.uleb128 0x1c
 1860 07c4 75000000 		.4byte	.LASF128
 1861 07c8 01       		.byte	0x1
 1862 07c9 C801     		.2byte	0x1c8
 1863 07cb 00000000 		.4byte	.LFB127
 1864 07cf 10000000 		.4byte	.LFE127-.LFB127
 1865 07d3 01       		.uleb128 0x1
 1866 07d4 9C       		.byte	0x9c
 1867 07d5 F3070000 		.4byte	0x7f3
 1868 07d9 1D       		.uleb128 0x1d
 1869 07da A9070000 		.4byte	0x7a9
 1870 07de 06000000 		.4byte	.LBB6
 1871 07e2 06000000 		.4byte	.LBE6-.LBB6
 1872 07e6 01       		.byte	0x1
 1873 07e7 D001     		.2byte	0x1d0
ARM GAS  /tmp/ccoP5Ehd.s 			page 65


 1874 07e9 1E       		.uleb128 0x1e
 1875 07ea B6070000 		.4byte	0x7b6
 1876 07ee 02       		.uleb128 0x2
 1877 07ef 91       		.byte	0x91
 1878 07f0 7C       		.sleb128 -4
 1879 07f1 00       		.byte	0
 1880 07f2 00       		.byte	0
 1881 07f3 1C       		.uleb128 0x1c
 1882 07f4 7F010000 		.4byte	.LASF129
 1883 07f8 01       		.byte	0x1
 1884 07f9 E001     		.2byte	0x1e0
 1885 07fb 00000000 		.4byte	.LFB128
 1886 07ff 10000000 		.4byte	.LFE128-.LFB128
 1887 0803 01       		.uleb128 0x1
 1888 0804 9C       		.byte	0x9c
 1889 0805 23080000 		.4byte	0x823
 1890 0809 1D       		.uleb128 0x1d
 1891 080a A9070000 		.4byte	0x7a9
 1892 080e 06000000 		.4byte	.LBB8
 1893 0812 06000000 		.4byte	.LBE8-.LBB8
 1894 0816 01       		.byte	0x1
 1895 0817 E301     		.2byte	0x1e3
 1896 0819 1E       		.uleb128 0x1e
 1897 081a B6070000 		.4byte	0x7b6
 1898 081e 02       		.uleb128 0x2
 1899 081f 91       		.byte	0x91
 1900 0820 7C       		.sleb128 -4
 1901 0821 00       		.byte	0
 1902 0822 00       		.byte	0
 1903 0823 1F       		.uleb128 0x1f
 1904 0824 21060000 		.4byte	.LASF130
 1905 0828 01       		.byte	0x1
 1906 0829 EF01     		.2byte	0x1ef
 1907 082b 00000000 		.4byte	.LFB129
 1908 082f 08000000 		.4byte	.LFE129-.LFB129
 1909 0833 01       		.uleb128 0x1
 1910 0834 9C       		.byte	0x9c
 1911 0835 1F       		.uleb128 0x1f
 1912 0836 77050000 		.4byte	.LASF131
 1913 083a 01       		.byte	0x1
 1914 083b FA01     		.2byte	0x1fa
 1915 083d 00000000 		.4byte	.LFB130
 1916 0841 08000000 		.4byte	.LFE130-.LFB130
 1917 0845 01       		.uleb128 0x1
 1918 0846 9C       		.byte	0x9c
 1919 0847 20       		.uleb128 0x20
 1920 0848 AF060000 		.4byte	.LASF132
 1921 084c 03       		.byte	0x3
 1922 084d 3E       		.byte	0x3e
 1923 084e 00000000 		.4byte	.LFB241
 1924 0852 34000000 		.4byte	.LFE241-.LFB241
 1925 0856 01       		.uleb128 0x1
 1926 0857 9C       		.byte	0x9c
 1927 0858 20       		.uleb128 0x20
 1928 0859 1A050000 		.4byte	.LASF133
 1929 085d 03       		.byte	0x3
 1930 085e 49       		.byte	0x49
ARM GAS  /tmp/ccoP5Ehd.s 			page 66


 1931 085f 00000000 		.4byte	.LFB242
 1932 0863 26000000 		.4byte	.LFE242-.LFB242
 1933 0867 01       		.uleb128 0x1
 1934 0868 9C       		.byte	0x9c
 1935 0869 21       		.uleb128 0x21
 1936 086a 71060000 		.4byte	.LASF144
 1937 086e 03       		.byte	0x3
 1938 086f 56       		.byte	0x56
 1939 0870 00000000 		.4byte	.LFB243
 1940 0874 3A000000 		.4byte	.LFE243-.LFB243
 1941 0878 01       		.uleb128 0x1
 1942 0879 9C       		.byte	0x9c
 1943 087a 9B080000 		.4byte	0x89b
 1944 087e 22       		.uleb128 0x22
 1945 087f 6E747000 		.ascii	"ntp\000"
 1946 0883 03       		.byte	0x3
 1947 0884 56       		.byte	0x56
 1948 0885 58020000 		.4byte	0x258
 1949 0889 02       		.uleb128 0x2
 1950 088a 91       		.byte	0x91
 1951 088b 74       		.sleb128 -12
 1952 088c 22       		.uleb128 0x22
 1953 088d 6F747000 		.ascii	"otp\000"
 1954 0891 03       		.byte	0x3
 1955 0892 56       		.byte	0x56
 1956 0893 58020000 		.4byte	0x258
 1957 0897 02       		.uleb128 0x2
 1958 0898 91       		.byte	0x91
 1959 0899 70       		.sleb128 -16
 1960 089a 00       		.byte	0
 1961 089b 20       		.uleb128 0x20
 1962 089c DE000000 		.4byte	.LASF134
 1963 08a0 03       		.byte	0x3
 1964 08a1 5F       		.byte	0x5f
 1965 08a2 00000000 		.4byte	.LFB244
 1966 08a6 10000000 		.4byte	.LFE244-.LFB244
 1967 08aa 01       		.uleb128 0x1
 1968 08ab 9C       		.byte	0x9c
 1969 08ac 20       		.uleb128 0x20
 1970 08ad A5030000 		.4byte	.LASF135
 1971 08b1 03       		.byte	0x3
 1972 08b2 67       		.byte	0x67
 1973 08b3 00000000 		.4byte	.LFB245
 1974 08b7 10000000 		.4byte	.LFE245-.LFB245
 1975 08bb 01       		.uleb128 0x1
 1976 08bc 9C       		.byte	0x9c
 1977 08bd 20       		.uleb128 0x20
 1978 08be 72030000 		.4byte	.LASF136
 1979 08c2 03       		.byte	0x3
 1980 08c3 6F       		.byte	0x6f
 1981 08c4 00000000 		.4byte	.LFB246
 1982 08c8 10000000 		.4byte	.LFE246-.LFB246
 1983 08cc 01       		.uleb128 0x1
 1984 08cd 9C       		.byte	0x9c
 1985 08ce 20       		.uleb128 0x20
 1986 08cf BB060000 		.4byte	.LASF137
 1987 08d3 03       		.byte	0x3
ARM GAS  /tmp/ccoP5Ehd.s 			page 67


 1988 08d4 77       		.byte	0x77
 1989 08d5 00000000 		.4byte	.LFB247
 1990 08d9 10000000 		.4byte	.LFE247-.LFB247
 1991 08dd 01       		.uleb128 0x1
 1992 08de 9C       		.byte	0x9c
 1993 08df 23       		.uleb128 0x23
 1994 08e0 12010000 		.4byte	.LASF138
 1995 08e4 0F       		.byte	0xf
 1996 08e5 FA06     		.2byte	0x6fa
 1997 08e7 EB080000 		.4byte	0x8eb
 1998 08eb 19       		.uleb128 0x19
 1999 08ec A2000000 		.4byte	0xa2
 2000 08f0 24       		.uleb128 0x24
 2001 08f1 636800   		.ascii	"ch\000"
 2002 08f4 08       		.byte	0x8
 2003 08f5 0902     		.2byte	0x209
 2004 08f7 2C040000 		.4byte	0x42c
 2005 08fb 00       		.byte	0
 2006              		.section	.debug_abbrev,"",%progbits
 2007              	.Ldebug_abbrev0:
 2008 0000 01       		.uleb128 0x1
 2009 0001 11       		.uleb128 0x11
 2010 0002 01       		.byte	0x1
 2011 0003 25       		.uleb128 0x25
 2012 0004 0E       		.uleb128 0xe
 2013 0005 13       		.uleb128 0x13
 2014 0006 0B       		.uleb128 0xb
 2015 0007 03       		.uleb128 0x3
 2016 0008 0E       		.uleb128 0xe
 2017 0009 1B       		.uleb128 0x1b
 2018 000a 0E       		.uleb128 0xe
 2019 000b 55       		.uleb128 0x55
 2020 000c 17       		.uleb128 0x17
 2021 000d 11       		.uleb128 0x11
 2022 000e 01       		.uleb128 0x1
 2023 000f 10       		.uleb128 0x10
 2024 0010 17       		.uleb128 0x17
 2025 0011 00       		.byte	0
 2026 0012 00       		.byte	0
 2027 0013 02       		.uleb128 0x2
 2028 0014 24       		.uleb128 0x24
 2029 0015 00       		.byte	0
 2030 0016 0B       		.uleb128 0xb
 2031 0017 0B       		.uleb128 0xb
 2032 0018 3E       		.uleb128 0x3e
 2033 0019 0B       		.uleb128 0xb
 2034 001a 03       		.uleb128 0x3
 2035 001b 08       		.uleb128 0x8
 2036 001c 00       		.byte	0
 2037 001d 00       		.byte	0
 2038 001e 03       		.uleb128 0x3
 2039 001f 24       		.uleb128 0x24
 2040 0020 00       		.byte	0
 2041 0021 0B       		.uleb128 0xb
 2042 0022 0B       		.uleb128 0xb
 2043 0023 3E       		.uleb128 0x3e
 2044 0024 0B       		.uleb128 0xb
ARM GAS  /tmp/ccoP5Ehd.s 			page 68


 2045 0025 03       		.uleb128 0x3
 2046 0026 0E       		.uleb128 0xe
 2047 0027 00       		.byte	0
 2048 0028 00       		.byte	0
 2049 0029 04       		.uleb128 0x4
 2050 002a 16       		.uleb128 0x16
 2051 002b 00       		.byte	0
 2052 002c 03       		.uleb128 0x3
 2053 002d 0E       		.uleb128 0xe
 2054 002e 3A       		.uleb128 0x3a
 2055 002f 0B       		.uleb128 0xb
 2056 0030 3B       		.uleb128 0x3b
 2057 0031 0B       		.uleb128 0xb
 2058 0032 49       		.uleb128 0x49
 2059 0033 13       		.uleb128 0x13
 2060 0034 00       		.byte	0
 2061 0035 00       		.byte	0
 2062 0036 05       		.uleb128 0x5
 2063 0037 13       		.uleb128 0x13
 2064 0038 01       		.byte	0x1
 2065 0039 03       		.uleb128 0x3
 2066 003a 0E       		.uleb128 0xe
 2067 003b 0B       		.uleb128 0xb
 2068 003c 0B       		.uleb128 0xb
 2069 003d 3A       		.uleb128 0x3a
 2070 003e 0B       		.uleb128 0xb
 2071 003f 3B       		.uleb128 0x3b
 2072 0040 0B       		.uleb128 0xb
 2073 0041 01       		.uleb128 0x1
 2074 0042 13       		.uleb128 0x13
 2075 0043 00       		.byte	0
 2076 0044 00       		.byte	0
 2077 0045 06       		.uleb128 0x6
 2078 0046 0D       		.uleb128 0xd
 2079 0047 00       		.byte	0
 2080 0048 03       		.uleb128 0x3
 2081 0049 0E       		.uleb128 0xe
 2082 004a 3A       		.uleb128 0x3a
 2083 004b 0B       		.uleb128 0xb
 2084 004c 3B       		.uleb128 0x3b
 2085 004d 0B       		.uleb128 0xb
 2086 004e 49       		.uleb128 0x49
 2087 004f 13       		.uleb128 0x13
 2088 0050 38       		.uleb128 0x38
 2089 0051 0B       		.uleb128 0xb
 2090 0052 00       		.byte	0
 2091 0053 00       		.byte	0
 2092 0054 07       		.uleb128 0x7
 2093 0055 0D       		.uleb128 0xd
 2094 0056 00       		.byte	0
 2095 0057 03       		.uleb128 0x3
 2096 0058 08       		.uleb128 0x8
 2097 0059 3A       		.uleb128 0x3a
 2098 005a 0B       		.uleb128 0xb
 2099 005b 3B       		.uleb128 0x3b
 2100 005c 05       		.uleb128 0x5
 2101 005d 49       		.uleb128 0x49
ARM GAS  /tmp/ccoP5Ehd.s 			page 69


 2102 005e 13       		.uleb128 0x13
 2103 005f 38       		.uleb128 0x38
 2104 0060 0B       		.uleb128 0xb
 2105 0061 00       		.byte	0
 2106 0062 00       		.byte	0
 2107 0063 08       		.uleb128 0x8
 2108 0064 0D       		.uleb128 0xd
 2109 0065 00       		.byte	0
 2110 0066 03       		.uleb128 0x3
 2111 0067 0E       		.uleb128 0xe
 2112 0068 3A       		.uleb128 0x3a
 2113 0069 0B       		.uleb128 0xb
 2114 006a 3B       		.uleb128 0x3b
 2115 006b 05       		.uleb128 0x5
 2116 006c 49       		.uleb128 0x49
 2117 006d 13       		.uleb128 0x13
 2118 006e 38       		.uleb128 0x38
 2119 006f 0B       		.uleb128 0xb
 2120 0070 00       		.byte	0
 2121 0071 00       		.byte	0
 2122 0072 09       		.uleb128 0x9
 2123 0073 0F       		.uleb128 0xf
 2124 0074 00       		.byte	0
 2125 0075 0B       		.uleb128 0xb
 2126 0076 0B       		.uleb128 0xb
 2127 0077 49       		.uleb128 0x49
 2128 0078 13       		.uleb128 0x13
 2129 0079 00       		.byte	0
 2130 007a 00       		.byte	0
 2131 007b 0A       		.uleb128 0xa
 2132 007c 13       		.uleb128 0x13
 2133 007d 01       		.byte	0x1
 2134 007e 03       		.uleb128 0x3
 2135 007f 0E       		.uleb128 0xe
 2136 0080 0B       		.uleb128 0xb
 2137 0081 0B       		.uleb128 0xb
 2138 0082 3A       		.uleb128 0x3a
 2139 0083 0B       		.uleb128 0xb
 2140 0084 3B       		.uleb128 0x3b
 2141 0085 05       		.uleb128 0x5
 2142 0086 01       		.uleb128 0x1
 2143 0087 13       		.uleb128 0x13
 2144 0088 00       		.byte	0
 2145 0089 00       		.byte	0
 2146 008a 0B       		.uleb128 0xb
 2147 008b 15       		.uleb128 0x15
 2148 008c 01       		.byte	0x1
 2149 008d 27       		.uleb128 0x27
 2150 008e 19       		.uleb128 0x19
 2151 008f 01       		.uleb128 0x1
 2152 0090 13       		.uleb128 0x13
 2153 0091 00       		.byte	0
 2154 0092 00       		.byte	0
 2155 0093 0C       		.uleb128 0xc
 2156 0094 05       		.uleb128 0x5
 2157 0095 00       		.byte	0
 2158 0096 49       		.uleb128 0x49
ARM GAS  /tmp/ccoP5Ehd.s 			page 70


 2159 0097 13       		.uleb128 0x13
 2160 0098 00       		.byte	0
 2161 0099 00       		.byte	0
 2162 009a 0D       		.uleb128 0xd
 2163 009b 0F       		.uleb128 0xf
 2164 009c 00       		.byte	0
 2165 009d 0B       		.uleb128 0xb
 2166 009e 0B       		.uleb128 0xb
 2167 009f 00       		.byte	0
 2168 00a0 00       		.byte	0
 2169 00a1 0E       		.uleb128 0xe
 2170 00a2 13       		.uleb128 0x13
 2171 00a3 01       		.byte	0x1
 2172 00a4 03       		.uleb128 0x3
 2173 00a5 0E       		.uleb128 0xe
 2174 00a6 0B       		.uleb128 0xb
 2175 00a7 05       		.uleb128 0x5
 2176 00a8 3A       		.uleb128 0x3a
 2177 00a9 0B       		.uleb128 0xb
 2178 00aa 3B       		.uleb128 0x3b
 2179 00ab 05       		.uleb128 0x5
 2180 00ac 01       		.uleb128 0x1
 2181 00ad 13       		.uleb128 0x13
 2182 00ae 00       		.byte	0
 2183 00af 00       		.byte	0
 2184 00b0 0F       		.uleb128 0xf
 2185 00b1 0D       		.uleb128 0xd
 2186 00b2 00       		.byte	0
 2187 00b3 03       		.uleb128 0x3
 2188 00b4 0E       		.uleb128 0xe
 2189 00b5 3A       		.uleb128 0x3a
 2190 00b6 0B       		.uleb128 0xb
 2191 00b7 3B       		.uleb128 0x3b
 2192 00b8 05       		.uleb128 0x5
 2193 00b9 49       		.uleb128 0x49
 2194 00ba 13       		.uleb128 0x13
 2195 00bb 38       		.uleb128 0x38
 2196 00bc 05       		.uleb128 0x5
 2197 00bd 00       		.byte	0
 2198 00be 00       		.byte	0
 2199 00bf 10       		.uleb128 0x10
 2200 00c0 0D       		.uleb128 0xd
 2201 00c1 00       		.byte	0
 2202 00c2 03       		.uleb128 0x3
 2203 00c3 08       		.uleb128 0x8
 2204 00c4 3A       		.uleb128 0x3a
 2205 00c5 0B       		.uleb128 0xb
 2206 00c6 3B       		.uleb128 0x3b
 2207 00c7 05       		.uleb128 0x5
 2208 00c8 49       		.uleb128 0x49
 2209 00c9 13       		.uleb128 0x13
 2210 00ca 38       		.uleb128 0x38
 2211 00cb 05       		.uleb128 0x5
 2212 00cc 00       		.byte	0
 2213 00cd 00       		.byte	0
 2214 00ce 11       		.uleb128 0x11
 2215 00cf 0D       		.uleb128 0xd
ARM GAS  /tmp/ccoP5Ehd.s 			page 71


 2216 00d0 00       		.byte	0
 2217 00d1 03       		.uleb128 0x3
 2218 00d2 08       		.uleb128 0x8
 2219 00d3 3A       		.uleb128 0x3a
 2220 00d4 0B       		.uleb128 0xb
 2221 00d5 3B       		.uleb128 0x3b
 2222 00d6 0B       		.uleb128 0xb
 2223 00d7 49       		.uleb128 0x49
 2224 00d8 13       		.uleb128 0x13
 2225 00d9 38       		.uleb128 0x38
 2226 00da 0B       		.uleb128 0xb
 2227 00db 00       		.byte	0
 2228 00dc 00       		.byte	0
 2229 00dd 12       		.uleb128 0x12
 2230 00de 13       		.uleb128 0x13
 2231 00df 01       		.byte	0x1
 2232 00e0 0B       		.uleb128 0xb
 2233 00e1 0B       		.uleb128 0xb
 2234 00e2 3A       		.uleb128 0x3a
 2235 00e3 0B       		.uleb128 0xb
 2236 00e4 3B       		.uleb128 0x3b
 2237 00e5 0B       		.uleb128 0xb
 2238 00e6 01       		.uleb128 0x1
 2239 00e7 13       		.uleb128 0x13
 2240 00e8 00       		.byte	0
 2241 00e9 00       		.byte	0
 2242 00ea 13       		.uleb128 0x13
 2243 00eb 13       		.uleb128 0x13
 2244 00ec 01       		.byte	0x1
 2245 00ed 0B       		.uleb128 0xb
 2246 00ee 05       		.uleb128 0x5
 2247 00ef 3A       		.uleb128 0x3a
 2248 00f0 0B       		.uleb128 0xb
 2249 00f1 3B       		.uleb128 0x3b
 2250 00f2 0B       		.uleb128 0xb
 2251 00f3 01       		.uleb128 0x1
 2252 00f4 13       		.uleb128 0x13
 2253 00f5 00       		.byte	0
 2254 00f6 00       		.byte	0
 2255 00f7 14       		.uleb128 0x14
 2256 00f8 01       		.uleb128 0x1
 2257 00f9 01       		.byte	0x1
 2258 00fa 49       		.uleb128 0x49
 2259 00fb 13       		.uleb128 0x13
 2260 00fc 01       		.uleb128 0x1
 2261 00fd 13       		.uleb128 0x13
 2262 00fe 00       		.byte	0
 2263 00ff 00       		.byte	0
 2264 0100 15       		.uleb128 0x15
 2265 0101 21       		.uleb128 0x21
 2266 0102 00       		.byte	0
 2267 0103 49       		.uleb128 0x49
 2268 0104 13       		.uleb128 0x13
 2269 0105 2F       		.uleb128 0x2f
 2270 0106 0B       		.uleb128 0xb
 2271 0107 00       		.byte	0
 2272 0108 00       		.byte	0
ARM GAS  /tmp/ccoP5Ehd.s 			page 72


 2273 0109 16       		.uleb128 0x16
 2274 010a 17       		.uleb128 0x17
 2275 010b 01       		.byte	0x1
 2276 010c 0B       		.uleb128 0xb
 2277 010d 0B       		.uleb128 0xb
 2278 010e 3A       		.uleb128 0x3a
 2279 010f 0B       		.uleb128 0xb
 2280 0110 3B       		.uleb128 0x3b
 2281 0111 0B       		.uleb128 0xb
 2282 0112 01       		.uleb128 0x1
 2283 0113 13       		.uleb128 0x13
 2284 0114 00       		.byte	0
 2285 0115 00       		.byte	0
 2286 0116 17       		.uleb128 0x17
 2287 0117 0D       		.uleb128 0xd
 2288 0118 00       		.byte	0
 2289 0119 03       		.uleb128 0x3
 2290 011a 0E       		.uleb128 0xe
 2291 011b 3A       		.uleb128 0x3a
 2292 011c 0B       		.uleb128 0xb
 2293 011d 3B       		.uleb128 0x3b
 2294 011e 05       		.uleb128 0x5
 2295 011f 49       		.uleb128 0x49
 2296 0120 13       		.uleb128 0x13
 2297 0121 00       		.byte	0
 2298 0122 00       		.byte	0
 2299 0123 18       		.uleb128 0x18
 2300 0124 26       		.uleb128 0x26
 2301 0125 00       		.byte	0
 2302 0126 49       		.uleb128 0x49
 2303 0127 13       		.uleb128 0x13
 2304 0128 00       		.byte	0
 2305 0129 00       		.byte	0
 2306 012a 19       		.uleb128 0x19
 2307 012b 35       		.uleb128 0x35
 2308 012c 00       		.byte	0
 2309 012d 49       		.uleb128 0x49
 2310 012e 13       		.uleb128 0x13
 2311 012f 00       		.byte	0
 2312 0130 00       		.byte	0
 2313 0131 1A       		.uleb128 0x1a
 2314 0132 2E       		.uleb128 0x2e
 2315 0133 01       		.byte	0x1
 2316 0134 03       		.uleb128 0x3
 2317 0135 0E       		.uleb128 0xe
 2318 0136 3A       		.uleb128 0x3a
 2319 0137 0B       		.uleb128 0xb
 2320 0138 3B       		.uleb128 0x3b
 2321 0139 05       		.uleb128 0x5
 2322 013a 27       		.uleb128 0x27
 2323 013b 19       		.uleb128 0x19
 2324 013c 20       		.uleb128 0x20
 2325 013d 0B       		.uleb128 0xb
 2326 013e 01       		.uleb128 0x1
 2327 013f 13       		.uleb128 0x13
 2328 0140 00       		.byte	0
 2329 0141 00       		.byte	0
ARM GAS  /tmp/ccoP5Ehd.s 			page 73


 2330 0142 1B       		.uleb128 0x1b
 2331 0143 05       		.uleb128 0x5
 2332 0144 00       		.byte	0
 2333 0145 03       		.uleb128 0x3
 2334 0146 0E       		.uleb128 0xe
 2335 0147 3A       		.uleb128 0x3a
 2336 0148 0B       		.uleb128 0xb
 2337 0149 3B       		.uleb128 0x3b
 2338 014a 05       		.uleb128 0x5
 2339 014b 49       		.uleb128 0x49
 2340 014c 13       		.uleb128 0x13
 2341 014d 00       		.byte	0
 2342 014e 00       		.byte	0
 2343 014f 1C       		.uleb128 0x1c
 2344 0150 2E       		.uleb128 0x2e
 2345 0151 01       		.byte	0x1
 2346 0152 03       		.uleb128 0x3
 2347 0153 0E       		.uleb128 0xe
 2348 0154 3A       		.uleb128 0x3a
 2349 0155 0B       		.uleb128 0xb
 2350 0156 3B       		.uleb128 0x3b
 2351 0157 05       		.uleb128 0x5
 2352 0158 27       		.uleb128 0x27
 2353 0159 19       		.uleb128 0x19
 2354 015a 11       		.uleb128 0x11
 2355 015b 01       		.uleb128 0x1
 2356 015c 12       		.uleb128 0x12
 2357 015d 06       		.uleb128 0x6
 2358 015e 40       		.uleb128 0x40
 2359 015f 18       		.uleb128 0x18
 2360 0160 9742     		.uleb128 0x2117
 2361 0162 19       		.uleb128 0x19
 2362 0163 01       		.uleb128 0x1
 2363 0164 13       		.uleb128 0x13
 2364 0165 00       		.byte	0
 2365 0166 00       		.byte	0
 2366 0167 1D       		.uleb128 0x1d
 2367 0168 1D       		.uleb128 0x1d
 2368 0169 01       		.byte	0x1
 2369 016a 31       		.uleb128 0x31
 2370 016b 13       		.uleb128 0x13
 2371 016c 11       		.uleb128 0x11
 2372 016d 01       		.uleb128 0x1
 2373 016e 12       		.uleb128 0x12
 2374 016f 06       		.uleb128 0x6
 2375 0170 58       		.uleb128 0x58
 2376 0171 0B       		.uleb128 0xb
 2377 0172 59       		.uleb128 0x59
 2378 0173 05       		.uleb128 0x5
 2379 0174 00       		.byte	0
 2380 0175 00       		.byte	0
 2381 0176 1E       		.uleb128 0x1e
 2382 0177 05       		.uleb128 0x5
 2383 0178 00       		.byte	0
 2384 0179 31       		.uleb128 0x31
 2385 017a 13       		.uleb128 0x13
 2386 017b 02       		.uleb128 0x2
ARM GAS  /tmp/ccoP5Ehd.s 			page 74


 2387 017c 18       		.uleb128 0x18
 2388 017d 00       		.byte	0
 2389 017e 00       		.byte	0
 2390 017f 1F       		.uleb128 0x1f
 2391 0180 2E       		.uleb128 0x2e
 2392 0181 00       		.byte	0
 2393 0182 03       		.uleb128 0x3
 2394 0183 0E       		.uleb128 0xe
 2395 0184 3A       		.uleb128 0x3a
 2396 0185 0B       		.uleb128 0xb
 2397 0186 3B       		.uleb128 0x3b
 2398 0187 05       		.uleb128 0x5
 2399 0188 27       		.uleb128 0x27
 2400 0189 19       		.uleb128 0x19
 2401 018a 11       		.uleb128 0x11
 2402 018b 01       		.uleb128 0x1
 2403 018c 12       		.uleb128 0x12
 2404 018d 06       		.uleb128 0x6
 2405 018e 40       		.uleb128 0x40
 2406 018f 18       		.uleb128 0x18
 2407 0190 9642     		.uleb128 0x2116
 2408 0192 19       		.uleb128 0x19
 2409 0193 00       		.byte	0
 2410 0194 00       		.byte	0
 2411 0195 20       		.uleb128 0x20
 2412 0196 2E       		.uleb128 0x2e
 2413 0197 00       		.byte	0
 2414 0198 3F       		.uleb128 0x3f
 2415 0199 19       		.uleb128 0x19
 2416 019a 03       		.uleb128 0x3
 2417 019b 0E       		.uleb128 0xe
 2418 019c 3A       		.uleb128 0x3a
 2419 019d 0B       		.uleb128 0xb
 2420 019e 3B       		.uleb128 0x3b
 2421 019f 0B       		.uleb128 0xb
 2422 01a0 27       		.uleb128 0x27
 2423 01a1 19       		.uleb128 0x19
 2424 01a2 11       		.uleb128 0x11
 2425 01a3 01       		.uleb128 0x1
 2426 01a4 12       		.uleb128 0x12
 2427 01a5 06       		.uleb128 0x6
 2428 01a6 40       		.uleb128 0x40
 2429 01a7 18       		.uleb128 0x18
 2430 01a8 9642     		.uleb128 0x2116
 2431 01aa 19       		.uleb128 0x19
 2432 01ab 00       		.byte	0
 2433 01ac 00       		.byte	0
 2434 01ad 21       		.uleb128 0x21
 2435 01ae 2E       		.uleb128 0x2e
 2436 01af 01       		.byte	0x1
 2437 01b0 3F       		.uleb128 0x3f
 2438 01b1 19       		.uleb128 0x19
 2439 01b2 03       		.uleb128 0x3
 2440 01b3 0E       		.uleb128 0xe
 2441 01b4 3A       		.uleb128 0x3a
 2442 01b5 0B       		.uleb128 0xb
 2443 01b6 3B       		.uleb128 0x3b
ARM GAS  /tmp/ccoP5Ehd.s 			page 75


 2444 01b7 0B       		.uleb128 0xb
 2445 01b8 27       		.uleb128 0x27
 2446 01b9 19       		.uleb128 0x19
 2447 01ba 11       		.uleb128 0x11
 2448 01bb 01       		.uleb128 0x1
 2449 01bc 12       		.uleb128 0x12
 2450 01bd 06       		.uleb128 0x6
 2451 01be 40       		.uleb128 0x40
 2452 01bf 18       		.uleb128 0x18
 2453 01c0 9642     		.uleb128 0x2116
 2454 01c2 19       		.uleb128 0x19
 2455 01c3 01       		.uleb128 0x1
 2456 01c4 13       		.uleb128 0x13
 2457 01c5 00       		.byte	0
 2458 01c6 00       		.byte	0
 2459 01c7 22       		.uleb128 0x22
 2460 01c8 05       		.uleb128 0x5
 2461 01c9 00       		.byte	0
 2462 01ca 03       		.uleb128 0x3
 2463 01cb 08       		.uleb128 0x8
 2464 01cc 3A       		.uleb128 0x3a
 2465 01cd 0B       		.uleb128 0xb
 2466 01ce 3B       		.uleb128 0x3b
 2467 01cf 0B       		.uleb128 0xb
 2468 01d0 49       		.uleb128 0x49
 2469 01d1 13       		.uleb128 0x13
 2470 01d2 02       		.uleb128 0x2
 2471 01d3 18       		.uleb128 0x18
 2472 01d4 00       		.byte	0
 2473 01d5 00       		.byte	0
 2474 01d6 23       		.uleb128 0x23
 2475 01d7 34       		.uleb128 0x34
 2476 01d8 00       		.byte	0
 2477 01d9 03       		.uleb128 0x3
 2478 01da 0E       		.uleb128 0xe
 2479 01db 3A       		.uleb128 0x3a
 2480 01dc 0B       		.uleb128 0xb
 2481 01dd 3B       		.uleb128 0x3b
 2482 01de 05       		.uleb128 0x5
 2483 01df 49       		.uleb128 0x49
 2484 01e0 13       		.uleb128 0x13
 2485 01e1 3F       		.uleb128 0x3f
 2486 01e2 19       		.uleb128 0x19
 2487 01e3 3C       		.uleb128 0x3c
 2488 01e4 19       		.uleb128 0x19
 2489 01e5 00       		.byte	0
 2490 01e6 00       		.byte	0
 2491 01e7 24       		.uleb128 0x24
 2492 01e8 34       		.uleb128 0x34
 2493 01e9 00       		.byte	0
 2494 01ea 03       		.uleb128 0x3
 2495 01eb 08       		.uleb128 0x8
 2496 01ec 3A       		.uleb128 0x3a
 2497 01ed 0B       		.uleb128 0xb
 2498 01ee 3B       		.uleb128 0x3b
 2499 01ef 05       		.uleb128 0x5
 2500 01f0 49       		.uleb128 0x49
ARM GAS  /tmp/ccoP5Ehd.s 			page 76


 2501 01f1 13       		.uleb128 0x13
 2502 01f2 3F       		.uleb128 0x3f
 2503 01f3 19       		.uleb128 0x19
 2504 01f4 3C       		.uleb128 0x3c
 2505 01f5 19       		.uleb128 0x19
 2506 01f6 00       		.byte	0
 2507 01f7 00       		.byte	0
 2508 01f8 00       		.byte	0
 2509              		.section	.debug_aranges,"",%progbits
 2510 0000 6C000000 		.4byte	0x6c
 2511 0004 0200     		.2byte	0x2
 2512 0006 00000000 		.4byte	.Ldebug_info0
 2513 000a 04       		.byte	0x4
 2514 000b 00       		.byte	0
 2515 000c 0000     		.2byte	0
 2516 000e 0000     		.2byte	0
 2517 0010 00000000 		.4byte	.LFB127
 2518 0014 10000000 		.4byte	.LFE127-.LFB127
 2519 0018 00000000 		.4byte	.LFB128
 2520 001c 10000000 		.4byte	.LFE128-.LFB128
 2521 0020 00000000 		.4byte	.LFB129
 2522 0024 08000000 		.4byte	.LFE129-.LFB129
 2523 0028 00000000 		.4byte	.LFB130
 2524 002c 08000000 		.4byte	.LFE130-.LFB130
 2525 0030 00000000 		.4byte	.LFB241
 2526 0034 34000000 		.4byte	.LFE241-.LFB241
 2527 0038 00000000 		.4byte	.LFB242
 2528 003c 26000000 		.4byte	.LFE242-.LFB242
 2529 0040 00000000 		.4byte	.LFB243
 2530 0044 3A000000 		.4byte	.LFE243-.LFB243
 2531 0048 00000000 		.4byte	.LFB244
 2532 004c 10000000 		.4byte	.LFE244-.LFB244
 2533 0050 00000000 		.4byte	.LFB245
 2534 0054 10000000 		.4byte	.LFE245-.LFB245
 2535 0058 00000000 		.4byte	.LFB246
 2536 005c 10000000 		.4byte	.LFE246-.LFB246
 2537 0060 00000000 		.4byte	.LFB247
 2538 0064 10000000 		.4byte	.LFE247-.LFB247
 2539 0068 00000000 		.4byte	0
 2540 006c 00000000 		.4byte	0
 2541              		.section	.debug_ranges,"",%progbits
 2542              	.Ldebug_ranges0:
 2543 0000 00000000 		.4byte	.LFB127
 2544 0004 10000000 		.4byte	.LFE127
 2545 0008 00000000 		.4byte	.LFB128
 2546 000c 10000000 		.4byte	.LFE128
 2547 0010 00000000 		.4byte	.LFB129
 2548 0014 08000000 		.4byte	.LFE129
 2549 0018 00000000 		.4byte	.LFB130
 2550 001c 08000000 		.4byte	.LFE130
 2551 0020 00000000 		.4byte	.LFB241
 2552 0024 34000000 		.4byte	.LFE241
 2553 0028 00000000 		.4byte	.LFB242
 2554 002c 26000000 		.4byte	.LFE242
 2555 0030 00000000 		.4byte	.LFB243
 2556 0034 3A000000 		.4byte	.LFE243
 2557 0038 00000000 		.4byte	.LFB244
ARM GAS  /tmp/ccoP5Ehd.s 			page 77


 2558 003c 10000000 		.4byte	.LFE244
 2559 0040 00000000 		.4byte	.LFB245
 2560 0044 10000000 		.4byte	.LFE245
 2561 0048 00000000 		.4byte	.LFB246
 2562 004c 10000000 		.4byte	.LFE246
 2563 0050 00000000 		.4byte	.LFB247
 2564 0054 10000000 		.4byte	.LFE247
 2565 0058 00000000 		.4byte	0
 2566 005c 00000000 		.4byte	0
 2567              		.section	.debug_line,"",%progbits
 2568              	.Ldebug_line0:
 2569 0000 C5020000 		.section	.debug_str,"MS",%progbits,1
 2569      0200D301 
 2569      00000201 
 2569      FB0E0D00 
 2569      01010101 
 2570              	.LASF97:
 2571 0000 74625F70 		.ascii	"tb_ptr\000"
 2571      747200
 2572              	.LASF54:
 2573 0007 72656164 		.ascii	"ready_list_t\000"
 2573      795F6C69 
 2573      73745F74 
 2573      00
 2574              	.LASF91:
 2575 0014 73655F74 		.ascii	"se_time\000"
 2575      696D6500 
 2576              	.LASF115:
 2577 001c 77747472 		.ascii	"wttrp\000"
 2577      7000
 2578              	.LASF112:
 2579 0022 7264796D 		.ascii	"rdymsg\000"
 2579      736700
 2580              	.LASF16:
 2581 0029 75696E74 		.ascii	"uint64_t\000"
 2581      36345F74 
 2581      00
 2582              	.LASF84:
 2583 0032 6B65726E 		.ascii	"kernel_stats\000"
 2583      656C5F73 
 2583      74617473 
 2583      00
 2584              	.LASF5:
 2585 003f 5F5F7569 		.ascii	"__uint8_t\000"
 2585      6E74385F 
 2585      7400
 2586              	.LASF90:
 2587 0049 706F7274 		.ascii	"port_intctx\000"
 2587      5F696E74 
 2587      63747800 
 2588              	.LASF53:
 2589 0055 63685F74 		.ascii	"ch_threads_queue\000"
 2589      68726561 
 2589      64735F71 
 2589      75657565 
 2589      00
 2590              	.LASF73:
ARM GAS  /tmp/ccoP5Ehd.s 			page 78


 2591 0066 73797374 		.ascii	"system_debug_t\000"
 2591      656D5F64 
 2591      65627567 
 2591      5F7400
 2592              	.LASF128:
 2593 0075 706F7274 		.ascii	"port_lock\000"
 2593      5F6C6F63 
 2593      6B00
 2594              	.LASF103:
 2595 007f 776F7273 		.ascii	"worst\000"
 2595      7400
 2596              	.LASF106:
 2597 0085 74696D65 		.ascii	"time_measurement_t\000"
 2597      5F6D6561 
 2597      73757265 
 2597      6D656E74 
 2597      5F7400
 2598              	.LASF12:
 2599 0098 6C6F6E67 		.ascii	"long long unsigned int\000"
 2599      206C6F6E 
 2599      6720756E 
 2599      7369676E 
 2599      65642069 
 2600              	.LASF99:
 2601 00af 63685F74 		.ascii	"ch_trace_buffer_t\000"
 2601      72616365 
 2601      5F627566 
 2601      6665725F 
 2601      7400
 2602              	.LASF94:
 2603 00c1 73655F73 		.ascii	"se_state\000"
 2603      74617465 
 2603      00
 2604              	.LASF113:
 2605 00ca 65786974 		.ascii	"exitcode\000"
 2605      636F6465 
 2605      00
 2606              	.LASF83:
 2607 00d3 6D61696E 		.ascii	"mainthread\000"
 2607      74687265 
 2607      616400
 2608              	.LASF134:
 2609 00de 5F737461 		.ascii	"_stats_start_measure_crit_thd\000"
 2609      74735F73 
 2609      74617274 
 2609      5F6D6561 
 2609      73757265 
 2610              	.LASF70:
 2611 00fc 76697274 		.ascii	"virtual_timers_list_t\000"
 2611      75616C5F 
 2611      74696D65 
 2611      72735F6C 
 2611      6973745F 
 2612              	.LASF138:
 2613 0112 49544D5F 		.ascii	"ITM_RxBuffer\000"
 2613      52784275 
 2613      66666572 
ARM GAS  /tmp/ccoP5Ehd.s 			page 79


 2613      00
 2614              	.LASF18:
 2615 011f 72747469 		.ascii	"rttime_t\000"
 2615      6D655F74 
 2615      00
 2616              	.LASF31:
 2617 0128 705F7072 		.ascii	"p_prio\000"
 2617      696F00
 2618              	.LASF10:
 2619 012f 6C6F6E67 		.ascii	"long long int\000"
 2619      206C6F6E 
 2619      6720696E 
 2619      7400
 2620              	.LASF1:
 2621 013d 7369676E 		.ascii	"signed char\000"
 2621      65642063 
 2621      68617200 
 2622              	.LASF141:
 2623 0149 2F686F6D 		.ascii	"/home/jerker/git/AutoTux/stm32\000"
 2623      652F6A65 
 2623      726B6572 
 2623      2F676974 
 2623      2F417574 
 2624              	.LASF46:
 2625 0168 705F6D70 		.ascii	"p_mpool\000"
 2625      6F6F6C00 
 2626              	.LASF123:
 2627 0170 6D5F7175 		.ascii	"m_queue\000"
 2627      65756500 
 2628              	.LASF82:
 2629 0178 76746C69 		.ascii	"vtlist\000"
 2629      737400
 2630              	.LASF129:
 2631 017f 706F7274 		.ascii	"port_unlock\000"
 2631      5F756E6C 
 2631      6F636B00 
 2632              	.LASF80:
 2633 018b 63685F73 		.ascii	"ch_system\000"
 2633      79737465 
 2633      6D00
 2634              	.LASF7:
 2635 0195 6C6F6E67 		.ascii	"long int\000"
 2635      20696E74 
 2635      00
 2636              	.LASF20:
 2637 019e 74737461 		.ascii	"tstate_t\000"
 2637      74655F74 
 2637      00
 2638              	.LASF92:
 2639 01a7 73655F74 		.ascii	"se_tp\000"
 2639      7000
 2640              	.LASF33:
 2641 01ad 705F6E65 		.ascii	"p_newer\000"
 2641      77657200 
 2642              	.LASF120:
 2643 01b5 735F7175 		.ascii	"s_queue\000"
 2643      65756500 
ARM GAS  /tmp/ccoP5Ehd.s 			page 80


 2644              	.LASF96:
 2645 01bd 74625F73 		.ascii	"tb_size\000"
 2645      697A6500 
 2646              	.LASF59:
 2647 01c5 725F6E65 		.ascii	"r_newer\000"
 2647      77657200 
 2648              	.LASF87:
 2649 01cd 72656761 		.ascii	"regarm_t\000"
 2649      726D5F74 
 2649      00
 2650              	.LASF66:
 2651 01d6 76745F70 		.ascii	"vt_prev\000"
 2651      72657600 
 2652              	.LASF74:
 2653 01de 63685F73 		.ascii	"ch_system_debug\000"
 2653      79737465 
 2653      6D5F6465 
 2653      62756700 
 2654              	.LASF127:
 2655 01ee 6D757465 		.ascii	"mutex_t\000"
 2655      785F7400 
 2656              	.LASF143:
 2657 01f6 76616C75 		.ascii	"value\000"
 2657      6500
 2658              	.LASF77:
 2659 01fc 6C6F636B 		.ascii	"lock_cnt\000"
 2659      5F636E74 
 2659      00
 2660              	.LASF85:
 2661 0205 69646C65 		.ascii	"idle_thread_wa\000"
 2661      5F746872 
 2661      6561645F 
 2661      776100
 2662              	.LASF25:
 2663 0214 636E745F 		.ascii	"cnt_t\000"
 2663      7400
 2664              	.LASF36:
 2665 021a 705F7374 		.ascii	"p_stklimit\000"
 2665      6B6C696D 
 2665      697400
 2666              	.LASF0:
 2667 0225 756E7369 		.ascii	"unsigned int\000"
 2667      676E6564 
 2667      20696E74 
 2667      00
 2668              	.LASF65:
 2669 0232 76745F6E 		.ascii	"vt_next\000"
 2669      65787400 
 2670              	.LASF116:
 2671 023a 77747365 		.ascii	"wtsemp\000"
 2671      6D7000
 2672              	.LASF41:
 2673 0241 705F6D73 		.ascii	"p_msgqueue\000"
 2673      67717565 
 2673      756500
 2674              	.LASF107:
 2675 024c 6E5F6972 		.ascii	"n_irq\000"
ARM GAS  /tmp/ccoP5Ehd.s 			page 81


 2675      7100
 2676              	.LASF121:
 2677 0252 735F636E 		.ascii	"s_cnt\000"
 2677      7400
 2678              	.LASF4:
 2679 0258 73686F72 		.ascii	"short unsigned int\000"
 2679      7420756E 
 2679      7369676E 
 2679      65642069 
 2679      6E7400
 2680              	.LASF111:
 2681 026b 6B65726E 		.ascii	"kernel_stats_t\000"
 2681      656C5F73 
 2681      74617473 
 2681      5F7400
 2682              	.LASF50:
 2683 027a 63685F74 		.ascii	"ch_thread\000"
 2683      68726561 
 2683      6400
 2684              	.LASF23:
 2685 0284 6D73675F 		.ascii	"msg_t\000"
 2685      7400
 2686              	.LASF104:
 2687 028a 6C617374 		.ascii	"last\000"
 2687      00
 2688              	.LASF26:
 2689 028f 75636E74 		.ascii	"ucnt_t\000"
 2689      5F7400
 2690              	.LASF79:
 2691 0296 63685F73 		.ascii	"ch_system_t\000"
 2691      79737465 
 2691      6D5F7400 
 2692              	.LASF139:
 2693 02a2 474E5520 		.ascii	"GNU C 4.8.2 -mcpu=cortex-m4 -mno-thumb-interwork -m"
 2693      4320342E 
 2693      382E3220 
 2693      2D6D6370 
 2693      753D636F 
 2694 02d5 7468756D 		.ascii	"thumb -ggdb -O0 -fomit-frame-pointer -falign-functi"
 2694      62202D67 
 2694      67646220 
 2694      2D4F3020 
 2694      2D666F6D 
 2695 0308 6F6E733D 		.ascii	"ons=16 -ffunction-sections -fdata-sections -fno-com"
 2695      3136202D 
 2695      6666756E 
 2695      6374696F 
 2695      6E2D7365 
 2696 033b 6D6F6E20 		.ascii	"mon -flto\000"
 2696      2D666C74 
 2696      6F00
 2697              	.LASF19:
 2698 0345 746D6F64 		.ascii	"tmode_t\000"
 2698      655F7400 
 2699              	.LASF110:
 2700 034d 6D5F6372 		.ascii	"m_crit_isr\000"
 2700      69745F69 
ARM GAS  /tmp/ccoP5Ehd.s 			page 82


 2700      737200
 2701              	.LASF55:
 2702 0358 63685F72 		.ascii	"ch_ready_list\000"
 2702      65616479 
 2702      5F6C6973 
 2702      7400
 2703              	.LASF24:
 2704 0366 6576656E 		.ascii	"eventmask_t\000"
 2704      746D6173 
 2704      6B5F7400 
 2705              	.LASF136:
 2706 0372 5F737461 		.ascii	"_stats_start_measure_crit_isr\000"
 2706      74735F73 
 2706      74617274 
 2706      5F6D6561 
 2706      73757265 
 2707              	.LASF88:
 2708 0390 73746B61 		.ascii	"stkalign_t\000"
 2708      6C69676E 
 2708      5F7400
 2709              	.LASF40:
 2710 039b 705F7761 		.ascii	"p_waiting\000"
 2710      6974696E 
 2710      6700
 2711              	.LASF135:
 2712 03a5 5F737461 		.ascii	"_stats_stop_measure_crit_thd\000"
 2712      74735F73 
 2712      746F705F 
 2712      6D656173 
 2712      7572655F 
 2713              	.LASF86:
 2714 03c2 73697A65 		.ascii	"sizetype\000"
 2714      74797065 
 2714      00
 2715              	.LASF48:
 2716 03cb 74687265 		.ascii	"thread_reference_t\000"
 2716      61645F72 
 2716      65666572 
 2716      656E6365 
 2716      5F7400
 2717              	.LASF71:
 2718 03de 63685F76 		.ascii	"ch_virtual_timers_list\000"
 2718      69727475 
 2718      616C5F74 
 2718      696D6572 
 2718      735F6C69 
 2719              	.LASF95:
 2720 03f5 63685F73 		.ascii	"ch_swc_event_t\000"
 2720      77635F65 
 2720      76656E74 
 2720      5F7400
 2721              	.LASF72:
 2722 0404 76745F6C 		.ascii	"vt_lasttime\000"
 2722      61737474 
 2722      696D6500 
 2723              	.LASF34:
 2724 0410 705F6F6C 		.ascii	"p_older\000"
ARM GAS  /tmp/ccoP5Ehd.s 			page 83


 2724      64657200 
 2725              	.LASF58:
 2726 0418 725F6374 		.ascii	"r_ctx\000"
 2726      7800
 2727              	.LASF101:
 2728 041e 746D5F63 		.ascii	"tm_calibration_t\000"
 2728      616C6962 
 2728      72617469 
 2728      6F6E5F74 
 2728      00
 2729              	.LASF61:
 2730 042f 725F6375 		.ascii	"r_current\000"
 2730      7272656E 
 2730      7400
 2731              	.LASF60:
 2732 0439 725F6F6C 		.ascii	"r_older\000"
 2732      64657200 
 2733              	.LASF11:
 2734 0441 5F5F7569 		.ascii	"__uint64_t\000"
 2734      6E743634 
 2734      5F7400
 2735              	.LASF105:
 2736 044c 63756D75 		.ascii	"cumulative\000"
 2736      6C617469 
 2736      766500
 2737              	.LASF21:
 2738 0457 74726566 		.ascii	"trefs_t\000"
 2738      735F7400 
 2739              	.LASF98:
 2740 045f 74625F62 		.ascii	"tb_buffer\000"
 2740      75666665 
 2740      7200
 2741              	.LASF63:
 2742 0469 76697274 		.ascii	"virtual_timer_t\000"
 2742      75616C5F 
 2742      74696D65 
 2742      725F7400 
 2743              	.LASF30:
 2744 0479 705F7072 		.ascii	"p_prev\000"
 2744      657600
 2745              	.LASF22:
 2746 0480 74707269 		.ascii	"tprio_t\000"
 2746      6F5F7400 
 2747              	.LASF108:
 2748 0488 6E5F6374 		.ascii	"n_ctxswc\000"
 2748      78737763 
 2748      00
 2749              	.LASF14:
 2750 0491 696E7433 		.ascii	"int32_t\000"
 2750      325F7400 
 2751              	.LASF2:
 2752 0499 756E7369 		.ascii	"unsigned char\000"
 2752      676E6564 
 2752      20636861 
 2752      7200
 2753              	.LASF44:
 2754 04a7 705F6D74 		.ascii	"p_mtxlist\000"
ARM GAS  /tmp/ccoP5Ehd.s 			page 84


 2754      786C6973 
 2754      7400
 2755              	.LASF3:
 2756 04b1 73686F72 		.ascii	"short int\000"
 2756      7420696E 
 2756      7400
 2757              	.LASF37:
 2758 04bb 705F7374 		.ascii	"p_state\000"
 2758      61746500 
 2759              	.LASF57:
 2760 04c3 725F7072 		.ascii	"r_prio\000"
 2760      696F00
 2761              	.LASF118:
 2762 04ca 65776D61 		.ascii	"ewmask\000"
 2762      736B00
 2763              	.LASF29:
 2764 04d1 705F6E65 		.ascii	"p_next\000"
 2764      787400
 2765              	.LASF38:
 2766 04d8 705F666C 		.ascii	"p_flags\000"
 2766      61677300 
 2767              	.LASF47:
 2768 04e0 705F7374 		.ascii	"p_stats\000"
 2768      61747300 
 2769              	.LASF64:
 2770 04e8 63685F76 		.ascii	"ch_virtual_timer\000"
 2770      69727475 
 2770      616C5F74 
 2770      696D6572 
 2770      00
 2771              	.LASF119:
 2772 04f9 63685F73 		.ascii	"ch_semaphore\000"
 2772      656D6170 
 2772      686F7265 
 2772      00
 2773              	.LASF43:
 2774 0506 705F6570 		.ascii	"p_epending\000"
 2774      656E6469 
 2774      6E6700
 2775              	.LASF15:
 2776 0511 75696E74 		.ascii	"uint32_t\000"
 2776      33325F74 
 2776      00
 2777              	.LASF133:
 2778 051a 5F737461 		.ascii	"_stats_increase_irq\000"
 2778      74735F69 
 2778      6E637265 
 2778      6173655F 
 2778      69727100 
 2779              	.LASF56:
 2780 052e 725F7175 		.ascii	"r_queue\000"
 2780      65756500 
 2781              	.LASF67:
 2782 0536 76745F64 		.ascii	"vt_delta\000"
 2782      656C7461 
 2782      00
 2783              	.LASF51:
ARM GAS  /tmp/ccoP5Ehd.s 			page 85


 2784 053f 63685F74 		.ascii	"ch_threads_list\000"
 2784      68726561 
 2784      64735F6C 
 2784      69737400 
 2785              	.LASF9:
 2786 054f 6C6F6E67 		.ascii	"long unsigned int\000"
 2786      20756E73 
 2786      69676E65 
 2786      6420696E 
 2786      7400
 2787              	.LASF126:
 2788 0561 63686172 		.ascii	"char\000"
 2788      00
 2789              	.LASF6:
 2790 0566 5F5F696E 		.ascii	"__int32_t\000"
 2790      7433325F 
 2790      7400
 2791              	.LASF117:
 2792 0570 77746D74 		.ascii	"wtmtxp\000"
 2792      787000
 2793              	.LASF131:
 2794 0577 706F7274 		.ascii	"port_unlock_from_isr\000"
 2794      5F756E6C 
 2794      6F636B5F 
 2794      66726F6D 
 2794      5F697372 
 2795              	.LASF28:
 2796 058c 74687265 		.ascii	"thread_t\000"
 2796      61645F74 
 2796      00
 2797              	.LASF102:
 2798 0595 62657374 		.ascii	"best\000"
 2798      00
 2799              	.LASF125:
 2800 059a 6D5F6E65 		.ascii	"m_next\000"
 2800      787400
 2801              	.LASF27:
 2802 05a1 73797374 		.ascii	"systime_t\000"
 2802      696D655F 
 2802      7400
 2803              	.LASF45:
 2804 05ab 705F7265 		.ascii	"p_realprio\000"
 2804      616C7072 
 2804      696F00
 2805              	.LASF62:
 2806 05b6 76746675 		.ascii	"vtfunc_t\000"
 2806      6E635F74 
 2806      00
 2807              	.LASF8:
 2808 05bf 5F5F7569 		.ascii	"__uint32_t\000"
 2808      6E743332 
 2808      5F7400
 2809              	.LASF142:
 2810 05ca 5F5F7365 		.ascii	"__set_BASEPRI\000"
 2810      745F4241 
 2810      53455052 
 2810      4900
ARM GAS  /tmp/ccoP5Ehd.s 			page 86


 2811              	.LASF75:
 2812 05d8 70616E69 		.ascii	"panic_msg\000"
 2812      635F6D73 
 2812      6700
 2813              	.LASF100:
 2814 05e2 6F666673 		.ascii	"offset\000"
 2814      657400
 2815              	.LASF140:
 2816 05e9 6C69622F 		.ascii	"lib/ChibiOS_16.1.4//os/rt/src/chstats.c\000"
 2816      43686962 
 2816      694F535F 
 2816      31362E31 
 2816      2E342F2F 
 2817              	.LASF89:
 2818 0611 636F6E74 		.ascii	"context\000"
 2818      65787400 
 2819              	.LASF17:
 2820 0619 7274636E 		.ascii	"rtcnt_t\000"
 2820      745F7400 
 2821              	.LASF130:
 2822 0621 706F7274 		.ascii	"port_lock_from_isr\000"
 2822      5F6C6F63 
 2822      6B5F6672 
 2822      6F6D5F69 
 2822      737200
 2823              	.LASF69:
 2824 0634 76745F70 		.ascii	"vt_par\000"
 2824      617200
 2825              	.LASF52:
 2826 063b 74687265 		.ascii	"threads_queue_t\000"
 2826      6164735F 
 2826      71756575 
 2826      655F7400 
 2827              	.LASF122:
 2828 064b 63685F6D 		.ascii	"ch_mutex\000"
 2828      75746578 
 2828      00
 2829              	.LASF39:
 2830 0654 705F7265 		.ascii	"p_refs\000"
 2830      667300
 2831              	.LASF76:
 2832 065b 6973725F 		.ascii	"isr_cnt\000"
 2832      636E7400 
 2833              	.LASF81:
 2834 0663 726C6973 		.ascii	"rlist\000"
 2834      7400
 2835              	.LASF13:
 2836 0669 75696E74 		.ascii	"uint8_t\000"
 2836      385F7400 
 2837              	.LASF144:
 2838 0671 5F737461 		.ascii	"_stats_ctxswc\000"
 2838      74735F63 
 2838      74787377 
 2838      6300
 2839              	.LASF114:
 2840 067f 77746F62 		.ascii	"wtobjp\000"
 2840      6A7000
ARM GAS  /tmp/ccoP5Ehd.s 			page 87


 2841              	.LASF35:
 2842 0686 705F6E61 		.ascii	"p_name\000"
 2842      6D6500
 2843              	.LASF49:
 2844 068d 74687265 		.ascii	"threads_list_t\000"
 2844      6164735F 
 2844      6C697374 
 2844      5F7400
 2845              	.LASF78:
 2846 069c 74726163 		.ascii	"trace_buffer\000"
 2846      655F6275 
 2846      66666572 
 2846      00
 2847              	.LASF42:
 2848 06a9 705F6D73 		.ascii	"p_msg\000"
 2848      6700
 2849              	.LASF132:
 2850 06af 5F737461 		.ascii	"_stats_init\000"
 2850      74735F69 
 2850      6E697400 
 2851              	.LASF137:
 2852 06bb 5F737461 		.ascii	"_stats_stop_measure_crit_isr\000"
 2852      74735F73 
 2852      746F705F 
 2852      6D656173 
 2852      7572655F 
 2853              	.LASF109:
 2854 06d8 6D5F6372 		.ascii	"m_crit_thd\000"
 2854      69745F74 
 2854      686400
 2855              	.LASF124:
 2856 06e3 6D5F6F77 		.ascii	"m_owner\000"
 2856      6E657200 
 2857              	.LASF93:
 2858 06eb 73655F77 		.ascii	"se_wtobjp\000"
 2858      746F626A 
 2858      7000
 2859              	.LASF32:
 2860 06f5 705F6374 		.ascii	"p_ctx\000"
 2860      7800
 2861              	.LASF68:
 2862 06fb 76745F66 		.ascii	"vt_func\000"
 2862      756E6300 
 2863              		.comm	__gnu_lto_v1,1,1
 2864              		.ident	"GCC: (4.8.2-14ubuntu1+6) 4.8.2"
ARM GAS  /tmp/ccoP5Ehd.s 			page 88


DEFINED SYMBOLS
                            *ABS*:0000000000000000 chstats.c
     /tmp/ccoP5Ehd.s:535    .text.port_lock:0000000000000000 $t
     /tmp/ccoP5Ehd.s:540    .text.port_lock:0000000000000000 port_lock
     /tmp/ccoP5Ehd.s:571    .text.port_unlock:0000000000000000 $t
     /tmp/ccoP5Ehd.s:576    .text.port_unlock:0000000000000000 port_unlock
     /tmp/ccoP5Ehd.s:605    .text.port_lock_from_isr:0000000000000000 $t
     /tmp/ccoP5Ehd.s:610    .text.port_lock_from_isr:0000000000000000 port_lock_from_isr
     /tmp/ccoP5Ehd.s:628    .text.port_unlock_from_isr:0000000000000000 $t
     /tmp/ccoP5Ehd.s:633    .text.port_unlock_from_isr:0000000000000000 port_unlock_from_isr
     /tmp/ccoP5Ehd.s:651    .text._stats_init:0000000000000000 $t
     /tmp/ccoP5Ehd.s:657    .text._stats_init:0000000000000000 _stats_init
     /tmp/ccoP5Ehd.s:689    .text._stats_init:000000000000002c $d
     /tmp/ccoP5Ehd.s:695    .text._stats_increase_irq:0000000000000000 $t
     /tmp/ccoP5Ehd.s:701    .text._stats_increase_irq:0000000000000000 _stats_increase_irq
     /tmp/ccoP5Ehd.s:729    .text._stats_ctxswc:0000000000000000 $t
     /tmp/ccoP5Ehd.s:735    .text._stats_ctxswc:0000000000000000 _stats_ctxswc
     /tmp/ccoP5Ehd.s:772    .text._stats_start_measure_crit_thd:0000000000000000 $t
     /tmp/ccoP5Ehd.s:778    .text._stats_start_measure_crit_thd:0000000000000000 _stats_start_measure_crit_thd
     /tmp/ccoP5Ehd.s:796    .text._stats_start_measure_crit_thd:000000000000000c $d
     /tmp/ccoP5Ehd.s:801    .text._stats_stop_measure_crit_thd:0000000000000000 $t
     /tmp/ccoP5Ehd.s:807    .text._stats_stop_measure_crit_thd:0000000000000000 _stats_stop_measure_crit_thd
     /tmp/ccoP5Ehd.s:825    .text._stats_stop_measure_crit_thd:000000000000000c $d
     /tmp/ccoP5Ehd.s:830    .text._stats_start_measure_crit_isr:0000000000000000 $t
     /tmp/ccoP5Ehd.s:836    .text._stats_start_measure_crit_isr:0000000000000000 _stats_start_measure_crit_isr
     /tmp/ccoP5Ehd.s:854    .text._stats_start_measure_crit_isr:000000000000000c $d
     /tmp/ccoP5Ehd.s:859    .text._stats_stop_measure_crit_isr:0000000000000000 $t
     /tmp/ccoP5Ehd.s:865    .text._stats_stop_measure_crit_isr:0000000000000000 _stats_stop_measure_crit_isr
     /tmp/ccoP5Ehd.s:883    .text._stats_stop_measure_crit_isr:000000000000000c $d
                            *COM*:0000000000000001 __gnu_lto_v1
                     .debug_frame:0000000000000010 $d
     /tmp/ccoP5Ehd.s:694    .text._stats_init:0000000000000034 $t

UNDEFINED SYMBOLS
ch
chTMObjectInit
chTMChainMeasurementToX
chTMStartMeasurementX
chTMStopMeasurementX
