ARM GAS  /tmp/ccXZND8E.s 			page 1


   1              		.syntax unified
   2              		.cpu cortex-m4
   3              		.fpu softvfp
   4              		.eabi_attribute 20, 1
   5              		.eabi_attribute 21, 1
   6              		.eabi_attribute 23, 3
   7              		.eabi_attribute 24, 1
   8              		.eabi_attribute 25, 1
   9              		.eabi_attribute 26, 1
  10              		.eabi_attribute 30, 6
  11              		.eabi_attribute 34, 1
  12              		.eabi_attribute 18, 4
  13              		.thumb
  14              		.file	"chtm.c"
  15              		.text
  16              	.Ltext0:
  17              		.section	.gnu.lto_.inline.4d2c82ca517a39e7,"",%progbits
  18 0000 789C6362 		.ascii	"x\234cb`b\300\006VBiv\006\006\026f\006\006&\226\017"
  18      6062C006 
  18      56426976 
  18      06061666 
  18      06062696 
  19 0015 7A0C2C10 		.ascii	"z\014,\020\265\214\0142\322@\021\223\017K\231aBL\014"
  19      B58C0C32 
  19      D2401193 
  19      0F4B9961 
  19      424C0C
  20 0028 9C1C4092 		.ascii	"\234\034@\222\257\241\026&\302\314\300\306\207\252\215"
  20      AFA11626 
  20      C2CCC0C6 
  20      87AA8D
  21 0037 891B48B0 		.ascii	"\211\033H\2600pI\243\012\263\360\302\344\330\030x\324"
  21      307049A3 
  21      0AB3F0C2 
  21      E4D81878 
  21      D4
  22 0048 804C8E09 		.ascii	"\200L\216\011~(Z\020\004;\003\267\014\220\311v\300\016"
  22      7E285A10 
  22      043B03B7 
  22      0C90C976 
  22      C00E
  23 005a 53330300 		.ascii	"S3\003\000J\323\012|"
  23      4AD30A7C 
  24              		.text
  25              		.section	.gnu.lto_port_rt_get_counter_value.4d2c82ca517a39e7,"",%progbits
  26 0000 789C6362 		.ascii	"x\234cb`b@\007\322@l\310\310\300\240\007\342\26000\002"
  26      60624007 
  26      D2406CC8 
  26      C8C0A007 
  26      E2B03030 
  27 0015 55303231 		.ascii	"U0212\003IfF\2400\003#C=\0233c}$\210\315\300\244\304"
  27      32034966 
  27      46A03003 
  27      23433D13 
  27      33637D24 
  28 002e B0B0A161 		.ascii	"\260\260\241a\326\203\243\373z\230gN9\320\262\240\341"
  28      D683A3FB 
ARM GAS  /tmp/ccXZND8E.s 			page 2


  28      7A98674E 
  28      39D0B2A0 
  28      E1
  29 003f CFFFFF8C 		.ascii	"\317\377\377\214\214\231 \311dF\206\010 \213Q\001L1"
  29      8C9920C9 
  29      64468608 
  29      208B5101 
  29      4C31
  30 0051 B1A05A03 		.ascii	"\261\240Z\003\3268\251a\367\223\200\023\015-\007\376"
  30      D638A961 
  30      F7938013 
  30      0D2D07FE 
  31 0061 FFB7CF04 		.ascii	"\377\267\317\004\331\201_\317z\246\003\017\376\377\357"
  31      D9815FCF 
  31      7AA6030F 
  31      FEFFEF
  32 0070 997F6CFB 		.ascii	"\231\177l\373\036\306~efF\006\240\036&\006\260e\014"
  32      1EC67E65 
  32      664606A0 
  32      1E2606B0 
  32      650C
  33 0082 AC0C2D0D 		.ascii	"\254\014-\015\015\023\024\300F\000A\010\230\014\005"
  33      0D1314C0 
  33      46004108 
  33      980C05
  34 0091 B99EF92C 		.ascii	"\271\236\371,C\323\216\033\373zd\023\031\0273\2622\244"
  34      43D38E1B 
  34      FB7A6413 
  34      191733B2 
  34      32A4
  35 00a3 333282CC 		.ascii	"32\202\314fnX\320\320\300\007Ts\226\341\320\255\002"
  35      666E58D0 
  35      D0C00754 
  35      7396E1D0 
  35      AD02
  36 00b5 98149336 		.ascii	"\230\024\2236\303\252\206\226\306\006\353LF\226\331"
  36      C3AA8696 
  36      C606EB4C 
  36      4696D9
  37 00c4 0CB380EA 		.ascii	"\014\263\200\352Xa\352\301.HbDvO(H\224\3714C#\007\003"
  37      5861EAC1 
  37      2E486244 
  37      764F2848 
  37      94F93443 
  38 00db 430A48E6 		.ascii	"C\012H\346\"C\343\001f\270Y\020E!\240P\003\261u\364"
  38      2243E301 
  38      66B85910 
  38      4521A050 
  38      03B175F4 
  39 00ef F4F4E128 		.ascii	"\364\364\341(\277X\277\250D\277 \277\250\244X\3371\310"
  39      BF58BFA8 
  39      44BF20BF 
  39      A8A458DF 
  39      31C8
  40 0101 D7D9B742 		.ascii	"\327\331\267B?9#9\277(5\276\314<W/\203\001\000C4P\023"
  40      3F392339 
  40      BF2835BE 
ARM GAS  /tmp/ccXZND8E.s 			page 3


  40      CC3C572F 
  40      83010043 
  41              		.text
  42              		.section	.gnu.lto_tm_stop.4d2c82ca517a39e7,"",%progbits
  43 0000 789CBD93 		.ascii	"x\234\275\223MhSA\020\307g\336G^\2324M\032Q\024\024"
  43      4D685341 
  43      10C767DE 
  43      475E9A34 
  43      4D1A5114 
  44 0015 8BDE2C24 		.ascii	"\213\336,$x\027\364\352\255\207\026\364\250\001c\016"
  44      7817F4EA 
  44      AD8716F4 
  44      A801630E 
  45 0025 45687BEF 		.ascii	"Eh{\357&)R\013B\254`\213B\265\007=\010jQ\004\365\364"
  45      2629520B 
  45      42AC608B 
  45      42B5073D 
  45      086A5104 
  46 003b 0E1E12A4 		.ascii	"\016\036\022\244`/~\004ZC1\242\027\311E\214(\2563\357"
  46      602F7E04 
  46      5A4331A2 
  46      17C9458C 
  46      28AE33EF 
  47 004f BDCDAB35 		.ascii	"\275\315\2535$/9\270$\263\373f\3677\363\237\375\320"
  47      242F39B8 
  47      24B3FB66 
  47      F737F39F 
  47      FDD0
  48 0061 4083DDED 		.ascii	"@\203\335\355\004\375\237[\000\207\371\303\002\244\025"
  48      04FD9F5B 
  48      0087F9C3 
  48      02A415
  49 0070 A8693A80 		.ascii	"\250i:\200\320\0142\206\216\324\241\241\231\354\011"
  49      D00C3286 
  49      8ED4A1A1 
  49      99EC09
  50 007f B1C744EA 		.ascii	"\261\307D\3520\204H\000\302\254\246\033f\010g\317\362"
  50      30844800 
  50      C2ACA61B 
  50      660867CF 
  50      F2
  51 0090 27C48FC0 		.ascii	"'\304\217\300\252\020\213\265\273+\257VQ,\212|C\312"
  51      AA108BB5 
  51      BB2BAF56 
  51      512C8A7C 
  51      43CA
  52 00a2 788EA732 		.ascii	"x\216\2472\010g0\2078\342t\034{gs1\361\344\343XY\314"
  52      08673087 
  52      38E2741C 
  52      7B677331 
  52      F1E4E358 
  53 00b8 D9529E0C 		.ascii	"\331R\236\014\314\330\337\352\225~R\275\357=\225\270"
  53      CCD8DFEA 
  53      957E52BD 
  53      EF3D95B8 
  54 00c8 5EEF5DDE 		.ascii	"^\357]\336\367\007\033$o[\224\304o)i\231\356s\247\\"
  54      F7071B24 
ARM GAS  /tmp/ccXZND8E.s 			page 4


  54      6F5B94C4 
  54      6F296999 
  54      EE73A75C 
  55 00dc 2EDC36D7 		.ascii	".\3346\327R\357\271\304\346\347\261\371\242-\232RZ\301"
  55      52EFB9C4 
  55      E6E7B1F9 
  55      A22D9A52 
  55      5AC1
  56 00ee 13BDED03 		.ascii	"\023\275\355\003\262\177|)\367\263\351\233}\234\357"
  56      B27F7C29 
  56      F7B3E99B 
  56      7D9CEF
  57 00fd CFA7FD9C 		.ascii	"\317\247\375\234\257-\377\237\302k\227o\034X\270SP'"
  57      AF2DFF9F 
  57      C26B976F 
  57      1C58B853 
  57      5027
  58 010f DC157BA4 		.ascii	"\334\025{\244\3315)\177]]z\263\037\367 N\"=K\302t6\006"
  58      D935297F 
  58      5D5D7AB3 
  58      1FF7204E 
  58      223D4BC2 
  59 0126 1B937CF4 		.ascii	"\033\223|\364\310hd\321\210\216\200F\003d\364\010\217"
  59      C86864D1 
  59      888E8046 
  59      0364F408 
  59      8F
  60 0137 A23C1A64 		.ascii	"\242<\032d\023\343\317!6q6\0116\303l\222\340\310\000"
  60      13E3CF21 
  60      36713609 
  60      36C36C92 
  60      E0C800
  61 014a 13E68428 		.ascii	"\023\346\204(\2158\202\250\215;v\202\337\270\276\016"
  61      8D3882A8 
  61      8D3B7682 
  61      DFB8BE0E 
  62 015a 85EAB315 		.ascii	"\205\352\263\025\375\034\256\241\011Y\324F\341X\016"
  62      FD1CAEA1 
  62      0959D446 
  62      E1580E
  63 0169 8D5B7093 		.ascii	"\215[p\223\004\233YD\026\036r\344\236G%|\035\212\363"
  63      049B5944 
  63      161E72E4 
  63      9E47257C 
  63      1D8AF3
  64 017c C50B0AD1 		.ascii	"\305\013\012\321\211\342U\006:S\205\323\356\304(\334"
  64      89E25506 
  64      3A5385D3 
  64      EEC428DC 
  65 018c 17D4625D 		.ascii	"\027\324b]\242e\371\256\261\210w[\007UD\303\021a\265"
  65      A265F9AE 
  65      B188775B 
  65      075544C3 
  65      1161B5
  66 019f C7D01771 		.ascii	"\307\320\027q\245\370\030\025\023\312\362J\303\363\337"
  66      A5F81815 
  66      13CAF24A 
ARM GAS  /tmp/ccXZND8E.s 			page 5


  66      C3F3DF
  67 01ae D3943FEC 		.ascii	"\323\224?\354LYN\216\312\232\265[[\307$D\273\332\232"
  67      4C594E8E 
  67      CA9AB55B 
  67      5BC72444 
  67      BBDA9A
  68 01c1 5B7B55BC 		.ascii	"[{U\274\001\227M\3440\334\036\325Z\372\012\325FRa\221"
  68      01974DE4 
  68      30DC1ED5 
  68      5AFA0AD5 
  68      46526191 
  69 01d5 602515BE 		.ascii	"`%\025\276\026_\264J\212\022\346m\366\303\226s\220$"
  69      165FB44A 
  69      8A12E66D 
  69      F6C39673 
  69      9024
  70 01e7 D0D4BF3B 		.ascii	"\320\324\277;\335M\021\241\256\250\345\3331\025,\026"
  70      DD4D11A1 
  70      AEA8E5DB 
  70      31152C16 
  71 01f7 5055F575 		.ascii	"PU\365uT!C\235\020\335C\312\360\362S\336\317B\224\177"
  71      5421439D 
  71      10DD43CA 
  71      F0F253DE 
  71      CF42947F 
  72 020b EB277895 		.ascii	"\353'x\225{\355>\354SK\342\001\205TJ\221\277N\360x\027"
  72      7BED3EEC 
  72      534BE201 
  72      85544A91 
  72      BF4EF078 
  73 0220 29145965 		.ascii	")\024Ye5\274\254M\277\374D\357\345\017wB\324\373\246"
  73      35BCAC4D 
  73      BFFC44EF 
  73      E50F7742 
  73      D4FBA6
  74 0233 F2EB7EF9 		.ascii	"\362\353~\371\011\242v\226ozB\226\267k\255[\232\014"
  74      09A27696 
  74      6F7A4296 
  74      B76BAD5B 
  74      9A0C
  75 0245 5A7FC30A 		.ascii	"Z\177\303\012X\277\341\325\237TiiB\337\200|m\341\250"
  75      58BFE1D5 
  75      9F546969 
  75      42DF807C 
  75      6DE1A8
  76 0258 1B41B571 		.ascii	"\033A\265q\216\317W\344P*\225n\375.M\247\247f\322\323"
  76      8ECF57E4 
  76      502A956E 
  76      FD2E4DA7 
  76      A766D2D3 
  77 026c 539974E6 		.ascii	"S\231t\346\342\314d*\003\177\000\020.\237\273"
  77      E2CC642A 
  77      037F0010 
  77      2E9FBB
  78              		.text
  79              		.section	.gnu.lto_chTMObjectInit.4d2c82ca517a39e7,"",%progbits
  80 0000 789C6362 		.ascii	"x\234cb`b@\007\"@\334\317\310\300 \017\342030\002U0"
ARM GAS  /tmp/ccXZND8E.s 			page 6


  80      60624007 
  80      2240DCCF 
  80      C8C0200F 
  80      E2303330 
  81 0017 32310205 		.ascii	"21\002\005\030\030\031\352\231\030\353#\031\301\312"
  81      181819EA 
  81      9918EB23 
  81      19C1CA
  82 0026 D6331D78 		.ascii	"\3263\035x\360\377\377\272I\355\353{\030\3472\001\025"
  82      F0FFFFBA 
  82      49EDEB7B 
  82      18E73201 
  82      15
  83 0037 E482C559 		.ascii	"\344\202\305Y\031Z\032\032&(00$\203\271!`2\024d\010"
  83      195A1A1A 
  83      26283030 
  83      2483B921 
  83      60321464 
  84 004c F35986A6 		.ascii	"\363Y\206\246\035?>\335`Jd\\\310\310\312\240\315\260"
  84      1D3F3EDD 
  84      604A645C 
  84      C8C8CAA0 
  84      CDB0
  85 005e AA010878 		.ascii	"\252\001\010x3\031\031f3\314b\314ddLgd\214\000\322\020"
  85      33191966 
  85      33CC62CC 
  85      64644C67 
  85      648C00D2 
  86 0073 1725416C 		.ascii	"\027%Ala\000\2110\377\007\002~ \007d\302\214\317D\233"
  86      61008930 
  86      FF07027E 
  86      200764C2 
  86      8CCF449B 
  87 0087 C0883081 		.ascii	"\300\2100\201\001\252{\007\361\272\2310u\337\300\242"
  87      01AA7B07 
  87      F1BA9930 
  87      75DFC0A2 
  88 0097 9B05BB6E 		.ascii	"\233\005\273nfL\335?\260\350f\305\256\233\005\256\233"
  88      664CDD3F 
  88      B0E866C5 
  88      AE9B05AE 
  88      9B
  89 00a8 0DC4B8C8 		.ascii	"\015\304\270\310\320\370\340\2062D/\014\204\200\274"
  89      D0F8E086 
  89      32442F0C 
  89      8480BC
  90 00b7 07522FAB 		.ascii	"\007R/\253\247\247\017G\371\305\372E%\372\305E\311\372"
  90      A7A70F47 
  90      F9C5FA45 
  90      25FAC545 
  90      C9FA
  91 00c9 C91925B9 		.ascii	"\311\031%\271z\311\014\000~\313_m"
  91      7AC90C00 
  91      7ECB5F6D 
  92              		.text
  93              		.section	.gnu.lto_chTMStartMeasurementX.4d2c82ca517a39e7,"",%progbits
  94 0000 789C6362 		.ascii	"x\234cb`b@\007\"@\374\021\210\345A\034f\006F\240\012"
ARM GAS  /tmp/ccXZND8E.s 			page 7


  94      60624007 
  94      2240FC11 
  94      88E5411C 
  94      660646A0 
  95 0015 46264646 		.ascii	"F&FF \207\221\241\236\211\261>\022\304d`TbX\330\320"
  95      208791A1 
  95      9E89B13E 
  95      12C46460 
  95      546258D8 
  96 002a 30E941EB 		.ascii	"0\351A\353\357\037\2143\247\034hY\320\360\347\377\177"
  96      EF1F8C33 
  96      A71C6859 
  96      D0F0E7FF 
  96      7F
  97 003b 46C64C90 		.ascii	"F\306L\220d2#C\004\220\305\250\000\246\230XP\315_\317"
  97      64322343 
  97      0490C5A8 
  97      00A69858 
  97      50CD5FCF 
  98 004f 74E0C1FF 		.ascii	"t\340\301\377\377k\366\376x\374\226Q\220\231\221\001"
  98      FF6BF6FE 
  98      78FC9651 
  98      90999101 
  99 005f A8858931 		.ascii	"\250\205\2111\027l(+CKC\303\004\005\260\011@\020\002"
  99      176C282B 
  99      434B43C3 
  99      0405B009 
  99      401002
 100 0072 2643412E 		.ascii	"&CA.`>\317\320\374\340\315c\366D\306E\214\254\014\351"
 100      603ECFD0 
 100      FCE0CD63 
 100      F644C645 
 100      8CAC0CE9 
 101 0086 8C8CD50C 		.ascii	"\214\214\325\014\277\032:\032\0042\031\231\223\301n"
 101      BF1A3A1A 
 101      04321999 
 101      93C16E
 102 0095 63009A03 		.ascii	"c\000\232\003\264\350,C\323\311\015PU\332\014\253\032"
 102      B4E82C43 
 102      D3C90D50 
 102      55DA0CAB 
 102      1A
 103 00a6 80803793 		.ascii	"\200\2007\223\221u6\303,\240K\330\322\031\231@.b\007"
 103      917536C3 
 103      2CA04BD8 
 103      D2199940 
 103      2E6207
 104 00b9 AB4F8268 		.ascii	"\253O\202h\003\031\306\300p\221\241\361\301[e\210>\030"
 104      0319C6C0 
 104      7091A1F1 
 104      C15B6588 
 104      3E18
 105 00cb 08014980 		.ascii	"\010\001I\200\302GVOO\037\216\362\213\365\213J\364\213"
 105      C247564F 
 105      4F1F8EF2 
 105      8BF58B4A 
 105      F48B
ARM GAS  /tmp/ccXZND8E.s 			page 8


 106 00dd 8B92F593 		.ascii	"\213\222\365\2233Jr\365\222\031\000\347\015?d"
 106      334A72F5 
 106      921900E7 
 106      0D3F64
 107              		.text
 108              		.section	.gnu.lto_chTMStopMeasurementX.4d2c82ca517a39e7,"",%progbits
 109 0000 789C8D50 		.ascii	"x\234\215P=K\003A\024\234\331\313\305\304J\304J\020"
 109      3D4B0341 
 109      149CD9CB 
 109      C5C44AC4 
 109      4A10
 110 0012 836063E0 		.ascii	"\203`c\340\356\317DP;\335\"^q\010\311u\026\331h\020"
 110      EECF4450 
 110      3BDD225E 
 110      7108C975 
 110      16D96810 
 111 0026 4D2562A3 		.ascii	"M%b\2436~ \210\215`/^c)!\377\340\300\277`%\201\363\355"
 111      367E2088 
 111      8D602F5E 
 111      632921FF 
 111      E0C0BF60 
 112 003e 9E39D0CA 		.ascii	"\2369\320\312\307\356{owgfgWA\341o,\310L\010,\333\205"
 112      C7EE7B6F 
 112      77676667 
 112      5741E16F 
 112      2CC84C08 
 113 0055 070A828A 		.ascii	"\007\012\202\212\262\001\242\247\330\333\264-\324\012"
 113      B201A2A7 
 113      D8DBB42D 
 113      D40A
 114 0063 6E8C39CB 		.ascii	"n\2149\313\356o\307\2748O\007\327f\222\347dd\0175\261"
 114      EE6FC7BC 
 114      384F07D7 
 114      6692E764 
 114      640F35B1 
 115 0077 211D1BAE 		.ascii	"!\035\033\256\250\312o\375\202h\236\037L\335\221\274"
 115      A8CA6FFD 
 115      82689E1F 
 115      4CDD91BC 
 116 0087 7F709E54 		.ascii	"\177p\236T\232\345\371\344\365\363c\310\371\012!\024"
 116      9AE5F9E4 
 116      F5F363C8 
 116      F90A2114 
 117 0097 6593C7D8 		.ascii	"e\223\307\330\271\36110\346\264\341d$Z.\257[\353\336"
 117      B9F13130 
 117      E6B4E164 
 117      245A2EAF 
 117      5BEBDE
 118 00aa 0887D9C9 		.ascii	"\010\207\331\311[u\233w\364\321&\367\361e\216\315\\"
 118      5B759B77 
 118      F4D126F7 
 118      F1658ECD 
 118      5C
 119 00bb 444FBB47 		.ascii	"DO\273GAt\344\266w\034lM1\252\211\265\210~\023\217F"
 119      4174E4B6 
 119      771C6C4D 
 119      31AA89B5 
ARM GAS  /tmp/ccXZND8E.s 			page 9


 119      887E138F 
 120 00d0 E245FC54 		.ascii	"\342E\374T\257p\3317\2265S\362k\261\343[\2735\247\263"
 120      AF70D937 
 120      963553F2 
 120      6BB1E35B 
 120      BB35A7B3 
 121 00e4 53C849FD 		.ascii	"S\310I\375i0\302Q\272X\250\002%\261\256Y\374z\233\236"
 121      6930C251 
 121      BA58A802 
 121      25B1AE59 
 121      FC7A9B9E 
 122 00f8 1892FB22 		.ascii	"\030\222\373\"\316\002c\364\263\341\352\024]D\313JY"
 122      CE0263F4 
 122      B3E1EA14 
 122      5D44CB4A 
 122      59
 123 0109 F0521084 		.ascii	"\360R\020\204\345\330\353\206\235$\354vt\250w\2238\320"
 123      E5D8EB86 
 123      9D24EC76 
 123      74A87793 
 123      38D0
 124 011b F806833B 		.ascii	"\370\006\203;W\360"
 124      57F0
 125              		.text
 126              		.section	.gnu.lto__tm_init.4d2c82ca517a39e7,"",%progbits
 127 0000 789CAD52 		.ascii	"x\234\255R\317K\002A\024\376\336\254f)DA\207.\221\330"
 127      CF4B0241 
 127      14FEDEAC 
 127      66294441 
 127      872E91D8 
 128 0014 2DC125E8 		.ascii	"-\301%\350O1\260\243\356\301\346 \201z)\017\216&\341"
 128      4F31B0A3 
 128      EEC1E620 
 128      817A290F 
 128      8E26E1
 129 0027 A1834410 		.ascii	"\241\203D\020\325E\253S\364\343`\007/\301\322\255\203"
 129      D545AB53 
 129      F4E36007 
 129      2FC1D2AD 
 129      83
 130 0038 44D7E8B0 		.ascii	"D\327\350\260\021]\362\037\220\010\266\231\235U0\244"
 130      115DF21F 
 130      9008B699 
 130      9D5530A4 
 131 0048 2E3D76F7 		.ascii	".=v\367}3\373}\357{\363v\031\030~\306\234\274\267\344"
 131      7D33FB7D 
 131      EF7BF376 
 131      19187EC6 
 131      9CBCB7E4 
 132 005c 764C2D0C 		.ascii	"vL-\014\220\204\304\210\344\202PfT^W\020,\206\226\020"
 132      9084C488 
 132      E4825066 
 132      545E5710 
 132      2C869610 
 133 0070 FBCE7BCF 		.ascii	"\373\316{\317aG\007v\255)\276\\\227\210\253\227\026"
 133      61470776 
 133      AD29BE5C 
ARM GAS  /tmp/ccXZND8E.s 			page 10


 133      9788AB97 
 133      16
 134 0081 21251145 		.ascii	"!%\021E\275\304\002\243\365\225\320n\330w\273\207$\232"
 134      BDC402A3 
 134      F595D06E 
 134      D877BB87 
 134      249A
 135 0093 7BA2EAB8 		.ascii	"{\242\352\270\356\"'\203!JC\245\2553\233\037\225\336"
 135      EE222783 
 135      214A43A5 
 135      AD339B1F 
 135      95DE
 136 00a5 305BB25F 		.ascii	"0[\262_\332\267\257\035\232e\004\317\015A\324\204hD"
 136      DAB7AF1D 
 136      9A6504CF 
 136      0D41D484 
 136      6844
 137 00b7 D3744A31 		.ascii	"\323tJ1\355.#\351=\327T\367F\027\325N\377\303fi:\247"
 137      ED2E23E9 
 137      3DD754F7 
 137      4617D54E 
 137      FFC36669 
 138 00cd 20E2B810 		.ascii	" \342\270\0202V8\005|\030\341\024<\301qE\210\031N\023"
 138      32563805 
 138      7C18E114 
 138      3CC17145 
 138      88194E13 
 139 00e1 257C8ABA 		.ascii	"%|\212\272B\241\234WC5\022\362\3543\004?k\220\322\307"
 139      42A19C57 
 139      433512F2 
 139      EC33043F 
 139      6B90D2C7 
 140 00f5 051E5173 		.ascii	"\005\036Qs.\317\302\272>0\2540i\371\314\022\2669M\351"
 140      2ECFC2BA 
 140      3E30AC30 
 140      69F9CC12 
 140      B6394DE9 
 141 0109 0E7D16A7 		.ascii	"\016}\026\247\260\026^\355L\217\023\262?\205\327o\221"
 141      B0165EED 
 141      4C8F13B2 
 141      3F85D76F 
 141      91
 142 011a 7142E357 		.ascii	"qB\343W\241\234\305s_~3\275\227%\212cYNB\02334\370\035"
 142      A19CC573 
 142      5F7E33BD 
 142      97258A63 
 142      594E4213 
 143 0132 24EDA111 		.ascii	"$\355\241\021\376\357\201eU\356\342\276\347\333k\327"
 143      FEEF8165 
 143      55EEE2BE 
 143      E7DB6BD7 
 144 0142 55B4455D 		.ascii	"U\264E]jT\343O\2508\235\245\301\261t$\225J5\266\220"
 144      6A54E34F 
 144      A8389DA5 
 144      C1B17424 
 144      954A35B6 
 145 0157 4898C36B 		.ascii	"H\230\303k\263`\346\213f!o\231\326F1\227\260\300\212"
ARM GAS  /tmp/ccXZND8E.s 			page 11


 145      B360E68B 
 145      66216F99 
 145      D6463197 
 145      B0C08A
 146 016a B96F0B6C 		.ascii	"\271o\013l\230\351"
 146      98E9
 147              		.text
 148              		.section	.gnu.lto_chTMChainMeasurementToX.4d2c82ca517a39e7,"",%progbits
 149 0000 789C8D90 		.ascii	"x\234\215\220\277K\303@\024\307\277\357\222Xu\321\301"
 149      BF4BC340 
 149      14C7BFEF 
 149      925875D1 
 149      C1
 150 0011 45412C82 		.ascii	"EA,\202\213\205\344\237\251Pq\322\033j\206\"\264\335"
 150      8B85E49F 
 150      A95071D2 
 150      1B6A8622 
 150      B4DD
 151 0023 1C7AADAD 		.ascii	"\034z\255\255H\251P\304\305_\320\242\223\021\\\035\343"
 151      48A950C4 
 151      C55FD0A2 
 151      93115C1D 
 151      E3
 152 0034 E820B583 		.ascii	"\350 \265\203\213\213\3713D\304\370\356\316\026\024"
 152      8B8BF933 
 152      44C4F8EE 
 152      CE1614
 153 0043 041F97E4 		.ascii	"\004\037\227\344%y\237\317}\023\001\201\3375\307\307"
 153      25799FCF 
 153      7D130181 
 153      DF35C7C7 
 154 0053 05014BFA 		.ascii	"\005\001K\372\306\001\361\004\011\342\007 \324\004\325"
 154      C601F104 
 154      09E20720 
 154      D404D5
 155 0062 D6750BB1 		.ascii	"\326u\013\261\214\276RGI+\272\027'\307q\263\247>\322"
 155      8CBE5247 
 155      492BBA17 
 155      27C771B3 
 155      A73ED2
 156 0075 9428D42F 		.ascii	"\224(\324/%\241\300\035e\315E\270?\375\026\214_\333"
 156      25A1C01D 
 156      65CD45B8 
 156      3FFD168C 
 156      5FDB
 157 0087 87F3ED5E 		.ascii	"\207\363\355^\243\253>\231\373\007v+\342$M\317\237\257"
 157      A3AB3E99 
 157      FB07762B 
 157      E2244DCF 
 157      9FAF
 158 0099 3A1D8A84 		.ascii	":\035\212\204G`FP\2118\"w.w\332\341\241\251T7kd\\ys"
 158      47604650 
 158      89382277 
 158      2E77DAE1 
 158      A1A95437 
 159 00b2 5ED3DFE0 		.ascii	"^\323\337\340\014\260\227\334\264\2467\351\222<\024"
 159      0CB097DC 
ARM GAS  /tmp/ccXZND8E.s 			page 12


 159      B4A637E9 
 159      923C14
 160 00c1 8976F1AE 		.ascii	"\211v\361\256\016\324lH\2164(\330\303{>\242\361\360"
 160      0ED46C48 
 160      8E3428D8 
 160      C37B3EA2 
 160      F1F0
 161 00d3 94B15339 		.ascii	"\224\261S9\\+\256\231\220\2743\234r\250\211\"\011\035"
 161      5C2BAE99 
 161      90BC339C 
 161      72A88922 
 161      091D
 162 00e5 2E63E6B7 		.ascii	".c\346\267,\246e\206{y\213\2064\362;9\254Z\256\316\212"
 162      2CA66586 
 162      7B798B86 
 162      34F23B39 
 162      AC5AAECE 
 163 00fa 8DBF5860 		.ascii	"\215\277X`\200\375x\301R\3008\324\244$\361-wYV\260\277"
 163      80FD78C1 
 163      52C038D4 
 163      A424F12D 
 163      775956B0 
 164 010f 28A42960 		.ascii	"(\244)`\210zr\2672\"l\345u\004\015,\372~0^;\225\240"
 164      887A72B7 
 164      32226CE5 
 164      75040D2C 
 164      FA7E305E 
 165 0126 5C0D2A65 		.ascii	"\\\015*e\031\310\355j\311\227\370\002\3040aR"
 165      19C8ED6A 
 165      C997F802 
 165      C4306152 
 166              		.text
 167              		.section	.gnu.lto_.symbol_nodes.4d2c82ca517a39e7,"",%progbits
 168 0000 789C4DCA 		.ascii	"x\234M\312\271\015\204@\020D\321\252\356\001\342$\222"
 168      B90D8440 
 168      1044D1AA 
 168      EE01E224 
 168      92
 169 0011 92701613 		.ascii	"\222p\026\023\207\004\010\201\020\010\000\023\033m\006"
 169      87040881 
 169      10080013 
 169      1B6D06
 170 0020 7BE2210E 		.ascii	"{\342!\016\015b\332\371\375\2442\030z\304\263\007\005"
 170      0D62DAF9 
 170      FDA43218 
 170      7AC4B307 
 170      05
 171 0031 342320B5 		.ascii	"4# \265ui/\212\011?\224EN5\355Ky\302\037\025nf\013\367"
 171      75692F8A 
 171      093F9445 
 171      4E35ED4B 
 171      79C21F15 
 172 0049 0FF6A6B2 		.ascii	"\017\366\246\262d\364\247\362\233\356@5\257\364p\225"
 172      64F4A7F2 
 172      9BEE4035 
 172      AFF47095 
 173 0059 188EE686 		.ascii	"\030\216\346\206\356\254G\007<\217\026qW\36046\346T"
ARM GAS  /tmp/ccXZND8E.s 			page 13


 173      EEAC4707 
 173      3C8F1671 
 173      57F03436 
 173      E654
 174 006b 3B23     		.ascii	";#"
 175              		.text
 176              		.section	.gnu.lto_.refs.4d2c82ca517a39e7,"",%progbits
 177 0000 789C6362 		.ascii	"x\234cb`b\340f\200\000F\026\006V&6FVFV\006\000\001\363"
 177      6062E066 
 177      80004616 
 177      06562636 
 177      46564656 
 178 0018 002E     		.ascii	"\000."
 179              		.text
 180              		.section	.gnu.lto_.decls.4d2c82ca517a39e7,"",%progbits
 181 0000 789CBD5C 		.ascii	"x\234\275\\\013t\324\326\231\2264\343y\2001$mR\322%"
 181      0B74D4D6 
 181      999634E3 
 181      79803124 
 181      6D52D225 
 182 0014 E9A49BEE 		.ascii	"\351\244\233\356\266\335n\314#-\344t\333\220\343\320"
 182      B6DD6ECC 
 182      232DE474 
 182      DB90E3D0 
 183 0024 846D201C 		.ascii	"\204m \034 \273\354\331M'b,\360\204yU#c\322\335sV`\300"
 183      20BBECD9 
 183      4D27622C 
 183      F0847955 
 183      2363D2DD 
 184 003c C421C418 		.ascii	"\304!\304\030\002\204\36201\020\340$\015\340\204\200"
 184      0284F230 
 184      3110E024 
 184      0DE08480 
 185 004c 01A31482 		.ascii	"\001\243\024\202\215\311\3622\030\363r\206W\003\341"
 185      8DC9F232 
 185      18F37286 
 185      5703E1
 186 005b 844249C0 		.ascii	"\204BI\300N\034\274\367\376z\214\256F\032KCZ\035\353"
 186      4E1CBCF7 
 186      FE7A8CAE 
 186      461A4B43 
 186      5A1DEB
 187 006e D795AEEE 		.ascii	"\327\225\256\356w\377\327\375\357Kc\206b\250\217\030"
 187      77FFD7FD 
 187      EF4B6386 
 187      62A88F18 
 188 007e 8AEA46C7 		.ascii	"\212\352F\307\217\376\225\242\206\370(\012\375Q\277"
 188      8FFE95A2 
 188      86F8280A 
 188      FD51BF
 189 008d A4D28717 		.ascii	"\244\322\207\027\235\253\320\371\016:\333\320\331\216"
 189      9DABD0F9 
 189      0E3ADBD0 
 189      D98E
 190 009b CE0BE8BC 		.ascii	"\316\013\350\274\214\316\317\320I\243\263\203\"\017"
 190      8CCECFD0 
 190      49A3B383 
ARM GAS  /tmp/ccXZND8E.s 			page 14


 190      220F
 191 00a9 FCBE079D 		.ascii	"\374\276\007\235\265\350,@g>:\037A\365\374\034\235?"
 191      B5E82C40 
 191      673E3A1F 
 191      41F5FC1C 
 191      9D3F
 192 00bb 65E432BF 		.ascii	"e\3442\277P\256\253\024\214\010Cb\340\372\374J\375*"
 192      50AEAB14 
 192      8C084362 
 192      E0FAFC4A 
 192      FD2A
 193 00cd 06BEDF85 		.ascii	"\006\276\337\205\316:tnV\360\367\2403\017\235\015\350"
 193      CE3A746E 
 193      56F0F7A0 
 193      330F9D0D 
 193      E8
 194 00de DC81CEDD 		.ascii	"\334\201\316\335\350\254G\347V\005\027\343\270\320y"
 194      E8AC47E7 
 194      560517E3 
 194      B8D079
 195 00ed 189D2DE8 		.ascii	"\030\235-\350<f\340\265M\251\243V\207\353U\352\331\243"
 195      3C66E0B5 
 195      4DA9A356 
 195      87EB55EA 
 195      D9A3
 196 00ff D499A7E0 		.ascii	"\324\231\247\340\325+u4(\365\320Jy|=m\300\305z\362\031"
 196      D52B7534 
 196      28F5D04A 
 196      797C3D6D 
 196      C0C57AF2 
 197 0114 F88F2219 		.ascii	"\370\217\"\031\3370\324E+\230\214RF\325\3079\003\036"
 197      DF30D445 
 197      2B988C52 
 197      46D5C739 
 197      031E
 198 0126 D679EF2C 		.ascii	"\326y\357,x\367\241t'\272\306\3205\216\316\215\012f"
 198      78F7A174 
 198      27BAC6D0 
 198      358ECE8D 
 198      0A66
 199 0138 7F441E60 		.ascii	"\177D\036`d\035\\\240\322\266\304y\237P\231\266\273"
 199      641D5CA0 
 199      D2B6C479 
 199      9F5099B6 
 199      BB
 200 0149 6C524F9D 		.ascii	"lRO\235I\035\011F\346\377\204\242_\265\036,\213[\301"
 200      491D0946 
 200      E6FF84A2 
 200      5FB51E2C 
 200      8B5BC1
 201 015c D1FB8B99 		.ascii	"\321\373\213\231\237`\377\351eCG\252<\252\256\\JY\275"
 201      9F60FFE9 
 201      654347AA 
 201      3CAAAE5C 
 201      4A59BD
 202 016f 2C5FA0F3 		.ascii	",_\240\363\206\001\377{\324\012Q:\224\232\3250\267\360"
 202      8601FF7B 
ARM GAS  /tmp/ccXZND8E.s 			page 15


 202      D40A513A 
 202      949AD530 
 202      B7F0
 203 0181 75519A29 		.ascii	"uQ\232)\"7\027\351\300\275\324k\":jf\213\"-\370\251"
 203      223717E9 
 203      C0BDD46B 
 203      223A6A66 
 203      8B222DF8 
 204 0196 39A23803 		.ascii	"9\2428\003\337<\325\204X\230@\263t\201\237\012@\"\337"
 204      DF3CD584 
 204      589840B3 
 204      74819F0A 
 204      4022DF
 205 01a9 0F92FC80 		.ascii	"\017\222\374\200Z-\212U\251]\027\257\270D\321\307\322"
 205      5A2D8A55 
 205      A95D17AF 
 205      B844D1C7 
 205      D2
 206 01ba B5B41FD5 		.ascii	"\265\264\037\3258\231\246~L\255G8U\242xn(Me\036\366"
 206      3899A67E 
 206      4CAD4738 
 206      55A2786E 
 206      284D651E 
 207 01cf A1CF547C 		.ascii	"\241\317T|\370\001=\003\261\303\322o\002\370B\232\246"
 207      F8013D03 
 207      B1C3D26F 
 207      02F8429A 
 207      A6
 208 01e0 587A2DFD 		.ascii	"Xz-\375c\307P_U\356x\024\270\334\000@\373\015@,\355"
 208      63C7505F 
 208      55EE7814 
 208      B8DC0040 
 208      FB0D402C 
 209 01f5 F5EB7984 		.ascii	"\365\353y\204{\365\005\214\006\331J\002\207\205\276"
 209      7BF5058C 
 209      06D94A02 
 209      8785BE
 210 0204 D45FF975 		.ascii	"\324_\371u3Yp\3117\350{\225\324\263.\031\215\241Z\015"
 210      335970C9 
 210      37E87B95 
 210      D4B32E19 
 210      8DA15A0D 
 211 0218 D250D43F 		.ascii	"\322P\324?Pk\220bd\013/\224\334\262qp\241U\364\367,"
 211      506B9062 
 211      640B2F94 
 211      DCB27170 
 211      A155F4F7 
 212 022d A021FB6D 		.ascii	"\240!\373m\232\0107\212\243\034>\270\345'V\216\302\322"
 212      9A08378A 
 212      A31C3EB8 
 212      E527568E 
 212      C2D2
 213 023f BFBCC792 		.ascii	"\277\274\307\222\331\215\012\263.pE\324~*\323\346\272"
 213      D98D0AB3 
 213      2E7045D4 
 213      7E2AD3E6 
 213      BA
ARM GAS  /tmp/ccXZND8E.s 			page 16


 214 0250 9B9A8F51 		.ascii	"\233\232\217Q\002s\316\323\232\264\022\255\"\364O\233"
 214      0273CED3 
 214      9AB412AD 
 214      22F44F9B 
 215 0260 6E67F5C1 		.ascii	"ng\365\301A`\272:\372n\204\263\221!\205\355\031\007"
 215      4160BA3A 
 215      FA6E84B3 
 215      912185ED 
 215      1907
 216 0272 73B20595 		.ascii	"s\262\005\225\225K\001\252(m\332\233/\272\345\347\224"
 216      954B01AA 
 216      286DDA9B 
 216      2FBAE5E7 
 216      94
 217 0283 4179BAE3 		.ascii	"Ay\272\343A\252\006q,\325\355]v\237X\363GZu\362\335"
 217      41AA0671 
 217      2CD5ED5D 
 217      769F58F3 
 217      475A75F2 
 218 0298 C0032E6B 		.ascii	"\300\003.k&\271\222\224\017\345\005\022\357\335\275"
 218      26B99294 
 218      0FE50512 
 218      EFDDBD
 219 02a7 F955AC0A 		.ascii	"\371U\254\012\326\344\030,@\200m\321\203\035\260\003"
 219      D6E4182C 
 219      40806DD1 
 219      831DB003 
 220 02b7 E6B3E66C 		.ascii	"\346\263\346l+\006s\320\370\267\315\375\005\330f\027"
 220      2B0673D0 
 220      F8B7CDFD 
 220      05D86617 
 221 02c7 D4DEC218 		.ascii	"\324\336\302\030\233\325\233\264\343v\305P'\035\013"
 221      9BD59BB4 
 221      E376C550 
 221      271D0B
 222 02d6 416824B5 		.ascii	"Ah$\265\363\310\201\371tm\2718\247\334\243\210\"\315"
 222      F3C881F9 
 222      746DB938 
 222      A7DCA388 
 222      22CD
 223 02e8 16E7D0D3 		.ascii	"\026\347\320\3237\015\320\012\014\327\303\250\302\\"
 223      370DD00A 
 223      0CD7C3A8 
 223      C25C
 224 02f6 5622D91E 		.ascii	"V\"\331\036\020\3464c\032llA\235\2518\250F\256F\000"
 224      10E63463 
 224      1A6C6C41 
 224      9DA938A8 
 224      46AE4600 
 225 030a BB983B58 		.ascii	"\273\230;X\315W\315\003\260\2536\003\320\325\014\025"
 225      CD57CD03 
 225      B0AB3603 
 225      D0D50C15 
 226 031a FB0D1AF6 		.ascii	"\373\015\032\366\223\032\366\373\323\211n\365 \343\362"
 226      931AF6FB 
 226      D3896EF5 
 226      20E3F2
ARM GAS  /tmp/ccXZND8E.s 			page 17


 227 0329 5FB50C43 		.ascii	"_\265\014Cu\032\315I\010\251$\373\231\370\244\331\241"
 227      751ACD49 
 227      08A924FB 
 227      99F8A4D9 
 227      A1
 228 033a 6FCA2CFD 		.ascii	"o\312,\375>\375\003D\267\322\017\"Z\017t\007\320\006"
 228      3EFD0344 
 228      B7D20F22 
 228      5A0F7407 
 228      D006
 229 034c A0BB11D5 		.ascii	"\240\273\021\325\016\253\030\265\231\356\255\276\242"
 229      0EAB18B5 
 229      99EEADBE 
 229      A2
 230 0359 8429355A 		.ascii	"\204)5Zf\334\247c.\205\345\232\351\"M\361\020U+\212"
 230      66DCA763 
 230      2E85E59A 
 230      E9224DF1 
 230      10552B8A 
 231 036d D5385A96 		.ascii	"\3258Z\226\240h\351\226\241\031j.\274\366\216E\340U"
 231      A068E996 
 231      A1196A2E 
 231      BCF68E45 
 231      E055
 232 037f 1890CB4A 		.ascii	"\030\220\313Jg65\323\342\335jc\256\352\241$\260\245"
 232      673635D3 
 232      E2DD6A63 
 232      AEEAA124 
 232      B0A5
 233 0391 946CE79E 		.ascii	"\224l\347\236R\213-\264SL\351#D\351\324\246\3515\264"
 233      528B2DB4 
 233      534CE923 
 233      44E9D4A6 
 233      E935B4
 234 03a4 E881384E 		.ascii	"\350\2018N)\345\010}\037\312\354\023R\207\244\005\025"
 234      29E5087D 
 234      1FCAEC13 
 234      5287A405 
 234      15
 235 03b5 FB69B15A 		.ascii	"\373i\261Z\354\352\356.wS\366{\204\023d\217 Ko\320\353"
 235      ECEAEE2E 
 235      7753F67B 
 235      8413648F 
 235      204B6FD0 
 236 03ca EF4DF52A 		.ascii	"\357M\365*\326a\011\345\327\217 \226X\272-\273JU\011"
 236      D66109E5 
 236      D78F2096 
 236      58BA2DBB 
 236      4A5509
 237 03dd C557C459 		.ascii	"\305W\304Y\375hM\2766\243|\247L\345;\326\370*\012\371"
 237      FD684DBE 
 237      36A37CA7 
 237      4CE53BD6 
 237      F82A0AF9 
 238 03f1 33A4EEEE 		.ascii	"3\244\356\356]\303\025\276\031j\003\301\031\310\300"
 238      5DC315BE 
 238      196A03C1 
ARM GAS  /tmp/ccXZND8E.s 			page 18


 238      19C8C0
 239 0400 50928B26 		.ascii	"P\222\213&\370\274a\344\263\335&\237\273\3041\37556"
 239      F8BC61E4 
 239      B3DD269F 
 239      BBC431FD 
 239      3536
 240 0412 DB8D6C7E 		.ascii	"\333\215l~l\312\346\355\306\374\252\351\251\356\356"
 240      6CCAE6ED 
 240      C6FCAAE9 
 240      A9EEEE
 241 0421 950195C7 		.ascii	"\225\001\225\307}\231<\262\364Y\265\260\302\343u#\217"
 241      7D993CB2 
 241      F459B5B0 
 241      C2E37523 
 241      8F
 242 0432 1772E1F1 		.ascii	"\027r\341\361\202\221\307\213\231<\326H\322\366\331"
 242      8291C78B 
 242      993CD648 
 242      D2F6D9
 243 0441 39B9CAA7 		.ascii	"9\271\312\247&#\235v\227\351H\007\035\353D\227\306\327"
 243      26239D76 
 243      97E94807 
 243      1DEB4497 
 243      C6D7
 244 0453 65235F57 		.ascii	"e#_WL\371:\334\2543\261}\276\256\232\2710qCe\204\212"
 244      4CF93ADC 
 244      AC33B17D 
 244      BEAE9AB9 
 244      30714365 
 245 0469 4FEC18E5 		.ascii	"O\354\030\345\226j\024\206\352\206\367?\263\0253\216"
 245      966A1486 
 245      EA86F73F 
 245      B315338E 
 246 0479 34E757D1 		.ascii	"4\347W\321j\301\231n\033\005\265\266\177\270\271o\345"
 246      6AC1996E 
 246      1B05B5B6 
 246      7FB8B96F 
 246      E5
 247 048a F39ADA3E 		.ascii	"\363\232\332>3\252\355:\251\266\357S\253\304TU\252\356"
 247      33AAED3A 
 247      A9B6EF53 
 247      ABC45455 
 247      AAEE
 248 049c 5CD34BF4 		.ascii	"\\\323K\364\007kD\251\012\351\352\032\335\335\3555\035"
 248      076B44A9 
 248      0AE9EA1A 
 248      DDDDED35 
 248      1D
 249 04ad 823DA756 		.ascii	"\202=\247V\334\206kT\372\305\355\347\245\007\352E\261"
 249      DC866B54 
 249      FAC5EDE7 
 249      A507EA45 
 249      B1
 250 04be 1F4B77C2 		.ascii	"\037Kw\302`\356\230\333\306`\216Db\250\263P\250\313"
 250      60EE98DB 
 250      C6608E44 
 250      62A8B350 
ARM GAS  /tmp/ccXZND8E.s 			page 19


 250      A8CB
 251 04d0 30A2437C 		.ascii	"0\242C|\035\232\266\004\260\273l\014\352Diy\3732\032"
 251      1D9AB604 
 251      B0BB6C0C 
 251      EA446979 
 251      FB321A
 252 04e3 0FEAD43A 		.ascii	"\017\352\324:uC\235\2246~\034\240\347\275\343\273\015"
 252      75439D94 
 252      367E1CA0 
 252      E7BDE3BB 
 252      0D
 253 04f4 802F3298 		.ascii	"\200/2\230\367+\026\274[\3420T\007\024)g28\227^\220"
 253      F72B16BC 
 253      5BE23054 
 253      07142967 
 253      3238975E 
 254 0509 39C7593D 		.ascii	"9\307Y=s\336r\322\222s\263\301\010R\372w\367\001|\005"
 254      73DE72D2 
 254      9273B3C1 
 254      0852FA77 
 254      F7017C05 
 255 051d 303E3BCF 		.ascii	"0>;\317\224\361\232\341V8\014\265\010\212Tf2\336\361"
 255      94F19AE1 
 255      56380CB5 
 255      088A5466 
 255      32DEF1
 256 0530 B0CC78A5 		.ascii	"\260\314x\245\015\306gH\327_^\016\343\350\036'\002\242"
 256      0DC66748 
 256      D75F5E0E 
 256      E3E81E27 
 256      02A2
 257 0542 47ADFFF9 		.ascii	"G\255\377\371\264\034\365\347;\2740>{\025\304x\323\\"
 257      B41CF5E7 
 257      3BBC303E 
 257      7B15C478 
 257      D35C
 258 0554 8C2C3868 		.ascii	"\214,8h\362\000e\2523\34584L\226\243\332\226\034\213"
 258      F20065AA 
 258      33E53834 
 258      4C96A3DA 
 258      961C8B
 259 0567 E72D57E6 		.ascii	"\347-W\346\003\363\030\334\352\3525\330\334\346\003"
 259      03F318DC 
 259      EAEA35D8 
 259      DCE603
 260 0576 4B0FC010 		.ascii	"K\017\300\020^\006\373\3001X\200\000[y@\236\2548\030"
 260      5E06FBC0 
 260      31588000 
 260      5B79409E 
 260      AC3818
 261 0589 C5AF5246 		.ascii	"\305\257RF\361K\031\230\220\344}#\243\370Cv\344\260"
 261      F14B1998 
 261      90E47D23 
 261      A3F84376 
 261      E4B0
 262 059b 9C8A40AB 		.ascii	"\234\212@\253xt\333fQ|\311\243:\250\307J\016\206:\016"
 262      7874DB66 
ARM GAS  /tmp/ccXZND8E.s 			page 20


 262      517CC9A3 
 262      3AA8C74A 
 262      0E863A0E 
 263 05af 95AD341A 		.ascii	"\225\2554\032\266\373j\323\217d\303\256\264e\330\367"
 263      B6FB6AD3 
 263      8F64C3AE 
 263      B465D8F7 
 264 05bf 9A175B3B 		.ascii	"\232\027[;\250\256\366\032F\255\376!\250~\216\007W\277"
 264      A8AEF61A 
 264      46ADFE21 
 264      A87E8E07 
 264      57BF
 265 05d1 DA58FD9A 		.ascii	"\332X\375\232\356\017hP\354j[\265\037>\2620\263v\313"
 265      EE0F6850 
 265      EC6A5BB5 
 265      1F3EB230 
 265      B376CB
 266 05e4 BE48315E 		.ascii	"\276H1^\367\325K\003V\202\210\353\300}\026z\214\326"
 266      F7D54B03 
 266      568288EB 
 266      C07D167A 
 266      8CD6
 267 05f6 7BACB7BE 		.ascii	"{\254\267\276.\270\327\275\300P\3135\346s\362\336\324"
 267      2EB8D7BD 
 267      C050CB35 
 267      E673F2DE 
 267      D4
 268 0607 9A0DCD0C 		.ascii	"\232\015\315\014^\036p\251,\3248\006$=\370\350\021h"
 268      5E1E70A9 
 268      2CD43806 
 268      243DF8E8 
 268      1168
 269 0619 0E3258AD 		.ascii	"\0162X\255\035\260,3\332V=\330Z\307`$gmz\260\365v\300"
 269      1DB02C33 
 269      DA563DD8 
 269      5AC76024 
 269      676D7AB0 
 270 0630 CCE6350A 		.ascii	"\314\3465\012\330I=\330[\216\301H\316N\353\301\336\261"
 270      D8493DD8 
 270      5B8EC148 
 270      CE4EEBC1 
 270      DEB1
 271 0642 03D6DF9A 		.ascii	"\003\326\337\232\263v=X\235c0\222\263kz\260\367\355"
 271      B3763D58 
 271      9D633092 
 271      B36B7AB0 
 271      F7ED
 272 0654 80054C38 		.ascii	"\200\005L8\323\016\253aY-\243\2719\012\310\0365\034"
 272      D30EAB61 
 272      592DA3B9 
 272      390AC81E 
 272      351C
 273 0666 3874692A 		.ascii	"8ti*\215\321\340q\032\277\010\271q\247\362h=\304/5\262"
 273      8DD1E071 
 273      1ABF08B9 
 273      71A7F268 
 273      3DC42F35 
ARM GAS  /tmp/ccXZND8E.s 			page 21


 274 067b EFB18398 		.ascii	"\357\261\203\230\305a\266\350\273\211\217\034\203\221"
 274      C561B6E8 
 274      BB898F1C 
 274      8391
 275 0689 66398AC1 		.ascii	"f9\212\301\210H\243t\030\2515R\377%\351P\347S\261\360"
 275      8848A374 
 275      18A93552 
 275      FF25E950 
 275      E753B1F0 
 276 069d 2C478E6B 		.ascii	",G\216kU\242\310h/\213\375\373\233\277\313\322\0372"
 276      55A2C868 
 276      2F8BFDFB 
 276      9BBFCBD2 
 276      1F32
 277 06af 7876BE97 		.ascii	"xv\276\227\361k\\\310i5%/\017\034\365\230\255\022\003"
 277      F16B5CC8 
 277      6935252F 
 277      0F1CF598 
 277      AD1203
 278 06c2 40F6A256 		.ascii	"@\366\242V\236\260[\357\011'\354\250)KS\270f\245&[\353"
 278      9EB05BEF 
 278      0927ECA8 
 278      294B53B8 
 278      66A5265B 
 279 06d7 402838DF 		.ascii	"@(8\337\277\001\202\363~\350ZS\031\301\271\321\330\265"
 279      BF0182F3 
 279      7EE85A53 
 279      19C1B9D1 
 279      D8B5
 280 06e9 DA5C56B1 		.ascii	"\332\\V\261\022\276Y/\374\025\307\302\033]\370\322\317"
 280      12BE592F 
 280      FC15C7C2 
 280      1B5DF8D2 
 280      CF
 281 06fa B7FD4114 		.ascii	"\267\375A\024\265u4l\356\254\276\201\006\023_(\253h"
 281      B575346C 
 281      EEACBE81 
 281      06135F28 
 281      AB68
 282 070c 8740E29B 		.ascii	"\207@\342\233\006\211\355\003\235\251x\373\237\000\250"
 282      0689ED03 
 282      9DA978FB 
 282      9F00A8
 283 071b 0580BA73 		.ascii	"\005\200\272s\006\372\252r\3050\000j\005\240\012\257"
 283      06FAAA72 
 283      C530006A 
 283      05A00AAF 
 284 072b D1064613 		.ascii	"\321\006F\023\320\244\011h\177:\221\261\012\366\015"
 284      D0A40968 
 284      7F3A91B1 
 284      0AF60D
 285 073a BECB50F3 		.ascii	"\276\313P\363\275\006{\021\342d\211\216\232\275\232"
 285      BD067B11 
 285      E264898E 
 285      9ABD9A
 286 0749 FEC5B1BD 		.ascii	"\376\305\261\275\256+\366:\005\332y=C;-\2143\3650\324"
 286      AE2BF63A 
ARM GAS  /tmp/ccXZND8E.s 			page 22


 286      05DA793D 
 286      433B2D8C 
 286      33F530D4 
 287 075d 2AC762F8 		.ascii	"*\307b\370\014b\\s.F\247\"F\012\304X\377\015\210\261"
 287      0C625C73 
 287      2E46A722 
 287      460AC458 
 287      FF0D88B1 
 288 0771 C9B118FD 		.ascii	"\311\261\030\375tb\340\001l\323hy\000\373-\252:\373"
 288      7462E001 
 288      6CD36879 
 288      00FB2DAA 
 288      3AFB
 289 0783 0016164F 		.ascii	"\000\026\026O\230o\021\243G\351\213\203t@~\334\363\224"
 289      986F11A3 
 289      47E98B83 
 289      74407EDC 
 289      F394
 290 0795 70C111DD 		.ascii	"p\301\021\335\240_\2645\350_\243\014\372/\201\302\266"
 290      A05FB435 
 290      E85FA30C 
 290      FA2F81C2 
 290      B6
 291 07a6 7A4D9A97 		.ascii	"zM\232\227\035\240\2323\215\367\340\345\351+\000\323"
 291      1DA09A33 
 291      8DF7E0E5 
 291      E92B00D3 
 292 07b6 902B4CEA 		.ascii	"\220+L\352\253\346\367\345Vz\025\200\366f\030\320c\260"
 292      ABE6F7E5 
 292      567A1580 
 292      F66618D0 
 292      63B0
 293 07c8 9F87B41F 		.ascii	"\237\207\264\037\272\3055u"
 293      BAC53575 
 294 07d0 407CFC5F 		.ascii	"@|\374_\345\011\276\361R\177\363rh\362\003\354c\333"
 294      E509BEF1 
 294      527FF372 
 294      68F203EC 
 294      63DB
 295 07e2 E532A686 		.ascii	"\3452\246\206\311\317\310m\312\340A6\320\361;B\234!"
 295      C9CFC86D 
 295      CAE04136 
 295      D0F13B42 
 295      9C21
 296 07f4 EDAA56E7 		.ascii	"\355\252V\347\254\217\341\341C\352\016\341`\274I\364"
 296      AC8FE1E1 
 296      43EA0EE1 
 296      60BC49F4 
 297 0804 8B8659CB 		.ascii	"\213\206Y\313\253\026\275\216\266(\221\352\377\026\364"
 297      AB16BD8E 
 297      B62891EA 
 297      FF16F4
 298 0813 8C1D309C 		.ascii	"\214\0350\234\371$\303\336\363\030\303\274\005?\320"
 298      F924C3DE 
 298      F318C3BC 
 298      053FD0
 299 0822 BD62D58E 		.ascii	"\275b\325\216n\351{\300/\357LL\034\212~-\017\342z\232"
ARM GAS  /tmp/ccXZND8E.s 			page 23


 299      6EE97BC0 
 299      2FEF4C4C 
 299      1C8A7E2D 
 299      0FE27A9A 
 300 0836 123EAFA2 		.ascii	"\022>\257\242\345C\305\242\017W|\3338#\334\376\306\331"
 300      E543C5A2 
 300      0F577CDB 
 300      3823DCFE 
 300      C6D9
 301 0848 D9CAC6D0 		.ascii	"\331\312\306\320m[k=\247.\372\305\352|u\351f\243\206"
 301      6D5B6B3D 
 301      A72EFAC5 
 301      EA7C75E9 
 301      66A386
 302 085b 6A36E8E8 		.ascii	"j6\350\350\321\255\244v\256i\240\203\020\361\236\022"
 302      D1ADA476 
 302      AE69A083 
 302      10F19E12 
 303 086b 2266BA20 		.ascii	"\"f\272 D\370\214&\272b\214\251\216\332H\203Q\030\273"
 303      44F88C26 
 303      BA628CA9 
 303      8EDA4883 
 303      5118BB
 304 087e 333BEDB0 		.ascii	"3;\355\260r\201\257\365.\260\307w\247.\320\361\264="
 304      7281AFF5 
 304      2EB0C777 
 304      A72ED0F1 
 304      B43D
 305 0890 1710B5E5 		.ascii	"\027\020\265\345\276~P\363~\250\371e\227\301\007N\254"
 305      BE7E50F3 
 305      7EA8F965 
 305      97C1074E 
 305      AC
 306 08a1 DD57414F 		.ascii	"\335WAO\007\037\300y=\373\300\027\204\017\334\322Ps"
 306      071FC079 
 306      3DFBC017 
 306      840FDCD2 
 306      5073
 307 08b3 F1811952 		.ascii	"\361\201\031R\347\345}4\300\311\363\210n#\234\303\371"
 307      E7E57D34 
 307      C0C9F388 
 307      6E239CC3 
 307      F9
 308 08c4 75177229 		.ascii	"u\027r)g\212\221\275K:q\021wo\013]X\246\012\277\321"
 308      678A91BD 
 308      4B3A7111 
 308      776F0B5D 
 308      58A60ABF 
 309 08d9 B564CDE8 		.ascii	"\265d\315\350\\+\255F\226~\305\205'\026\363\\x\223\257"
 309      5C2BAD46 
 309      967EC585 
 309      2716F35C 
 309      7893AF
 310 08ec 0A68B5CB 		.ascii	"\012h\265\313\306V\337\002\227\316-^\365;\225;`\323"
 310      C656DF02 
 310      97CE2D5E 
 310      F53B953B 
ARM GAS  /tmp/ccXZND8E.s 			page 24


 310      60D3
 311 08fe FB2AF5D5 		.ascii	"\373*\365\325,\362\337\231\367m>\3271\012\026W\034,"
 311      2CF2DF99 
 311      F76D3ED7 
 311      310A1657 
 311      1C2C
 312 0910 E7BDAD2E 		.ascii	"\347\275\255.\347A\263]\236\241\333\234\226\363\326"
 312      E741B35D 
 312      9EA1DB9C 
 312      96F3D6
 313 091f E72A8876 		.ascii	"\347*\210v\240\360\345\2671\037\011\230\350\\\353\025"
 313      A0F0E5B7 
 313      311F0998 
 313      E85CEB15 
 314 092f AF8DB6B9 		.ascii	"\257\215\266\271$\250u3M\3675A7S\003\216\366\256A\031"
 314      24A87533 
 314      4DF73541 
 314      3753038E 
 314      F6AE4119 
 315 0943 36961677 		.ascii	"6\226\026wC\221Zc+F=\264\262\366]k\243\021\317\220Z"
 315      43915A63 
 315      2B463DB4 
 315      B2F65D6B 
 315      A311CF90 
 316 0958 5ED6AF19 		.ascii	"^\326\257\031\263\364\"\206Q`s\325'a\302Z]\363X\003"
 316      B3F42286 
 316      516073D5 
 316      2761C25A 
 316      5DF35803 
 317 096c CD63ADBE 		.ascii	"\315c\255\276I0T\213\035\335\377\320\312\021E\251\263"
 317      4930548B 
 317      1DDDFFD0 
 317      CA1145A9 
 317      B3
 318 097d 45DE7450 		.ascii	"E\336tP\303\320\031#\236Y\030\"\360\010[JU\255\260\230"
 318      C3D01923 
 318      9E591822 
 318      F0085B4A 
 318      55ADB098 
 319 0991 210F6E2E 		.ascii	"!\017n.\331an\240\025\330\014i\231\014&;\374U;`\303"
 319      D9616EA0 
 319      15D80C69 
 319      990C263B 
 319      FC553B60 
 320 09a6 AC249D21 		.ascii	"\254$\235!m_\244Z\012\267d\206\352t\214G2\327\322\252"
 320      6D5FA45A 
 320      0AB76486 
 320      EA748C47 
 320      32D7D2AA 
 321 09ba 7E3D24AF 		.ascii	"~=$\257\257\227\367\262\2017\334\232\277\353\213\210"
 321      AF97F7B2 
 321      8137DC9A 
 321      BFEB8B88 
 322 09ca 91DC3CC7 		.ascii	"\221\334<\307p\244!\276n\305\206\235\333_\375\300j\221"
 322      70A421BE 
 322      6EC5869D 
 322      DB5FFDC0 
ARM GAS  /tmp/ccXZND8E.s 			page 25


 322      6A91
 323 09dc 118FFC9A 		.ascii	"\021\217\374\232JI>e\3333\323\273-(\332\303\212\320"
 323      4A493E65 
 323      DB33D3BB 
 323      2D28DAC3 
 323      8AD0
 324 09ee 6B0C0ED9 		.ascii	"k\014\016\331\213\201\276\016t\005\320\006\240\022\320"
 324      8B81BE0E 
 324      7405D006 
 324      A012D0
 325 09fd 3F02DD07 		.ascii	"?\002\335\007\364 \320\223@?\006z\001\350J\010\375\353"
 325      F420D093 
 325      403F067A 
 325      01E84A08 
 325      FDEB
 326 0a0f 806E00FA 		.ascii	"\200n\000\372\026\320?\000\335\010t3\320w\355t\017\206"
 326      16D03F00 
 326      DD087433 
 326      D077ED74 
 326      0F86
 327 0a21 F1A5DA44 		.ascii	"\361\245\332D+s\336\326\271ah\362K\034\343\005\262)"
 327      2B73DED6 
 327      B96168F2 
 327      4B1CE305 
 327      B229
 328 0a33 B652A7D8 		.ascii	"\266R\247\330\271\240\330W@-[\310\206\277\242\227\272"
 328      B9A0D857 
 328      402D5BC8 
 328      86BFA297 
 328      BA
 329 0a44 E998DB78 		.ascii	"\351\230\333x\341\330I\322}\327\032\361\034\015\030"
 329      E1D849D2 
 329      7DD71AF1 
 329      1C0D18
 330 0a53 44A9ED24 		.ascii	"D\251\355$\264\325\225\020E\336v\014\026 \230\373x)"
 330      B4D59510 
 330      45DE760C 
 330      162098FB 
 330      7829
 331 0a65 B9135767 		.ascii	"\271\023Wg\007/\313\022\353\265\223\272%\326\355\216"
 331      072FCB12 
 331      EBB593BA 
 331      25D6ED8E 
 332 0a75 C148E66E 		.ascii	"\301H\346n\352\301v\333\0013[\21047~\271\316\370\263"
 332      EAC176DB 
 332      01335B88 
 332      34377EB9 
 332      CEF8B3
 333 0a88 C0F8B3C1 		.ascii	"\300\370\263\301\370[\301\337\353\201\356\000\332\000"
 333      F85BC1DF 
 333      EB81EE00 
 333      DA00
 334 0a96 54229DE2 		.ascii	"T\"\235\342\377z\251{\350Je\344VuO^!J\357Y\357\236\233"
 334      FF7AA97B 
 334      E84A65E4 
 334      56754F5E 
 334      214AEF59 
ARM GAS  /tmp/ccXZND8E.s 			page 26


 335 0aad 8DF65047 		.ascii	"\215\366PG|m@\033t\227{\240#n\351\325\343\356\271q8"
 335      7C6D401B 
 335      74977BA0 
 335      236EE9D5 
 335      E3EEB971 
 336 0ac2 7D198A34 		.ascii	"}\031\2124fv\304mA\271#n\264\325\021w.\316\262\011\255"
 336      6676C46D 
 336      41B9236E 
 336      B4D51177 
 336      2ECEB209 
 337 0ad7 DFE3D3AA 		.ascii	"\337\343\323\252\377\266^\214\246\001\362^\372G \206"
 337      FFB65E8C 
 337      A601F25E 
 337      FA472086 
 338 0ae7 D8BB4731 		.ascii	"\330\273G1H\034\206\252\202\"\007M\304xN\026\343\240"
 338      481C86AA 
 338      8222074D 
 338      C4784E16 
 338      E3A0
 339 0af9 2D31B62D 		.ascii	"-1\266-V=\177?\364R\2534\330\334\202U\375qpV\031l\275"
 339      563D7F3F 
 339      F452AB34 
 339      D8DC8255 
 339      FD717056 
 340 0b10 6330D2F3 		.ascii	"c0\322\363w\036w\272\007\275\375|\333Zeb|\034z\361M"
 340      771E77BA 
 340      07BDFD7C 
 340      DB5A6562 
 340      7C1C7AF1 
 341 0b25 06CDE638 		.ascii	"\006\315\3468l\335nG\022\353\351\015\236\375=\267-s"
 341      6CDD6E47 
 341      12EBE90D 
 341      9EFD3DB7 
 341      2D73
 342 0b37 F667FF73 		.ascii	"\366g\377s\2413.\303\347B\217\031>x\313\252\224\324"
 342      A1332EC3 
 342      E7428F19 
 342      3E78CBAA 
 342      94D4
 343 0b49 DFAD039F 		.ascii	"\337\255\003\2378\015f\331c\320\211a\311\005We\305\306"
 343      380D66D9 
 343      63D08961 
 343      C9055765 
 343      C5C6
 344 0b5b 59576F0B 		.ascii	"YWo\013\227\312\310C\321\301\261\322\010\363\343\225"
 344      97CAC843 
 344      D1C1B1D2 
 344      08F3E395 
 345 0b6b CFDFA85B 		.ascii	"\317\337\250[_0F9f\007\320\376'\240\007u\203\335\303"
 345      5F304639 
 345      6607D0FE 
 345      27A00775 
 345      83DDC3
 346 0b7e 30D83D02 		.ascii	"0\330=\002A\356(\320V\240\247\200\236\267\323\361\357"
 346      41EE28D0 
 346      56A0A780 
 346      9EB7D3F1 
ARM GAS  /tmp/ccXZND8E.s 			page 27


 346      EF
 347 0b8f 4F4FD858 		.ascii	"OO\330X\272\305\305(Q&\267v\324\225nG,}\3141\030\241"
 347      BAC5C528 
 347      5126B776 
 347      D4956E47 
 347      2C7DCC31 
 348 0ba5 4869BED6 		.ascii	"Hi\276\326\367\342F\201\306@v\360\262L\3267\312=\222"
 348      F7E24681 
 348      C64076F0 
 348      B24CD637 
 348      CA3D92
 349 0bb8 DCC24EF7 		.ascii	"\334\302N\367\246\035\202\005\262\031\245Qg\224}`\224"
 349      A61D8205 
 349      B219A551 
 349      67947D60 
 349      94
 350 0bc9 6630C145 		.ascii	"f0\301E\240\177\002\372\011\331\013]\352m\350\205\310"
 350      A07F02FA 
 350      09D90B5D 
 350      EA6DE885 
 350      C8
 351 0bda 906FD629 		.ascii	"\220o\326)\352\365#J;~S\305\232\205\334\307\325\262"
 351      EAF5234A 
 351      3B7E53C5 
 351      9A85DCC7 
 351      D5B2
 352 0bec 0B89EFA0 		.ascii	"\013\211\357\240\332\356\227\347\202W v\377\331F\354"
 352      DAEE97E7 
 352      82572076 
 352      FFD946EC 
 353 0bfc 268118EA 		.ascii	"&\201\030\3526\224\271\232\031\274\017E\344\340}\265"
 353      3694B99A 
 353      19BC0F45 
 353      E4E07DB5 
 354 0c0c E7E03DB3 		.ascii	"\347\340=\263\\z\357\367k\323}P\271\326\200\367\240"
 354      5C7AEFF7 
 354      6BD37D50 
 354      B9D680F7 
 354      A0
 355 0c1d 01969593 		.ascii	"\001\226\225\223\022\273\232\363\362U6rqRQ\332uJ\365"
 355      12BB9AF3 
 355      F2553672 
 355      715251DA 
 355      754AF5
 356 0c30 2B79696F 		.ascii	"+yio\211c<\322\016\255\247\300\257d\260\032;`Y\006\210"
 356      89633CD2 
 356      0EADA7C0 
 356      AF64B01A 
 356      3B605906 
 357 0c45 7FF94F53 		.ascii	"\177\371OS\243J\332\270u\216\316\250u\347\317>P\016"
 357      A34ADAB8 
 357      758ECEA8 
 357      75E7CF3E 
 357      500E
 358 0c57 DD462718 		.ascii	"\335F'\030\365@~\217F5\000a\345v\031\014*\255l\204\237"
 358      F5407E8F 
 358      46350061 
ARM GAS  /tmp/ccXZND8E.s 			page 28


 358      E576190C 
 358      2AAD6C84 
 359 0c6c 8774D9EA 		.ascii	"\207t\331\352\212\337oT\265\231\007\233\274\300BW\316"
 359      8ADF6F54 
 359      B599079B 
 359      BCC04257 
 359      CE
 360 0c7d 11645785 		.ascii	"\021dW\205\275\001\212\351\252\332k\215xUm\206\033\353"
 360      BD018AE9 
 360      AADA6B8D 
 360      78556D86 
 360      1BEB
 361 0c8f E252CFBA 		.ascii	"\342R\317\272 1\260\250\263\334\006U\264\310\277\224"
 361      2031B0A8 
 361      B3DC0655 
 361      B4C8BF94 
 362 0c9f C1CF7B56 		.ascii	"\301\317{V\305\251\275\372\200\305P\267\200\005\\6\307"
 362      C5A9BDFA 
 362      80C550B7 
 362      80055C36 
 362      C7
 363 0cb0 29D46C72 		.ascii	")\324lr|\337\355\030/@\340})\377X\006:\245Y}l`e\011"
 363      7CDFED18 
 363      2F40E07D 
 363      29FF5806 
 363      3AA5597D 
 364 0cc8 A60B1A97 		.ascii	"\246\013\032\227}GLI\264\272C\375\252\021\317l\277\320"
 364      7D474C49 
 364      B4BA43FD 
 364      AA11CF6C 
 364      BFD0
 365 0cda 7E3C4D1B 		.ascii	"~<M\033\002\215\355\3358\236V\270q\014}\011\350\313"
 365      028DEDDD 
 365      389E56B8 
 365      710C7D09 
 365      E8CB
 366 0cec 405F71DB 		.ascii	"@_q\333\350\336\246\273u\221cI\037\247\316\251W j\351"
 366      E8DEA6BB 
 366      75916349 
 366      1FA7CEA9 
 366      57206AE9 
 367 0d00 4F56B177 		.ascii	"OV\261wQU\212\037\311\236\246\372\222\326\256D\265]"
 367      51558A1F 
 367      C99EA6FA 
 367      92D6AE44 
 367      B55D
 368 0d12 CD77DF05 		.ascii	"\315w\337\005)b\317\001^\261b\266\332\235\376\344#\337"
 368      2962CF01 
 368      5EB162B6 
 368      DA9DFEE4 
 368      23DF
 369 0d24 9F4E3CA6 		.ascii	"\237N<\246I\260\322(\201\241\336,\2063Wt\227\256\343"
 369      49B0D228 
 369      81A1DE2C 
 369      86335774 
 369      97AEE3
 370 0d37 FA1A3AAE 		.ascii	"\372\032:\256\333\320Y\211\240\342*7\321e\255\357c\010"
ARM GAS  /tmp/ccXZND8E.s 			page 29


 370      DBD05989 
 370      A0E22A37 
 370      D165ADEF 
 370      6308
 371 0d49 6E8668E2 		.ascii	"n\206h\342\330\314Wu\265_\203\332\257C\355\237\003\275"
 371      D8CC5775 
 371      B55F83DA 
 371      AF43ED9F 
 371      03BD
 372 0d5b 09B483EC 		.ascii	"\011\264\203\3546\267\3641t\233\206nJI[/\276\2456\237"
 372      36B7F431 
 372      749B866E 
 372      4A495B2F 
 372      BEA5369F 
 373 0d6f 3BF4BBE9 		.ascii	";\364\273\351\242\264d\240\3721m\275\021\222\374rVI"
 373      A2B464A0 
 373      FA316DBD 
 373      1192FC72 
 373      5649
 374 0d81 4A59A276 		.ascii	"JY\242v{{\276\026\266{\\\226\335y\244A\336\255\177\035"
 374      7B7BBE16 
 374      B67B5C96 
 374      DD79A441 
 374      DEAD7F1D 
 375 0d95 02D5877D 		.ascii	"\002\325\207}\034\256\312b\305-3\006\252\353\\@~jc\016"
 375      1CAECA62 
 375      C52D3306 
 375      AAEB5C40 
 375      7E6A630E 
 376 0da9 7851D903 		.ascii	"xQ\331\003\251\205\257\000Z\3417\020\313\234G)s\223"
 376      A985AF00 
 376      5AE13710 
 376      CB9C4729 
 376      7393
 377 0dbb 2ED3B5DC 		.ascii	".\323\265\334\345\320rW\220N\324j\324\266Y}5\351\206"
 377      E5D07257 
 377      904ED46A 
 377      D4B6597D 
 377      35E986
 378 0dce 605436B2 		.ascii	"`T6\262\337\245\377\006\373\231~0\357R!\206\2455~\343"
 378      DFA5FF06 
 378      FB997E30 
 378      EF522186 
 378      A5357EE3 
 379 0de2 6AE750D0 		.ascii	"j\347P\320\370*\320\370ms\215g\301\301\202\2556U\371"
 379      F82AD0F8 
 379      6D738D67 
 379      C1C182AD 
 379      3655F9
 380 0df5 6A5B2ABF 		.ascii	"j[*\277\241\252\\\376\251\340+\005\264\002\230[\307"
 380      A1AA5CFE 
 380      A9E02B05 
 380      B402985B 
 380      C7
 381 0e06 F039D734 		.ascii	"\3609\3274P\305Z\340\030+\240\327\246t3oN\271G]\376"
 381      50C55AE0 
 381      182BA0D7 
ARM GAS  /tmp/ccXZND8E.s 			page 30


 381      A674336F 
 381      4EB9475D 
 382 0e1b 5C660433 		.ascii	"\\f\0043]\376\314\322\020\276\324\243\275i\013-`\333"
 382      5DFECCD2 
 382      10BED4A3 
 382      BD690B2D 
 382      60DB
 383 0e2d B556EB5C 		.ascii	"\265V\353\\k\015\270\326Z\210R\353\200n\000\372\026"
 383      6B0DB8D6 
 383      5A8852EB 
 383      806E00FA 
 383      16
 384 0e3e E96C9B0B 		.ascii	"\351l\233\013\014\316F\332UI\256\313\342mu\347\332\376"
 384      0CCE46DA 
 384      5549AECB 
 384      E26D75E7 
 384      DAFE
 385 0e50 6781887F 		.ascii	"g\201\210\177N\251F~\344&\362'm*d_\025\247\203V8\335"
 385      4EA9467E 
 385      E426F227 
 385      6D2A645F 
 385      15A78356 
 386 0e66 E838F46F 		.ascii	"\3508\364o\262\010\375\017h\242\354\312\020\205\254"
 386      B208FD0F 
 386      68A2ECCA 
 386      1085AC
 387 0e75 5749A7CC 		.ascii	"WI\247\314d1\327g\227\356\307\204\267\341\307\204\335"
 387      6431D767 
 387      97EEC784 
 387      B7E1C784 
 387      DD
 388 0e86 F24F0721 		.ascii	"\362O\007!\356~\012t\021hu\011\320\032\240\357\220\032"
 388      EE7E0A74 
 388      11687509 
 388      D01AA0EF 
 388      901A
 389 0e98 3E50A036 		.ascii	">P\2406&\225-\362'+\270\242:\267\366[\232\236\306u\251"
 389      26952DF2 
 389      272BB8A2 
 389      3AB7F65B 
 389      9A9EC675 
 390 0ead 3CB5F47F 		.ascii	"<\265\364\177QZ\373=r\263\363\214\262i\374\236\334\202"
 390      515AFB3D 
 390      72B3F38C 
 390      B269FC9E 
 390      DC82
 391 0ebf 0BCC5BB0 		.ascii	"\013\314[\260%\020\346b\253\261\001\237\271\331$\177"
 391      2510E662 
 391      ABB1019F 
 391      B9D9247F 
 392 0ecf A1BEB5E7 		.ascii	"\241\276\265\347F\214\346-\327o61\351\335\310\362\254"
 392      468CE62D 
 392      D76F3631 
 392      E9DDC8F2 
 392      AC
 393 0ee0 0B3BC829 		.ascii	"\013;\310)A\241vVi*\372\322\012w9D\003\304\327_\260"
 393      41A17656 
ARM GAS  /tmp/ccXZND8E.s 			page 31


 393      692AFAD2 
 393      0A773944 
 393      03C4D75F 
 394 0ef5 1838B86C 		.ascii	"\0308\270lw\343\2000\3271\\\200\200\373\234\204[`\007"
 394      77E38030 
 394      D7315C80 
 394      80FB9C84 
 394      5B6007
 395 0f08 CE2A2220 		.ascii	"\316*\" \270\233$\334R\307p$w\035$\334*;pVK\336\010"
 395      B89B24DC 
 395      52C77024 
 395      771D24DC 
 395      2A3B7056 
 396 0f1f EE4B126E 		.ascii	"\356K\022n\203c8\222\273.\022n\223\0358\253\357o\027"
 396      83633892 
 396      BB2E126E 
 396      931D38AB 
 396      EF6F17
 397 0f32 964BB765 		.ascii	"\226K\267e8\315\337\244o\304\337\2669\346\212\024\262"
 397      38CDDFA4 
 397      6FC4DFB6 
 397      39E68A14 
 397      B2
 398 0f43 EA162164 		.ascii	"\352\026!d\203\035\270\200\265\011\252I\270=\216\341"
 398      831DB880 
 398      B509AA49 
 398      B83D8EE1 
 399 0f53 48EE1692 		.ascii	"H\356\026\222p\315v\340\262\354\374.\222\341\224\330"
 399      70CD76E0 
 399      B2ECFC2E 
 399      92E194D8 
 400 0f63 8F0765F2 		.ascii	"\217\007e\362Z\254U\034oq\034\371\217ZD~\365`\250\243"
 400      5AAC551C 
 400      6F711CF9 
 400      8F5A447E 
 400      F560A8A3 
 401 0f77 8E652055 		.ascii	"\216e U\262\204TI\273\0358b\277\2314\330R\022\356\202"
 401      B2845449 
 401      BB1D3862 
 401      BF9934D8 
 401      5212EE82 
 402 0f8b 633892BB 		.ascii	"c8\222\273e$\334\247v\340,7\260Ei\205\012\207-\301P"
 402      6524DCA7 
 402      76E02C37 
 402      B0456985 
 402      0A872DC1 
 403 0fa0 9F3B8623 		.ascii	"\237;\206#\271\333Hrw\333\016\334pk\335m&\341f\366s"
 403      B9DB4872 
 403      77DB0EDC 
 403      706BDD6D 
 403      26E166F6 
 404 0fb5 0A4772F7 		.ascii	"\012Gr\367.\011Wi\007\316l\363Z\321\335\026Rw\013\035"
 404      2E095769 
 404      07CE6CF3 
 404      5AD1DD16 
 404      52770B1D 
 405 0fc9 C391DC6D 		.ascii	"\303\221\334m%\271[a\007n\214\265\356\352I\270\325\216"
ARM GAS  /tmp/ccXZND8E.s 			page 32


 405      25B95B61 
 405      076E8CB5 
 405      EEEA49B8 
 405      D58E
 406 0fdb E148EE76 		.ascii	"\341H\356v\220p\033\354\300M0\341\316\354\320\0176X"
 406      90701BEC 
 406      C04D30E1 
 406      CEECD00F 
 406      3658
 407 0fed 7A1B8C55 		.ascii	"z\033\214U\353a\364\264\023\350.\240\037\000\335\015"
 407      EB61F4B4 
 407      13E82EA0 
 407      1F00DD0D 
 408 0ffd F443A0   		.ascii	"\364C\240"
 409 1000 8D40F701 		.ascii	"\215@\367\001\375\010\350\001\240\207\200\036\001\332"
 409      FD08E801 
 409      A087801E 
 409      01DA
 410 100e 0AB40DE8 		.ascii	"\012\264\015\350I\240\247\201\266\003M\001=\007\364"
 410      49A0A781 
 410      B6034D01 
 410      3D07F4
 411 101d 02D03F01 		.ascii	"\002\320?\001\275\004\364S;K&\357\246\227L\002\324J"
 411      BD04F453 
 411      3B4B26EF 
 411      A6974C02 
 411      D44A
 412 102f 3C06BED8 		.ascii	"<\006\276\3300\227\026g\372\264\037K\257\322\377X\332"
 412      30971667 
 412      FAB41F4B 
 412      AFD2FF58 
 412      DA
 413 1040 B00F83FF 		.ascii	"\260\017\203\377G\217\025\362gidC\251N\213\351 ,\022"
 413      478F15F2 
 413      67696443 
 413      A94E8BE9 
 413      202C12
 414 1053 5896DA98 		.ascii	"X\226\332\230\245\256?[\226:\221\245\324\265t)\352'"
 414      A5AE3F5B 
 414      963A91A5 
 414      D4B57429 
 414      EA27
 415 1065 0F3F5CA8 		.ascii	"\017?\\\250\375\305\223\205\274P\230\210\363B\262\360"
 415      FDC59385 
 415      BC509888 
 415      F342B2F0 
 416 1075 F1B1A38A 		.ascii	"\361\261\243\212FM+\014\225\204\342<\027\234:4\372p"
 416      464D2B0C 
 416      9584E23C 
 416      179C3A34 
 416      FA70
 417 1087 0935B4A7 		.ascii	"\0115\264\247\227\343\321D8\302\361\311\302'\213\212"
 417      97E3D144 
 417      38C2F1C9 
 417      C2278B8A 
 418 1097 5051E1C5 		.ascii	"PQ\341\305\004\227D\345\274\274\020\212\011A\301\363"
 418      049744E5 
ARM GAS  /tmp/ccXZND8E.s 			page 33


 418      BCBC108A 
 418      0941C1F3 
 419 10a7 E4E86703 		.ascii	"\344\350g\003E\324\375\205\245I\2760\034\013EJ\213\271"
 419      45D4FD85 
 419      A549BE30 
 419      1C0B454A 
 419      8BB9
 420 10b9 C2185716 		.ascii	"\302\030W\026\011O,L\012\305\341\230\200^\366\225\242"
 420      094F2C4C 
 420      0AC5E198 
 420      805EF695 
 420      A2
 421 10ca EB90C141 		.ascii	"\353\220\301A\341\237\315^\213\262\241\222p\214+\014"
 421      E19FCD5E 
 421      8BB2A192 
 421      708C2B0C 
 422 10da 167393D8 		.ascii	"\026s\223\330\322\010\002U\352\350\025\014\252\005\357"
 422      D2080255 
 422      EAE8150C 
 422      AA05EF
 423 10e9 C34C05D1 		.ascii	"\303L\005\321\337dN\010\206\342\2451\201\343\203S\331"
 423      DF644E08 
 423      86E2A531 
 423      81E38353 
 423      D9
 424 10fa 4829777F 		.ascii	"H)w\177\246\000I>\2049\215>\034\242\036\314\314Uk\207"
 424      A600493E 
 424      84398D3E 
 424      1CA21ECC 
 424      CC556B87 
 425 110e 374AA8BB 		.ascii	"7J\250\273\205p\224\013F96Y\312sQ\016\313\344\236\310"
 425      8570940B 
 425      46393659 
 425      CA73510E 
 425      CBE49EC8 
 426 1122 2585BCB2 		.ascii	"%\205\274\2628\237\024\334\0216)xJAT:\346\343\005x["
 426      389F14DC 
 426      11362978 
 426      4A41543A 
 426      E6E30578 
 427 1137 00817EF6 		.ascii	"\000\201~\366HPPX\204d\2504Z\032a\205\360T\316+D\203"
 427      48505058 
 427      8464A834 
 427      5A1A6185 
 427      F054CE2B 
 428 114d 49219E70 		.ascii	"I!\236p\011\321\204+\026/\363\304'MJrBA\250d\374\250"
 428      09D1842B 
 428      162FF3C4 
 428      274D4A72 
 428      4241A864 
 429 1163 6726BEC0 		.ascii	"g&\276\300\205\204\221\261\260p\017\276\035'\260\274"
 429      858491B1 
 429      B0700FBE 
 429      1D27B0BC 
 430 1173 302A5DFB 		.ascii	"0*]\373\004_,\036\216E\220>\276-g\307\023Dn\020A\207"
 430      045F2C1E 
 430      8E45903E 
ARM GAS  /tmp/ccXZND8E.s 			page 34


 430      BE2D67C7 
 430      13446E10 
 431 1189 51E1EFE0 		.ascii	"Q\341\357\340\334\242\0226\034\323e\217\217Op\243*\007"
 431      DCA21236 
 431      1CD3658F 
 431      8F4F70A3 
 431      2A07
 432 119b 6132F8EF 		.ascii	"a2\370\357\263\211\236\014\225\024#\341\3771\353;/&"
 432      B3899E0C 
 432      951423E1 
 432      FF31EB3B 
 432      2F26
 433 11ad 554BF40E 		.ascii	"UK\364\016\225\004\361-\027\015\012~-\235\317sl\361"
 433      9504F12D 
 433      170D0A7E 
 433      2D9DCF73 
 433      6CF1
 434 11bf 8BC14838 		.ascii	"\213\301H8\211\264\323\007=N\337\367\025J\360M2\370"
 434      89B4D307 
 434      3D4EDFF7 
 434      154AF04D 
 434      32F8
 435 11d1 DB52AE14 		.ascii	"\333R\256\024)\254\037\312%\036\371\344;\031NN{\022"
 435      29AC1FCA 
 435      251EF9E4 
 435      3B194E4E 
 435      7B12
 436 11e3 C118374D 		.ascii	"\301\0307M@\227\004\317M\365\012\011>\034\017\312\267"
 436      409704CF 
 436      4DF50A09 
 436      3E1C0FCA 
 436      B7
 437 11f4 E1B83714 		.ascii	"\341\2707\024G6\237&\374\320\226sc\226\301c\220mB\302"
 437      47369F26 
 437      FCD09673 
 437      6396C163 
 437      906D42C2 
 438 1208 341FCF4D 		.ascii	"4\037\317Mfy\304;\303?\302\360?e\370\2371\374P\206\037"
 438      6679C43B 
 438      C33FC2F0 
 438      3F65F89F 
 438      31FC5086 
 439 121d C6F08FBA 		.ascii	"\306\360\217\272\370A\003\3219\210\211\360\3502$/\021"
 439      F84103D1 
 439      398889F0 
 439      E832242F 
 439      11
 440 122e 44EF7B31 		.ascii	"D\357{1'e\034\217\256\361H1\307\273C%,\217\331c\243"
 440      27651C8F 
 440      AEF14831 
 440      C7BB4325 
 440      2C8FD963 
 441 1243 5CAFA430 		.ascii	"\\\257\2440\205\215\204'\307\220\305\023\310\312S\""
 441      858D8427 
 441      C790C513 
 441      C8CA5322 
 442 1253 E16858F0 		.ascii	"\341hX\360\011I\201\025\220\240^\354\016\303\220X\262"
ARM GAS  /tmp/ccXZND8E.s 			page 35


 442      09498115 
 442      90A05EEC 
 442      0EC39058 
 442      B2
 443 1264 63A09417 		.ascii	"c\240\224\027\277\205\362\220S\304\2139\270\237\024"
 443      BF85F290 
 443      53C48B39 
 443      B89F14
 444 1273 612727BD 		.ascii	"a''\275\002\317MJ\202\2008\221\027MNF\231\212\277\243"
 444      02CF4D4A 
 444      82803891 
 444      174D4E46 
 444      998ABFA3 
 445 1287 E24ACAC3 		.ascii	"\342J\312\303\027\277\210\262|\334\264\260\020B\000"
 445      17BF88B2 
 445      7CDCB4B0 
 445      104200
 446 1296 9E32213E 		.ascii	"\2362!>\361\205\304\335\212\376PQ\216\347b!\004\234"
 446      F185C4DD 
 446      8AFE5051 
 446      8EE76221 
 446      049C
 447 12a8 5726087C 		.ascii	"W&\010|\"\037\233\207\213\262\211\022\244\207\357g\265"
 447      221F9B87 
 447      8BB28912 
 447      A487EF67 
 447      B5
 448 12b9 2F87FDDF 		.ascii	"/\207\375\337\253\030$\017|</\031DWT\007\312L\370\020"
 448      AB18240F 
 448      7C3C2F19 
 448      44575407 
 448      CA4CF810 
 449 12cd 54B41469 		.ascii	"T\264\024i=+LT\230\206a\2422\014\272\306\313bHuP\020"
 449      3D2B4C54 
 449      988661A2 
 449      320CBAC6 
 449      CB624875 
 450 12e3 B11F958D 		.ascii	"\261\037\225\215Z&\240\367\022\275\271\251\310M\243"
 450      5A26A0F7 
 450      12BDB9A9 
 450      C84DA3
 451 12f2 6C720ACA 		.ascii	"lr\012\312\341\312p\302\225\010\226\026\250\256!\273"
 451      E1CA70C2 
 451      95089616 
 451      A8AE21BB 
 452 1302 525F9DB3 		.ascii	"R_\235\263\340'\376D\260\214\015\013\341\330d\244q\244"
 452      E027FE44 
 452      B08C0D0B 
 452      E1D864A4 
 452      71A4
 453 1314 0B995F48 		.ascii	"\013\231_H\242\007\\\202\213\24183\031\275\205\252\300"
 453      A2075C82 
 453      8BA13833 
 453      19BD85AA 
 453      C0
 454 1325 EFF7C21A 		.ascii	"\357\367\302\032e#\3406\350a\"\036\217(FHzy\231M\017"
 454      6523E036 
ARM GAS  /tmp/ccXZND8E.s 			page 36


 454      E861221E 
 454      8F284648 
 454      7A79994D 
 455 133a 0F5E95C7 		.ascii	"\017^\225\307\203\271y\305\334\274ln?zZ\312#\255\012"
 455      83B979C5 
 455      DCBC6C6E 
 455      3F7A5ACA 
 455      23AD0A
 456 134d 793CC6BB 		.ascii	"y<\306\273gj\230\027J\331H\0207~^\345\362^\304\245I"
 456      676A9817 
 456      4AD94810 
 456      377E5EE5 
 456      F25EC4A5 
 457 1362 465FE299 		.ascii	"F_\342\231\354\371\304#\357T\001T\202\257\330\321\375"
 457      ECF9C423 
 457      EF540154 
 457      82AFD8D1 
 457      FD
 458 1373 B831C951 		.ascii	"\2701\311Q\005=)\346\"\002\213\022\223Jc\241 \274\203"
 458      053D29E6 
 458      22028B12 
 458      934A63A1 
 458      20BC83
 459 1386 531EFC2E 		.ascii	"S\036\374.\313\367F\027\034\220\360\353\350\021\256"
 459      CBF74617 
 459      1C90F0EB 
 459      E811AE
 460 1395 AE406996 		.ascii	"\256@i\226\305\334\304\322\311\262\352\364O\374\011"
 460      C5DCC4D2 
 460      C9B2EAF4 
 460      4FFC09
 461 13a4 36160E61 		.ascii	"6\026\016aMy\303I\036\333\326\027\211\207\246\340\304"
 461      4D79C349 
 461      1EDBD617 
 461      8987A6E0 
 461      C4
 462 13b5 43D98C0A 		.ascii	"C\331\214\012\205\221Y\357\302\246\340Y\344^\023K'M"
 462      859159EF 
 462      C2A6E059 
 462      E45E134B 
 462      274D
 463 13c7 C2F27885 		.ascii	"\302\362x\205\211\301d\370w\\\001\256\251,\024\004\213"
 463      89C164F8 
 463      775C01AE 
 463      A92C1404 
 463      8B
 464 13d8 A2C7490E 		.ascii	"\242\307I\016\304\313\303\327\204\037Q\331O}(\005\356"
 464      C4CBC3D7 
 464      841F51D9 
 464      4F7D2805 
 464      EE
 465 13e9 EF41E512 		.ascii	"\357A\345\022\002\357G\027\031*_\217\353*\2368\271W"
 465      02EF4717 
 465      192A5F8F 
 465      EB2A9E38 
 465      B957
 466 13fb 144533D9 		.ascii	"\024E3\331\356\375P\224\013\241V6\221G\3614\216\232"
ARM GAS  /tmp/ccXZND8E.s 			page 37


 466      EEFD5094 
 466      0BA15636 
 466      9147F134 
 466      8E9A
 467 140d 1A2344B3 		.ascii	"\032#D\263\362\013\306E\374\026L\341\370\030\027\221"
 467      F20BC645 
 467      FC164CE1 
 467      F8181791 
 468 141d 8D8DDC39 		.ascii	"\215\215\3349\026\014\363\277\365\305\260\225\021\263"
 468      160CF3BF 
 468      F5C5B095 
 468      11B3
 469 142b BD102A1F 		.ascii	"\275\020*\037F\334\226\024\253I\244\225|}\231\202pq"
 469      46DC9614 
 469      AB49A495 
 469      7C7D9982 
 469      7071
 470 143d 8453BC0F 		.ascii	"\204S\274\017y\035\023*1v\247\310t\205E\243\306\215"
 470      791D132A 
 470      3176A7C8 
 470      748545A3 
 470      C68D
 471 144f 1C97AE1E 		.ascii	"\034\227\256\036w\247\241\350#\270\247{\342\337\307"
 471      77A7A1E8 
 471      23B8A77B 
 471      E2DFC7
 472 145e 07C7A3A8 		.ascii	"\007\307\243\250\351.\032?\366iO\321\177\024\025\215"
 472      E92E1A3F 
 472      F6694FD1 
 472      7F14158D 
 473 146e 1EEF291A 		.ascii	"\036\357)\0323\022_FL\300w\276qO\217\0301\006\337?="
 473      33125F46 
 473      4CC077BE 
 473      714F8F18 
 473      3106DF3F 
 474 1483 EE5974F1 		.ascii	"\356Yt\361\376\352\231\247\237@W\367\230\242qc\363\212"
 474      FEEA99A7 
 474      9F4057F7 
 474      98A27163 
 474      F38A
 475 1495 9E193566 		.ascii	"\236\0315f`\336\250\307\307\375z\240\377W\317\216.\032"
 475      60DEA8C7 
 475      C7FD7AA0 
 475      FF57CF8E 
 475      2E1A
 476 14a7 3FF299D1 		.ascii	"?\362\231\321\003\375cG\214\0331\366\337F<1\020\362"
 476      03FD6347 
 476      8C1B31F6 
 476      DF463C31 
 476      10F2
 477 14b9 0741FE20 		.ascii	"\007A\376 -\177\220\226?\010\362\007C\376`-\177\260"
 477      2D7F9096 
 477      3F08F207 
 477      43FE602D 
 477      7FB0
 478 14cb 963F18F2 		.ascii	"\226?\030\362\207@\376\020-\177\310\377\003\343z\224"
 478      8740FE10 
ARM GAS  /tmp/ccXZND8E.s 			page 38


 478      2D7FC8FF 
 478      03E37A94 
 479 14db E0       		.ascii	"\340"
 480              		.text
 481              		.section	.gnu.lto_.symtab.4d2c82ca517a39e7,"",%progbits
 482 0000 6368544D 		.ascii	"chTMObjectInit\000\000\000\000\000\000\000\000\000\000"
 482      4F626A65 
 482      6374496E 
 482      69740000 
 482      00000000 
 483 0018 0000D800 		.ascii	"\000\000\330\000\000\000chTMStartMeasurementX\000\000"
 483      00006368 
 483      544D5374 
 483      6172744D 
 483      65617375 
 484 0035 00000000 		.ascii	"\000\000\000\000\000\000\000\000\000\000\336\000\000"
 484      00000000 
 484      0000DE00 
 484      00
 485 0042 00636854 		.ascii	"\000chTMStopMeasurementX\000\000\000\000\000\000\000"
 485      4D53746F 
 485      704D6561 
 485      73757265 
 485      6D656E74 
 486 005e 00000000 		.ascii	"\000\000\000\000\000\344\000\000\000_tm_init\000\000"
 486      00E40000 
 486      005F746D 
 486      5F696E69 
 486      740000
 487 0071 00000000 		.ascii	"\000\000\000\000\000\000\000\000\000\000\351\000\000"
 487      00000000 
 487      0000E900 
 487      00
 488 007e 00636854 		.ascii	"\000chTMChainMeasurementToX\000\000\000\000\000\000"
 488      4D436861 
 488      696E4D65 
 488      61737572 
 488      656D656E 
 489 009c 00000000 		.ascii	"\000\000\000\000\000\000\355\000\000\000ch\000\000\002"
 489      0000ED00 
 489      00006368 
 489      000002
 490 00ab 00000000 		.ascii	"\000\000\000\000\000\000\000\000\000\370\000\000\000"
 490      00000000 
 490      00F80000 
 490      00
 491              		.text
 492              		.section	.gnu.lto_.opts,"",%progbits
 493 0000 272D6D63 		.ascii	"'-mcpu=cortex-m4' '-mno-thumb-interwork' '-mthumb' "
 493      70753D63 
 493      6F727465 
 493      782D6D34 
 493      2720272D 
 494 0033 272D6767 		.ascii	"'-ggdb' '-O0' '-fomit-frame-pointer' '-falign-funct"
 494      64622720 
 494      272D4F30 
 494      2720272D 
ARM GAS  /tmp/ccXZND8E.s 			page 39


 494      666F6D69 
 495 0066 696F6E73 		.ascii	"ions=16' '-ffunction-sections' '-fdata-sections' '-"
 495      3D313627 
 495      20272D66 
 495      66756E63 
 495      74696F6E 
 496 0099 666E6F2D 		.ascii	"fno-common' '-flto'\000"
 496      636F6D6D 
 496      6F6E2720 
 496      272D666C 
 496      746F2700 
 497              		.text
 498              		.cfi_sections	.debug_frame
 499              		.section	.text.port_rt_get_counter_value,"ax",%progbits
 500              		.align	2
 501              		.p2align 4,,15
 502              		.thumb
 503              		.thumb_func
 504              		.type	port_rt_get_counter_value, %function
 505              	port_rt_get_counter_value:
 506              	.LFB135:
 507              		.file 1 "../../../../os/rt/ports/ARMCMx/chcore_v7m.h"
 508              		.loc 1 568 0
 509              		.cfi_startproc
 510              		@ args = 0, pretend = 0, frame = 0
 511              		@ frame_needed = 0, uses_anonymous_args = 0
 512              		@ link register save eliminated.
 513              		.loc 1 570 0
 514 0000 4FF48053 		mov	r3, #4096
 515 0004 CEF20003 		movt	r3, 57344
 516 0008 5B68     		ldr	r3, [r3, #4]
 517              		.loc 1 571 0
 518 000a 1846     		mov	r0, r3
 519 000c 7047     		bx	lr
 520              		.cfi_endproc
 521              	.LFE135:
 522              		.size	port_rt_get_counter_value, .-port_rt_get_counter_value
 523 000e 00BF     		.section	.text.tm_stop,"ax",%progbits
 524              		.align	2
 525              		.p2align 4,,15
 526              		.thumb
 527              		.thumb_func
 528              		.type	tm_stop, %function
 529              	tm_stop:
 530              	.LFB241:
 531              		.file 2 "../../../../os/rt/src/chtm.c"
 532              		.loc 2 55 0
 533              		.cfi_startproc
 534              		@ args = 0, pretend = 0, frame = 16
 535              		@ frame_needed = 0, uses_anonymous_args = 0
 536              		@ link register save eliminated.
 537 0000 84B0     		sub	sp, sp, #16
 538              		.cfi_def_cfa_offset 16
 539 0002 0390     		str	r0, [sp, #12]
 540 0004 0291     		str	r1, [sp, #8]
 541 0006 0192     		str	r2, [sp, #4]
 542              		.loc 2 57 0
ARM GAS  /tmp/ccXZND8E.s 			page 40


 543 0008 039B     		ldr	r3, [sp, #12]
 544 000a DB68     		ldr	r3, [r3, #12]
 545 000c 5A1C     		adds	r2, r3, #1
 546 000e 039B     		ldr	r3, [sp, #12]
 547 0010 DA60     		str	r2, [r3, #12]
 548              		.loc 2 58 0
 549 0012 039B     		ldr	r3, [sp, #12]
 550 0014 9B68     		ldr	r3, [r3, #8]
 551 0016 029A     		ldr	r2, [sp, #8]
 552 0018 D21A     		subs	r2, r2, r3
 553 001a 019B     		ldr	r3, [sp, #4]
 554 001c D21A     		subs	r2, r2, r3
 555 001e 039B     		ldr	r3, [sp, #12]
 556 0020 9A60     		str	r2, [r3, #8]
 557              		.loc 2 59 0
 558 0022 039B     		ldr	r3, [sp, #12]
 559 0024 D3E90401 		ldrd	r0, [r3, #16]
 560 0028 039B     		ldr	r3, [sp, #12]
 561 002a 9B68     		ldr	r3, [r3, #8]
 562 002c 1A46     		mov	r2, r3
 563 002e 4FF00003 		mov	r3, #0
 564 0032 1218     		adds	r2, r2, r0
 565 0034 43EB0103 		adc	r3, r3, r1
 566 0038 0399     		ldr	r1, [sp, #12]
 567 003a C1E90423 		strd	r2, [r1, #16]
 568              		.loc 2 60 0
 569 003e 039B     		ldr	r3, [sp, #12]
 570 0040 9A68     		ldr	r2, [r3, #8]
 571 0042 039B     		ldr	r3, [sp, #12]
 572 0044 5B68     		ldr	r3, [r3, #4]
 573 0046 9A42     		cmp	r2, r3
 574 0048 03D9     		bls	.L4
 575              		.loc 2 61 0
 576 004a 039B     		ldr	r3, [sp, #12]
 577 004c 9A68     		ldr	r2, [r3, #8]
 578 004e 039B     		ldr	r3, [sp, #12]
 579 0050 5A60     		str	r2, [r3, #4]
 580              	.L4:
 581              		.loc 2 63 0
 582 0052 039B     		ldr	r3, [sp, #12]
 583 0054 9A68     		ldr	r2, [r3, #8]
 584 0056 039B     		ldr	r3, [sp, #12]
 585 0058 1B68     		ldr	r3, [r3]
 586 005a 9A42     		cmp	r2, r3
 587 005c 03D2     		bcs	.L3
 588              		.loc 2 64 0
 589 005e 039B     		ldr	r3, [sp, #12]
 590 0060 9A68     		ldr	r2, [r3, #8]
 591 0062 039B     		ldr	r3, [sp, #12]
 592 0064 1A60     		str	r2, [r3]
 593              	.L3:
 594              		.loc 2 66 0
 595 0066 04B0     		add	sp, sp, #16
 596              		@ sp needed
 597 0068 7047     		bx	lr
 598              		.cfi_endproc
 599              	.LFE241:
ARM GAS  /tmp/ccXZND8E.s 			page 41


 600              		.size	tm_stop, .-tm_stop
 601 006a 00BFAFF3 		.section	.text._tm_init,"ax",%progbits
 601      0080
 602              		.align	2
 603              		.p2align 4,,15
 604              		.global	_tm_init
 605              		.thumb
 606              		.thumb_func
 607              		.type	_tm_init, %function
 608              	_tm_init:
 609              	.LFB242:
 610              		.loc 2 77 0
 611              		.cfi_startproc
 612              		@ args = 0, pretend = 0, frame = 24
 613              		@ frame_needed = 0, uses_anonymous_args = 0
 614 0000 00B5     		push	{lr}
 615              		.cfi_def_cfa_offset 4
 616              		.cfi_offset 14, -4
 617 0002 87B0     		sub	sp, sp, #28
 618              		.cfi_def_cfa_offset 32
 619              		.loc 2 83 0
 620 0004 40F20003 		movw	r3, #:lower16:ch
 621 0008 C0F20003 		movt	r3, #:upper16:ch
 622 000c 0022     		movs	r2, #0
 623 000e C3F8A024 		str	r2, [r3, #1184]
 624              		.loc 2 84 0
 625 0012 6B46     		mov	r3, sp
 626 0014 1846     		mov	r0, r3
 627 0016 FFF7FEFF 		bl	chTMObjectInit
 628              		.loc 2 85 0
 629 001a 6B46     		mov	r3, sp
 630 001c 1846     		mov	r0, r3
 631 001e FFF7FEFF 		bl	chTMStartMeasurementX
 632              		.loc 2 86 0
 633 0022 6B46     		mov	r3, sp
 634 0024 1846     		mov	r0, r3
 635 0026 FFF7FEFF 		bl	chTMStopMeasurementX
 636              		.loc 2 87 0
 637 002a 029A     		ldr	r2, [sp, #8]
 638 002c 40F20003 		movw	r3, #:lower16:ch
 639 0030 C0F20003 		movt	r3, #:upper16:ch
 640 0034 C3F8A024 		str	r2, [r3, #1184]
 641              		.loc 2 88 0
 642 0038 07B0     		add	sp, sp, #28
 643              		@ sp needed
 644 003a 5DF804FB 		ldr	pc, [sp], #4
 645              		.cfi_endproc
 646              	.LFE242:
 647              		.size	_tm_init, .-_tm_init
 648 003e 00BF     		.section	.text.chTMObjectInit,"ax",%progbits
 649              		.align	2
 650              		.p2align 4,,15
 651              		.global	chTMObjectInit
 652              		.thumb
 653              		.thumb_func
 654              		.type	chTMObjectInit, %function
 655              	chTMObjectInit:
ARM GAS  /tmp/ccXZND8E.s 			page 42


 656              	.LFB243:
 657              		.loc 2 97 0
 658              		.cfi_startproc
 659              		@ args = 0, pretend = 0, frame = 8
 660              		@ frame_needed = 0, uses_anonymous_args = 0
 661              		@ link register save eliminated.
 662 0000 82B0     		sub	sp, sp, #8
 663              		.cfi_def_cfa_offset 8
 664 0002 0190     		str	r0, [sp, #4]
 665              		.loc 2 99 0
 666 0004 019B     		ldr	r3, [sp, #4]
 667 0006 4FF0FF32 		mov	r2, #-1
 668 000a 1A60     		str	r2, [r3]
 669              		.loc 2 100 0
 670 000c 019B     		ldr	r3, [sp, #4]
 671 000e 0022     		movs	r2, #0
 672 0010 5A60     		str	r2, [r3, #4]
 673              		.loc 2 101 0
 674 0012 019B     		ldr	r3, [sp, #4]
 675 0014 0022     		movs	r2, #0
 676 0016 9A60     		str	r2, [r3, #8]
 677              		.loc 2 102 0
 678 0018 019B     		ldr	r3, [sp, #4]
 679 001a 0022     		movs	r2, #0
 680 001c DA60     		str	r2, [r3, #12]
 681              		.loc 2 103 0
 682 001e 0199     		ldr	r1, [sp, #4]
 683 0020 4FF00002 		mov	r2, #0
 684 0024 4FF00003 		mov	r3, #0
 685 0028 C1E90423 		strd	r2, [r1, #16]
 686              		.loc 2 104 0
 687 002c 02B0     		add	sp, sp, #8
 688              		@ sp needed
 689 002e 7047     		bx	lr
 690              		.cfi_endproc
 691              	.LFE243:
 692              		.size	chTMObjectInit, .-chTMObjectInit
 693              		.section	.text.chTMStartMeasurementX,"ax",%progbits
 694              		.align	2
 695              		.p2align 4,,15
 696              		.global	chTMStartMeasurementX
 697              		.thumb
 698              		.thumb_func
 699              		.type	chTMStartMeasurementX, %function
 700              	chTMStartMeasurementX:
 701              	.LFB244:
 702              		.loc 2 114 0
 703              		.cfi_startproc
 704              		@ args = 0, pretend = 0, frame = 8
 705              		@ frame_needed = 0, uses_anonymous_args = 0
 706 0000 00B5     		push	{lr}
 707              		.cfi_def_cfa_offset 4
 708              		.cfi_offset 14, -4
 709 0002 83B0     		sub	sp, sp, #12
 710              		.cfi_def_cfa_offset 16
 711 0004 0190     		str	r0, [sp, #4]
 712              		.loc 2 116 0
ARM GAS  /tmp/ccXZND8E.s 			page 43


 713 0006 FFF7FEFF 		bl	port_rt_get_counter_value
 714 000a 0246     		mov	r2, r0
 715 000c 019B     		ldr	r3, [sp, #4]
 716 000e 9A60     		str	r2, [r3, #8]
 717              		.loc 2 117 0
 718 0010 03B0     		add	sp, sp, #12
 719              		@ sp needed
 720 0012 5DF804FB 		ldr	pc, [sp], #4
 721              		.cfi_endproc
 722              	.LFE244:
 723              		.size	chTMStartMeasurementX, .-chTMStartMeasurementX
 724 0016 00BFAFF3 		.section	.text.chTMStopMeasurementX,"ax",%progbits
 724      0080AFF3 
 724      0080
 725              		.align	2
 726              		.p2align 4,,15
 727              		.global	chTMStopMeasurementX
 728              		.thumb
 729              		.thumb_func
 730              		.type	chTMStopMeasurementX, %function
 731              	chTMStopMeasurementX:
 732              	.LFB245:
 733              		.loc 2 127 0
 734              		.cfi_startproc
 735              		@ args = 0, pretend = 0, frame = 8
 736              		@ frame_needed = 0, uses_anonymous_args = 0
 737 0000 00B5     		push	{lr}
 738              		.cfi_def_cfa_offset 4
 739              		.cfi_offset 14, -4
 740 0002 83B0     		sub	sp, sp, #12
 741              		.cfi_def_cfa_offset 16
 742 0004 0190     		str	r0, [sp, #4]
 743              		.loc 2 129 0
 744 0006 FFF7FEFF 		bl	port_rt_get_counter_value
 745 000a 0246     		mov	r2, r0
 746 000c 40F20003 		movw	r3, #:lower16:ch
 747 0010 C0F20003 		movt	r3, #:upper16:ch
 748 0014 D3F8A034 		ldr	r3, [r3, #1184]
 749 0018 0198     		ldr	r0, [sp, #4]
 750 001a 1146     		mov	r1, r2
 751 001c 1A46     		mov	r2, r3
 752 001e FFF7FEFF 		bl	tm_stop
 753              		.loc 2 130 0
 754 0022 03B0     		add	sp, sp, #12
 755              		@ sp needed
 756 0024 5DF804FB 		ldr	pc, [sp], #4
 757              		.cfi_endproc
 758              	.LFE245:
 759              		.size	chTMStopMeasurementX, .-chTMStopMeasurementX
 760 0028 AFF30080 		.section	.text.chTMChainMeasurementToX,"ax",%progbits
 760      AFF30080 
 761              		.align	2
 762              		.p2align 4,,15
 763              		.global	chTMChainMeasurementToX
 764              		.thumb
 765              		.thumb_func
 766              		.type	chTMChainMeasurementToX, %function
ARM GAS  /tmp/ccXZND8E.s 			page 44


 767              	chTMChainMeasurementToX:
 768              	.LFB246:
 769              		.loc 2 145 0
 770              		.cfi_startproc
 771              		@ args = 0, pretend = 0, frame = 8
 772              		@ frame_needed = 0, uses_anonymous_args = 0
 773 0000 00B5     		push	{lr}
 774              		.cfi_def_cfa_offset 4
 775              		.cfi_offset 14, -4
 776 0002 83B0     		sub	sp, sp, #12
 777              		.cfi_def_cfa_offset 16
 778 0004 0190     		str	r0, [sp, #4]
 779 0006 0091     		str	r1, [sp]
 780              		.loc 2 148 0
 781 0008 FFF7FEFF 		bl	port_rt_get_counter_value
 782 000c 0246     		mov	r2, r0
 783 000e 009B     		ldr	r3, [sp]
 784 0010 9A60     		str	r2, [r3, #8]
 785              		.loc 2 151 0
 786 0012 009B     		ldr	r3, [sp]
 787 0014 9B68     		ldr	r3, [r3, #8]
 788 0016 0198     		ldr	r0, [sp, #4]
 789 0018 1946     		mov	r1, r3
 790 001a 0022     		movs	r2, #0
 791 001c FFF7FEFF 		bl	tm_stop
 792              		.loc 2 152 0
 793 0020 03B0     		add	sp, sp, #12
 794              		@ sp needed
 795 0022 5DF804FB 		ldr	pc, [sp], #4
 796              		.cfi_endproc
 797              	.LFE246:
 798              		.size	chTMChainMeasurementToX, .-chTMChainMeasurementToX
 799 0026 00BFAFF3 		.text
 799      0080AFF3 
 799      0080
 800              	.Letext0:
 801              		.file 3 "/usr/include/newlib/machine/_default_types.h"
 802              		.file 4 "/usr/include/newlib/stdint.h"
 803              		.file 5 "../../../../os/rt/ports/ARMCMx/compilers/GCC/chtypes.h"
 804              		.file 6 "../../../../os/rt/include/chsystypes.h"
 805              		.file 7 "../../../../os/rt/include/chschd.h"
 806              		.file 8 "../../../../os/ext/CMSIS/include/core_cm4.h"
 807              		.file 9 "../../../../os/rt/ports/ARMCMx/chcore.h"
 808              		.file 10 "../../../../os/rt/include/chdebug.h"
 809              		.file 11 "../../../../os/rt/include/chtm.h"
 810              		.file 12 "../../../../os/rt/include/chstats.h"
 811              		.file 13 "../../../../os/rt/include/chsem.h"
 812              		.file 14 "../../../../os/rt/include/chmtx.h"