ARM GAS  /tmp/ccTqNS2e.s 			page 1


   1              		.syntax unified
   2              		.cpu cortex-m4
   3              		.fpu softvfp
   4              		.eabi_attribute 20, 1
   5              		.eabi_attribute 21, 1
   6              		.eabi_attribute 23, 3
   7              		.eabi_attribute 24, 1
   8              		.eabi_attribute 25, 1
   9              		.eabi_attribute 26, 1
  10              		.eabi_attribute 30, 6
  11              		.eabi_attribute 34, 1
  12              		.eabi_attribute 18, 4
  13              		.thumb
  14              		.file	"chtm.c"
  15              		.text
  16              	.Ltext0:
  17              		.section	.gnu.lto_.inline.1143dcec711e2a3d,"",%progbits
  18 0000 789C6362 		.ascii	"x\234cb`b\300\006VBiv\006\006\026f\006\006&\226\017"
  18      6062C006 
  18      56426976 
  18      06061666 
  18      06062696 
  19 0015 7A0C2C10 		.ascii	"z\014,\020\265\214\0142\322@\021\223\017K\231aBL\014"
  19      B58C0C32 
  19      D2401193 
  19      0F4B9961 
  19      424C0C
  20 0028 9C1C4092 		.ascii	"\234\034@\222\257\241\026&\302\314\300\306\207\252\215"
  20      AFA11626 
  20      C2CCC0C6 
  20      87AA8D
  21 0037 891B48B0 		.ascii	"\211\033H\2600pI\243\012\263\360\302\344\330\030x\324"
  21      307049A3 
  21      0AB3F0C2 
  21      E4D81878 
  21      D4
  22 0048 804C8E09 		.ascii	"\200L\216\011~(Z\020\004;\003\267\014\220\311v\300\016"
  22      7E285A10 
  22      043B03B7 
  22      0C90C976 
  22      C00E
  23 005a 53330300 		.ascii	"S3\003\000J\323\012|"
  23      4AD30A7C 
  24              		.text
  25              		.section	.gnu.lto_port_rt_get_counter_value.1143dcec711e2a3d,"",%progbits
  26 0000 789C6362 		.ascii	"x\234cb`b@\007\322@l\310\310\300`\006\342\26000\002"
  26      60624007 
  26      D2406CC8 
  26      C8C06006 
  26      E2B03030 
  27 0015 55303231 		.ascii	"U0212\003IfF\2400\003#C=\0233c}$\210\315\300\244\304"
  27      32034966 
  27      46A03003 
  27      23433D13 
  27      33637D24 
  28 002e B0B0A161 		.ascii	"\260\260\241a\326\203\243\373z\230gN9\320\262\240\341"
  28      D683A3FB 
ARM GAS  /tmp/ccTqNS2e.s 			page 2


  28      7A98674E 
  28      39D0B2A0 
  28      E1
  29 003f CFFFFF8C 		.ascii	"\317\377\377\214\214\231 \311dF\206\010 \213Q\001L1"
  29      8C9920C9 
  29      64468608 
  29      208B5101 
  29      4C31
  30 0051 B1A05A03 		.ascii	"\261\240Z\003\3268\251a\367\223\200\023\015-\007\376"
  30      D638A961 
  30      F7938013 
  30      0D2D07FE 
  31 0061 FFB7CF04 		.ascii	"\377\267\317\004\331\201_\317z\246\003\017\376\377\357"
  31      D9815FCF 
  31      7AA6030F 
  31      FEFFEF
  32 0070 997F6CFB 		.ascii	"\231\177l\373\036\306~efF\006\240\036&\006\260e\014"
  32      1EC67E65 
  32      664606A0 
  32      1E2606B0 
  32      650C
  33 0082 AC0C2D0D 		.ascii	"\254\014-\015\015\023\024\300F\000A\010\230\014\005"
  33      0D1314C0 
  33      46004108 
  33      980C05
  34 0091 B99EF92C 		.ascii	"\271\236\371,C\323\216\033\373zd\023\031\0273\2622\244"
  34      43D38E1B 
  34      FB7A6413 
  34      191733B2 
  34      32A4
  35 00a3 333282CC 		.ascii	"32\202\314fnX\320\320\300\007Ts\226\341\320\255\002"
  35      666E58D0 
  35      D0C00754 
  35      7396E1D0 
  35      AD02
  36 00b5 98149336 		.ascii	"\230\024\2236\303\252\206\226\306\006\353LF\226\331"
  36      C3AA8696 
  36      C606EB4C 
  36      4696D9
  37 00c4 0CB380EA 		.ascii	"\014\263\200\352Xa\352\301.HbDvO(H\224\3714C#\007\003"
  37      5861EAC1 
  37      2E486244 
  37      764F2848 
  37      94F93443 
  38 00db 430A48E6 		.ascii	"C\012H\346\"C\343\001f\270Y\020E!\240P\003\261Mr2\223"
  38      2243E301 
  38      66B85910 
  38      4521A050 
  38      03B14D72 
  39 00f1 F49D3332 		.ascii	"\364\23532\2232\375\203\343\015\315\364\014\365L\364"
  39      9332FD83 
  39      E30DCDF4 
  39      0CF54CF4 
  40 0101 F5F38BF5 		.ascii	"\365\363\213\365\213J\364\013\362\213J\212\365\035\203"
  40      8B4AF40B 
  40      F28B4A8A 
  40      F51D83
ARM GAS  /tmp/ccTqNS2e.s 			page 3


  41 0110 7C9D7D2B 		.ascii	"|\235}+\364\2233\222\363\213R\343\313\314s\3652\030"
  41      F4933392 
  41      F38B52E3 
  41      CBCC73F5 
  41      3218
  42 0122 00122F53 		.ascii	"\000\022/S\303"
  42      C3
  43              		.text
  44              		.section	.gnu.lto_tm_stop.1143dcec711e2a3d,"",%progbits
  45 0000 789CBD93 		.ascii	"x\234\275\223Mh\023A\024\307\347\355G6M\232&\215(\012"
  45      4D681341 
  45      14C7E7ED 
  45      47364D9A 
  45      268D280A 
  46 0014 1E8A2282 		.ascii	"\036\212\"\202\205,\001\361$(x\362d\301\026\364$&`\272"
  46      852C01F1 
  46      242878F2 
  46      64C116F4 
  46      242660BA 
  47 0028 6011DADE 		.ascii	"`\021\332\336;I\212\264\005!V\260E\241\332\203\036\004"
  47      3B498AB4 
  47      052156B0 
  47      45A1DA83 
  47      1E04
  48 003a B528827A 		.ascii	"\265(\202z\332\203\207\004)\330\213\037\201\326P\214"
  48      DA838704 
  48      29D88B1F 
  48      81D6508C 
  49 004a E8457211 		.ascii	"\350Er\021#\212\353{\273;\331\332\206d\223\203\003\373"
  49      238AEB7B 
  49      BB3BD9DA 
  49      86649383 
  49      03FB
  50 005c E6E3CDEF 		.ascii	"\346\343\315\357\275\377\333\231\221\230\304\266\267"
  50      BDFFDB99 
  50      9198C4B6 
  50      B7
  51 0069 E3F8BDD0 		.ascii	"\343\370\275\320\030;L\023\215\001\356\000I\222\031"
  51      183B4C13 
  51      8D01EE00 
  51      499219
  52 0078 E3928246 		.ascii	"\343\222\202F\221\001;P$\225V\002\264\242\002v\020\000"
  52      91013B50 
  52      24955602 
  52      B4A20276 
  52      1000
  53 008a 4000D894 		.ascii	"@\000\330\224$+j\000\246\316\323\224E\017\260e\316\347"
  53      242B6A00 
  53      A6CED394 
  53      450FB065 
  53      CEE7
  54 009c 2BF7965E 		.ascii	"+\367\226^/\003\237\347\331\232eE\015r\245\201\235\003"
  54      2F039FE7 
  54      D99A6545 
  54      0D72A581 
  54      9D03
  55 00ae 0360C0EE 		.ascii	"\003`\300\356(\366\326\346`\374\351\247\241\"\2376-"
ARM GAS  /tmp/ccTqNS2e.s 			page 4


  55      28F6D6E6 
  55      60FCE9A7 
  55      A1229F36 
  55      2D
  56 00bf EB846FC6 		.ascii	"\353\204o\306\374^-u\223\352C\347\251\370\215j\347\362"
  56      FC5E2D75 
  56      93EA43E7 
  56      A9F88D6A 
  56      E7F2
  57 00d1 7E3C5C43 		.ascii	"~<\\Cy\233\274\300\377X\026n\223=\356\244\303\005\233"
  57      799BBCC0 
  57      FF58166E 
  57      933DEEA4 
  57      C3059B
  58 00e4 E65AE83C 		.ascii	"\346Z\350<\027_\37724\2237y\335\2624\377\211\336u\001"
  58      175FFF32 
  58      34933779 
  58      DDB234FF 
  58      89DE7501 
  59 00f8 993FBF16 		.ascii	"\231?\277\026\273\371\351\353]\234\357\257g\335\234"
  59      BBF9E9EB 
  59      5D9CEFAF 
  59      67DD9C
  60 0107 AF69FD3F 		.ascii	"\257i\375?\205\327\257\336\3347w7'N\270-\366X2+\226"
  60      85D7AFDE 
  60      DC377737 
  60      274EB82D 
  60      F658322B 
  61 011c F5FBDAC2 		.ascii	"\365\373\332\302\333\275\260\013`\014\360Y\"&\223Q\310"
  61      DBBDB00B 
  61      600CF059 
  61      22269351 
  61      C8
  62 012d A8B8868F 		.ascii	"\250\270\206\217\014G\032\216\360\010p\324\203F\016"
  62      0C471A8E 
  62      F00870D4 
  62      83460E
  63 013c D1284CA3 		.ascii	"\321(L\243^2\021\232\366\221\211\222\211\221\351'\023"
  63      5E32119A 
  63      F6918992 
  63      8991E927 
  63      13
  64 014d 67B60CA6 		.ascii	"g\266\014\246\262i\316\013\003\266 l\303\266\035\241"
  64      B269CE0B 
  64      03B6206C 
  64      C3B61DA1 
  65 015d 372EAFB2 		.ascii	"7.\257\262\\\371\371\222|\021V@e\031\220\006\331\021"
  65      5CF9F992 
  65      7C115640 
  65      65199006 
  65      D911
  66 016f 0394DBEC 		.ascii	"\003\224\333\354\026\012V3\000$<`\313M\201\020\276\312"
  66      160A5633 
  66      00243C60 
  66      CB4D8110 
  66      BECA
  67 0181 F233F94B 		.ascii	"\3623\371K\002\221\221\242]\012\330\256\334i\3071\310"
ARM GAS  /tmp/ccTqNS2e.s 			page 5


  67      029191A2 
  67      5D0AD8AE 
  67      DC69C731 
  67      C8
  68 0192 1E706C91 		.ascii	"\036pl\2216\3212t\327H\304\373\215\375\"\242b\213\320"
  68      36D13274 
  68      D748C4FB 
  68      8DFD22A2 
  68      628BD0
  69 01a5 9A63E089 		.ascii	"\232c\340\211\230\315?\001\301\0042\264Sq\327\357Kb"
  69      98CD3F01 
  69      C10432B4 
  69      5371D7EF 
  69      4B62
  70 01b7 3D68BB34 		.ascii	"=h\2734;GiE\333\256\255e\022\244\035m\365\215\335\""
  70      3B476945 
  70      DBAEAD65 
  70      12A41D6D 
  70      F58DDD22 
  71 01cb 5E8FC3C6 		.ascii	"^\217\303\306\014\0106G\245\206\276\\\271\026\027X\310"
  71      0C083647 
  71      A586BE5C 
  71      B9161758 
  71      C8
  72 01dc 5F49B96F 		.ascii	"_I\271o\371\227\215\222\302\210\271?\373Qc\261\027%"
  72      F9978D92 
  72      C288B93F 
  72      FB5163B1 
  72      1725
  73 01ee A06BE79F 		.ascii	"\240k\347\237n\247\010QG\324\342\235\210\010\026\361"
  73      6EA70851 
  73      47D4E29D 
  73      880816F1 
  74 01fe A9AAFC26 		.ascii	"\251\252\374&,\220\276V\210\354\"E\366\352s\326\313"
  74      2C90BE56 
  74      88EC2245 
  74      F6EA73D6 
  74      CB
  75 020f 829477EB 		.ascii	"\202\224w\353Gh\227s\355>\356\021[\242>\205\224\012"
  75      47689773 
  75      ED3EEE11 
  75      5BA23E85 
  75      940A
  76 0221 A17F4E30 		.ascii	"\241\177N0\331F\012F\026Y\0257k\335+?\326y\371\375\255"
  76      D9460A46 
  76      16591537 
  76      6BDD2B3F 
  76      D679F9FD 
  77 0236 10F1BEB1 		.ascii	"\020\361\276\261\374\252W~\014\251\255\345\253\256\220"
  77      FCAA577E 
  77      0CA9ADE5 
  77      ABAE90
  78 0245 C5CD4AE3 		.ascii	"\305\315J\343\226\306\375\326_\323|\326\257\270\365"
  78      96C6FDD6 
  78      5FD37CD6 
  78      AFB8F5
  79 0254 C7455A74 		.ascii	"\307EZt\310k,[\231;\350D\020m\230\342\323\0259t\331"
ARM GAS  /tmp/ccTqNS2e.s 			page 6


  79      C86B2C5B 
  79      993BE844 
  79      106D98E2 
  79      D3153974 
  80 0269 48E9A746 		.ascii	"H\351\247F\215\224q\346\354\205\344\261D2qT\327\257"
  80      8D9471E6 
  80      EC85E4B1 
  80      44327154 
  80      D7AF
  81 027b 4CE8E393 		.ascii	"L\350\343\223\372\304xZO\217N\216%\322\354/\204\347"
  81      FAC4785A 
  81      4F8F4E8E 
  81      25D2EC2F 
  81      84E7
  82 028d A36B     		.ascii	"\243k"
  83              		.text
  84              		.section	.gnu.lto_chTMObjectInit.1143dcec711e2a3d,"",%progbits
  85 0000 789C6362 		.ascii	"x\234cb`b@\007\"@\334\317\310\300\240\016\342030\002"
  85      60624007 
  85      2240DCCF 
  85      C8C0A00E 
  85      E2303330 
  86 0015 55303231 		.ascii	"U021\002\005\030\030\031\352\231\030\353#\031\301\312"
  86      02051818 
  86      19EA9918 
  86      EB2319C1 
  86      CA
  87 0026 D6331D78 		.ascii	"\3263\035x\360\377\377\272I\355\353{\030\3472\001\025"
  87      F0FFFFBA 
  87      49EDEB7B 
  87      18E73201 
  87      15
  88 0037 E482C559 		.ascii	"\344\202\305Y\031Z\032\032&(00$\203\271!`2\024d\010"
  88      195A1A1A 
  88      26283030 
  88      2483B921 
  88      60321464 
  89 004c F35986A6 		.ascii	"\363Y\206\246\035?>\335`Jd\\\310\310\312\240\315\260"
  89      1D3F3EDD 
  89      604A645C 
  89      C8C8CAA0 
  89      CDB0
  90 005e AA010878 		.ascii	"\252\001\010x3\031\031f3\314b\314ddLgd\214\000\322\020"
  90      33191966 
  90      33CC62CC 
  90      64644C67 
  90      648C00D2 
  91 0073 1725416C 		.ascii	"\027%Ala\000\2110\377\007\002~ \007d\302\214\317D\233"
  91      61008930 
  91      FF07027E 
  91      200764C2 
  91      8CCF449B 
  92 0087 C0883081 		.ascii	"\300\2100\201\001\252{\007\361\272\2310u\337\300\242"
  92      01AA7B07 
  92      F1BA9930 
  92      75DFC0A2 
  93 0097 9B05BB6E 		.ascii	"\233\005\273nfL\335?\260\350f\305\256\233\005\256\233"
ARM GAS  /tmp/ccTqNS2e.s 			page 7


  93      664CDD3F 
  93      B0E866C5 
  93      AE9B05AE 
  93      9B
  94 00a8 0DC4B8C8 		.ascii	"\015\304\270\310\320\370\340\2062D/\014\204\200\274"
  94      D0F8E086 
  94      32442F0C 
  94      8480BC
  95 00b7 0752AF9A 		.ascii	"\007R\257\232\223\231\244\357\234\221\231\224\351\037"
  95      9399A4EF 
  95      9C919994 
  95      E91F
  96 00c5 1C6F68A6 		.ascii	"\034oh\246g\250g\242\257\237_\254_T\242_\\\224\254\237"
  96      67A867A2 
  96      AF9F5FAC 
  96      5F54A25F 
  96      5C94AC9F 
  97 00d9 9C5192AB 		.ascii	"\234Q\222\253\227\314\000\000\276fc\035"
  97      97CC0000 
  97      BE66631D 
  98              		.text
  99              		.section	.gnu.lto_chTMStartMeasurementX.1143dcec711e2a3d,"",%progbits
 100 0000 789C6362 		.ascii	"x\234cb`b@\007\"@\374\021\210\325A\034f\006F\240\012"
 100      60624007 
 100      2240FC11 
 100      88D5411C 
 100      660646A0 
 101 0015 46264646 		.ascii	"F&FF \207\221\241\236\211\261>\022\304d`TbX\330\320"
 101      208791A1 
 101      9E89B13E 
 101      12C46460 
 101      546258D8 
 102 002a 30E941EB 		.ascii	"0\351A\353\357\037\2143\247\034hY\320\360\347\377\177"
 102      EF1F8C33 
 102      A71C6859 
 102      D0F0E7FF 
 102      7F
 103 003b 46C64C90 		.ascii	"F\306L\220d2#C\004\220\305\250\000\246\230XP\315_\317"
 103      64322343 
 103      0490C5A8 
 103      00A69858 
 103      50CD5FCF 
 104 004f 74E0C1FF 		.ascii	"t\340\301\377\377k\366\376x\374\226Q\220\231\221\001"
 104      FF6BF6FE 
 104      78FC9651 
 104      90999101 
 105 005f A8858931 		.ascii	"\250\205\2111\027l(+CKC\303\004\005\260\011@\020\002"
 105      176C282B 
 105      434B43C3 
 105      0405B009 
 105      401002
 106 0072 2643412E 		.ascii	"&CA.`>\317\320\374\340\315c\366D\306E\214\254\014\351"
 106      603ECFD0 
 106      FCE0CD63 
 106      F644C645 
 106      8CAC0CE9 
 107 0086 8C8CD50C 		.ascii	"\214\214\325\014\277\032:\032\0042\031\231\223\301n"
ARM GAS  /tmp/ccTqNS2e.s 			page 8


 107      BF1A3A1A 
 107      04321999 
 107      93C16E
 108 0095 63009A03 		.ascii	"c\000\232\003\264\350,C\323\311\015PU\332\014\253\032"
 108      B4E82C43 
 108      D3C90D50 
 108      55DA0CAB 
 108      1A
 109 00a6 80803793 		.ascii	"\200\2007\223\221u6\303,\240K\330\322\031\231@.b\007"
 109      917536C3 
 109      2CA04BD8 
 109      D2199940 
 109      2E6207
 110 00b9 AB4F8268 		.ascii	"\253O\202h\003\031\306\300p\221\241\361\301[e\210>\030"
 110      0319C6C0 
 110      7091A1F1 
 110      C15B6588 
 110      3E18
 111 00cb 08014980 		.ascii	"\010\001I\200\302G5'3I\3379#3)\323?8\336\320L\317P\317"
 111      C2473527 
 111      3349DF39 
 111      233329D3 
 111      3F38DED0 
 112 00e3 445F3FBF 		.ascii	"D_?\277X\277\250D\277\270(Y?9\243$W/\231\001\000!pC"
 112      58BFA844 
 112      BFB82859 
 112      3F39A324 
 112      572F9901 
 113 00fb 14       		.ascii	"\024"
 114              		.text
 115              		.section	.gnu.lto_chTMStopMeasurementX.1143dcec711e2a3d,"",%progbits
 116 0000 789C6362 		.ascii	"x\234cb`b@\007\"@\\\302\310\300\240\016\342030\002U"
 116      60624007 
 116      22405CC2 
 116      C8C0A00E 
 116      E2303330 
 117 0016 30323102 		.ascii	"021\002\005\030\030\031\352\231\030\353#AL\006&%\206"
 117      05181819 
 117      EA9918EB 
 117      23414C06 
 117      262586
 118 0029 850D0D93 		.ascii	"\205\015\015\223\036,]t\221q\346\224\003-\013\032\376"
 118      1E2C5D74 
 118      9171E694 
 118      032D0B1A 
 118      FE
 119 003a FCFFCFC8 		.ascii	"\374\377\317\310\230\011\222Lfd\210\000\262\030\025"
 119      9809924C 
 119      66648800 
 119      B21815
 120 0049 C014130B 		.ascii	"\300\024\023\013\252\371\020\215\015\233V4p\20251\023"
 120      AAF9108D 
 120      0D9B5634 
 120      70823531 
 120      13
 121 005a A1673DD3 		.ascii	"\241g=\323\201\007\377\377\377\331\377\345q\027\243"
 121      8107FFFF 
ARM GAS  /tmp/ccTqNS2e.s 			page 9


 121      FFD9FFE5 
 121      7117A3
 122 0069 100B2303 		.ascii	"\020\013#\003P\013\023\210`f\314\005\273\206\225\241"
 122      500B1388 
 122      6066CC05 
 122      BB8695A1 
 123 0079 A5A16182 		.ascii	"\245\241a\202\002\330\030 \010\001\223\241 \2473\237"
 123      02D81820 
 123      080193A1 
 123      20A7339F 
 124 0089 67687ED0 		.ascii	"gh~\320y\224-\221q1#+C:#c5\303\257\206\216\006\201L"
 124      79942D91 
 124      7131232B 
 124      433A2363 
 124      35C3AF86 
 125 00a1 46E664B0 		.ascii	"F\346d\260\247\030\200\346\000m;\313\320\024\005S\303"
 125      A71880E6 
 125      006D3BCB 
 125      D0140553 
 125      C3
 126 00b2 A4CDA095 		.ascii	"\244\315\240\225\311\310\252\315\260\252\001\010\366"
 126      C9C8AACD 
 126      B0AA0108 
 126      F6
 127 00bf 02DDC336 		.ascii	"\002\335\3036\233aVc\003H\027;\\?G.X?\310\271\034`s"
 127      9B615663 
 127      0348173B 
 127      5C3F472E 
 127      583FC8B9 
 128 00d6 9220C601 		.ascii	"\222 \306\001i(\203\341<C\333\001)\210\251\014\014p"
 128      692883E1 
 128      3C43DB01 
 128      2988A90C 
 128      0C70
 129 00e8 8D9CC98C 		.ascii	"\215\234\311\214\220POgd\006:\010h_&#\027\003\303E\206"
 129      90504F67 
 129      64063A08 
 129      685F2623 
 129      1703C345 
 130 00fd C6075DAA 		.ascii	"\306\007]\2520\325\020\020\0022\012\244X5'3I\3379#3"
 130      30D51010 
 130      02320AA4 
 130      58352733 
 130      49DF3923 
 131 0112 29D33F38 		.ascii	")\323?8\336\320L\317P\317D_?\277X\277\250D\277\270("
 131      DED04CCF 
 131      50CF445F 
 131      3FBF58BF 
 131      A844BFB8 
 132 0127 593F39A3 		.ascii	"Y?9\243$W/\231\001\000\206\026[\240"
 132      24572F99 
 132      01008616 
 132      5BA0
 133              		.text
 134              		.section	.gnu.lto__tm_init.1143dcec711e2a3d,"",%progbits
 135 0000 789C6362 		.ascii	"x\234cb`b@\007\"@\\\011\024\326\002q\230\031\030\201"
 135      60624007 
ARM GAS  /tmp/ccTqNS2e.s 			page 10


 135      22405C09 
 135      14D60271 
 135      98191881 
 136 0014 4C462646 		.ascii	"LF&FF \207\221\241\236\211\261>\022\304d`RbX\330\320"
 136      46208791 
 136      A19E89B1 
 136      3E12C464 
 136      60526258 
 137 002a 30E9C1D3 		.ascii	"0\351\301\323\327\017\230fN9\320\262\240\341\317\377"
 137      D70F9866 
 137      4E39D0B2 
 137      A0E1CFFF 
 138 003a FF8C8C99 		.ascii	"\377\214\214\231 \311dF\206\010 \213Q\001L1\261\240"
 138      20C96446 
 138      8608208B 
 138      51014C31 
 138      B1A0
 139 004c 9A0FD278 		.ascii	"\232\017\322x`\302\201\275m\323\031\033\026\36444=\370"
 139      60C281BD 
 139      6DD3191B 
 139      16F43434 
 139      3DF8
 140 005e FF5F3E93 		.ascii	"\377_>\223\221\231\211A\203\021\256\363\000\204f\222"
 140      91998941 
 140      8311AEF3 
 140      00846692 
 141 006e 40D5BA9E 		.ascii	"@\325\272\236\351\000P\365\235\315[\036\356`\024dbd"
 141      E90050F5 
 141      9DCD5B1E 
 141      EE601464 
 141      6264
 142 0080 00DBC6C0 		.ascii	"\000\333\306\300\312\320\322\3200A!\221q\021\243\022"
 142      CAD0D2D0 
 142      30412191 
 142      7111A312 
 143 0090 C4762008 		.ascii	"\304v \010\001\223\241 \3273\237eh\332\361\343\325\001"
 143      0193A120 
 143      D7339F65 
 143      68DAF1E3 
 143      D501
 144 00a2 A644C625 		.ascii	"\246D\306%\214\254\014\332\014\253\032\200\3000\223"
 144      8CAC0CDA 
 144      0CAB1A80 
 144      C03093
 145 00b1 9105CAE4 		.ascii	"\221\005\312\344\316dd\235\3150\253\261\241A \223\221"
 145      CE64649D 
 145      CD30ABB1 
 145      A1412093 
 145      91
 146 00c2 AD9AE157 		.ascii	"\255\232\341WC\007\210\305\236\0136\003\344\020v\260"
 146      430788C5 
 146      9E0B3603 
 146      E41076B0 
 147 00d2 F5498C0C 		.ascii	"\365I\214\014P\032\302\210\200x\227\201\341<C\313\203"
 147      501AC288 
 147      80789781 
 147      E13C43CB 
ARM GAS  /tmp/ccTqNS2e.s 			page 11


 147      83
 148 00e3 358BB920 		.ascii	"5\213\271 \34630\300M\340H\206\252\254f\250\312d\344"
 148      E63330C0 
 148      4DE04886 
 148      AAAC66A8 
 148      CA64E4
 149 00f6 84B810AA 		.ascii	"\204\270\020\252*\223\221\013\242qm3\0376\215L\0045"
 149      2A93910B 
 149      A2716D33 
 149      1F368D4C 
 149      0435
 150 0108 AE7BCC8D 		.ascii	"\256{\314\215M#3^\215\300\260\270\365\003\030g\020\261"
 150      4D23335E 
 150      8DC0B0B8 
 150      F5031867 
 150      10B1
 151 011a 7446466D 		.ascii	"tFFm\006-`H@\024&1\302\222\003P\331\311\011\\\324\016"
 151      062D6048 
 151      40142631 
 151      C2920350 
 151      D9C9095C 
 152 0130 B074107D 		.ascii	"\260t\020}\226\341\320k\250\365\020[M\03067t\000\365"
 152      96E1D06B 
 152      A8F5105B 
 152      4D183637 
 152      7400F5
 153 0143 801C7E91 		.ascii	"\200\034~\221\241\361\301\016e\230\267  \004\244\013"
 153      A1F1C10E 
 153      6598B720 
 153      2004A40B 
 154 0153 E430D59C 		.ascii	"\3440\325\234\314$}\347\214\314\244L\377\340xC3=C=\023"
 154      CC247DE7 
 154      8CCCA44C 
 154      FFE07843 
 154      333D433D 
 155 0168 7DFDFC62 		.ascii	"}\375\374b\375\242\022\375\342\242d\375\344\214\222"
 155      FDA212FD 
 155      E2A264FD 
 155      E48C92
 156 0177 5CBD6406 		.ascii	"\\\275d\006\246\222\\\0004\235\234\241"
 156      A6925C00 
 156      349D9CA1 
 157              		.text
 158              		.section	.gnu.lto_chTMChainMeasurementToX.1143dcec711e2a3d,"",%progbits
 159 0000 789C8D90 		.ascii	"x\234\215\220=K\303P\024\206\337s\323Xu\321\301E\247"
 159      3D4BC350 
 159      1486DF73 
 159      D35875D1 
 159      C145A7
 160 0013 2214C142 		.ascii	"\"\024\301BCA\374\003\376\000\007+T\034\304fh/X\204"
 160      4341FC03 
 160      FE00072B 
 160      541CC466 
 160      682F5884 
 161 0027 B69B436F 		.ascii	"\266\233Cok+R*\024\351\342\027Tt\262\202\253c\034\035"
 161      6B2B522A 
 161      14E9E217 
ARM GAS  /tmp/ccTqNS2e.s 			page 12


 161      5474B282 
 161      AB631C1D 
 162 003b A4767071 		.ascii	"\244vpq1?CD\214\347\346ZAA\360@\222ss\317\363\3347\021"
 162      313F4344 
 162      8CE7E65A 
 162      4141F040 
 162      927373CF 
 163 0053 10F85D53 		.ascii	"\020\370]S|\235\0210\247\027\026\210'H\020\277\000\241"
 163      7C9D1130 
 163      A7171688 
 163      274810BF 
 163      00A1
 164 0065 22A8B2A6 		.ascii	"\"\250\262\246[\210Y\234+u\3507zw\342\250\343\325\273"
 164      5B88599C 
 164      2B75E837 
 164      7A77E2A8 
 164      E3D5BB
 165 0078 EA3D0888 		.ascii	"\352=\010\210\244\336t\011\031\356(\026>D\344\247\337"
 165      A4DE7409 
 165      19EE2816 
 165      3E44E4A7 
 165      DF
 166 0089 80DE4BF3 		.ascii	"\200\336K\363`\272\331\255\265\325\007s\377\300n\204"
 166      60BAD9AD 
 166      B5D50773 
 166      FFC06E84 
 167 0099 E707C1E9 		.ascii	"\347\007\301\351\323e\253E=a\023\230\021T \216\310]"
 167      D365AB45 
 167      3D611398 
 167      1154208E 
 167      C85D
 168 00ab 843BEDB0 		.ascii	"\204;\355\260QW\252\035\013e\\\351\360\276\252\277\301"
 168      5157AA1D 
 168      0B655CE9 
 168      F0BEAABF 
 168      C1
 169 00bc EA63D7BF 		.ascii	"\352c\327\277n\214o\322\005\331\310\021\355\340M\355"
 169      6E8C6FD2 
 169      05D9C811 
 169      EDE04DED 
 170 00cc AB494996 		.ascii	"\253II\226\033\242`\017\237\371\200\332\375c\324L%p"
 170      1BA2600F 
 170      9FF980DA 
 170      FD63D44C 
 170      2570
 171 00de A5B82624 		.ascii	"\245\270&$\331'8\346P#9\022:\\4\234\317\032L\313B\356"
 171      D92738E6 
 171      50233912 
 171      3A5C349C 
 171      CF1A4CCB 
 172 00f4 F9B537A0 		.ascii	"\371\2657\240\241\337J`\336pUV\254\377\305\002}\354"
 172      A1DF4A60 
 172      DE705556 
 172      ACFFC502 
 172      7DEC
 173 0106 79338602 		.ascii	"y3\206\002\276C\215\272$\276\344\021\226e\314/\2224"
 173      BE438DBA 
ARM GAS  /tmp/ccTqNS2e.s 			page 13


 173      24BEE411 
 173      9665CC2F 
 173      9234
 174 0118 060C50F5 		.ascii	"\006\014P\365o\343C\302TZG\320@|Kf\235\245\274\314\312"
 174      6FE343C2 
 174      545A47D0 
 174      407C4B66 
 174      9DA5BCCC 
 175 012d E5958DD4 		.ascii	"\345\225\215\324b2\225\\p\234\355\222S,;\245\242\353"
 175      6232955C 
 175      709CED92 
 175      532C3BA5 
 175      A2EB
 176 013f B8F97221 		.ascii	"\270\371r!\351\342\023\023re\002"
 176      E9E21313 
 176      726502
 177              		.text
 178              		.section	.gnu.lto_.symbol_nodes.1143dcec711e2a3d,"",%progbits
 179 0000 789C4DCA 		.ascii	"x\234M\312\271\015\204@\020D\321\252\356\001\342$\222"
 179      B90D8440 
 179      1044D1AA 
 179      EE01E224 
 179      92
 180 0011 92701613 		.ascii	"\222p\026\023\207\004\010\201\020\010\000\023\033m\006"
 180      87040881 
 180      10080013 
 180      1B6D06
 181 0020 7BE2210E 		.ascii	"{\342!\016\015b\332\371\375\2442\030z\304\263\007\005"
 181      0D62DAF9 
 181      FDA43218 
 181      7AC4B307 
 181      05
 182 0031 342320B5 		.ascii	"4# \265ui/\212\011?\224EN5\355Ky\302\037\025nf\013\367"
 182      75692F8A 
 182      093F9445 
 182      4E35ED4B 
 182      79C21F15 
 183 0049 0FF6A6B2 		.ascii	"\017\366\246\262d\364\247\362\233\356@5\257\364p\225"
 183      64F4A7F2 
 183      9BEE4035 
 183      AFF47095 
 184 0059 188EE686 		.ascii	"\030\216\346\206\356\254G\007<\217\026qW\36046\346T"
 184      EEAC4707 
 184      3C8F1671 
 184      57F03436 
 184      E654
 185 006b 3B23     		.ascii	";#"
 186              		.text
 187              		.section	.gnu.lto_.refs.1143dcec711e2a3d,"",%progbits
 188 0000 789C6362 		.ascii	"x\234cb`b\340f\200\000F\026\006V&6FVFV\006\000\001\363"
 188      6062E066 
 188      80004616 
 188      06562636 
 188      46564656 
 189 0018 002E     		.ascii	"\000."
 190              		.text
 191              		.section	.gnu.lto_.decls.1143dcec711e2a3d,"",%progbits
ARM GAS  /tmp/ccTqNS2e.s 			page 14


 192 0000 789CBD5C 		.ascii	"x\234\275\\\013t\024U\232\256\252\356\364\003\"\240"
 192      0B741455 
 192      9AAEAAEE 
 192      F40322A0 
 193 0010 333A388B 		.ascii	"3:8\213Nf\317\270guf\015 \243xfg\320\023\031u\007\220"
 193      4E66CFB8 
 193      6775660D 
 193      20A37866 
 193      67D01319 
 194 0027 23B8EB9E 		.ascii	"#\270\353\236]\247-:\005i\355\327TW\010\316\3569[\020"
 194      5DA72D3A 
 194      0569EDD7 
 194      545708CE 
 194      EE395B10 
 195 003b 5E06D4F0 		.ascii	"^\006\324\360P@\011\011\223\300\260\034\037\274D^C\312"
 195      50400909 
 195      93C0B01C 
 195      1FBC445E 
 195      43CA
 196 004d 1149081E 		.ascii	"\021I\010\036yDb \032\033y\010\262b\"\212\211\023\311"
 196      79446220 
 196      1A1B7908 
 196      B262228A 
 196      8913C9
 197 0060 DEFBD7A3 		.ascii	"\336\373\327\243\353VWun5\316\324I\375u\253n\335\357"
 197      EB565775 
 197      6E35CED4 
 197      49FD75AB 
 197      6EDDEF
 198 0073 FEAFFBDF 		.ascii	"\376\257\373\337Wu8\206c\336\341\030\246\037\035\267"
 198      57753886 
 198      63DEE118 
 198      A61F1DB7 
 199 0083 FE0BC32C 		.ascii	"\376\013\303,\0130\014\372c~\305d\016?:\327\242\363"
 199      0B300CFA 
 199      637EC564 
 199      0E3F3AD7 
 199      A2F3
 200 0095 3574B6A3 		.ascii	"5t\266\243\263\023\235\247\321y\036\235\237\241\223"
 200      B3139DA7 
 200      D1791E9D 
 200      9FA193
 201 00a4 45670F43 		.ascii	"Eg\017C\036\370}\037:\353\3219\004\235\205\350\034\203"
 201      1EF87D1F 
 201      3AEBD139 
 201      049D85E8 
 201      1C83
 202 00b6 EAF9053A 		.ascii	"\352\371\005:\177\316\251e~\251]\327j\030Q\216\304\300"
 202      7FCEA965 
 202      7EA95DD7 
 202      6A18518E 
 202      C4C0
 203 00c8 F505B5FA 		.ascii	"\365\005\265\372u\014|\337\210\316\255\350\334\242\341"
 203      750C7CDF 
 203      88CEADE8 
 203      DCA2E1
 204 00d7 EF436701 		.ascii	"\357Cg\001:\367\242s\017:\337B\347.t\356\320p1\216\007"
ARM GAS  /tmp/ccTqNS2e.s 			page 15


 204      3AF7A273 
 204      0F3ADF42 
 204      E72E74EE 
 204      D070318E 
 205 00ec 9D47D0D9 		.ascii	"\235G\320\331\212\316c\026^\333\265:\352M\270~\255\236"
 205      8ACE6316 
 205      5EDBB53A 
 205      EA4DB87E 
 205      AD9E
 206 00fe 7D5A9D05 		.ascii	"}Z\235\005\032\336.\255\216\275Z=\254V\036_?\260\340"
 206      1ADE2EAD 
 206      8EBD5A3D 
 206      AC561E5F 
 206      3FB0E0
 207 0111 623D052C 		.ascii	"b=\005,\374\307\220\214\177\260\324\305j\230\234VF\327"
 207      FCC7908C 
 207      7FB0D4C5 
 207      6A989C56 
 207      46D7
 208 0123 C7C7163C 		.ascii	"\307\307\026<\254\363\3019\360nD\351^t\215\243k\002"
 208      ACF3C139 
 208      F06E44E9 
 208      5E748DA3 
 208      6B02
 209 0135 9D9B34CC 		.ascii	"\235\2334\314\341\210\334\314\251:8\315dl\211\363>a"
 209      E188DCCC 
 209      A93A38CD 
 209      646C89F3 
 209      3E61
 210 0147 B26D77DE 		.ascii	"\262mw\336\246\236\2556u$9\225\377\343\232~\365z\260"
 210      A69EAD36 
 210      75243995 
 210      FFE39A7E 
 210      F57AB0
 211 015a 2C5E0DC7 		.ascii	",^\015\307\354/v~\202\375g\020\205\216tyt]y\264\262"
 211      EC2F767E 
 211      82FD6710 
 211      858E7479 
 211      745D79B4 
 212 016f 6659BE42 		.ascii	"fY\276B\347%\013\376\217\2305\262r8=o\357\342\342U\262"
 212      E7250BFE 
 212      8F9835B2 
 212      72383D6F 
 212      EFE2E255 
 213 0184 3257466E 		.ascii	"2WFn.\263E70\317\313\350\250\233/\313\254\024d\026\312"
 213      2EB34537 
 213      30CFCBE8 
 213      A89B2FCB 
 213      AC146416 
 214 0199 F21C7CF3 		.ascii	"\362\034|\363@3b\341Q\226g\207\004\231\"H\024\006A\222"
 214      403362E1 
 214      51966787 
 214      04992248 
 214      14064192 
 215 01ad 5B980659 		.ascii	"[\230\006Y\256N\177t\346\202G\226\003<[\317\006Q\215"
 215      AE4E7F74 
 215      E6824796 
ARM GAS  /tmp/ccTqNS2e.s 			page 16


 215      033C5BCF 
 215      06518D
 216 01c0 152C731B 		.ascii	"\025,s\033\363\277\010\247Z\226?\036\3072\331\007=t"
 216      F3BF08A7 
 216      5A963F1E 
 216      C732D907 
 216      3D74
 217 01d2 4DD5DB6F 		.ascii	"M\325\333o\262s\020;<\373G\000o`Y\206g\327\263\267\271"
 217      B273103B 
 217      3CFB4700 
 217      6F605986 
 217      67D7B3B7 
 218 01e7 86DABD68 		.ascii	"\206\332\275h\317\335\300\345F\000\352\260\000\361\254"
 218      CFDDC0E5 
 218      4600EAB0 
 218      00F1AC
 219 01f6 3F68E611 		.ascii	"?h\346\021\356\365\0270\032dk\011\034\026\2062\177\345"
 219      EEF51730 
 219      1A646B09 
 219      1C168632 
 219      7FE5
 220 0208 D7ED64C1 		.ascii	"\327\355d\301%\377\300\336\240\245\036\361\250h\034"
 220      25FFC0DE 
 220      A0A51EF1 
 220      A8681C
 221 0217 73D6220D 		.ascii	"s\326\"\015\303\374\003\263\016)F\265\360r\305\253\032"
 221      C3FC03B3 
 221      0E2946B5 
 221      F072C5AB 
 221      1A
 222 0228 07175ACB 		.ascii	"\007\027Z\313\376\310\001\032\262_a\211p\2439\312\222"
 222      FEC8011A 
 222      B25F6189 
 222      70A339CA 
 222      92
 223 0239 A3DB7FE6 		.ascii	"\243\333\177\346\344(<\373\253\353\035\231\335\2441"
 223      E4283CFB 
 223      ABEB1D99 
 223      DDA431
 224 0248 EB015744 		.ascii	"\353\001WD\355\247*c\256\353\230%\030\245h\341)\326"
 224      EDA72A63 
 224      AEEB9825 
 224      18A568E1 
 224      29D6
 225 025a 90566175 		.ascii	"\220Vau\204\341&/Xvh\024\230n+{\035\3029\314\221\302"
 225      84E1262F 
 225      58766814 
 225      986E2B7B 
 225      1DC239CC 
 226 0270 0E8C8339 		.ascii	"\016\214\2039\331\216\312\252\245\000UV6\357/\224\275"
 226      D98ECAAA 
 226      A5005556 
 226      36EF2F94 
 226      BD
 227 0281 EA73C6A2 		.ascii	"\352s\306\242<\323\361c\246\016q\254l\335\277\372F\271"
 227      3CD3F163 
 227      A60E71AC 
ARM GAS  /tmp/ccTqNS2e.s 			page 17


 227      6CDDBFFA 
 227      46B9
 228 0293 EECFACEE 		.ascii	"\356\317\254\356\344\247\200\007\\\326Nr-\251\036\332"
 228      E4A78007 
 228      5CD64E72 
 228      2DA91EDA 
 229 02a3 0B24DEB6 		.ascii	"\013$\336\266\375\205\325\274\016v\3165X\021\001\266"
 229      FD85D5BC 
 229      0E76CE35 
 229      581101B6 
 230 02b3 DD0C7691 		.ascii	"\335\014v\221\006,\340\314\331\016\014\346\242\361\357"
 230      062CE0CC 
 230      D90E0CE6 
 230      A2F1EF
 231 02c2 5CFC4BB0 		.ascii	"\\\374K\260M#\324~\211\2636\253?\262\256\333\025\307"
 231      4D23D47E 
 231      89B336AB 
 231      3FB2AEDB 
 231      15C7
 232 02d4 7CE35A08 		.ascii	"|\343Z\010B#\351\232\326w\227\260\365\225\362\302J\237"
 232      4223E99A 
 232      D67797B0 
 232      F595F2C2 
 232      4A9F
 233 02e6 268A325F 		.ascii	"&\2122_^\310\316\336<\302(p\217\031F\027\346\274\026"
 233      5EC8CEDE 
 233      3CC22870 
 233      8F194617 
 233      E6BC16
 234 02f9 C9F68130 		.ascii	"\311\366\2010}\234m\260\241\202\252\251:\244G\256&\000"
 234      7D9C6DB0 
 234      A182AAA9 
 234      3AA447AE 
 234      2600
 235 030b 9BE7C91B 		.ascii	"\233\347\311\033\254n\367\301\021\330U[\000\350Y\217"
 235      AC6EF7C1 
 235      11D8555B 
 235      00E8598F 
 236 031b 55C5418B 		.ascii	"U\305A\213\206\203\244\206\203\301L\242_?\310\270\374"
 236      8683A486 
 236      83C14CA2 
 236      5F3FC8B8 
 236      FC
 237 032c 572DC331 		.ascii	"W-\3031\253<\026s\022Bj\311a6>iw\230\2332\317\276\301"
 237      AB3C1673 
 237      12426AC9 
 237      61363E69 
 237      77989B32 
 238 0343 DE82E80E 		.ascii	"\336\202\350\016\366\307\210\356\002\272\007\350^\240"
 238      F6C788EE 
 238      02BA07E8 
 238      5EA0
 239 0351 6F216A1C 		.ascii	"o!j\034N1j\013;X\177E\013Sz\264\314\272\317\304\\\006"
 239      4E316A0B 
 239      3B587F45 
 239      0B537AB4 
 239      CCBACFC4 
ARM GAS  /tmp/ccTqNS2e.s 			page 18


 240 0367 CBD56031 		.ascii	"\313\325`1\305O\230zY^\212\243e\031\212\226^\025\232"
 240      C54F987A 
 240      595E8AA3 
 240      65198A96 
 240      5E159A
 241 037a 635E86D7 		.ascii	"c^\206\327^s\010\274\032\003jY\345\303\315-\254|\235"
 241      5E7308BC 
 241      1A036A59 
 241      E5C3CD2D 
 241      AC7C9D
 242 038d DE98370D 		.ascii	"\336\2307\015P\022\330\322Jv\012\017\350\305\266\321"
 242      5012D8D2 
 242      4A760A0F 
 242      E8C5B6D1 
 243 039d 14D3FA08 		.ascii	"\024\323\372\010Y\351\330<\273\216\225}\020\307\031"
 243      59E9D83C 
 243      BB8E957D 
 243      10C719
 244 03ac AD1CA1EF 		.ascii	"\255\034\241\357\303\331}B\372\260\262l\301AV^*\367"
 244      C3D97D42 
 244      FAB0B26C 
 244      C141565E 
 244      2AF7
 245 03be F5F7577A 		.ascii	"\365\367Wz\031\372\036\3418\331#\250\322[\364\272\333"
 245      19FA1EE1 
 245      38D923A8 
 245      D25BF4BA 
 245      DB
 246 03cf 56AFF256 		.ascii	"V\257\362V,\241\372\372Q\304\022\317\266\347V\251.\241"
 246      2CA1FAFA 
 246      51C412CF 
 246      B6E756A9 
 246      2EA1
 247 03e1 FC8C3C6F 		.ascii	"\374\214<o\030k\310\327n\225\257\303V\276cM\317\241"
 247      186BC8D7 
 247      6E95AFC3 
 247      56BE634D 
 247      CFA1
 248 03f3 903F47E9 		.ascii	"\220?G\351\357o\274G\343\233cZ\010\316@\006\216I{X\202"
 248      EF6FBC47 
 248      E39B635A 
 248      08CE4006 
 248      8E497B58 
 249 0408 CF4B563E 		.ascii	"\317KV>;)\371l\224'\0177\330\354\264\262\371\221-\233"
 249      3B29F96C 
 249      94270F37 
 249      D8ECB4B2 
 249      F9912D9B 
 250 041c 579A0AAB 		.ascii	"W\232\012\253g\247\373\373k\213t\036\317g\363\310\263"
 250      67A7FBFB 
 250      6B8B741E 
 250      CF67F3C8 
 250      B3
 251 042d 27F5C21A 		.ascii	"'\365\302\032\217\335V\036O\347\303\343i+\217g\262y"
 251      8FDD561E 
 251      4FE7C3E3 
 251      692B8F67 
ARM GAS  /tmp/ccTqNS2e.s 			page 19


 251      B279
 252 043f AC5394DD 		.ascii	"\254S\224\335\363\363r\225OmF:W<\266#\035tl\220=\006"
 252      F3F37295 
 252      4F6D463A 
 252      573CB623 
 252      1D746C90 
 253 0455 5FE7AD7C 		.ascii	"_\347\255|]\260\345\353H\213\311\304\364|]\264sa\342"
 253      5DB0E5EB 
 253      488BC9C4 
 253      F47C5DB4 
 253      7361E2
 254 0468 86C90A15 		.ascii	"\206\311\012\025\013\274\024F\371Z7\012\307\324\302"
 254      0BBC1446 
 254      F95A370A 
 254      C7D4C2
 255 0477 FB9F51C5 		.ascii	"\373\237Q\305\214\243-\205\325\254^\260\201\246\240"
 255      8CA32D85 
 255      D5AC5EB0 
 255      81A6A0
 256 0486 D1F68FB4 		.ascii	"\321\366\217\264\014\255z\334P\333gV\265u\223j\373{"
 256      0CAD7ADC 
 256      50DB6756 
 256      B575936A 
 256      FB7B
 257 0498 66AD9CAE 		.ascii	"f\255\234\256No=\325\3744\373\346:Y\251F\272\352b\373"
 257      4E6F3DD5 
 257      FC34FBE6 
 257      3A59A946 
 257      BAEA62FB 
 258 04ac FBFDB643 		.ascii	"\373\375\266C\260\307\364\212\333q\215Z\277\330qV\271"
 258      B0C7F48A 
 258      DB718D5A 
 258      BFD87156 
 258      B9
 259 04bd 79972C0F 		.ascii	"y\227,\017\343\331^\030\314\315+\240\030\314\221H\034"
 259      E3D95E18 
 259      CCCD2BA0 
 259      18CC9148 
 259      1C
 260 04ce B3040AF5 		.ascii	"\263\004\012\365YFt\210\257\303\263V\002v\037\305\240"
 260      59467488 
 260      AFC3B356 
 260      02761FC5 
 260      A0
 261 04df 4E566A3A 		.ascii	"NVj:W\263xP\247\327i\032\352\244\215\361\343\0103\357"
 261      57B37850 
 261      A7D7691A 
 261      EAA48DF1 
 261      E30833EF 
 262 04f3 3D3FDC0B 		.ascii	"=?\334\013\3702\207y\177\311\201wG\034\216\331\000E"
 262      F8328779 
 262      7FC98177 
 262      471C8ED9 
 262      0045
 263 0505 2AB92CCE 		.ascii	"*\271,\316\225'T\316q\326\300\234\267\236p\344\334n"
 263      952754CE 
 263      71D6C09C 
ARM GAS  /tmp/ccTqNS2e.s 			page 20


 263      B79E70E4 
 263      DC6E
 264 0517 308294FE 		.ascii	"0\202\224\376\303\003\000\277\000\030\337n\317x\335"
 264      C30300BF 
 264      0018DF6E 
 264      CF78DD
 265 0526 3D4E381C 		.ascii	"=N8\034\263\037\212Te3\336s\273\312x\025\005\343s\224"
 265      B31F8A54 
 265      6533DE73 
 265      BBCA7815 
 265      05E37394 
 266 053a EE453530 		.ascii	"\356E50\216\036p\" \373\364\372\037\317\310q\342l\217"
 266      8E1E7022 
 266      20FBF4FA 
 266      1FCFC871 
 266      E26C8F
 267 054d 1FC667CF 		.ascii	"\037\306g\317\201\030\357S\370\016\211\203b5\224Y\232"
 267      8118EF53 
 267      F80E8983 
 267      62359459 
 267      9A
 268 055e 2DC7E1B1 		.ascii	"-\307\341\261\252\034K\251\344X\361l\2156\037x\226\303"
 268      AA1C4BA9 
 268      E458F16C 
 268      8D361F78 
 268      96C3
 269 0570 ADEE5303 		.ascii	"\255\356S\0036\277\371\300\213\357\302\020^\005\353"
 269      36BFF9C0 
 269      8BEFC210 
 269      5E05EB
 270 057f 760D5644 		.ascii	"v\015VD\200\325\276\253NV\\\214\342\327j\243\370\027"
 270      80D5BEAB 
 270      4E565C8C 
 270      E2D76AA3 
 270      F817
 271 0591 393C7EE8 		.ascii	"9<~\350)\370NF\361\262\217B\016\307\251\010\264\212"
 271      29F84E46 
 271      F1B28F42 
 271      0EC7A908 
 271      B48A
 272 05a3 BB776E91 		.ascii	"\273wn\221\345\247}\272\203\372\234\344@\001\026*\253"
 272      E5A77DBA 
 272      83FA9CE4 
 272      4001162A 
 272      AB
 273 05b4 B51AB6F1 		.ascii	"\265\032\266\361\213\346[U\303\326R\031\366\365\226"
 273      8BE65B55 
 273      C3D65219 
 273      F6F596
 274 05c3 15CE0E6A 		.ascii	"\025\316\016j\252\275\216\323\253\377\011T\257@\365"
 274      AABD8ED3 
 274      ABFF0954 
 274      AF40F5
 275 05d2 0DD6EAD7 		.ascii	"\015\326\352\327\365\277\311\202b\033\250j?rtyv\355"
 275      F5BFC982 
 275      621BA86A 
 275      3F727479 
ARM GAS  /tmp/ccTqNS2e.s 			page 21


 275      76ED
 276 05e4 8E7D9166 		.ascii	"\216}\221f\274\306/\316\215\250\005\0217\200\373\274"
 276      BCC62FCE 
 276      8DA80511 
 276      3780FBBC 
 277 05f4 E3B35A6F 		.ascii	"\343\263Zo\334`s]poz\201c\216\031\314\347\345\275\351"
 277      DC60735D 
 277      706F7A81 
 277      638E19CC 
 277      E7E5BDE9 
 278 0608 751B5B38 		.ascii	"u\033[8\274<\340\321Yhw\015Hz\360{G\2419\250`\0354`"
 278      BC3CE0D1 
 278      5968770D 
 278      487AF07B 
 278      47A139A8 
 279 0620 3966B46D 		.ascii	"9f\264mf\260N\327`$g\355f\260\2234`v\363\032\015\354"
 279      66B04ED7 
 279      602467ED 
 279      66B09334 
 279      6076F31A 
 280 0636 8419ECB4 		.ascii	"\204\031\354\264k0\222\263\017\314`\237\320\200\015"
 280      6B3092B3 
 280      0FCC609F 
 280      D0800D
 281 0645 77E6ACD3 		.ascii	"w\346\254\323\014v\3015\030\311Y\227\031\354s\032\260"
 281      0C76C135 
 281      18C95997 
 281      19EC731A 
 281      B0
 282 0656 221BCE8C 		.ascii	"\"\033\316\214\303iXV\317\031n\3161_\030\341\300\245"
 282      C3695856 
 282      CF196ECE 
 282      315F18E1 
 282      C0A5
 283 0668 4B33198C 		.ascii	"K3\031\214\313\256\343\027!7\356T\356\336\005\361K\217"
 283      CBAEE317 
 283      2137EE54 
 283      EEDE05F1 
 283      4B8F
 284 067a EC7D3488 		.ascii	"\354}4\2109\034f\273\271\233\230\353w\013F\232\345="
 284      391C66BB 
 284      B99B98EB 
 284      770B469A 
 284      E53D
 285 068c 0C46441A 		.ascii	"\014FD\032\255\303H\257S\206\257\314\204\272\200\216"
 285      ADC348AF 
 285      5386AFCC 
 285      84BA808E 
 286 069c 8567396A 		.ascii	"\205g9j\\\253\226e\316xY\036>\334\376]\236}\233\303"
 286      5CAB9665 
 286      CE78591E 
 286      3EDCFE5D 
 286      9E7D9BC3 
 287 06b0 B3F3FD5C 		.ascii	"\263\363\375\\\320\340BM\353)uy`\261\337n\225\030\000"
 287      D0E0424D 
 287      EB297579 
 287      60B1DF6E 
ARM GAS  /tmp/ccTqNS2e.s 			page 22


 287      951800
 288 06c3 721775F2 		.ascii	"r\027u\362\204\267\314\236\260\204FM9\232B\227\223\232"
 288      84B7CC9E 
 288      B084464D 
 288      399A4297 
 288      939A
 289 06d5 A8D68150 		.ascii	"\250\326\201Pp\276i#\004\347\203\320\265\256\364[\203"
 289      70BE6923 
 289      04E783D0 
 289      B5AEF45B 
 289      83
 290 06e6 7393B56B 		.ascii	"s\223\265k\245\\Vq\022\276\305,|\275k\341\255.|\356"
 290      A55C5671 
 290      12BEC52C 
 290      7CBD6BE1 
 290      AD2E7CEE 
 291 06fa 173B5F95 		.ascii	"\027;_\225ec\035\015\233;\247o\240\301\304W\332*\332"
 291      65631D0D 
 291      9B3BA76F 
 291      A0C1C457 
 291      DA2ADA
 292 070d 6190F855 		.ascii	"a\220\370U\213\304\364@5U\257\374\024\200Z\001\350\215"
 292      8BC4F440 
 292      3555AFFC 
 292      14805A01 
 292      E88D
 293 071f BC81762F 		.ascii	"\274\201v/Z3\026\200\332\000\2501\313\006V\023\260\244"
 293      5A331680 
 293      DA00A831 
 293      CB065613 
 293      B0A4
 294 0731 09D86026 		.ascii	"\011\330`&\221\265\012\366\035\276\3131\007\254\366"
 294      91B50AF6 
 294      1DBECB31 
 294      07ACF6
 295 0740 22C4C911 		.ascii	"\"\304\311\021\035\015{5\377\263k{uk\366\352\000\355"
 295      1D0D7B35 
 295      FFB36B7B 
 295      756BF6EA 
 295      00ED
 296 0752 1CC9D24E 		.ascii	"\034\311\322N+\347N=\034s\334\265\030\001\213\030]\356"
 296      2BE74E3D 
 296      1C73DCB5 
 296      18018B18 
 296      5DEE
 297 0764 C5E8D5C4 		.ascii	"\305\350\325\304H\203\030'\277\0031\316\273\026c\230"
 297      48831827 
 297      BF0331CE 
 297      BB166398 
 298 0774 490C3C80 		.ascii	"I\014<\200m\236\244\016`\277\307,\315=\200\205\305\023"
 298      6D9EA40E 
 298      60BFC72C 
 298      CD3D8085 
 298      C513
 299 0786 EE7BC4E8 		.ascii	"\356{\304\350Q\371\352\020[\244>\036xJ\270\354\250i"
 299      51F9EA10 
 299      5BA43E1E 
ARM GAS  /tmp/ccTqNS2e.s 			page 23


 299      784AB8EC 
 299      A869
 300 0798 D02F530D 		.ascii	"\320/S\015\372\327i\203\376s\240\260.\273\346E\003T"
 300      FAD76983 
 300      FE73A0B0 
 300      2EBBE645 
 300      0354
 301 07aa 57D3723D 		.ascii	"W\323r=^\236\276\0000\227\363\205I\357>\370\206\332"
 301      5E9EBE00 
 301      3097F385 
 301      49EF3EF8 
 301      86DA
 302 07bc 4A2F02D0 		.ascii	"J/\002\320\225,\003\372,\366\363\221\366C\267\270\246"
 302      952C03FA 
 302      2CF6F391 
 302      F643B7B8 
 302      A6
 303 07cd 1E888F   		.ascii	"\036\210\217"
 304 07d0 FFA33DC1 		.ascii	"\377\243=\3017~\346o^\216c\026\006X\315\244\371\214"
 304      377EE66F 
 304      5E8E6316 
 304      0658CDA4 
 304      F98C
 305 07e2 A961F2F3 		.ascii	"\251a\362\363\340Nm\360\240\032\350\271\253B\234\243"
 305      E04E6DF0 
 305      A01AE8B9 
 305      AB429CA3 
 306 07f2 342ED5E7 		.ascii	"4.\325\347\254\343\360\360a\345U\302\301x\223\350\027"
 306      ACE3F0F0 
 306      61E555C2 
 306      C17893E8 
 306      17
 307 0803 2DB396E7 		.ascii	"-\263\226\347\034z\035cQ\"=\374e\350\031{`8S\033\260"
 307      1C7A1D63 
 307      51223DFC 
 307      65E8197B 
 307      6038531B 
 308 0818 DAFB59CE 		.ascii	"\332\373Y\3162o\301\017L\2578\265\243\257\315=\340\226"
 308      326FC10F 
 308      4CAF38B5 
 308      A3AFCD3D 
 308      E096
 309 082a AB131387 		.ascii	"\253\023\023\207\242\337\250\203\270\201\246\204\217"
 309      A2DFA883 
 309      B881A684 
 309      8F
 310 0837 EB688550 		.ascii	"\353h\205P\361\016\250\370\212uF\370\322\372\223\363"
 310      F10EA8F8 
 310      8A7546F8 
 310      D2FA93F3 
 311 0847 B58DA12B 		.ascii	"\265\215\241+Tk=\035g\202\362\322B}\351\246\313@\265"
 311      546B3D1D 
 311      6782F2D2 
 311      427DE9A6 
 311      CB40B5
 312 085a 1B740CE8 		.ascii	"\033t\014\350VJ\247\320<\322E\210x]\013\021s=\260.\220"
 312      564AA7D0 
ARM GAS  /tmp/ccTqNS2e.s 			page 24


 312      3CD24588 
 312      785D0B11 
 312      733DB02E 
 313 086f 65A20BD6 		.ascii	"e\242\013\326\230\352\252\215\\\261\012C;\2633\016'"
 313      98EAAA8D 
 313      5CB10A43 
 313      3BB3330E 
 313      27
 314 0880 17F8D6EC 		.ascii	"\027\370\326\354\002s\203W\353\002=\023\350\\@6\226"
 314      02738357 
 314      EB023D13 
 314      E85C4036 
 314      96
 315 0891 FB8641CD 		.ascii	"\373\206A\315\213\240\346E\036\213\017\034\337x`\001"
 315      8BA0E645 
 315      1E8B0F1C 
 315      DF786001 
 316 08a1 3B1B7C00 		.ascii	";\033|\000\347\015\354\003_\021>\320h\240\346\343\003"
 316      E70DEC03 
 316      5F113ED0 
 316      68A0E6E3 
 316      03
 317 08b2 7394DEF3 		.ascii	"s\224\336\363\007X\200S\347\021MV8\227\363\353>\344"
 317      07588053 
 317      E7114D56 
 317      3897F3EB 
 317      3EE4
 318 08c4 52EE14A3 		.ascii	"R\356\024\243z\227r\374\014\356\336\226{\260L\207\202"
 318      7A9772FC 
 318      0CEEDE96 
 318      7BB04C87 
 318      82
 319 08d5 56D75235 		.ascii	"V\327R5cr\255\214\032y\366\031\017\236X<\353\301\233"
 319      6372AD8C 
 319      1A79F619 
 319      0F9E583C 
 319      EBC19B
 320 08e8 7CD54097 		.ascii	"|\325@\227z(\266\372\226yLn\361\276k\271\213(\275\257"
 320      7A28B6FA 
 320      96794C6E 
 320      F1BE6BB9 
 320      8B28BDAF 
 321 08fc CA5C4DE7 		.ascii	"\312\\M\347Uz\337\226S=\023aq\305\305r\336+\372r\036"
 321      557ADF96 
 321      533D1361 
 321      71C5C572 
 321      DE2BFA72 
 322 0911 34DB3359 		.ascii	"4\3333Y\272\315k9\257;_A\214\003E\220 \305|\244\310"
 322      BACD6B39 
 322      AF3B5F41 
 322      8C034590 
 322      20C57CA4 
 323 0926 46E746AF 		.ascii	"F\347F\257\3305\211rI\320\350f\232ol\206n\246\016\034"
 323      D8358972 
 323      49D0E866 
 323      9A6F6C86 
 323      6EA60E1C 
ARM GAS  /tmp/ccTqNS2e.s 			page 25


 324 093a ADCFA20C 		.ascii	"\255\317\242\014\212\245\305E\203p\221zk+F=\264\266"
 324      8AA5C545 
 324      8370917A 
 324      6B2B463D 
 324      B4B6
 325 094c F65D4FD1 		.ascii	"\366]O\321\210\347(\255\213\314k\306<\373\002\307i\260"
 325      88E728AD 
 325      8BCC6BC6 
 325      3CFB02C7 
 325      69B0
 326 095e F9EA9330 		.ascii	"\371\352\2230a\275\251y\254\203\346\261\336\334$8\346"
 326      61BDA979 
 326      AC83E6B1 
 326      DEDC2438 
 326      E6
 327 096f A54114BA 		.ascii	"\245A\024\272\377G'G\224\225\336Vu\323A\017C\353\254"
 327      FF472747 
 327      9495DE56 
 327      75D3410F 
 327      43EBAC
 328 0982 78766188 		.ascii	"xva\210\300#l\251T\267\301b\206:\270\331D\303\334H'"
 328      C0236CA9 
 328      54B7C162 
 328      863AB8D9 
 328      44C3DC48 
 329 0997 B039CA6A 		.ascii	"\2609\312j\025Lu\370\3554`c\235$\235\243\354~A\267\024"
 329      154C75F8 
 329      ED346063 
 329      9D249DA3 
 329      EC7E41B7 
 330 09ac 6EC91CF3 		.ascii	"n\311\034\363\246k<\222\271\3266\375\353!u}\375 \015"
 330      A66B3C92 
 330      B9D636FD 
 330      EB21757D 
 330      FD200D
 331 09bf DE3DCEFC 		.ascii	"\336=\316\374u\277@\214\344\332\\\303\221\206\370\266"
 331      75BF408C 
 331      E4DA5CC3 
 331      9186F8B6 
 332 09cf 0D1B76F1 		.ascii	"\015\033v\361p\375\003\253N+\036\3715\225\226|\200\332"
 332      70FD03AB 
 332      4E2B1EF9 
 332      3595967C 
 332      80DA
 333 09e1 3333BB2D 		.ascii	"33\273-(\332\303\212\320\363\034\016\331+\200\256\002"
 333      28DAC38A 
 333      D0F31C0E 
 333      D92B80AE 
 333      02
 334 09f2 BA06E85E 		.ascii	"\272\006\350^\240\012\320?\003=\000\364\020\320\023"
 334      A00AD03F 
 334      033D00F4 
 334      10D013
 335 0a01 403F027A 		.ascii	"@?\002z\032h-\204\376\015@7\002}\031\350\253@7\001\335"
 335      1A682D84 
 335      FE0D4037 
 335      027D19E8 
ARM GAS  /tmp/ccTqNS2e.s 			page 26


 335      AB403701 
 336 0a16 02741B4D 		.ascii	"\002t\033M\367`\031_\352M\264*\357m\235K\226&\277\322"
 336      F760195F 
 336      EA4DB42A 
 336      EF6D9D4B 
 336      9626BFD2 
 337 0a2a 355E512E 		.ascii	"5^Q.\305V\231\024\273\030\024\373\014\250e;\331\360"
 337      C5569914 
 337      BB1814FB 
 337      0CA8653B 
 337      D9F0
 338 0a3c CF0ED237 		.ascii	"\317\016\3227\035\363\033/\034;A\272\357E+\236\253\001"
 338      1DF31B2F 
 338      1C3B41BA 
 338      EF452B9E 
 338      AB01
 339 0a4e 83ACB49F 		.ascii	"\203\254\264\237\200\266Z\013Q\344+\327`E\004s\037\275"
 339      80B65A0B 
 339      51E42BD7 
 339      60450473 
 339      1FBD
 340 0a60 48EEC4FD 		.ascii	"H\356\304\375\205\006/\307\022k\327\011\323\022k\345"
 340      85062FC7 
 340      126BD709 
 340      D3126BE5 
 341 0a70 60B76024 		.ascii	"`\267`$s\227\315`\213h\300\354\026\"\355\215_i2\376"
 341      7397CD60 
 341      8B68C0EC 
 341      1622ED8D 
 341      5F6932FE 
 342 0a84 3C30FE7C 		.ascii	"<0\376|0\376\016\360\367]@\367\000\335\013T!\235\342"
 342      30FE0EF0 
 342      F75D40F7 
 342      00DD0B54 
 342      219DE2
 343 0a97 F9C1FA1E 		.ascii	"\371\301\372\036\272V\031\271U=\220W\310\312\353\316"
 343      BA5619B9 
 343      553D9057 
 343      C8CAEBCE 
 344 0aa7 BBE776A3 		.ascii	"\273\347v\243=\324\021w\215h\207\356r\037t\304/\015"
 344      3DD41177 
 344      8D6887EE 
 344      721F74C4 
 344      2F0D
 345 0ab9 1E70F7DC 		.ascii	"\036p\367\334:\234\336\014E\232\262;\342\366\220\332"
 345      3A9CDE0C 
 345      459AB23B 
 345      E2F690DA 
 346 0ac9 11375175 		.ascii	"\0217Qu\304\275+rlB\233\367\370\214\352\277o\026\243"
 346      C4BD2B72 
 346      6C429BF7 
 346      F88CEABF 
 346      6F16A3
 347 0adc 7984BA97 		.ascii	"y\204\272\227\376\016\210\321<\260\030$\016\307\264"
 347      FE0E88D1 
 347      3CB01824 
 347      0EC7B4
ARM GAS  /tmp/ccTqNS2e.s 			page 27


 348 0aeb 43914336 		.ascii	"C\221C6b<\246\212q\210J\214\235+t\317?\010\275\324y"
 348      623CA68A 
 348      71884A8C 
 348      9D2B74CF 
 348      3F08BDD4 
 349 0b00 0336BF60 		.ascii	"\0036\277`\265\353}pV\025\254\3335\030\351\371\177z"
 349      B5EB7D70 
 349      5615ACDB 
 349      3518E9F9 
 349      7F7A
 350 0b12 DFED1E74 		.ascii	"\337\355\036t\307\331\366\365\332\304\370}\350\305{"
 350      C7D9F6F5 
 350      DAC4F87D 
 350      E8C57B
 351 0b21 2D9ACD73 		.ascii	"-\232\315s\330ZYH!\211\363\364\006\317\376\036\333\231"
 351      D85A5948 
 351      2189F3F4 
 351      06CFFE1E 
 351      DB99
 352 0b33 3DFBA3FF 		.ascii	"=\373\243\377\\\350C\217\345s\241q\226\017\336r*%\375"
 352      5CE8438F 
 352      E573A171 
 352      960FDE72 
 352      2A25FD
 353 0b46 771BC027 		.ascii	"w\033\300'>\000\263,.$ubYr\301U9\261q\3223\330\301\245"
 353      3E00B32C 
 353      2E247562 
 353      5972C155 
 353      39B171D2 
 354 0b5e B2F25074 		.ascii	"\262\362Ptp\2554\302\374x\345\363\267\372\326\027\214"
 354      70AD34C2 
 354      FC78E5F3 
 354      B7FAD617 
 354      8C
 355 0b6f 516A6800 		.ascii	"Qjh\000\351?\001=d\032\354\036\201\301\356Q\010r\357"
 355      E93F013D 
 355      641AEC1E 
 355      81C1EE51 
 355      0872EF
 356 0b82 016D03DA 		.ascii	"\001m\003\332\001\364\024M\307\17703a\343\331V\017\247"
 356      01F4144D 
 356      C77F3033 
 356      61E3D956 
 356      0FA7
 357 0b94 4599FCDA 		.ascii	"E\231\374\332Q_\246\035\361\3541\327`\204\"\225%F\337"
 357      515FA61D 
 357      F1EC31D7 
 357      60842295 
 357      2546DF
 358 0ba7 8B1B051A 		.ascii	"\213\033\005\032\003\321\340\345\230\254oR{$\265\205"
 358      03D1E0E5 
 358      98AC6F52 
 358      7B24B585 
 359 0bb7 3514B22E 		.ascii	"5\024\262.\301\212r\031\245\311d\224\003`\224\0260\301"
 359      C18A7219 
 359      A5C96494 
 359      03609416 
ARM GAS  /tmp/ccTqNS2e.s 			page 28


 359      30C1
 360 0bc9 19A06781 		.ascii	"\031\240g\201~B\366B\233\012-\275\020\031\362\355:E"
 360      7E42F642 
 360      9B0A2DBD 
 360      1019F2ED 
 360      3A45
 361 0bdb B37E6465 		.ascii	"\263~de\317o\253y\273\220{\257^v9\361\035T\373M\352"
 361      CF6FAB79 
 361      BB907BAF 
 361      5E7639F1 
 361      1D54FB4D 
 362 0bf0 5CF002C4 		.ascii	"\\\360\002\304\3567\012\007\216\335$\020\307\354\207"
 362      EE370A07 
 362      8EDD2410 
 362      C7EC87
 363 0bff 3217B383 		.ascii	"2\027\263\203\367\341\250\032\274/\016\034\274\347V"
 363      F7E1A81A 
 363      BC2F0E1C 
 363      BCE756
 364 0c0e 2AAFBFB4 		.ascii	"*\257\277\264>\323\007U\032\015x\037\032`99)\261\253"
 364      3ED30755 
 364      1A0D781F 
 364      1A603939 
 364      29B1AB
 365 0c21 D966B091 		.ascii	"\331f\260\221\217\223\312Jc\207\356W\352\322^\3325\036"
 365      8F93CA4A 
 365      6387EE57 
 365      EAD25EDA 
 365      351E
 366 0c33 6987B60E 		.ascii	"i\207\266\016\360+\025\354\034\015X\216\001\342\027"
 366      F02B15EC 
 366      1C0D588E 
 366      01E217
 367 0c42 FF616B54 		.ascii	"\377akT\305\030\267.4\031\265\365\223\2237WB\267\321"
 367      C518B72E 
 367      3419B5F5 
 367      93933757 
 367      42B7D1
 368 0c55 0B465D73 		.ascii	"\013F]s\315\200F\265\000a\345\366Y\014\252\3246\301"
 368      CD8046B5 
 368      0061E5F6 
 368      590CAAD4 
 368      36C1
 369 0c67 CF43FAA8 		.ascii	"\317C\372\250\272\3427\232tm\026\300d\026X\350\313;"
 369      BAE2379A 
 369      746D16C0 
 369      641658E8 
 369      CB3B
 370 0c79 82342EA0 		.ascii	"\2024.\240\033\240\330\256\252=\337\204W\325\346x\261"
 370      1BA0D8AE 
 370      AA3DDF84 
 370      57D5E678 
 370      B1
 371 0c8a 2E760CAC 		.ascii	".v\014\254\013\022\003\213:\317kQE\253\372K\031\374"
 371      0B12038B 
 371      3ACF6B51 
 371      45ABFA4B 
ARM GAS  /tmp/ccTqNS2e.s 			page 29


 371      19FC
 372 0c9c 7C605574 		.ascii	"|`Ut\3547\007,\216i\002\026p\331<\247P\363\311\361\375"
 372      EC37072C 
 372      8E690216 
 372      70D93CA7 
 372      50F3C9F1 
 373 0cb1 21D77845 		.ascii	"!\327xE\004\3367\352\217e\240S:F\203\225#\230.kZ\375"
 373      04DE37EA 
 373      8F65A053 
 373      3A468395 
 373      23982E6B 
 374 0cc7 0339ADB0 		.ascii	"\0039\255\260\372\016\365GV<\273\375B\372x\2321\004"
 374      FA0EF547 
 374      563CBBFD 
 374      42FA789A 
 374      3104
 375 0cd9 1ADB7B71 		.ascii	"\032\333{q<]\340\3051\364i\240\213\200>\343\245\350"
 375      3C5DE0C5 
 375      31F469A0 
 375      8B803EE3 
 375      A5E8
 376 0ceb DE667B4D 		.ascii	"\336f{M\221\343\234k\3474+\020\265\364\373\253\371k"
 376      91E39C6B 
 376      E7342B10 
 376      B5F4FBAB 
 376      F96B
 377 0cfd 996ACD8F 		.ascii	"\231j\315\217TO\323}\311hW\262\336\256\226x\257\205"
 377      544FD37D 
 377      C96857B2 
 377      DEAE9678 
 377      AF85
 378 0d0f 14B1E700 		.ascii	"\024\261\347\000\25781\273\324\233\371\344\2430\230"
 378      AF3831BB 
 378      D49BF9E4 
 378      A33098
 379 0d1e 498C3324 		.ascii	"I\2143$\370\334*\201\245\336\034\206\263Wt\237\251\343"
 379      F8DC2A81 
 379      A5DE1C86 
 379      B357749F 
 379      A9E3
 380 0d30 FA163AAE 		.ascii	"\372\026:\256+\320Y\311\240\342j/\321e\365^c\011n\226"
 380      2BD059C9 
 380      A0E26A2F 
 380      D165F55E 
 380      63096E96 
 381 0d44 68E2DACC 		.ascii	"h\342\332\314\027M\265wA\355\335P\373\227@/\003\355"
 381      174DB577 
 381      41EDDD50 
 381      FB97402F 
 381      03ED
 382 0d56 21BBCDF9 		.ascii	"!\273\315\371C,\335\246\245\233\322\322\316\213o\351"
 382      432CDDA6 
 382      A59BD2D2 
 382      CE8B6FE9 
 383 0d66 2DA70EFF 		.ascii	"-\247\016\377~\266\254\254\034\251\177L[e\205$\277\234"
 383      7EB6ACAC 
 383      1CA97F4C 
ARM GAS  /tmp/ccTqNS2e.s 			page 30


 383      5B658524 
 383      BF9C
 384 0d78 D5924A8E 		.ascii	"\325\222J\216\250\335\331Yh\204\355\001\227ekZ\367\252"
 384      A8DDD959 
 384      6884ED01 
 384      97656B5A 
 384      F7AA
 385 0d8a BBF5AB20 		.ascii	"\273\365\253 P=?\304\345\252,V\334jk\240\352\026\212"
 385      503D3FC4 
 385      E5AA2C56 
 385      DC6A6BA0 
 385      EA168A
 386 0d9d D4A71473 		.ascii	"\324\247\024s\3003\332\036H=|\005\320\006\277\201X\355"
 386      C033DA1E 
 386      483D7C05 
 386      D006BF81 
 386      58ED
 387 0daf 3E4AD99B 		.ascii	">J\331\233t\265\251\345\326@\313]C:\321z\253\266\355"
 387      74B5A9E5 
 387      D640CB5D 
 387      433AD17A 
 387      ABB6ED
 388 0dc2 EAABCB34 		.ascii	"\352\253\3134\004\253\262\221\375\316\375\027\330\317"
 388      04ABB291 
 388      FDCEFD17 
 388      D8CF
 389 0dd0 F683798F 		.ascii	"\366\203y\217\01616\243\361\255\227z\357\002\215\257"
 389      0E3136A3 
 389      F1AD977A 
 389      EF028DAF 
 390 0de0 058DB7D9 		.ascii	"\005\215\267\331k<\007\016\026\254\301V\345\015T*\277"
 390      6B3C070E 
 390      16ACC156 
 390      E50D542A 
 390      BF
 391 0df1 A4AB5CFD 		.ascii	"\244\253\\\375\251\340\031`\240!\357\216\341K\241y\244"
 391      A9E01960 
 391      A021EF8E 
 391      E14BA179 
 391      A4
 392 0e02 8E75C135 		.ascii	"\216u\3015V\221Y\233\312\345\202\205\225>}\371\363K"
 392      5691599B 
 392      CAE58285 
 392      953E7DF9 
 392      F34B
 393 0e14 2B98EDF2 		.ascii	"+\230\355\362g\216\206\360\215\031\255\237\012\255\210"
 393      678E86F0 
 393      8D19AD9F 
 393      0AAD88
 394 0e23 DAB51A4C 		.ascii	"\332\265\032L\256\265\016\\k=D\251\015@7\002}\231t\266"
 394      AEB50E5C 
 394      6B3D44A9 
 394      0D403702 
 394      7D9974B6 
 395 0e37 AAA11667 		.ascii	"\252\241\026g#\355\252%7\344\360\266\255\247\332\377"
 395      23EDAA25 
 395      37E4F0B6 
ARM GAS  /tmp/ccTqNS2e.s 			page 31


 395      ADA7DAFF 
 396 0e47 7B998C7F 		.ascii	"{\231\214\177N\251G~\344&\352'm:\344P\035\247\207\325"
 396      4EA9477E 
 396      E426EA27 
 396      6D3AE450 
 396      1DA787D5 
 397 0e5b 38DDE43A 		.ascii	"8\335\344:\364ov\010\3757\033\242\254\310\022\205\254"
 397      F46F7608 
 397      FD371BA2 
 397      ACC81285 
 397      AC
 398 0e6c 574BA7ED 		.ascii	"WK\247\355d\261\327g\237\351\307\204W\340\307\204\375"
 398      64B1D767 
 398      9FE9C784 
 398      57E0C784 
 398      FD
 399 0e7d EA4F0721 		.ascii	"\352O\007!\356~\012\364\005\320\352J\240u@_\2634\347"
 399      EE7E0AF4 
 399      05D0EA4A 
 399      A075405F 
 399      B334E7
 400 0e90 A17A63D2 		.ascii	"\241zc\322\331\"\177\262\202+\332\3525~K3\320\270.]"
 400      D9227FB2 
 400      822BDAEA 
 400      357E4B33 
 400      D0B82E5D 
 401 0ea4 A097FE4F 		.ascii	"\240\227\376O\306h\277[\376\322\373\241\266i\374:\264"
 401      C668BF5B 
 401      FED2FBA1 
 401      B669FC3A 
 401      B4
 402 0eb5 E0CEA1F6 		.ascii	"\340\316\241\366-\330\021\010s\261\303\332\200?\274"
 402      2DD81108 
 402      73B1C3DA 
 402      803FBC
 403 0ec4 DCAC7EA1 		.ascii	"\334\254~\241\276c\340F\214\346-\335\227\233\271\314"
 403      BE63E046 
 403      8CE62DDD 
 403      979BB9CC 
 404 0ed4 6E6465CE 		.ascii	"nde\316\205\035\344\224\240P\232U\232O@\230\035\371"
 404      851DE494 
 404      A0509A55 
 404      9A4F4098 
 404      1DF9
 405 0ee6 4503C4D7 		.ascii	"E\003\304\327\027X\014\034\\v{q@\370?\327pE\004\334"
 405      17580C1C 
 405      5C767B71 
 405      40F83FD7 
 405      704504DC 
 406 0efa 9724DC25 		.ascii	"\227$\334%\0328\247\210\200\340.\223p\337\270\206#\271"
 406      1A38A788 
 406      80E02E93 
 406      70DFB886 
 406      23B9
 407 0f0c EB21E166 		.ascii	"\353!\341f\017\243\200sZ\362Fp\337\220pU\256\341H\356"
 407      0FA38073 
 407      5AF24670 
ARM GAS  /tmp/ccTqNS2e.s 			page 32


 407      DF907055 
 407      AEE148EE 
 408 0f20 FA48B825 		.ascii	"\372H\270%4pN\337\337.\257T\256\250p\206\277)\337\211"
 408      34704EDF 
 408      DF2EAF54 
 408      AEA87086 
 408      BF29DF89 
 409 0f34 BFAD72CD 		.ascii	"\277\255r\315\025)d\365\327\204\220kh\340\212\234M\260"
 409      152964F5 
 409      D784906B 
 409      68E08A9C 
 409      4DB0
 410 0f46 94846B70 		.ascii	"\224\204kp\015Gr\267\234\204\333H\003\227c\347\367\005"
 410      0D4772B7 
 410      9C84DB48 
 410      039763E7 
 410      F705
 411 0f58 154E8BFD 		.ascii	"\025N\213\375xP\246\256\305:\305\361V\327\221\377=\207"
 411      7850A6AE 
 411      C53AC5F1 
 411      56D791FF 
 411      3D87
 412 0f6a C8AF1F1C 		.ascii	"\310\257\037\034\263\315\265\014\244JV\222*\331K\003"
 412      B3CDB50C 
 412      A44A5692 
 412      2AD94B03 
 413 0f7a 47EC3793 		.ascii	"G\3547\223\006{\221\204\333\347\032\216\344n5\011\327"
 413      067B9184 
 413      DBE71A8E 
 413      E46E3509 
 413      D7
 414 0f8b 4203E7B8 		.ascii	"B\003\347\270\201-+kt8l\011\216y\3175\034\311\335&\222"
 414      812D2B6B 
 414      74386C09 
 414      8E79CF35 
 414      1CC9DD26 
 415 0fa0 BB4E1AB8 		.ascii	"\273N\032\270{\234u\267\205\204;\355\032\216\344n\033"
 415      7B9C75B7 
 415      85843BED 
 415      1A8EE46E 
 415      1B
 416 0fb1 09F7290D 		.ascii	"\011\367)\015\234\335\346\265\246\273\355\244\356\276"
 416      9CDDE6B5 
 416      A6BBEDA4 
 416      EEBE
 417 0fbf 740D4772 		.ascii	"t\015Gr\267\203\344\356\012\015\334dg\335\355\"\341"
 417      B783E4EE 
 417      0A0DDC64 
 417      67DDED22 
 417      E1
 418 0fd0 E65EEB16 		.ascii	"\346^\353\026\216\344n\017\011WE\003\367\250\015wv\207"
 418      8EE46E0F 
 418      09574503 
 418      F7A80D77 
 418      7687
 419 0fe2 79B0C1B3 		.ascii	"y\260\301\263;a\254\272\013FO\177\002\332\010\364M\240"
 419      3B61ACBA 
ARM GAS  /tmp/ccTqNS2e.s 			page 33


 419      0B464F7F 
 419      02DA08F4 
 419      4DA0
 420 0ff4 6F017D1B 		.ascii	"o\001}\033h\023\320\003@\337\001\372"
 420      6813D003 
 420      40DF01FA 
 421 1000 2ED0C340 		.ascii	".\320\303@\217\002m\003\332\016\364\004\320\017\200"
 421      8F026D03 
 421      DA0EF404 
 421      D00F80
 422 100f 76024D03 		.ascii	"v\002M\003\375\030\350i\240g\201\236\003\372)\315\222"
 422      FD18E869 
 422      A067819E 
 422      03FA29CD 
 422      92
 423 1020 C9B6CC92 		.ascii	"\311\266\314\222I\021S\213\307\300g\366.f\345\271\001"
 423      4911538B 
 423      C7C067F6 
 423      2E66E5B9 
 423      01
 424 1031 E3C7D26B 		.ascii	"\343\307\322k\315?\226\266\354\303\340\377\321\343\204"
 424      CD3F96B6 
 424      ECC3E0FF 
 424      D1E384
 425 1040 FC5906D9 		.ascii	"\374Y\006\331R\252\327a:\010\213\004\216\2456\345\250"
 425      52AAD761 
 425      3A088B04 
 425      8EA536E5 
 425      A8
 426 1051 EB73C752 		.ascii	"\353s\307R\307s\224\352\312\224b\306D#\323\212K\312"
 426      C77394EA 
 426      CA9462C6 
 426      4423D38A 
 426      4BCA
 427 1063 22D3220F 		.ascii	"\"\323\"\017M\011\215\272\363\366Q\267\217).N\244\212"
 427      4D098DBA 
 427      F3F651B7 
 427      8F292E4E 
 427      A48A
 428 1075 45A93899 		.ascii	"E\2518\231\020\245T\361\275\017O,\2318\2538\\\026N\210"
 428      10A554F1 
 428      BD0F4F2C 
 428      9938AB38 
 428      5C164E88 
 429 1089 4268E65D 		.ascii	"Bh\346]\261\333\313\230q\264\205\022\261d$*\210\251"
 429      B1DBCB98 
 429      71B48512 
 429      B164242A 
 429      88A9
 430 109b E2FB4B4A 		.ascii	"\342\373KJ\020\204\364TRH\241\362~Q\012\307\245\220"
 430      1084F454 
 430      5248A1F2 
 430      7E510AC7 
 430      A590
 431 10ad E4BB7FD2 		.ascii	"\344\273\177\322#E%\314M\305\345)\2618\022\017G\313"
 431      234525CC 
 431      4DC5E529 
ARM GAS  /tmp/ccTqNS2e.s 			page 34


 431      B138120F 
 431      47CB
 432 10bf 4B85E2B8 		.ascii	"K\205\342\270P\201\341SRi$.\241\227\003\345\350z\307"
 432      5081E153 
 432      5269242E 
 432      A19703E5 
 432      E87AC7
 433 10d2 E890F44F 		.ascii	"\350\220\364Ov\257\305\370pY$.\024\207J\205\351|y\024"
 433      76AFC5F8 
 433      7059242E 
 433      14874A85 
 433      E97C7914 
 434 10e6 816A750C 		.ascii	"\201ju\014\012\205\364\2027b\246B\350o\206 \205\302"
 434      0A85F482 
 434      3762A642 
 434      E86F8620 
 434      85C2
 435 10f8 89F2B824 		.ascii	"\211\362\270$\210\241\231|\264\\\270\305Y\220\224\030"
 435      88A1997C 
 435      B45CB8C5 
 435      59909418 
 436 1108 C61CC76E 		.ascii	"\306\034\307n\0173\267:\277\245s\003o\2261\327I\221"
 436      0F33B73A 
 436      BFA57303 
 436      6F9631D7 
 436      4991
 437 111a 98108A09 		.ascii	"\230\020\212\011|\252\\\024b\002\226\321;MHI\005\025"
 437      7CAA5C14 
 437      620296D1 
 437      3B4D4849 
 437      0515
 438 112c 09312579 		.ascii	"\0111%y\243|J\362\225\203\350l< J\360\266\004\002\336"
 438      A37C4AF2 
 438      9583E86C 
 438      3C204AF0 
 438      B60402DE 
 439 1140 39262469 		.ascii	"9&$i,C2\\\036+\217\362Rd\246\340\227b\241\224\224Hz"
 439      2C43325C 
 439      1E2B8FF2 
 439      5264A6E0 
 439      9762A194 
 440 1157 A458D213 		.ascii	"\244X\322\023OT\370\022\323\247\247\004iH\270l\352\304"
 440      4F54F812 
 440      D3A7A704 
 440      6948B86C 
 440      EAC4
 441 1169 87A63D21 		.ascii	"\207\246=!\204\245\007\343\021\351z|;E\342Eib\246\366"
 441      84A507E3 
 441      11E97A7C 
 441      3B45E245 
 441      6962A6F6 
 442 117d 4703F144 		.ascii	"G\003\361D$\036E\372\371\276\232\235H\022\271!\004\035"
 442      241E45FA 
 442      F9BE9A9D 
 442      4812B921 
 442      041D
 443 118f 41857F80 		.ascii	"A\205\177\200sK\312\370H\334\224=5\361\250\027U9\012"
ARM GAS  /tmp/ccTqNS2e.s 			page 35


 443      734BCAF8 
 443      48DC943D 
 443      35F1A817 
 443      55390A
 444 11a2 93D13FA5 		.ascii	"\223\321?\245QA*\\V\212\224PL\365\356S)\335R\203\303"
 444      51412A5C 
 444      568A9450 
 444      4CF5EE53 
 444      29DD5283 
 445 11b7 65217C2B 		.ascii	"e!|+\304BR\320H\027\212\002_\372T(\032I!m]\203\036g"
 445      C44252D0 
 445      48178A02 
 445      5FFA5428 
 445      1A49216D 
 446 11cf EE874A65 		.ascii	"\356\207Je\370&\025\372]\271P\216\0248\014\345\022\217"
 446      F82615FA 
 446      5DB9508E 
 446      14380CE5 
 446      128F
 447 11e1 02EA9D0A 		.ascii	"\002\352\235\012\247\246}\311P\\\230%\241KR\024f\372"
 447      A7A67DC9 
 447      505C9825 
 447      A14B5214 
 447      66FA
 448 11f3 A5A41849 		.ascii	"\245\244\030I\204\324\333H\302\037N \237\230%\215t\325"
 448      84D4DB48 
 448      C21F4E20 
 448      9F98258D 
 448      74D5
 449 1205 1830EBE0 		.ascii	"\0300\353\340Y\310faiV@\024f\360\"\222\201\023\307p"
 449      59C86661 
 449      69564014 
 449      66F02292 
 449      8113C770 
 450 1219 E2CF39F1 		.ascii	"\342\3179\361NN\274\213\023\307r\342\335\036q\324Ht"
 450      4E4EBC8B 
 450      13C772E2 
 450      DD1E71D4 
 450      4874
 451 122b 8EE2A222 		.ascii	"\216\342\242\"\272\334Q\220\014\241\367\375\230\243"
 451      BADC5190 
 451      0CA1F7FD 
 451      98A3
 452 1239 0A4144D7 		.ascii	"\012AD\327D\264T\020\275\3412^\304l\3621aPJz\222\217"
 452      44B45410 
 452      BDE1325E 
 452      C46CF231 
 452      61504A7A 
 453 124f 4666C491 		.ascii	"Ff\304\221'$\221\365\237\214Fb\021) \245$^B\002\373"
 453      272491F5 
 453      9F8C4662 
 453      112920A5 
 453      245E4202 
 454 1264 B19B8C45 		.ascii	"\261\233\214E\342\251\016\203R~\374\026\312C\316\222"
 454      E2A90E83 
 454      527EFC16 
 454      CA43CE92 
ARM GAS  /tmp/ccTqNS2e.s 			page 36


 455 1274 2815E07E 		.ascii	"(\025\340~z\224\237\221\362K\2420=\005\202\342DA,5\003"
 455      7A949F91 
 455      F24BA230 
 455      3D0582E2 
 455      44412C35 
 456 1289 656AED02 		.ascii	"ej\355\002\025\327R>\261\364)\224\025\020fE\2440\002"
 456      15D7523E 
 456      B1F42994 
 456      15106645 
 456      A43002
 457 129c F0554889 		.ascii	"\360UH\211iO$\257\323\364\210\212\012\242\020\017#\340"
 457      694F24AF 
 457      D3F4888A 
 457      0AA2100F 
 457      23E0
 458 12ae 820A4912 		.ascii	"\202\012I\022\223\205\330LB\214O\226!=\334Feo\001\267"
 458      9385D84C 
 458      428C4F96 
 458      213DDC46 
 458      656F01B7 
 459 12c2 0FBF66A0 		.ascii	"\017\277f\240\002h\003\005\251\020\272\242\272Pf2\200"
 459      02680305 
 459      A910BAA2 
 459      BA506632 
 459      80
 460 12d3 2063E5C8 		.ascii	" c\345\310\012Tp1i\026\206\213\251p\350\232\250\210"
 460      0A547031 
 460      6916868B 
 460      A970E89A 
 460      A888
 461 12e5 23550200 		.ascii	"#U\002\000\022'\246\032\273BB\357%\007\0133\221;\307"
 461      1227A61A 
 461      BB4242EF 
 461      25070B33 
 461      913BC7
 462 12f8 F8D49328 		.ascii	"\370\324\223(G\250\300\011O2T>Dw\031\325\305\206\232"
 462      47A8C009 
 462      4F32543E 
 462      447719D5 
 462      C5869A
 463 130b 9C083F09 		.ascii	"\234\010?\011&C\025|D\212\304g \013 \335\250|C\022="
 463      2643157C 
 463      448AC467 
 463      200B20DD 
 463      A87C4312 
 464 1320 1092421C 		.ascii	"\020\222B\034\305\247\031\350-T\005~\177\020\3260\037"
 464      C5A719E8 
 464      2D54057E 
 464      7F10D630 
 464      1F
 465 1331 0577420F 		.ascii	"\005wB\017\223\211DT3J\312/\252l\372D\360\266\002\021"
 465      93894454 
 465      334ACA2F 
 465      AA6CFA44 
 465      F0B60211 
 466 1345 CC2F6AE6 		.ascii	"\314/j\346\027U\363\007\321\323r\021iY*\0201\336\365"
 466      1755F307 
ARM GAS  /tmp/ccTqNS2e.s 			page 37


 466      D1D37211 
 466      69592A10 
 466      31DEF5
 467 1358 3323A254 		.ascii	"3#\242T\316GC8H\210:\2277 .m2\206\022\317\324\026A<"
 467      CE474338 
 467      48883A97 
 467      37202E6D 
 467      328612CF 
 468 1370 F2CF9440 		.ascii	"\362\317\224@%\370\212\033@\020725\372\240'\245BT\342"
 468      25F88A1B 
 468      40103732 
 468      35FAA027 
 468      A54254E2 
 469 1384 51627A79 		.ascii	"Qbzy<\034\202wp\312\207\337\345\305\301\350\202\003"
 469      3C1C8277 
 469      70CA87DF 
 469      E5C5C1E8 
 469      8203
 470 1396 177E1D3D 		.ascii	"\027~\035=\302\325\015\321\232k\2510\255|\206\252:\363"
 470      C2D50DD1 
 470      9A6BA930 
 470      AD7C86AA 
 470      3AF3
 471 13a8 9360928F 		.ascii	"\223`\222\217G\302XS\376HJ\3046\016D\023\341'q\342g"
 471      47C25853 
 471      FE484AC4 
 471      360E4413 
 471      E12771E2 
 472 13bd 34C60510 		.ascii	"4\306\005\020d\336k\261ID\036\271\335\264\362\351\323"
 472      64DE6BB1 
 472      49441EB9 
 472      DDB4F2E9 
 472      D3
 473 13ce B15C7E69 		.ascii	"\261\\~iZ(\025\371\2750\004\327X\021\016\201e\321\343"
 473      5A2815F9 
 473      BD3004D7 
 473      58110E81 
 473      65D1E3
 474 13e1 94006216 		.ascii	"\224\000b\026\340k2\210\250\352\277\001\224\202f\341"
 474      E06B3288 
 474      A8EABF01 
 474      948266E1 
 475 13f1 43E59292 		.ascii	"C\345\222\222\030D\027\025\252\320\214\353)\2356cP\014"
 475      18441715 
 475      AAD08CEB 
 475      299D3663 
 475      500C
 476 1403 453FD5FE 		.ascii	"E?\325\376\303PT\014\243\3267MD\3617\201\232 '\305\250"
 476      C350540C 
 476      A3D6374D 
 476      44F13781 
 476      9A2027C5 
 477 1418 F8066323 		.ascii	"\370\006c#\276\207<)\210q!\252\032\037\271y<\024\021"
 477      BE873C29 
 477      887121AA 
 477      1A1FB979 
 477      3C1411
ARM GAS  /tmp/ccTqNS2e.s 			page 38


 478 142b 7F178863 		.ascii	"\177\027\210c\253#\246\007!t1\202\270.+\325\223HK\205"
 478      AB23A607 
 478      21743182 
 478      B82E2BD5 
 478      93484B85 
 479 143f E6324322 		.ascii	"\3462C\"\245QA\363F\344\205\\\270\314\251\233F&-.\231"
 479      A55141F3 
 479      46E4855C 
 479      B8CCA99B 
 479      46262D2E 
 480 1454 38E5C129 		.ascii	"8\345\301)\0316p7\035\216\215\301=\347}\377654\025E"
 480      19367037 
 480      1D8E8DC1 
 480      3DE77DFF 
 480      36353415 
 481 1469 596FC9D4 		.ascii	"Yo\311\324\207'\370J\376\275\244d\322T_\311\344\007"
 481      8727F84A 
 481      FEBDA464 
 481      D2545FC9 
 481      E407
 482 147b F165FCA3 		.ascii	"\361e\374\243\370.0e\302\370\361\223\361\375\204)\217"
 482      F82E3065 
 482      C2F8F193 
 482      F1FD8429 
 482      8F
 483 148c A08BFFD7 		.ascii	"\240\213\377\327\017M\270\017]\275\223K\246<\\P\362"
 483      0F4DB80F 
 483      5DBD934B 
 483      A63C5C50 
 483      F2
 484 149d D0C4C923 		.ascii	"\320\304\311#\013&\336;\3457#\203\277~dR\311\324\007"
 484      0B26DE3B 
 484      E5372383 
 484      BF7E6452 
 484      C9D407
 485 14b0 1F9A3432 		.ascii	"\037\23242\370\360\370)\343\037\376\327\361\367\215"
 485      F8F0F829 
 485      E31FFED7 
 485      F1F78D
 486 14bf 84FC5190 		.ascii	"\204\374Q\220?\312\310\037e\344\217\202\374\321\220"
 486      3FCAC81F 
 486      65E48F82 
 486      FCD190
 487 14ce 3FDAC81F 		.ascii	"?\332\310\037m\344\217\206\374; \377\016#\377\216\377"
 487      6DE48F86 
 487      FC3B20FF 
 487      0E23FF8E 
 487      FF
 488 14df 07A1FBC5 		.ascii	"\007\241\373\305\320"
 488      D0
 489              		.text
 490              		.section	.gnu.lto_.symtab.1143dcec711e2a3d,"",%progbits
 491 0000 6368544D 		.ascii	"chTMObjectInit\000\000\000\000\000\000\000\000\000\000"
 491      4F626A65 
 491      6374496E 
 491      69740000 
 491      00000000 
ARM GAS  /tmp/ccTqNS2e.s 			page 39


 492 0018 0000D800 		.ascii	"\000\000\330\000\000\000chTMStartMeasurementX\000\000"
 492      00006368 
 492      544D5374 
 492      6172744D 
 492      65617375 
 493 0035 00000000 		.ascii	"\000\000\000\000\000\000\000\000\000\000\336\000\000"
 493      00000000 
 493      0000DE00 
 493      00
 494 0042 00636854 		.ascii	"\000chTMStopMeasurementX\000\000\000\000\000\000\000"
 494      4D53746F 
 494      704D6561 
 494      73757265 
 494      6D656E74 
 495 005e 00000000 		.ascii	"\000\000\000\000\000\344\000\000\000_tm_init\000\000"
 495      00E40000 
 495      005F746D 
 495      5F696E69 
 495      740000
 496 0071 00000000 		.ascii	"\000\000\000\000\000\000\000\000\000\000\351\000\000"
 496      00000000 
 496      0000E900 
 496      00
 497 007e 00636854 		.ascii	"\000chTMChainMeasurementToX\000\000\000\000\000\000"
 497      4D436861 
 497      696E4D65 
 497      61737572 
 497      656D656E 
 498 009c 00000000 		.ascii	"\000\000\000\000\000\000\355\000\000\000ch\000\000\002"
 498      0000ED00 
 498      00006368 
 498      000002
 499 00ab 00000000 		.ascii	"\000\000\000\000\000\000\000\000\000\370\000\000\000"
 499      00000000 
 499      00F80000 
 499      00
 500              		.text
 501              		.section	.gnu.lto_.opts,"",%progbits
 502 0000 272D6D63 		.ascii	"'-mcpu=cortex-m4' '-mno-thumb-interwork' '-mthumb' "
 502      70753D63 
 502      6F727465 
 502      782D6D34 
 502      2720272D 
 503 0033 272D6767 		.ascii	"'-ggdb' '-O0' '-fomit-frame-pointer' '-falign-funct"
 503      64622720 
 503      272D4F30 
 503      2720272D 
 503      666F6D69 
 504 0066 696F6E73 		.ascii	"ions=16' '-ffunction-sections' '-fdata-sections' '-"
 504      3D313627 
 504      20272D66 
 504      66756E63 
 504      74696F6E 
 505 0099 666E6F2D 		.ascii	"fno-common' '-flto'\000"
 505      636F6D6D 
 505      6F6E2720 
 505      272D666C 
ARM GAS  /tmp/ccTqNS2e.s 			page 40


 505      746F2700 
 506              		.text
 507              		.cfi_sections	.debug_frame
 508              		.section	.text.port_rt_get_counter_value,"ax",%progbits
 509              		.align	2
 510              		.p2align 4,,15
 511              		.thumb
 512              		.thumb_func
 513              		.type	port_rt_get_counter_value, %function
 514              	port_rt_get_counter_value:
 515              	.LFB135:
 516              		.file 1 "lib/ChibiOS_16.1.4//os/rt/ports/ARMCMx/chcore_v7m.h"
 517              		.loc 1 568 0
 518              		.cfi_startproc
 519              		@ args = 0, pretend = 0, frame = 0
 520              		@ frame_needed = 0, uses_anonymous_args = 0
 521              		@ link register save eliminated.
 522              		.loc 1 570 0
 523 0000 4FF48053 		mov	r3, #4096
 524 0004 CEF20003 		movt	r3, 57344
 525 0008 5B68     		ldr	r3, [r3, #4]
 526              		.loc 1 571 0
 527 000a 1846     		mov	r0, r3
 528 000c 7047     		bx	lr
 529              		.cfi_endproc
 530              	.LFE135:
 531              		.size	port_rt_get_counter_value, .-port_rt_get_counter_value
 532 000e 00BF     		.section	.text.tm_stop,"ax",%progbits
 533              		.align	2
 534              		.p2align 4,,15
 535              		.thumb
 536              		.thumb_func
 537              		.type	tm_stop, %function
 538              	tm_stop:
 539              	.LFB241:
 540              		.file 2 "lib/ChibiOS_16.1.4//os/rt/src/chtm.c"
 541              		.loc 2 55 0
 542              		.cfi_startproc
 543              		@ args = 0, pretend = 0, frame = 16
 544              		@ frame_needed = 0, uses_anonymous_args = 0
 545              		@ link register save eliminated.
 546 0000 84B0     		sub	sp, sp, #16
 547              		.cfi_def_cfa_offset 16
 548 0002 0390     		str	r0, [sp, #12]
 549 0004 0291     		str	r1, [sp, #8]
 550 0006 0192     		str	r2, [sp, #4]
 551              		.loc 2 57 0
 552 0008 039B     		ldr	r3, [sp, #12]
 553 000a DB68     		ldr	r3, [r3, #12]
 554 000c 5A1C     		adds	r2, r3, #1
 555 000e 039B     		ldr	r3, [sp, #12]
 556 0010 DA60     		str	r2, [r3, #12]
 557              		.loc 2 58 0
 558 0012 039B     		ldr	r3, [sp, #12]
 559 0014 9B68     		ldr	r3, [r3, #8]
 560 0016 029A     		ldr	r2, [sp, #8]
 561 0018 D21A     		subs	r2, r2, r3
ARM GAS  /tmp/ccTqNS2e.s 			page 41


 562 001a 019B     		ldr	r3, [sp, #4]
 563 001c D21A     		subs	r2, r2, r3
 564 001e 039B     		ldr	r3, [sp, #12]
 565 0020 9A60     		str	r2, [r3, #8]
 566              		.loc 2 59 0
 567 0022 039B     		ldr	r3, [sp, #12]
 568 0024 D3E90401 		ldrd	r0, [r3, #16]
 569 0028 039B     		ldr	r3, [sp, #12]
 570 002a 9B68     		ldr	r3, [r3, #8]
 571 002c 1A46     		mov	r2, r3
 572 002e 4FF00003 		mov	r3, #0
 573 0032 1218     		adds	r2, r2, r0
 574 0034 43EB0103 		adc	r3, r3, r1
 575 0038 0399     		ldr	r1, [sp, #12]
 576 003a C1E90423 		strd	r2, [r1, #16]
 577              		.loc 2 60 0
 578 003e 039B     		ldr	r3, [sp, #12]
 579 0040 9A68     		ldr	r2, [r3, #8]
 580 0042 039B     		ldr	r3, [sp, #12]
 581 0044 5B68     		ldr	r3, [r3, #4]
 582 0046 9A42     		cmp	r2, r3
 583 0048 03D9     		bls	.L4
 584              		.loc 2 61 0
 585 004a 039B     		ldr	r3, [sp, #12]
 586 004c 9A68     		ldr	r2, [r3, #8]
 587 004e 039B     		ldr	r3, [sp, #12]
 588 0050 5A60     		str	r2, [r3, #4]
 589              	.L4:
 590              		.loc 2 63 0
 591 0052 039B     		ldr	r3, [sp, #12]
 592 0054 9A68     		ldr	r2, [r3, #8]
 593 0056 039B     		ldr	r3, [sp, #12]
 594 0058 1B68     		ldr	r3, [r3]
 595 005a 9A42     		cmp	r2, r3
 596 005c 03D2     		bcs	.L3
 597              		.loc 2 64 0
 598 005e 039B     		ldr	r3, [sp, #12]
 599 0060 9A68     		ldr	r2, [r3, #8]
 600 0062 039B     		ldr	r3, [sp, #12]
 601 0064 1A60     		str	r2, [r3]
 602              	.L3:
 603              		.loc 2 66 0
 604 0066 04B0     		add	sp, sp, #16
 605              		@ sp needed
 606 0068 7047     		bx	lr
 607              		.cfi_endproc
 608              	.LFE241:
 609              		.size	tm_stop, .-tm_stop
 610 006a 00BFAFF3 		.section	.text._tm_init,"ax",%progbits
 610      0080
 611              		.align	2
 612              		.p2align 4,,15
 613              		.global	_tm_init
 614              		.thumb
 615              		.thumb_func
 616              		.type	_tm_init, %function
 617              	_tm_init:
ARM GAS  /tmp/ccTqNS2e.s 			page 42


 618              	.LFB242:
 619              		.loc 2 77 0
 620              		.cfi_startproc
 621              		@ args = 0, pretend = 0, frame = 24
 622              		@ frame_needed = 0, uses_anonymous_args = 0
 623 0000 00B5     		push	{lr}
 624              		.cfi_def_cfa_offset 4
 625              		.cfi_offset 14, -4
 626 0002 87B0     		sub	sp, sp, #28
 627              		.cfi_def_cfa_offset 32
 628              		.loc 2 83 0
 629 0004 40F20003 		movw	r3, #:lower16:ch
 630 0008 C0F20003 		movt	r3, #:upper16:ch
 631 000c 0022     		movs	r2, #0
 632 000e C3F8A024 		str	r2, [r3, #1184]
 633              		.loc 2 84 0
 634 0012 6B46     		mov	r3, sp
 635 0014 1846     		mov	r0, r3
 636 0016 FFF7FEFF 		bl	chTMObjectInit
 637              		.loc 2 85 0
 638 001a 6B46     		mov	r3, sp
 639 001c 1846     		mov	r0, r3
 640 001e FFF7FEFF 		bl	chTMStartMeasurementX
 641              		.loc 2 86 0
 642 0022 6B46     		mov	r3, sp
 643 0024 1846     		mov	r0, r3
 644 0026 FFF7FEFF 		bl	chTMStopMeasurementX
 645              		.loc 2 87 0
 646 002a 029A     		ldr	r2, [sp, #8]
 647 002c 40F20003 		movw	r3, #:lower16:ch
 648 0030 C0F20003 		movt	r3, #:upper16:ch
 649 0034 C3F8A024 		str	r2, [r3, #1184]
 650              		.loc 2 88 0
 651 0038 07B0     		add	sp, sp, #28
 652              		@ sp needed
 653 003a 5DF804FB 		ldr	pc, [sp], #4
 654              		.cfi_endproc
 655              	.LFE242:
 656              		.size	_tm_init, .-_tm_init
 657 003e 00BF     		.section	.text.chTMObjectInit,"ax",%progbits
 658              		.align	2
 659              		.p2align 4,,15
 660              		.global	chTMObjectInit
 661              		.thumb
 662              		.thumb_func
 663              		.type	chTMObjectInit, %function
 664              	chTMObjectInit:
 665              	.LFB243:
 666              		.loc 2 97 0
 667              		.cfi_startproc
 668              		@ args = 0, pretend = 0, frame = 8
 669              		@ frame_needed = 0, uses_anonymous_args = 0
 670              		@ link register save eliminated.
 671 0000 82B0     		sub	sp, sp, #8
 672              		.cfi_def_cfa_offset 8
 673 0002 0190     		str	r0, [sp, #4]
 674              		.loc 2 99 0
ARM GAS  /tmp/ccTqNS2e.s 			page 43


 675 0004 019B     		ldr	r3, [sp, #4]
 676 0006 4FF0FF32 		mov	r2, #-1
 677 000a 1A60     		str	r2, [r3]
 678              		.loc 2 100 0
 679 000c 019B     		ldr	r3, [sp, #4]
 680 000e 0022     		movs	r2, #0
 681 0010 5A60     		str	r2, [r3, #4]
 682              		.loc 2 101 0
 683 0012 019B     		ldr	r3, [sp, #4]
 684 0014 0022     		movs	r2, #0
 685 0016 9A60     		str	r2, [r3, #8]
 686              		.loc 2 102 0
 687 0018 019B     		ldr	r3, [sp, #4]
 688 001a 0022     		movs	r2, #0
 689 001c DA60     		str	r2, [r3, #12]
 690              		.loc 2 103 0
 691 001e 0199     		ldr	r1, [sp, #4]
 692 0020 4FF00002 		mov	r2, #0
 693 0024 4FF00003 		mov	r3, #0
 694 0028 C1E90423 		strd	r2, [r1, #16]
 695              		.loc 2 104 0
 696 002c 02B0     		add	sp, sp, #8
 697              		@ sp needed
 698 002e 7047     		bx	lr
 699              		.cfi_endproc
 700              	.LFE243:
 701              		.size	chTMObjectInit, .-chTMObjectInit
 702              		.section	.text.chTMStartMeasurementX,"ax",%progbits
 703              		.align	2
 704              		.p2align 4,,15
 705              		.global	chTMStartMeasurementX
 706              		.thumb
 707              		.thumb_func
 708              		.type	chTMStartMeasurementX, %function
 709              	chTMStartMeasurementX:
 710              	.LFB244:
 711              		.loc 2 114 0
 712              		.cfi_startproc
 713              		@ args = 0, pretend = 0, frame = 8
 714              		@ frame_needed = 0, uses_anonymous_args = 0
 715 0000 00B5     		push	{lr}
 716              		.cfi_def_cfa_offset 4
 717              		.cfi_offset 14, -4
 718 0002 83B0     		sub	sp, sp, #12
 719              		.cfi_def_cfa_offset 16
 720 0004 0190     		str	r0, [sp, #4]
 721              		.loc 2 116 0
 722 0006 FFF7FEFF 		bl	port_rt_get_counter_value
 723 000a 0246     		mov	r2, r0
 724 000c 019B     		ldr	r3, [sp, #4]
 725 000e 9A60     		str	r2, [r3, #8]
 726              		.loc 2 117 0
 727 0010 03B0     		add	sp, sp, #12
 728              		@ sp needed
 729 0012 5DF804FB 		ldr	pc, [sp], #4
 730              		.cfi_endproc
 731              	.LFE244:
ARM GAS  /tmp/ccTqNS2e.s 			page 44


 732              		.size	chTMStartMeasurementX, .-chTMStartMeasurementX
 733 0016 00BFAFF3 		.section	.text.chTMStopMeasurementX,"ax",%progbits
 733      0080AFF3 
 733      0080
 734              		.align	2
 735              		.p2align 4,,15
 736              		.global	chTMStopMeasurementX
 737              		.thumb
 738              		.thumb_func
 739              		.type	chTMStopMeasurementX, %function
 740              	chTMStopMeasurementX:
 741              	.LFB245:
 742              		.loc 2 127 0
 743              		.cfi_startproc
 744              		@ args = 0, pretend = 0, frame = 8
 745              		@ frame_needed = 0, uses_anonymous_args = 0
 746 0000 00B5     		push	{lr}
 747              		.cfi_def_cfa_offset 4
 748              		.cfi_offset 14, -4
 749 0002 83B0     		sub	sp, sp, #12
 750              		.cfi_def_cfa_offset 16
 751 0004 0190     		str	r0, [sp, #4]
 752              		.loc 2 129 0
 753 0006 FFF7FEFF 		bl	port_rt_get_counter_value
 754 000a 0246     		mov	r2, r0
 755 000c 40F20003 		movw	r3, #:lower16:ch
 756 0010 C0F20003 		movt	r3, #:upper16:ch
 757 0014 D3F8A034 		ldr	r3, [r3, #1184]
 758 0018 0198     		ldr	r0, [sp, #4]
 759 001a 1146     		mov	r1, r2
 760 001c 1A46     		mov	r2, r3
 761 001e FFF7FEFF 		bl	tm_stop
 762              		.loc 2 130 0
 763 0022 03B0     		add	sp, sp, #12
 764              		@ sp needed
 765 0024 5DF804FB 		ldr	pc, [sp], #4
 766              		.cfi_endproc
 767              	.LFE245:
 768              		.size	chTMStopMeasurementX, .-chTMStopMeasurementX
 769 0028 AFF30080 		.section	.text.chTMChainMeasurementToX,"ax",%progbits
 769      AFF30080 
 770              		.align	2
 771              		.p2align 4,,15
 772              		.global	chTMChainMeasurementToX
 773              		.thumb
 774              		.thumb_func
 775              		.type	chTMChainMeasurementToX, %function
 776              	chTMChainMeasurementToX:
 777              	.LFB246:
 778              		.loc 2 145 0
 779              		.cfi_startproc
 780              		@ args = 0, pretend = 0, frame = 8
 781              		@ frame_needed = 0, uses_anonymous_args = 0
 782 0000 00B5     		push	{lr}
 783              		.cfi_def_cfa_offset 4
 784              		.cfi_offset 14, -4
 785 0002 83B0     		sub	sp, sp, #12
ARM GAS  /tmp/ccTqNS2e.s 			page 45


 786              		.cfi_def_cfa_offset 16
 787 0004 0190     		str	r0, [sp, #4]
 788 0006 0091     		str	r1, [sp]
 789              		.loc 2 148 0
 790 0008 FFF7FEFF 		bl	port_rt_get_counter_value
 791 000c 0246     		mov	r2, r0
 792 000e 009B     		ldr	r3, [sp]
 793 0010 9A60     		str	r2, [r3, #8]
 794              		.loc 2 151 0
 795 0012 009B     		ldr	r3, [sp]
 796 0014 9B68     		ldr	r3, [r3, #8]
 797 0016 0198     		ldr	r0, [sp, #4]
 798 0018 1946     		mov	r1, r3
 799 001a 0022     		movs	r2, #0
 800 001c FFF7FEFF 		bl	tm_stop
 801              		.loc 2 152 0
 802 0020 03B0     		add	sp, sp, #12
 803              		@ sp needed
 804 0022 5DF804FB 		ldr	pc, [sp], #4
 805              		.cfi_endproc
 806              	.LFE246:
 807              		.size	chTMChainMeasurementToX, .-chTMChainMeasurementToX
 808 0026 00BFAFF3 		.text
 808      0080AFF3 
 808      0080
 809              	.Letext0:
 810              		.file 3 "/usr/include/newlib/machine/_default_types.h"
 811              		.file 4 "/usr/include/newlib/stdint.h"
 812              		.file 5 "lib/ChibiOS_16.1.4//os/rt/ports/ARMCMx/compilers/GCC/chtypes.h"
 813              		.file 6 "lib/ChibiOS_16.1.4//os/rt/include/chsystypes.h"
 814              		.file 7 "lib/ChibiOS_16.1.4//os/rt/include/chschd.h"
 815              		.file 8 "lib/ChibiOS_16.1.4//os/ext/CMSIS/include/core_cm4.h"
 816              		.file 9 "lib/ChibiOS_16.1.4//os/rt/ports/ARMCMx/chcore.h"
 817              		.file 10 "lib/ChibiOS_16.1.4//os/rt/include/chdebug.h"
 818              		.file 11 "lib/ChibiOS_16.1.4//os/rt/include/chtm.h"
 819              		.file 12 "lib/ChibiOS_16.1.4//os/rt/include/chstats.h"
 820              		.file 13 "lib/ChibiOS_16.1.4//os/rt/include/chsem.h"
 821              		.file 14 "lib/ChibiOS_16.1.4//os/rt/include/chmtx.h"
 822              		.section	.debug_info,"",%progbits
 823              	.Ldebug_info0:
 824 0000 3A0A0000 		.4byte	0xa3a
 825 0004 0400     		.2byte	0x4
 826 0006 00000000 		.4byte	.Ldebug_abbrev0
 827 000a 04       		.byte	0x4
 828 000b 01       		.uleb128 0x1
 829 000c F3020000 		.4byte	.LASF160
 830 0010 01       		.byte	0x1
 831 0011 DC000000 		.4byte	.LASF161
 832 0015 5A010000 		.4byte	.LASF162
 833 0019 00000000 		.4byte	.Ldebug_ranges0+0
 834 001d 00000000 		.4byte	0
 835 0021 00000000 		.4byte	.Ldebug_line0
 836 0025 02       		.uleb128 0x2
 837 0026 04       		.byte	0x4
 838 0027 05       		.byte	0x5
 839 0028 696E7400 		.ascii	"int\000"
 840 002c 03       		.uleb128 0x3
ARM GAS  /tmp/ccTqNS2e.s 			page 46


 841 002d 04       		.byte	0x4
 842 002e 07       		.byte	0x7
 843 002f 50020000 		.4byte	.LASF0
 844 0033 03       		.uleb128 0x3
 845 0034 01       		.byte	0x1
 846 0035 06       		.byte	0x6
 847 0036 4E010000 		.4byte	.LASF1
 848 003a 04       		.uleb128 0x4
 849 003b 3F000000 		.4byte	.LASF5
 850 003f 03       		.byte	0x3
 851 0040 1C       		.byte	0x1c
 852 0041 45000000 		.4byte	0x45
 853 0045 03       		.uleb128 0x3
 854 0046 01       		.byte	0x1
 855 0047 08       		.byte	0x8
 856 0048 18050000 		.4byte	.LASF2
 857 004c 03       		.uleb128 0x3
 858 004d 02       		.byte	0x2
 859 004e 05       		.byte	0x5
 860 004f 5B050000 		.4byte	.LASF3
 861 0053 03       		.uleb128 0x3
 862 0054 02       		.byte	0x2
 863 0055 07       		.byte	0x7
 864 0056 A2020000 		.4byte	.LASF4
 865 005a 04       		.uleb128 0x4
 866 005b C1030000 		.4byte	.LASF6
 867 005f 03       		.byte	0x3
 868 0060 37       		.byte	0x37
 869 0061 65000000 		.4byte	0x65
 870 0065 03       		.uleb128 0x3
 871 0066 04       		.byte	0x4
 872 0067 05       		.byte	0x5
 873 0068 C2010000 		.4byte	.LASF7
 874 006c 04       		.uleb128 0x4
 875 006d 64060000 		.4byte	.LASF8
 876 0071 03       		.byte	0x3
 877 0072 38       		.byte	0x38
 878 0073 77000000 		.4byte	0x77
 879 0077 03       		.uleb128 0x3
 880 0078 04       		.byte	0x4
 881 0079 07       		.byte	0x7
 882 007a 05060000 		.4byte	.LASF9
 883 007e 03       		.uleb128 0x3
 884 007f 08       		.byte	0x8
 885 0080 05       		.byte	0x5
 886 0081 40010000 		.4byte	.LASF10
 887 0085 04       		.uleb128 0x4
 888 0086 A1040000 		.4byte	.LASF11
 889 008a 03       		.byte	0x3
 890 008b 4E       		.byte	0x4e
 891 008c 90000000 		.4byte	0x90
 892 0090 03       		.uleb128 0x3
 893 0091 08       		.byte	0x8
 894 0092 07       		.byte	0x7
 895 0093 8E000000 		.4byte	.LASF12
 896 0097 04       		.uleb128 0x4
 897 0098 D9060000 		.4byte	.LASF13
ARM GAS  /tmp/ccTqNS2e.s 			page 47


 898 009c 04       		.byte	0x4
 899 009d 2A       		.byte	0x2a
 900 009e 3A000000 		.4byte	0x3a
 901 00a2 04       		.uleb128 0x4
 902 00a3 10050000 		.4byte	.LASF14
 903 00a7 04       		.byte	0x4
 904 00a8 41       		.byte	0x41
 905 00a9 5A000000 		.4byte	0x5a
 906 00ad 04       		.uleb128 0x4
 907 00ae D4050000 		.4byte	.LASF15
 908 00b2 04       		.byte	0x4
 909 00b3 42       		.byte	0x42
 910 00b4 6C000000 		.4byte	0x6c
 911 00b8 04       		.uleb128 0x4
 912 00b9 29000000 		.4byte	.LASF16
 913 00bd 04       		.byte	0x4
 914 00be 4E       		.byte	0x4e
 915 00bf 85000000 		.4byte	0x85
 916 00c3 04       		.uleb128 0x4
 917 00c4 91060000 		.4byte	.LASF17
 918 00c8 05       		.byte	0x5
 919 00c9 39       		.byte	0x39
 920 00ca AD000000 		.4byte	0xad
 921 00ce 04       		.uleb128 0x4
 922 00cf 26010000 		.4byte	.LASF18
 923 00d3 05       		.byte	0x5
 924 00d4 3A       		.byte	0x3a
 925 00d5 B8000000 		.4byte	0xb8
 926 00d9 04       		.uleb128 0x4
 927 00da 82050000 		.4byte	.LASF19
 928 00de 05       		.byte	0x5
 929 00df 3C       		.byte	0x3c
 930 00e0 97000000 		.4byte	0x97
 931 00e4 04       		.uleb128 0x4
 932 00e5 CB010000 		.4byte	.LASF20
 933 00e9 05       		.byte	0x5
 934 00ea 3D       		.byte	0x3d
 935 00eb 97000000 		.4byte	0x97
 936 00ef 04       		.uleb128 0x4
 937 00f0 B7040000 		.4byte	.LASF21
 938 00f4 05       		.byte	0x5
 939 00f5 3E       		.byte	0x3e
 940 00f6 97000000 		.4byte	0x97
 941 00fa 04       		.uleb128 0x4
 942 00fb F4040000 		.4byte	.LASF22
 943 00ff 05       		.byte	0x5
 944 0100 40       		.byte	0x40
 945 0101 AD000000 		.4byte	0xad
 946 0105 04       		.uleb128 0x4
 947 0106 D5020000 		.4byte	.LASF23
 948 010a 05       		.byte	0x5
 949 010b 41       		.byte	0x41
 950 010c A2000000 		.4byte	0xa2
 951 0110 04       		.uleb128 0x4
 952 0111 B5030000 		.4byte	.LASF24
 953 0115 05       		.byte	0x5
 954 0116 43       		.byte	0x43
ARM GAS  /tmp/ccTqNS2e.s 			page 48


 955 0117 AD000000 		.4byte	0xad
 956 011b 04       		.uleb128 0x4
 957 011c 44020000 		.4byte	.LASF25
 958 0120 05       		.byte	0x5
 959 0121 45       		.byte	0x45
 960 0122 A2000000 		.4byte	0xa2
 961 0126 04       		.uleb128 0x4
 962 0127 E0020000 		.4byte	.LASF26
 963 012b 05       		.byte	0x5
 964 012c 46       		.byte	0x46
 965 012d AD000000 		.4byte	0xad
 966 0131 04       		.uleb128 0x4
 967 0132 46060000 		.4byte	.LASF27
 968 0136 06       		.byte	0x6
 969 0137 33       		.byte	0x33
 970 0138 AD000000 		.4byte	0xad
 971 013c 04       		.uleb128 0x4
 972 013d 1C060000 		.4byte	.LASF28
 973 0141 06       		.byte	0x6
 974 0142 3F       		.byte	0x3f
 975 0143 47010000 		.4byte	0x147
 976 0147 05       		.uleb128 0x5
 977 0148 C4020000 		.4byte	.LASF50
 978 014c 60       		.byte	0x60
 979 014d 07       		.byte	0x7
 980 014e C2       		.byte	0xc2
 981 014f 4D020000 		.4byte	0x24d
 982 0153 06       		.uleb128 0x6
 983 0154 7B050000 		.4byte	.LASF29
 984 0158 07       		.byte	0x7
 985 0159 C3       		.byte	0xc3
 986 015a 58020000 		.4byte	0x258
 987 015e 00       		.byte	0
 988 015f 06       		.uleb128 0x6
 989 0160 ED040000 		.4byte	.LASF30
 990 0164 07       		.byte	0x7
 991 0165 C5       		.byte	0xc5
 992 0166 58020000 		.4byte	0x258
 993 016a 04       		.byte	0x4
 994 016b 06       		.uleb128 0x6
 995 016c 2F010000 		.4byte	.LASF31
 996 0170 07       		.byte	0x7
 997 0171 C7       		.byte	0xc7
 998 0172 FA000000 		.4byte	0xfa
 999 0176 08       		.byte	0x8
 1000 0177 06       		.uleb128 0x6
 1001 0178 6C040000 		.4byte	.LASF32
 1002 017c 07       		.byte	0x7
 1003 017d C8       		.byte	0xc8
 1004 017e 1C060000 		.4byte	0x61c
 1005 0182 0C       		.byte	0xc
 1006 0183 06       		.uleb128 0x6
 1007 0184 E3010000 		.4byte	.LASF33
 1008 0188 07       		.byte	0x7
 1009 0189 CA       		.byte	0xca
 1010 018a 58020000 		.4byte	0x258
 1011 018e 10       		.byte	0x10
ARM GAS  /tmp/ccTqNS2e.s 			page 49


 1012 018f 06       		.uleb128 0x6
 1013 0190 5E040000 		.4byte	.LASF34
 1014 0194 07       		.byte	0x7
 1015 0195 CB       		.byte	0xcb
 1016 0196 58020000 		.4byte	0x258
 1017 019a 14       		.byte	0x14
 1018 019b 06       		.uleb128 0x6
 1019 019c F0060000 		.4byte	.LASF35
 1020 01a0 07       		.byte	0x7
 1021 01a1 D2       		.byte	0xd2
 1022 01a2 C0080000 		.4byte	0x8c0
 1023 01a6 18       		.byte	0x18
 1024 01a7 06       		.uleb128 0x6
 1025 01a8 84040000 		.4byte	.LASF36
 1026 01ac 07       		.byte	0x7
 1027 01ad D8       		.byte	0xd8
 1028 01ae D2080000 		.4byte	0x8d2
 1029 01b2 1C       		.byte	0x1c
 1030 01b3 06       		.uleb128 0x6
 1031 01b4 65050000 		.4byte	.LASF37
 1032 01b8 07       		.byte	0x7
 1033 01b9 DD       		.byte	0xdd
 1034 01ba E4000000 		.4byte	0xe4
 1035 01be 20       		.byte	0x20
 1036 01bf 06       		.uleb128 0x6
 1037 01c0 8A050000 		.4byte	.LASF38
 1038 01c4 07       		.byte	0x7
 1039 01c5 E1       		.byte	0xe1
 1040 01c6 D9000000 		.4byte	0xd9
 1041 01ca 21       		.byte	0x21
 1042 01cb 06       		.uleb128 0x6
 1043 01cc C4060000 		.4byte	.LASF39
 1044 01d0 07       		.byte	0x7
 1045 01d1 E6       		.byte	0xe6
 1046 01d2 EF000000 		.4byte	0xef
 1047 01d6 22       		.byte	0x22
 1048 01d7 07       		.uleb128 0x7
 1049 01d8 705F7500 		.ascii	"p_u\000"
 1050 01dc 07       		.byte	0x7
 1051 01dd 3101     		.2byte	0x131
 1052 01df FB070000 		.4byte	0x7fb
 1053 01e3 24       		.byte	0x24
 1054 01e4 08       		.uleb128 0x8
 1055 01e5 F5030000 		.4byte	.LASF40
 1056 01e9 07       		.byte	0x7
 1057 01ea 3601     		.2byte	0x136
 1058 01ec 5E020000 		.4byte	0x25e
 1059 01f0 28       		.byte	0x28
 1060 01f1 08       		.uleb128 0x8
 1061 01f2 78020000 		.4byte	.LASF41
 1062 01f6 07       		.byte	0x7
 1063 01f7 3C01     		.2byte	0x13c
 1064 01f9 82020000 		.4byte	0x282
 1065 01fd 2C       		.byte	0x2c
 1066 01fe 08       		.uleb128 0x8
 1067 01ff 13070000 		.4byte	.LASF42
 1068 0203 07       		.byte	0x7
ARM GAS  /tmp/ccTqNS2e.s 			page 50


 1069 0204 4001     		.2byte	0x140
 1070 0206 05010000 		.4byte	0x105
 1071 020a 34       		.byte	0x34
 1072 020b 08       		.uleb128 0x8
 1073 020c C2050000 		.4byte	.LASF43
 1074 0210 07       		.byte	0x7
 1075 0211 4601     		.2byte	0x146
 1076 0213 10010000 		.4byte	0x110
 1077 0217 38       		.byte	0x38
 1078 0218 08       		.uleb128 0x8
 1079 0219 AB030000 		.4byte	.LASF44
 1080 021d 07       		.byte	0x7
 1081 021e 4D01     		.2byte	0x14d
 1082 0220 BA080000 		.4byte	0x8ba
 1083 0224 3C       		.byte	0x3c
 1084 0225 08       		.uleb128 0x8
 1085 0226 50060000 		.4byte	.LASF45
 1086 022a 07       		.byte	0x7
 1087 022b 5101     		.2byte	0x151
 1088 022d FA000000 		.4byte	0xfa
 1089 0231 40       		.byte	0x40
 1090 0232 08       		.uleb128 0x8
 1091 0233 79010000 		.4byte	.LASF46
 1092 0237 07       		.byte	0x7
 1093 0238 5801     		.2byte	0x158
 1094 023a 35030000 		.4byte	0x335
 1095 023e 44       		.byte	0x44
 1096 023f 08       		.uleb128 0x8
 1097 0240 92050000 		.4byte	.LASF47
 1098 0244 07       		.byte	0x7
 1099 0245 5E01     		.2byte	0x15e
 1100 0247 AC070000 		.4byte	0x7ac
 1101 024b 48       		.byte	0x48
 1102 024c 00       		.byte	0
 1103 024d 04       		.uleb128 0x4
 1104 024e 08040000 		.4byte	.LASF48
 1105 0252 06       		.byte	0x6
 1106 0253 44       		.byte	0x44
 1107 0254 58020000 		.4byte	0x258
 1108 0258 09       		.uleb128 0x9
 1109 0259 04       		.byte	0x4
 1110 025a 3C010000 		.4byte	0x13c
 1111 025e 04       		.uleb128 0x4
 1112 025f F7060000 		.4byte	.LASF49
 1113 0263 06       		.byte	0x6
 1114 0264 49       		.byte	0x49
 1115 0265 69020000 		.4byte	0x269
 1116 0269 05       		.uleb128 0x5
 1117 026a F5050000 		.4byte	.LASF51
 1118 026e 04       		.byte	0x4
 1119 026f 07       		.byte	0x7
 1120 0270 B0       		.byte	0xb0
 1121 0271 82020000 		.4byte	0x282
 1122 0275 06       		.uleb128 0x6
 1123 0276 7B050000 		.4byte	.LASF29
 1124 027a 07       		.byte	0x7
 1125 027b B1       		.byte	0xb1
ARM GAS  /tmp/ccTqNS2e.s 			page 51


 1126 027c 58020000 		.4byte	0x258
 1127 0280 00       		.byte	0
 1128 0281 00       		.byte	0
 1129 0282 04       		.uleb128 0x4
 1130 0283 AB060000 		.4byte	.LASF52
 1131 0287 06       		.byte	0x6
 1132 0288 50       		.byte	0x50
 1133 0289 8D020000 		.4byte	0x28d
 1134 028d 05       		.uleb128 0x5
 1135 028e 55000000 		.4byte	.LASF53
 1136 0292 08       		.byte	0x8
 1137 0293 07       		.byte	0x7
 1138 0294 B7       		.byte	0xb7
 1139 0295 B2020000 		.4byte	0x2b2
 1140 0299 06       		.uleb128 0x6
 1141 029a 7B050000 		.4byte	.LASF29
 1142 029e 07       		.byte	0x7
 1143 029f B8       		.byte	0xb8
 1144 02a0 58020000 		.4byte	0x258
 1145 02a4 00       		.byte	0
 1146 02a5 06       		.uleb128 0x6
 1147 02a6 ED040000 		.4byte	.LASF30
 1148 02aa 07       		.byte	0x7
 1149 02ab B9       		.byte	0xb9
 1150 02ac 58020000 		.4byte	0x258
 1151 02b0 04       		.byte	0x4
 1152 02b1 00       		.byte	0
 1153 02b2 04       		.uleb128 0x4
 1154 02b3 07000000 		.4byte	.LASF54
 1155 02b7 06       		.byte	0x6
 1156 02b8 57       		.byte	0x57
 1157 02b9 BD020000 		.4byte	0x2bd
 1158 02bd 0A       		.uleb128 0xa
 1159 02be 83020000 		.4byte	.LASF55
 1160 02c2 1C       		.byte	0x1c
 1161 02c3 07       		.byte	0x7
 1162 02c4 9001     		.2byte	0x190
 1163 02c6 19030000 		.4byte	0x319
 1164 02ca 08       		.uleb128 0x8
 1165 02cb E4050000 		.4byte	.LASF56
 1166 02cf 07       		.byte	0x7
 1167 02d0 9101     		.2byte	0x191
 1168 02d2 82020000 		.4byte	0x282
 1169 02d6 00       		.byte	0
 1170 02d7 08       		.uleb128 0x8
 1171 02d8 6D050000 		.4byte	.LASF57
 1172 02dc 07       		.byte	0x7
 1173 02dd 9201     		.2byte	0x192
 1174 02df FA000000 		.4byte	0xfa
 1175 02e3 08       		.byte	0x8
 1176 02e4 08       		.uleb128 0x8
 1177 02e5 66040000 		.4byte	.LASF58
 1178 02e9 07       		.byte	0x7
 1179 02ea 9401     		.2byte	0x194
 1180 02ec 1C060000 		.4byte	0x61c
 1181 02f0 0C       		.byte	0xc
 1182 02f1 08       		.uleb128 0x8
ARM GAS  /tmp/ccTqNS2e.s 			page 52


 1183 02f2 FB010000 		.4byte	.LASF59
 1184 02f6 07       		.byte	0x7
 1185 02f7 9701     		.2byte	0x197
 1186 02f9 58020000 		.4byte	0x258
 1187 02fd 10       		.byte	0x10
 1188 02fe 08       		.uleb128 0x8
 1189 02ff 99040000 		.4byte	.LASF60
 1190 0303 07       		.byte	0x7
 1191 0304 9801     		.2byte	0x198
 1192 0306 58020000 		.4byte	0x258
 1193 030a 14       		.byte	0x14
 1194 030b 08       		.uleb128 0x8
 1195 030c 8F040000 		.4byte	.LASF61
 1196 0310 07       		.byte	0x7
 1197 0311 9B01     		.2byte	0x19b
 1198 0313 58020000 		.4byte	0x258
 1199 0317 18       		.byte	0x18
 1200 0318 00       		.byte	0
 1201 0319 04       		.uleb128 0x4
 1202 031a 5B060000 		.4byte	.LASF62
 1203 031e 06       		.byte	0x6
 1204 031f 5C       		.byte	0x5c
 1205 0320 24030000 		.4byte	0x324
 1206 0324 09       		.uleb128 0x9
 1207 0325 04       		.byte	0x4
 1208 0326 2A030000 		.4byte	0x32a
 1209 032a 0B       		.uleb128 0xb
 1210 032b 35030000 		.4byte	0x335
 1211 032f 0C       		.uleb128 0xc
 1212 0330 35030000 		.4byte	0x335
 1213 0334 00       		.byte	0
 1214 0335 0D       		.uleb128 0xd
 1215 0336 04       		.byte	0x4
 1216 0337 04       		.uleb128 0x4
 1217 0338 DD040000 		.4byte	.LASF63
 1218 033c 06       		.byte	0x6
 1219 033d 61       		.byte	0x61
 1220 033e 42030000 		.4byte	0x342
 1221 0342 0A       		.uleb128 0xa
 1222 0343 A4050000 		.4byte	.LASF64
 1223 0347 14       		.byte	0x14
 1224 0348 07       		.byte	0x7
 1225 0349 6B01     		.2byte	0x16b
 1226 034b 91030000 		.4byte	0x391
 1227 034f 08       		.uleb128 0x8
 1228 0350 5D020000 		.4byte	.LASF65
 1229 0354 07       		.byte	0x7
 1230 0355 6C01     		.2byte	0x16c
 1231 0357 D8080000 		.4byte	0x8d8
 1232 035b 00       		.byte	0
 1233 035c 08       		.uleb128 0x8
 1234 035d 0C020000 		.4byte	.LASF66
 1235 0361 07       		.byte	0x7
 1236 0362 6D01     		.2byte	0x16d
 1237 0364 D8080000 		.4byte	0x8d8
 1238 0368 04       		.byte	0x4
 1239 0369 08       		.uleb128 0x8
ARM GAS  /tmp/ccTqNS2e.s 			page 53


 1240 036a EC050000 		.4byte	.LASF67
 1241 036e 07       		.byte	0x7
 1242 036f 6E01     		.2byte	0x16e
 1243 0371 31010000 		.4byte	0x131
 1244 0375 08       		.byte	0x8
 1245 0376 08       		.uleb128 0x8
 1246 0377 36070000 		.4byte	.LASF68
 1247 037b 07       		.byte	0x7
 1248 037c 6F01     		.2byte	0x16f
 1249 037e 19030000 		.4byte	0x319
 1250 0382 0C       		.byte	0xc
 1251 0383 08       		.uleb128 0x8
 1252 0384 9E060000 		.4byte	.LASF69
 1253 0388 07       		.byte	0x7
 1254 0389 7101     		.2byte	0x171
 1255 038b 35030000 		.4byte	0x335
 1256 038f 10       		.byte	0x10
 1257 0390 00       		.byte	0
 1258 0391 04       		.uleb128 0x4
 1259 0392 01010000 		.4byte	.LASF70
 1260 0396 06       		.byte	0x6
 1261 0397 66       		.byte	0x66
 1262 0398 9C030000 		.4byte	0x39c
 1263 039c 0A       		.uleb128 0xa
 1264 039d 2C040000 		.4byte	.LASF71
 1265 03a1 10       		.byte	0x10
 1266 03a2 07       		.byte	0x7
 1267 03a3 7B01     		.2byte	0x17b
 1268 03a5 DE030000 		.4byte	0x3de
 1269 03a9 08       		.uleb128 0x8
 1270 03aa 5D020000 		.4byte	.LASF65
 1271 03ae 07       		.byte	0x7
 1272 03af 7C01     		.2byte	0x17c
 1273 03b1 D8080000 		.4byte	0x8d8
 1274 03b5 00       		.byte	0
 1275 03b6 08       		.uleb128 0x8
 1276 03b7 0C020000 		.4byte	.LASF66
 1277 03bb 07       		.byte	0x7
 1278 03bc 7E01     		.2byte	0x17e
 1279 03be D8080000 		.4byte	0x8d8
 1280 03c2 04       		.byte	0x4
 1281 03c3 08       		.uleb128 0x8
 1282 03c4 EC050000 		.4byte	.LASF67
 1283 03c8 07       		.byte	0x7
 1284 03c9 8001     		.2byte	0x180
 1285 03cb 31010000 		.4byte	0x131
 1286 03cf 08       		.byte	0x8
 1287 03d0 08       		.uleb128 0x8
 1288 03d1 52040000 		.4byte	.LASF72
 1289 03d5 07       		.byte	0x7
 1290 03d6 8801     		.2byte	0x188
 1291 03d8 31010000 		.4byte	0x131
 1292 03dc 0C       		.byte	0xc
 1293 03dd 00       		.byte	0
 1294 03de 04       		.uleb128 0x4
 1295 03df 66000000 		.4byte	.LASF73
 1296 03e3 06       		.byte	0x6
ARM GAS  /tmp/ccTqNS2e.s 			page 54


 1297 03e4 6B       		.byte	0x6b
 1298 03e5 E9030000 		.4byte	0x3e9
 1299 03e9 0E       		.uleb128 0xe
 1300 03ea 14020000 		.4byte	.LASF74
 1301 03ee 1404     		.2byte	0x414
 1302 03f0 07       		.byte	0x7
 1303 03f1 A201     		.2byte	0x1a2
 1304 03f3 2C040000 		.4byte	0x42c
 1305 03f7 08       		.uleb128 0x8
 1306 03f8 6F060000 		.4byte	.LASF75
 1307 03fc 07       		.byte	0x7
 1308 03fd AA01     		.2byte	0x1aa
 1309 03ff DE080000 		.4byte	0x8de
 1310 0403 00       		.byte	0
 1311 0404 08       		.uleb128 0x8
 1312 0405 CB060000 		.4byte	.LASF76
 1313 0409 07       		.byte	0x7
 1314 040a AF01     		.2byte	0x1af
 1315 040c 1B010000 		.4byte	0x11b
 1316 0410 04       		.byte	0x4
 1317 0411 08       		.uleb128 0x8
 1318 0412 2C020000 		.4byte	.LASF77
 1319 0416 07       		.byte	0x7
 1320 0417 B301     		.2byte	0x1b3
 1321 0419 1B010000 		.4byte	0x11b
 1322 041d 08       		.byte	0x8
 1323 041e 08       		.uleb128 0x8
 1324 041f 06070000 		.4byte	.LASF78
 1325 0423 07       		.byte	0x7
 1326 0424 B901     		.2byte	0x1b9
 1327 0426 3E070000 		.4byte	0x73e
 1328 042a 0C       		.byte	0xc
 1329 042b 00       		.byte	0
 1330 042c 04       		.uleb128 0x4
 1331 042d E7020000 		.4byte	.LASF79
 1332 0431 06       		.byte	0x6
 1333 0432 70       		.byte	0x70
 1334 0433 37040000 		.4byte	0x437
 1335 0437 0E       		.uleb128 0xe
 1336 0438 9A050000 		.4byte	.LASF80
 1337 043c D805     		.2byte	0x5d8
 1338 043e 07       		.byte	0x7
 1339 043f C201     		.2byte	0x1c2
 1340 0441 A4040000 		.4byte	0x4a4
 1341 0445 08       		.uleb128 0x8
 1342 0446 D3060000 		.4byte	.LASF81
 1343 044a 07       		.byte	0x7
 1344 044b C601     		.2byte	0x1c6
 1345 044d B2020000 		.4byte	0x2b2
 1346 0451 00       		.byte	0
 1347 0452 08       		.uleb128 0x8
 1348 0453 90010000 		.4byte	.LASF82
 1349 0457 07       		.byte	0x7
 1350 0458 CA01     		.2byte	0x1ca
 1351 045a 91030000 		.4byte	0x391
 1352 045e 1C       		.byte	0x1c
 1353 045f 07       		.uleb128 0x7
ARM GAS  /tmp/ccTqNS2e.s 			page 55


 1354 0460 64626700 		.ascii	"dbg\000"
 1355 0464 07       		.byte	0x7
 1356 0465 CE01     		.2byte	0x1ce
 1357 0467 DE030000 		.4byte	0x3de
 1358 046b 2C       		.byte	0x2c
 1359 046c 0F       		.uleb128 0xf
 1360 046d C9000000 		.4byte	.LASF83
 1361 0471 07       		.byte	0x7
 1362 0472 D201     		.2byte	0x1d2
 1363 0474 3C010000 		.4byte	0x13c
 1364 0478 4004     		.2byte	0x440
 1365 047a 10       		.uleb128 0x10
 1366 047b 746D00   		.ascii	"tm\000"
 1367 047e 07       		.byte	0x7
 1368 047f D701     		.2byte	0x1d7
 1369 0481 5E070000 		.4byte	0x75e
 1370 0485 A004     		.2byte	0x4a0
 1371 0487 0F       		.uleb128 0xf
 1372 0488 32000000 		.4byte	.LASF84
 1373 048c 07       		.byte	0x7
 1374 048d DD01     		.2byte	0x1dd
 1375 048f F0070000 		.4byte	0x7f0
 1376 0493 A804     		.2byte	0x4a8
 1377 0495 0F       		.uleb128 0xf
 1378 0496 35020000 		.4byte	.LASF85
 1379 049a 07       		.byte	0x7
 1380 049b E301     		.2byte	0x1e3
 1381 049d E3080000 		.4byte	0x8e3
 1382 04a1 E004     		.2byte	0x4e0
 1383 04a3 00       		.byte	0
 1384 04a4 03       		.uleb128 0x3
 1385 04a5 04       		.byte	0x4
 1386 04a6 07       		.byte	0x7
 1387 04a7 FF030000 		.4byte	.LASF86
 1388 04ab 11       		.uleb128 0x11
 1389 04ac AD000000 		.4byte	0xad
 1390 04b0 12       		.uleb128 0x12
 1391 04b1 AB040000 		.4byte	0x4ab
 1392 04b5 13       		.uleb128 0x13
 1393 04b6 AD000000 		.4byte	0xad
 1394 04ba C5040000 		.4byte	0x4c5
 1395 04be 14       		.uleb128 0x14
 1396 04bf A4040000 		.4byte	0x4a4
 1397 04c3 00       		.byte	0
 1398 04c4 00       		.byte	0
 1399 04c5 15       		.uleb128 0x15
 1400 04c6 5C       		.byte	0x5c
 1401 04c7 08       		.byte	0x8
 1402 04c8 5603     		.2byte	0x356
 1403 04ca FA050000 		.4byte	0x5fa
 1404 04ce 08       		.uleb128 0x8
 1405 04cf 99060000 		.4byte	.LASF87
 1406 04d3 08       		.byte	0x8
 1407 04d4 5803     		.2byte	0x358
 1408 04d6 AB040000 		.4byte	0x4ab
 1409 04da 00       		.byte	0
 1410 04db 08       		.uleb128 0x8
ARM GAS  /tmp/ccTqNS2e.s 			page 56


 1411 04dc EE030000 		.4byte	.LASF88
 1412 04e0 08       		.byte	0x8
 1413 04e1 5903     		.2byte	0x359
 1414 04e3 AB040000 		.4byte	0x4ab
 1415 04e7 04       		.byte	0x4
 1416 04e8 08       		.uleb128 0x8
 1417 04e9 81010000 		.4byte	.LASF89
 1418 04ed 08       		.byte	0x8
 1419 04ee 5A03     		.2byte	0x35a
 1420 04f0 AB040000 		.4byte	0x4ab
 1421 04f4 08       		.byte	0x8
 1422 04f5 08       		.uleb128 0x8
 1423 04f6 CE020000 		.4byte	.LASF90
 1424 04fa 08       		.byte	0x8
 1425 04fb 5B03     		.2byte	0x35b
 1426 04fd AB040000 		.4byte	0x4ab
 1427 0501 0C       		.byte	0xc
 1428 0502 08       		.uleb128 0x8
 1429 0503 DA010000 		.4byte	.LASF91
 1430 0507 08       		.byte	0x8
 1431 0508 5C03     		.2byte	0x35c
 1432 050a AB040000 		.4byte	0x4ab
 1433 050e 10       		.byte	0x10
 1434 050f 08       		.uleb128 0x8
 1435 0510 CD050000 		.4byte	.LASF92
 1436 0514 08       		.byte	0x8
 1437 0515 5D03     		.2byte	0x35d
 1438 0517 AB040000 		.4byte	0x4ab
 1439 051b 14       		.byte	0x14
 1440 051c 08       		.uleb128 0x8
 1441 051d E1060000 		.4byte	.LASF93
 1442 0521 08       		.byte	0x8
 1443 0522 5E03     		.2byte	0x35e
 1444 0524 AB040000 		.4byte	0x4ab
 1445 0528 18       		.byte	0x18
 1446 0529 08       		.uleb128 0x8
 1447 052a FC040000 		.4byte	.LASF94
 1448 052e 08       		.byte	0x8
 1449 052f 5F03     		.2byte	0x35f
 1450 0531 B0040000 		.4byte	0x4b0
 1451 0535 1C       		.byte	0x1c
 1452 0536 08       		.uleb128 0x8
 1453 0537 A5060000 		.4byte	.LASF95
 1454 053b 08       		.byte	0x8
 1455 053c 6003     		.2byte	0x360
 1456 053e AB040000 		.4byte	0x4ab
 1457 0542 20       		.byte	0x20
 1458 0543 08       		.uleb128 0x8
 1459 0544 4A020000 		.4byte	.LASF96
 1460 0548 08       		.byte	0x8
 1461 0549 6103     		.2byte	0x361
 1462 054b AB040000 		.4byte	0x4ab
 1463 054f 24       		.byte	0x24
 1464 0550 08       		.uleb128 0x8
 1465 0551 33050000 		.4byte	.LASF97
 1466 0555 08       		.byte	0x8
 1467 0556 6203     		.2byte	0x362
ARM GAS  /tmp/ccTqNS2e.s 			page 57


 1468 0558 AB040000 		.4byte	0x4ab
 1469 055c 28       		.byte	0x28
 1470 055d 08       		.uleb128 0x8
 1471 055e BF040000 		.4byte	.LASF98
 1472 0562 08       		.byte	0x8
 1473 0563 6303     		.2byte	0x363
 1474 0565 B5040000 		.4byte	0x4b5
 1475 0569 2C       		.byte	0x2c
 1476 056a 08       		.uleb128 0x8
 1477 056b 72040000 		.4byte	.LASF99
 1478 056f 08       		.byte	0x8
 1479 0570 6403     		.2byte	0x364
 1480 0572 AB040000 		.4byte	0x4ab
 1481 0576 30       		.byte	0x30
 1482 0577 08       		.uleb128 0x8
 1483 0578 0A050000 		.4byte	.LASF100
 1484 057c 08       		.byte	0x8
 1485 057d 6503     		.2byte	0x365
 1486 057f AB040000 		.4byte	0x4ab
 1487 0583 34       		.byte	0x34
 1488 0584 08       		.uleb128 0x8
 1489 0585 3D050000 		.4byte	.LASF101
 1490 0589 08       		.byte	0x8
 1491 058a 6603     		.2byte	0x366
 1492 058c AB040000 		.4byte	0x4ab
 1493 0590 38       		.byte	0x38
 1494 0591 08       		.uleb128 0x8
 1495 0592 C9040000 		.4byte	.LASF102
 1496 0596 08       		.byte	0x8
 1497 0597 6703     		.2byte	0x367
 1498 0599 B5040000 		.4byte	0x4b5
 1499 059d 3C       		.byte	0x3c
 1500 059e 08       		.uleb128 0x8
 1501 059f 78040000 		.4byte	.LASF103
 1502 05a3 08       		.byte	0x8
 1503 05a4 6803     		.2byte	0x368
 1504 05a6 AB040000 		.4byte	0x4ab
 1505 05aa 40       		.byte	0x40
 1506 05ab 08       		.uleb128 0x8
 1507 05ac 65020000 		.4byte	.LASF104
 1508 05b0 08       		.byte	0x8
 1509 05b1 6903     		.2byte	0x369
 1510 05b3 AB040000 		.4byte	0x4ab
 1511 05b7 44       		.byte	0x44
 1512 05b8 08       		.uleb128 0x8
 1513 05b9 47050000 		.4byte	.LASF105
 1514 05bd 08       		.byte	0x8
 1515 05be 6A03     		.2byte	0x36a
 1516 05c0 AB040000 		.4byte	0x4ab
 1517 05c4 48       		.byte	0x48
 1518 05c5 08       		.uleb128 0x8
 1519 05c6 D3040000 		.4byte	.LASF106
 1520 05ca 08       		.byte	0x8
 1521 05cb 6B03     		.2byte	0x36b
 1522 05cd B5040000 		.4byte	0x4b5
 1523 05d1 4C       		.byte	0x4c
 1524 05d2 08       		.uleb128 0x8
ARM GAS  /tmp/ccTqNS2e.s 			page 58


 1525 05d3 7E040000 		.4byte	.LASF107
 1526 05d7 08       		.byte	0x8
 1527 05d8 6C03     		.2byte	0x36c
 1528 05da AB040000 		.4byte	0x4ab
 1529 05de 50       		.byte	0x50
 1530 05df 08       		.uleb128 0x8
 1531 05e0 6B020000 		.4byte	.LASF108
 1532 05e4 08       		.byte	0x8
 1533 05e5 6D03     		.2byte	0x36d
 1534 05e7 AB040000 		.4byte	0x4ab
 1535 05eb 54       		.byte	0x54
 1536 05ec 08       		.uleb128 0x8
 1537 05ed 51050000 		.4byte	.LASF109
 1538 05f1 08       		.byte	0x8
 1539 05f2 6E03     		.2byte	0x36e
 1540 05f4 AB040000 		.4byte	0x4ab
 1541 05f8 58       		.byte	0x58
 1542 05f9 00       		.byte	0
 1543 05fa 16       		.uleb128 0x16
 1544 05fb 88060000 		.4byte	.LASF110
 1545 05ff 08       		.byte	0x8
 1546 0600 6F03     		.2byte	0x36f
 1547 0602 C5040000 		.4byte	0x4c5
 1548 0606 04       		.uleb128 0x4
 1549 0607 03020000 		.4byte	.LASF111
 1550 060b 09       		.byte	0x9
 1551 060c 65       		.byte	0x65
 1552 060d 35030000 		.4byte	0x335
 1553 0611 04       		.uleb128 0x4
 1554 0612 E3030000 		.4byte	.LASF112
 1555 0616 09       		.byte	0x9
 1556 0617 6D       		.byte	0x6d
 1557 0618 B8000000 		.4byte	0xb8
 1558 061c 05       		.uleb128 0x5
 1559 061d 80060000 		.4byte	.LASF113
 1560 0621 04       		.byte	0x4
 1561 0622 09       		.byte	0x9
 1562 0623 89       		.byte	0x89
 1563 0624 35060000 		.4byte	0x635
 1564 0628 17       		.uleb128 0x17
 1565 0629 72313300 		.ascii	"r13\000"
 1566 062d 09       		.byte	0x9
 1567 062e 8A       		.byte	0x8a
 1568 062f B0060000 		.4byte	0x6b0
 1569 0633 00       		.byte	0
 1570 0634 00       		.byte	0
 1571 0635 05       		.uleb128 0x5
 1572 0636 49000000 		.4byte	.LASF114
 1573 063a 24       		.byte	0x24
 1574 063b 01       		.byte	0x1
 1575 063c FD       		.byte	0xfd
 1576 063d B0060000 		.4byte	0x6b0
 1577 0641 07       		.uleb128 0x7
 1578 0642 723400   		.ascii	"r4\000"
 1579 0645 01       		.byte	0x1
 1580 0646 1001     		.2byte	0x110
 1581 0648 06060000 		.4byte	0x606
ARM GAS  /tmp/ccTqNS2e.s 			page 59


 1582 064c 00       		.byte	0
 1583 064d 07       		.uleb128 0x7
 1584 064e 723500   		.ascii	"r5\000"
 1585 0651 01       		.byte	0x1
 1586 0652 1101     		.2byte	0x111
 1587 0654 06060000 		.4byte	0x606
 1588 0658 04       		.byte	0x4
 1589 0659 07       		.uleb128 0x7
 1590 065a 723600   		.ascii	"r6\000"
 1591 065d 01       		.byte	0x1
 1592 065e 1201     		.2byte	0x112
 1593 0660 06060000 		.4byte	0x606
 1594 0664 08       		.byte	0x8
 1595 0665 07       		.uleb128 0x7
 1596 0666 723700   		.ascii	"r7\000"
 1597 0669 01       		.byte	0x1
 1598 066a 1301     		.2byte	0x113
 1599 066c 06060000 		.4byte	0x606
 1600 0670 0C       		.byte	0xc
 1601 0671 07       		.uleb128 0x7
 1602 0672 723800   		.ascii	"r8\000"
 1603 0675 01       		.byte	0x1
 1604 0676 1401     		.2byte	0x114
 1605 0678 06060000 		.4byte	0x606
 1606 067c 10       		.byte	0x10
 1607 067d 07       		.uleb128 0x7
 1608 067e 723900   		.ascii	"r9\000"
 1609 0681 01       		.byte	0x1
 1610 0682 1501     		.2byte	0x115
 1611 0684 06060000 		.4byte	0x606
 1612 0688 14       		.byte	0x14
 1613 0689 07       		.uleb128 0x7
 1614 068a 72313000 		.ascii	"r10\000"
 1615 068e 01       		.byte	0x1
 1616 068f 1601     		.2byte	0x116
 1617 0691 06060000 		.4byte	0x606
 1618 0695 18       		.byte	0x18
 1619 0696 07       		.uleb128 0x7
 1620 0697 72313100 		.ascii	"r11\000"
 1621 069b 01       		.byte	0x1
 1622 069c 1701     		.2byte	0x117
 1623 069e 06060000 		.4byte	0x606
 1624 06a2 1C       		.byte	0x1c
 1625 06a3 07       		.uleb128 0x7
 1626 06a4 6C7200   		.ascii	"lr\000"
 1627 06a7 01       		.byte	0x1
 1628 06a8 1801     		.2byte	0x118
 1629 06aa 06060000 		.4byte	0x606
 1630 06ae 20       		.byte	0x20
 1631 06af 00       		.byte	0
 1632 06b0 09       		.uleb128 0x9
 1633 06b1 04       		.byte	0x4
 1634 06b2 35060000 		.4byte	0x635
 1635 06b6 18       		.uleb128 0x18
 1636 06b7 10       		.byte	0x10
 1637 06b8 0A       		.byte	0xa
 1638 06b9 51       		.byte	0x51
ARM GAS  /tmp/ccTqNS2e.s 			page 60


 1639 06ba EF060000 		.4byte	0x6ef
 1640 06be 06       		.uleb128 0x6
 1641 06bf 14000000 		.4byte	.LASF115
 1642 06c3 0A       		.byte	0xa
 1643 06c4 55       		.byte	0x55
 1644 06c5 31010000 		.4byte	0x131
 1645 06c9 00       		.byte	0
 1646 06ca 06       		.uleb128 0x6
 1647 06cb D4010000 		.4byte	.LASF116
 1648 06cf 0A       		.byte	0xa
 1649 06d0 59       		.byte	0x59
 1650 06d1 58020000 		.4byte	0x258
 1651 06d5 04       		.byte	0x4
 1652 06d6 06       		.uleb128 0x6
 1653 06d7 2C070000 		.4byte	.LASF117
 1654 06db 0A       		.byte	0xa
 1655 06dc 5D       		.byte	0x5d
 1656 06dd 35030000 		.4byte	0x335
 1657 06e1 08       		.byte	0x8
 1658 06e2 06       		.uleb128 0x6
 1659 06e3 B7000000 		.4byte	.LASF118
 1660 06e7 0A       		.byte	0xa
 1661 06e8 61       		.byte	0x61
 1662 06e9 97000000 		.4byte	0x97
 1663 06ed 0C       		.byte	0xc
 1664 06ee 00       		.byte	0
 1665 06ef 04       		.uleb128 0x4
 1666 06f0 43040000 		.4byte	.LASF119
 1667 06f4 0A       		.byte	0xa
 1668 06f5 62       		.byte	0x62
 1669 06f6 B6060000 		.4byte	0x6b6
 1670 06fa 19       		.uleb128 0x19
 1671 06fb 0804     		.2byte	0x408
 1672 06fd 0A       		.byte	0xa
 1673 06fe 67       		.byte	0x67
 1674 06ff 28070000 		.4byte	0x728
 1675 0703 06       		.uleb128 0x6
 1676 0704 F3010000 		.4byte	.LASF120
 1677 0708 0A       		.byte	0xa
 1678 0709 6B       		.byte	0x6b
 1679 070a 2C000000 		.4byte	0x2c
 1680 070e 00       		.byte	0
 1681 070f 06       		.uleb128 0x6
 1682 0710 00000000 		.4byte	.LASF121
 1683 0714 0A       		.byte	0xa
 1684 0715 6F       		.byte	0x6f
 1685 0716 28070000 		.4byte	0x728
 1686 071a 04       		.byte	0x4
 1687 071b 06       		.uleb128 0x6
 1688 071c 96030000 		.4byte	.LASF122
 1689 0720 0A       		.byte	0xa
 1690 0721 73       		.byte	0x73
 1691 0722 2E070000 		.4byte	0x72e
 1692 0726 08       		.byte	0x8
 1693 0727 00       		.byte	0
 1694 0728 09       		.uleb128 0x9
 1695 0729 04       		.byte	0x4
ARM GAS  /tmp/ccTqNS2e.s 			page 61


 1696 072a EF060000 		.4byte	0x6ef
 1697 072e 13       		.uleb128 0x13
 1698 072f EF060000 		.4byte	0x6ef
 1699 0733 3E070000 		.4byte	0x73e
 1700 0737 14       		.uleb128 0x14
 1701 0738 A4040000 		.4byte	0x4a4
 1702 073c 3F       		.byte	0x3f
 1703 073d 00       		.byte	0
 1704 073e 04       		.uleb128 0x4
 1705 073f A5000000 		.4byte	.LASF123
 1706 0743 0A       		.byte	0xa
 1707 0744 74       		.byte	0x74
 1708 0745 FA060000 		.4byte	0x6fa
 1709 0749 18       		.uleb128 0x18
 1710 074a 04       		.byte	0x4
 1711 074b 0B       		.byte	0xb
 1712 074c 38       		.byte	0x38
 1713 074d 5E070000 		.4byte	0x75e
 1714 0751 06       		.uleb128 0x6
 1715 0752 79060000 		.4byte	.LASF124
 1716 0756 0B       		.byte	0xb
 1717 0757 3C       		.byte	0x3c
 1718 0758 C3000000 		.4byte	0xc3
 1719 075c 00       		.byte	0
 1720 075d 00       		.byte	0
 1721 075e 04       		.uleb128 0x4
 1722 075f 1B040000 		.4byte	.LASF125
 1723 0763 0B       		.byte	0xb
 1724 0764 3D       		.byte	0x3d
 1725 0765 49070000 		.4byte	0x749
 1726 0769 18       		.uleb128 0x18
 1727 076a 18       		.byte	0x18
 1728 076b 0B       		.byte	0xb
 1729 076c 48       		.byte	0x48
 1730 076d AC070000 		.4byte	0x7ac
 1731 0771 06       		.uleb128 0x6
 1732 0772 9D020000 		.4byte	.LASF126
 1733 0776 0B       		.byte	0xb
 1734 0777 49       		.byte	0x49
 1735 0778 C3000000 		.4byte	0xc3
 1736 077c 00       		.byte	0
 1737 077d 06       		.uleb128 0x6
 1738 077e 75000000 		.4byte	.LASF127
 1739 0782 0B       		.byte	0xb
 1740 0783 4A       		.byte	0x4a
 1741 0784 C3000000 		.4byte	0xc3
 1742 0788 04       		.byte	0x4
 1743 0789 06       		.uleb128 0x6
 1744 078a DB020000 		.4byte	.LASF128
 1745 078e 0B       		.byte	0xb
 1746 078f 4B       		.byte	0x4b
 1747 0790 C3000000 		.4byte	0xc3
 1748 0794 08       		.byte	0x8
 1749 0795 17       		.uleb128 0x17
 1750 0796 6E00     		.ascii	"n\000"
 1751 0798 0B       		.byte	0xb
 1752 0799 4C       		.byte	0x4c
ARM GAS  /tmp/ccTqNS2e.s 			page 62


 1753 079a 26010000 		.4byte	0x126
 1754 079e 0C       		.byte	0xc
 1755 079f 06       		.uleb128 0x6
 1756 07a0 AC040000 		.4byte	.LASF129
 1757 07a4 0B       		.byte	0xb
 1758 07a5 4D       		.byte	0x4d
 1759 07a6 CE000000 		.4byte	0xce
 1760 07aa 10       		.byte	0x10
 1761 07ab 00       		.byte	0
 1762 07ac 04       		.uleb128 0x4
 1763 07ad 7B000000 		.4byte	.LASF130
 1764 07b1 0B       		.byte	0xb
 1765 07b2 4E       		.byte	0x4e
 1766 07b3 69070000 		.4byte	0x769
 1767 07b7 18       		.uleb128 0x18
 1768 07b8 38       		.byte	0x38
 1769 07b9 0C       		.byte	0xc
 1770 07ba 38       		.byte	0x38
 1771 07bb F0070000 		.4byte	0x7f0
 1772 07bf 06       		.uleb128 0x6
 1773 07c0 91020000 		.4byte	.LASF131
 1774 07c4 0C       		.byte	0xc
 1775 07c5 39       		.byte	0x39
 1776 07c6 26010000 		.4byte	0x126
 1777 07ca 00       		.byte	0
 1778 07cb 06       		.uleb128 0x6
 1779 07cc 01050000 		.4byte	.LASF132
 1780 07d0 0C       		.byte	0xc
 1781 07d1 3A       		.byte	0x3a
 1782 07d2 26010000 		.4byte	0x126
 1783 07d6 04       		.byte	0x4
 1784 07d7 06       		.uleb128 0x6
 1785 07d8 19070000 		.4byte	.LASF133
 1786 07dc 0C       		.byte	0xc
 1787 07dd 3B       		.byte	0x3b
 1788 07de AC070000 		.4byte	0x7ac
 1789 07e2 08       		.byte	0x8
 1790 07e3 06       		.uleb128 0x6
 1791 07e4 A0030000 		.4byte	.LASF134
 1792 07e8 0C       		.byte	0xc
 1793 07e9 3D       		.byte	0x3d
 1794 07ea AC070000 		.4byte	0x7ac
 1795 07ee 20       		.byte	0x20
 1796 07ef 00       		.byte	0
 1797 07f0 04       		.uleb128 0x4
 1798 07f1 B5020000 		.4byte	.LASF135
 1799 07f5 0C       		.byte	0xc
 1800 07f6 3F       		.byte	0x3f
 1801 07f7 B7070000 		.4byte	0x7b7
 1802 07fb 1A       		.uleb128 0x1a
 1803 07fc 04       		.byte	0x4
 1804 07fd 07       		.byte	0x7
 1805 07fe FA       		.byte	0xfa
 1806 07ff 58080000 		.4byte	0x858
 1807 0803 1B       		.uleb128 0x1b
 1808 0804 22000000 		.4byte	.LASF136
 1809 0808 07       		.byte	0x7
ARM GAS  /tmp/ccTqNS2e.s 			page 63


 1810 0809 0101     		.2byte	0x101
 1811 080b 05010000 		.4byte	0x105
 1812 080f 1B       		.uleb128 0x1b
 1813 0810 C0000000 		.4byte	.LASF137
 1814 0814 07       		.byte	0x7
 1815 0815 0801     		.2byte	0x108
 1816 0817 05010000 		.4byte	0x105
 1817 081b 1B       		.uleb128 0x1b
 1818 081c E9060000 		.4byte	.LASF138
 1819 0820 07       		.byte	0x7
 1820 0821 0F01     		.2byte	0x10f
 1821 0823 35030000 		.4byte	0x335
 1822 0827 1B       		.uleb128 0x1b
 1823 0828 1C000000 		.4byte	.LASF139
 1824 082c 07       		.byte	0x7
 1825 082d 1601     		.2byte	0x116
 1826 082f 58080000 		.4byte	0x858
 1827 0833 1B       		.uleb128 0x1b
 1828 0834 71020000 		.4byte	.LASF140
 1829 0838 07       		.byte	0x7
 1830 0839 1E01     		.2byte	0x11e
 1831 083b 83080000 		.4byte	0x883
 1832 083f 1B       		.uleb128 0x1b
 1833 0840 DD050000 		.4byte	.LASF141
 1834 0844 07       		.byte	0x7
 1835 0845 2701     		.2byte	0x127
 1836 0847 BA080000 		.4byte	0x8ba
 1837 084b 1B       		.uleb128 0x1b
 1838 084c 74050000 		.4byte	.LASF142
 1839 0850 07       		.byte	0x7
 1840 0851 2F01     		.2byte	0x12f
 1841 0853 10010000 		.4byte	0x110
 1842 0857 00       		.byte	0
 1843 0858 09       		.uleb128 0x9
 1844 0859 04       		.byte	0x4
 1845 085a 4D020000 		.4byte	0x24d
 1846 085e 05       		.uleb128 0x5
 1847 085f B5050000 		.4byte	.LASF143
 1848 0863 0C       		.byte	0xc
 1849 0864 0D       		.byte	0xd
 1850 0865 34       		.byte	0x34
 1851 0866 83080000 		.4byte	0x883
 1852 086a 06       		.uleb128 0x6
 1853 086b EB010000 		.4byte	.LASF144
 1854 086f 0D       		.byte	0xd
 1855 0870 35       		.byte	0x35
 1856 0871 82020000 		.4byte	0x282
 1857 0875 00       		.byte	0
 1858 0876 06       		.uleb128 0x6
 1859 0877 97020000 		.4byte	.LASF145
 1860 087b 0D       		.byte	0xd
 1861 087c 37       		.byte	0x37
 1862 087d 1B010000 		.4byte	0x11b
 1863 0881 08       		.byte	0x8
 1864 0882 00       		.byte	0
 1865 0883 09       		.uleb128 0x9
 1866 0884 04       		.byte	0x4
ARM GAS  /tmp/ccTqNS2e.s 			page 64


 1867 0885 5E080000 		.4byte	0x85e
 1868 0889 05       		.uleb128 0x5
 1869 088a BB060000 		.4byte	.LASF146
 1870 088e 10       		.byte	0x10
 1871 088f 0E       		.byte	0xe
 1872 0890 39       		.byte	0x39
 1873 0891 BA080000 		.4byte	0x8ba
 1874 0895 06       		.uleb128 0x6
 1875 0896 88010000 		.4byte	.LASF147
 1876 089a 0E       		.byte	0xe
 1877 089b 3A       		.byte	0x3a
 1878 089c 82020000 		.4byte	0x282
 1879 08a0 00       		.byte	0
 1880 08a1 06       		.uleb128 0x6
 1881 08a2 24070000 		.4byte	.LASF148
 1882 08a6 0E       		.byte	0xe
 1883 08a7 3C       		.byte	0x3c
 1884 08a8 58020000 		.4byte	0x258
 1885 08ac 08       		.byte	0x8
 1886 08ad 06       		.uleb128 0x6
 1887 08ae 3F060000 		.4byte	.LASF149
 1888 08b2 0E       		.byte	0xe
 1889 08b3 3E       		.byte	0x3e
 1890 08b4 FE080000 		.4byte	0x8fe
 1891 08b8 0C       		.byte	0xc
 1892 08b9 00       		.byte	0
 1893 08ba 09       		.uleb128 0x9
 1894 08bb 04       		.byte	0x4
 1895 08bc 89080000 		.4byte	0x889
 1896 08c0 09       		.uleb128 0x9
 1897 08c1 04       		.byte	0x4
 1898 08c2 C6080000 		.4byte	0x8c6
 1899 08c6 12       		.uleb128 0x12
 1900 08c7 CB080000 		.4byte	0x8cb
 1901 08cb 03       		.uleb128 0x3
 1902 08cc 01       		.byte	0x1
 1903 08cd 08       		.byte	0x8
 1904 08ce 17060000 		.4byte	.LASF150
 1905 08d2 09       		.uleb128 0x9
 1906 08d3 04       		.byte	0x4
 1907 08d4 11060000 		.4byte	0x611
 1908 08d8 09       		.uleb128 0x9
 1909 08d9 04       		.byte	0x4
 1910 08da 37030000 		.4byte	0x337
 1911 08de 11       		.uleb128 0x11
 1912 08df C0080000 		.4byte	0x8c0
 1913 08e3 13       		.uleb128 0x13
 1914 08e4 11060000 		.4byte	0x611
 1915 08e8 F3080000 		.4byte	0x8f3
 1916 08ec 14       		.uleb128 0x14
 1917 08ed A4040000 		.4byte	0x4a4
 1918 08f1 1E       		.byte	0x1e
 1919 08f2 00       		.byte	0
 1920 08f3 04       		.uleb128 0x4
 1921 08f4 24020000 		.4byte	.LASF151
 1922 08f8 0E       		.byte	0xe
 1923 08f9 34       		.byte	0x34
ARM GAS  /tmp/ccTqNS2e.s 			page 65


 1924 08fa 89080000 		.4byte	0x889
 1925 08fe 09       		.uleb128 0x9
 1926 08ff 04       		.byte	0x4
 1927 0900 F3080000 		.4byte	0x8f3
 1928 0904 1C       		.uleb128 0x1c
 1929 0905 25060000 		.4byte	.LASF163
 1930 0909 01       		.byte	0x1
 1931 090a 3802     		.2byte	0x238
 1932 090c C3000000 		.4byte	0xc3
 1933 0910 00000000 		.4byte	.LFB135
 1934 0914 0E000000 		.4byte	.LFE135-.LFB135
 1935 0918 01       		.uleb128 0x1
 1936 0919 9C       		.byte	0x9c
 1937 091a 1D       		.uleb128 0x1d
 1938 091b D4000000 		.4byte	.LASF164
 1939 091f 02       		.byte	0x2
 1940 0920 35       		.byte	0x35
 1941 0921 00000000 		.4byte	.LFB241
 1942 0925 6A000000 		.4byte	.LFE241-.LFB241
 1943 0929 01       		.uleb128 0x1
 1944 092a 9C       		.byte	0x9c
 1945 092b 5A090000 		.4byte	0x95a
 1946 092f 1E       		.uleb128 0x1e
 1947 0930 746D7000 		.ascii	"tmp\000"
 1948 0934 02       		.byte	0x2
 1949 0935 35       		.byte	0x35
 1950 0936 5A090000 		.4byte	0x95a
 1951 093a 02       		.uleb128 0x2
 1952 093b 91       		.byte	0x91
 1953 093c 7C       		.sleb128 -4
 1954 093d 1E       		.uleb128 0x1e
 1955 093e 6E6F7700 		.ascii	"now\000"
 1956 0942 02       		.byte	0x2
 1957 0943 36       		.byte	0x36
 1958 0944 C3000000 		.4byte	0xc3
 1959 0948 02       		.uleb128 0x2
 1960 0949 91       		.byte	0x91
 1961 094a 78       		.sleb128 -8
 1962 094b 1F       		.uleb128 0x1f
 1963 094c 79060000 		.4byte	.LASF124
 1964 0950 02       		.byte	0x2
 1965 0951 37       		.byte	0x37
 1966 0952 C3000000 		.4byte	0xc3
 1967 0956 02       		.uleb128 0x2
 1968 0957 91       		.byte	0x91
 1969 0958 74       		.sleb128 -12
 1970 0959 00       		.byte	0
 1971 095a 09       		.uleb128 0x9
 1972 095b 04       		.byte	0x4
 1973 095c AC070000 		.4byte	0x7ac
 1974 0960 20       		.uleb128 0x20
 1975 0961 3E070000 		.4byte	.LASF152
 1976 0965 02       		.byte	0x2
 1977 0966 4D       		.byte	0x4d
 1978 0967 00000000 		.4byte	.LFB242
 1979 096b 3E000000 		.4byte	.LFE242-.LFB242
 1980 096f 01       		.uleb128 0x1
ARM GAS  /tmp/ccTqNS2e.s 			page 66


 1981 0970 9C       		.byte	0x9c
 1982 0971 83090000 		.4byte	0x983
 1983 0975 21       		.uleb128 0x21
 1984 0976 746D00   		.ascii	"tm\000"
 1985 0979 02       		.byte	0x2
 1986 097a 4E       		.byte	0x4e
 1987 097b AC070000 		.4byte	0x7ac
 1988 097f 02       		.uleb128 0x2
 1989 0980 91       		.byte	0x91
 1990 0981 60       		.sleb128 -32
 1991 0982 00       		.byte	0
 1992 0983 22       		.uleb128 0x22
 1993 0984 17010000 		.4byte	.LASF153
 1994 0988 02       		.byte	0x2
 1995 0989 61       		.byte	0x61
 1996 098a 00000000 		.4byte	.LFB243
 1997 098e 30000000 		.4byte	.LFE243-.LFB243
 1998 0992 01       		.uleb128 0x1
 1999 0993 9C       		.byte	0x9c
 2000 0994 A7090000 		.4byte	0x9a7
 2001 0998 1E       		.uleb128 0x1e
 2002 0999 746D7000 		.ascii	"tmp\000"
 2003 099d 02       		.byte	0x2
 2004 099e 61       		.byte	0x61
 2005 099f 5A090000 		.4byte	0x95a
 2006 09a3 02       		.uleb128 0x2
 2007 09a4 91       		.byte	0x91
 2008 09a5 7C       		.sleb128 -4
 2009 09a6 00       		.byte	0
 2010 09a7 20       		.uleb128 0x20
 2011 09a8 97010000 		.4byte	.LASF154
 2012 09ac 02       		.byte	0x2
 2013 09ad 72       		.byte	0x72
 2014 09ae 00000000 		.4byte	.LFB244
 2015 09b2 16000000 		.4byte	.LFE244-.LFB244
 2016 09b6 01       		.uleb128 0x1
 2017 09b7 9C       		.byte	0x9c
 2018 09b8 CB090000 		.4byte	0x9cb
 2019 09bc 1E       		.uleb128 0x1e
 2020 09bd 746D7000 		.ascii	"tmp\000"
 2021 09c1 02       		.byte	0x2
 2022 09c2 72       		.byte	0x72
 2023 09c3 5A090000 		.4byte	0x95a
 2024 09c7 02       		.uleb128 0x2
 2025 09c8 91       		.byte	0x91
 2026 09c9 74       		.sleb128 -12
 2027 09ca 00       		.byte	0
 2028 09cb 20       		.uleb128 0x20
 2029 09cc AD010000 		.4byte	.LASF155
 2030 09d0 02       		.byte	0x2
 2031 09d1 7F       		.byte	0x7f
 2032 09d2 00000000 		.4byte	.LFB245
 2033 09d6 28000000 		.4byte	.LFE245-.LFB245
 2034 09da 01       		.uleb128 0x1
 2035 09db 9C       		.byte	0x9c
 2036 09dc EF090000 		.4byte	0x9ef
 2037 09e0 1E       		.uleb128 0x1e
ARM GAS  /tmp/ccTqNS2e.s 			page 67


 2038 09e1 746D7000 		.ascii	"tmp\000"
 2039 09e5 02       		.byte	0x2
 2040 09e6 7F       		.byte	0x7f
 2041 09e7 5A090000 		.4byte	0x95a
 2042 09eb 02       		.uleb128 0x2
 2043 09ec 91       		.byte	0x91
 2044 09ed 74       		.sleb128 -12
 2045 09ee 00       		.byte	0
 2046 09ef 20       		.uleb128 0x20
 2047 09f0 CB030000 		.4byte	.LASF156
 2048 09f4 02       		.byte	0x2
 2049 09f5 90       		.byte	0x90
 2050 09f6 00000000 		.4byte	.LFB246
 2051 09fa 26000000 		.4byte	.LFE246-.LFB246
 2052 09fe 01       		.uleb128 0x1
 2053 09ff 9C       		.byte	0x9c
 2054 0a00 210A0000 		.4byte	0xa21
 2055 0a04 1F       		.uleb128 0x1f
 2056 0a05 36010000 		.4byte	.LASF157
 2057 0a09 02       		.byte	0x2
 2058 0a0a 90       		.byte	0x90
 2059 0a0b 5A090000 		.4byte	0x95a
 2060 0a0f 02       		.uleb128 0x2
 2061 0a10 91       		.byte	0x91
 2062 0a11 74       		.sleb128 -12
 2063 0a12 1F       		.uleb128 0x1f
 2064 0a13 3B010000 		.4byte	.LASF158
 2065 0a17 02       		.byte	0x2
 2066 0a18 91       		.byte	0x91
 2067 0a19 5A090000 		.4byte	0x95a
 2068 0a1d 02       		.uleb128 0x2
 2069 0a1e 91       		.byte	0x91
 2070 0a1f 70       		.sleb128 -16
 2071 0a20 00       		.byte	0
 2072 0a21 23       		.uleb128 0x23
 2073 0a22 26050000 		.4byte	.LASF159
 2074 0a26 08       		.byte	0x8
 2075 0a27 FA06     		.2byte	0x6fa
 2076 0a29 2D0A0000 		.4byte	0xa2d
 2077 0a2d 11       		.uleb128 0x11
 2078 0a2e A2000000 		.4byte	0xa2
 2079 0a32 24       		.uleb128 0x24
 2080 0a33 636800   		.ascii	"ch\000"
 2081 0a36 07       		.byte	0x7
 2082 0a37 0902     		.2byte	0x209
 2083 0a39 2C040000 		.4byte	0x42c
 2084 0a3d 00       		.byte	0
 2085              		.section	.debug_abbrev,"",%progbits
 2086              	.Ldebug_abbrev0:
 2087 0000 01       		.uleb128 0x1
 2088 0001 11       		.uleb128 0x11
 2089 0002 01       		.byte	0x1
 2090 0003 25       		.uleb128 0x25
 2091 0004 0E       		.uleb128 0xe
 2092 0005 13       		.uleb128 0x13
 2093 0006 0B       		.uleb128 0xb
 2094 0007 03       		.uleb128 0x3
ARM GAS  /tmp/ccTqNS2e.s 			page 68


 2095 0008 0E       		.uleb128 0xe
 2096 0009 1B       		.uleb128 0x1b
 2097 000a 0E       		.uleb128 0xe
 2098 000b 55       		.uleb128 0x55
 2099 000c 17       		.uleb128 0x17
 2100 000d 11       		.uleb128 0x11
 2101 000e 01       		.uleb128 0x1
 2102 000f 10       		.uleb128 0x10
 2103 0010 17       		.uleb128 0x17
 2104 0011 00       		.byte	0
 2105 0012 00       		.byte	0
 2106 0013 02       		.uleb128 0x2
 2107 0014 24       		.uleb128 0x24
 2108 0015 00       		.byte	0
 2109 0016 0B       		.uleb128 0xb
 2110 0017 0B       		.uleb128 0xb
 2111 0018 3E       		.uleb128 0x3e
 2112 0019 0B       		.uleb128 0xb
 2113 001a 03       		.uleb128 0x3
 2114 001b 08       		.uleb128 0x8
 2115 001c 00       		.byte	0
 2116 001d 00       		.byte	0
 2117 001e 03       		.uleb128 0x3
 2118 001f 24       		.uleb128 0x24
 2119 0020 00       		.byte	0
 2120 0021 0B       		.uleb128 0xb
 2121 0022 0B       		.uleb128 0xb
 2122 0023 3E       		.uleb128 0x3e
 2123 0024 0B       		.uleb128 0xb
 2124 0025 03       		.uleb128 0x3
 2125 0026 0E       		.uleb128 0xe
 2126 0027 00       		.byte	0
 2127 0028 00       		.byte	0
 2128 0029 04       		.uleb128 0x4
 2129 002a 16       		.uleb128 0x16
 2130 002b 00       		.byte	0
 2131 002c 03       		.uleb128 0x3
 2132 002d 0E       		.uleb128 0xe
 2133 002e 3A       		.uleb128 0x3a
 2134 002f 0B       		.uleb128 0xb
 2135 0030 3B       		.uleb128 0x3b
 2136 0031 0B       		.uleb128 0xb
 2137 0032 49       		.uleb128 0x49
 2138 0033 13       		.uleb128 0x13
 2139 0034 00       		.byte	0
 2140 0035 00       		.byte	0
 2141 0036 05       		.uleb128 0x5
 2142 0037 13       		.uleb128 0x13
 2143 0038 01       		.byte	0x1
 2144 0039 03       		.uleb128 0x3
 2145 003a 0E       		.uleb128 0xe
 2146 003b 0B       		.uleb128 0xb
 2147 003c 0B       		.uleb128 0xb
 2148 003d 3A       		.uleb128 0x3a
 2149 003e 0B       		.uleb128 0xb
 2150 003f 3B       		.uleb128 0x3b
 2151 0040 0B       		.uleb128 0xb
ARM GAS  /tmp/ccTqNS2e.s 			page 69


 2152 0041 01       		.uleb128 0x1
 2153 0042 13       		.uleb128 0x13
 2154 0043 00       		.byte	0
 2155 0044 00       		.byte	0
 2156 0045 06       		.uleb128 0x6
 2157 0046 0D       		.uleb128 0xd
 2158 0047 00       		.byte	0
 2159 0048 03       		.uleb128 0x3
 2160 0049 0E       		.uleb128 0xe
 2161 004a 3A       		.uleb128 0x3a
 2162 004b 0B       		.uleb128 0xb
 2163 004c 3B       		.uleb128 0x3b
 2164 004d 0B       		.uleb128 0xb
 2165 004e 49       		.uleb128 0x49
 2166 004f 13       		.uleb128 0x13
 2167 0050 38       		.uleb128 0x38
 2168 0051 0B       		.uleb128 0xb
 2169 0052 00       		.byte	0
 2170 0053 00       		.byte	0
 2171 0054 07       		.uleb128 0x7
 2172 0055 0D       		.uleb128 0xd
 2173 0056 00       		.byte	0
 2174 0057 03       		.uleb128 0x3
 2175 0058 08       		.uleb128 0x8
 2176 0059 3A       		.uleb128 0x3a
 2177 005a 0B       		.uleb128 0xb
 2178 005b 3B       		.uleb128 0x3b
 2179 005c 05       		.uleb128 0x5
 2180 005d 49       		.uleb128 0x49
 2181 005e 13       		.uleb128 0x13
 2182 005f 38       		.uleb128 0x38
 2183 0060 0B       		.uleb128 0xb
 2184 0061 00       		.byte	0
 2185 0062 00       		.byte	0
 2186 0063 08       		.uleb128 0x8
 2187 0064 0D       		.uleb128 0xd
 2188 0065 00       		.byte	0
 2189 0066 03       		.uleb128 0x3
 2190 0067 0E       		.uleb128 0xe
 2191 0068 3A       		.uleb128 0x3a
 2192 0069 0B       		.uleb128 0xb
 2193 006a 3B       		.uleb128 0x3b
 2194 006b 05       		.uleb128 0x5
 2195 006c 49       		.uleb128 0x49
 2196 006d 13       		.uleb128 0x13
 2197 006e 38       		.uleb128 0x38
 2198 006f 0B       		.uleb128 0xb
 2199 0070 00       		.byte	0
 2200 0071 00       		.byte	0
 2201 0072 09       		.uleb128 0x9
 2202 0073 0F       		.uleb128 0xf
 2203 0074 00       		.byte	0
 2204 0075 0B       		.uleb128 0xb
 2205 0076 0B       		.uleb128 0xb
 2206 0077 49       		.uleb128 0x49
 2207 0078 13       		.uleb128 0x13
 2208 0079 00       		.byte	0
ARM GAS  /tmp/ccTqNS2e.s 			page 70


 2209 007a 00       		.byte	0
 2210 007b 0A       		.uleb128 0xa
 2211 007c 13       		.uleb128 0x13
 2212 007d 01       		.byte	0x1
 2213 007e 03       		.uleb128 0x3
 2214 007f 0E       		.uleb128 0xe
 2215 0080 0B       		.uleb128 0xb
 2216 0081 0B       		.uleb128 0xb
 2217 0082 3A       		.uleb128 0x3a
 2218 0083 0B       		.uleb128 0xb
 2219 0084 3B       		.uleb128 0x3b
 2220 0085 05       		.uleb128 0x5
 2221 0086 01       		.uleb128 0x1
 2222 0087 13       		.uleb128 0x13
 2223 0088 00       		.byte	0
 2224 0089 00       		.byte	0
 2225 008a 0B       		.uleb128 0xb
 2226 008b 15       		.uleb128 0x15
 2227 008c 01       		.byte	0x1
 2228 008d 27       		.uleb128 0x27
 2229 008e 19       		.uleb128 0x19
 2230 008f 01       		.uleb128 0x1
 2231 0090 13       		.uleb128 0x13
 2232 0091 00       		.byte	0
 2233 0092 00       		.byte	0
 2234 0093 0C       		.uleb128 0xc
 2235 0094 05       		.uleb128 0x5
 2236 0095 00       		.byte	0
 2237 0096 49       		.uleb128 0x49
 2238 0097 13       		.uleb128 0x13
 2239 0098 00       		.byte	0
 2240 0099 00       		.byte	0
 2241 009a 0D       		.uleb128 0xd
 2242 009b 0F       		.uleb128 0xf
 2243 009c 00       		.byte	0
 2244 009d 0B       		.uleb128 0xb
 2245 009e 0B       		.uleb128 0xb
 2246 009f 00       		.byte	0
 2247 00a0 00       		.byte	0
 2248 00a1 0E       		.uleb128 0xe
 2249 00a2 13       		.uleb128 0x13
 2250 00a3 01       		.byte	0x1
 2251 00a4 03       		.uleb128 0x3
 2252 00a5 0E       		.uleb128 0xe
 2253 00a6 0B       		.uleb128 0xb
 2254 00a7 05       		.uleb128 0x5
 2255 00a8 3A       		.uleb128 0x3a
 2256 00a9 0B       		.uleb128 0xb
 2257 00aa 3B       		.uleb128 0x3b
 2258 00ab 05       		.uleb128 0x5
 2259 00ac 01       		.uleb128 0x1
 2260 00ad 13       		.uleb128 0x13
 2261 00ae 00       		.byte	0
 2262 00af 00       		.byte	0
 2263 00b0 0F       		.uleb128 0xf
 2264 00b1 0D       		.uleb128 0xd
 2265 00b2 00       		.byte	0
ARM GAS  /tmp/ccTqNS2e.s 			page 71


 2266 00b3 03       		.uleb128 0x3
 2267 00b4 0E       		.uleb128 0xe
 2268 00b5 3A       		.uleb128 0x3a
 2269 00b6 0B       		.uleb128 0xb
 2270 00b7 3B       		.uleb128 0x3b
 2271 00b8 05       		.uleb128 0x5
 2272 00b9 49       		.uleb128 0x49
 2273 00ba 13       		.uleb128 0x13
 2274 00bb 38       		.uleb128 0x38
 2275 00bc 05       		.uleb128 0x5
 2276 00bd 00       		.byte	0
 2277 00be 00       		.byte	0
 2278 00bf 10       		.uleb128 0x10
 2279 00c0 0D       		.uleb128 0xd
 2280 00c1 00       		.byte	0
 2281 00c2 03       		.uleb128 0x3
 2282 00c3 08       		.uleb128 0x8
 2283 00c4 3A       		.uleb128 0x3a
 2284 00c5 0B       		.uleb128 0xb
 2285 00c6 3B       		.uleb128 0x3b
 2286 00c7 05       		.uleb128 0x5
 2287 00c8 49       		.uleb128 0x49
 2288 00c9 13       		.uleb128 0x13
 2289 00ca 38       		.uleb128 0x38
 2290 00cb 05       		.uleb128 0x5
 2291 00cc 00       		.byte	0
 2292 00cd 00       		.byte	0
 2293 00ce 11       		.uleb128 0x11
 2294 00cf 35       		.uleb128 0x35
 2295 00d0 00       		.byte	0
 2296 00d1 49       		.uleb128 0x49
 2297 00d2 13       		.uleb128 0x13
 2298 00d3 00       		.byte	0
 2299 00d4 00       		.byte	0
 2300 00d5 12       		.uleb128 0x12
 2301 00d6 26       		.uleb128 0x26
 2302 00d7 00       		.byte	0
 2303 00d8 49       		.uleb128 0x49
 2304 00d9 13       		.uleb128 0x13
 2305 00da 00       		.byte	0
 2306 00db 00       		.byte	0
 2307 00dc 13       		.uleb128 0x13
 2308 00dd 01       		.uleb128 0x1
 2309 00de 01       		.byte	0x1
 2310 00df 49       		.uleb128 0x49
 2311 00e0 13       		.uleb128 0x13
 2312 00e1 01       		.uleb128 0x1
 2313 00e2 13       		.uleb128 0x13
 2314 00e3 00       		.byte	0
 2315 00e4 00       		.byte	0
 2316 00e5 14       		.uleb128 0x14
 2317 00e6 21       		.uleb128 0x21
 2318 00e7 00       		.byte	0
 2319 00e8 49       		.uleb128 0x49
 2320 00e9 13       		.uleb128 0x13
 2321 00ea 2F       		.uleb128 0x2f
 2322 00eb 0B       		.uleb128 0xb
ARM GAS  /tmp/ccTqNS2e.s 			page 72


 2323 00ec 00       		.byte	0
 2324 00ed 00       		.byte	0
 2325 00ee 15       		.uleb128 0x15
 2326 00ef 13       		.uleb128 0x13
 2327 00f0 01       		.byte	0x1
 2328 00f1 0B       		.uleb128 0xb
 2329 00f2 0B       		.uleb128 0xb
 2330 00f3 3A       		.uleb128 0x3a
 2331 00f4 0B       		.uleb128 0xb
 2332 00f5 3B       		.uleb128 0x3b
 2333 00f6 05       		.uleb128 0x5
 2334 00f7 01       		.uleb128 0x1
 2335 00f8 13       		.uleb128 0x13
 2336 00f9 00       		.byte	0
 2337 00fa 00       		.byte	0
 2338 00fb 16       		.uleb128 0x16
 2339 00fc 16       		.uleb128 0x16
 2340 00fd 00       		.byte	0
 2341 00fe 03       		.uleb128 0x3
 2342 00ff 0E       		.uleb128 0xe
 2343 0100 3A       		.uleb128 0x3a
 2344 0101 0B       		.uleb128 0xb
 2345 0102 3B       		.uleb128 0x3b
 2346 0103 05       		.uleb128 0x5
 2347 0104 49       		.uleb128 0x49
 2348 0105 13       		.uleb128 0x13
 2349 0106 00       		.byte	0
 2350 0107 00       		.byte	0
 2351 0108 17       		.uleb128 0x17
 2352 0109 0D       		.uleb128 0xd
 2353 010a 00       		.byte	0
 2354 010b 03       		.uleb128 0x3
 2355 010c 08       		.uleb128 0x8
 2356 010d 3A       		.uleb128 0x3a
 2357 010e 0B       		.uleb128 0xb
 2358 010f 3B       		.uleb128 0x3b
 2359 0110 0B       		.uleb128 0xb
 2360 0111 49       		.uleb128 0x49
 2361 0112 13       		.uleb128 0x13
 2362 0113 38       		.uleb128 0x38
 2363 0114 0B       		.uleb128 0xb
 2364 0115 00       		.byte	0
 2365 0116 00       		.byte	0
 2366 0117 18       		.uleb128 0x18
 2367 0118 13       		.uleb128 0x13
 2368 0119 01       		.byte	0x1
 2369 011a 0B       		.uleb128 0xb
 2370 011b 0B       		.uleb128 0xb
 2371 011c 3A       		.uleb128 0x3a
 2372 011d 0B       		.uleb128 0xb
 2373 011e 3B       		.uleb128 0x3b
 2374 011f 0B       		.uleb128 0xb
 2375 0120 01       		.uleb128 0x1
 2376 0121 13       		.uleb128 0x13
 2377 0122 00       		.byte	0
 2378 0123 00       		.byte	0
 2379 0124 19       		.uleb128 0x19
ARM GAS  /tmp/ccTqNS2e.s 			page 73


 2380 0125 13       		.uleb128 0x13
 2381 0126 01       		.byte	0x1
 2382 0127 0B       		.uleb128 0xb
 2383 0128 05       		.uleb128 0x5
 2384 0129 3A       		.uleb128 0x3a
 2385 012a 0B       		.uleb128 0xb
 2386 012b 3B       		.uleb128 0x3b
 2387 012c 0B       		.uleb128 0xb
 2388 012d 01       		.uleb128 0x1
 2389 012e 13       		.uleb128 0x13
 2390 012f 00       		.byte	0
 2391 0130 00       		.byte	0
 2392 0131 1A       		.uleb128 0x1a
 2393 0132 17       		.uleb128 0x17
 2394 0133 01       		.byte	0x1
 2395 0134 0B       		.uleb128 0xb
 2396 0135 0B       		.uleb128 0xb
 2397 0136 3A       		.uleb128 0x3a
 2398 0137 0B       		.uleb128 0xb
 2399 0138 3B       		.uleb128 0x3b
 2400 0139 0B       		.uleb128 0xb
 2401 013a 01       		.uleb128 0x1
 2402 013b 13       		.uleb128 0x13
 2403 013c 00       		.byte	0
 2404 013d 00       		.byte	0
 2405 013e 1B       		.uleb128 0x1b
 2406 013f 0D       		.uleb128 0xd
 2407 0140 00       		.byte	0
 2408 0141 03       		.uleb128 0x3
 2409 0142 0E       		.uleb128 0xe
 2410 0143 3A       		.uleb128 0x3a
 2411 0144 0B       		.uleb128 0xb
 2412 0145 3B       		.uleb128 0x3b
 2413 0146 05       		.uleb128 0x5
 2414 0147 49       		.uleb128 0x49
 2415 0148 13       		.uleb128 0x13
 2416 0149 00       		.byte	0
 2417 014a 00       		.byte	0
 2418 014b 1C       		.uleb128 0x1c
 2419 014c 2E       		.uleb128 0x2e
 2420 014d 00       		.byte	0
 2421 014e 03       		.uleb128 0x3
 2422 014f 0E       		.uleb128 0xe
 2423 0150 3A       		.uleb128 0x3a
 2424 0151 0B       		.uleb128 0xb
 2425 0152 3B       		.uleb128 0x3b
 2426 0153 05       		.uleb128 0x5
 2427 0154 27       		.uleb128 0x27
 2428 0155 19       		.uleb128 0x19
 2429 0156 49       		.uleb128 0x49
 2430 0157 13       		.uleb128 0x13
 2431 0158 11       		.uleb128 0x11
 2432 0159 01       		.uleb128 0x1
 2433 015a 12       		.uleb128 0x12
 2434 015b 06       		.uleb128 0x6
 2435 015c 40       		.uleb128 0x40
 2436 015d 18       		.uleb128 0x18
ARM GAS  /tmp/ccTqNS2e.s 			page 74


 2437 015e 9742     		.uleb128 0x2117
 2438 0160 19       		.uleb128 0x19
 2439 0161 00       		.byte	0
 2440 0162 00       		.byte	0
 2441 0163 1D       		.uleb128 0x1d
 2442 0164 2E       		.uleb128 0x2e
 2443 0165 01       		.byte	0x1
 2444 0166 03       		.uleb128 0x3
 2445 0167 0E       		.uleb128 0xe
 2446 0168 3A       		.uleb128 0x3a
 2447 0169 0B       		.uleb128 0xb
 2448 016a 3B       		.uleb128 0x3b
 2449 016b 0B       		.uleb128 0xb
 2450 016c 27       		.uleb128 0x27
 2451 016d 19       		.uleb128 0x19
 2452 016e 11       		.uleb128 0x11
 2453 016f 01       		.uleb128 0x1
 2454 0170 12       		.uleb128 0x12
 2455 0171 06       		.uleb128 0x6
 2456 0172 40       		.uleb128 0x40
 2457 0173 18       		.uleb128 0x18
 2458 0174 9742     		.uleb128 0x2117
 2459 0176 19       		.uleb128 0x19
 2460 0177 01       		.uleb128 0x1
 2461 0178 13       		.uleb128 0x13
 2462 0179 00       		.byte	0
 2463 017a 00       		.byte	0
 2464 017b 1E       		.uleb128 0x1e
 2465 017c 05       		.uleb128 0x5
 2466 017d 00       		.byte	0
 2467 017e 03       		.uleb128 0x3
 2468 017f 08       		.uleb128 0x8
 2469 0180 3A       		.uleb128 0x3a
 2470 0181 0B       		.uleb128 0xb
 2471 0182 3B       		.uleb128 0x3b
 2472 0183 0B       		.uleb128 0xb
 2473 0184 49       		.uleb128 0x49
 2474 0185 13       		.uleb128 0x13
 2475 0186 02       		.uleb128 0x2
 2476 0187 18       		.uleb128 0x18
 2477 0188 00       		.byte	0
 2478 0189 00       		.byte	0
 2479 018a 1F       		.uleb128 0x1f
 2480 018b 05       		.uleb128 0x5
 2481 018c 00       		.byte	0
 2482 018d 03       		.uleb128 0x3
 2483 018e 0E       		.uleb128 0xe
 2484 018f 3A       		.uleb128 0x3a
 2485 0190 0B       		.uleb128 0xb
 2486 0191 3B       		.uleb128 0x3b
 2487 0192 0B       		.uleb128 0xb
 2488 0193 49       		.uleb128 0x49
 2489 0194 13       		.uleb128 0x13
 2490 0195 02       		.uleb128 0x2
 2491 0196 18       		.uleb128 0x18
 2492 0197 00       		.byte	0
 2493 0198 00       		.byte	0
ARM GAS  /tmp/ccTqNS2e.s 			page 75


 2494 0199 20       		.uleb128 0x20
 2495 019a 2E       		.uleb128 0x2e
 2496 019b 01       		.byte	0x1
 2497 019c 3F       		.uleb128 0x3f
 2498 019d 19       		.uleb128 0x19
 2499 019e 03       		.uleb128 0x3
 2500 019f 0E       		.uleb128 0xe
 2501 01a0 3A       		.uleb128 0x3a
 2502 01a1 0B       		.uleb128 0xb
 2503 01a2 3B       		.uleb128 0x3b
 2504 01a3 0B       		.uleb128 0xb
 2505 01a4 27       		.uleb128 0x27
 2506 01a5 19       		.uleb128 0x19
 2507 01a6 11       		.uleb128 0x11
 2508 01a7 01       		.uleb128 0x1
 2509 01a8 12       		.uleb128 0x12
 2510 01a9 06       		.uleb128 0x6
 2511 01aa 40       		.uleb128 0x40
 2512 01ab 18       		.uleb128 0x18
 2513 01ac 9642     		.uleb128 0x2116
 2514 01ae 19       		.uleb128 0x19
 2515 01af 01       		.uleb128 0x1
 2516 01b0 13       		.uleb128 0x13
 2517 01b1 00       		.byte	0
 2518 01b2 00       		.byte	0
 2519 01b3 21       		.uleb128 0x21
 2520 01b4 34       		.uleb128 0x34
 2521 01b5 00       		.byte	0
 2522 01b6 03       		.uleb128 0x3
 2523 01b7 08       		.uleb128 0x8
 2524 01b8 3A       		.uleb128 0x3a
 2525 01b9 0B       		.uleb128 0xb
 2526 01ba 3B       		.uleb128 0x3b
 2527 01bb 0B       		.uleb128 0xb
 2528 01bc 49       		.uleb128 0x49
 2529 01bd 13       		.uleb128 0x13
 2530 01be 02       		.uleb128 0x2
 2531 01bf 18       		.uleb128 0x18
 2532 01c0 00       		.byte	0
 2533 01c1 00       		.byte	0
 2534 01c2 22       		.uleb128 0x22
 2535 01c3 2E       		.uleb128 0x2e
 2536 01c4 01       		.byte	0x1
 2537 01c5 3F       		.uleb128 0x3f
 2538 01c6 19       		.uleb128 0x19
 2539 01c7 03       		.uleb128 0x3
 2540 01c8 0E       		.uleb128 0xe
 2541 01c9 3A       		.uleb128 0x3a
 2542 01ca 0B       		.uleb128 0xb
 2543 01cb 3B       		.uleb128 0x3b
 2544 01cc 0B       		.uleb128 0xb
 2545 01cd 27       		.uleb128 0x27
 2546 01ce 19       		.uleb128 0x19
 2547 01cf 11       		.uleb128 0x11
 2548 01d0 01       		.uleb128 0x1
 2549 01d1 12       		.uleb128 0x12
 2550 01d2 06       		.uleb128 0x6
ARM GAS  /tmp/ccTqNS2e.s 			page 76


 2551 01d3 40       		.uleb128 0x40
 2552 01d4 18       		.uleb128 0x18
 2553 01d5 9742     		.uleb128 0x2117
 2554 01d7 19       		.uleb128 0x19
 2555 01d8 01       		.uleb128 0x1
 2556 01d9 13       		.uleb128 0x13
 2557 01da 00       		.byte	0
 2558 01db 00       		.byte	0
 2559 01dc 23       		.uleb128 0x23
 2560 01dd 34       		.uleb128 0x34
 2561 01de 00       		.byte	0
 2562 01df 03       		.uleb128 0x3
 2563 01e0 0E       		.uleb128 0xe
 2564 01e1 3A       		.uleb128 0x3a
 2565 01e2 0B       		.uleb128 0xb
 2566 01e3 3B       		.uleb128 0x3b
 2567 01e4 05       		.uleb128 0x5
 2568 01e5 49       		.uleb128 0x49
 2569 01e6 13       		.uleb128 0x13
 2570 01e7 3F       		.uleb128 0x3f
 2571 01e8 19       		.uleb128 0x19
 2572 01e9 3C       		.uleb128 0x3c
 2573 01ea 19       		.uleb128 0x19
 2574 01eb 00       		.byte	0
 2575 01ec 00       		.byte	0
 2576 01ed 24       		.uleb128 0x24
 2577 01ee 34       		.uleb128 0x34
 2578 01ef 00       		.byte	0
 2579 01f0 03       		.uleb128 0x3
 2580 01f1 08       		.uleb128 0x8
 2581 01f2 3A       		.uleb128 0x3a
 2582 01f3 0B       		.uleb128 0xb
 2583 01f4 3B       		.uleb128 0x3b
 2584 01f5 05       		.uleb128 0x5
 2585 01f6 49       		.uleb128 0x49
 2586 01f7 13       		.uleb128 0x13
 2587 01f8 3F       		.uleb128 0x3f
 2588 01f9 19       		.uleb128 0x19
 2589 01fa 3C       		.uleb128 0x3c
 2590 01fb 19       		.uleb128 0x19
 2591 01fc 00       		.byte	0
 2592 01fd 00       		.byte	0
 2593 01fe 00       		.byte	0
 2594              		.section	.debug_aranges,"",%progbits
 2595 0000 4C000000 		.4byte	0x4c
 2596 0004 0200     		.2byte	0x2
 2597 0006 00000000 		.4byte	.Ldebug_info0
 2598 000a 04       		.byte	0x4
 2599 000b 00       		.byte	0
 2600 000c 0000     		.2byte	0
 2601 000e 0000     		.2byte	0
 2602 0010 00000000 		.4byte	.LFB135
 2603 0014 0E000000 		.4byte	.LFE135-.LFB135
 2604 0018 00000000 		.4byte	.LFB241
 2605 001c 6A000000 		.4byte	.LFE241-.LFB241
 2606 0020 00000000 		.4byte	.LFB242
 2607 0024 3E000000 		.4byte	.LFE242-.LFB242
ARM GAS  /tmp/ccTqNS2e.s 			page 77


 2608 0028 00000000 		.4byte	.LFB243
 2609 002c 30000000 		.4byte	.LFE243-.LFB243
 2610 0030 00000000 		.4byte	.LFB244
 2611 0034 16000000 		.4byte	.LFE244-.LFB244
 2612 0038 00000000 		.4byte	.LFB245
 2613 003c 28000000 		.4byte	.LFE245-.LFB245
 2614 0040 00000000 		.4byte	.LFB246
 2615 0044 26000000 		.4byte	.LFE246-.LFB246
 2616 0048 00000000 		.4byte	0
 2617 004c 00000000 		.4byte	0
 2618              		.section	.debug_ranges,"",%progbits
 2619              	.Ldebug_ranges0:
 2620 0000 00000000 		.4byte	.LFB135
 2621 0004 0E000000 		.4byte	.LFE135
 2622 0008 00000000 		.4byte	.LFB241
 2623 000c 6A000000 		.4byte	.LFE241
 2624 0010 00000000 		.4byte	.LFB242
 2625 0014 3E000000 		.4byte	.LFE242
 2626 0018 00000000 		.4byte	.LFB243
 2627 001c 30000000 		.4byte	.LFE243
 2628 0020 00000000 		.4byte	.LFB244
 2629 0024 16000000 		.4byte	.LFE244
 2630 0028 00000000 		.4byte	.LFB245
 2631 002c 28000000 		.4byte	.LFE245
 2632 0030 00000000 		.4byte	.LFB246
 2633 0034 26000000 		.4byte	.LFE246
 2634 0038 00000000 		.4byte	0
 2635 003c 00000000 		.4byte	0
 2636              		.section	.debug_line,"",%progbits
 2637              	.Ldebug_line0:
 2638 0000 5D020000 		.section	.debug_str,"MS",%progbits,1
 2638      0200BF01 
 2638      00000201 
 2638      FB0E0D00 
 2638      01010101 
 2639              	.LASF121:
 2640 0000 74625F70 		.ascii	"tb_ptr\000"
 2640      747200
 2641              	.LASF54:
 2642 0007 72656164 		.ascii	"ready_list_t\000"
 2642      795F6C69 
 2642      73745F74 
 2642      00
 2643              	.LASF115:
 2644 0014 73655F74 		.ascii	"se_time\000"
 2644      696D6500 
 2645              	.LASF139:
 2646 001c 77747472 		.ascii	"wttrp\000"
 2646      7000
 2647              	.LASF136:
 2648 0022 7264796D 		.ascii	"rdymsg\000"
 2648      736700
 2649              	.LASF16:
 2650 0029 75696E74 		.ascii	"uint64_t\000"
 2650      36345F74 
 2650      00
 2651              	.LASF84:
ARM GAS  /tmp/ccTqNS2e.s 			page 78


 2652 0032 6B65726E 		.ascii	"kernel_stats\000"
 2652      656C5F73 
 2652      74617473 
 2652      00
 2653              	.LASF5:
 2654 003f 5F5F7569 		.ascii	"__uint8_t\000"
 2654      6E74385F 
 2654      7400
 2655              	.LASF114:
 2656 0049 706F7274 		.ascii	"port_intctx\000"
 2656      5F696E74 
 2656      63747800 
 2657              	.LASF53:
 2658 0055 63685F74 		.ascii	"ch_threads_queue\000"
 2658      68726561 
 2658      64735F71 
 2658      75657565 
 2658      00
 2659              	.LASF73:
 2660 0066 73797374 		.ascii	"system_debug_t\000"
 2660      656D5F64 
 2660      65627567 
 2660      5F7400
 2661              	.LASF127:
 2662 0075 776F7273 		.ascii	"worst\000"
 2662      7400
 2663              	.LASF130:
 2664 007b 74696D65 		.ascii	"time_measurement_t\000"
 2664      5F6D6561 
 2664      73757265 
 2664      6D656E74 
 2664      5F7400
 2665              	.LASF12:
 2666 008e 6C6F6E67 		.ascii	"long long unsigned int\000"
 2666      206C6F6E 
 2666      6720756E 
 2666      7369676E 
 2666      65642069 
 2667              	.LASF123:
 2668 00a5 63685F74 		.ascii	"ch_trace_buffer_t\000"
 2668      72616365 
 2668      5F627566 
 2668      6665725F 
 2668      7400
 2669              	.LASF118:
 2670 00b7 73655F73 		.ascii	"se_state\000"
 2670      74617465 
 2670      00
 2671              	.LASF137:
 2672 00c0 65786974 		.ascii	"exitcode\000"
 2672      636F6465 
 2672      00
 2673              	.LASF83:
 2674 00c9 6D61696E 		.ascii	"mainthread\000"
 2674      74687265 
 2674      616400
 2675              	.LASF164:
ARM GAS  /tmp/ccTqNS2e.s 			page 79


 2676 00d4 746D5F73 		.ascii	"tm_stop\000"
 2676      746F7000 
 2677              	.LASF161:
 2678 00dc 6C69622F 		.ascii	"lib/ChibiOS_16.1.4//os/rt/src/chtm.c\000"
 2678      43686962 
 2678      694F535F 
 2678      31362E31 
 2678      2E342F2F 
 2679              	.LASF70:
 2680 0101 76697274 		.ascii	"virtual_timers_list_t\000"
 2680      75616C5F 
 2680      74696D65 
 2680      72735F6C 
 2680      6973745F 
 2681              	.LASF153:
 2682 0117 6368544D 		.ascii	"chTMObjectInit\000"
 2682      4F626A65 
 2682      6374496E 
 2682      697400
 2683              	.LASF18:
 2684 0126 72747469 		.ascii	"rttime_t\000"
 2684      6D655F74 
 2684      00
 2685              	.LASF31:
 2686 012f 705F7072 		.ascii	"p_prio\000"
 2686      696F00
 2687              	.LASF157:
 2688 0136 746D7031 		.ascii	"tmp1\000"
 2688      00
 2689              	.LASF158:
 2690 013b 746D7032 		.ascii	"tmp2\000"
 2690      00
 2691              	.LASF10:
 2692 0140 6C6F6E67 		.ascii	"long long int\000"
 2692      206C6F6E 
 2692      6720696E 
 2692      7400
 2693              	.LASF1:
 2694 014e 7369676E 		.ascii	"signed char\000"
 2694      65642063 
 2694      68617200 
 2695              	.LASF162:
 2696 015a 2F686F6D 		.ascii	"/home/jerker/git/AutoTux/stm32\000"
 2696      652F6A65 
 2696      726B6572 
 2696      2F676974 
 2696      2F417574 
 2697              	.LASF46:
 2698 0179 705F6D70 		.ascii	"p_mpool\000"
 2698      6F6F6C00 
 2699              	.LASF89:
 2700 0181 43504943 		.ascii	"CPICNT\000"
 2700      4E5400
 2701              	.LASF147:
 2702 0188 6D5F7175 		.ascii	"m_queue\000"
 2702      65756500 
 2703              	.LASF82:
ARM GAS  /tmp/ccTqNS2e.s 			page 80


 2704 0190 76746C69 		.ascii	"vtlist\000"
 2704      737400
 2705              	.LASF154:
 2706 0197 6368544D 		.ascii	"chTMStartMeasurementX\000"
 2706      53746172 
 2706      744D6561 
 2706      73757265 
 2706      6D656E74 
 2707              	.LASF155:
 2708 01ad 6368544D 		.ascii	"chTMStopMeasurementX\000"
 2708      53746F70 
 2708      4D656173 
 2708      7572656D 
 2708      656E7458 
 2709              	.LASF7:
 2710 01c2 6C6F6E67 		.ascii	"long int\000"
 2710      20696E74 
 2710      00
 2711              	.LASF20:
 2712 01cb 74737461 		.ascii	"tstate_t\000"
 2712      74655F74 
 2712      00
 2713              	.LASF116:
 2714 01d4 73655F74 		.ascii	"se_tp\000"
 2714      7000
 2715              	.LASF91:
 2716 01da 534C4545 		.ascii	"SLEEPCNT\000"
 2716      50434E54 
 2716      00
 2717              	.LASF33:
 2718 01e3 705F6E65 		.ascii	"p_newer\000"
 2718      77657200 
 2719              	.LASF144:
 2720 01eb 735F7175 		.ascii	"s_queue\000"
 2720      65756500 
 2721              	.LASF120:
 2722 01f3 74625F73 		.ascii	"tb_size\000"
 2722      697A6500 
 2723              	.LASF59:
 2724 01fb 725F6E65 		.ascii	"r_newer\000"
 2724      77657200 
 2725              	.LASF111:
 2726 0203 72656761 		.ascii	"regarm_t\000"
 2726      726D5F74 
 2726      00
 2727              	.LASF66:
 2728 020c 76745F70 		.ascii	"vt_prev\000"
 2728      72657600 
 2729              	.LASF74:
 2730 0214 63685F73 		.ascii	"ch_system_debug\000"
 2730      79737465 
 2730      6D5F6465 
 2730      62756700 
 2731              	.LASF151:
 2732 0224 6D757465 		.ascii	"mutex_t\000"
 2732      785F7400 
 2733              	.LASF77:
ARM GAS  /tmp/ccTqNS2e.s 			page 81


 2734 022c 6C6F636B 		.ascii	"lock_cnt\000"
 2734      5F636E74 
 2734      00
 2735              	.LASF85:
 2736 0235 69646C65 		.ascii	"idle_thread_wa\000"
 2736      5F746872 
 2736      6561645F 
 2736      776100
 2737              	.LASF25:
 2738 0244 636E745F 		.ascii	"cnt_t\000"
 2738      7400
 2739              	.LASF96:
 2740 024a 4D41534B 		.ascii	"MASK0\000"
 2740      3000
 2741              	.LASF0:
 2742 0250 756E7369 		.ascii	"unsigned int\000"
 2742      676E6564 
 2742      20696E74 
 2742      00
 2743              	.LASF65:
 2744 025d 76745F6E 		.ascii	"vt_next\000"
 2744      65787400 
 2745              	.LASF104:
 2746 0265 4D41534B 		.ascii	"MASK2\000"
 2746      3200
 2747              	.LASF108:
 2748 026b 4D41534B 		.ascii	"MASK3\000"
 2748      3300
 2749              	.LASF140:
 2750 0271 77747365 		.ascii	"wtsemp\000"
 2750      6D7000
 2751              	.LASF41:
 2752 0278 705F6D73 		.ascii	"p_msgqueue\000"
 2752      67717565 
 2752      756500
 2753              	.LASF55:
 2754 0283 63685F72 		.ascii	"ch_ready_list\000"
 2754      65616479 
 2754      5F6C6973 
 2754      7400
 2755              	.LASF131:
 2756 0291 6E5F6972 		.ascii	"n_irq\000"
 2756      7100
 2757              	.LASF145:
 2758 0297 735F636E 		.ascii	"s_cnt\000"
 2758      7400
 2759              	.LASF126:
 2760 029d 62657374 		.ascii	"best\000"
 2760      00
 2761              	.LASF4:
 2762 02a2 73686F72 		.ascii	"short unsigned int\000"
 2762      7420756E 
 2762      7369676E 
 2762      65642069 
 2762      6E7400
 2763              	.LASF135:
 2764 02b5 6B65726E 		.ascii	"kernel_stats_t\000"
ARM GAS  /tmp/ccTqNS2e.s 			page 82


 2764      656C5F73 
 2764      74617473 
 2764      5F7400
 2765              	.LASF50:
 2766 02c4 63685F74 		.ascii	"ch_thread\000"
 2766      68726561 
 2766      6400
 2767              	.LASF90:
 2768 02ce 45584343 		.ascii	"EXCCNT\000"
 2768      4E5400
 2769              	.LASF23:
 2770 02d5 6D73675F 		.ascii	"msg_t\000"
 2770      7400
 2771              	.LASF128:
 2772 02db 6C617374 		.ascii	"last\000"
 2772      00
 2773              	.LASF26:
 2774 02e0 75636E74 		.ascii	"ucnt_t\000"
 2774      5F7400
 2775              	.LASF79:
 2776 02e7 63685F73 		.ascii	"ch_system_t\000"
 2776      79737465 
 2776      6D5F7400 
 2777              	.LASF160:
 2778 02f3 474E5520 		.ascii	"GNU C 4.8.2 -mcpu=cortex-m4 -mno-thumb-interwork -m"
 2778      4320342E 
 2778      382E3220 
 2778      2D6D6370 
 2778      753D636F 
 2779 0326 7468756D 		.ascii	"thumb -ggdb -O0 -fomit-frame-pointer -falign-functi"
 2779      62202D67 
 2779      67646220 
 2779      2D4F3020 
 2779      2D666F6D 
 2780 0359 6F6E733D 		.ascii	"ons=16 -ffunction-sections -fdata-sections -fno-com"
 2780      3136202D 
 2780      6666756E 
 2780      6374696F 
 2780      6E2D7365 
 2781 038c 6D6F6E20 		.ascii	"mon -flto\000"
 2781      2D666C74 
 2781      6F00
 2782              	.LASF122:
 2783 0396 74625F62 		.ascii	"tb_buffer\000"
 2783      75666665 
 2783      7200
 2784              	.LASF134:
 2785 03a0 6D5F6372 		.ascii	"m_crit_isr\000"
 2785      69745F69 
 2785      737200
 2786              	.LASF44:
 2787 03ab 705F6D74 		.ascii	"p_mtxlist\000"
 2787      786C6973 
 2787      7400
 2788              	.LASF24:
 2789 03b5 6576656E 		.ascii	"eventmask_t\000"
 2789      746D6173 
ARM GAS  /tmp/ccTqNS2e.s 			page 83


 2789      6B5F7400 
 2790              	.LASF6:
 2791 03c1 5F5F696E 		.ascii	"__int32_t\000"
 2791      7433325F 
 2791      7400
 2792              	.LASF156:
 2793 03cb 6368544D 		.ascii	"chTMChainMeasurementToX\000"
 2793      43686169 
 2793      6E4D6561 
 2793      73757265 
 2793      6D656E74 
 2794              	.LASF112:
 2795 03e3 73746B61 		.ascii	"stkalign_t\000"
 2795      6C69676E 
 2795      5F7400
 2796              	.LASF88:
 2797 03ee 43594343 		.ascii	"CYCCNT\000"
 2797      4E5400
 2798              	.LASF40:
 2799 03f5 705F7761 		.ascii	"p_waiting\000"
 2799      6974696E 
 2799      6700
 2800              	.LASF86:
 2801 03ff 73697A65 		.ascii	"sizetype\000"
 2801      74797065 
 2801      00
 2802              	.LASF48:
 2803 0408 74687265 		.ascii	"thread_reference_t\000"
 2803      61645F72 
 2803      65666572 
 2803      656E6365 
 2803      5F7400
 2804              	.LASF125:
 2805 041b 746D5F63 		.ascii	"tm_calibration_t\000"
 2805      616C6962 
 2805      72617469 
 2805      6F6E5F74 
 2805      00
 2806              	.LASF71:
 2807 042c 63685F76 		.ascii	"ch_virtual_timers_list\000"
 2807      69727475 
 2807      616C5F74 
 2807      696D6572 
 2807      735F6C69 
 2808              	.LASF119:
 2809 0443 63685F73 		.ascii	"ch_swc_event_t\000"
 2809      77635F65 
 2809      76656E74 
 2809      5F7400
 2810              	.LASF72:
 2811 0452 76745F6C 		.ascii	"vt_lasttime\000"
 2811      61737474 
 2811      696D6500 
 2812              	.LASF34:
 2813 045e 705F6F6C 		.ascii	"p_older\000"
 2813      64657200 
 2814              	.LASF58:
ARM GAS  /tmp/ccTqNS2e.s 			page 84


 2815 0466 725F6374 		.ascii	"r_ctx\000"
 2815      7800
 2816              	.LASF32:
 2817 046c 705F6374 		.ascii	"p_ctx\000"
 2817      7800
 2818              	.LASF99:
 2819 0472 434F4D50 		.ascii	"COMP1\000"
 2819      3100
 2820              	.LASF103:
 2821 0478 434F4D50 		.ascii	"COMP2\000"
 2821      3200
 2822              	.LASF107:
 2823 047e 434F4D50 		.ascii	"COMP3\000"
 2823      3300
 2824              	.LASF36:
 2825 0484 705F7374 		.ascii	"p_stklimit\000"
 2825      6B6C696D 
 2825      697400
 2826              	.LASF61:
 2827 048f 725F6375 		.ascii	"r_current\000"
 2827      7272656E 
 2827      7400
 2828              	.LASF60:
 2829 0499 725F6F6C 		.ascii	"r_older\000"
 2829      64657200 
 2830              	.LASF11:
 2831 04a1 5F5F7569 		.ascii	"__uint64_t\000"
 2831      6E743634 
 2831      5F7400
 2832              	.LASF129:
 2833 04ac 63756D75 		.ascii	"cumulative\000"
 2833      6C617469 
 2833      766500
 2834              	.LASF21:
 2835 04b7 74726566 		.ascii	"trefs_t\000"
 2835      735F7400 
 2836              	.LASF98:
 2837 04bf 52455345 		.ascii	"RESERVED0\000"
 2837      52564544 
 2837      3000
 2838              	.LASF102:
 2839 04c9 52455345 		.ascii	"RESERVED1\000"
 2839      52564544 
 2839      3100
 2840              	.LASF106:
 2841 04d3 52455345 		.ascii	"RESERVED2\000"
 2841      52564544 
 2841      3200
 2842              	.LASF63:
 2843 04dd 76697274 		.ascii	"virtual_timer_t\000"
 2843      75616C5F 
 2843      74696D65 
 2843      725F7400 
 2844              	.LASF30:
 2845 04ed 705F7072 		.ascii	"p_prev\000"
 2845      657600
 2846              	.LASF22:
ARM GAS  /tmp/ccTqNS2e.s 			page 85


 2847 04f4 74707269 		.ascii	"tprio_t\000"
 2847      6F5F7400 
 2848              	.LASF94:
 2849 04fc 50435352 		.ascii	"PCSR\000"
 2849      00
 2850              	.LASF132:
 2851 0501 6E5F6374 		.ascii	"n_ctxswc\000"
 2851      78737763 
 2851      00
 2852              	.LASF100:
 2853 050a 4D41534B 		.ascii	"MASK1\000"
 2853      3100
 2854              	.LASF14:
 2855 0510 696E7433 		.ascii	"int32_t\000"
 2855      325F7400 
 2856              	.LASF2:
 2857 0518 756E7369 		.ascii	"unsigned char\000"
 2857      676E6564 
 2857      20636861 
 2857      7200
 2858              	.LASF159:
 2859 0526 49544D5F 		.ascii	"ITM_RxBuffer\000"
 2859      52784275 
 2859      66666572 
 2859      00
 2860              	.LASF97:
 2861 0533 46554E43 		.ascii	"FUNCTION0\000"
 2861      54494F4E 
 2861      3000
 2862              	.LASF101:
 2863 053d 46554E43 		.ascii	"FUNCTION1\000"
 2863      54494F4E 
 2863      3100
 2864              	.LASF105:
 2865 0547 46554E43 		.ascii	"FUNCTION2\000"
 2865      54494F4E 
 2865      3200
 2866              	.LASF109:
 2867 0551 46554E43 		.ascii	"FUNCTION3\000"
 2867      54494F4E 
 2867      3300
 2868              	.LASF3:
 2869 055b 73686F72 		.ascii	"short int\000"
 2869      7420696E 
 2869      7400
 2870              	.LASF37:
 2871 0565 705F7374 		.ascii	"p_state\000"
 2871      61746500 
 2872              	.LASF57:
 2873 056d 725F7072 		.ascii	"r_prio\000"
 2873      696F00
 2874              	.LASF142:
 2875 0574 65776D61 		.ascii	"ewmask\000"
 2875      736B00
 2876              	.LASF29:
 2877 057b 705F6E65 		.ascii	"p_next\000"
 2877      787400
ARM GAS  /tmp/ccTqNS2e.s 			page 86


 2878              	.LASF19:
 2879 0582 746D6F64 		.ascii	"tmode_t\000"
 2879      655F7400 
 2880              	.LASF38:
 2881 058a 705F666C 		.ascii	"p_flags\000"
 2881      61677300 
 2882              	.LASF47:
 2883 0592 705F7374 		.ascii	"p_stats\000"
 2883      61747300 
 2884              	.LASF80:
 2885 059a 63685F73 		.ascii	"ch_system\000"
 2885      79737465 
 2885      6D00
 2886              	.LASF64:
 2887 05a4 63685F76 		.ascii	"ch_virtual_timer\000"
 2887      69727475 
 2887      616C5F74 
 2887      696D6572 
 2887      00
 2888              	.LASF143:
 2889 05b5 63685F73 		.ascii	"ch_semaphore\000"
 2889      656D6170 
 2889      686F7265 
 2889      00
 2890              	.LASF43:
 2891 05c2 705F6570 		.ascii	"p_epending\000"
 2891      656E6469 
 2891      6E6700
 2892              	.LASF92:
 2893 05cd 4C535543 		.ascii	"LSUCNT\000"
 2893      4E5400
 2894              	.LASF15:
 2895 05d4 75696E74 		.ascii	"uint32_t\000"
 2895      33325F74 
 2895      00
 2896              	.LASF141:
 2897 05dd 77746D74 		.ascii	"wtmtxp\000"
 2897      787000
 2898              	.LASF56:
 2899 05e4 725F7175 		.ascii	"r_queue\000"
 2899      65756500 
 2900              	.LASF67:
 2901 05ec 76745F64 		.ascii	"vt_delta\000"
 2901      656C7461 
 2901      00
 2902              	.LASF51:
 2903 05f5 63685F74 		.ascii	"ch_threads_list\000"
 2903      68726561 
 2903      64735F6C 
 2903      69737400 
 2904              	.LASF9:
 2905 0605 6C6F6E67 		.ascii	"long unsigned int\000"
 2905      20756E73 
 2905      69676E65 
 2905      6420696E 
 2905      7400
 2906              	.LASF150:
ARM GAS  /tmp/ccTqNS2e.s 			page 87


 2907 0617 63686172 		.ascii	"char\000"
 2907      00
 2908              	.LASF28:
 2909 061c 74687265 		.ascii	"thread_t\000"
 2909      61645F74 
 2909      00
 2910              	.LASF163:
 2911 0625 706F7274 		.ascii	"port_rt_get_counter_value\000"
 2911      5F72745F 
 2911      6765745F 
 2911      636F756E 
 2911      7465725F 
 2912              	.LASF149:
 2913 063f 6D5F6E65 		.ascii	"m_next\000"
 2913      787400
 2914              	.LASF27:
 2915 0646 73797374 		.ascii	"systime_t\000"
 2915      696D655F 
 2915      7400
 2916              	.LASF45:
 2917 0650 705F7265 		.ascii	"p_realprio\000"
 2917      616C7072 
 2917      696F00
 2918              	.LASF62:
 2919 065b 76746675 		.ascii	"vtfunc_t\000"
 2919      6E635F74 
 2919      00
 2920              	.LASF8:
 2921 0664 5F5F7569 		.ascii	"__uint32_t\000"
 2921      6E743332 
 2921      5F7400
 2922              	.LASF75:
 2923 066f 70616E69 		.ascii	"panic_msg\000"
 2923      635F6D73 
 2923      6700
 2924              	.LASF124:
 2925 0679 6F666673 		.ascii	"offset\000"
 2925      657400
 2926              	.LASF113:
 2927 0680 636F6E74 		.ascii	"context\000"
 2927      65787400 
 2928              	.LASF110:
 2929 0688 4457545F 		.ascii	"DWT_Type\000"
 2929      54797065 
 2929      00
 2930              	.LASF17:
 2931 0691 7274636E 		.ascii	"rtcnt_t\000"
 2931      745F7400 
 2932              	.LASF87:
 2933 0699 4354524C 		.ascii	"CTRL\000"
 2933      00
 2934              	.LASF69:
 2935 069e 76745F70 		.ascii	"vt_par\000"
 2935      617200
 2936              	.LASF95:
 2937 06a5 434F4D50 		.ascii	"COMP0\000"
 2937      3000
ARM GAS  /tmp/ccTqNS2e.s 			page 88


 2938              	.LASF52:
 2939 06ab 74687265 		.ascii	"threads_queue_t\000"
 2939      6164735F 
 2939      71756575 
 2939      655F7400 
 2940              	.LASF146:
 2941 06bb 63685F6D 		.ascii	"ch_mutex\000"
 2941      75746578 
 2941      00
 2942              	.LASF39:
 2943 06c4 705F7265 		.ascii	"p_refs\000"
 2943      667300
 2944              	.LASF76:
 2945 06cb 6973725F 		.ascii	"isr_cnt\000"
 2945      636E7400 
 2946              	.LASF81:
 2947 06d3 726C6973 		.ascii	"rlist\000"
 2947      7400
 2948              	.LASF13:
 2949 06d9 75696E74 		.ascii	"uint8_t\000"
 2949      385F7400 
 2950              	.LASF93:
 2951 06e1 464F4C44 		.ascii	"FOLDCNT\000"
 2951      434E5400 
 2952              	.LASF138:
 2953 06e9 77746F62 		.ascii	"wtobjp\000"
 2953      6A7000
 2954              	.LASF35:
 2955 06f0 705F6E61 		.ascii	"p_name\000"
 2955      6D6500
 2956              	.LASF49:
 2957 06f7 74687265 		.ascii	"threads_list_t\000"
 2957      6164735F 
 2957      6C697374 
 2957      5F7400
 2958              	.LASF78:
 2959 0706 74726163 		.ascii	"trace_buffer\000"
 2959      655F6275 
 2959      66666572 
 2959      00
 2960              	.LASF42:
 2961 0713 705F6D73 		.ascii	"p_msg\000"
 2961      6700
 2962              	.LASF133:
 2963 0719 6D5F6372 		.ascii	"m_crit_thd\000"
 2963      69745F74 
 2963      686400
 2964              	.LASF148:
 2965 0724 6D5F6F77 		.ascii	"m_owner\000"
 2965      6E657200 
 2966              	.LASF117:
 2967 072c 73655F77 		.ascii	"se_wtobjp\000"
 2967      746F626A 
 2967      7000
 2968              	.LASF68:
 2969 0736 76745F66 		.ascii	"vt_func\000"
 2969      756E6300 
ARM GAS  /tmp/ccTqNS2e.s 			page 89


 2970              	.LASF152:
 2971 073e 5F746D5F 		.ascii	"_tm_init\000"
 2971      696E6974 
 2971      00
 2972              		.comm	__gnu_lto_v1,1,1
 2973              		.ident	"GCC: (4.8.2-14ubuntu1+6) 4.8.2"
ARM GAS  /tmp/ccTqNS2e.s 			page 90


DEFINED SYMBOLS
                            *ABS*:0000000000000000 chtm.c
     /tmp/ccTqNS2e.s:509    .text.port_rt_get_counter_value:0000000000000000 $t
     /tmp/ccTqNS2e.s:514    .text.port_rt_get_counter_value:0000000000000000 port_rt_get_counter_value
     /tmp/ccTqNS2e.s:533    .text.tm_stop:0000000000000000 $t
     /tmp/ccTqNS2e.s:538    .text.tm_stop:0000000000000000 tm_stop
     /tmp/ccTqNS2e.s:611    .text._tm_init:0000000000000000 $t
     /tmp/ccTqNS2e.s:617    .text._tm_init:0000000000000000 _tm_init
     /tmp/ccTqNS2e.s:664    .text.chTMObjectInit:0000000000000000 chTMObjectInit
     /tmp/ccTqNS2e.s:709    .text.chTMStartMeasurementX:0000000000000000 chTMStartMeasurementX
     /tmp/ccTqNS2e.s:740    .text.chTMStopMeasurementX:0000000000000000 chTMStopMeasurementX
     /tmp/ccTqNS2e.s:658    .text.chTMObjectInit:0000000000000000 $t
     /tmp/ccTqNS2e.s:703    .text.chTMStartMeasurementX:0000000000000000 $t
     /tmp/ccTqNS2e.s:734    .text.chTMStopMeasurementX:0000000000000000 $t
     /tmp/ccTqNS2e.s:770    .text.chTMChainMeasurementToX:0000000000000000 $t
     /tmp/ccTqNS2e.s:776    .text.chTMChainMeasurementToX:0000000000000000 chTMChainMeasurementToX
                            *COM*:0000000000000001 __gnu_lto_v1
                     .debug_frame:0000000000000010 $d

UNDEFINED SYMBOLS
ch
