ARM GAS  /tmp/ccUrJHvI.s 			page 1


   1              		.syntax unified
   2              		.cpu cortex-m4
   3              		.fpu softvfp
   4              		.eabi_attribute 20, 1
   5              		.eabi_attribute 21, 1
   6              		.eabi_attribute 23, 3
   7              		.eabi_attribute 24, 1
   8              		.eabi_attribute 25, 1
   9              		.eabi_attribute 26, 1
  10              		.eabi_attribute 30, 6
  11              		.eabi_attribute 34, 1
  12              		.eabi_attribute 18, 4
  13              		.thumb
  14              		.file	"chvt.c"
  15              		.text
  16              	.Ltext0:
  17              		.section	.gnu.lto_.inline.5b91003db41261b9,"",%progbits
  18 0000 789C6362 		.ascii	"x\234cb`b\300\006~BiN\006\006\026f\006\006&\226\017"
  18      6062C006 
  18      7E42694E 
  18      06061666 
  18      06062696 
  19 0015 7A0C2C10 		.ascii	"z\014,\020\265\214\014\254\274@\021\246\005\3620\021"
  19      B58C0CAC 
  19      BC4011A6 
  19      05F23011 
  20 0025 266E1081 		.ascii	"&n\020\201]\230\031\2730\013vaV\006\026\036TaF. \301"
  20      5D9819BB 
  20      300B7661 
  20      5606161E 
  20      5461462E 
  21 003b C6C0CE06 		.ascii	"\306\300\316\006\024\346z\020\013\023\346`\260}\011"
  21      14E67A10 
  21      0B13E660 
  21      B07D09
  22 004a D294F261 		.ascii	"\322\224\362a\016\033\2523P\011\260v.\206\203\014\337"
  22      0E1BAA33 
  22      5009B076 
  22      2E86830C 
  22      DF
  23 005b 4022590F 		.ascii	"@\"Y\017NcQ\015V\203\306e\000\000\300\333\017\306"
  23      4E63510D 
  23      5683C665 
  23      0000C0DB 
  23      0FC6
  24              		.text
  25              		.section	.gnu.lto_st_lld_get_counter.5b91003db41261b9,"",%progbits
  26 0000 789C6362 		.ascii	"x\234cb`b@\007\322@l\314\310\300`\003\342\26000\002"
  26      60624007 
  26      D2406CCC 
  26      C8C06003 
  26      E2B03030 
  27 0015 55303231 		.ascii	"U0212\003IfF\2400\003#C=\0233c}$\210\315\300\244\304"
  27      32034966 
  27      46A03003 
  27      23433D13 
  27      33637D24 
ARM GAS  /tmp/ccUrJHvI.s 			page 2


  28 002e B0B0A161 		.ascii	"\260\260\241a\326\203\245\313gJv-h\232\320\360\357\377"
  28      D683A5CB 
  28      674A762D 
  28      689AD0F0 
  28      EFFF
  29 0040 7FC64C90 		.ascii	"\177\306L\220T2#C\004\220\305\250\000\246\230XP-\001"
  29      54322343 
  29      0490C5A8 
  29      00A69858 
  29      502D01
  30 0053 6B9BD430 		.ascii	"k\233\3240\371i\300\211\206\226\003\377\377\333g\202"
  30      F969C089 
  30      869603FF 
  30      FFDB6782 
  31 0063 6CC0AF67 		.ascii	"l\300\257g=\323\201\007\377\377\357\271\274\342\361"
  31      3DD38107 
  31      FFFFEFB9 
  31      BCE2F1
  32 0072 3C462166 		.ascii	"<F!fF\006\240\026&\006\260]\014\254\014-\015\015\023"
  32      4606A016 
  32      2606B05D 
  32      0CAC0C2D 
  32      0D0D13
  33 0085 14C02600 		.ascii	"\024\300&\000A\010\230\014\0059\235\371,C\323\216\035"
  33      4108980C 
  33      05399DF9 
  33      2C43D38E 
  33      1D
  34 0096 CB4FB224 		.ascii	"\313O\262$2.fdeHgd\004\031\315\334\000\004 \343\317"
  34      322E6664 
  34      65486764 
  34      0419CDDC 
  34      000420E3 
  35 00ab 321CBA55 		.ascii	"2\034\272U\000\223b\322fX\325\320\322\330`\232\311\310"
  35      009362D2 
  35      6658D5D0 
  35      D2D8609A 
  35      C9C8
  36 00bd 329B6156 		.ascii	"2\233aV#P\315d\240bV\230&\260+\222\030\221\335\024\012"
  36      2350CD64 
  36      A0625698 
  36      26B02B92 
  36      1891DD14 
  37 00d2 12653ECD 		.ascii	"\022e>\315\320\310\301\300\220\002\222\271\310\320x"
  37      D0C8C1C0 
  37      900292B9 
  37      C8D078
  38 00e1 80196E20 		.ascii	"\200\031n DQ\010(\334@l\253\234\314$}\347\214\314\244"
  38      44510828 
  38      DC406CAB 
  38      9CCC247D 
  38      E78CCCA4 
  39 00f5 4CFFE078 		.ascii	"L\377\340xC3=C=\023}\375\374b\375\214\304\034\375\202"
  39      43333D43 
  39      3D137DFD 
  39      FC62FD8C 
  39      C41CFD82 
ARM GAS  /tmp/ccUrJHvI.s 			page 3


  40 0109 FCA29262 		.ascii	"\374\242\222b\375\340\020_c#}\037\037\027\375\020O\337"
  40      FDE0105F 
  40      63237D1F 
  40      1F17FD10 
  40      4FDF
  41 011b 3243FDE2 		.ascii	"2C\375\342\222\370\234\234\024\275\014\006\000\200G"
  41      92F89C9C 
  41      14BD0C06 
  41      008047
  42 012a 55E7     		.ascii	"U\347"
  43              		.text
  44              		.section	.gnu.lto_port_timer_get_time.5b91003db41261b9,"",%progbits
  45 0000 789C6362 		.ascii	"x\234cb`b@\007\322@|\004\210-@\034\026\006F\240\012"
  45      60624007 
  45      D2407C04 
  45      882D401C 
  45      160646A0 
  46 0015 46264666 		.ascii	"F&Ff \311\314\310\010\024bd\250gbf\254\217\004\261\031"
  46      20C9CCC8 
  46      08146264 
  46      A8676266 
  46      AC8F04B1 
  47 002a 18951816 		.ascii	"\030\225\030\02664\314z\360\364\333\014\311\256\005"
  47      3634CC7A 
  47      F0F4DB0C 
  47      C9AE05
  48 0039 4D131AFE 		.ascii	"M\023\032\376\375\377\317\230\011\222Jfd\210\000\262"
  48      FDFFCF98 
  48      09924A66 
  48      648800B2 
  49 0049 1815C014 		.ascii	"\030\025\300\024\023\013\252%\353\231\016<\370\377\177"
  49      130BAA25 
  49      EB990E3C 
  49      F8FF7F
  50 0058 CEEE358F 		.ascii	"\316\3565\217\3570\012212\200\2650\2602\26444LP\000"
  50      EF300A32 
  50      313280B5 
  50      30B032B4 
  50      34344C50 
  51 006d 6B068210 		.ascii	"k\006\202\0200\031\012r\001\363y\206\346\007\267\223"
  51      30190A72 
  51      01F37986 
  51      E607B793 
  52 007d 13191731 		.ascii	"\023\031\0271\2622\24432V3\374j\350h\020\310ddN\006"
  52      B232A433 
  52      325633FC 
  52      6AE86810 
  52      C864644E 
  53 0092 3B8A0168 		.ascii	";\212\001h\002\324\212P\220[\231O34r00\244\200\344."
  53      02D48A50 
  53      905B994F 
  53      33347230 
  53      30A480E4 
  54 00a7 3230C2F5 		.ascii	"20\302\365A\224\204\200\030 \237\233\345d&\351;gd&e"
  54      41948480 
  54      18209F9B 
  54      E56426E9 
ARM GAS  /tmp/ccUrJHvI.s 			page 4


  54      3B676426 
  55 00bc FA07C71B 		.ascii	"\372\007\307\033\232\351\031\352\231\350\353\347\027"
  55      9AE919EA 
  55      99E8EBE7 
  55      17
  56 00c9 EB1795E8 		.ascii	"\353\027\225\350\027\344\027\225\024\353;\006\371:\373"
  56      17E41795 
  56      14EB3B06 
  56      F93AFB
  57 00d8 56E82767 		.ascii	"V\350'g$\347\027\245\306\227d\346\246\026\351e0\000"
  57      24E717A5 
  57      C69764E6 
  57      A616E965 
  57      3000
  58 00ea 00A93D3C 		.ascii	"\000\251=<|"
  58      7C
  59              		.text
  60              		.section	.gnu.lto_chVTGetSystemTimeX.5b91003db41261b9,"",%progbits
  61 0000 789C6362 		.ascii	"x\234cb`b@\007\322@|\004\210\265A\034\026\006F\240\012"
  61      60624007 
  61      D2407C04 
  61      88B5411C 
  61      160646A0 
  62 0015 46264666 		.ascii	"F&Ff \311\314\310\010\024bd\250gbf\254\217\004\261\031"
  62      20C9CCC8 
  62      08146264 
  62      A8676266 
  62      AC8F04B1 
  63 002a 18951816 		.ascii	"\030\225\030\02664\314z\260\364\333L\311\256\005M\023"
  63      3634CC7A 
  63      B0F4DB4C 
  63      C9AE054D 
  63      13
  64 003b 1AFEFDFF 		.ascii	"\032\376\375\377\317\230\011\222Jfd\210\000\262\030"
  64      CF980992 
  64      4A666488 
  64      00B218
  65 004a 15C01413 		.ascii	"\025\300\024\023\013\252%\353\231\016<\370\377\377\314"
  65      0BAA25EB 
  65      990E3CF8 
  65      FFFFCC
  66 0059 CF158F6F 		.ascii	"\317\025\217o3\012312\200\2650\2602\26444LP\000k\006"
  66      330A3331 
  66      3280B530 
  66      B032B434 
  66      344C5000 
  67 006f 82103019 		.ascii	"\202\0200\031\012r\001\363y\206\346\0077\323\023\031"
  67      0A7201F3 
  67      7986E607 
  67      37D31319 
  68 007f 1731B232 		.ascii	"\0271\2622\24432V3\374j\350h\020\310ddN\006;\212\001"
  68      A4333256 
  68      33FC6AE8 
  68      6810C864 
  68      644E063B 
  69 0095 6802D48A 		.ascii	"h\002\324\212P\220[\231O34r00\244\200\344.20\302\365"
  69      50905B99 
ARM GAS  /tmp/ccUrJHvI.s 			page 5


  69      4F333472 
  69      3030A480 
  69      E42E3230 
  70 00ab 41948480 		.ascii	"A\224\204\200\030 \237k\346d&\351;gd&e\372\007\307\033"
  70      18209F6B 
  70      E66426E9 
  70      3B676426 
  70      65FA07C7 
  71 00c0 9AE919EA 		.ascii	"\232\351\031\352\231\350\353\347\027\353\027\225\350"
  71      99E8EBE7 
  71      17EB1795 
  71      E8
  72 00cd 67E625E7 		.ascii	"g\346%\347\224\246\244\352'g\224\225\350e0\000\000\263"
  72      94A6A4EA 
  72      27679495 
  72      E8653000 
  72      00B3
  73 00df 6937E6   		.ascii	"i7\346"
  74              		.text
  75              		.section	.gnu.lto_port_timer_start_alarm.5b91003db41261b9,"",%progbits
  76 0000 789C6362 		.ascii	"x\234cb`b@\007\"@\\\007\304\026 \0163\003#P\005#\023"
  76      60624007 
  76      22405C07 
  76      C416200E 
  76      33032350 
  77 0017 232390C3 		.ascii	"##\220\303\310P\317\304X\037\311\010V\266\236\351\300"
  77      C850CFC4 
  77      581FC908 
  77      56B69EE9 
  77      C0
  78 0028 83FFFFD7 		.ascii	"\203\377\377\327\315;\266w\015\343L&\240\202\\\2608"
  78      CD3BB677 
  78      0DE34C26 
  78      A0825CB0 
  78      38
  79 0039 2B434B43 		.ascii	"+CKC\303\004\005\006\206d07\004L\206\202\014a>\317\320"
  79      C3040506 
  79      86643037 
  79      044C8682 
  79      0C613ECF 
  80 004e F260E663 		.ascii	"\362`\346c\366D\306\205\214\254@\301j\206_\015\035\015"
  80      F644C685 
  80      8CAC40C1 
  80      6A865F0D 
  80      1D0D
  81 0060 02998C40 		.ascii	"\002\231\214@\245\020#\323\031\0313A\314\213\014\215"
  81      A51023D3 
  81      19193341 
  81      CC8B0C8D 
  82 0070 0F6629C3 		.ascii	"\017f)\303\324A@\010H\002\344X\263\234\314$}\347\214"
  82      D4414008 
  82      4802E458 
  82      B39CCC24 
  82      7DE78C
  83 0083 CCA44CFF 		.ascii	"\314\244L\377\340xC3=C=\023}\375\374b\375\242\022\375"
  83      E0784333 
  83      3D433D13 
ARM GAS  /tmp/ccUrJHvI.s 			page 6


  83      7DFDFC62 
  83      FDA212FD 
  84 0097 82FCA292 		.ascii	"\202\374\242\222b}\307 _g\337\012\375\344\214\344\374"
  84      627DC720 
  84      5F67DF0A 
  84      FDE48CE4 
  84      FC
  85 00a8 A2D4F892 		.ascii	"\242\324\370\222\314\334\324\"\275\014\006\000\305\005"
  85      CCDCD422 
  85      BD0C0600 
  85      C505
  86 00b6 2E4A     		.ascii	".J"
  87              		.text
  88              		.section	.gnu.lto_port_timer_set_alarm.5b91003db41261b9,"",%progbits
  89 0000 789C6362 		.ascii	"x\234cb`b@\007\"@\\\007\304\026 \0163\003#P\005#\023"
  89      60624007 
  89      22405C07 
  89      C416200E 
  89      33032350 
  90 0017 232390C3 		.ascii	"##\220\303\310P\317\304X\037\311\010V\266\236\351\300"
  90      C850CFC4 
  90      581FC908 
  90      56B69EE9 
  90      C0
  91 0028 83FFFFD7 		.ascii	"\203\377\377\327\375:\266\247\207q\016\023PA.X\234\225"
  91      FD3AB6A7 
  91      87710E13 
  91      50412E58 
  91      9C95
  92 003a A1A5A161 		.ascii	"\241\245\241a\202\002\003C2\230\033\002&CA\2060\237"
  92      82020343 
  92      32981B02 
  92      26434186 
  92      309F
  93 004c 676879B0 		.ascii	"ghy\260\1771{\"\343BFV\240`5\303\257\206\216\006\201"
  93      7F317B22 
  93      E3424656 
  93      A06035C3 
  93      AF868E06 
  94 0061 4C46A052 		.ascii	"LF\240R\210\221\351\214\214\231 \346E\206\306\007'\224"
  94      8891E98C 
  94      8C9920E6 
  94      4586C607 
  94      2794
  95 0073 61EA2020 		.ascii	"a\352  \004$\001r\254YNf\222\276sFfR\246\177p\274\241"
  95      04240172 
  95      AC594E66 
  95      92BE7346 
  95      6652A67F 
  96 008a 999EA19E 		.ascii	"\231\236\241\236\211\276~~\261~Q\211~A~QI\261\276c\220"
  96      89BE7E7E 
  96      B17E5189 
  96      7E417E51 
  96      49B1BE63 
  97 009f AFB36F85 		.ascii	"\257\263o\205~rFr~Qj|Ifnj\221^\006\003\000\360^.\234"
  97      7E724672 
  97      7E516A7C 
ARM GAS  /tmp/ccUrJHvI.s 			page 7


  97      49666E6A 
  97      915E0603 
  98              		.text
  99              		.section	.gnu.lto_port_timer_stop_alarm.5b91003db41261b9,"",%progbits
 100 0000 789C6362 		.ascii	"x\234cb`b@\007\"@\\\006\304\026 \0163\003#P\005#\023"
 100      60624007 
 100      22405C06 
 100      C416200E 
 100      33032350 
 101 0017 232390C3 		.ascii	"##\220\303\310P\317\304X\037\311\010V\266\236\351\300"
 101      C850CFC4 
 101      581FC908 
 101      56B69EE9 
 101      C0
 102 0028 83FFFFD7 		.ascii	"\203\377\377\327]j\333r\206q\026\023H\214\225\241\245"
 102      5D6ADB72 
 102      86711613 
 102      488C95A1 
 102      A5
 103 0039 A1618202 		.ascii	"\241a\202\002\003C2XE\010\230\014\005\351g>\317\320"
 103      03433258 
 103      4508980C 
 103      05E9673E 
 103      CFD0
 104 004b FC60F561 		.ascii	"\374`\365a\366D\306\205\214\254@\301j\206_\015\035\015"
 104      F644C685 
 104      8CAC40C1 
 104      6A865F0D 
 104      1D0D
 105 005d 02998C40 		.ascii	"\002\231\214@\245\020\3232A\364E\206\306\007k\224a\212"
 105      A510D332 
 105      41F44586 
 105      C6076B94 
 105      618A
 106 006f 20200424 		.ascii	"  \004$\001r\244YNf\222\276sFfR\246\177p\274\241\231"
 106      0172A459 
 106      4E6692BE 
 106      73466652 
 106      A67F70BC 
 107 0085 9EA19E89 		.ascii	"\236\241\236\211\276~~\261~Q\211~A~QI\261\276c\220\257"
 107      BE7E7EB1 
 107      7E51897E 
 107      417E5149 
 107      B1BE6390 
 108 009a B36F857E 		.ascii	"\263o\205~rFr~Qj|Ifnj\221^\006\003\000\340\313-w"
 108      7246727E 
 108      516A7C49 
 108      666E6A91 
 108      5E060300 
 109              		.text
 110              		.section	.gnu.lto__vt_init.5b91003db41261b9,"",%progbits
 111 0000 789C6362 		.ascii	"x\234cb`b@\007\"@,\012\024V\007q\230\031\030\201LF&"
 111      60624007 
 111      22402C0A 
 111      14560771 
 111      98191881 
 112 0017 46462087 		.ascii	"FF \207\221\241\236\211\261>\222\021\254l=\323\201\007"
ARM GAS  /tmp/ccUrJHvI.s 			page 8


 112      91A19E89 
 112      B13E9211 
 112      AC6C3DD3 
 112      8107
 113 0029 FFFFAFFB 		.ascii	"\377\377\257\373\265\365a?\243 H\210\225\241\245\241"
 113      B5F5613F 
 113      A3204888 
 113      95A1A5A1 
 114 0039 61820203 		.ascii	"a\202\002\003C2XA\010\230\014\005ig>\313\320\364\253"
 114      43325841 
 114      08980C05 
 114      69673ECB 
 114      D0F4AB
 115 004c F9FF6BA6 		.ascii	"\371\377k\246D\306\205\214\254\014\332\014\253\032\200"
 115      44C6858C 
 115      AC0CDA0C 
 115      AB1A80
 116 005b C0329311 		.ascii	"\3002\223\021\306\344\316dd\234\3150\253\261\241A \223"
 116      C6E4CE64 
 116      649CCD30 
 116      ABB1A141 
 116      2093
 117 006d 91A99AE1 		.ascii	"\221\251\232\341WC\007\210\305\234\0136#\202\021\310"
 117      57430788 
 117      C59C0B36 
 117      238211C8 
 118 007d 04DB9904 		.ascii	"\004\333\231\004\261\032HC\030\020\225\015[\201\012"
 118      B11A4843 
 118      1810950D 
 118      5B810A
 119 008c 58A046ED 		.ascii	"X\240F\355\006\262\031\201\372`J\301\000l\377\342\036"
 119      06B21981 
 119      FA604AC1 
 119      006CFFE2 
 119      1E
 120 009d 5DEAD9CF 		.ascii	"]\352\331\317D\252\375;v<\372\200\341\177V\262\355\207"
 120      44AAFD3B 
 120      763CFA80 
 120      E17F56B2 
 120      ED87
 121 00af F041326C 		.ascii	"\360A2l\377\201\200\037f\311\343\023\314\324\263\204"
 121      FF81801F 
 121      66C9E313 
 121      CCD4B384 
 122 00bf 05610988 		.ascii	"\005a\011\210q\221\241\361A\2772\304x\030\010\001\305"
 122      7191A1F1 
 122      41BF32C4 
 122      78180801 
 122      C5
 123 00d0 04283054 		.ascii	"\004(0Ts2\223\364\23532\2232\375\203\343\015\315\364"
 123      733293F4 
 123      9D333293 
 123      32FD83E3 
 123      0DCDF4
 124 00e3 0CF54CF4 		.ascii	"\014\365L\364\365\363\213\365\213J\364\213\213\222\365"
 124      F5F38BF5 
 124      8B4AF48B 
ARM GAS  /tmp/ccUrJHvI.s 			page 9


 124      8B92F5
 125 00f2 9333CA4A 		.ascii	"\2233\312J\364\222\031\000\337\037\211\210"
 125      F4921900 
 125      DF1F8988 
 126              		.text
 127              		.section	.gnu.lto_chVTDoSetI.5b91003db41261b9,"",%progbits
 128 0000 789CAD56 		.ascii	"x\234\255V]h\034U\024\276gfvg\377\377\222\266\371\253"
 128      5D681C55 
 128      14BE6766 
 128      7667FFFF 
 128      92B6F9AB 
 129 0014 9482605B 		.ascii	"\224\202`[\311\032\242B@\350\203O>\251\330\245\361I"
 129      C91AA242 
 129      40E8834F 
 129      3EA9D8A5 
 129      F149
 130 0026 92AD6C17 		.ascii	"\222\255l\027\222V\332\240\017E:i\002\255\261\232h\323"
 130      9256DAA0 
 130      0F453A69 
 130      02ADB19A 
 130      68D3
 131 0038 929A0AAD 		.ascii	"\222\232\012\255`#\026\032\333 n\036J7 $\331Uj\220b"
 131      6023161A 
 131      DB206E1E 
 131      4A372024 
 131      D9556A90 
 132 004d 52048331 		.ascii	"R\004\20315\005\021C\245M\023\233\365\234\231{gwv\267"
 132      35051143 
 132      A54D139B 
 132      F59C997B 
 132      677776B7 
 133 0061 C966DB0B 		.ascii	"\311f\333\0139wr\347|\337\371\275gVb\022\313_C\370\367"
 133      397772E7 
 133      7CDFF9BD 
 133      67566212 
 133      CB5F43F8 
 134 0076 5280B146 		.ascii	"R\200\261F\372'\304\0005@\002\031\245,\331\031\323$"
 134      FA27C400 
 134      35400219 
 134      A52CD919 
 134      D324
 135 0088 0585A218 		.ascii	"\005\205\242\030\3176z\266\031\317*=\333\0017P%\007"
 135      CF367AB6 
 135      19CF2A3D 
 135      DB013750 
 135      2507
 136 009a 9D38E9C4 		.ascii	"\2358\351\304\001\270\201Sr\321\211\233N\\\020\304\023"
 136      01B88153 
 136      72D1899B 
 136      4E5C10C4 
 136      13
 137 00ab B7E4A113 		.ascii	"\267\344\241\023/\235x\0007\360\202\037\245O\227~\311"
 137      2F9D7800 
 137      37F0821F 
 137      A54F977E 
 137      C9
 138 00bc 476F03F4 		.ascii	"Go\003\3646\240\353\007\001\320!`G%Y\261\331U\207\323"
ARM GAS  /tmp/ccUrJHvI.s 			page 10


 138      36A0EB07 
 138      01D02160 
 138      472559B1 
 138      D95587D3 
 139 00d0 E5F6787D 		.ascii	"\345\366x}\376@\020\216\276IoX\345vvA\323>\235\375r"
 139      FE40108E 
 139      BE496F58 
 139      E5767641 
 139      D33E9DFD 
 140 00e5 65493ADB 		.ascii	"eI:\333\237\354>\257\375\227\311\000\304\351e\024X3"
 140      9FEC3EAF 
 140      FD97C900 
 140      C4E96514 
 140      5833
 141 00f7 3EC1367D 		.ascii	">\3016}\243\020r\227\001L\236J\015U\367\234?\326\247"
 141      A3107297 
 141      014C9E4A 
 141      0D55F79C 
 141      3FD6A7
 142 010a AD222E4E 		.ascii	"\255\".N!\227\002\323V\376xmB\353Nf2\273K\306$\257\244"
 142      219702D3 
 142      56FE786D 
 142      42EB4E66 
 142      32BB4BC6 
 143 0121 FACB3175 		.ascii	"\372\3131uv~\343\246Fz>\3175Ub2\264\323e\230\032M],"
 143      767EE3A6 
 143      467A3ECF 
 143      35556232 
 143      B4D36598 
 144 0139 27AAFB65 		.ascii	"'\252\373e$p1\325[\206\251\344o\251\217\312\201=L\235"
 144      247031D5 
 144      5B86A9E4 
 144      6FA98FCA 
 144      813D4C9D 
 145 014d 2927870F 		.ascii	")'\207\017s\002+\021\223\314\364\244/\000b;\377\311"
 145      73022B11 
 145      93CCF4A4 
 145      2F00623B 
 145      FFC9
 146 015f 64FCA5C3 		.ascii	"d\374\245\303\006\323\345\344C\273\372\225\346\324\357"
 146      06D3E5E4 
 146      43BBFA95 
 146      E6D4EF
 147 016e 895C7A32 		.ascii	"\211\\z2N\035?S\255\345$Cb\317@i\310\323\343\037\347"
 147      4E1D3F53 
 147      ADE52443 
 147      62CF4069 
 147      C8D3E31F 
 148 0183 221589ED 		.ascii	"\"\025\211\355\\\017\331\016fs\215\367\346\201\237["
 148      5C0FD90E 
 148      66738DF7 
 148      E6819F5B 
 149 0193 0F3C2C25 		.ascii	"\017<,%g3\231\223\243\377\376~\003BO\001\222\3414k\201"
 149      67339993 
 149      A3FFFE7E 
 149      03424F01 
 149      92E1346B 
ARM GAS  /tmp/ccUrJHvI.s 			page 11


 150 01a8 2BB09DC9 		.ascii	"+\260\235\311\270\217\340\256@;H6\024\262\035\005\250"
 150      B88FE0AE 
 150      403B4836 
 150      14B21D05 
 150      A8
 151 01b9 281407BE 		.ascii	"(\024\007\276\373\026\3379\011\340b\030\242\033\205"
 151      FB16DF39 
 151      09E06218 
 151      A21B85
 152 01c8 EC21E125 		.ascii	"\354!\341%\341#\341\347\014\001R\010\322I\210D\005\211"
 152      E123E1E7 
 152      0C015208 
 152      D2498844 
 152      0589
 153 01da 4A6E6513 		.ascii	"Jne\023\375\263\231\304\026\256]\305\337T\023\252\206"
 153      FDB399C4 
 153      16AE5DC5 
 153      DF5413AA 
 153      86
 154 01eb 442D893A 		.ascii	"D-\211:\322\331\312\364\"0\033\353\326\264\276m\206"
 154      D2D9CAF4 
 154      22301BEB 
 154      D6B4BE6D 
 154      86
 155 01fc A2016BE7 		.ascii	"\242\001k\347\215\200k\217.#4\227\345\033\254k\366\207"
 155      8D806B8F 
 155      2E233497 
 155      E51BAC6B 
 155      F687
 156 020e 39570B7C 		.ascii	"9W\013|\0078\211\331\021\266\254\235\320\002q\260E\365"
 156      073889D9 
 156      11B6AC9D 
 156      D00271B0 
 156      45F5
 157 0220 61C990D0 		.ascii	"a\311\220\320n\244\"B\314\362\004\373\376\317\261\301"
 157      6EA42242 
 157      CCF204FB 
 157      FECFB1C1 
 158 0230 71300031 		.ascii	"q0\0001P\232\215n\316\256\010(\\\317T\262\221\222jU"
 158      509A8D6E 
 158      CEAE0828 
 158      5CCF54B2 
 158      91926A55 
 159 0244 B2E52BD9 		.ascii	"\262\345+\331\233\215\256\313U\262\353\036*\005\336"
 159      9B8DAECB 
 159      55B2EB1E 
 159      2A05DE
 160 0253 39A2607C 		.ascii	"9\242`|v\350\244*\016N\214\216+\3051\337\034\215\026"
 160      76E8A42A 
 160      0E4E8C8E 
 160      2BC531DF 
 160      1C8D16
 161 0266 E51FD9B1 		.ascii	"\345\037\331\261\364\322\335%ne\027\373Z\303\345\215"
 161      F4D2DD25 
 161      6E6517FB 
 161      5AC3E58D 
 162 0276 837B907D 		.ascii	"\203{\220}\206\366<\226\010Z\371\036#(!\007\356%\245"
ARM GAS  /tmp/ccUrJHvI.s 			page 12


 162      86F63C96 
 162      085AF91E 
 162      23282107 
 162      EE25A5
 163 0289 7CA45A1C 		.ascii	"|\244Z\034\011\034\211.PN\177\235S\315\"P'0\341\037"
 163      091C892E 
 163      504E7F9D 
 163      53CD2250 
 163      2730E11F 
 164 029d E938CC40 		.ascii	"\3518\314@\274Q\036r\034\360k5\301\272o\217M\035\367"
 164      BC511E72 
 164      1CF06B35 
 164      C1BA6F8F 
 164      4D1DF7
 165 02b0 B4C0F56C 		.ascii	"\264\300\365lJ\224\334\364F\300a\004\225H,/\200\320"
 165      4A94DCF4 
 165      46C06104 
 165      95482C2F 
 165      80D0
 166 02c2 73EAA993 		.ascii	"s\352\251\223L\035\247\241s+\2612\241\012\035\327.\266"
 166      4C1DA7A1 
 166      732BB132 
 166      A10A1DD7 
 166      2EB6
 167 02d4 13BDE571 		.ascii	"\023\275\345q\334D\200\037\003\351\324\310\213\200\351"
 167      DC44801F 
 167      03E9D4C8 
 167      8B80E9
 168 02e3 4FB05DF7 		.ascii	"O\260]\367\221\370\202<0\211\357\2424T\264\316\006\223"
 168      91F8823C 
 168      3089EFA2 
 168      3454B4CE 
 168      0693
 169 02f5 D6806A8D 		.ascii	"\326\200j\215q\010q\356&\244F\032\201\314Y3\0140(\025"
 169      710871EE 
 169      26A4461A 
 169      81CC5933 
 169      0C302815 
 170 0309 85D371EE 		.ascii	"\205\323q\356Z\007\271\3522\\\235L\254.\310\006'gy\035"
 170      5A07B9EA 
 170      325C9D4C 
 170      AC2EC806 
 170      2767791D 
 171 031d 23E78F8D 		.ascii	"#\347\217\215\033\366U\341\305p\030e\234^\235( ge\223"
 171      1BF655E1 
 171      C5701865 
 171      9C5E9D28 
 171      20676593 
 172 0331 CB9C5C31 		.ascii	"\313\234\\1\310\227\236(\271\315B\276\334u\267\367Y"
 172      C8979E28 
 172      B9CD42BE 
 172      DC75B7F7 
 172      59
 173 0342 0BF90B48 		.ascii	"\013\371\013H^\274\001\355\346\205\300r\214@\266\036"
 173      5EBC01ED 
 173      E685C072 
 173      8C40B61E 
ARM GAS  /tmp/ccUrJHvI.s 			page 13


 174 0352 A350A420 		.ascii	"\243P\244 :\371\375\222\311\325\215\222\247\2473\013"
 174      3AF9FD92 
 174      C9D58D92 
 174      A7A7330B 
 175 0362 523EB952 		.ascii	"R>\271R\234\334\301c\006\035y+\361\305\003E\264\227"
 175      9CDCC163 
 175      061D792B 
 175      F1C50345 
 175      B497
 176 0374 5BEF5AD1 		.ascii	"[\357Z\321\010\237l\274k\025\323\245\256\023]\367\314"
 176      089F6CBC 
 176      6B15D3A5 
 176      AE135DF7 
 176      CC
 177 0385 1B832EB8 		.ascii	"\033\203.\270u\203\372t\271n\235.\025Q\263\201<q\250"
 177      7583FA74 
 177      B96E9D2E 
 177      1551B381 
 177      3C71A8
 178 0398 14B7CAAD 		.ascii	"\024\267\312\255\267*\322\314\365\357\020<^\3541\323"
 178      B72AD2CC 
 178      F5EF103C 
 178      5EEC31D3 
 179 03a8 F1BE0A71 		.ascii	"\361\276\012q\354\263\270}\344q\274\376\240\353\200"
 179      ECB3B87D 
 179      E471BCFE 
 179      A0EB80
 180 03b7 60F5EBF6 		.ascii	"`\365\353\366|<K\027\247d\361\"`\271\333{\313\276\332"
 180      7C3C4B17 
 180      A764F122 
 180      60B9DB7B 
 180      CBBEDA
 181 03ca C4FB5348 		.ascii	"\304\373SH\260\006\215 \314\232\005\012k\246O\203\333"
 181      B0068D20 
 181      CC9A050A 
 181      6BA64F83 
 181      DB
 182 03db D969108C 		.ascii	"\331i\020\214\321Oo\261\"\340\341\203h`\350\216Y\322"
 182      D14F6FB1 
 182      22E0E183 
 182      6860E88E 
 182      59D2
 183 03ed 902537EF 		.ascii	"\220%7\357?^E\3776+Z\201\314\272\365GTT\\\254\212\234"
 183      3F5E45FF 
 183      362B5A81 
 183      CCBAF547 
 183      54545CAC 
 184 0403 8A7AB97B 		.ascii	"\212z\271{\323\227v\210\257P\345\223\233\020\302\212"
 184      D3977688 
 184      AF50E593 
 184      9B10C28A 
 185 0413 4F24E1F2 		.ascii	"O$\341\362\003\363c\2679/\267R\261\334\212\352\033\220"
 185      03F363B7 
 185      392FB752 
 185      B1DC8AEA 
 185      1B90
 186 0425 2D319011 		.ascii	"-1\220\021\310\253\177\271I\234W\025\273\274R\341d\020"
ARM GAS  /tmp/ccUrJHvI.s 			page 14


 186      C8AB7FB9 
 186      499C5715 
 186      BBBC52E1 
 186      6410
 187 0437 EEF8B93B 		.ascii	"\356\370\271;K\227fLw6\225\342\016\226z\276\263\321"
 187      4B97664C 
 187      773695E2 
 187      0E967ABE 
 187      B3D1
 188 0449 84C4B261 		.ascii	"\204\304\262a\3160\0113\347\375\353f%\272\343;\367K"
 188      CE300933 
 188      E7FDEB66 
 188      25BAE33B 
 188      F74B
 189 045b DD0C4357 		.ascii	"\335\014CW\375\336\223?\267\241\337\276\356\275d7 &"
 189      FDDE933F 
 189      B7A1DFBE 
 189      EEBD6437 
 189      2026
 190 046d FDF058C1 		.ascii	"\375\360X\3017u\315\221\026\243\274\352e\032\276#\011"
 190      3775CD91 
 190      16A3BCEA 
 190      651ABE23 
 190      09
 191 047e F3D546CB 		.ascii	"\363\325F\313\257\205\343\375\354\027\220\232<Hu\341"
 191      AF85E3FD 
 191      EC17909A 
 191      3C4875E1 
 192 048e 80D32193 		.ascii	"\200\323!\223}\256\022\375S\271\1775\206\251\205a3\241"
 192      7DAE12FD 
 192      53B97F35 
 192      86A98561 
 192      33A1
 193 04a0 B56BB997 		.ascii	"\265k\271\227c+\375\215\317bkw.\250\266X.\370Wg\340"
 193      632BFD8D 
 193      CF626B77 
 193      2EA8B658 
 193      2EF85767 
 194 04b5 EAA2F537 		.ascii	"\352\242\3657\215\363\221\345W-\310\311\304\325\311"
 194      8DF391E5 
 194      572DC8C9 
 194      C4D5C9
 195 04c4 82FCAF33 		.ascii	"\202\374\2573\230e\336t#\331\006\2563\300\201\222\232"
 195      9865DE74 
 195      23D906AE 
 195      33C08192 
 195      9A
 196 04d5 5816A8AD 		.ascii	"X\026\250\255\010\024t\257\344:\261\036\017BuPbzd\321"
 196      081474AF 
 196      E43AB11E 
 196      0F427550 
 196      627A64D1 
 197 04e9 EA7D5376 		.ascii	"\352}Sv\226\2707|Q\235\372\256\377z\312\340\022\263"
 197      96B8377C 
 197      519DFAAE 
 197      FF7ACAE0 
 197      12B3
ARM GAS  /tmp/ccUrJHvI.s 			page 15


 198 04fb 2B428A72 		.ascii	"+B\212r\232u\242\361}\224\371)\3269\373\341<\210\271"
 198      9A75A2F1 
 198      7D94F929 
 198      D639FBE1 
 198      3C88B9
 199 050e 62AC3D34 		.ascii	"b\254=4\367\211\351\351\266xk\370\345\375\361\326\370"
 199      F789E9E9 
 199      B6786BF8 
 199      E5FDF1D6 
 199      F8
 200 051f AB6FBCD5 		.ascii	"\253o\274\325\360b}C\375\363\341\360\301\303\341C\035"
 200      F0627D43 
 200      FDF3E1F0 
 200      C1C3E143 
 200      1D
 201 0530 E1C387A2 		.ascii	"\341\303\207\242\341\350\376w;\352\243\014\336\261\355"
 201      E1E8FE77 
 201      3BEAA30C 
 201      DEB1ED
 202 053f 7BBBADA3 		.ascii	"{\273\255\243E>p\360\275\377\001\365T\222\302"
 202      453E70F0 
 202      BDFF01F5 
 202      5492C2
 203              		.text
 204              		.section	.gnu.lto_chVTDoResetI.5b91003db41261b9,"",%progbits
 205 0000 789CBD58 		.ascii	"x\234\275X]h\034U\024\276g~\366\377\177\323\3747M#\202"
 205      5D681C55 
 205      14BE677E 
 205      F6FF7FD3 
 205      FC374D23 
 206 0015 2864096A 		.ascii	"(d\011j\241\370\340\203O>)4\013\255>H\263\321\355Bb"
 206      A1F8E083 
 206      4F3E2934 
 206      0BAD3E48 
 206      B3D1ED42 
 207 002a 218DFAE0 		.ascii	"!\215\372\340C'M\300Vt\023E\2545\376TP(\"X\0241\245"
 207      43274DC0 
 207      56741345 
 207      AC35FE54 
 207      50282258 
 208 0041 B46C4AC1 		.ascii	"\264lJ\301\226b\352\342\203\246\2664\221&\201Vj\325"
 208      9662EAE2 
 208      83A6B634 
 208      91268156 
 208      6AD5
 209 0053 1793DA8C 		.ascii	"\027\223\332\214\347\334\231\271\263\223\335&\223I\351"
 209      E7DC99B9 
 209      B393DD26 
 209      9349E9
 210 0062 40CECC9E 		.ascii	"@\316\314\236\271\3379\337\371\233{\211\304$\266\362"
 210      B9DF39DF 
 210      F99B7B89 
 210      C424B6F2 
 211 0072 FA0EFF5A 		.ascii	"\372\016\377Z\322\214m\243\037u\014p\005H \243\224%"
 211      D28C6DA3 
 211      1F750C70 
 211      054820A3 
ARM GAS  /tmp/ccUrJHvI.s 			page 16


 211      9425
 212 0084 85314D52 		.ascii	"\2051MRQ(\012\340\015T\360\241\364I~\322\007H\357\007"
 212      51280AE0 
 212      0D54F0A1 
 212      F4497ED2 
 212      0748EF07 
 213 0098 BC41400A 		.ascii	"\274A@\012\222&B\232\240\024\242\3470=\207\000o\020"
 213      9226429A 
 213      A014A2E7 
 213      303D8700 
 213      6F10
 214 00aa 06340F11 		.ascii	"\0064\017\021)J\372\030\351\243\\\023\223\342\244I\220"
 214      294AFA18 
 214      E9A35C13 
 214      93E2A449 
 214      90
 215 00bb 26CE3509 		.ascii	"&\3165\011)I\232\024i\222\2007Hq}\032\000\311\001\333"
 215      29499A14 
 215      69928037 
 215      48717D1A 
 215      00C901DB 
 216 00cf 2FC98AEA 		.ascii	"/\311\212\352\363\007\202\241p$\032\213'\222\2514\354"
 216      F30782A1 
 216      70241A8B 
 216      2792A934 
 216      EC
 217 00e0 DF45EF58 		.ascii	"\337E\357X{\007\373L\323\336\235\371\342\344\221\246"
 217      7B07FB4C 
 217      D3DE9DF9 
 217      E2E491A6 
 218 00f0 378F1E18 		.ascii	"7\217\036\030\323\226u\035\012\364*\007l'>A;\277QL\225"
 218      D396751D 
 218      0AF42A07 
 218      6C273E41 
 218      3BBF514C 
 219 0105 97012B7D 		.ascii	"\227\001+}[|\257\022&\273\204}_|\313\003L{g\356\331"
 219      5B7CAF12 
 219      26BB847D 
 219      5F7CCB03 
 219      4C7B67EE 
 220 011a 73DA4849 		.ascii	"s\332HI\327\237t\357\352\304\375sU\236:\354%\031?\027"
 220      D79F74EF 
 220      EAC4FD73 
 220      559E3AEC 
 220      25193F17 
 221 012e DFF6C2F0 		.ascii	"\337\366\302\360\233cZ\360\250\366\237\256\313\3561"
 221      9B635AF0 
 221      A8F69FAE 
 221      CBEE31
 222 013d 77AED951 		.ascii	"w\256\331Q).1G\346\326\217\361\340\247t\265\370\261"
 222      292E3147 
 222      E6D68FF1 
 222      E0A774B5 
 222      F8B1
 223 014f 97ECFD55 		.ascii	"\227\354\375U,z\201-N\275\357\005vx\324\2137O\265\322"
 223      2C7A812D 
 223      4EBDEF05 
ARM GAS  /tmp/ccUrJHvI.s 			page 17


 223      7678D48B 
 223      374FB5D2 
 224 0163 3DD46ADC 		.ascii	"=\324j\334C\255<\370)\235\030\375\2742\015n]\235Z?\275"
 224      43AD3CF8 
 224      299D18FD 
 224      BC320D6E 
 224      5D9D5A3F 
 225 0178 5279F413 		.ascii	"Ry\364\023/\031\367\320\265\245\337F\275\364\204\266"
 225      2F19F7D0 
 225      B5A5DF46 
 225      BDF484B6 
 226 0188 E82181B7 		.ascii	"\350!\201\267/\336\257\004jW\327C\257\037,\206\343S"
 226      2FDEAF04 
 226      6A57D743 
 226      AF1F2C86 
 226      E353
 227 019a C526CD66 		.ascii	"\305&\315f\250J\354!p\351\260W\370CT\327Z\250\257\245"
 227      A84AEC21 
 227      70E9B057 
 227      F84354D7 
 227      5AA8AFA5 
 228 01ae D28CAE7F 		.ascii	"\322\214\256\177t\345\332\357:\244\037\000\266\033J"
 228      74E5DAEF 
 228      3AA41F00 
 228      B61B4A
 229 01bd D0C124E8 		.ascii	"\320\301$\350\007\254\000\356D\012\012Y%\341#\341'\021"
 229      07AC00EE 
 229      440A0A59 
 229      25E123E1 
 229      2711
 230 01cf 20112411 		.ascii	" \021$\021\"\021&\021A\241DI\304H\304I\227 \221$\221"
 230      22112611 
 230      41A14449 
 230      C448C449 
 230      97209124 
 231 01e4 22912651 		.ascii	"\"\221&QGo7\221\250'\321@\242\221D\023\272>\215\256"
 231      476F3791 
 231      A827D140 
 231      A2914413 
 231      BA3E8DAE 
 232 01f8 9B69550B 		.ascii	"\233iU\013iZ\351i3=\265\231\264\266\230\367vRn%\321"
 232      695AE969 
 232      333DB599 
 232      B4B698F7 
 232      76526E25 
 233 020d C1785A99 		.ascii	"\301xZ\231\312F4m\254\275\037L+\306:\236o\274\272\271"
 233      CA46346D 
 233      ACBD1F4C 
 233      2BC63A9E 
 233      6FBCBAB9 
 234 0221 CCD22941 		.ascii	"\314\322)A\276\310\206gn\314\205v\303\031:\034\260\327"
 234      BEC88667 
 234      6ECC8576 
 234      C3193A1C 
 234      B0D7
 235 0233 D9927650 		.ascii	"\331\222vPK\024\300\227\343\3335C\203~#5Y\352A\371\034"
 235      4B14C097 
ARM GAS  /tmp/ccUrJHvI.s 			page 18


 235      E3DB3543 
 235      837E2335 
 235      59EA41F9 
 236 0248 3BBB3039 		.ascii	";\27309}\001\014@\036\244\235Fs\332W\226\030\240]\245"
 236      7D010C40 
 236      1EA49D46 
 236      73DA5796 
 236      18A05DA5 
 237 025c CA662007 		.ascii	"\312f \007\306\321\2054\215\005\010r~|Q\001B\006\272"
 237      C6D18534 
 237      8D050872 
 237      7E7C5101 
 237      4206BA
 238 026f 9B7EC959 		.ascii	"\233~\311Y:\243\310?\262\003\227\216\235\024\256\344"
 238      3AA3C83F 
 238      B203978E 
 238      9D14AEE4 
 239 027f 47D8C305 		.ascii	"G\330\303\005\010\217\263\017\321e\304\341\272\007,"
 239      088FB30F 
 239      D165C4E1 
 239      BA072C
 240 028e EFC4CF46 		.ascii	"\357\304\317F\320\212\260\223\234\177\003\344\262tP"
 240      D08AB093 
 240      9C7F03E4 
 240      B27450
 241 029d E2B426E6 		.ascii	"\342\264&\346'%\313\213\302y!\273/5\274\036-@\024)\016"
 241      2725CB8B 
 241      C27921BB 
 241      2F35BC1E 
 241      2D401429 
 242 02b2 69643426 		.ascii	"id4&\314\307\373\271y\"\0247)\203y\227\004\365\221?"
 242      CCC7FBB9 
 242      79221437 
 242      29837997 
 242      04F5913F 
 243 02c6 86A2C26A 		.ascii	"\206\242\302j\036\244J\336A\323\363\277\363\223\">\325"
 243      1EA44ADE 
 243      41D3F3BF 
 243      F393223E 
 243      D5
 244 02d7 F05C3B23 		.ascii	"\360\\;#VQ\0104\226\262 \276\325 \212\0159\177+f@\314"
 244      56510834 
 244      96B220BE 
 244      D5208A0D 
 244      397F2B66 
 245 02ed B0765482 		.ascii	"\260vT\202\324jP\236*F\256>X\260\371\371]:\253\340\027"
 245      D46A509E 
 245      2A46AE3E 
 245      58B0F9F9 
 245      5D3AABE0 
 246 0302 7019D2AA 		.ascii	"p\031\322\252\374\374\325\240<\225\016q\023\023\013"
 246      FCFCD5A0 
 246      3C950E71 
 246      13130B
 247 0311 65C981EC 		.ascii	"e\311\201\354Z\243\247D\017\361\350\256O\373,\252A7"
 247      5AA3A744 
 247      0FF1E8AE 
ARM GAS  /tmp/ccUrJHvI.s 			page 19


 247      4FFB2CAA 
 247      4137
 248 0323 D1F1A276 		.ascii	"\321\361\242v\011\210\321\017\324$\011\323\375v\354"
 248      0988D10F 
 248      D42409D3 
 248      FD76EC
 249 0332 17EC0DAB 		.ascii	"\027\354\015\253\035\034W\226\032\317\350\267\353e\221"
 249      1D1C5796 
 249      1ACFE8B7 
 249      EB6591
 250 0341 D590CBAC 		.ascii	"\325\220\313\254>g\001\302n\313\360S\334\202D\014v\330"
 250      3E6701C2 
 250      6ECBF053 
 250      DC82440C 
 250      76D8
 251 0353 B8AA8085 		.ascii	"\270\252\200\205+aje\365\322\026,\312=\251\265=\331"
 251      2B616A65 
 251      F5D2162C 
 251      CA3DA9B5 
 251      3DD9
 252 0365 90E183C3 		.ascii	"\220\341\203\303K\"\234X\236VF\271\251\247++\343p\036"
 252      4B229C58 
 252      9E5646B9 
 252      A9A72B2B 
 252      E3701E
 253 0378 AAB68450 		.ascii	"\252\266\204P\303`7\325\007\277\031\021kDn\224e\313"
 253      C36037D5 
 253      07BF1911 
 253      6B446E94 
 253      65CB
 254 038a 7ADC6DBF 		.ascii	"z\334m\277\037\017;\272b\273=\321a\217\023\235'=o\232"
 254      1F0F3BBA 
 254      62BB3DD1 
 254      618F139D 
 254      273D6F9A 
 255 039e 9BB322DA 		.ascii	"\233\263\"\332\204\343c\341\3254\267\273$\222hZ\333"
 255      84E363E1 
 255      D534B7BB 
 255      2492685A 
 255      DB
 256 03af 551968A2 		.ascii	"U\031h\242z\006\314\346\373\005\354\356\273\0025\332"
 256      7A06CCE6 
 256      FB05ECEE 
 256      BB0235DA 
 257 03bf 8F8FC9CD 		.ascii	"\217\217\311\315I\347\230D\3275&\177.\2121I:\".\303"
 257      49E79844 
 257      D735267F 
 257      2E8A3149 
 257      3A222EC3 
 258 03d3 06BE8F67 		.ascii	"\006\276\217g\027\354\357c\322\214&n\007\363\370\252"
 258      17ECEF63 
 258      D28C266E 
 258      07F3F8AA 
 259 03e3 A3143577 		.ascii	"\243\0245w\273S?\304j\355vF4\025\273]\314\352\246\277"
 259      BB533FC4 
 259      6AED7646 
 259      3415BB5D 
ARM GAS  /tmp/ccUrJHvI.s 			page 20


 259      CCEAA6BF 
 260 03f7 EDEAA5EE 		.ascii	"\355\352\245\356]\365.\215\371-\253\351{h\365\226\030"
 260      5DF52E8D 
 260      F92DABE9 
 260      7B68F596 
 260      18
 261 0408 E1BA1A53 		.ascii	"\341\272\032S\224\276\333\010\037\027#\274\311\365\010"
 261      94BEDB08 
 261      1F1723BC 
 261      C9F508
 262 0417 2F8BB4D4 		.ascii	"/\213\264\324\2437D\2561\302\251Z#\\\317\030\025\345"
 262      A33744AE 
 262      31C2A95A 
 262      235CCF18 
 262      15E5
 263 0429 F21B6207 		.ascii	"\362\033b\007h\020!'s\346\204\026\350\337\010\374\003"
 263      68102127 
 263      73E68416 
 263      E8DF08FC 
 263      03
 264 043a D560AD6A 		.ascii	"\325`\255j4h\2329\373t\375]\345\263C94<`\231mB\377h"
 264      34689A39 
 264      FB74FD5D 
 264      E5B34339 
 264      343C6099 
 265 0452 DCECE2A5 		.ascii	"\334\354\342\245Y\361\035iv\324\350\371\215U^$\273e"
 265      59F11D69 
 265      76D4E8F9 
 265      8D555E24 
 265      BB65
 266 0464 45B29B6B 		.ascii	"E\262\233k%\033\267\220y\273\357[\220\244\335\326\335"
 266      251BB790 
 266      79BBEF5B 
 266      90A4DDD6 
 266      DD
 267 0475 E4083F7D 		.ascii	"\344\010?}\011k\237\270=+\316%\255\016\312Ol\214\262"
 267      096B9FB8 
 267      3D2BCE25 
 267      AD0ECA4F 
 267      6C8CB2
 268 0488 68ABCD2B 		.ascii	"h\253\315+(\267\336\245?\016\015\277dA\332\020\305Y"
 268      28B7DEA5 
 268      3F0E0DBF 
 268      6441DA10 
 268      C559
 269 049a 532493FF 		.ascii	"S$\223\377\214\212\244\266\021V\255\234\326,$\215H&"
 269      8C8AA4B6 
 269      1156AD9C 
 269      D62C248D 
 269      4826
 270 04ac 7E5D9E16 		.ascii	"~]\236\026\375\265\205\326)\222X\223\262\242\325\317"
 270      FDB585D6 
 270      29925893 
 270      B2A2D5CF 
 271 04bc 2BD69A76 		.ascii	"+\326\232vGC\274\262\221~\300\335I$q+Z\346\334\271\376"
 271      4743BCB2 
 271      917EC0DD 
ARM GAS  /tmp/ccUrJHvI.s 			page 21


 271      4924712B 
 271      5AE6DCB9 
 272 04d1 B4A0D4C1 		.ascii	"\264\240\324\301_\001uo\365Y2\235\023\375\335Q\200:"
 272      5F01756F 
 272      F559329D 
 272      13FDDD51 
 272      803A
 273 04e3 7A9A6680 		.ascii	"z\232f\200\361&.\337\351\305p\222_\351}\024G\032\343"
 273      F1262EDF 
 273      E9C57092 
 273      5FE97D14 
 273      471AE3
 274 04f6 B8C086F0 		.ascii	"\270\300\206\360d\322K),\363G\273\264h\235\330>\330"
 274      64D24B29 
 274      2CF347BB 
 274      B4689DD8 
 274      3ED8
 275 0508 57E8C93C 		.ascii	"W\350\311<\265\247\320Sxf\307\013]\333:\273:\037\313"
 275      B5A7D053 
 275      7866C70B 
 275      5DDB3ABB 
 275      3A1FCB
 276 051b 64F6EECB 		.ascii	"d\366\356\313\014\014f\366\015\3442\271=\257\016v\346"
 276      0C0C66F6 
 276      0DE432B9 
 276      3DAF0E76 
 276      E6
 277 052c 58E0E5BD 		.ascii	"X\340\345\275\257\365\276\3307\270[\345\362\177`r\032"
 277      AFF5BED8 
 277      37B85BE5 
 277      F27F6072 
 277      1A
 278 053d 54       		.ascii	"T"
 279              		.text
 280              		.section	.gnu.lto_.symbol_nodes.5b91003db41261b9,"",%progbits
 281 0000 789C4D8D 		.ascii	"x\234M\215;N\303P\024Dg\356{N\214q\342\354 k\213\304"
 281      3B4EC350 
 281      144467EE 
 281      7B4E8C71 
 281      E2EC206B 
 282 0016 3EC6B21B 		.ascii	">\306\262\033KH$\010\321P&\013\310\036\240OI\015\251"
 282      4B482408 
 282      D150260B 
 282      C81EA04F 
 282      490DA9
 283 0029 D3F0FF49 		.ascii	"\323\360\377I\010;\317\302\3576Gg\356Hc0\234\021\341"
 283      083BCFC2 
 283      EF364767 
 283      EE486330 
 283      9C11E1
 284 003c ACA180D5 		.ascii	"\254\241\200\325\016\220\256\233\205]R\214tKY\244\027"
 284      0E90AE9B 
 284      855D528C 
 284      744B59A4 
 284      17
 285 004d 948B7445 		.ascii	"\224\213tE\371H\227T\022\351\0235\352\365\276a\362\332"
 285      F9489754 
ARM GAS  /tmp/ccUrJHvI.s 			page 22


 285      12E91335 
 285      EAF5BE61 
 285      F2DA
 286 005f 4E0AF64C 		.ascii	"N\012\366L\215\243\364\203\364r\366B\245Q\372MkS~R'"
 286      8DA3F483 
 286      F472F642 
 286      A551FA4D 
 286      6B537E52 
 287 0074 212D4BF2 		.ascii	"!-K\362\213\312\006\373\241N\007{\247\362\301\336\250"
 287      8BCA06FB 
 287      A14E077B 
 287      A7F2C1DE 
 287      A8
 288 0085 C9BFB976 		.ascii	"\311\277\271v\267z\370\2453\006\272\034uG?\011L\246"
 288      B77AF8A5 
 288      3306BA1C 
 288      75473F09 
 288      4CA6
 289 0097 81E9AC67 		.ascii	"\201\351\254g\201\372\261\243a\177\244Cu~\230\273\324"
 289      81FAB1A3 
 289      617FA443 
 289      757E98BB 
 289      D4
 290 00a8 63BD6C99 		.ascii	"c\275l\231\365\275\254\300]\317M\327\313\022\334\036"
 290      F5BDACC0 
 290      5DCF4DD7 
 290      CB12DC1E 
 291 00b8 FF86F555 		.ascii	"\377\206\365UG\217\375\315a\216?\271\205o\277"
 291      478FFDCD 
 291      618E3FB9 
 291      856FBF
 292              		.text
 293              		.section	.gnu.lto_.refs.5b91003db41261b9,"",%progbits
 294 0000 789C6362 		.ascii	"x\234cb`b\360e\200\00066Fv&v\010fd\347\343`\342d\200"
 294      6062F065 
 294      80003636 
 294      46762676 
 294      086664E7 
 295 0019 B241624C 		.ascii	"\262AbL\354\014p\310\310\316\317\305\304\315\304\015"
 295      EC0C70C8 
 295      C8CECFC5 
 295      C4CDC40D 
 296 0029 916700CB 		.ascii	"\221g\000\313!\313\003!\000RV\001\253"
 296      21CB0321 
 296      00525601 
 296      AB
 297              		.text
 298              		.section	.gnu.lto_.decls.5b91003db41261b9,"",%progbits
 299 0000 789CBD5C 		.ascii	"x\234\275\\\013t\024U\232\256\252\356t\322I\010\021"
 299      0B741455 
 299      9AAEAAEE 
 299      74D24908 
 299      11
 300 0011 4717F738 		.ascii	"G\027\3678\232\3313\356q\234Y\003\352\"\216\273\242"
 300      9AD933EE 
 300      719C5903 
 300      EA228EBB 
ARM GAS  /tmp/ccUrJHvI.s 			page 23


 300      A2
 301 0022 1B3CC2AC 		.ascii	"\033<\302\254\240'\340\036\316\2313\3236\235\202\364"
 301      A027E01E 
 301      CE9933D3 
 301      369D82F4 
 302 0032 D09D64AA 		.ascii	"\320\235d\252+\200\263{\216\225\200<\344a\000\2217\004"
 302      2B80B37B 
 302      8E95803C 
 302      E4610091 
 302      3704
 303 0044 79CA881A 		.ascii	"y\312\210\032\020\024\006\261@!<F\010\204Gx\010\221"
 303      101406B1 
 303      40213C46 
 303      08844778 
 303      0891
 304 0056 1114D960 		.ascii	"\021\024\331`\000E@ \373\337\377Vu\337\272\251\352T"
 304      00454020 
 304      FBDFFF56 
 304      75DFBAA9 
 304      EA54
 305 0068 4567EB9C 		.ascii	"Eg\353\234\272}\273\352\336\357\376\257\373\377\377"
 305      BA7DBBEA 
 305      DEEFFEAF 
 305      FBFFFF
 306 0077 BD55DD92 		.ascii	"\275U\335\222 \011K}\202\320\006\307\321\201\202p$("
 306      20094B7D 
 306      82D006C7 
 306      D1818270 
 306      2428
 307 0089 08D98220 		.ascii	"\010\331\202 <&\244\216<8\027\303\3716\234k\340\\\007"
 307      3C26A48E 
 307      3C3817C3 
 307      F9369C6B 
 307      E05C07
 308 009c E7263875 		.ascii	"\347&8u8?\206\263\036\316\363p~\003\347e8\257\300y\015"
 308      383F86B3 
 308      1ECEF370 
 308      7E03E765 
 308      38AFC079 
 309 00b1 4E9F0827 		.ascii	"N\237\010'|f\300\347\023\222 \364\223\004\313A0\003"
 309      7C66C0E7 
 309      139220F4 
 309      9304CB41 
 309      3003
 310 00c3 702E31C6 		.ascii	"p.1\306\310\205s \264y\016\316g\340\204n\302p\343\223"
 310      C8857320 
 310      B4790ECE 
 310      67E0846E 
 310      C270E393 
 311 00d7 B4259F63 		.ascii	"\264%\237c8\014BS\006\2071\026\332\274n\334\227\214"
 311      380C4253 
 311      06873116 
 311      DABC6EDC 
 311      978C
 312 00e9 3666FF97 		.ascii	"6f\377\227\270\376k\\\364_c`\220\376\343\270\376\353"
 312      B8FE6B5C 
 312      F45F6360 
ARM GAS  /tmp/ccUrJHvI.s 			page 24


 312      90FEE3B8 
 312      FEEB
 313 00fb 8C36E3A1 		.ascii	"\2146\343\241X\317\364Yg\310\203\364\331`\355\202\262"
 313      58CFF459 
 313      67C883F4 
 313      D960ED82 
 313      B2
 314 010c B3EBB3C9 		.ascii	"\263\353\263\311\220\037\351\263\231\353\243\033m&@"
 314      901FE9B3 
 314      99EBA31B 
 314      6D2640
 315 011b B185E943 		.ascii	"\261\205\351C\256_\021\332\037D/\231p\356\202\363+\000"
 315      AE5F11DA 
 315      1F442F99 
 315      70EE82F3 
 315      2B00
 316 012d 0CC03911 		.ascii	"\014\3009\021:\274,Q^3\015\276\317\302\365V8/\300y\021"
 316      3ABC2C51 
 316      5E330DBE 
 316      CFC2F556 
 316      382FC079 
 317 0142 CE4B221D 		.ascii	"\316K\"\035\377c\203\016\242;\366 \272\276\315\3005"
 317      FF63830E 
 317      A23BF620 
 317      BABECDC0 
 317      35
 318 0153 E59569C8 		.ascii	"\345\225i\310\317\244\255\011\316IP\237\014\347\367"
 318      CFA4AD09 
 318      CE49509F 
 318      0CE7F7
 319 0162 50EF03E7 		.ascii	"P\357\003\347n!%W\236\036S\016\304\356N\302y\230\241"
 319      6E212557 
 319      9E1E530E 
 319      C4EE4EC2 
 319      7998A1
 320 0175 EB9241DB 		.ascii	"\353\222A\333>\270\326\010\347A\201\322\0310h!6Fl\215"
 320      3EB8D608 
 320      E74181D2 
 320      19306821 
 320      36466C8D 
 321 0189 B54B420F 		.ascii	"\265KB\017\261\267/\340\3634\301\202\363\234\301\313"
 321      B1B72FE0 
 321      F334C182 
 321      F39CC1CB 
 322 0199 144E7FE7 		.ascii	"\024N\177\347\015~>e\370\331e\303\023\341g\252\301O"
 322      0D7E3E65 
 322      F8D965C3 
 322      13E167AA 
 322      C14F
 323 01ab 93C10FCF 		.ascii	"\223\301\017\317\207\311\237\311O&\307\013\241\177\237"
 323      87C99FC9 
 323      4F26C70B 
 323      A17F9F
 324 01ba C1C32583 		.ascii	"\301\303%\203\207\363\014\017\272\301\007\341\301/\320"
 324      87F30C0F 
 324      BAC107E1 
 324      C12FD0
ARM GAS  /tmp/ccUrJHvI.s 			page 25


 325 01c9 F972D1A0 		.ascii	"\371r\321\240\373\025\216\356\273\205\205\232\336\320"
 325      FB158EEE 
 325      BB85859A 
 325      DED0
 326 01d7 7C7AF94E 		.ascii	"|z\371N\337\034M\037\253\301\364\325\304\202\333\205"
 326      DF1C4D1F 
 326      ABC1F4D5 
 326      C482DB85 
 327 01e7 991A1CB5 		.ascii	"\231\032\034\265\3434MT\203\302\004M\253&_\372\355\000"
 327      E3344D54 
 327      83C2044D 
 327      AB265FFA 
 327      ED00
 328 01f9 D6868861 		.ascii	"\326\206\210a1/(\024`%7\210#\334#,\325\264\232\346\357"
 328      312F2814 
 328      60253788 
 328      23DC232C 
 328      D5B49AE6 
 329 020e 57374A9A 		.ascii	"W7J\232\226\025\026\227\210A\260\252\270(\334'\274\001"
 329      96151697 
 329      8841B0AA 
 329      B828DC27 
 329      BC01
 330 0220 38359A76 		.ascii	"85\232v\352Q\316\000\360p\017}c\374\266-b5\220\023\026"
 330      EA51CE00 
 330      F0700F7D 
 330      63FCB62D 
 330      62359013 
 331 0235 5720F87C 		.ascii	"W \370|Q\024\302\342r\361>\317P\363&mz\004\251\\\205"
 331      5114C2E2 
 331      72F13ECF 
 331      50F3266D 
 331      7A04A95C 
 332 024a 408D1C50 		.ascii	"@\215\034PX\314\014\2624\342w\263\001A\303\333F\205"
 332      58CC0CB2 
 332      34E277B3 
 332      0141C3DB 
 332      4685
 333 025c B8BBAEC2 		.ascii	"\270\273\256\302\337\271\271\035/\244\347\353\342\355"
 333      DFB9B91D 
 333      2FA4E7EB 
 333      E2ED
 334 026a 46ED391F 		.ascii	"F\3559\037E\223\204\023\0347\202\360\317\3022\020L\363"
 334      45938413 
 334      1C3782F0 
 334      CFC23210 
 334      4CF3
 335 027c E7CB772E 		.ascii	"\347\313w.\026\265nT7\244\317b\361n\007d\274\275Z\264"
 335      16B56E54 
 335      37A4CF62 
 335      F16E0764 
 335      BCBD5AB4 
 336 0290 588A6127 		.ascii	"X\212a'\373\367\376\257\310\330\011\245A\022VJ\366\243"
 336      FBF7FEAF 
 336      C8D809A5 
 336      4112564A 
 336      F6A3
ARM GAS  /tmp/ccUrJHvI.s 			page 26


 337 02a2 6A6B566A 		.ascii	"jkVj\301\324\220o\247\037\362\035\333!\257\3148\343"
 337      C1D4906F 
 337      A71FF21D 
 337      DB21AFCC 
 337      38E3
 338 02b4 B319F28C 		.ascii	"\263\031\362\214\273!\327\244\037r\255\355\220\215{"
 338      BB21D7A4 
 338      1F72ADED 
 338      908D7B
 339 02c3 EBB788D3 		.ascii	"\353\267\210\323\307h;\264VP@M\226e:\204\305\307nsT"
 339      C7683BB4 
 339      5650404D 
 339      96653A84 
 339      C5C76E73 
 340 02d8 C97A4325 		.ascii	"\311zC%>t\252\002\245#\245\037T\321U\216\362\237\013"
 340      3E74AA02 
 340      A523A51F 
 340      54D1558E 
 340      F29F0B
 341 02eb 4B346DBA 		.ascii	"K4m\272vL\356gN\234\032\037i\261\316\201t\2239\312\260"
 341      764CEE67 
 341      4E9C1A1F 
 341      69B1CE81 
 341      749339CA 
 342 0300 A61DD19E 		.ascii	"\246\035\321\236\355\216D\011F'\213y\275o\307\241~m"
 342      ED8E4409 
 342      46278B79 
 342      BD6FC7A1 
 342      7E6D
 343 0312 7B6E4D55 		.ascii	"{nMUs[\333\242\332|J\264$\314\364\331\222u\330$+,n\004"
 343      735BDBA2 
 343      DA7C4AB4 
 343      24CCF4D9 
 343      9275D824 
 344 032a A8B0B8A9 		.ascii	"\250\260\270\2513dm\342\311\372\300\226\254\375)\262"
 344      33646DE2 
 344      C9FAC096 
 344      ACFD29B2 
 345 033a DCCB7C8B 		.ascii	"\334\313|\213\3154X\345\263\265\0168Vj\276$U:O\325\326"
 345      CD3458E5 
 345      B3B50E38 
 345      566ABE24 
 345      553A4FD5 
 346 034f F654D5EA 		.ascii	"\366T\325\352\315\323Nl\016\244,\320\030\021,\320\325"
 346      CDD34E6C 
 346      0EA42CD0 
 346      18112CD0 
 346      D5
 347 0360 181FF363 		.ascii	"\030\037\363clk?Fs\203~\323\344\274\300=\343;\254\306"
 347      6C6B3F46 
 347      73837ED3 
 347      E4BCC03D 
 347      E33BACC6 
 348 0374 9623BC9C 		.ascii	"\226#\274\234\362\200\335\204i\004\245\200\361\205\265"
 348      F280DD84 
 348      6904A580 
 348      F185B5
ARM GAS  /tmp/ccUrJHvI.s 			page 27


 349 0383 A209F013 		.ascii	"\242\011\360\023!\345\262\227M\355\217\316p\267\330"
 349      21E5B297 
 349      4DED8FCE 
 349      70B7D8
 350 0392 0D60BEE6 		.ascii	"\015`\276\346x\352\020F\022\332\260\313\036\350N;\""
 350      78EA1046 
 350      12DAB0CB 
 350      1EE84E3B 
 350      22
 351 03a3 B0D6BCEF 		.ascii	"\260\326\274\357T\323\357fkZ>\275%p\222b\216\237\011"
 351      54D3EF66 
 351      6B5A3EBD 
 351      25709262 
 351      8E9F09
 352 03b6 B540B6BE 		.ascii	"\265@\266\276a\326\202;\264\332\255\200\274K\314\001"
 352      61D6823B 
 352      B4DAAD80 
 352      BC4BCC01 
 353 03c6 D84D7E13 		.ascii	"\330M~\023\326\216}\243J\017\243\201\025o\343\341\334"
 353      D68E7DA3 
 353      4A0FA381 
 353      156FE3E1 
 353      DC
 354 03d7 9AB009F6 		.ascii	"\232\260\011\366\261g\260\002\013\330\007\207\347\033"
 354      B167B002 
 354      0BD80787 
 354      E71B
 355 03e5 C4D109FA 		.ascii	"\304\321\011\372W7xY\316\304m&\304Y\364\345^\353Gx\027"
 355      57377859 
 355      CEC46D26 
 355      C459F4E5 
 355      5EEB4778 
 356 03fa D327C7EA 		.ascii	"\323'\307\352a\322\005\350\013S\356Em7\241X\016\372"
 356      61D205E8 
 356      0B53EE45 
 356      6D37A158 
 356      0EFA
 357 040c ADDAB650 		.ascii	"\255\332\266PDGr\242\342S1\307A\245\355\356AP\362,."
 357      444772A2 
 357      E25331C7 
 357      41A5EDEE 
 357      4150F22C 
 358 0421 8BF8C196 		.ascii	"\213\370\301\226v\374~\343\032M\233\030@na\352\271\001"
 358      76FC7EE3 
 358      1A4D9B18 
 358      406E61EA 
 358      B901
 359 0433 CCB791BF 		.ascii	"\314\267\221\277\335\301\032oXl\020\357\201r\237\370"
 359      DDC11A6F 
 359      586C10EF 
 359      81729FF8 
 360 0443 33281BB1 		.ascii	"3(\033\261<\210\345a,OB\231V\320\004\216\330\234qX\342"
 360      3C88E561 
 360      2C4F4299 
 360      56D0048E 
 360      D89C7158 
 361 0458 00FBBD89 		.ascii	"\000\373\275\211\266a\225(\010\002\027)Z\374v.\031\374"
ARM GAS  /tmp/ccUrJHvI.s 			page 28


 361      B6619528 
 361      08021729 
 361      5AFC762E 
 361      19FC
 362 046a D1C9C5E2 		.ascii	"\321\311\305\342\253c\264~\246y_\301v\365\216\216\031"
 362      AB63B47E 
 362      A6795FC1 
 362      76F58E8E 
 362      19
 363 047b 0932FC79 		.ascii	"\0112\374yc*\314\\\357\240\033\322L\273\351\323\306"
 363      632ACC5C 
 363      EFA01BD2 
 363      4CBBE9D3 
 363      C6
 364 048c 93E92999 		.ascii	"\223\351)\231\226S\235\221\276k\0233b\035\031\021\325"
 364      96539D91 
 364      BE6B1333 
 364      621D1911 
 364      D5
 365 049d 36B1835E 		.ascii	"6\261\203^T\010\324\213\352m\343\306\324\212Z \351H"
 365      5408D48B 
 365      EA6DE3C6 
 365      D48A5A20 
 365      E948
 366 04af EB7947FA 		.ascii	"\353yG\372\271\255#\335\277\333\273#\375\232\237R\273"
 366      B9AD23DD 
 366      BFDBBB23 
 366      FD9A9F52 
 366      BB
 367 04c0 C41C5E17 		.ascii	"\304\034^\027S2l\303\343\034\271\237\331\374\014\206"
 367      53326CC3 
 367      E31CB99F 
 367      D9FC0C86 
 368 04d0 C7F3E9B5 		.ascii	"\307\363\351\265\220\014\022S\264\227\362\305$s\347"
 368      900C1253 
 368      B497F2C5 
 368      2473E7
 369 04df 79E62ED8 		.ascii	"y\346.\3300W\323\374\355WW\376q\366\032m\354D\355f\333"
 369      3057D3FC 
 369      ED5757FE 
 369      71F61A6D 
 369      EC44ED66 
 370 04f4 8BA219B9 		.ascii	"\213\242\031\271?\312\340\003\021\305\370\326\016C\277"
 370      3FCAE003 
 370      11C5F8D6 
 370      0E43BF
 371 0503 B87DB226 		.ascii	"\270}\262&\242\210\3566\001\032\034\000\276\263\005"
 371      A288EE36 
 371      011A1C00 
 371      BEB305
 372 0512 68650168 		.ascii	"he\001h(<\346\000p\325\226\213\205_\267\376f\216\266"
 372      283CE600 
 372      70D5968B 
 372      855FB7FE 
 372      668EB6
 373 0525 95C4D317 		.ascii	"\225\304\323\027\005\367Z\372>M\2703\262\377\346ez\367"
 373      05F75AFA 
ARM GAS  /tmp/ccUrJHvI.s 			page 29


 373      3E4DB833 
 373      B2FFE665 
 373      7AF7
 374 0537 D9A95095 		.ascii	"\331\251P\225eB\220\265\007\215K\260\024\221\222\215"
 374      654290B5 
 374      078D4BB0 
 374      1491928D 
 375 0547 B5EEDDED 		.ascii	"\265\356\335\355\333\206\3056t\003\244-9\310-Z7km\""
 375      DB86C536 
 375      7403A42D 
 375      39C82D5A 
 375      376B6D22 
 376 055b 318AE901 		.ascii	"1\212\351\001\273U\015\002\244\357\352\304\343\215\224"
 376      BB550D02 
 376      A4EFEAC4 
 376      E38D94
 377 056a EBE0EC6F 		.ascii	"\353\340\354oV\300^\304\325\222\235\210\247_j}4)bSK"
 377      56C05EC4 
 377      D5929D88 
 377      A75F6A7D 
 377      34296253 
 378 057f 7B1C20C6 		.ascii	"{\034 \306Z!\376IXL \300\351N\024\267,\323\364\032P"
 378      5A21FE49 
 378      584C20C0 
 378      E94E14B7 
 378      2CD3F41A 
 379 0594 4DABD8D6 		.ascii	"M\253\330\326\226i&\003\023\376\226\342@\377\235\311"
 379      96692603 
 379      13FE96E2 
 379      40FF9DC9 
 380 05a4 42538E90 		.ascii	"BS\216\220\2123\213_\3715\306\231q\022\311*N\006\354"
 380      8A338B5F 
 380      F935C699 
 380      7112C92A 
 380      4E06EC
 381 05b7 B38A3440 		.ascii	"\263\2124@\222p\016;M\224\332\345\025\015\243i^Anu\224"
 381      92700E3B 
 381      4D94DAE5 
 381      150DA369 
 381      5E416E75 
 382 05cc 5768FA82 		.ascii	"Wh\372\202\023\363E\022\272m2\231\346d&s'C\372\007S"
 382      13F34512 
 382      BA6D3299 
 382      E6642673 
 382      2743FA07 
 383 05e1 1E43D2A7 		.ascii	"\036C\322\247 \351\337:\220\356\010\003\2761\223t\251"
 383      20E9DF3A 
 383      90EE0803 
 383      BE319374 
 383      A9
 384 05f2 694FB8FE 		.ascii	"iO\270\376\007Jx\215+\302\033\217:\022\3768\0333\223"
 384      074A788D 
 384      2BC21B8F 
 384      3A12FE38 
 384      1B3393
 385 0605 229F4213 		.ascii	"\"\237B\023\271W\221\356\232L[\272k\037w\202\221\204"
 385      B95791EE 
ARM GAS  /tmp/ccUrJHvI.s 			page 30


 385      9A4C5BBA 
 385      6B1F7782 
 385      9184
 386 0617 5AEC32AB 		.ascii	"Z\3542\253=\335W\356\247t\317rAw\265~a\022M\344l\323"
 386      3DDD57EE 
 386      A774CF72 
 386      4177B57E 
 386      61124DE4 
 387 062d 5156E35A 		.ascii	"QV\343Z\300\034\377\371\024\033\327n\370`\2117\037y"
 387      C01CFFF9 
 387      141BD76E 
 387      F8608937 
 387      1F79
 388 063f A8B3E721 		.ascii	"\250\263\347!\015\210$l\304>\213l\254\2467eb\221+&f"
 388      0D88246C 
 388      C43E8B6C 
 388      ACA63765 
 388      62912B26 
 389 0654 4D35B3D1 		.ascii	"M5\263\321y\022&\220I\330\316e\243s\367`6J\301v{\006"
 389      79122690 
 389      49D8CE65 
 389      A373F760 
 389      364AC176 
 390 066a 2BB0802D 		.ascii	"+\260\200-\332C\263Q\367[\036\007o\352\335?@\366WH$"
 390      DA43B351 
 390      F75B1E07 
 390      6FEADD3F 
 390      40F65748 
 391 067f F24FCFE2 		.ascii	"\362O\317\342\367<V\210\2367=$an\226\013F\034\323`\234"
 391      F73C5688 
 391      9E373D24 
 391      616E960B 
 391      461CD360 
 392 0694 128F6CC0 		.ascii	"\022\217l\300\274\3164\317\200\023#\222\260\030\007"
 392      BCCE34CF 
 392      80132392 
 392      B01807
 393 06a3 7B93D7EC 		.ascii	"{\223\327\354\332%;\177A5\373\246+\315\256\3335\313"
 393      DA253B7F 
 393      4135FBA6 
 393      2BCDAEDB 
 393      35CB
 394 06b5 D93CD965 		.ascii	"\331<\331e\216d\016\377s\034\376(\016_\307\017\277`"
 394      8E640EFF 
 394      731CFE28 
 394      0E5FC70F 
 394      BF60
 395 06c7 C5D93E74 		.ascii	"\305\331>t\370:W\303\357\333\377j\373\341\035\303\236"
 395      F83A57C3 
 395      EFDBFF6A 
 395      FBE11DC3 
 395      9E
 396 06d8 A1BEB54B 		.ascii	"\241\276\265K\316\336\271\010\007Y\207\0064/\310\253"
 396      CEDEB908 
 396      07598706 
 396      342FC8AB 
 397 06e8 AF4F0E3B 		.ascii	"\257O\016;\226\261&`2\360\245A\223\372N\331/\260\271"
ARM GAS  /tmp/ccUrJHvI.s 			page 31


 397      96B12660 
 397      32F0A541 
 397      93FA4ED9 
 397      2FB0B9
 398 06fb F3376F18 		.ascii	"\3637o\030\0318\245a\205gD\253\021\037\330\2173\202"
 398      1938A561 
 398      856744AB 
 398      111FD88F 
 398      3382
 399 070d 82AD7203 		.ascii	"\202\255r\003\226f=u\210\005[\355\031\314JY\023\013"
 399      96663D75 
 399      88055BED 
 399      19CC4A59 
 399      130B
 400 071f F68E1B30 		.ascii	"\366\216\0330\273\225\206\001v\224\005[\353\031\314"
 400      BB958601 
 400      7694055B 
 400      EB19CC
 401 072e 4AD97116 		.ascii	"J\331q\026l\275\033\260\356\316\224\235`\3016z\006\263"
 401      6CBD1BB0 
 401      EECE949D 
 401      60C1367A 
 401      06B3
 402 0740 52D6CA82 		.ascii	"R\326\312\202mv\003V`CY\362pJ\217\336\221\222v.\011"
 402      6D760356 
 402      604359F2 
 402      704A8FDE 
 402      9192762E 
 403 0755 5B82A643 		.ascii	"[\202\246C\360h\323B\012c[\320\253\007\263\360M\342"
 403      F068D342 
 403      0A635BD0 
 403      AB07B3F0 
 403      4DE2
 404 0767 CA23E6CA 		.ascii	"\312#\346\312\324p\356n\020\323\030\314z6R4z\006\263"
 404      D470EE6E 
 404      10D318CC 
 404      7A365234 
 404      7A06B3
 405 077a AAE50005 		.ascii	"\252\345\000\005\273\201k\266cn\300\322\030L\353\036"
 405      BB816BB6 
 405      636EC0D2 
 405      184CEB1E 
 406 078a 7ED3C208 		.ascii	"~\323\302\010@\3728m\202XUwg\332\374\004|\330OW\241"
 406      40FA386D 
 406      82585577 
 406      67DAFC04 
 406      7CD84F57 
 407 079f 0F6BC410 		.ascii	"\017k\304\020t\212\363a^\260n\214\337k>\0148\204`-\235"
 407      748AF361 
 407      5EB06E8C 
 407      DF6B3E0C 
 407      3884602D 
 408 07b4 07AB9DB7 		.ascii	"\007\253\235\267\373N\315\037\026\217 \320\345v\236"
 408      FB4ECD1F 
 408      168F20D0 
 408      E5769E
 409 07c3 35C8C5C5 		.ascii	"5\310\305\305\2405.\006\203\251J\233y"
ARM GAS  /tmp/ccUrJHvI.s 			page 32


 409      A0352E06 
 409      83A94A9B 
 409      79
 410 07d0 5817057F 		.ascii	"X\027\005\177\327>N3e?;S\252\262\275j\336j\345\015\247"
 410      D73E4E33 
 410      653F3B53 
 410      AAB2BD6A 
 410      DE6AE50D 
 411 07e5 BE7C7496 		.ascii	"\276|t\226\246W\371\230\225S\332e\026\3118\276<,\216"
 411      A657F998 
 411      9553DA65 
 411      16C938BE 
 411      3C2C8E
 412 07f8 41159D40 		.ascii	"A\025\235@\311N\316\266U\221\013\250\033\343W\377\022"
 412      C94ECEB6 
 412      55910BA8 
 412      1BE357FF 
 412      12
 413 0809 33DBCF10 		.ascii	"3\333\317\020hf\247\201\346MZ\330\033\201>G\240\005"
 413      6866A781 
 413      E64D5AD8 
 413      1B813E47 
 413      A005
 414 081b D9BCAEF9 		.ascii	"\331\274\256\371\034H\264\352@\014\246*\355\364\365"
 414      1C48B4EA 
 414      400CA62A 
 414      EDF4F5
 415 082a 23B685E0 		.ascii	"#\266\205\340\312+\314\302N\032\017\232\3320\373\267"
 415      CA2BCCC2 
 415      4E1A0F9A 
 415      DA30FBB7 
 416 083a 0D6F69DA 		.ascii	"\015oi\332\230\200\027\2155\233\032;\213\362y\273\235"
 416      9880178D 
 416      359B1A3B 
 416      8BF279BB 
 416      9D
 417 084b 7C3E93BC 		.ascii	"|>\223\274\011H\022\336\363\314H\026\307Hk'\030i5\031"
 417      094812DE 
 417      F3CC4816 
 417      C7486B27 
 417      18693519 
 418 085f 398F8C7C 		.ascii	"9\217\214|\370#0R\357\231\221|\206\021\222\352\356\030"
 418      F8233052 
 418      EF99917C 
 418      861192EA 
 418      EE18
 419 0871 4853DD5B 		.ascii	"HS\335[\205\351\351S]B\317%\351VK\236\251\177\273\227"
 419      85E9E953 
 419      5D42CF25 
 419      E9564B9E 
 419      A97FBB97 
 420 0885 3CFA2297 		.ascii	"<\372\"\227;^9\316\330\317\254\0174w\353\203\035\306"
 420      3B5E39CE 
 420      D8CFAC0F 
 420      3477EB83 
 420      1DC6
 421 0897 FAE0324A 		.ascii	"\372\3402Jl\217\335\034s\203T{\243\3766\342M\257\"\314"
ARM GAS  /tmp/ccUrJHvI.s 			page 33


 421      6C8FDD1C 
 421      7383547B 
 421      A3FE36E2 
 421      4DAF22CC 
 422 08ab 81CEC234 		.ascii	"\201\316\3024\317\333\375\036\235\252\327\021\350x;"
 422      CFDBFD1E 
 422      9DAAD711 
 422      E8783B
 423 08ba 0D063805 		.ascii	"\015\0068\005\006\254\012\204\257d\244+\350%_4\256\220"
 423      06AC0A84 
 423      AF64A42B 
 423      E8255F34 
 423      AE90
 424 08cc 2F99C2FF 		.ascii	"/\231\302\377{?I8\203\344\023\345u&\373\306uR\377\015"
 424      7B3F4938 
 424      83E413E5 
 424      7526FBC6 
 424      7552FF0D 
 425 08e0 46964115 		.ascii	"F\226A\025\324\362\203\020\253\365\017\247\233\353["
 425      D4F28310 
 425      ABF50FA7 
 425      9BEB5B
 426 08ef DC98BDFC 		.ascii	"\334\230\275\374\003\34101\265\244\006\334\372f\276"
 426      03E13031 
 426      B5A406DC 
 426      FA66BE
 427 08fe 43EC3137 		.ascii	"C\35417/\352&\377\212\356\027\371\01097\332\251{\236"
 427      2FEA26FF 
 427      8AEE17F9 
 427      083937DA 
 427      A97B9E
 428 0911 C42D70C8 		.ascii	"\304-p\310\005\246\211\323<z\311\307\204\301\232\234"
 428      05A689D3 
 428      3C7AC9C7 
 428      84C19A9C 
 429 0921 1FC42571 		.ascii	"\037\304%qF\377I\223\275\216\026\217\317\233h\2718\360"
 429      46FF4993 
 429      BD8E168F 
 429      CF9B68B9 
 429      38F0
 430 0933 6B38F064 		.ascii	"k8\360d\037\267v\234\365\227\317\306\031i\014\271\327"
 430      1FB7769C 
 430      F597CFC6 
 430      19690CB9 
 430      D7
 431 0944 F1C43E76 		.ascii	"\361\304>v:\250M\3175\267x\366$Q\355\262\233\016\255"
 431      3AA84DCF 
 431      35B778F6 
 431      2451EDB2 
 431      9B0EAD
 432 0957 4A3F21EF 		.ascii	"J?!\357\350\341\305E|i\270\210\351>b\201\207rx\035]"
 432      E8E1C545 
 432      7C69B888 
 432      E93E6281 
 432      8772781D 
 433 096c E59DAAA7 		.ascii	"\345\235\252\2479r\234\347\306\355\0220y8\331\300$\326"
 433      39729CE7 
ARM GAS  /tmp/ccUrJHvI.s 			page 34


 433      C6ED1230 
 433      7938D9C0 
 433      24D6
 434 097e 064EFD60 		.ascii	"\006N\375`\033\270\362\264;\033\320\222\333\202\371"
 434      1BB8F2B4 
 434      3B1BD092 
 434      DB82F9
 435 098d 38F2591C 		.ascii	"8\362Y\034y\016o\004\007?\3349^\254B#\230\343\312\010"
 435      790E6F04 
 435      073FDC39 
 435      5EAC4223 
 435      98E3CA08 
 436 09a1 BEB518C1 		.ascii	"\276\265\030\301\202\\\023\2653FP\255_=\273SD8\272\340"
 436      825C13B5 
 436      334650AD 
 436      5F3DBB53 
 436      4438BAE0 
 437 09b5 58C6C379 		.ascii	"X\306\303y\\\210_\007\233\362&\030j^\372\221\323\370"
 437      5C885F07 
 437      9BF22618 
 437      6A5EFA91 
 437      D3F8
 438 09c7 6A878FF0 		.ascii	"j\207\217\360\264:\2277-*\031\306\264Rb\004\312}d\253"
 438      B43A9737 
 438      2D2A19C6 
 438      B4526204 
 438      CA7D64AB 
 439 09db 7EBE8F3C 		.ascii	"~\276\217<\237[\210e\255\317\305S\272\305\254Y\254\363"
 439      9F5B8865 
 439      ADCFC553 
 439      BAC5AC59 
 439      ACF3
 440 09ed CC77814B 		.ascii	"\314w\201K\353\233\315\016\263)\367\207Y_\303\251+\003"
 440      EB9BCD0E 
 440      B329F787 
 440      595FC3A9 
 440      2B03
 441 09ff C89B083E 		.ascii	"\310\233\010>/[\177M\306\274]\211\363\366\243v\302\355"
 441      2F5B7F4D 
 441      C6BC5D89 
 441      F3F6A376 
 441      C2ED
 442 0a11 D4D6DFDE 		.ascii	"\324\326\337\336\316r\222<\300\205\344\272X\226\024"
 442      CE72923C 
 442      C085E4BA 
 442      589614
 443 0a20 D8083D19 		.ascii	"\330\010=\031\026[\007\272\334>4\343\314\351\311\375"
 443      165B07BA 
 443      DC3E34E3 
 443      CCE9C9FD 
 444 0a30 30CEBC85 		.ascii	"0\316\274\205\206v\224\223\205\213]\310\263\330\245"
 444      86769493 
 444      858B5DC8 
 444      B3D8A5
 445 0a3f 8E9FC510 		.ascii	"\216\237\305\020\241\215M\362:\027\223\270Zo\234\304"
 445      A18D4DF2 
 445      3A1793B8 
ARM GAS  /tmp/ccUrJHvI.s 			page 35


 445      5A6F9CC4 
 446 0a4f EE2F87C5 		.ascii	"\356/\207\305%\222d\300vV\234\026\015\3261\323c-N\217"
 446      259264C0 
 446      76569C16 
 446      0DD631D3 
 446      632D4E8F 
 447 0a63 77D92921 		.ascii	"w\331)!\011W\335\210\376^'C\324\364\253\215\364\341"
 447      0957DD88 
 447      FE5E2743 
 447      D4F4AB8D 
 447      F4E1
 448 0a75 84E986C6 		.ascii	"\204\351\206\306t\341\360\354\334\220\005\317\242J\275"
 448      74E1F0EC 
 448      DC9005CF 
 448      A24ABD
 449 0a84 E6106E54 		.ascii	"\346\020nT\320\344f*\017fG\\\017'\260j}>\005\243\366"
 449      D0E4662A 
 449      0F66475C 
 449      0F27B06A 
 449      7D3E05A3 
 450 0a99 FEAA1BB0 		.ascii	"\376\252\033\260\336N\234V\353\177y\315\324\324l\314"
 450      DE4E9C56 
 450      EB7F79CD 
 450      D4D46CCC 
 451 0aa9 4D1679C6 		.ascii	"M\026y\306\263\022\327x\310|\225\204n\305\277\341\006"
 451      B312D778 
 451      C87C9584 
 451      6EC5BFE1 
 451      06
 452 0aba EF7167FA 		.ascii	"\357qg\372.\274f\311\344\336\365\014gU\304\215CD\261"
 452      2EBC66C9 
 452      E4DEF50C 
 452      6755C48D 
 452      4344B1
 453 0acd 93BBDB3E 		.ascii	"\223\273\333>\242K:n\262W`L\251\253\347.\334A\027[\037"
 453      A24B3A6E 
 453      B257604C 
 453      A9ABE72E 
 453      DC41175B 
 454 0ae2 E19C3AD3 		.ascii	"\341\234:\323\305\305\263>\013\0201\330\355\334\204"
 454      C5C5B33E 
 454      0B1031D8 
 454      EDDC84
 455 0af1 D2EBB6E7 		.ascii	"\322\353\266\347\222u\304vW\263i\355v\357\017Dv\230"
 455      9275C476 
 455      57B369ED 
 455      76EF0F44 
 455      7698
 456 0b03 6BC49D68 		.ascii	"k\304\235h&W\273\374(n\261*O4\270\351\234\203\277zn"
 456      2657BBFC 
 456      286EB12A 
 456      4F34B8E9 
 456      9C83BF7A 
 457 0b18 DF1D66A6 		.ascii	"\337\035f\246O\011\033\347\031\321jo\353\267\343d\240"
 457      4F091BE7 
 457      19D16A6F 
 457      EBB7E364 
ARM GAS  /tmp/ccUrJHvI.s 			page 36


 457      A0
 458 0b29 6093DD80 		.ascii	"`\223\335\200\245\011\357\357\0230/Rn5b\317~\034~Z\336"
 458      A509EFEF 
 458      13302F52 
 458      6E3562CF 
 458      7E1C7E5A 
 459 0b3e 8F22E4D9 		.ascii	"\217\"\344\331\236\271\260\210\004\204|\366\216\015"
 459      9EB9B088 
 459      04847CF6 
 459      8E0D
 460 0b4c EF6A5ADD 		.ascii	"\357jZ\335\363^6\035\017\336l0M\3460r3\267\0357\207"
 460      F35E361D 
 460      0FDE6C30 
 460      4DE63072 
 460      33B71D37 
 461 0b61 F80CD8E5 		.ascii	"\370\014\330\345&\236$,\341Y\262\363\237\356_h\332\316"
 461      269E242C 
 461      E159B2F3 
 461      9FEE5F68 
 461      DACE
 462 0b73 F8FF7AF4 		.ascii	"\370\377z\364\377;01\372\004\313\275X\356\303\362\220"
 462      FF3B3031 
 462      FA04CBBD 
 462      58EEC3F2 
 462      90
 463 0b84 352EBC95 		.ascii	"5.\274\225\307\271\017\353T5\252\375\\\023\222z\020"
 463      C7B90FEB 
 463      5435AAFD 
 463      5C13927A 
 463      10
 464 0b95 0B099744 		.ascii	"\013\011\227D\010y]\"\303.\305r9\226\177\306r7\226\237"
 464      08795D22 
 464      C32EC572 
 464      39967FC6 
 464      7237969F 
 465 0ba9 60B917CB 		.ascii	"`\271\027\313}X~\212\345\227X\266`y\021\313\325H\376"
 465      7D587E8A 
 465      E59758B6 
 465      607911CB 
 465      D548FE
 466 0bbc 7A2CDFC7 		.ascii	"z,\337\307r#\226\233\260\334\214\245\216\345V7\331 "
 466      7223969B 
 466      B0DC8CA5 
 466      8EE55637 
 466      D920
 467 0bce B79E3423 		.ascii	"\267\2364#\362\254N?1\333wjG!\373d ,.\363\214X\220N"
 467      F2AC4E3F 
 467      31DB776A 
 467      4721FB64 
 467      202C2EF3 
 468 0be6 B4B318D1 		.ascii	"\264\263\030\321\316A\321\316E\301\034\267jt}\236\371"
 468      CE41D1CE 
 468      45C11CB7 
 468      6A747D9E 
 468      F9
 469 0bf7 3642E716 		.ascii	"6B\347\026\010\007\217Z\343\325f\036\317\223\013\321"
 469      08078F5A 
ARM GAS  /tmp/ccUrJHvI.s 			page 37


 469      E3D5661E 
 469      CF930BD1 
 470 0c07 F4A6A3E8 		.ascii	"\364\246\243\350\217\336\304\264a\233g\260\002\013q"
 470      8FDEC4B4 
 470      619B67B0 
 470      020B71
 471 0c16 27E75A1F 		.ascii	"'\347Z\037\323\357v\203\227\346\341K\353Q\366\341\213"
 471      D3EF7683 
 471      97E6E14B 
 471      EB51F6E1 
 471      8B
 472 0c27 67302B71 		.ascii	"g0+q\227Y\260cn\300\354\036\276\330+\277\206Q\376tT"
 472      9759B063 
 472      6EC0EC1E 
 472      BED82BBF 
 472      8651FE74 
 473 0c3c FE0C54FE 		.ascii	"\376\014T\376\011\264\370f,Oa\3719\226g\254Fq:\317|"
 473      09B4F866 
 473      2C4F61F9 
 473      399667AC 
 473      46713ACF 
 474 0c51 B7C618CC 		.ascii	"\267\306\030\314\372\016KGV\241\351\353\234\337\252"
 474      FA0E4B47 
 474      56A1E9EB 
 474      9CDFAA
 475 0c60 B15BDE35 		.ascii	"\261[\3365\177\277a\352\020L\274\277\302$\341\034\347"
 475      7FBF61EA 
 475      104CBCBF 
 475      C224E11C 
 475      E7
 476 0c71 3A5D2C9F 		.ascii	":],\237\253\272\222.-\355\023\357\246\020M\274[\\\245"
 476      ABBA922E 
 476      2DED13EF 
 476      A6104DBC 
 476      5B5CA5
 477 0c84 0A572DAF 		.ascii	"\012W-\257\031C`\302\227\366Z:\033\260\365\353\251\327"
 477      194360C2 
 477      97F65A3A 
 477      1BB0F5EB 
 477      A9D7
 478 0c96 8CC3E201 		.ascii	"\214\303\342\001\317`V\213\231v\224}\315\030\234\263"
 478      CF60568B 
 478      9976947D 
 478      CD189CB3 
 479 0ca6 1BBC34E1 		.ascii	"\033\2744\341\372\035j\201\364m\317\331I\001z\234k\366"
 479      FA1D6A81 
 479      F46DCFD9 
 479      49017A9C 
 479      6BF6
 480 0cb8 16D8C284 		.ascii	"\026\330\302\204\230\2571\304\264\242\245]\300\362\""
 480      98AF31C4 
 480      B4A2A55D 
 480      C0F222
 481 0cc7 9697AC56 		.ascii	"\226\227\254V\267\264+guV\035\333M\002V>\232\276\351"
 481      B7B42B67 
 481      75561DDB 
 481      4D02563E 
ARM GAS  /tmp/ccUrJHvI.s 			page 38


 481      9ABEE9
 482 0cda F73561BB 		.ascii	"\3675a\273W5\2360\373\276\312\276\020\3252\225\256\365"
 482      57359E30 
 482      FBBECABE 
 482      10D53295 
 482      AEF5
 483 0cec BE4393FB 		.ascii	"\276C\223\373s\327\016M\216\303\221\204\215\330\347"
 483      73D70E4D 
 483      8EC39184 
 483      8DD8E7
 484 0cfb 5A7B9B6B 		.ascii	"Z{\233k\210Q\233\273\326\261\315\215\035\243\257\233"
 484      88519BBB 
 484      D6B1CD8D 
 484      1DA3AF9B 
 485 0d0b B73CF5CE 		.ascii	"\267<\365\316\307\230\344\236\350MP\213S8b\336\003\224"
 485      C798E49E 
 485      E84D508B 
 485      533862DE 
 485      0394
 486 0d1d 845D4932 		.ascii	"\204]I2:c\243\232\376\3411\323\254\350\326\335\001\317"
 486      3A63A39A 
 486      FEE131D3 
 486      ACE8D6DD 
 486      01CF
 487 0d2f 7856351C 		.ascii	"xV5\034:\206fE\301\216\273\001K\023\017.\376\326V\247"
 487      3A866645 
 487      C18EBB01 
 487      4B130F2E 
 487      FED656A7 
 488 0d43 7A324C4D 		.ascii	"z2LM`t:\343R\363]4\005{\311O\224z\272c\245r@D\270\023"
 488      60743AE3 
 488      52F35D34 
 488      057BC94F 
 488      947ABA63 
 489 0d5d FCDC6263 		.ascii	"\374\334bcQ=.6\310\365\216=\310{\365\24643\010\377\337"
 489      513D2E36 
 489      C8F58E3D 
 489      C87BF5A6 
 489      343308FF 
 490 0d72 2109A46B 		.ascii	"!\011\244k\347\034\310\207\343\323\274.\327\321\256"
 490      E71CC887 
 490      E3D3BC2E 
 490      D7D1AE
 491 0d81 D9CC7AB2 		.ascii	"\331\314z\262k6\025e\321\326\261,\254\030\204\325i\274"
 491      6B361565 
 491      D1D6B12C 
 491      AC1884D5 
 491      69BC
 492 0d93 281AE9BA 		.ascii	"(\032\351\272k\232+Q\034\333n\375Y\304\324|\321\300"
 492      6B9A2B51 
 492      1CDB6EFD 
 492      59C4D47C 
 492      D1C0
 493 0da5 EC9C2C2E 		.ascii	"\354\234,.\215\263\206\363\327<\343\025X\360\256\321"
 493      8DB386F3 
 493      D73CE315 
 493      58F0AED1 
ARM GAS  /tmp/ccUrJHvI.s 			page 39


 494 0db5 B50F2E8C 		.ascii	"\265\017.\214\347\273\301J\343Kg\324\317\377\007\255"
 494      E7BBC14A 
 494      E34B67D4 
 494      CFFF07AD 
 495 0dc5 5917CDC7 		.ascii	"Y\027\315\307\320\313y<\273\007\202\356\335iJ\0210\261"
 495      D0CB793C 
 495      BB0782EE 
 495      DD694A11 
 495      30B1
 496 0dd7 FC18D0FD 		.ascii	"\374\030\320\375\304\205\316\304r\026\226s\374.\022"
 496      C485CEC4 
 496      72169673 
 496      FC2E12
 497 0de6 D9297EC6 		.ascii	"\331)~\306s\274\235\357\3258Y\001\302L\177\252&|\213"
 497      73BC9DEF 
 497      D5385901 
 497      C24C7FAA 
 497      267C8B
 498 0df9 5063D811 		.ascii	"Pc\330\021\2654\323\226\222\363J3\347\325\002\377-X"
 498      B534D396 
 498      92F34A33 
 498      E7D502FF 
 498      2D58
 499 0e0b B33C54C0 		.ascii	"\263<T\300&N\304.\364\247^\222\316\015\246*}\222\034"
 499      264EC42E 
 499      F4A75E92 
 499      CE0DA62A 
 499      7D921C
 500 0e1e ACE739E0 		.ascii	"\254\3479\340\306M\2438{AO`\004=\021\005\3752\012w2"
 500      C64DA338 
 500      7B414F60 
 500      043D1105 
 500      FD320A77 
 501 0e33 96F3FD96 		.ascii	"\226\363\375\226\210\245\347s\316\215\363&\236\325|"
 501      88A5E773 
 501      CE8DF326 
 501      9ED57C
 502 0e42 8D899AD7 		.ascii	"\215\211\232\3271j\336\300H\251\341\350\325X\216\265"
 502      316ADEC0 
 502      48A9E1E8 
 502      D5588EB5 
 503 0e52 D2F0493E 		.ascii	"\322\360I>\0275\2710e\324\2357\327\232\033N5\374\251"
 503      1735B930 
 503      65D49D37 
 503      D79A1B4E 
 503      35FCA9
 504 0e65 4AD367F7 		.ascii	"J\323g\3670_\254\335\307CZ\337\2425\252z\032\257}\342"
 504      305FACDD 
 504      C7435ADF 
 504      A235AA7A 
 504      1AAF7DE2 
 505 0e79 446ED26D 		.ascii	"Dn\322mw\270\353\012\353\355\2071\022/CGu<\337\343\256"
 505      77B8EB0A 
 505      EBED8731 
 505      122F4347 
 505      753CDFE3 
 506 0e8e 2B11DC4A 		.ascii	"+\021\334J\336Q]\220\013\350U\0279\337i\343\031\007"
ARM GAS  /tmp/ccUrJHvI.s 			page 40


 506      DE515D90 
 506      0BE85517 
 506      39DF69E3 
 506      1907
 507 0ea0 DD0469C1 		.ascii	"\335\004i\301\361Wz\367R\366*]\311\030\324\033hP\253"
 507      F1577AF7 
 507      52F62A5D 
 507      C918D41B 
 507      6850AB
 508 0eb3 AC0AFC86 		.ascii	"\254\012\374\206\227\266\335x\265\251\211\300\013\233"
 508      97B6DD78 
 508      B5A989C0 
 508      0B9B
 509 0ec1 BC7EF3DF 		.ascii	"\274~\363\337\250?\333\2754\237\011\321;%\361\223+\256"
 509      A83FDBBD 
 509      349F09D1 
 509      3B25F193 
 509      2BAE
 510 0ed3 5189BF85 		.ascii	"Q\211\277\205\022_z\213\213=9\013\016n\"\333\212\274"
 510      125F7A8B 
 510      8B3D390B 
 510      0E6E22DB 
 510      8ABC
 511 0ee5 CE95C82F 		.ascii	"\316\225\310/\231\"\247\033?k\221\200\272N\007\206o"
 511      9922A71B 
 511      3F6B9180 
 511      BA4E0786 
 511      6F
 512 0ef6 E41D3D4C 		.ascii	"\344\035=L\254\015\236\261\012Xi\352\2273&\214\011\230"
 512      AC0D9EB1 
 512      0A5869EA 
 512      9733268C 
 512      0998
 513 0f08 BB955B79 		.ascii	"\273\225[y0\333\375\2164\023\341\032\213\366\211+\264"
 513      30DBFD8E 
 513      3413E11A 
 513      8BF6892B 
 513      B4
 514 0f19 02D7A655 		.ascii	"\002\327\246U\307\230\326\0324\255\265\350!\326a\371"
 514      C798D61A 
 514      34ADB5E8 
 514      21D661F9 
 515 0f29 1E961BAC 		.ascii	"\036\226\033\254\306\326t\013glV\275\032\325\225i\254"
 515      C6D6740B 
 515      676C56BD 
 515      1AD59569 
 515      AC
 516 0f3a 0D5654FF 		.ascii	"\015VT\3773C\323\200-\323\363\203\231\320\267\366L\310"
 516      3343D380 
 516      2DD3F383 
 516      99D0B7F6 
 516      4CC8
 517 0f4c AE26CE15 		.ascii	"\256&\316\025\321\240\364\003\317\256\177\263\203\353"
 517      D1A0F403 
 517      CFAE7FB3 
 517      83EB
 518 0f5a BF2BC9CA 		.ascii	"\277+\311\312\351v\254X\3075\352\315v\274\330\313s\""
ARM GAS  /tmp/ccUrJHvI.s 			page 41


 518      E976AC58 
 518      C735EACD 
 518      76BCD8CB 
 518      7322
 519 0f6c B36A9E84 		.ascii	"\263j\236\204\253\346\311\270j>\213>\3702\226\257\243"
 519      ABE6C9B8 
 519      6A3E8B3E 
 519      F83296AF 
 519      A3
 520 0f7d 549762B9 		.ascii	"T\227b\271\032\313M\334tNN&\223,\353/W\360\207\305\376"
 520      1ACB4DDC 
 520      744E4E26 
 520      932CEB2F 
 520      57F087C5 
 521 0f92 E42F6AC8 		.ascii	"\344/j\310\257i\032\032\232kN\234\021\253"
 521      AF691A1A 
 521      9A6B4E9C 
 521      11AB
 522 0fa0 6AF4B1B5 		.ascii	"j\364\261\265\332\365\2666Q4E;\333\272\016\030b\"Q "
 522      DAF5B636 
 522      5134453B 
 522      DBBA0E18 
 522      62225120 
 523 0fb4 B6952639 		.ascii	"\266\225&9\265\002\353\363,\375\217\035\244\237m\221"
 523      B502EBF3 
 523      2CFD8F1D 
 523      A49F6D91 
 524 0fc4 97D98AA4 		.ascii	"\227\331\212\244\271\3105\363\323=\216\010I\320\272"
 524      B9C835F3 
 524      D33D8E08 
 524      49D0BA
 525 0fd3 5163B84B 		.ascii	"Qc\270K\230\332m\001\361=[\221*\312\277\336\264[\313"
 525      98DA6D01 
 525      F13D5B91 
 525      2ACABFDE 
 525      B45BCB
 526 0fe6 AAA99A40 		.ascii	"\252\251\232@~\217\344\300{\251\011\330%\035\357\\+"
 526      7E8FE4C0 
 526      7BA909D8 
 526      251DEF5C 
 526      2B
 527 0ff7 58797BE6 		.ascii	"Xy{\346}\267\003\357\271"
 527      7DB703EF 
 527      B9
 528 1000 16DECD56 		.ascii	"\026\336\315VP\335\346\347~\330\307\021!\011s\223\274"
 528      50DDE6E7 
 528      7ED8C711 
 528      21097393 
 528      BC
 529 1011 AFA4BCEF 		.ascii	"\257\244\274\357D\252:\314\351\355~\001s|\355\3052\364"
 529      44AA3ACC 
 529      E9ED7E01 
 529      737CEDC5 
 529      32F4
 530 1023 DD7BD177 		.ascii	"\335{\321w\177\323\255\343\264\336\002\203o\177\362"
 530      7FD3ADE3 
 530      B4DE0283 
ARM GAS  /tmp/ccUrJHvI.s 			page 42


 530      6F7FF2
 531 1032 AE7BC631 		.ascii	"\256{\3061L\353\367w\354\274a\275:\363\030\3638eL\332"
 531      4CEBF777 
 531      ECBC61BD 
 531      3AF318F3 
 531      38654CDA 
 532 1046 8D7E087F 		.ascii	"\215~\010\177\370C97\333\366\332\255\242AZ'\202\000"
 532      F8433937 
 532      DBF6DAAD 
 532      A2415A27 
 532      8200
 533 1058 90F51A5D 		.ascii	"\220\365\032]v\036\364\223(0\3263X\201\005l6\0136\301"
 533      761EF493 
 533      2830D633 
 533      5881056C 
 533      360B36C1 
 534 106c 0D985310 		.ascii	"\015\230S\020\000\260\271,\330\024\317`V\312\346\263"
 534      00B0B92C 
 534      D814CF60 
 534      56CAE6B3 
 535 107c 60D3DD80 		.ascii	"`\323\335\2009mh\002\330B\026l\246g0+e\357\260`s\334"
 535      396D6802 
 535      D842166C 
 535      A667302B 
 535      65EFB060 
 536 1092 8039BD4D 		.ascii	"\2009\275M\016`kX\260E\236\301\254\224\275\313\202-"
 536      0E606B58 
 536      B0459EC1 
 536      AC94BDCB 
 536      822D
 537 10a4 730356E0 		.ascii	"s\003V\340L\331z\026l\225g0+e\357\263`o\271\001sz\352"
 537      4CD97A16 
 537      6C956730 
 537      2B65EFB3 
 537      606FB901 
 538 10bb 0E601B59 		.ascii	"\016`\033Y\2605\236\301\254\224mb\301\326\273\001\353"
 538      B0359EC1 
 538      AC946D62 
 538      C1D6BB01 
 538      EB
 539 10cc E1445995 		.ascii	"\341DY\225\276\371\267\326\205\"A5\275\023\267\351\300"
 539      BEF9B7D6 
 539      85224135 
 539      BD13B7E9 
 539      C0
 540 10dd 365B213A 		.ascii	"6[!:6\013\213\027<{\366\213\016\236=\365;Z\266\025\331"
 540      360B8B17 
 540      3C7BF68B 
 540      0E9E3DF5 
 540      3B5AB615 
 541 10f2 E0E3D9B6 		.ascii	"\340\343\331\266\335\221tz\325\000\204\330\300\012q"
 541      DD91747A 
 541      D50084D8 
 541      C00A71
 542 1101 B31B213E 		.ascii	"\263\033!>\356\014\266\237\005\373\310\015\230\335\203"
 542      EE0CB69F 
 542      05FBC80D 
ARM GAS  /tmp/ccUrJHvI.s 			page 43


 542      98DD83
 543 1110 3803EC00 		.ascii	"8\003\354\000\013V\357\031\314J\331!\026\354\257n\300"
 543      0B56EF19 
 543      CC4AD921 
 543      16ECAF6E 
 543      C0
 544 1121 9E75A6AC 		.ascii	"\236u\246\254\211\005\333\353\031\214\245\254J?\232"
 544      8905DBEB 
 544      198CA5AC 
 544      4A3F9A
 545 1130 323CF2DB 		.ascii	"2<\362\333V\213\345%\327\352Y\254\341\321f\214\345q"
 545      568BE525 
 545      D7EA59AC 
 545      E1D1668C 
 545      E571
 546 1142 CD20DDC8 		.ascii	"\315 \335\310\360jxU\031\366\206'Z\014\317l\005l\037"
 546      F06A7855 
 546      19F68627 
 546      5A0CCF6C 
 546      056C1F
 547 1155 E4D9B610 		.ascii	"\344\331\266\020aT\207\330\310\320\356`\343=$\352\270"
 547      615487D8 
 547      C8D0EE60 
 547      E33D24EA 
 547      B8
 548 1166 503880A9 		.ascii	"P8\200\251\353a,\217`y\014\313O\261<\211\345gX\376\015"
 548      EB612C8F 
 548      60790CCB 
 548      4FB13C89 
 548      E56758FE 
 549 117b CBD3587E 		.ascii	"\313\323X~\201\345Y,\317a\331\202\345\327X~\203\345"
 549      81E5592C 
 549      CF61D982 
 549      E5D7587E 
 549      83E5
 550 118d 652CAF60 		.ascii	"e,\257`y\015\313\353X\336t\263;\265'\265;U ,\"\313\215"
 550      790DCBEB 
 550      58DE74B3 
 550      3BB527B5 
 550      3B55202C 
 551 11a4 6D2B82D5 		.ascii	"m+\202\325\376\344\377 ,f\377\007\201{\207\370\3654"
 551      FEE4FF20 
 551      2C66FF07 
 551      817B87F8 
 551      F534
 552 11b6 7F473236 		.ascii	"\177G26\203\307\335\377\312yQ\033\233\225D~\233E6\332"
 552      83C7DDFF 
 552      CA79511B 
 552      9B95447E 
 552      9B4536DA 
 553 11ca 5C696CF1 		.ascii	"\\il\361\261m\326\244\031}}\232\321\307\247F\347zmI"
 553      B16DD6A4 
 553      197D7D9A 
 553      D1C7A746 
 553      E77A6D49 
 554 11de D36B8263 		.ascii	"\323k\202c\257q\016{\005\270\206q\354\365\225\303\036"
 554      AF710E7B 
ARM GAS  /tmp/ccUrJHvI.s 			page 44


 554      05B88671 
 554      ECF595C3 
 554      1E
 555 11ef 3CE9F5B2 		.ascii	"<\351\365\262c\257\357\323P8\311\261\027\311\355\235"
 555      63AFEFD3 
 555      5038C9B1 
 555      17C9ED9D 
 556 11ff 7A4D6EA7 		.ascii	"zMn\247\213\232\023_H\254\234\353\323\310yg\032\344"
 556      8B9A135F 
 556      48AC9CEB 
 556      D3C87967 
 556      1AE4
 557 1211 A93CB27E 		.ascii	"\251<\262~\363\025M\222\034\376E\343\327\261\350\320"
 557      F3154D92 
 557      1CFE45E3 
 557      D7B1E8D0 
 558 1221 C2A2D2E8 		.ascii	"\302\242\322\350\320\3503\203B={\335\337\363\376\207"
 558      D0E83383 
 558      423D7BDD 
 558      DFF3FE87 
 559 1231 0A0BCB13 		.ascii	"\012\013\313\023\205\245\341XaE\271\242&\012\007\015"
 559      85A5E158 
 559      6145B9A2 
 559      260A070D 
 560 1241 1EF0E003 		.ascii	"\036\360\340\003\205O?\335\267pp\377\001#{\026&\324"
 560      854F3FDD 
 560      B77070FF 
 560      01237B16 
 560      26D4
 561 1253 502C5672 		.ascii	"P,Vr\177\251P\350\320UQ\013\243e\221Xe\211\\\030)M\274"
 561      7FA950E8 
 561      D055510B 
 561      A3659158 
 561      65895C18 
 562 126a 90505FA8 		.ascii	"\220P_\250\220\023\320>H\352\321\270\034R\003O\015|"
 562      9013D03E 
 562      48EAD1B8 
 562      1C52034F 
 562      0D7C
 563 127c AEA048F8 		.ascii	"\256\240H\370iaeBI\266-\223G\021\300\204Z\022-S\241"
 563      69616542 
 563      49B62D93 
 563      4711C084 
 563      5A122D53 
 564 1291 7956257C 		.ascii	"yV%|>\370@H\375\027\273f\361p\2444Z&\027\206J\344a\341"
 564      3EF84048 
 564      FD17BB66 
 564      F170A434 
 564      5A261786 
 565 12a9 CA981A32 		.ascii	"\312\230\0322G\311\016\205\314\216\335(\251\241\341"
 565      47C90E85 
 565      CC8EDD28 
 565      A9A1E1
 566 12b8 B21A8A94 		.ascii	"\262\032\212\224W\226\251\262\322\313\231f\312\355\023"
 566      5796A9B2 
 566      D2CB9966 
 566      CAED13
ARM GAS  /tmp/ccUrJHvI.s 			page 45


 567 12c7 C5038A06 		.ascii	"\305\003\212\006\214\006\302#\345\012P\012\344*\000"
 567      8C06C223 
 567      E50A500A 
 567      E42A00
 568 12d6 7A2BB949 		.ascii	"z+\271I\277!\032\251\375\302\015\373#\011'\335\"\245"
 568      BF211AA9 
 568      FDC20DFB 
 568      230927DD 
 568      22A5
 569 12e8 FF35F829 		.ascii	"\3775\370)Y\035\004\374\313\361\301\320w\310\355\014"
 569      591D04FC 
 569      CBF1C1D0 
 569      77C8ED0C 
 570 12f8 60420D43 		.ascii	"`B\015C=\034\013+q?\271\362\023\366\236l\334\271\315"
 570      3D1C0B2B 
 570      713FB9F2 
 570      13F69E6C 
 570      DCB9CD
 571 130b D2A1BC82 		.ascii	"\322\241\274\202^\275\307\231\206\204\022\241\343G\204"
 571      5EBDC799 
 571      868412A1 
 571      E34784
 572 131a ACD04835 		.ascii	"\254\320H5\024-\213\252]GF\025\2652\0343p\324\374Hi"
 572      142D8BAA 
 572      5D474615 
 572      B5321C33 
 572      70D4FC48 
 573 132f C872E997 		.ascii	"\310r\351\227\256T\032)%\352\317\004\3202y\264J>+\024"
 573      AE541A29 
 573      25EACF04 
 573      D03279B4 
 573      4A3E2B14 
 574 1343 7964167C 		.ascii	"yd\026|\226\31015\014\225a\225e\221\020\336!\265\000"
 574      96C83135 
 574      0C956195 
 574      659110DE 
 574      21B500
 575 1356 691156B2 		.ascii	"i\021V\262\211\030\372\226\017\222\325\376\276\221j"
 575      8918FA96 
 575      0F92D5FE 
 575      BE916A
 576 1365 4506340E 		.ascii	"E\0064\016\277\020\240\215}p?\227\336/\226\201\351\376"
 576      BF10A08D 
 576      7D703F97 
 576      DE2F9681 
 576      E9FE
 577 1377 F7A6B14B 		.ascii	"\367\246\261K\223\224\004\021nnB\035D\004\370\004\221"
 577      93940411 
 577      6E6E421D 
 577      4404F804 
 577      91
 578 1388 47367C91 		.ascii	"G6|\221i5\207\\/\257\300\372}.-\025\340\374\221\322"
 578      6935875C 
 578      2FAFC0FA 
 578      7D2E2D15 
 578      E0FC91D2 
 579 139c B0128C94 		.ascii	"\260\022\214\224\202\256\372\205c\352\257\334\364,\221"
ARM GAS  /tmp/ccUrJHvI.s 			page 46


 579      82AEFA85 
 579      63EAAFDC 
 579      F42C91
 580 13ab 87560E87 		.ascii	"\207V\016\207\276 \316\276C\207\027\225\312\221\021"
 580      BE20CEBE 
 580      43871795 
 580      CA9111
 581 13ba 45B17022 		.ascii	"E\261p\"\321?\007\344\233@\245\207\324`\262\236\253"
 581      D13F07E4 
 581      9B40A587 
 581      D460B29E 
 581      AB
 582 13cb C8E19217 		.ascii	"\310\341\222\027B\261(\230\247\332\005.\247\276wUK\311"
 582      42B12898 
 582      A7DA052E 
 582      A7BE7755 
 582      4BC9
 583 13dd 9744E88F 		.ascii	"\227D\350\217\225r\245L\025d\271\224E\277Q8Z\017T\240"
 583      9572A54C 
 583      1564B994 
 583      45BF5138 
 583      5A0F54A0 
 584 13f1 1AE08368 		.ascii	"\032\340\203h\241\217[\003/\217WDc\262\222(|\252\250"
 584      A18F5B03 
 584      2F8F5744 
 584      63B29228 
 584      7CAAA8
 585 1404 087830A7 		.ascii	"\010x0\247O\246Z\241D\313C\024.Z\236\031)\207i3Z\355"
 585      4FA65AA1 
 585      44CB4314 
 585      2E5A9E19 
 585      29876933 
 586 141a E169DE00 		.ascii	"\341i\336\000N\016\332+L\304\210:\372!o\223n\344\303"
 586      4E0EDA2B 
 586      4CC4883A 
 586      FA216F93 
 586      6EE4C3
 587 142d 7132FD15 		.ascii	"q2\375\025y8\250.\244J\312C\222\362\257\222\322KR\036"
 587      7938A82E 
 587      A44ACA43 
 587      92F2AF92 
 587      D24B521E 
 588 1441 9694DE92 		.ascii	"\226\224\336\222\362\210O\351\331\003\316\236RL\201"
 588      F2884FE9 
 588      D903CE9E 
 588      524C81
 589 1450 8F07332A 		.ascii	"\217\0073*B0H&\021\303(Y\201\317\362X\211\254\020\261"
 589      42304826 
 589      11C32859 
 589      81CFF258 
 589      89AC10B1 
 590 1464 84E33258 		.ascii	"\204\3432X\304\210p,:\274,\244\242C\351\365PH5\\\004"
 590      C488702C 
 590      3ABC2CA4 
 590      A243E9F5 
 590      5048355C 
 591 1479 562B6036 		.ascii	"V+`6\215\210E\343Q5K\205\211\250\202\3203\311\315\336"
ARM GAS  /tmp/ccUrJHvI.s 			page 47


 591      8D8845E3 
 591      51354B85 
 591      89A882D0 
 591      33C9CDDE 
 592 148d 2062DA0C 		.ascii	" b\332\014j\231\244\025\334\313T\343\345%2~\037\026"
 592      6A99A415 
 592      DCCB54E3 
 592      E525327E 
 592      1F16
 593 149f 0B0F4F64 		.ascii	"\013\017Od\252\212<,\201\302\"\225\214xb8\3344\274\017"
 593      AA8A3C2C 
 593      81C22295 
 593      8C786238 
 593      DC34BC0F 
 594 14b3 74376A01 		.ascii	"t7j\001\245\344\005\270\225%\217\216\252\021\000\010"
 594      A5E405B8 
 594      95258F8E 
 594      AA110008 
 595 14c3 8C52CB87 		.ascii	"\214R\313\207\376\241\242\233\241K\350*+rY\004\2003"
 595      FEA1A29B 
 595      A14BE82A 
 595      2B725904 
 595      8033
 596 14d5 46A9AA52 		.ascii	"F\251\252R\221KLE\216\207+JA\034\356lW&\"\3134\214$"
 596      914B4C45 
 596      8E872B4A 
 596      411CEE6C 
 596      572622CB 
 597 14ec 23520696 		.ascii	"#R\006\226\225\221\010\301'\214\0057+\262\0002^\011"
 597      959108C1 
 597      278C0537 
 597      2BB20032 
 597      5E09
 598 14fe 9A740517 		.ascii	"\232t\005\027WG\023\2708\205\203\317\362Qe Y\004\000"
 598      574713B8 
 598      388583CF 
 598      F2516520 
 598      590400
 599 1511 76E2D4E0 		.ascii	"v\342\324\340F\251\320\256\"G\036)\227\251\361pb\004"
 599      46A9D0AE 
 599      22471E29 
 599      97A9F170 
 599      6204
 600 1523 DC914791 		.ascii	"\334\221G\221\212\257\"T\231g\232-5\363\256\214!\223"
 600      8AAF2254 
 600      99679A2D 
 600      35F3AE8C 
 600      2193
 601 1535 2BC18AD0 		.ascii	"+\301\212\320\250pT\215\226\015\007\015\200l(\335X\205"
 601      A870548D 
 601      960D070D 
 601      806C28DD 
 601      5885
 602 1547 0B72855C 		.ascii	"\013r\205\\\006Q`8\264\202!H\373l\"\341p\014M\022.V"
 602      06516038 
 602      B4822148 
 602      FB6C22E1 
ARM GAS  /tmp/ccUrJHvI.s 			page 48


 602      700C4D12 
 603 155d 9497C75C 		.ascii	"\224\227\307\\\371_\225\310\245\033F\235\270\034NT*"
 603      F95F95C8 
 603      A51B469D 
 603      B81C4E54 
 603      2A
 604 156e 725C26C2 		.ascii	"r\\&\302\311TT\024\222\177\250\234\000\251\227+\011"
 604      C9545414 
 604      927FA89C 
 604      00A9972B 
 604      09
 605 157f D50F5356 		.ascii	"\325\017SV\015T\342e\261,KQi\254\312\216T\306+ca5:R"
 605      0D54E265 
 605      B12C4B51 
 605      69ACCA8E 
 605      54C62B63 
 606 1597 36CC2091 		.ascii	"6\314 \221\251P\301\004\024\234#\031\012\332\237b\330"
 606      A950C104 
 606      149C2319 
 606      0ADA9F62 
 606      D8
 607 15a8 9F42ED2F 		.ascii	"\237B\355/\010W+\025\320\253\232\241\020\016n\2638Z"
 607      08572B15 
 607      D0AB9AA1 
 607      100E6EB3 
 607      385A
 608 15ba 532EB7F3 		.ascii	"S.\267\363\036\230\336\310\001\217I\310!\227\300C\222"
 608      1E98DEC8 
 608      018F49C8 
 608      2197C043 
 608      92
 609 15cb 4B798623 		.ascii	"Ky\206#AgC\005\312^\011V\204\313\242\021\"\277\314h"
 609      41674305 
 609      CA5E0956 
 609      84CBA211 
 609      22BFCC68 
 610 15df 42219ACF 		.ascii	"B!\232\317\212\225GF\220\312-D\366J\030\354kh\345\260"
 610      8A954746 
 610      90CA2D44 
 610      F64A18EC 
 610      6B68E5B0 
 611 15f3 61C4EF67 		.ascii	"a\304\357g\252CC\211\350\237\344<\0022*\022B\025\302"
 611      AA434389 
 611      E89FE43C 
 611      02322A12 
 611      4215C2
 612 1606 E5048D78 		.ascii	"\345\004\215x\031\344\263\"\010%5\324,\250\241\375\007"
 612      19E4B322 
 612      082535D4 
 612      2CA8A1FD 
 612      07
 613 1617 A05F85AA 		.ascii	"\240_\205\252\004\341\203B\345\262\270\276\222\241\303"
 613      04E18342 
 613      E5B2B8BE 
 613      92A1C3
 614 1626 B3E36130 		.ascii	"\263\343a0zTt\276\032\017E`\352\015U@x\3450\377\002"
 614      7A5474BE 
ARM GAS  /tmp/ccUrJHvI.s 			page 49


 614      1A0F4560 
 614      EA0D5540 
 614      78E530FF 
 615 163b E5C38681 		.ascii	"\345\303\206\201k\227\324\270+\257\212\242\006\355\345"
 615      6B97D4B8 
 615      2BAF8AA2 
 615      06EDE5
 616 164a 8D909532 		.ascii	"\215\220\22529FE\017f]\026\212*\177\314*#2\007\332\263"
 616      3946450F 
 616      665D168A 
 616      2A7FCC2A 
 616      233207DA 
 617 165f 6110250A 		.ascii	"a\020%\012\304\227\226\230U\340?\227\355\223\027-\211"
 617      C4979698 
 617      55E03F97 
 617      ED93172D 
 617      89
 618 1670 C986F581 		.ascii	"\311\206\365\201\325I\221\322\254\020\306\245P\250\213"
 618      D54991D2 
 618      AC10C6A5 
 618      50A88B
 619 167f 59B9BF57 		.ascii	"Y\271\277W\257\007z\346\244\002\224`\271\363H\02764"
 619      AF077AE6 
 619      A4029460 
 619      B9F34817 
 619      3634
 620 1691 09FFDE89 		.ascii	"\011\377\336\211\234)N\034A\224XcN\362KH\365\025\025"
 620      9C294E1C 
 620      41945863 
 620      4EF24B48 
 620      F51515
 621 16a4 F784F301 		.ascii	"\367\204\363\001\377\240\001E\305\376\276\375\237,\226"
 621      FFA00145 
 621      C5FEBEFD 
 621      9F2C96
 622 16b3 0615FB9E 		.ascii	"\006\025\373\236|\2528\243\250h@qO,\037\360\027\025"
 622      7CAA38A3 
 622      A8684071 
 622      4F2C1FF0 
 622      1715
 623 16c5 3D59EC2B 		.ascii	"=Y\354+\0328\330\367\354\240\"\337\023\305\305\276\342"
 623      1A38D8F7 
 623      ECA022DF 
 623      13C5C5BE 
 623      E2
 624 16d6 22F80E1D 		.ascii	"\"\370\016\035\376\243\357\340b__\322s\300\023\305\322"
 624      FEA3EFE0 
 624      625F5FD2 
 624      73C013C5 
 624      D2
 625 16e7 33B4D783 		.ascii	"3\264\327\203\320~H\361\377\001\241U@="
 625      D07E48F1 
 625      FF01A155 
 625      403D
 626              		.text
 627              		.section	.gnu.lto_.symtab.5b91003db41261b9,"",%progbits
 628 0000 5F76745F 		.ascii	"_vt_init\000\000\000\000\000\000\000\000\000\000\000"
ARM GAS  /tmp/ccUrJHvI.s 			page 50


 628      696E6974 
 628      00000000 
 628      00000000 
 628      000000
 629 0013 00C40000 		.ascii	"\000\304\000\000\000chVTDoSetI\000\000\000\000\000\000"
 629      00636856 
 629      54446F53 
 629      65744900 
 629      00000000 
 630 0028 00000000 		.ascii	"\000\000\000\000\000\000\307\000\000\000chVTDoReset"
 630      0000C700 
 630      00006368 
 630      5654446F 
 630      52657365 
 631 003d 49000000 		.ascii	"I\000\000\000\000\000\000\000\000\000\000\000\000\356"
 631      00000000 
 631      00000000 
 631      00EE
 632 004b 00000063 		.ascii	"\000\000\000ch\000\000\002\000\000\000\000\000\000\000"
 632      68000002 
 632      00000000 
 632      000000
 633 005a 00000501 		.ascii	"\000\000\005\001\000\000stStartAlarm\000\000\002\000"
 633      00007374 
 633      53746172 
 633      74416C61 
 633      726D0000 
 634 0070 00000000 		.ascii	"\000\000\000\000\000\000\000\000\364\000\000\000stS"
 634      00000000 
 634      F4000000 
 634      737453
 635 007f 6574416C 		.ascii	"etAlarm\000\000\002\000\000\000\000\000\000\000\000"
 635      61726D00 
 635      00020000 
 635      00000000 
 635      0000
 636 0091 00F60000 		.ascii	"\000\366\000\000\000stStopAlarm\000\000\002\000\000"
 636      00737453 
 636      746F7041 
 636      6C61726D 
 636      00000200 
 637 00a6 00000000 		.ascii	"\000\000\000\000\000\000\000\370\000\000\000chSysHa"
 637      000000F8 
 637      00000063 
 637      68537973 
 637      4861
 638 00b8 6C740000 		.ascii	"lt\000\000\002\000\000\000\000\000\000\000\000\000\372"
 638      02000000 
 638      00000000 
 638      0000FA
 639 00c7 00000063 		.ascii	"\000\000\000chDbgCheckClassI\000\000\002\000\000\000"
 639      68446267 
 639      43686563 
 639      6B436C61 
 639      73734900 
 640 00e0 00000000 		.ascii	"\000\000\000\000\000\000\003\001\000\000"
 640      00000301 
ARM GAS  /tmp/ccUrJHvI.s 			page 51


 640      0000
 641              		.text
 642              		.section	.gnu.lto_.opts,"",%progbits
 643 0000 272D6D63 		.ascii	"'-mcpu=cortex-m4' '-mno-thumb-interwork' '-mthumb' "
 643      70753D63 
 643      6F727465 
 643      782D6D34 
 643      2720272D 
 644 0033 272D6767 		.ascii	"'-ggdb' '-O0' '-fomit-frame-pointer' '-falign-funct"
 644      64622720 
 644      272D4F30 
 644      2720272D 
 644      666F6D69 
 645 0066 696F6E73 		.ascii	"ions=16' '-ffunction-sections' '-fdata-sections' '-"
 645      3D313627 
 645      20272D66 
 645      66756E63 
 645      74696F6E 
 646 0099 666E6F2D 		.ascii	"fno-common' '-flto'\000"
 646      636F6D6D 
 646      6F6E2720 
 646      272D666C 
 646      746F2700 
 647              		.text
 648              		.cfi_sections	.debug_frame
 649              		.section	.text.st_lld_get_counter,"ax",%progbits
 650              		.align	2
 651              		.p2align 4,,15
 652              		.thumb
 653              		.thumb_func
 654              		.type	st_lld_get_counter, %function
 655              	st_lld_get_counter:
 656              	.LFB136:
 657              		.file 1 "lib/ChibiOS_16.1.4//os/hal/ports/STM32/LLD/TIMv1/st_lld.h"
 658              		.loc 1 139 0
 659              		.cfi_startproc
 660              		@ args = 0, pretend = 0, frame = 0
 661              		@ frame_needed = 0, uses_anonymous_args = 0
 662              		@ link register save eliminated.
 663              		.loc 1 141 0
 664 0000 4FF08043 		mov	r3, #1073741824
 665 0004 5B6A     		ldr	r3, [r3, #36]
 666              		.loc 1 142 0
 667 0006 1846     		mov	r0, r3
 668 0008 7047     		bx	lr
 669              		.cfi_endproc
 670              	.LFE136:
 671              		.size	st_lld_get_counter, .-st_lld_get_counter
 672 000a 00BFAFF3 		.section	.text.port_timer_start_alarm,"ax",%progbits
 672      0080
 673              		.align	2
 674              		.p2align 4,,15
 675              		.thumb
 676              		.thumb_func
 677              		.type	port_timer_start_alarm, %function
 678              	port_timer_start_alarm:
 679              	.LFB142:
ARM GAS  /tmp/ccUrJHvI.s 			page 52


 680              		.file 2 "lib/ChibiOS_16.1.4//os/rt/ports/ARMCMx/chcore_timer.h"
 681              		.loc 2 71 0
 682              		.cfi_startproc
 683              		@ args = 0, pretend = 0, frame = 8
 684              		@ frame_needed = 0, uses_anonymous_args = 0
 685 0000 00B5     		push	{lr}
 686              		.cfi_def_cfa_offset 4
 687              		.cfi_offset 14, -4
 688 0002 83B0     		sub	sp, sp, #12
 689              		.cfi_def_cfa_offset 16
 690 0004 0190     		str	r0, [sp, #4]
 691              		.loc 2 73 0
 692 0006 0198     		ldr	r0, [sp, #4]
 693 0008 FFF7FEFF 		bl	stStartAlarm
 694              		.loc 2 74 0
 695 000c 03B0     		add	sp, sp, #12
 696              		@ sp needed
 697 000e 5DF804FB 		ldr	pc, [sp], #4
 698              		.cfi_endproc
 699              	.LFE142:
 700              		.size	port_timer_start_alarm, .-port_timer_start_alarm
 701 0012 00BFAFF3 		.section	.text.port_timer_stop_alarm,"ax",%progbits
 701      0080AFF3 
 701      0080AFF3 
 701      0080
 702              		.align	2
 703              		.p2align 4,,15
 704              		.thumb
 705              		.thumb_func
 706              		.type	port_timer_stop_alarm, %function
 707              	port_timer_stop_alarm:
 708              	.LFB143:
 709              		.loc 2 81 0
 710              		.cfi_startproc
 711              		@ args = 0, pretend = 0, frame = 0
 712              		@ frame_needed = 0, uses_anonymous_args = 0
 713 0000 08B5     		push	{r3, lr}
 714              		.cfi_def_cfa_offset 8
 715              		.cfi_offset 3, -8
 716              		.cfi_offset 14, -4
 717              		.loc 2 83 0
 718 0002 FFF7FEFF 		bl	stStopAlarm
 719              		.loc 2 84 0
 720 0006 08BD     		pop	{r3, pc}
 721              		.cfi_endproc
 722              	.LFE143:
 723              		.size	port_timer_stop_alarm, .-port_timer_stop_alarm
 724 0008 AFF30080 		.section	.text.port_timer_set_alarm,"ax",%progbits
 724      AFF30080 
 725              		.align	2
 726              		.p2align 4,,15
 727              		.thumb
 728              		.thumb_func
 729              		.type	port_timer_set_alarm, %function
 730              	port_timer_set_alarm:
 731              	.LFB144:
 732              		.loc 2 93 0
ARM GAS  /tmp/ccUrJHvI.s 			page 53


 733              		.cfi_startproc
 734              		@ args = 0, pretend = 0, frame = 8
 735              		@ frame_needed = 0, uses_anonymous_args = 0
 736 0000 00B5     		push	{lr}
 737              		.cfi_def_cfa_offset 4
 738              		.cfi_offset 14, -4
 739 0002 83B0     		sub	sp, sp, #12
 740              		.cfi_def_cfa_offset 16
 741 0004 0190     		str	r0, [sp, #4]
 742              		.loc 2 95 0
 743 0006 0198     		ldr	r0, [sp, #4]
 744 0008 FFF7FEFF 		bl	stSetAlarm
 745              		.loc 2 96 0
 746 000c 03B0     		add	sp, sp, #12
 747              		@ sp needed
 748 000e 5DF804FB 		ldr	pc, [sp], #4
 749              		.cfi_endproc
 750              	.LFE144:
 751              		.size	port_timer_set_alarm, .-port_timer_set_alarm
 752 0012 00BFAFF3 		.section	.text.port_timer_get_time,"ax",%progbits
 752      0080AFF3 
 752      0080AFF3 
 752      0080
 753              		.align	2
 754              		.p2align 4,,15
 755              		.thumb
 756              		.thumb_func
 757              		.type	port_timer_get_time, %function
 758              	port_timer_get_time:
 759              	.LFB145:
 760              		.loc 2 105 0
 761              		.cfi_startproc
 762              		@ args = 0, pretend = 0, frame = 0
 763              		@ frame_needed = 0, uses_anonymous_args = 0
 764 0000 08B5     		push	{r3, lr}
 765              		.cfi_def_cfa_offset 8
 766              		.cfi_offset 3, -8
 767              		.cfi_offset 14, -4
 768              		.loc 2 107 0
 769 0002 FFF7FEFF 		bl	st_lld_get_counter
 770 0006 0346     		mov	r3, r0
 771              		.loc 2 108 0
 772 0008 1846     		mov	r0, r3
 773 000a 08BD     		pop	{r3, pc}
 774              		.cfi_endproc
 775              	.LFE145:
 776              		.size	port_timer_get_time, .-port_timer_get_time
 777 000c AFF30080 		.section	.text.chVTGetSystemTimeX,"ax",%progbits
 778              		.align	2
 779              		.p2align 4,,15
 780              		.thumb
 781              		.thumb_func
 782              		.type	chVTGetSystemTimeX, %function
 783              	chVTGetSystemTimeX:
 784              	.LFB175:
 785              		.file 3 "lib/ChibiOS_16.1.4//os/rt/include/chvt.h"
 786              		.loc 3 228 0
ARM GAS  /tmp/ccUrJHvI.s 			page 54


 787              		.cfi_startproc
 788              		@ args = 0, pretend = 0, frame = 0
 789              		@ frame_needed = 0, uses_anonymous_args = 0
 790 0000 08B5     		push	{r3, lr}
 791              		.cfi_def_cfa_offset 8
 792              		.cfi_offset 3, -8
 793              		.cfi_offset 14, -4
 794              		.loc 3 233 0
 795 0002 FFF7FEFF 		bl	port_timer_get_time
 796 0006 0346     		mov	r3, r0
 797              		.loc 3 235 0
 798 0008 1846     		mov	r0, r3
 799 000a 08BD     		pop	{r3, pc}
 800              		.cfi_endproc
 801              	.LFE175:
 802              		.size	chVTGetSystemTimeX, .-chVTGetSystemTimeX
 803              		.section	.text._vt_init,"ax",%progbits
 804              		.align	2
 805              		.p2align 4,,15
 806              		.global	_vt_init
 807              		.thumb
 808              		.thumb_func
 809              		.type	_vt_init, %function
 810              	_vt_init:
 811              	.LFB241:
 812              		.file 4 "lib/ChibiOS_16.1.4//os/rt/src/chvt.c"
 813              		.loc 4 61 0
 814              		.cfi_startproc
 815              		@ args = 0, pretend = 0, frame = 0
 816              		@ frame_needed = 0, uses_anonymous_args = 0
 817              		@ link register save eliminated.
 818              		.loc 4 63 0
 819 0000 40F20003 		movw	r3, #:lower16:ch
 820 0004 C0F20003 		movt	r3, #:upper16:ch
 821 0008 0A4A     		ldr	r2, .L11
 822 000a DA61     		str	r2, [r3, #28]
 823              		.loc 4 64 0
 824 000c 40F20003 		movw	r3, #:lower16:ch
 825 0010 C0F20003 		movt	r3, #:upper16:ch
 826 0014 074A     		ldr	r2, .L11
 827 0016 1A62     		str	r2, [r3, #32]
 828              		.loc 4 65 0
 829 0018 40F20003 		movw	r3, #:lower16:ch
 830 001c C0F20003 		movt	r3, #:upper16:ch
 831 0020 4FF0FF32 		mov	r2, #-1
 832 0024 5A62     		str	r2, [r3, #36]
 833              		.loc 4 69 0
 834 0026 40F20003 		movw	r3, #:lower16:ch
 835 002a C0F20003 		movt	r3, #:upper16:ch
 836 002e 0022     		movs	r2, #0
 837 0030 9A62     		str	r2, [r3, #40]
 838              		.loc 4 71 0
 839 0032 7047     		bx	lr
 840              	.L12:
 841              		.align	2
 842              	.L11:
 843 0034 1C000000 		.word	ch+28
ARM GAS  /tmp/ccUrJHvI.s 			page 55


 844              		.cfi_endproc
 845              	.LFE241:
 846              		.size	_vt_init, .-_vt_init
 847 0038 AFF30080 		.section	.text.chVTDoSetI,"ax",%progbits
 847      AFF30080 
 848              		.align	2
 849              		.p2align 4,,15
 850              		.global	chVTDoSetI
 851              		.thumb
 852              		.thumb_func
 853              		.type	chVTDoSetI, %function
 854              	chVTDoSetI:
 855              	.LFB242:
 856              		.loc 4 96 0
 857              		.cfi_startproc
 858              		@ args = 0, pretend = 0, frame = 32
 859              		@ frame_needed = 0, uses_anonymous_args = 0
 860 0000 00B5     		push	{lr}
 861              		.cfi_def_cfa_offset 4
 862              		.cfi_offset 14, -4
 863 0002 89B0     		sub	sp, sp, #36
 864              		.cfi_def_cfa_offset 40
 865 0004 0390     		str	r0, [sp, #12]
 866 0006 0291     		str	r1, [sp, #8]
 867 0008 0192     		str	r2, [sp, #4]
 868 000a 0093     		str	r3, [sp]
 869              		.loc 4 100 0
 870 000c FFF7FEFF 		bl	chDbgCheckClassI
 871              		.loc 4 101 0
 872 0010 039B     		ldr	r3, [sp, #12]
 873 0012 002B     		cmp	r3, #0
 874 0014 05D0     		beq	.L14
 875              		.loc 4 101 0 is_stmt 0 discriminator 2
 876 0016 019B     		ldr	r3, [sp, #4]
 877 0018 002B     		cmp	r3, #0
 878 001a 02D0     		beq	.L14
 879              		.loc 4 101 0 discriminator 1
 880 001c 029B     		ldr	r3, [sp, #8]
 881 001e 002B     		cmp	r3, #0
 882 0020 05D1     		bne	.L15
 883              	.L14:
 884 0022 40F20000 		movw	r0, #:lower16:__func__.6621
 885 0026 C0F20000 		movt	r0, #:upper16:__func__.6621
 886 002a FFF7FEFF 		bl	chSysHalt
 887              	.L15:
 888              		.loc 4 103 0 is_stmt 1
 889 002e 039B     		ldr	r3, [sp, #12]
 890 0030 009A     		ldr	r2, [sp]
 891 0032 1A61     		str	r2, [r3, #16]
 892              		.loc 4 104 0
 893 0034 039B     		ldr	r3, [sp, #12]
 894 0036 019A     		ldr	r2, [sp, #4]
 895 0038 DA60     		str	r2, [r3, #12]
 896              	.LBB2:
 897              		.loc 4 108 0
 898 003a FFF7FEFF 		bl	chVTGetSystemTimeX
 899 003e 0590     		str	r0, [sp, #20]
ARM GAS  /tmp/ccUrJHvI.s 			page 56


 900              		.loc 4 112 0
 901 0040 029B     		ldr	r3, [sp, #8]
 902 0042 012B     		cmp	r3, #1
 903 0044 01D8     		bhi	.L16
 904              		.loc 4 113 0
 905 0046 0223     		movs	r3, #2
 906 0048 0293     		str	r3, [sp, #8]
 907              	.L16:
 908              		.loc 4 117 0
 909 004a 40F20003 		movw	r3, #:lower16:ch
 910 004e C0F20003 		movt	r3, #:upper16:ch
 911 0052 DA69     		ldr	r2, [r3, #28]
 912 0054 3D4B     		ldr	r3, .L22
 913 0056 9A42     		cmp	r2, r3
 914 0058 25D1     		bne	.L17
 915              		.loc 4 121 0
 916 005a 40F20003 		movw	r3, #:lower16:ch
 917 005e C0F20003 		movt	r3, #:upper16:ch
 918 0062 059A     		ldr	r2, [sp, #20]
 919 0064 9A62     		str	r2, [r3, #40]
 920              		.loc 4 122 0
 921 0066 40F20003 		movw	r3, #:lower16:ch
 922 006a C0F20003 		movt	r3, #:upper16:ch
 923 006e 039A     		ldr	r2, [sp, #12]
 924 0070 DA61     		str	r2, [r3, #28]
 925              		.loc 4 123 0
 926 0072 40F20003 		movw	r3, #:lower16:ch
 927 0076 C0F20003 		movt	r3, #:upper16:ch
 928 007a 039A     		ldr	r2, [sp, #12]
 929 007c 1A62     		str	r2, [r3, #32]
 930              		.loc 4 124 0
 931 007e 039B     		ldr	r3, [sp, #12]
 932 0080 324A     		ldr	r2, .L22
 933 0082 1A60     		str	r2, [r3]
 934              		.loc 4 125 0
 935 0084 039B     		ldr	r3, [sp, #12]
 936 0086 314A     		ldr	r2, .L22
 937 0088 5A60     		str	r2, [r3, #4]
 938              		.loc 4 126 0
 939 008a 039B     		ldr	r3, [sp, #12]
 940 008c 029A     		ldr	r2, [sp, #8]
 941 008e 9A60     		str	r2, [r3, #8]
 942              		.loc 4 129 0
 943 0090 40F20003 		movw	r3, #:lower16:ch
 944 0094 C0F20003 		movt	r3, #:upper16:ch
 945 0098 9A6A     		ldr	r2, [r3, #40]
 946 009a 029B     		ldr	r3, [sp, #8]
 947 009c 1344     		add	r3, r3, r2
 948 009e 1846     		mov	r0, r3
 949 00a0 FFF7FEFF 		bl	port_timer_start_alarm
 950              		.loc 4 131 0
 951 00a4 4FE0     		b	.L13
 952              	.L17:
 953              		.loc 4 136 0
 954 00a6 059A     		ldr	r2, [sp, #20]
 955 00a8 029B     		ldr	r3, [sp, #8]
 956 00aa 1A44     		add	r2, r2, r3
ARM GAS  /tmp/ccUrJHvI.s 			page 57


 957 00ac 40F20003 		movw	r3, #:lower16:ch
 958 00b0 C0F20003 		movt	r3, #:upper16:ch
 959 00b4 9B6A     		ldr	r3, [r3, #40]
 960 00b6 D31A     		subs	r3, r2, r3
 961 00b8 0693     		str	r3, [sp, #24]
 962              		.loc 4 137 0
 963 00ba 40F20003 		movw	r3, #:lower16:ch
 964 00be C0F20003 		movt	r3, #:upper16:ch
 965 00c2 DB69     		ldr	r3, [r3, #28]
 966 00c4 9A68     		ldr	r2, [r3, #8]
 967 00c6 069B     		ldr	r3, [sp, #24]
 968 00c8 9A42     		cmp	r2, r3
 969 00ca 09D9     		bls	.L19
 970              		.loc 4 140 0
 971 00cc 40F20003 		movw	r3, #:lower16:ch
 972 00d0 C0F20003 		movt	r3, #:upper16:ch
 973 00d4 9A6A     		ldr	r2, [r3, #40]
 974 00d6 069B     		ldr	r3, [sp, #24]
 975 00d8 1344     		add	r3, r3, r2
 976 00da 1846     		mov	r0, r3
 977 00dc FFF7FEFF 		bl	port_timer_set_alarm
 978              	.L19:
 979              	.LBE2:
 980              		.loc 4 150 0
 981 00e0 40F20003 		movw	r3, #:lower16:ch
 982 00e4 C0F20003 		movt	r3, #:upper16:ch
 983 00e8 DB69     		ldr	r3, [r3, #28]
 984 00ea 0793     		str	r3, [sp, #28]
 985              		.loc 4 151 0
 986 00ec 07E0     		b	.L20
 987              	.L21:
 988              		.loc 4 152 0
 989 00ee 079B     		ldr	r3, [sp, #28]
 990 00f0 9B68     		ldr	r3, [r3, #8]
 991 00f2 069A     		ldr	r2, [sp, #24]
 992 00f4 D31A     		subs	r3, r2, r3
 993 00f6 0693     		str	r3, [sp, #24]
 994              		.loc 4 153 0
 995 00f8 079B     		ldr	r3, [sp, #28]
 996 00fa 1B68     		ldr	r3, [r3]
 997 00fc 0793     		str	r3, [sp, #28]
 998              	.L20:
 999              		.loc 4 151 0 discriminator 1
 1000 00fe 079B     		ldr	r3, [sp, #28]
 1001 0100 9A68     		ldr	r2, [r3, #8]
 1002 0102 069B     		ldr	r3, [sp, #24]
 1003 0104 9A42     		cmp	r2, r3
 1004 0106 F2D3     		bcc	.L21
 1005              		.loc 4 157 0
 1006 0108 039B     		ldr	r3, [sp, #12]
 1007 010a 079A     		ldr	r2, [sp, #28]
 1008 010c 1A60     		str	r2, [r3]
 1009              		.loc 4 158 0
 1010 010e 039B     		ldr	r3, [sp, #12]
 1011 0110 1B68     		ldr	r3, [r3]
 1012 0112 5A68     		ldr	r2, [r3, #4]
 1013 0114 039B     		ldr	r3, [sp, #12]
ARM GAS  /tmp/ccUrJHvI.s 			page 58


 1014 0116 5A60     		str	r2, [r3, #4]
 1015              		.loc 4 159 0
 1016 0118 039B     		ldr	r3, [sp, #12]
 1017 011a 5B68     		ldr	r3, [r3, #4]
 1018 011c 039A     		ldr	r2, [sp, #12]
 1019 011e 1A60     		str	r2, [r3]
 1020              		.loc 4 160 0
 1021 0120 079B     		ldr	r3, [sp, #28]
 1022 0122 039A     		ldr	r2, [sp, #12]
 1023 0124 5A60     		str	r2, [r3, #4]
 1024              		.loc 4 161 0
 1025 0126 039B     		ldr	r3, [sp, #12]
 1026 0128 069A     		ldr	r2, [sp, #24]
 1027 012a 9A60     		str	r2, [r3, #8]
 1028              		.loc 4 165 0
 1029 012c 079B     		ldr	r3, [sp, #28]
 1030 012e 9A68     		ldr	r2, [r3, #8]
 1031 0130 069B     		ldr	r3, [sp, #24]
 1032 0132 D21A     		subs	r2, r2, r3
 1033 0134 079B     		ldr	r3, [sp, #28]
 1034 0136 9A60     		str	r2, [r3, #8]
 1035              		.loc 4 166 0
 1036 0138 40F20003 		movw	r3, #:lower16:ch
 1037 013c C0F20003 		movt	r3, #:upper16:ch
 1038 0140 4FF0FF32 		mov	r2, #-1
 1039 0144 5A62     		str	r2, [r3, #36]
 1040              	.L13:
 1041              		.loc 4 167 0
 1042 0146 09B0     		add	sp, sp, #36
 1043              		@ sp needed
 1044 0148 5DF804FB 		ldr	pc, [sp], #4
 1045              	.L23:
 1046              		.align	2
 1047              	.L22:
 1048 014c 1C000000 		.word	ch+28
 1049              		.cfi_endproc
 1050              	.LFE242:
 1051              		.size	chVTDoSetI, .-chVTDoSetI
 1052              		.section	.text.chVTDoResetI,"ax",%progbits
 1053              		.align	2
 1054              		.p2align 4,,15
 1055              		.global	chVTDoResetI
 1056              		.thumb
 1057              		.thumb_func
 1058              		.type	chVTDoResetI, %function
 1059              	chVTDoResetI:
 1060              	.LFB243:
 1061              		.loc 4 177 0
 1062              		.cfi_startproc
 1063              		@ args = 0, pretend = 0, frame = 16
 1064              		@ frame_needed = 0, uses_anonymous_args = 0
 1065 0000 00B5     		push	{lr}
 1066              		.cfi_def_cfa_offset 4
 1067              		.cfi_offset 14, -4
 1068 0002 85B0     		sub	sp, sp, #20
 1069              		.cfi_def_cfa_offset 24
 1070 0004 0190     		str	r0, [sp, #4]
ARM GAS  /tmp/ccUrJHvI.s 			page 59


 1071              		.loc 4 179 0
 1072 0006 FFF7FEFF 		bl	chDbgCheckClassI
 1073              		.loc 4 180 0
 1074 000a 019B     		ldr	r3, [sp, #4]
 1075 000c 002B     		cmp	r3, #0
 1076 000e 05D1     		bne	.L33
 1077              		.loc 4 180 0 is_stmt 0 discriminator 1
 1078 0010 40F20000 		movw	r0, #:lower16:__func__.6629
 1079 0014 C0F20000 		movt	r0, #:upper16:__func__.6629
 1080 0018 FFF7FEFF 		bl	chSysHalt
 1081              	.L33:
 1082              		.loc 4 181 0 is_stmt 1 discriminator 1
 1083 001c 019B     		ldr	r3, [sp, #4]
 1084 001e DB68     		ldr	r3, [r3, #12]
 1085 0020 002B     		cmp	r3, #0
 1086 0022 05D1     		bne	.L26
 1087 0024 40F20000 		movw	r0, #:lower16:__func__.6629
 1088 0028 C0F20000 		movt	r0, #:upper16:__func__.6629
 1089 002c FFF7FEFF 		bl	chSysHalt
 1090              	.L26:
 1091              		.loc 4 201 0
 1092 0030 40F20003 		movw	r3, #:lower16:ch
 1093 0034 C0F20003 		movt	r3, #:upper16:ch
 1094 0038 DA69     		ldr	r2, [r3, #28]
 1095 003a 019B     		ldr	r3, [sp, #4]
 1096 003c 9A42     		cmp	r2, r3
 1097 003e 1CD0     		beq	.L27
 1098              		.loc 4 203 0
 1099 0040 019B     		ldr	r3, [sp, #4]
 1100 0042 5B68     		ldr	r3, [r3, #4]
 1101 0044 019A     		ldr	r2, [sp, #4]
 1102 0046 1268     		ldr	r2, [r2]
 1103 0048 1A60     		str	r2, [r3]
 1104              		.loc 4 204 0
 1105 004a 019B     		ldr	r3, [sp, #4]
 1106 004c 1B68     		ldr	r3, [r3]
 1107 004e 019A     		ldr	r2, [sp, #4]
 1108 0050 5268     		ldr	r2, [r2, #4]
 1109 0052 5A60     		str	r2, [r3, #4]
 1110              		.loc 4 205 0
 1111 0054 019B     		ldr	r3, [sp, #4]
 1112 0056 0022     		movs	r2, #0
 1113 0058 DA60     		str	r2, [r3, #12]
 1114              		.loc 4 208 0
 1115 005a 019B     		ldr	r3, [sp, #4]
 1116 005c 1A68     		ldr	r2, [r3]
 1117 005e 354B     		ldr	r3, .L34
 1118 0060 9A42     		cmp	r2, r3
 1119 0062 09D0     		beq	.L28
 1120              		.loc 4 209 0
 1121 0064 019B     		ldr	r3, [sp, #4]
 1122 0066 1B68     		ldr	r3, [r3]
 1123 0068 019A     		ldr	r2, [sp, #4]
 1124 006a 1268     		ldr	r2, [r2]
 1125 006c 9168     		ldr	r1, [r2, #8]
 1126 006e 019A     		ldr	r2, [sp, #4]
 1127 0070 9268     		ldr	r2, [r2, #8]
ARM GAS  /tmp/ccUrJHvI.s 			page 60


 1128 0072 0A44     		add	r2, r2, r1
 1129 0074 9A60     		str	r2, [r3, #8]
 1130              		.loc 4 211 0
 1131 0076 59E0     		b	.L24
 1132              	.L28:
 1133 0078 58E0     		b	.L24
 1134              	.L27:
 1135              		.loc 4 215 0
 1136 007a 019B     		ldr	r3, [sp, #4]
 1137 007c 1A68     		ldr	r2, [r3]
 1138 007e 40F20003 		movw	r3, #:lower16:ch
 1139 0082 C0F20003 		movt	r3, #:upper16:ch
 1140 0086 DA61     		str	r2, [r3, #28]
 1141              		.loc 4 216 0
 1142 0088 40F20003 		movw	r3, #:lower16:ch
 1143 008c C0F20003 		movt	r3, #:upper16:ch
 1144 0090 DB69     		ldr	r3, [r3, #28]
 1145 0092 284A     		ldr	r2, .L34
 1146 0094 5A60     		str	r2, [r3, #4]
 1147              		.loc 4 217 0
 1148 0096 019B     		ldr	r3, [sp, #4]
 1149 0098 0022     		movs	r2, #0
 1150 009a DA60     		str	r2, [r3, #12]
 1151              		.loc 4 220 0
 1152 009c 40F20003 		movw	r3, #:lower16:ch
 1153 00a0 C0F20003 		movt	r3, #:upper16:ch
 1154 00a4 DA69     		ldr	r2, [r3, #28]
 1155 00a6 234B     		ldr	r3, .L34
 1156 00a8 9A42     		cmp	r2, r3
 1157 00aa 02D1     		bne	.L30
 1158              		.loc 4 221 0
 1159 00ac FFF7FEFF 		bl	port_timer_stop_alarm
 1160              		.loc 4 223 0
 1161 00b0 3CE0     		b	.L24
 1162              	.L30:
 1163              		.loc 4 227 0
 1164 00b2 40F20003 		movw	r3, #:lower16:ch
 1165 00b6 C0F20003 		movt	r3, #:upper16:ch
 1166 00ba DA69     		ldr	r2, [r3, #28]
 1167 00bc 40F20003 		movw	r3, #:lower16:ch
 1168 00c0 C0F20003 		movt	r3, #:upper16:ch
 1169 00c4 DB69     		ldr	r3, [r3, #28]
 1170 00c6 9968     		ldr	r1, [r3, #8]
 1171 00c8 019B     		ldr	r3, [sp, #4]
 1172 00ca 9B68     		ldr	r3, [r3, #8]
 1173 00cc 0B44     		add	r3, r3, r1
 1174 00ce 9360     		str	r3, [r2, #8]
 1175              		.loc 4 236 0
 1176 00d0 FFF7FEFF 		bl	chVTGetSystemTimeX
 1177 00d4 0246     		mov	r2, r0
 1178 00d6 40F20003 		movw	r3, #:lower16:ch
 1179 00da C0F20003 		movt	r3, #:upper16:ch
 1180 00de 9B6A     		ldr	r3, [r3, #40]
 1181 00e0 D31A     		subs	r3, r2, r3
 1182 00e2 0293     		str	r3, [sp, #8]
 1183              		.loc 4 240 0
 1184 00e4 40F20003 		movw	r3, #:lower16:ch
ARM GAS  /tmp/ccUrJHvI.s 			page 61


 1185 00e8 C0F20003 		movt	r3, #:upper16:ch
 1186 00ec DB69     		ldr	r3, [r3, #28]
 1187 00ee 9A68     		ldr	r2, [r3, #8]
 1188 00f0 029B     		ldr	r3, [sp, #8]
 1189 00f2 9A42     		cmp	r2, r3
 1190 00f4 00D8     		bhi	.L31
 1191              		.loc 4 241 0
 1192 00f6 19E0     		b	.L24
 1193              	.L31:
 1194              		.loc 4 245 0
 1195 00f8 40F20003 		movw	r3, #:lower16:ch
 1196 00fc C0F20003 		movt	r3, #:upper16:ch
 1197 0100 DB69     		ldr	r3, [r3, #28]
 1198 0102 9A68     		ldr	r2, [r3, #8]
 1199 0104 029B     		ldr	r3, [sp, #8]
 1200 0106 D31A     		subs	r3, r2, r3
 1201 0108 0393     		str	r3, [sp, #12]
 1202              		.loc 4 249 0
 1203 010a 039B     		ldr	r3, [sp, #12]
 1204 010c 012B     		cmp	r3, #1
 1205 010e 01D8     		bhi	.L32
 1206              		.loc 4 250 0
 1207 0110 0223     		movs	r3, #2
 1208 0112 0393     		str	r3, [sp, #12]
 1209              	.L32:
 1210              		.loc 4 253 0
 1211 0114 40F20003 		movw	r3, #:lower16:ch
 1212 0118 C0F20003 		movt	r3, #:upper16:ch
 1213 011c 9A6A     		ldr	r2, [r3, #40]
 1214 011e 029B     		ldr	r3, [sp, #8]
 1215 0120 1A44     		add	r2, r2, r3
 1216 0122 039B     		ldr	r3, [sp, #12]
 1217 0124 1344     		add	r3, r3, r2
 1218 0126 1846     		mov	r0, r3
 1219 0128 FFF7FEFF 		bl	port_timer_set_alarm
 1220              	.L24:
 1221              		.loc 4 255 0
 1222 012c 05B0     		add	sp, sp, #20
 1223              		@ sp needed
 1224 012e 5DF804FB 		ldr	pc, [sp], #4
 1225              	.L35:
 1226 0132 00BF     		.align	2
 1227              	.L34:
 1228 0134 1C000000 		.word	ch+28
 1229              		.cfi_endproc
 1230              	.LFE243:
 1231              		.size	chVTDoResetI, .-chVTDoResetI
 1232 0138 AFF30080 		.section	.rodata.__func__.6621,"a",%progbits
 1232      AFF30080 
 1233              		.align	2
 1234              		.type	__func__.6621, %object
 1235              		.size	__func__.6621, 11
 1236              	__func__.6621:
 1237 0000 63685654 		.ascii	"chVTDoSetI\000"
 1237      446F5365 
 1237      744900
 1238 000b 00       		.section	.rodata.__func__.6629,"a",%progbits
ARM GAS  /tmp/ccUrJHvI.s 			page 62


 1239              		.align	2
 1240              		.type	__func__.6629, %object
 1241              		.size	__func__.6629, 13
 1242              	__func__.6629:
 1243 0000 63685654 		.ascii	"chVTDoResetI\000"
 1243      446F5265 
 1243      73657449 
 1243      00
 1244 000d 000000   		.text
 1245              	.Letext0:
 1246              		.file 5 "/usr/include/newlib/machine/_default_types.h"
 1247              		.file 6 "/usr/include/newlib/stdint.h"
 1248              		.file 7 "lib/ChibiOS_16.1.4//os/rt/ports/ARMCMx/compilers/GCC/chtypes.h"
 1249              		.file 8 "lib/ChibiOS_16.1.4//os/rt/include/chsystypes.h"
 1250              		.file 9 "lib/ChibiOS_16.1.4//os/rt/include/chschd.h"
 1251              		.file 10 "lib/ChibiOS_16.1.4//os/rt/ports/ARMCMx/chcore.h"
 1252              		.file 11 "lib/ChibiOS_16.1.4//os/rt/ports/ARMCMx/chcore_v7m.h"
 1253              		.file 12 "lib/ChibiOS_16.1.4//os/hal/ports/STM32/LLD/TIMv1/stm32_tim.h"
 1254              		.file 13 "lib/ChibiOS_16.1.4//os/rt/include/chdebug.h"
 1255              		.file 14 "lib/ChibiOS_16.1.4//os/rt/include/chtm.h"
 1256              		.file 15 "lib/ChibiOS_16.1.4//os/rt/include/chstats.h"
 1257              		.file 16 "lib/ChibiOS_16.1.4//os/rt/include/chsem.h"
 1258              		.file 17 "lib/ChibiOS_16.1.4//os/rt/include/chmtx.h"
 1259              		.file 18 "lib/ChibiOS_16.1.4//os/ext/CMSIS/include/core_cm4.h"