ARM GAS  /tmp/ccdpHH2M.s 			page 1


   1              		.syntax unified
   2              		.cpu cortex-m4
   3              		.fpu softvfp
   4              		.eabi_attribute 20, 1
   5              		.eabi_attribute 21, 1
   6              		.eabi_attribute 23, 3
   7              		.eabi_attribute 24, 1
   8              		.eabi_attribute 25, 1
   9              		.eabi_attribute 26, 1
  10              		.eabi_attribute 30, 6
  11              		.eabi_attribute 34, 1
  12              		.eabi_attribute 18, 4
  13              		.thumb
  14              		.file	"crt1.c"
  15              		.text
  16              	.Ltext0:
  17              		.section	.gnu.lto_.inline.c7623022ddace067,"",%progbits
  18 0000 789C6362 		.ascii	"x\234cb`b\300\006b\2404+\003\0033P\005\023\323\002y"
  18      6062C006 
  18      62A0342B 
  18      03033350 
  18      0513D302 
  19 0015 0616885A 		.ascii	"\006\026\210ZF\014\021&\014\021f0\005\302P\001\026\006"
  19      460C1126 
  19      0C116630 
  19      05C25001 
  19      1606
  20 0027 1161A080 		.ascii	"\021a\240\200\312\207\025L0!\006\000\336\300\004\321"
  20      CA87154C 
  20      30210600 
  20      DEC004D1 
  21              		.text
  22              		.section	.gnu.lto___core_init.c7623022ddace067,"",%progbits
  23 0000 789C6362 		.ascii	"x\234cb`b@\007\"@\354\013\304V \0163\003#P\005#\023"
  23      60624007 
  23      2240EC0B 
  23      C456200E 
  23      33032350 
  24 0017 232390C3 		.ascii	"##\220\303\310P\317\304X\037\311\010V\266\236\351\300"
  24      C850CFC4 
  24      581FC908 
  24      56B69EE9 
  24      C0
  25 0028 83FFFFD7 		.ascii	"\203\377\377\327m\350\232\363\206q%\023H\214\225\241"
  25      6DE89AF3 
  25      86712513 
  25      488C95A1 
  26 0038 A5A16182 		.ascii	"\245\241a\202\002\003C2XE\010\230\014\005\351g\276\310"
  26      02034332 
  26      58450898 
  26      0C05E967 
  26      BEC8
  27 004a C098C8B8 		.ascii	"\300\230\310\270\220\221\025nI\010\310@\220\335\026"
  27      9091156E 
  27      4908C840 
  27      90DD16
  28 0059 7A7AFA70 		.ascii	"zz\372p\224_\254\237\234\237\233\233\237\247_\220_T"
ARM GAS  /tmp/ccdpHH2M.s 			page 2


  28      945FAC9F 
  28      9C9F9B9B 
  28      9FA75F90 
  28      5F54
  29 006b 52ACEF18 		.ascii	"R\254\357\030\344\353\354[\001\022+\310\314I-*\326w"
  29      E4EBEC5B 
  29      01122BC8 
  29      CC492D2A 
  29      D677
  30 007d 7776D64F 		.ascii	"wv\326O.*1\324Kf\000\000\021=!\242"
  30      2E2A31D4 
  30      4B660000 
  30      113D21A2 
  31              		.text
  32              		.section	.gnu.lto___early_init.c7623022ddace067,"",%progbits
  33 0000 789C6362 		.ascii	"x\234cb`b@\007\"@\354\005\304V \0163\003#P\005#\023"
  33      60624007 
  33      2240EC05 
  33      C456200E 
  33      33032350 
  34 0017 232390C3 		.ascii	"##\220\303\310P\317\304X\037\311\010V\266\236\351\300"
  34      C850CFC4 
  34      581FC908 
  34      56B69EE9 
  34      C0
  35 0028 83FFFFD7 		.ascii	"\203\377\377\327};5G\002$\300\312\320\322\3200A\201"
  35      7D3B3547 
  35      0224C0CA 
  35      D0D2D030 
  35      4181
  36 003a 8121192C 		.ascii	"\201!\031,\035\002&CA\232\231/20&2.dd\205\333\020\002"
  36      1D022643 
  36      419A992F 
  36      32302632 
  36      2E646485 
  37 0051 320D64B1 		.ascii	"2\015d\261\205\236\236>\034\345\027\353'\347\347\346"
  37      859E9E3E 
  37      1CE517EB 
  37      27E7E7E6 
  38 0061 E6E7E917 		.ascii	"\346\347\351\027\344\027\225\024\353;\006\371:\373V"
  38      E4179514 
  38      EB3B06F9 
  38      3AFB56
  39 0070 80C40A32 		.ascii	"\200\304\0122sR\213\212\365\335\235\235\365\223\213"
  39      73528B8A 
  39      F5DD9D9D 
  39      F5938B
  40 007f 4A0CF592 		.ascii	"J\014\365\222\031\000\202U \245"
  40      19008255 
  40      20A5
  41              		.text
  42              		.section	.gnu.lto___late_init.c7623022ddace067,"",%progbits
  43 0000 789C6362 		.ascii	"x\234cb`b@\007\"@\354\005\304V \0163\003#P\005#\023"
  43      60624007 
  43      2240EC05 
  43      C456200E 
  43      33032350 
ARM GAS  /tmp/ccdpHH2M.s 			page 3


  44 0017 232390C3 		.ascii	"##\220\303\310P\317\304X\037\311\010V\266\236\351\300"
  44      C850CFC4 
  44      581FC908 
  44      56B69EE9 
  44      C0
  45 0028 83FFFFD7 		.ascii	"\203\377\377\327m\352\236#\001\022`ehih\230\240\300"
  45      6DEA9E23 
  45      01126065 
  45      68696898 
  45      A0C0
  46 003a C0900C96 		.ascii	"\300\220\014\226\016\001\223\241 \315\314\027\031\030"
  46      0E0193A1 
  46      20CDCC17 
  46      1918
  47 0048 13191732 		.ascii	"\023\031\0272\262\302m\010\001\231\006\262\330BOO\037"
  47      B2C26D08 
  47      019906B2 
  47      D8424F4F 
  47      1F
  48 0059 8EF28BF5 		.ascii	"\216\362\213\365\223\363ss\363\363\364\013\362\213J"
  48      93F37373 
  48      F3F3F40B 
  48      F28B4A
  49 0068 8AF51D83 		.ascii	"\212\365\035\203|\235}+@b\005\2319\251E\305\372\356"
  49      7C9D7D2B 
  49      40620599 
  49      39A945C5 
  49      FAEE
  50 007a CECEFAC9 		.ascii	"\316\316\372\311E%\206z\311\014\000F2 \""
  50      4525867A 
  50      C90C0046 
  50      322022
  51              		.text
  52              		.section	.gnu.lto___default_exit.c7623022ddace067,"",%progbits
  53 0000 789C6362 		.ascii	"x\234cb`b@\007\"@l\003\304V \0163\003#P\005#\023\230"
  53      60624007 
  53      22406C03 
  53      C456200E 
  53      33032350 
  54 0018 6464A867 		.ascii	"dd\250gb\254\217d\004+[\317t\340\301\377\377\353\356"
  54      62AC8F64 
  54      042B5BCF 
  54      74E0C1FF 
  54      FFEBEE
  55 002b 9C9EBB87 		.ascii	"\234\236\273\207q=\023H\214\225\241\245\241a\202\002"
  55      713D1348 
  55      8C95A1A5 
  55      A1618202 
  56 003b 03433258 		.ascii	"\003C2XE\010\224\004\352d\016a\204hb\260\320\323\323"
  56      45089404 
  56      EA640E61 
  56      846862B0 
  56      D0D3D3
  57 004e 87A3FC62 		.ascii	"\207\243\374b\375\344\374\334\334\374<\375\202\374\242"
  57      FDE4FCDC 
  57      DCFC3CFD 
  57      82FCA2
ARM GAS  /tmp/ccdpHH2M.s 			page 4


  58 005d 92627DC7 		.ascii	"\222b}\307 _g\337\012\220XAfNjQ\261\276\273\263\263"
  58      205F67DF 
  58      0A905841 
  58      664E6A51 
  58      B1BEBBB3 
  59 0072 7E725189 		.ascii	"~rQ\211\241^2\003\000\244-\037\371"
  59      A15E3203 
  59      00A42D1F 
  59      F9
  60              		.text
  61              		.section	.gnu.lto___init_ram_areas.c7623022ddace067,"",%progbits
  62 0000 789C8D54 		.ascii	"x\234\215TMh\023Q\020\236yo\263\177M\323\202\027\013"
  62      4D681351 
  62      109E796F 
  62      B37F4DD3 
  62      82170B
  63 0013 164A2F1E 		.ascii	"\026J/\036\304\006O\212\036Ds\360\324\203b\240\036\324"
  63      C4064F8A 
  63      1E4473F0 
  63      D48362A0 
  63      1ED4
  64 0025 C6282160 		.ascii	"\306(!`LH+\010\012}i+\210\026\215b\241\332\024*\210"
  64      4C482B08 
  64      0A7D692B 
  64      88168D62 
  64      A1DA142A 
  65 003a 481B10F1 		.ascii	"H\033\020\361\022\304C\005\005\205\032\332\233\025\205"
  65      12C44305 
  65      05851ADA 
  65      9B1585
  66 0049 16314815 		.ascii	"\0261H\025\244T\017\0261\316\333}\273[\244\325<\222"
  66      A4540F16 
  66      31CEDB7D 
  66      BB5BA4D5 
  66      3C92
  67 005b 99B7F3E6 		.ascii	"\231\267\363\346\233\231\357\315\3542`\360\367:A\377"
  67      9B99EFCD 
  67      EC3260F0 
  67      F73A41FF 
  68 006b F610404C 		.ascii	"\366\020@L>4\001\222\0072\344$9\222\0315G\206\230\006"
  68      3E340192 
  68      0732E424 
  68      39921935 
  68      47869806 
  69 007f 20984E42 		.ascii	" \230NB\323\321$\213\341H\223\031\322nI\273\305\270"
  69      D3D1248B 
  69      E1489319 
  69      D26E49BB 
  69      C5B8
  70 0091 DCDB726F 		.ascii	"\334\333ro#R8\204\001\306\265\220n\230\226\215\003\307"
  70      23523884 
  70      01C6B590 
  70      6E98968D 
  70      03C7
  71 00a3 A409F44E 		.ascii	"\244\011\364N\270'\304\255\305\227\265%\274s{fxR\374"
  71      B827C4AD 
  71      C597B525 
ARM GAS  /tmp/ccdpHH2M.s 			page 5


  71      BC737B66 
  71      7852FC
  72 00b6 AAD711D3 		.ascii	"\252\327\021\323\3620\211\320C;\354p\224L\271~\271\300"
  72      F23089D0 
  72      433BEC70 
  72      944CB97E 
  72      B9C0
  73 00c8 9927D5D1 		.ascii	"\231'\325\321\266\253\223\203E\361\233piYiC\260\271"
  73      B6AB9383 
  73      45F19B70 
  73      69596943 
  73      B0B9
  74 00da EA885D2C 		.ascii	"\352\210],\\\021\365\372@\343\240\321\353\023m\"\310"
  74      5C11F5FA 
  74      40E3A0D1 
  74      EB136D22 
  74      C8
  75 00eb A531D887 		.ascii	"\2451\330\207\215!\307\2537\326#9\203\375\015\"K\325"
  75      8D21C7AB 
  75      37D62339 
  75      83FD0D22 
  75      4BD5
  76 00fd 70502783 		.ascii	"pP'\203\203\377\203=b3\213\365\372\310\312\367\245\012"
  76      83FF833D 
  76      62338BF5 
  76      FAC8CAF7 
  76      A50A
  77 010f 6E694148 		.ascii	"niAH\340}\354\244F'\360\001iN\372!iM\351\220:\327\325"
  77      E07DECA4 
  77      4627F001 
  77      694EFA21 
  77      694DE990 
  78 0126 B9A1EC26 		.ascii	"\271\241\354&P6\213\004\330\312\322\244<\302\362\244"
  78      50368B04 
  78      D8CAD2A4 
  78      3CC2F2A4 
  79 0136 5919230A 		.ascii	"Y\031#\012N+\004\303B\024;\274\347\244\323\335\243\216"
  79      4E2B04C3 
  79      42143BBC 
  79      E7A4D3DD 
  79      A38E
  80 0148 8CCB29E2 		.ascii	"\214\313)\342o`pmh\272\2647\201S4C)\014]\20451&\304"
  80      6F60706D 
  80      68BAB437 
  80      81533443 
  80      290C5D84 
  81 0160 4D2211CA 		.ascii	"M\"\021\312`\300 .\373!\335\337U>\376D?\256L\356f\005"
  81      60C0202E 
  81      FB21DDDF 
  81      553EFE44 
  81      3FAE4CEE 
  82 0176 7063D04A 		.ascii	"pc\320J\241\276\003\246DQ\210\223i\324\307\341.\005"
  82      A1BE03A6 
  82      44518893 
  82      69D4C7E1 
  82      2E05
  83 0188 335288F2 		.ascii	"3R\210\362f\334\2139\345G\226\021\337R\304\004\226\235"
ARM GAS  /tmp/ccdpHH2M.s 			page 6


  83      66DC8B39 
  83      E5479611 
  83      DF52C404 
  83      969D
  84 019a 020C853C 		.ascii	"\002\014\205<\276)2(j\001\220*f\345\225\317\244#\326"
  84      BE293228 
  84      6A01902A 
  84      66E595CF 
  84      A423D6
  85 01ad EC8F5E59 		.ascii	"\354\217^Y\247\346\326\371\364\362\227\3226/\252\345"
  85      A7E6D6F9 
  85      F4F297D2 
  85      362FAAE5 
  86 01bd 863253C8 		.ascii	"\2062S\310z\334y\364\222\277\236\323]'\362(\010!Z\034"
  86      7ADC79F4 
  86      92BF9ED3 
  86      5D27F228 
  86      08215A1C 
  87 01d1 2F1E7811 		.ascii	"/\036x\021X:\016]\033\372V\332\352\305\263\225\213\323"
  87      583A0E5D 
  87      1BFA56DA 
  87      EAC5B395 
  87      8BD3
  88 01e3 67E770B5 		.ascii	"g\347p\265\324\346\0356\251,\376\020\304\345\265\270"
  88      D4E61D36 
  88      A92CFE10 
  88      C4E5B5B8 
  89 01f3 77575B60 		.ascii	"wW[`\236\233)\231\266nJ\323\373\012\274\202\027\265"
  89      9E9B2999 
  89      B66E4AD3 
  89      FB0ABC82 
  89      17B5
  90 0205 C26E1F94 		.ascii	"\302n\037\224\362\213'\372\214n\232\277_\271D9\265\331"
  90      F28B27FA 
  90      8C6E9ABF 
  90      5FB94439 
  90      B5D9
  91 0217 D5D30BC0 		.ascii	"\325\323\013\300\351\002\371Wi\260\265g\253\275\262"
  91      E902F957 
  91      69B0B567 
  91      ABBDB2
  92 0226 D7F439E0 		.ascii	"\327\3649\340q4\334\002*\225\345y\334\200\257\026\360"
  92      7134DC02 
  92      2A95E579 
  92      DC80AF16 
  92      F0
  93 0237 953B133C 		.ascii	"\225;\023<Z\323\023>\347f\345\266\216\226\251h\215-"
  93      5AD3133E 
  93      E766E5B6 
  93      8E96A968 
  93      8D2D
  94 0249 07B4C2FF 		.ascii	"\007\264\302\377\246\3057\244\025N\241\026\320\322\210"
  94      A6C537A4 
  94      154EA116 
  94      D0D288
  95 0258 A44E2D6D 		.ascii	"\244N-m6\312nK-'\017\225\363\270\335CDT\\\326\352\006"
  95      36CA6E4B 
ARM GAS  /tmp/ccdpHH2M.s 			page 7


  95      2D270F95 
  95      F3B8DD43 
  95      44545CD6 
  96 026e FBF4FC43 		.ascii	"\373\364\374C\025\275)\216\250)>LywBY\316\323y*%\343"
  96      15BD298E 
  96      A8293E4C 
  96      79774259 
  96      CED3792A 
  97 0284 BEA39609 		.ascii	"\276\243\226\011\033\2558\322W\221\317Ca\261\262\335"
  97      1BAD38D2 
  97      5791CF43 
  97      61B1B2DD 
  98 0294 1F65705F 		.ascii	"\037ep_\030\2329\331\217=]]Q\377\227\355\213&\263\231"
  98      189A39D9 
  98      8F3D5D5D 
  98      51FF97ED 
  98      8B26B399 
  99 02a8 4CF65C34 		.ascii	"L\366\\4\227\315\367\367E\017\034\351\216u_\220\266"
  99      97CDF7F7 
  99      450F1CE9 
  99      8E755F90 
  99      B6
 100 02b9 5CFAEC99 		.ascii	"\\\372\354\231|_\364P,\026M\346\373wu%\201\347\0239"
 100      7C5FF450 
 100      2C164DE6 
 100      FB777525 
 100      81E71339 
 101 02cd D69FC3DC 		.ascii	"\326\237\303\334\037\353\0174\236"
 101      1FEB0F34 
 101      9E
 102              		.text
 103              		.section	.gnu.lto_.symbol_nodes.c7623022ddace067,"",%progbits
 104 0000 789C4DD0 		.ascii	"x\234M\320\333ZAa\024\205\341\371\375\313\242\215D$"
 104      DB5A4161 
 104      1485E1F9 
 104      FDCBA28D 
 104      4424
 105 0012 7B5D44F7 		.ascii	"{]D\367\367\227})\024\251P\272\"\207n\246H\343q`\315"
 105      F7977D29 
 105      14A950BA 
 105      22876EA6 
 105      48E37160 
 106 0027 93F7F94E 		.ascii	"\223\367\371N\306\301t\346\354\006\333\237\3735o6Z\231"
 106      C6C174E6 
 106      EC06DB9F 
 106      FB356F36 
 106      5A99
 107 0039 79BFEEE1 		.ascii	"y\277\356\3416\346\211\344\326\274\213\344\237\371 "
 107      36E689E4 
 107      D6BC8BE4 
 107      9FF920
 108 0048 92B7F8D8 		.ascii	"\222\267\370\330!\303\037\263\270\017\302;\370\337\014"
 108      21C31FB3 
 108      B80FC23B 
 108      F8DF0C
 109 0057 1B38D124 		.ascii	"\0338\321$\020-b\242M(:\304E\227\204\350q$\3569\026"
 109      102D62A2 
ARM GAS  /tmp/ccdpHH2M.s 			page 8


 109      4D283AC4 
 109      459784E8 
 109      7124EE39 
 110 006c 0F9C883E 		.ascii	"\017\234\210>\247\342\221\244x\342L\014H\211!\347bD"
 110      A7E291A4 
 110      78E24C0C 
 110      488921E7 
 110      6244
 111 007e 5A3C9311 		.ascii	"Z<\223\021/\\\2101Y1!'^\271\024S\362\342\215+\361NA"
 111      2F5C8831 
 111      59312127 
 111      5EB91453 
 111      F2E28D2B 
 112 0095 7C501433 		.ascii	"|P\0243JbNY,\250\210O\252\342\213\232XR\027\337\\\353"
 112      4A624E59 
 112      2CA8884F 
 112      AAE28B9A 
 112      585217DF 
 113 00ab 593B79EA 		.ascii	"Y;y\352@/"
 113      402F
 114              		.text
 115              		.section	.gnu.lto_.refs.c7623022ddace067,"",%progbits
 116 0000 789C25C1 		.ascii	"x\234%\301[\026BP\000\000\300{\346\270Ry\246\007J\221"
 116      5B164250 
 116      0000C07B 
 116      E6B85279 
 116      A6074A91 
 117 0014 2CA6FD6F 		.ascii	",\246\375o\310\207\031A\370\207\235D\024\247(u\2209"
 117      C8871941 
 117      F8879D44 
 117      14A72875 
 117      9039
 118 0026 3A39CB15 		.ascii	":9\313\025J\225Z\343\242uus\367\320\351\015\236^Fo\037"
 118      4A955AE3 
 118      A2757573 
 118      F7D0E90D 
 118      9E5E466F 
 119 003b 93D9D7E2 		.ascii	"\223\331\327\342g\015\033s\304\003w"
 119      670D1B73 
 119      C40377
 120              		.text
 121              		.section	.gnu.lto_.decls.c7623022ddace067,"",%progbits
 122 0000 789C9558 		.ascii	"x\234\225X[lTE\030\2369[\332n\273\024D\305` lU4!\322"
 122      5B6C5445 
 122      189E395B 
 122      DA6EBB14 
 122      44C56020 
 123 0019 A5776F20 		.ascii	"\245wo \246\017\370\002\017\032\022\337\216\307\345"
 123      A60FF802 
 123      0F1A12DF 
 123      8EC7E5
 124 0028 18366E77 		.ascii	"\0306nw\311\356i\200\3602\020,\004\022R\220\246\222"
 124      C9EE6980 
 124      F032102C 
 124      04125290 
 124      A692
 125 003a 86CB2A34 		.ascii	"\206\313*4%\026\323\322\330Z\241\366\264\011Pl0hS\015"
ARM GAS  /tmp/ccdpHH2M.s 			page 9


 125      2516D3D2 
 125      D85AA1F6 
 125      B409506C 
 125      3068530D 
 126 004e 16B55EA2 		.ascii	"\026\265^\242\201h\202A1\240\262\376\347\262\227\231"
 126      81688241 
 126      31A0B2FE 
 126      E7B29799 
 127 005e 33B34327 		.ascii	"3\263C'\373mg\316\371\277\377\233\231o\376iZ\005)\250"
 127      FB6D67CE 
 127      F9BFFF9B 
 127      996FFE69 
 127      5A0529A8 
 128 0072 07239486 		.ascii	"\007#\224\206\226z\010\241\027}\010\025#\204V\243\\"
 128      967A08A1 
 128      177D0815 
 128      238456A3 
 128      5C
 129 0083 9B034801 		.ascii	"\233\003H\001\272\001=\200^\300\000\240\0220\004\370"
 129      BA013D80 
 129      5EC000A0 
 129      123004F8 
 130 0093 0A701570 		.ascii	"\012p\025p\015\360=\340'\300/\200\353\200\337\0007\001"
 130      0DF03DE0 
 130      27C02F80 
 130      EB80DF00 
 130      3701
 131 00a5 B700B701 		.ascii	"\267\000\267\001w\000\377YIA\323\007(\006\224\001\346"
 131      7700FF59 
 131      4941D307 
 131      28069401 
 131      E6
 132 00b6 02E6031E 		.ascii	"\002\346\003\036\004<\002x\024\260\004\020\004<\001"
 132      043C0278 
 132      14B00410 
 132      043C01
 133 00c5 780AB01C 		.ascii	"x\012\260\034\260\002P\015\250\0034\002\236\303\210"
 133      B002500D 
 133      A8033402 
 133      9EC388
 134 00d4 6AA9BC3E 		.ascii	"j\251\274>f\306\231\326\315\304tsbz\230\230\036NL/\023"
 134      66C699D6 
 134      CDC47473 
 134      627A9898 
 134      1E4E4C2F 
 135 00e9 D3CB89B1 		.ascii	"\323\313\211\261\366\251\014P\002\250\000\004\000\243"
 135      F6A90C50 
 135      02A80004 
 135      00A3
 136 00f7 801780B0 		.ascii	"\200\027\200\260\012\260\032p\026\306c\200\"\027&\340"
 136      0AB01A70 
 136      16C66380 
 136      221726E0 
 137 0107 12600270 		.ascii	"\022`\002p\331\315=\340\376\034b\362/EG\311qs\346\355"
 137      D9CD3DE0 
 137      FE1C62F2 
 137      2F4547C9 
ARM GAS  /tmp/ccdpHH2M.s 			page 10


 137      7173E6ED 
 138 011b AEBE45E4 		.ascii	"\256\276E\344\370\316\321tzd\015Z\210\332\011\264\343"
 138      F8CED174 
 138      7A640D5A 
 138      88DA09B4 
 138      E3
 139 012c AD846043 		.ascii	"\255\204`C\303\253\037F\257a\015W\370Q\320\356\004\374"
 139      C3AB1F46 
 139      AF610D57 
 139      F851D0EE 
 139      04FC
 140 013e B60A421A 		.ascii	"\266\012B\032~\017/t{\033|N>\005=\217\321rt\012\370"
 140      7E0F2F74 
 140      7B1B7C4E 
 140      3E053D8F 
 140      D172740A 
 141 0153 6D84FCF8 		.ascii	"m\204\374\3708\263\275\320|\020\003\237\365\3317O\242"
 141      38B3BDD0 
 141      7C10039F 
 141      F5D9374F 
 141      A2
 142 0164 93961CE9 		.ascii	"\223\226\034\351&>[\314J\227\302K\3639\032~\037+\336"
 142      263E5BCC 
 142      4A97C24B 
 142      F3391A7E 
 142      1F2BDE
 143 0177 699BB73F 		.ascii	"i\233\267?\013\264\215\316\244\323\307\202\316\\\024"
 143      0BB48DCE 
 143      A4D3C782 
 143      CE5C14
 144 0186 F42A86E0 		.ascii	"\364*\206\340\023xyNJ\303]9.O\253\233\325:\305\325:"
 144      1378794E 
 144      4AC35D39 
 144      2E4FAB9B 
 144      D53AC5D5 
 145 019b 33C16ABD 		.ascii	"3\301j\275>{\255\036V\3534Gk\324\274\346\321\212\012"
 145      3E7BAD1E 
 145      56EB3447 
 145      6BD4BCE6 
 145      D18A0A
 146 01ae B5DCFDDC 		.ascii	"\265\334\375\334\236\277\323<\351^V\272\217\273\314"
 146      9EBFD33C 
 146      E95E56BA 
 146      8FBBCC
 147 01bd B6CF036D 		.ascii	"\266\317\003m;(\351]8_[\224~\200M?H\247\177\014\245"
 147      3B28E95D 
 147      385F5B94 
 147      7E804D3F 
 147      48A77F0C 
 148 01d2 C8952BE6 		.ascii	"\310\225+\346\235\326c\030\016\032!\367\322i\374\000"
 148      9DD66318 
 148      0E1A21F7 
 148      D269FC00 
 149 01e2 6AB3D204 		.ascii	"j\263\322\004\307+\026\240\003\366\221\203\0237\016"
 149      C72B16A0 
 149      03F69183 
 149      13370E
ARM GAS  /tmp/ccdpHH2M.s 			page 11


 150 01f1 C7DC3D6F 		.ascii	"\307\334=o\004g\016\334|\310\260\014\235\200Ce\336\232"
 150      04670EDC 
 150      7CC8B00C 
 150      9D804365 
 150      DE9A
 151 0203 ABB8D141 		.ascii	"\253\270\321Aa\250\206\317\341eH\032f\005~\212\027\270"
 151      61A886CF 
 151      E165481A 
 151      66057E8A 
 151      17B8
 152 0215 ABB3F313 		.ascii	"\253\263\363\023\363\252\036t\236\"f\325y\255\022\301"
 152      F3AA1E74 
 152      9E2266D5 
 152      79AD12C1 
 153 0225 4C779AD3 		.ascii	"Lw\232\323\327/ar0P\216\366\302\310\252\227\227\307"
 153      D72F6172 
 153      30508EF6 
 153      C2C8AA97 
 153      97C7
 154 0237 41634F6E 		.ascii	"AcOn\200\270\225\343,dfz\357\371Q\014;\001/\306\260"
 154      80B895E3 
 154      2C64667A 
 154      EFF9510C 
 154      3B012FC6 
 155 024c 1F36BA9F 		.ascii	"\0376\272\237\331\350\373Oug\337\271g\011)\325\360y"
 155      D9E8FB4F 
 155      7567DFB9 
 155      670929D5 
 155      F079
 156 025e 3BD10D26 		.ascii	";\321\015&\221\206K\374\26490\316\004X\331\354\327n"
 156      91864BFC 
 156      B43930CE 
 156      0458D9EC 
 156      D76E
 157 0270 C7BAC9E7 		.ascii	"\307\272\311\347\241\331\206\213n\210Q\\\236I\243\240"
 157      A1D9868B 
 157      6E88515C 
 157      9E49A3A0 
 158 0280 BFEC7959 		.ascii	"\277\354yY{\313\013w\273Ns\003\250\375\2369\337y\004"
 158      7BCB0B77 
 158      BB4E7303 
 158      A8FD9E39 
 158      DF7904
 159 0293 6EA931EC 		.ascii	"n\2511\354\244\205\223\251\3146_\220\362\357;}|e&\327"
 159      A48593A9 
 159      CC365F90 
 159      F2EF3B7D 
 159      7C6526D7 
 160 02a7 FEFBC955 		.ascii	"\376\373\311U*\234\233y3/\327\341Y\347\0122\007\314"
 160      2A9C9B79 
 160      332FD7E1 
 160      59E70A32 
 160      07CC
 161 02b9 D96D0D8F 		.ascii	"\331m\015\217\3001\326\260\211+\341\373\222\375=a\177"
 161      C031D6B0 
 161      892BE1FB 
 161      92FD3D61 
ARM GAS  /tmp/ccdpHH2M.s 			page 12


 161      7F
 162 02ca 5FC695B9 		.ascii	"_\306\225\271`\005u)\254\341\316\001\316\313\227;\347"
 162      60057529 
 162      ACE1CE01 
 162      CECB973B 
 162      E7
 163 02db 489E3153 		.ascii	"H\2361S-\245\231\311\022\347v\311\025\254\206\207s\313"
 163      2DA599C9 
 163      12E776C9 
 163      15AC8687 
 163      73CB
 164 02ed F3C469F8 		.ascii	"\363\304i\370\012\024\267\325\3543L\3343l\207\210N\312"
 164      0A14B7D5 
 164      EC334CDC 
 164      336C8788 
 164      4ECA
 165 02ff 17D89FD5 		.ascii	"\027\330\237\325\016\370s\235\022j\031\231(X\364@v\321"
 165      0EF8739D 
 165      126A1999 
 165      2858F440 
 165      76D1
 166 0311 E2697CE9 		.ascii	"\342i|\351^Bu\250\237\3541\255\353\352\023\230X\326"
 166      5E4275A8 
 166      9FEC31AD 
 166      EBEA1398 
 166      58D6
 167 0323 40E7F11A 		.ascii	"@\347\361\032\015\237\265w\307\332\225\355\350.\331"
 167      0D9FB577 
 167      C7DA95ED 
 167      E82ED9
 168 0332 43CC7F5A 		.ascii	"C\314\177Z\025\307M\353\336\2329h\036\270ph\021I\271"
 168      15C74DEB 
 168      DE9A3968 
 168      1EB87068 
 168      1149B9
 169 0345 F756A660 		.ascii	"\367V\246`Mv\006\236E}M]\202\316\216g\024.,f\024\272"
 169      4D76069E 
 169      457D4D5D 
 169      82CE8E67 
 169      142E2C66 
 170 035b BC0A9352 		.ascii	"\274\012\223R\205o\030\205\211|\205\247i\205\326\001"
 170      856F1885 
 170      897C85A7 
 170      6985D601 
 171 036b AFC20F52 		.ascii	"\257\302\017R\205o\031\205\313\371\273\264\212Q\270"
 171      856F1985 
 171      CBF9BBB4 
 171      8A51B8
 172 037a 800F93B1 		.ascii	"\200\017\223\261]\204\374\013\022Y\215\233R\215\031"
 172      5D84FC0B 
 172      12598D9B 
 172      528D19
 173 0389 FA97851B 		.ascii	"\372\227\205\033\206\013\030\224f\014\352\340\031D|"
 173      860B1894 
 173      660CEAE0 
 173      19447C
 174 0398 32E19FC5 		.ascii	"2\341\237\305\006\245\031\203:x\006\275#U\370UlP\232"
ARM GAS  /tmp/ccdpHH2M.s 			page 13


 174      06A51983 
 174      3A7806BD 
 174      2355F855 
 174      6C509A
 175 03ab 31A88367 		.ascii	"1\250\203gPJ\252pClP\2321\250\203oP\257T\343w\256AJ"
 175      504AAA70 
 175      436C509A 
 175      31A8836F 
 175      50AF54E3 
 176 03c3 0183DA77 		.ascii	"\001\203\332w\323\006\035\341V\220T\370\017\261A\355"
 176      D3061DE1 
 176      569054F8 
 176      0FB141ED 
 177 03d3 1717330A 		.ascii	"\027\0273\012\274\012\222*\374)6\250\375\"m\320\021"
 177      BC0A922A 
 177      FC2936A8 
 177      FD226DD0 
 177      11
 178 03e4 6E054915 		.ascii	"n\005I\025\376\026\033\324\276{\025\243\300\257 \251"
 178      FE161BD4 
 178      BE7B15A3 
 178      C0AF20A9 
 179 03f4 C65DAE41 		.ascii	"\306]\256A\276\002\006u2\006\365s+\250H&|OlP'cP?\267"
 179      BE020675 
 179      3206F573 
 179      2BA84826 
 179      7C4F6C50 
 180 040d 82A40A3B 		.ascii	"\202\244\012;\024\241A\235\214A\375\334\012\222*\354"
 180      14A1419D 
 180      8C41FDDC 
 180      0A922AEC 
 181 041d 52840675 		.ascii	"R\204\006u2\006\365\013*H\252\261[\341\031TT\300\240"
 181      3206F50B 
 181      2A48AAB1 
 181      5BE11954 
 181      54C0A0
 182 0430 3EC6A021 		.ascii	">\306\240!n\005I\205\367)B\203\372\030\203\206\270\025"
 182      6E054985 
 182      F7294283 
 182      FA188386 
 182      B815
 183 0442 2455D82F 		.ascii	"$U\330/6\250\2171h\210[AR\205\003b\203\372\030\203\206"
 183      36A88F31 
 183      68885B41 
 183      52850362 
 183      83FA1883 
 184 0457 041524D5 		.ascii	"\004\025$\3258\3045hN\001\203\006\031\203F\270\0254"
 184      38C43568 
 184      4E018306 
 184      198346B8 
 184      1534
 185 0469 4726FCAE 		.ascii	"G&\374\256\330\240A\306\240\021n\005I\025:\305\006\015"
 185      D8A041C6 
 185      A0116E05 
 185      49153AC5 
 185      060D
 186 047b 32068D70 		.ascii	"2\006\215p+H\252pTl\320 c\320\210\240\202\244\032)\256"
ARM GAS  /tmp/ccdpHH2M.s 			page 14


 186      2B48AA70 
 186      546CD020 
 186      63D088A0 
 186      82A41A29 
 187 0490 41C5050C 		.ascii	"A\305\005\014\032f\014\232\342V\220T\370\244\330\240"
 187      1A660C9A 
 187      E2569054 
 187      F8A4D8A0 
 188 04a0 61C6A029 		.ascii	"a\306\240)n\005I\025\272\305\006\0153\006Mq+H\252\360"
 188      6E054915 
 188      BAC5060D 
 188      33064D71 
 188      2B48AAF0 
 189 04b4 81D8A061 		.ascii	"\201\330\240a\306\240)A\005I5>\344\032TR\300\240I\306"
 189      C6A02941 
 189      0549353E 
 189      E41A5452 
 189      C0A049C6 
 190 04c8 A0696E05 		.ascii	"\240in\005\025\313\204\317\210\015\232d\014\232\346"
 190      15CB84CF 
 190      880D9A64 
 190      0C9AE6
 191 04d7 569054E1 		.ascii	"V\220T\341#\261A\223\214A\323\334\012\222*|,6h\2221"
 191      23B14193 
 191      8C41D3DC 
 191      0A922A7C 
 191      2C366892 
 192 04ec 685A5041 		.ascii	"hZPAR\215\263\264A\010Q\377\272p\374\021q\317)\345\002"
 192      528DB3B4 
 192      410851FF 
 192      BA70FC11 
 192      71CF29E5 
 193 0501 56DE9F54 		.ascii	"V\336\237T\036\3260\207e\332,k\316\367\361_\003\364"
 193      1ED63087 
 193      65DA2C6B 
 193      CEF7F15F 
 193      03F4
 194 0513 4C555528 		.ascii	"LUU(\373\211'C\341xss<\026\332\034O\030\311\320K\257"
 194      FB892743 
 194      E1787373 
 194      3C16DA1C 
 194      4F18C9D0 
 195 0529 AC6B5AB7 		.ascii	"\254kZ\267\325z\2669\022\325\023\311\320\332\246\246"
 195      D57AB639 
 195      12D513C9 
 195      D0DAA6A6 
 196 0539 50386154 		.ascii	"P8aTW\205Q\271\252\206\343\011]\215\304\"F\361\332\365"
 196      578551B9 
 196      AA86E309 
 196      5D8DC422 
 196      46F1DAF5 
 197 054d 1B824DA8 		.ascii	"\033\202M\250h\213\256\275\025PU]KD\267\331/ (\252\031"
 197      688BAEBD 
 197      1550555D 
 197      4B44B7D9 
 197      2F2028AA 
 198 0562 4E5085AA 		.ascii	"NP\205\252n\324\337\324Z\242\206\252o\215\030\2451`"
ARM GAS  /tmp/ccdpHH2M.s 			page 15


 198      6ED4DFD4 
 198      5AA286AA 
 198      6F8D18A5 
 198      3160
 199 0574 1B2D89D8 		.ascii	"\033-\211\330|\325~\255&\264fUK\350ZrI\250%\231\010"
 199      7CD57EAD 
 199      26B46655 
 199      4BE85A72 
 199      49A82599 
 200 0589 4562E168 		.ascii	"Eb\341h\313F=\024\323\267D#o\204\222\306\306H\314\250"
 200      CB463D14 
 200      D3B74423 
 200      6F8492C6 
 200      C648CCA8 
 201 059d DA844A5B 		.ascii	"\332\204J[\340gm\215j\254\340\2055k\341M\221\230\036"
 201      E0676D8D 
 201      6AACE085 
 201      356BE14D 
 201      91981E
 202 05b0 CA4A19DB 		.ascii	"\312J\031\3336\353I\240\225\251j\206Xa\313\031\372V"
 202      36EB49A0 
 202      95A96A86 
 202      5861CB19 
 202      FA56
 203 05c2 C3D6F3DB 		.ascii	"\303\326\363\333C\253W\026\216\302\324\355n \026W\263"
 203      43AB5716 
 203      8EC2D4ED 
 203      6E201657 
 203      B3
 204 05d3 CFE75953 		.ascii	"\317\347YS\313\216T\303\237\235\352\002\325\232\366"
 204      CB8E54C3 
 204      9F9DEA02 
 204      D59AF6
 205 05e2 4A359751 		.ascii	"J5\227Q\235\233\377H\255pGNfu\236;\214\305\235\327\016"
 205      9D9BFF48 
 205      AD70474E 
 205      66759E3B 
 205      8CC59DD7 
 206 05f7 BFDACBAF 		.ascii	"\277\332\313\257\246\370\3254\277\232\341\327x\3715"
 206      A6F8D534 
 206      BF9AE1D7 
 206      78F935
 207 0606 14BF86E6 		.ascii	"\024\277\206\346\3270\374Z/\277\226\342\327\322\374"
 207      D730FC5A 
 207      2FBF96E2 
 207      D7D2FC
 208 0615 5A865FE7 		.ascii	"Z\206_\347\345\327Q\374:\232_\307\360\353\275\374z\212"
 208      E5D751FC 
 208      3A9A5FC7 
 208      F0EBBDFC 
 208      7A8A
 209 0627 5F4FF3EB 		.ascii	"_O\363\353\031~\203\227\337@\361\033h~\003\303o\364"
 209      197E8397 
 209      DF40F11B 
 209      687E03C3 
 209      6FF4
 210 0639 F21B297E 		.ascii	"\362\033)~#\315o\314\362\377\007\215\251\002\370"
ARM GAS  /tmp/ccdpHH2M.s 			page 16


 210      23CD6FCC 
 210      F2FF078D 
 210      A902F8
 211              		.text
 212              		.section	.gnu.lto_.symtab.c7623022ddace067,"",%progbits
 213 0000 5F5F636F 		.ascii	"__core_init\000\000\001\000\000\000\000\000\000\000"
 213      72655F69 
 213      6E697400 
 213      00010000 
 213      00000000 
 214 0015 0000A100 		.ascii	"\000\000\241\000\000\000__early_init\000\000\001\000"
 214      00005F5F 
 214      6561726C 
 214      795F696E 
 214      69740000 
 215 002b 00000000 		.ascii	"\000\000\000\000\000\000\000\000\250\000\000\000__l"
 215      00000000 
 215      A8000000 
 215      5F5F6C
 216 003a 6174655F 		.ascii	"ate_init\000\000\001\000\000\000\000\000\000\000\000"
 216      696E6974 
 216      00000100 
 216      00000000 
 216      000000
 217 004d 00AC0000 		.ascii	"\000\254\000\000\000__default_exit\000\000\001\000\000"
 217      005F5F64 
 217      65666175 
 217      6C745F65 
 217      78697400 
 218 0065 00000000 		.ascii	"\000\000\000\000\000\000\000\260\000\000\000__init_"
 218      000000B0 
 218      0000005F 
 218      5F696E69 
 218      745F
 219 0077 72616D5F 		.ascii	"ram_areas\000\000\000\000\000\000\000\000\000\000\000"
 219      61726561 
 219      73000000 
 219      00000000 
 219      00000000 
 220 008b 00B60000 		.ascii	"\000\266\000\000\000__ram0_init_text__\000\000\002\000"
 220      005F5F72 
 220      616D305F 
 220      696E6974 
 220      5F746578 
 221 00a6 00000000 		.ascii	"\000\000\000\000\000\000\000\000\326\000\000\000__r"
 221      00000000 
 221      D6000000 
 221      5F5F72
 222 00b5 616D305F 		.ascii	"am0_init__\000\000\002\000\000\000\000\000\000\000\000"
 222      696E6974 
 222      5F5F0000 
 222      02000000 
 222      00000000 
 223 00ca 00D90000 		.ascii	"\000\331\000\000\000__ram0_clear__\000\000\002\000\000"
 223      005F5F72 
 223      616D305F 
 223      636C6561 
ARM GAS  /tmp/ccdpHH2M.s 			page 17


 223      725F5F00 
 224 00e2 00000000 		.ascii	"\000\000\000\000\000\000\000\334\000\000\000__ram0_"
 224      000000DC 
 224      0000005F 
 224      5F72616D 
 224      305F
 225 00f4 6E6F696E 		.ascii	"noinit__\000\000\002\000\000\000\000\000\000\000\000"
 225      69745F5F 
 225      00000200 
 225      00000000 
 225      000000
 226 0107 00DF0000 		.ascii	"\000\337\000\000\000__ram1_init_text__\000\000\002\000"
 226      005F5F72 
 226      616D315F 
 226      696E6974 
 226      5F746578 
 227 0122 00000000 		.ascii	"\000\000\000\000\000\000\000\000\343\000\000\000__r"
 227      00000000 
 227      E3000000 
 227      5F5F72
 228 0131 616D315F 		.ascii	"am1_init__\000\000\002\000\000\000\000\000\000\000\000"
 228      696E6974 
 228      5F5F0000 
 228      02000000 
 228      00000000 
 229 0146 00E60000 		.ascii	"\000\346\000\000\000__ram1_clear__\000\000\002\000\000"
 229      005F5F72 
 229      616D315F 
 229      636C6561 
 229      725F5F00 
 230 015e 00000000 		.ascii	"\000\000\000\000\000\000\000\351\000\000\000__ram1_"
 230      000000E9 
 230      0000005F 
 230      5F72616D 
 230      315F
 231 0170 6E6F696E 		.ascii	"noinit__\000\000\002\000\000\000\000\000\000\000\000"
 231      69745F5F 
 231      00000200 
 231      00000000 
 231      000000
 232 0183 00EC0000 		.ascii	"\000\354\000\000\000__ram2_init_text__\000\000\002\000"
 232      005F5F72 
 232      616D325F 
 232      696E6974 
 232      5F746578 
 233 019e 00000000 		.ascii	"\000\000\000\000\000\000\000\000\360\000\000\000__r"
 233      00000000 
 233      F0000000 
 233      5F5F72
 234 01ad 616D325F 		.ascii	"am2_init__\000\000\002\000\000\000\000\000\000\000\000"
 234      696E6974 
 234      5F5F0000 
 234      02000000 
 234      00000000 
 235 01c2 00F30000 		.ascii	"\000\363\000\000\000__ram2_clear__\000\000\002\000\000"
 235      005F5F72 
 235      616D325F 
ARM GAS  /tmp/ccdpHH2M.s 			page 18


 235      636C6561 
 235      725F5F00 
 236 01da 00000000 		.ascii	"\000\000\000\000\000\000\000\366\000\000\000__ram2_"
 236      000000F6 
 236      0000005F 
 236      5F72616D 
 236      325F
 237 01ec 6E6F696E 		.ascii	"noinit__\000\000\002\000\000\000\000\000\000\000\000"
 237      69745F5F 
 237      00000200 
 237      00000000 
 237      000000
 238 01ff 00F90000 		.ascii	"\000\371\000\000\000__ram3_init_text__\000\000\002\000"
 238      005F5F72 
 238      616D335F 
 238      696E6974 
 238      5F746578 
 239 021a 00000000 		.ascii	"\000\000\000\000\000\000\000\000\375\000\000\000__r"
 239      00000000 
 239      FD000000 
 239      5F5F72
 240 0229 616D335F 		.ascii	"am3_init__\000\000\002\000\000\000\000\000\000\000\000"
 240      696E6974 
 240      5F5F0000 
 240      02000000 
 240      00000000 
 241 023e 00000100 		.ascii	"\000\000\001\000\000__ram3_clear__\000\000\002\000\000"
 241      005F5F72 
 241      616D335F 
 241      636C6561 
 241      725F5F00 
 242 0256 00000000 		.ascii	"\000\000\000\000\000\000\000\003\001\000\000__ram3_"
 242      00000003 
 242      0100005F 
 242      5F72616D 
 242      335F
 243 0268 6E6F696E 		.ascii	"noinit__\000\000\002\000\000\000\000\000\000\000\000"
 243      69745F5F 
 243      00000200 
 243      00000000 
 243      000000
 244 027b 00060100 		.ascii	"\000\006\001\000\000__ram4_init_text__\000\000\002\000"
 244      005F5F72 
 244      616D345F 
 244      696E6974 
 244      5F746578 
 245 0296 00000000 		.ascii	"\000\000\000\000\000\000\000\000\012\001\000\000__r"
 245      00000000 
 245      0A010000 
 245      5F5F72
 246 02a5 616D345F 		.ascii	"am4_init__\000\000\002\000\000\000\000\000\000\000\000"
 246      696E6974 
 246      5F5F0000 
 246      02000000 
 246      00000000 
 247 02ba 000D0100 		.ascii	"\000\015\001\000\000__ram4_clear__\000\000\002\000\000"
 247      005F5F72 
ARM GAS  /tmp/ccdpHH2M.s 			page 19


 247      616D345F 
 247      636C6561 
 247      725F5F00 
 248 02d2 00000000 		.ascii	"\000\000\000\000\000\000\000\020\001\000\000__ram4_"
 248      00000010 
 248      0100005F 
 248      5F72616D 
 248      345F
 249 02e4 6E6F696E 		.ascii	"noinit__\000\000\002\000\000\000\000\000\000\000\000"
 249      69745F5F 
 249      00000200 
 249      00000000 
 249      000000
 250 02f7 00130100 		.ascii	"\000\023\001\000\000__ram5_init_text__\000\000\002\000"
 250      005F5F72 
 250      616D355F 
 250      696E6974 
 250      5F746578 
 251 0312 00000000 		.ascii	"\000\000\000\000\000\000\000\000\027\001\000\000__r"
 251      00000000 
 251      17010000 
 251      5F5F72
 252 0321 616D355F 		.ascii	"am5_init__\000\000\002\000\000\000\000\000\000\000\000"
 252      696E6974 
 252      5F5F0000 
 252      02000000 
 252      00000000 
 253 0336 001A0100 		.ascii	"\000\032\001\000\000__ram5_clear__\000\000\002\000\000"
 253      005F5F72 
 253      616D355F 
 253      636C6561 
 253      725F5F00 
 254 034e 00000000 		.ascii	"\000\000\000\000\000\000\000\035\001\000\000__ram5_"
 254      0000001D 
 254      0100005F 
 254      5F72616D 
 254      355F
 255 0360 6E6F696E 		.ascii	"noinit__\000\000\002\000\000\000\000\000\000\000\000"
 255      69745F5F 
 255      00000200 
 255      00000000 
 255      000000
 256 0373 00200100 		.ascii	"\000 \001\000\000__ram6_init_text__\000\000\002\000"
 256      005F5F72 
 256      616D365F 
 256      696E6974 
 256      5F746578 
 257 038e 00000000 		.ascii	"\000\000\000\000\000\000\000\000$\001\000\000__ram6"
 257      00000000 
 257      24010000 
 257      5F5F7261 
 257      6D36
 258 03a0 5F696E69 		.ascii	"_init__\000\000\002\000\000\000\000\000\000\000\000"
 258      745F5F00 
 258      00020000 
 258      00000000 
 258      0000
ARM GAS  /tmp/ccdpHH2M.s 			page 20


 259 03b2 00270100 		.ascii	"\000'\001\000\000__ram6_clear__\000\000\002\000\000"
 259      005F5F72 
 259      616D365F 
 259      636C6561 
 259      725F5F00 
 260 03ca 00000000 		.ascii	"\000\000\000\000\000\000\000*\001\000\000__ram6_noi"
 260      0000002A 
 260      0100005F 
 260      5F72616D 
 260      365F6E6F 
 261 03df 6E69745F 		.ascii	"nit__\000\000\002\000\000\000\000\000\000\000\000\000"
 261      5F000002 
 261      00000000 
 261      00000000 
 261      00
 262 03f0 2D010000 		.ascii	"-\001\000\000__ra"
 262      5F5F7261 
 263 03f8 6D375F69 		.ascii	"m7_init_text__\000\000\002\000\000\000\000\000\000\000"
 263      6E69745F 
 263      74657874 
 263      5F5F0000 
 263      02000000 
 264 0410 00003101 		.ascii	"\000\0001\001\000\000__ram7_init__\000\000\002\000\000"
 264      00005F5F 
 264      72616D37 
 264      5F696E69 
 264      745F5F00 
 265 0428 00000000 		.ascii	"\000\000\000\000\000\000\0004\001\000\000__ram7_cle"
 265      00000034 
 265      0100005F 
 265      5F72616D 
 265      375F636C 
 266 043d 61725F5F 		.ascii	"ar__\000\000\002\000\000\000\000\000\000\000\000\000"
 266      00000200 
 266      00000000 
 266      00000000 
 267 044d 37010000 		.ascii	"7\001\000\000__ram7_noinit__\000\000\002\000\000\000"
 267      5F5F7261 
 267      6D375F6E 
 267      6F696E69 
 267      745F5F00 
 268 0466 00000000 		.ascii	"\000\000\000\000\000\000:\001\000\000"
 268      00003A01 
 268      0000
 269              		.text
 270              		.section	.gnu.lto_.opts,"",%progbits
 271 0000 272D6D63 		.ascii	"'-mcpu=cortex-m4' '-mno-thumb-interwork' '-mthumb' "
 271      70753D63 
 271      6F727465 
 271      782D6D34 
 271      2720272D 
 272 0033 272D6767 		.ascii	"'-ggdb' '-O0' '-fomit-frame-pointer' '-falign-funct"
 272      64622720 
 272      272D4F30 
 272      2720272D 
 272      666F6D69 
 273 0066 696F6E73 		.ascii	"ions=16' '-ffunction-sections' '-fdata-sections' '-"
ARM GAS  /tmp/ccdpHH2M.s 			page 21


 273      3D313627 
 273      20272D66 
 273      66756E63 
 273      74696F6E 
 274 0099 666E6F2D 		.ascii	"fno-common' '-flto'\000"
 274      636F6D6D 
 274      6F6E2720 
 274      272D666C 
 274      746F2700 
 275              		.text
 276              		.cfi_sections	.debug_frame
 277              		.section	.rodata.ram_areas,"a",%progbits
 278              		.align	2
 279              		.type	ram_areas, %object
 280              		.size	ram_areas, 128
 281              	ram_areas:
 282 0000 00000000 		.word	__ram0_init_text__
 283 0004 00000000 		.word	__ram0_init__
 284 0008 00000000 		.word	__ram0_clear__
 285 000c 00000000 		.word	__ram0_noinit__
 286 0010 00000000 		.word	__ram1_init_text__
 287 0014 00000000 		.word	__ram1_init__
 288 0018 00000000 		.word	__ram1_clear__
 289 001c 00000000 		.word	__ram1_noinit__
 290 0020 00000000 		.word	__ram2_init_text__
 291 0024 00000000 		.word	__ram2_init__
 292 0028 00000000 		.word	__ram2_clear__
 293 002c 00000000 		.word	__ram2_noinit__
 294 0030 00000000 		.word	__ram3_init_text__
 295 0034 00000000 		.word	__ram3_init__
 296 0038 00000000 		.word	__ram3_clear__
 297 003c 00000000 		.word	__ram3_noinit__
 298 0040 00000000 		.word	__ram4_init_text__
 299 0044 00000000 		.word	__ram4_init__
 300 0048 00000000 		.word	__ram4_clear__
 301 004c 00000000 		.word	__ram4_noinit__
 302 0050 00000000 		.word	__ram5_init_text__
 303 0054 00000000 		.word	__ram5_init__
 304 0058 00000000 		.word	__ram5_clear__
 305 005c 00000000 		.word	__ram5_noinit__
 306 0060 00000000 		.word	__ram6_init_text__
 307 0064 00000000 		.word	__ram6_init__
 308 0068 00000000 		.word	__ram6_clear__
 309 006c 00000000 		.word	__ram6_noinit__
 310 0070 00000000 		.word	__ram7_init_text__
 311 0074 00000000 		.word	__ram7_init__
 312 0078 00000000 		.word	__ram7_clear__
 313 007c 00000000 		.word	__ram7_noinit__
 314              		.section	.text.__core_init,"ax",%progbits
 315              		.align	2
 316              		.p2align 4,,15
 317              		.weak	__core_init
 318              		.thumb
 319              		.thumb_func
 320              		.type	__core_init, %function
 321              	__core_init:
 322              	.LFB123:
ARM GAS  /tmp/ccdpHH2M.s 			page 22


 323              		.file 1 "../../../../os/common/ports/ARMCMx/compilers/GCC/crt1.c"
 324              		.loc 1 136 0
 325              		.cfi_startproc
 326              		@ args = 0, pretend = 0, frame = 0
 327              		@ frame_needed = 0, uses_anonymous_args = 0
 328              		@ link register save eliminated.
 329              		.loc 1 142 0
 330 0000 7047     		bx	lr
 331              		.cfi_endproc
 332              	.LFE123:
 333              		.size	__core_init, .-__core_init
 334 0002 00BFAFF3 		.section	.text.__early_init,"ax",%progbits
 334      0080AFF3 
 334      0080AFF3 
 334      0080
 335              		.align	2
 336              		.p2align 4,,15
 337              		.weak	__early_init
 338              		.thumb
 339              		.thumb_func
 340              		.type	__early_init, %function
 341              	__early_init:
 342              	.LFB124:
 343              		.loc 1 155 0
 344              		.cfi_startproc
 345              		@ args = 0, pretend = 0, frame = 0
 346              		@ frame_needed = 0, uses_anonymous_args = 0
 347              		@ link register save eliminated.
 348              		.loc 1 155 0
 349 0000 7047     		bx	lr
 350              		.cfi_endproc
 351              	.LFE124:
 352              		.size	__early_init, .-__early_init
 353 0002 00BFAFF3 		.section	.text.__late_init,"ax",%progbits
 353      0080AFF3 
 353      0080AFF3 
 353      0080
 354              		.align	2
 355              		.p2align 4,,15
 356              		.weak	__late_init
 357              		.thumb
 358              		.thumb_func
 359              		.type	__late_init, %function
 360              	__late_init:
 361              	.LFB125:
 362              		.loc 1 169 0
 363              		.cfi_startproc
 364              		@ args = 0, pretend = 0, frame = 0
 365              		@ frame_needed = 0, uses_anonymous_args = 0
 366              		@ link register save eliminated.
 367              		.loc 1 169 0
 368 0000 7047     		bx	lr
 369              		.cfi_endproc
 370              	.LFE125:
 371              		.size	__late_init, .-__late_init
 372 0002 00BFAFF3 		.section	.text.__default_exit,"ax",%progbits
 372      0080AFF3 
ARM GAS  /tmp/ccdpHH2M.s 			page 23


 372      0080AFF3 
 372      0080
 373              		.align	2
 374              		.p2align 4,,15
 375              		.weak	__default_exit
 376              		.thumb
 377              		.thumb_func
 378              		.type	__default_exit, %function
 379              	__default_exit:
 380              	.LFB126:
 381              		.loc 1 182 0
 382              		.cfi_startproc
 383              		@ args = 0, pretend = 0, frame = 0
 384              		@ frame_needed = 0, uses_anonymous_args = 0
 385              		@ link register save eliminated.
 386              	.L5:
 387              		.loc 1 186 0 discriminator 1
 388 0000 FEE7     		b	.L5
 389              		.cfi_endproc
 390              	.LFE126:
 391              		.size	__default_exit, .-__default_exit
 392 0002 00BFAFF3 		.section	.text.__init_ram_areas,"ax",%progbits
 392      0080AFF3 
 392      0080AFF3 
 392      0080
 393              		.align	2
 394              		.p2align 4,,15
 395              		.global	__init_ram_areas
 396              		.thumb
 397              		.thumb_func
 398              		.type	__init_ram_areas, %function
 399              	__init_ram_areas:
 400              	.LFB127:
 401              		.loc 1 192 0
 402              		.cfi_startproc
 403              		@ args = 0, pretend = 0, frame = 16
 404              		@ frame_needed = 0, uses_anonymous_args = 0
 405              		@ link register save eliminated.
 406 0000 84B0     		sub	sp, sp, #16
 407              		.cfi_def_cfa_offset 16
 408              		.loc 1 194 0
 409 0002 40F20003 		movw	r3, #:lower16:ram_areas
 410 0006 C0F20003 		movt	r3, #:upper16:ram_areas
 411 000a 0393     		str	r3, [sp, #12]
 412              	.L11:
 413              	.LBB2:
 414              		.loc 1 197 0
 415 000c 039B     		ldr	r3, [sp, #12]
 416 000e 1B68     		ldr	r3, [r3]
 417 0010 0293     		str	r3, [sp, #8]
 418              		.loc 1 198 0
 419 0012 039B     		ldr	r3, [sp, #12]
 420 0014 5B68     		ldr	r3, [r3, #4]
 421 0016 0193     		str	r3, [sp, #4]
 422              		.loc 1 201 0
 423 0018 09E0     		b	.L7
 424              	.L8:
ARM GAS  /tmp/ccdpHH2M.s 			page 24


 425              		.loc 1 202 0
 426 001a 029B     		ldr	r3, [sp, #8]
 427 001c 1A68     		ldr	r2, [r3]
 428 001e 019B     		ldr	r3, [sp, #4]
 429 0020 1A60     		str	r2, [r3]
 430              		.loc 1 203 0
 431 0022 019B     		ldr	r3, [sp, #4]
 432 0024 0433     		adds	r3, r3, #4
 433 0026 0193     		str	r3, [sp, #4]
 434              		.loc 1 204 0
 435 0028 029B     		ldr	r3, [sp, #8]
 436 002a 0433     		adds	r3, r3, #4
 437 002c 0293     		str	r3, [sp, #8]
 438              	.L7:
 439              		.loc 1 201 0 discriminator 1
 440 002e 039B     		ldr	r3, [sp, #12]
 441 0030 9A68     		ldr	r2, [r3, #8]
 442 0032 019B     		ldr	r3, [sp, #4]
 443 0034 9A42     		cmp	r2, r3
 444 0036 F0D8     		bhi	.L8
 445              		.loc 1 208 0
 446 0038 05E0     		b	.L9
 447              	.L10:
 448              		.loc 1 209 0
 449 003a 019B     		ldr	r3, [sp, #4]
 450 003c 0022     		movs	r2, #0
 451 003e 1A60     		str	r2, [r3]
 452              		.loc 1 210 0
 453 0040 019B     		ldr	r3, [sp, #4]
 454 0042 0433     		adds	r3, r3, #4
 455 0044 0193     		str	r3, [sp, #4]
 456              	.L9:
 457              		.loc 1 208 0 discriminator 1
 458 0046 039B     		ldr	r3, [sp, #12]
 459 0048 DA68     		ldr	r2, [r3, #12]
 460 004a 019B     		ldr	r3, [sp, #4]
 461 004c 9A42     		cmp	r2, r3
 462 004e F4D8     		bhi	.L10
 463              		.loc 1 212 0
 464 0050 039B     		ldr	r3, [sp, #12]
 465 0052 1033     		adds	r3, r3, #16
 466 0054 0393     		str	r3, [sp, #12]
 467              	.LBE2:
 468              		.loc 1 214 0
 469 0056 039A     		ldr	r2, [sp, #12]
 470 0058 024B     		ldr	r3, .L12
 471 005a 9A42     		cmp	r2, r3
 472 005c D6D3     		bcc	.L11
 473              		.loc 1 216 0
 474 005e 04B0     		add	sp, sp, #16
 475              		@ sp needed
 476 0060 7047     		bx	lr
 477              	.L13:
 478 0062 00BF     		.align	2
 479              	.L12:
 480 0064 80000000 		.word	ram_areas+128
 481              		.cfi_endproc
ARM GAS  /tmp/ccdpHH2M.s 			page 25


 482              	.LFE127:
 483              		.size	__init_ram_areas, .-__init_ram_areas
 484 0068 AFF30080 		.text
 484      AFF30080 
 485              	.Letext0:
 486              		.file 2 "/usr/include/newlib/machine/_default_types.h"
 487              		.file 3 "/usr/include/newlib/stdint.h"
 488              		.file 4 "../../../../os/ext/CMSIS/include/core_cm4.h"
 489              		.section	.debug_info,"",%progbits
 490              	.Ldebug_info0:
 491 0000 12030000 		.4byte	0x312
 492 0004 0400     		.2byte	0x4
 493 0006 00000000 		.4byte	.Ldebug_abbrev0
 494 000a 04       		.byte	0x4
 495 000b 01       		.uleb128 0x1
 496 000c 30030000 		.4byte	.LASF57
 497 0010 01       		.byte	0x1
 498 0011 3A000000 		.4byte	.LASF58
 499 0015 FF030000 		.4byte	.LASF59
 500 0019 00000000 		.4byte	.Ldebug_ranges0+0
 501 001d 00000000 		.4byte	0
 502 0021 00000000 		.4byte	.Ldebug_line0
 503 0025 02       		.uleb128 0x2
 504 0026 01       		.byte	0x1
 505 0027 06       		.byte	0x6
 506 0028 D2010000 		.4byte	.LASF0
 507 002c 02       		.uleb128 0x2
 508 002d 01       		.byte	0x1
 509 002e 08       		.byte	0x8
 510 002f 96010000 		.4byte	.LASF1
 511 0033 02       		.uleb128 0x2
 512 0034 02       		.byte	0x2
 513 0035 05       		.byte	0x5
 514 0036 72000000 		.4byte	.LASF2
 515 003a 02       		.uleb128 0x2
 516 003b 02       		.byte	0x2
 517 003c 07       		.byte	0x7
 518 003d 7D020000 		.4byte	.LASF3
 519 0041 03       		.uleb128 0x3
 520 0042 26030000 		.4byte	.LASF5
 521 0046 02       		.byte	0x2
 522 0047 37       		.byte	0x37
 523 0048 4C000000 		.4byte	0x4c
 524 004c 02       		.uleb128 0x2
 525 004d 04       		.byte	0x4
 526 004e 05       		.byte	0x5
 527 004f 40010000 		.4byte	.LASF4
 528 0053 03       		.uleb128 0x3
 529 0054 96000000 		.4byte	.LASF6
 530 0058 02       		.byte	0x2
 531 0059 38       		.byte	0x38
 532 005a 5E000000 		.4byte	0x5e
 533 005e 02       		.uleb128 0x2
 534 005f 04       		.byte	0x4
 535 0060 07       		.byte	0x7
 536 0061 1A020000 		.4byte	.LASF7
 537 0065 02       		.uleb128 0x2
ARM GAS  /tmp/ccdpHH2M.s 			page 26


 538 0066 08       		.byte	0x8
 539 0067 05       		.byte	0x5
 540 0068 F8000000 		.4byte	.LASF8
 541 006c 02       		.uleb128 0x2
 542 006d 08       		.byte	0x8
 543 006e 07       		.byte	0x7
 544 006f DE010000 		.4byte	.LASF9
 545 0073 04       		.uleb128 0x4
 546 0074 04       		.byte	0x4
 547 0075 05       		.byte	0x5
 548 0076 696E7400 		.ascii	"int\000"
 549 007a 02       		.uleb128 0x2
 550 007b 04       		.byte	0x4
 551 007c 07       		.byte	0x7
 552 007d 0D020000 		.4byte	.LASF10
 553 0081 03       		.uleb128 0x3
 554 0082 75020000 		.4byte	.LASF11
 555 0086 03       		.byte	0x3
 556 0087 41       		.byte	0x41
 557 0088 41000000 		.4byte	0x41
 558 008c 03       		.uleb128 0x3
 559 008d F5010000 		.4byte	.LASF12
 560 0091 03       		.byte	0x3
 561 0092 42       		.byte	0x42
 562 0093 53000000 		.4byte	0x53
 563 0097 02       		.uleb128 0x2
 564 0098 04       		.byte	0x4
 565 0099 07       		.byte	0x7
 566 009a 7C000000 		.4byte	.LASF13
 567 009e 05       		.uleb128 0x5
 568 009f 10       		.byte	0x10
 569 00a0 01       		.byte	0x1
 570 00a1 34       		.byte	0x34
 571 00a2 D7000000 		.4byte	0xd7
 572 00a6 06       		.uleb128 0x6
 573 00a7 60040000 		.4byte	.LASF14
 574 00ab 01       		.byte	0x1
 575 00ac 35       		.byte	0x35
 576 00ad D7000000 		.4byte	0xd7
 577 00b1 00       		.byte	0
 578 00b2 06       		.uleb128 0x6
 579 00b3 56040000 		.4byte	.LASF15
 580 00b7 01       		.byte	0x1
 581 00b8 36       		.byte	0x36
 582 00b9 D7000000 		.4byte	0xd7
 583 00bd 04       		.byte	0x4
 584 00be 06       		.uleb128 0x6
 585 00bf 2F000000 		.4byte	.LASF16
 586 00c3 01       		.byte	0x1
 587 00c4 37       		.byte	0x37
 588 00c5 D7000000 		.4byte	0xd7
 589 00c9 08       		.byte	0x8
 590 00ca 06       		.uleb128 0x6
 591 00cb 15010000 		.4byte	.LASF17
 592 00cf 01       		.byte	0x1
 593 00d0 38       		.byte	0x38
 594 00d1 D7000000 		.4byte	0xd7
ARM GAS  /tmp/ccdpHH2M.s 			page 27


 595 00d5 0C       		.byte	0xc
 596 00d6 00       		.byte	0
 597 00d7 07       		.uleb128 0x7
 598 00d8 04       		.byte	0x4
 599 00d9 8C000000 		.4byte	0x8c
 600 00dd 03       		.uleb128 0x3
 601 00de 22010000 		.4byte	.LASF18
 602 00e2 01       		.byte	0x1
 603 00e3 39       		.byte	0x39
 604 00e4 9E000000 		.4byte	0x9e
 605 00e8 08       		.uleb128 0x8
 606 00e9 C9000000 		.4byte	.LASF19
 607 00ed 01       		.byte	0x1
 608 00ee 88       		.byte	0x88
 609 00ef 00000000 		.4byte	.LFB123
 610 00f3 02000000 		.4byte	.LFE123-.LFB123
 611 00f7 01       		.uleb128 0x1
 612 00f8 9C       		.byte	0x9c
 613 00f9 08       		.uleb128 0x8
 614 00fa 68020000 		.4byte	.LASF20
 615 00fe 01       		.byte	0x1
 616 00ff 9B       		.byte	0x9b
 617 0100 00000000 		.4byte	.LFB124
 618 0104 02000000 		.4byte	.LFE124-.LFB124
 619 0108 01       		.uleb128 0x1
 620 0109 9C       		.byte	0x9c
 621 010a 08       		.uleb128 0x8
 622 010b 49010000 		.4byte	.LASF21
 623 010f 01       		.byte	0x1
 624 0110 A9       		.byte	0xa9
 625 0111 00000000 		.4byte	.LFB125
 626 0115 02000000 		.4byte	.LFE125-.LFB125
 627 0119 01       		.uleb128 0x1
 628 011a 9C       		.byte	0x9c
 629 011b 08       		.uleb128 0x8
 630 011c 06010000 		.4byte	.LASF22
 631 0120 01       		.byte	0x1
 632 0121 B6       		.byte	0xb6
 633 0122 00000000 		.4byte	.LFB126
 634 0126 02000000 		.4byte	.LFE126-.LFB126
 635 012a 01       		.uleb128 0x1
 636 012b 9C       		.byte	0x9c
 637 012c 09       		.uleb128 0x9
 638 012d 85000000 		.4byte	.LASF60
 639 0131 01       		.byte	0x1
 640 0132 C0       		.byte	0xc0
 641 0133 00000000 		.4byte	.LFB127
 642 0137 68000000 		.4byte	.LFE127-.LFB127
 643 013b 01       		.uleb128 0x1
 644 013c 9C       		.byte	0x9c
 645 013d 73010000 		.4byte	0x173
 646 0141 0A       		.uleb128 0xa
 647 0142 72617000 		.ascii	"rap\000"
 648 0146 01       		.byte	0x1
 649 0147 C2       		.byte	0xc2
 650 0148 73010000 		.4byte	0x173
 651 014c 02       		.uleb128 0x2
ARM GAS  /tmp/ccdpHH2M.s 			page 28


 652 014d 91       		.byte	0x91
 653 014e 7C       		.sleb128 -4
 654 014f 0B       		.uleb128 0xb
 655 0150 0C000000 		.4byte	.LBB2
 656 0154 4A000000 		.4byte	.LBE2-.LBB2
 657 0158 0A       		.uleb128 0xa
 658 0159 747000   		.ascii	"tp\000"
 659 015c 01       		.byte	0x1
 660 015d C5       		.byte	0xc5
 661 015e D7000000 		.4byte	0xd7
 662 0162 02       		.uleb128 0x2
 663 0163 91       		.byte	0x91
 664 0164 78       		.sleb128 -8
 665 0165 0A       		.uleb128 0xa
 666 0166 7000     		.ascii	"p\000"
 667 0168 01       		.byte	0x1
 668 0169 C6       		.byte	0xc6
 669 016a D7000000 		.4byte	0xd7
 670 016e 02       		.uleb128 0x2
 671 016f 91       		.byte	0x91
 672 0170 74       		.sleb128 -12
 673 0171 00       		.byte	0
 674 0172 00       		.byte	0
 675 0173 07       		.uleb128 0x7
 676 0174 04       		.byte	0x4
 677 0175 79010000 		.4byte	0x179
 678 0179 0C       		.uleb128 0xc
 679 017a DD000000 		.4byte	0xdd
 680 017e 0D       		.uleb128 0xd
 681 017f DD000000 		.4byte	0xdd
 682 0183 8E010000 		.4byte	0x18e
 683 0187 0E       		.uleb128 0xe
 684 0188 97000000 		.4byte	0x97
 685 018c 07       		.byte	0x7
 686 018d 00       		.byte	0
 687 018e 0F       		.uleb128 0xf
 688 018f BF000000 		.4byte	.LASF23
 689 0193 01       		.byte	0x1
 690 0194 5C       		.byte	0x5c
 691 0195 9F010000 		.4byte	0x19f
 692 0199 05       		.uleb128 0x5
 693 019a 03       		.byte	0x3
 694 019b 00000000 		.4byte	ram_areas
 695 019f 0C       		.uleb128 0xc
 696 01a0 7E010000 		.4byte	0x17e
 697 01a4 10       		.uleb128 0x10
 698 01a5 09030000 		.4byte	.LASF24
 699 01a9 04       		.byte	0x4
 700 01aa FA06     		.2byte	0x6fa
 701 01ac B0010000 		.4byte	0x1b0
 702 01b0 11       		.uleb128 0x11
 703 01b1 81000000 		.4byte	0x81
 704 01b5 12       		.uleb128 0x12
 705 01b6 A3020000 		.4byte	.LASF25
 706 01ba 01       		.byte	0x1
 707 01bb 40       		.byte	0x40
 708 01bc 8C000000 		.4byte	0x8c
ARM GAS  /tmp/ccdpHH2M.s 			page 29


 709 01c0 12       		.uleb128 0x12
 710 01c1 13000000 		.4byte	.LASF26
 711 01c5 01       		.byte	0x1
 712 01c6 40       		.byte	0x40
 713 01c7 8C000000 		.4byte	0x8c
 714 01cb 12       		.uleb128 0x12
 715 01cc E7020000 		.4byte	.LASF27
 716 01d0 01       		.byte	0x1
 717 01d1 40       		.byte	0x40
 718 01d2 8C000000 		.4byte	0x8c
 719 01d6 12       		.uleb128 0x12
 720 01d7 B3010000 		.4byte	.LASF28
 721 01db 01       		.byte	0x1
 722 01dc 40       		.byte	0x40
 723 01dd 8C000000 		.4byte	0x8c
 724 01e1 12       		.uleb128 0x12
 725 01e2 83010000 		.4byte	.LASF29
 726 01e6 01       		.byte	0x1
 727 01e7 43       		.byte	0x43
 728 01e8 8C000000 		.4byte	0x8c
 729 01ec 12       		.uleb128 0x12
 730 01ed 32010000 		.4byte	.LASF30
 731 01f1 01       		.byte	0x1
 732 01f2 43       		.byte	0x43
 733 01f3 8C000000 		.4byte	0x8c
 734 01f7 12       		.uleb128 0x12
 735 01f8 65010000 		.4byte	.LASF31
 736 01fc 01       		.byte	0x1
 737 01fd 43       		.byte	0x43
 738 01fe 8C000000 		.4byte	0x8c
 739 0202 12       		.uleb128 0x12
 740 0203 D3030000 		.4byte	.LASF32
 741 0207 01       		.byte	0x1
 742 0208 43       		.byte	0x43
 743 0209 8C000000 		.4byte	0x8c
 744 020d 12       		.uleb128 0x12
 745 020e D4020000 		.4byte	.LASF33
 746 0212 01       		.byte	0x1
 747 0213 46       		.byte	0x46
 748 0214 8C000000 		.4byte	0x8c
 749 0218 12       		.uleb128 0x12
 750 0219 C6020000 		.4byte	.LASF34
 751 021d 01       		.byte	0x1
 752 021e 46       		.byte	0x46
 753 021f 8C000000 		.4byte	0x8c
 754 0223 12       		.uleb128 0x12
 755 0224 74010000 		.4byte	.LASF35
 756 0228 01       		.byte	0x1
 757 0229 46       		.byte	0x46
 758 022a 8C000000 		.4byte	0x8c
 759 022e 12       		.uleb128 0x12
 760 022f E8000000 		.4byte	.LASF36
 761 0233 01       		.byte	0x1
 762 0234 46       		.byte	0x46
 763 0235 8C000000 		.4byte	0x8c
 764 0239 12       		.uleb128 0x12
 765 023a 43040000 		.4byte	.LASF37
ARM GAS  /tmp/ccdpHH2M.s 			page 30


 766 023e 01       		.byte	0x1
 767 023f 49       		.byte	0x49
 768 0240 8C000000 		.4byte	0x8c
 769 0244 12       		.uleb128 0x12
 770 0245 21000000 		.4byte	.LASF38
 771 0249 01       		.byte	0x1
 772 024a 49       		.byte	0x49
 773 024b 8C000000 		.4byte	0x8c
 774 024f 12       		.uleb128 0x12
 775 0250 A4010000 		.4byte	.LASF39
 776 0254 01       		.byte	0x1
 777 0255 49       		.byte	0x49
 778 0256 8C000000 		.4byte	0x8c
 779 025a 12       		.uleb128 0x12
 780 025b A1000000 		.4byte	.LASF40
 781 025f 01       		.byte	0x1
 782 0260 49       		.byte	0x49
 783 0261 8C000000 		.4byte	0x8c
 784 0265 12       		.uleb128 0x12
 785 0266 F6020000 		.4byte	.LASF41
 786 026a 01       		.byte	0x1
 787 026b 4C       		.byte	0x4c
 788 026c 8C000000 		.4byte	0x8c
 789 0270 12       		.uleb128 0x12
 790 0271 E3030000 		.4byte	.LASF42
 791 0275 01       		.byte	0x1
 792 0276 4C       		.byte	0x4c
 793 0277 8C000000 		.4byte	0x8c
 794 027b 12       		.uleb128 0x12
 795 027c C3010000 		.4byte	.LASF43
 796 0280 01       		.byte	0x1
 797 0281 4C       		.byte	0x4c
 798 0282 8C000000 		.4byte	0x8c
 799 0286 12       		.uleb128 0x12
 800 0287 3B020000 		.4byte	.LASF44
 801 028b 01       		.byte	0x1
 802 028c 4C       		.byte	0x4c
 803 028d 8C000000 		.4byte	0x8c
 804 0291 12       		.uleb128 0x12
 805 0292 00000000 		.4byte	.LASF45
 806 0296 01       		.byte	0x1
 807 0297 4F       		.byte	0x4f
 808 0298 8C000000 		.4byte	0x8c
 809 029c 12       		.uleb128 0x12
 810 029d B1000000 		.4byte	.LASF46
 811 02a1 01       		.byte	0x1
 812 02a2 4F       		.byte	0x4f
 813 02a3 8C000000 		.4byte	0x8c
 814 02a7 12       		.uleb128 0x12
 815 02a8 FE010000 		.4byte	.LASF47
 816 02ac 01       		.byte	0x1
 817 02ad 4F       		.byte	0x4f
 818 02ae 8C000000 		.4byte	0x8c
 819 02b2 12       		.uleb128 0x12
 820 02b3 B6020000 		.4byte	.LASF48
 821 02b7 01       		.byte	0x1
 822 02b8 4F       		.byte	0x4f
ARM GAS  /tmp/ccdpHH2M.s 			page 31


 823 02b9 8C000000 		.4byte	0x8c
 824 02bd 12       		.uleb128 0x12
 825 02be D5000000 		.4byte	.LASF49
 826 02c2 01       		.byte	0x1
 827 02c3 52       		.byte	0x52
 828 02c4 8C000000 		.4byte	0x8c
 829 02c8 12       		.uleb128 0x12
 830 02c9 4B020000 		.4byte	.LASF50
 831 02cd 01       		.byte	0x1
 832 02ce 52       		.byte	0x52
 833 02cf 8C000000 		.4byte	0x8c
 834 02d3 12       		.uleb128 0x12
 835 02d4 2C020000 		.4byte	.LASF51
 836 02d8 01       		.byte	0x1
 837 02d9 52       		.byte	0x52
 838 02da 8C000000 		.4byte	0x8c
 839 02de 12       		.uleb128 0x12
 840 02df 55010000 		.4byte	.LASF52
 841 02e3 01       		.byte	0x1
 842 02e4 52       		.byte	0x52
 843 02e5 8C000000 		.4byte	0x8c
 844 02e9 12       		.uleb128 0x12
 845 02ea 90020000 		.4byte	.LASF53
 846 02ee 01       		.byte	0x1
 847 02ef 55       		.byte	0x55
 848 02f0 8C000000 		.4byte	0x8c
 849 02f4 12       		.uleb128 0x12
 850 02f5 F1030000 		.4byte	.LASF54
 851 02f9 01       		.byte	0x1
 852 02fa 55       		.byte	0x55
 853 02fb 8C000000 		.4byte	0x8c
 854 02ff 12       		.uleb128 0x12
 855 0300 59020000 		.4byte	.LASF55
 856 0304 01       		.byte	0x1
 857 0305 55       		.byte	0x55
 858 0306 8C000000 		.4byte	0x8c
 859 030a 12       		.uleb128 0x12
 860 030b 16030000 		.4byte	.LASF56
 861 030f 01       		.byte	0x1
 862 0310 55       		.byte	0x55
 863 0311 8C000000 		.4byte	0x8c
 864 0315 00       		.byte	0
 865              		.section	.debug_abbrev,"",%progbits
 866              	.Ldebug_abbrev0:
 867 0000 01       		.uleb128 0x1
 868 0001 11       		.uleb128 0x11
 869 0002 01       		.byte	0x1
 870 0003 25       		.uleb128 0x25
 871 0004 0E       		.uleb128 0xe
 872 0005 13       		.uleb128 0x13
 873 0006 0B       		.uleb128 0xb
 874 0007 03       		.uleb128 0x3
 875 0008 0E       		.uleb128 0xe
 876 0009 1B       		.uleb128 0x1b
 877 000a 0E       		.uleb128 0xe
 878 000b 55       		.uleb128 0x55
 879 000c 17       		.uleb128 0x17
ARM GAS  /tmp/ccdpHH2M.s 			page 32


 880 000d 11       		.uleb128 0x11
 881 000e 01       		.uleb128 0x1
 882 000f 10       		.uleb128 0x10
 883 0010 17       		.uleb128 0x17
 884 0011 00       		.byte	0
 885 0012 00       		.byte	0
 886 0013 02       		.uleb128 0x2
 887 0014 24       		.uleb128 0x24
 888 0015 00       		.byte	0
 889 0016 0B       		.uleb128 0xb
 890 0017 0B       		.uleb128 0xb
 891 0018 3E       		.uleb128 0x3e
 892 0019 0B       		.uleb128 0xb
 893 001a 03       		.uleb128 0x3
 894 001b 0E       		.uleb128 0xe
 895 001c 00       		.byte	0
 896 001d 00       		.byte	0
 897 001e 03       		.uleb128 0x3
 898 001f 16       		.uleb128 0x16
 899 0020 00       		.byte	0
 900 0021 03       		.uleb128 0x3
 901 0022 0E       		.uleb128 0xe
 902 0023 3A       		.uleb128 0x3a
 903 0024 0B       		.uleb128 0xb
 904 0025 3B       		.uleb128 0x3b
 905 0026 0B       		.uleb128 0xb
 906 0027 49       		.uleb128 0x49
 907 0028 13       		.uleb128 0x13
 908 0029 00       		.byte	0
 909 002a 00       		.byte	0
 910 002b 04       		.uleb128 0x4
 911 002c 24       		.uleb128 0x24
 912 002d 00       		.byte	0
 913 002e 0B       		.uleb128 0xb
 914 002f 0B       		.uleb128 0xb
 915 0030 3E       		.uleb128 0x3e
 916 0031 0B       		.uleb128 0xb
 917 0032 03       		.uleb128 0x3
 918 0033 08       		.uleb128 0x8
 919 0034 00       		.byte	0
 920 0035 00       		.byte	0
 921 0036 05       		.uleb128 0x5
 922 0037 13       		.uleb128 0x13
 923 0038 01       		.byte	0x1
 924 0039 0B       		.uleb128 0xb
 925 003a 0B       		.uleb128 0xb
 926 003b 3A       		.uleb128 0x3a
 927 003c 0B       		.uleb128 0xb
 928 003d 3B       		.uleb128 0x3b
 929 003e 0B       		.uleb128 0xb
 930 003f 01       		.uleb128 0x1
 931 0040 13       		.uleb128 0x13
 932 0041 00       		.byte	0
 933 0042 00       		.byte	0
 934 0043 06       		.uleb128 0x6
 935 0044 0D       		.uleb128 0xd
 936 0045 00       		.byte	0
ARM GAS  /tmp/ccdpHH2M.s 			page 33


 937 0046 03       		.uleb128 0x3
 938 0047 0E       		.uleb128 0xe
 939 0048 3A       		.uleb128 0x3a
 940 0049 0B       		.uleb128 0xb
 941 004a 3B       		.uleb128 0x3b
 942 004b 0B       		.uleb128 0xb
 943 004c 49       		.uleb128 0x49
 944 004d 13       		.uleb128 0x13
 945 004e 38       		.uleb128 0x38
 946 004f 0B       		.uleb128 0xb
 947 0050 00       		.byte	0
 948 0051 00       		.byte	0
 949 0052 07       		.uleb128 0x7
 950 0053 0F       		.uleb128 0xf
 951 0054 00       		.byte	0
 952 0055 0B       		.uleb128 0xb
 953 0056 0B       		.uleb128 0xb
 954 0057 49       		.uleb128 0x49
 955 0058 13       		.uleb128 0x13
 956 0059 00       		.byte	0
 957 005a 00       		.byte	0
 958 005b 08       		.uleb128 0x8
 959 005c 2E       		.uleb128 0x2e
 960 005d 00       		.byte	0
 961 005e 3F       		.uleb128 0x3f
 962 005f 19       		.uleb128 0x19
 963 0060 03       		.uleb128 0x3
 964 0061 0E       		.uleb128 0xe
 965 0062 3A       		.uleb128 0x3a
 966 0063 0B       		.uleb128 0xb
 967 0064 3B       		.uleb128 0x3b
 968 0065 0B       		.uleb128 0xb
 969 0066 27       		.uleb128 0x27
 970 0067 19       		.uleb128 0x19
 971 0068 11       		.uleb128 0x11
 972 0069 01       		.uleb128 0x1
 973 006a 12       		.uleb128 0x12
 974 006b 06       		.uleb128 0x6
 975 006c 40       		.uleb128 0x40
 976 006d 18       		.uleb128 0x18
 977 006e 9742     		.uleb128 0x2117
 978 0070 19       		.uleb128 0x19
 979 0071 00       		.byte	0
 980 0072 00       		.byte	0
 981 0073 09       		.uleb128 0x9
 982 0074 2E       		.uleb128 0x2e
 983 0075 01       		.byte	0x1
 984 0076 3F       		.uleb128 0x3f
 985 0077 19       		.uleb128 0x19
 986 0078 03       		.uleb128 0x3
 987 0079 0E       		.uleb128 0xe
 988 007a 3A       		.uleb128 0x3a
 989 007b 0B       		.uleb128 0xb
 990 007c 3B       		.uleb128 0x3b
 991 007d 0B       		.uleb128 0xb
 992 007e 27       		.uleb128 0x27
 993 007f 19       		.uleb128 0x19
ARM GAS  /tmp/ccdpHH2M.s 			page 34


 994 0080 11       		.uleb128 0x11
 995 0081 01       		.uleb128 0x1
 996 0082 12       		.uleb128 0x12
 997 0083 06       		.uleb128 0x6
 998 0084 40       		.uleb128 0x40
 999 0085 18       		.uleb128 0x18
 1000 0086 9742     		.uleb128 0x2117
 1001 0088 19       		.uleb128 0x19
 1002 0089 01       		.uleb128 0x1
 1003 008a 13       		.uleb128 0x13
 1004 008b 00       		.byte	0
 1005 008c 00       		.byte	0
 1006 008d 0A       		.uleb128 0xa
 1007 008e 34       		.uleb128 0x34
 1008 008f 00       		.byte	0
 1009 0090 03       		.uleb128 0x3
 1010 0091 08       		.uleb128 0x8
 1011 0092 3A       		.uleb128 0x3a
 1012 0093 0B       		.uleb128 0xb
 1013 0094 3B       		.uleb128 0x3b
 1014 0095 0B       		.uleb128 0xb
 1015 0096 49       		.uleb128 0x49
 1016 0097 13       		.uleb128 0x13
 1017 0098 02       		.uleb128 0x2
 1018 0099 18       		.uleb128 0x18
 1019 009a 00       		.byte	0
 1020 009b 00       		.byte	0
 1021 009c 0B       		.uleb128 0xb
 1022 009d 0B       		.uleb128 0xb
 1023 009e 01       		.byte	0x1
 1024 009f 11       		.uleb128 0x11
 1025 00a0 01       		.uleb128 0x1
 1026 00a1 12       		.uleb128 0x12
 1027 00a2 06       		.uleb128 0x6
 1028 00a3 00       		.byte	0
 1029 00a4 00       		.byte	0
 1030 00a5 0C       		.uleb128 0xc
 1031 00a6 26       		.uleb128 0x26
 1032 00a7 00       		.byte	0
 1033 00a8 49       		.uleb128 0x49
 1034 00a9 13       		.uleb128 0x13
 1035 00aa 00       		.byte	0
 1036 00ab 00       		.byte	0
 1037 00ac 0D       		.uleb128 0xd
 1038 00ad 01       		.uleb128 0x1
 1039 00ae 01       		.byte	0x1
 1040 00af 49       		.uleb128 0x49
 1041 00b0 13       		.uleb128 0x13
 1042 00b1 01       		.uleb128 0x1
 1043 00b2 13       		.uleb128 0x13
 1044 00b3 00       		.byte	0
 1045 00b4 00       		.byte	0
 1046 00b5 0E       		.uleb128 0xe
 1047 00b6 21       		.uleb128 0x21
 1048 00b7 00       		.byte	0
 1049 00b8 49       		.uleb128 0x49
 1050 00b9 13       		.uleb128 0x13
ARM GAS  /tmp/ccdpHH2M.s 			page 35


 1051 00ba 2F       		.uleb128 0x2f
 1052 00bb 0B       		.uleb128 0xb
 1053 00bc 00       		.byte	0
 1054 00bd 00       		.byte	0
 1055 00be 0F       		.uleb128 0xf
 1056 00bf 34       		.uleb128 0x34
 1057 00c0 00       		.byte	0
 1058 00c1 03       		.uleb128 0x3
 1059 00c2 0E       		.uleb128 0xe
 1060 00c3 3A       		.uleb128 0x3a
 1061 00c4 0B       		.uleb128 0xb
 1062 00c5 3B       		.uleb128 0x3b
 1063 00c6 0B       		.uleb128 0xb
 1064 00c7 49       		.uleb128 0x49
 1065 00c8 13       		.uleb128 0x13
 1066 00c9 02       		.uleb128 0x2
 1067 00ca 18       		.uleb128 0x18
 1068 00cb 00       		.byte	0
 1069 00cc 00       		.byte	0
 1070 00cd 10       		.uleb128 0x10
 1071 00ce 34       		.uleb128 0x34
 1072 00cf 00       		.byte	0
 1073 00d0 03       		.uleb128 0x3
 1074 00d1 0E       		.uleb128 0xe
 1075 00d2 3A       		.uleb128 0x3a
 1076 00d3 0B       		.uleb128 0xb
 1077 00d4 3B       		.uleb128 0x3b
 1078 00d5 05       		.uleb128 0x5
 1079 00d6 49       		.uleb128 0x49
 1080 00d7 13       		.uleb128 0x13
 1081 00d8 3F       		.uleb128 0x3f
 1082 00d9 19       		.uleb128 0x19
 1083 00da 3C       		.uleb128 0x3c
 1084 00db 19       		.uleb128 0x19
 1085 00dc 00       		.byte	0
 1086 00dd 00       		.byte	0
 1087 00de 11       		.uleb128 0x11
 1088 00df 35       		.uleb128 0x35
 1089 00e0 00       		.byte	0
 1090 00e1 49       		.uleb128 0x49
 1091 00e2 13       		.uleb128 0x13
 1092 00e3 00       		.byte	0
 1093 00e4 00       		.byte	0
 1094 00e5 12       		.uleb128 0x12
 1095 00e6 34       		.uleb128 0x34
 1096 00e7 00       		.byte	0
 1097 00e8 03       		.uleb128 0x3
 1098 00e9 0E       		.uleb128 0xe
 1099 00ea 3A       		.uleb128 0x3a
 1100 00eb 0B       		.uleb128 0xb
 1101 00ec 3B       		.uleb128 0x3b
 1102 00ed 0B       		.uleb128 0xb
 1103 00ee 49       		.uleb128 0x49
 1104 00ef 13       		.uleb128 0x13
 1105 00f0 3F       		.uleb128 0x3f
 1106 00f1 19       		.uleb128 0x19
 1107 00f2 3C       		.uleb128 0x3c
ARM GAS  /tmp/ccdpHH2M.s 			page 36


 1108 00f3 19       		.uleb128 0x19
 1109 00f4 00       		.byte	0
 1110 00f5 00       		.byte	0
 1111 00f6 00       		.byte	0
 1112              		.section	.debug_aranges,"",%progbits
 1113 0000 3C000000 		.4byte	0x3c
 1114 0004 0200     		.2byte	0x2
 1115 0006 00000000 		.4byte	.Ldebug_info0
 1116 000a 04       		.byte	0x4
 1117 000b 00       		.byte	0
 1118 000c 0000     		.2byte	0
 1119 000e 0000     		.2byte	0
 1120 0010 00000000 		.4byte	.LFB123
 1121 0014 02000000 		.4byte	.LFE123-.LFB123
 1122 0018 00000000 		.4byte	.LFB124
 1123 001c 02000000 		.4byte	.LFE124-.LFB124
 1124 0020 00000000 		.4byte	.LFB125
 1125 0024 02000000 		.4byte	.LFE125-.LFB125
 1126 0028 00000000 		.4byte	.LFB126
 1127 002c 02000000 		.4byte	.LFE126-.LFB126
 1128 0030 00000000 		.4byte	.LFB127
 1129 0034 68000000 		.4byte	.LFE127-.LFB127
 1130 0038 00000000 		.4byte	0
 1131 003c 00000000 		.4byte	0
 1132              		.section	.debug_ranges,"",%progbits
 1133              	.Ldebug_ranges0:
 1134 0000 00000000 		.4byte	.LFB123
 1135 0004 02000000 		.4byte	.LFE123
 1136 0008 00000000 		.4byte	.LFB124
 1137 000c 02000000 		.4byte	.LFE124
 1138 0010 00000000 		.4byte	.LFB125
 1139 0014 02000000 		.4byte	.LFE125
 1140 0018 00000000 		.4byte	.LFB126
 1141 001c 02000000 		.4byte	.LFE126
 1142 0020 00000000 		.4byte	.LFB127
 1143 0024 68000000 		.4byte	.LFE127
 1144 0028 00000000 		.4byte	0
 1145 002c 00000000 		.4byte	0
 1146              		.section	.debug_line,"",%progbits
 1147              	.Ldebug_line0:
 1148 0000 42010000 		.section	.debug_str,"MS",%progbits,1
 1148      0200CD00 
 1148      00000201 
 1148      FB0E0D00 
 1148      01010101 
 1149              	.LASF45:
 1150 0000 5F5F7261 		.ascii	"__ram5_init_text__\000"
 1150      6D355F69 
 1150      6E69745F 
 1150      74657874 
 1150      5F5F00
 1151              	.LASF26:
 1152 0013 5F5F7261 		.ascii	"__ram0_init__\000"
 1152      6D305F69 
 1152      6E69745F 
 1152      5F00
 1153              	.LASF38:
ARM GAS  /tmp/ccdpHH2M.s 			page 37


 1154 0021 5F5F7261 		.ascii	"__ram3_init__\000"
 1154      6D335F69 
 1154      6E69745F 
 1154      5F00
 1155              	.LASF16:
 1156 002f 636C6561 		.ascii	"clear_area\000"
 1156      725F6172 
 1156      656100
 1157              	.LASF58:
 1158 003a 2E2E2F2E 		.ascii	"../../../../os/common/ports/ARMCMx/compilers/GCC/cr"
 1158      2E2F2E2E 
 1158      2F2E2E2F 
 1158      6F732F63 
 1158      6F6D6D6F 
 1159 006d 74312E63 		.ascii	"t1.c\000"
 1159      00
 1160              	.LASF2:
 1161 0072 73686F72 		.ascii	"short int\000"
 1161      7420696E 
 1161      7400
 1162              	.LASF13:
 1163 007c 73697A65 		.ascii	"sizetype\000"
 1163      74797065 
 1163      00
 1164              	.LASF60:
 1165 0085 5F5F696E 		.ascii	"__init_ram_areas\000"
 1165      69745F72 
 1165      616D5F61 
 1165      72656173 
 1165      00
 1166              	.LASF6:
 1167 0096 5F5F7569 		.ascii	"__uint32_t\000"
 1167      6E743332 
 1167      5F7400
 1168              	.LASF40:
 1169 00a1 5F5F7261 		.ascii	"__ram3_noinit__\000"
 1169      6D335F6E 
 1169      6F696E69 
 1169      745F5F00 
 1170              	.LASF46:
 1171 00b1 5F5F7261 		.ascii	"__ram5_init__\000"
 1171      6D355F69 
 1171      6E69745F 
 1171      5F00
 1172              	.LASF23:
 1173 00bf 72616D5F 		.ascii	"ram_areas\000"
 1173      61726561 
 1173      7300
 1174              	.LASF19:
 1175 00c9 5F5F636F 		.ascii	"__core_init\000"
 1175      72655F69 
 1175      6E697400 
 1176              	.LASF49:
 1177 00d5 5F5F7261 		.ascii	"__ram6_init_text__\000"
 1177      6D365F69 
 1177      6E69745F 
 1177      74657874 
ARM GAS  /tmp/ccdpHH2M.s 			page 38


 1177      5F5F00
 1178              	.LASF36:
 1179 00e8 5F5F7261 		.ascii	"__ram2_noinit__\000"
 1179      6D325F6E 
 1179      6F696E69 
 1179      745F5F00 
 1180              	.LASF8:
 1181 00f8 6C6F6E67 		.ascii	"long long int\000"
 1181      206C6F6E 
 1181      6720696E 
 1181      7400
 1182              	.LASF22:
 1183 0106 5F5F6465 		.ascii	"__default_exit\000"
 1183      6661756C 
 1183      745F6578 
 1183      697400
 1184              	.LASF17:
 1185 0115 6E6F5F69 		.ascii	"no_init_area\000"
 1185      6E69745F 
 1185      61726561 
 1185      00
 1186              	.LASF18:
 1187 0122 72616D5F 		.ascii	"ram_init_area_t\000"
 1187      696E6974 
 1187      5F617265 
 1187      615F7400 
 1188              	.LASF30:
 1189 0132 5F5F7261 		.ascii	"__ram1_init__\000"
 1189      6D315F69 
 1189      6E69745F 
 1189      5F00
 1190              	.LASF4:
 1191 0140 6C6F6E67 		.ascii	"long int\000"
 1191      20696E74 
 1191      00
 1192              	.LASF21:
 1193 0149 5F5F6C61 		.ascii	"__late_init\000"
 1193      74655F69 
 1193      6E697400 
 1194              	.LASF52:
 1195 0155 5F5F7261 		.ascii	"__ram6_noinit__\000"
 1195      6D365F6E 
 1195      6F696E69 
 1195      745F5F00 
 1196              	.LASF31:
 1197 0165 5F5F7261 		.ascii	"__ram1_clear__\000"
 1197      6D315F63 
 1197      6C656172 
 1197      5F5F00
 1198              	.LASF35:
 1199 0174 5F5F7261 		.ascii	"__ram2_clear__\000"
 1199      6D325F63 
 1199      6C656172 
 1199      5F5F00
 1200              	.LASF29:
 1201 0183 5F5F7261 		.ascii	"__ram1_init_text__\000"
 1201      6D315F69 
ARM GAS  /tmp/ccdpHH2M.s 			page 39


 1201      6E69745F 
 1201      74657874 
 1201      5F5F00
 1202              	.LASF1:
 1203 0196 756E7369 		.ascii	"unsigned char\000"
 1203      676E6564 
 1203      20636861 
 1203      7200
 1204              	.LASF39:
 1205 01a4 5F5F7261 		.ascii	"__ram3_clear__\000"
 1205      6D335F63 
 1205      6C656172 
 1205      5F5F00
 1206              	.LASF28:
 1207 01b3 5F5F7261 		.ascii	"__ram0_noinit__\000"
 1207      6D305F6E 
 1207      6F696E69 
 1207      745F5F00 
 1208              	.LASF43:
 1209 01c3 5F5F7261 		.ascii	"__ram4_clear__\000"
 1209      6D345F63 
 1209      6C656172 
 1209      5F5F00
 1210              	.LASF0:
 1211 01d2 7369676E 		.ascii	"signed char\000"
 1211      65642063 
 1211      68617200 
 1212              	.LASF9:
 1213 01de 6C6F6E67 		.ascii	"long long unsigned int\000"
 1213      206C6F6E 
 1213      6720756E 
 1213      7369676E 
 1213      65642069 
 1214              	.LASF12:
 1215 01f5 75696E74 		.ascii	"uint32_t\000"
 1215      33325F74 
 1215      00
 1216              	.LASF47:
 1217 01fe 5F5F7261 		.ascii	"__ram5_clear__\000"
 1217      6D355F63 
 1217      6C656172 
 1217      5F5F00
 1218              	.LASF10:
 1219 020d 756E7369 		.ascii	"unsigned int\000"
 1219      676E6564 
 1219      20696E74 
 1219      00
 1220              	.LASF7:
 1221 021a 6C6F6E67 		.ascii	"long unsigned int\000"
 1221      20756E73 
 1221      69676E65 
 1221      6420696E 
 1221      7400
 1222              	.LASF51:
 1223 022c 5F5F7261 		.ascii	"__ram6_clear__\000"
 1223      6D365F63 
 1223      6C656172 
ARM GAS  /tmp/ccdpHH2M.s 			page 40


 1223      5F5F00
 1224              	.LASF44:
 1225 023b 5F5F7261 		.ascii	"__ram4_noinit__\000"
 1225      6D345F6E 
 1225      6F696E69 
 1225      745F5F00 
 1226              	.LASF50:
 1227 024b 5F5F7261 		.ascii	"__ram6_init__\000"
 1227      6D365F69 
 1227      6E69745F 
 1227      5F00
 1228              	.LASF55:
 1229 0259 5F5F7261 		.ascii	"__ram7_clear__\000"
 1229      6D375F63 
 1229      6C656172 
 1229      5F5F00
 1230              	.LASF20:
 1231 0268 5F5F6561 		.ascii	"__early_init\000"
 1231      726C795F 
 1231      696E6974 
 1231      00
 1232              	.LASF11:
 1233 0275 696E7433 		.ascii	"int32_t\000"
 1233      325F7400 
 1234              	.LASF3:
 1235 027d 73686F72 		.ascii	"short unsigned int\000"
 1235      7420756E 
 1235      7369676E 
 1235      65642069 
 1235      6E7400
 1236              	.LASF53:
 1237 0290 5F5F7261 		.ascii	"__ram7_init_text__\000"
 1237      6D375F69 
 1237      6E69745F 
 1237      74657874 
 1237      5F5F00
 1238              	.LASF25:
 1239 02a3 5F5F7261 		.ascii	"__ram0_init_text__\000"
 1239      6D305F69 
 1239      6E69745F 
 1239      74657874 
 1239      5F5F00
 1240              	.LASF48:
 1241 02b6 5F5F7261 		.ascii	"__ram5_noinit__\000"
 1241      6D355F6E 
 1241      6F696E69 
 1241      745F5F00 
 1242              	.LASF34:
 1243 02c6 5F5F7261 		.ascii	"__ram2_init__\000"
 1243      6D325F69 
 1243      6E69745F 
 1243      5F00
 1244              	.LASF33:
 1245 02d4 5F5F7261 		.ascii	"__ram2_init_text__\000"
 1245      6D325F69 
 1245      6E69745F 
 1245      74657874 
ARM GAS  /tmp/ccdpHH2M.s 			page 41


 1245      5F5F00
 1246              	.LASF27:
 1247 02e7 5F5F7261 		.ascii	"__ram0_clear__\000"
 1247      6D305F63 
 1247      6C656172 
 1247      5F5F00
 1248              	.LASF41:
 1249 02f6 5F5F7261 		.ascii	"__ram4_init_text__\000"
 1249      6D345F69 
 1249      6E69745F 
 1249      74657874 
 1249      5F5F00
 1250              	.LASF24:
 1251 0309 49544D5F 		.ascii	"ITM_RxBuffer\000"
 1251      52784275 
 1251      66666572 
 1251      00
 1252              	.LASF56:
 1253 0316 5F5F7261 		.ascii	"__ram7_noinit__\000"
 1253      6D375F6E 
 1253      6F696E69 
 1253      745F5F00 
 1254              	.LASF5:
 1255 0326 5F5F696E 		.ascii	"__int32_t\000"
 1255      7433325F 
 1255      7400
 1256              	.LASF57:
 1257 0330 474E5520 		.ascii	"GNU C 4.8.2 -mcpu=cortex-m4 -mno-thumb-interwork -m"
 1257      4320342E 
 1257      382E3220 
 1257      2D6D6370 
 1257      753D636F 
 1258 0363 7468756D 		.ascii	"thumb -ggdb -O0 -fomit-frame-pointer -falign-functi"
 1258      62202D67 
 1258      67646220 
 1258      2D4F3020 
 1258      2D666F6D 
 1259 0396 6F6E733D 		.ascii	"ons=16 -ffunction-sections -fdata-sections -fno-com"
 1259      3136202D 
 1259      6666756E 
 1259      6374696F 
 1259      6E2D7365 
 1260 03c9 6D6F6E20 		.ascii	"mon -flto\000"
 1260      2D666C74 
 1260      6F00
 1261              	.LASF32:
 1262 03d3 5F5F7261 		.ascii	"__ram1_noinit__\000"
 1262      6D315F6E 
 1262      6F696E69 
 1262      745F5F00 
 1263              	.LASF42:
 1264 03e3 5F5F7261 		.ascii	"__ram4_init__\000"
 1264      6D345F69 
 1264      6E69745F 
 1264      5F00
 1265              	.LASF54:
 1266 03f1 5F5F7261 		.ascii	"__ram7_init__\000"
ARM GAS  /tmp/ccdpHH2M.s 			page 42


 1266      6D375F69 
 1266      6E69745F 
 1266      5F00
 1267              	.LASF59:
 1268 03ff 2F686F6D 		.ascii	"/home/jerker/chibios/ChibiOS_16.1.4/testhal/STM32/S"
 1268      652F6A65 
 1268      726B6572 
 1268      2F636869 
 1268      62696F73 
 1269 0432 544D3332 		.ascii	"TM32F4xx/USB_CDC\000"
 1269      46347878 
 1269      2F555342 
 1269      5F434443 
 1269      00
 1270              	.LASF37:
 1271 0443 5F5F7261 		.ascii	"__ram3_init_text__\000"
 1271      6D335F69 
 1271      6E69745F 
 1271      74657874 
 1271      5F5F00
 1272              	.LASF15:
 1273 0456 696E6974 		.ascii	"init_area\000"
 1273      5F617265 
 1273      6100
 1274              	.LASF14:
 1275 0460 696E6974 		.ascii	"init_text_area\000"
 1275      5F746578 
 1275      745F6172 
 1275      656100
 1276              		.comm	__gnu_lto_v1,1,1
 1277              		.ident	"GCC: (4.8.2-14ubuntu1+6) 4.8.2"
ARM GAS  /tmp/ccdpHH2M.s 			page 43


DEFINED SYMBOLS
                            *ABS*:0000000000000000 crt1.c
     /tmp/ccdpHH2M.s:278    .rodata.ram_areas:0000000000000000 $d
     /tmp/ccdpHH2M.s:281    .rodata.ram_areas:0000000000000000 ram_areas
     /tmp/ccdpHH2M.s:315    .text.__core_init:0000000000000000 $t
     /tmp/ccdpHH2M.s:321    .text.__core_init:0000000000000000 __core_init
     /tmp/ccdpHH2M.s:335    .text.__early_init:0000000000000000 $t
     /tmp/ccdpHH2M.s:341    .text.__early_init:0000000000000000 __early_init
     /tmp/ccdpHH2M.s:354    .text.__late_init:0000000000000000 $t
     /tmp/ccdpHH2M.s:360    .text.__late_init:0000000000000000 __late_init
     /tmp/ccdpHH2M.s:373    .text.__default_exit:0000000000000000 $t
     /tmp/ccdpHH2M.s:379    .text.__default_exit:0000000000000000 __default_exit
     /tmp/ccdpHH2M.s:393    .text.__init_ram_areas:0000000000000000 $t
     /tmp/ccdpHH2M.s:399    .text.__init_ram_areas:0000000000000000 __init_ram_areas
     /tmp/ccdpHH2M.s:480    .text.__init_ram_areas:0000000000000064 $d
                            *COM*:0000000000000001 __gnu_lto_v1
                     .debug_frame:0000000000000010 $d
     /tmp/ccdpHH2M.s:484    .text.__init_ram_areas:0000000000000068 $t

UNDEFINED SYMBOLS
__ram0_init_text__
__ram0_init__
__ram0_clear__
__ram0_noinit__
__ram1_init_text__
__ram1_init__
__ram1_clear__
__ram1_noinit__
__ram2_init_text__
__ram2_init__
__ram2_clear__
__ram2_noinit__
__ram3_init_text__
__ram3_init__
__ram3_clear__
__ram3_noinit__
__ram4_init_text__
__ram4_init__
__ram4_clear__
__ram4_noinit__
__ram5_init_text__
__ram5_init__
__ram5_clear__
__ram5_noinit__
__ram6_init_text__
__ram6_init__
__ram6_clear__
__ram6_noinit__
__ram7_init_text__
__ram7_init__
__ram7_clear__
__ram7_noinit__
