ARM GAS  /tmp/ccBegRwk.s 			page 1


   1              		.syntax unified
   2              		.cpu cortex-m4
   3              		.fpu softvfp
   4              		.eabi_attribute 20, 1
   5              		.eabi_attribute 21, 1
   6              		.eabi_attribute 23, 3
   7              		.eabi_attribute 24, 1
   8              		.eabi_attribute 25, 1
   9              		.eabi_attribute 26, 1
  10              		.eabi_attribute 30, 6
  11              		.eabi_attribute 34, 1
  12              		.eabi_attribute 18, 4
  13              		.thumb
  14              		.file	"crt1.c"
  15              		.text
  16              	.Ltext0:
  17              		.section	.gnu.lto_.inline.6440483f3f017154,"",%progbits
  18 0000 789C6362 		.ascii	"x\234cb`b\300\006b\2404+\003\0033P\005\023\323\002y"
  18      6062C006 
  18      62A0342B 
  18      03033350 
  18      0513D302 
  19 0015 0616885A 		.ascii	"\006\026\210ZF\014\021&\014\021f0\005\302P\001\026\006"
  19      460C1126 
  19      0C116630 
  19      05C25001 
  19      1606
  20 0027 1161A080 		.ascii	"\021a\240\200\312\207\025L0!\006\000\336\300\004\321"
  20      CA87154C 
  20      30210600 
  20      DEC004D1 
  21              		.text
  22              		.section	.gnu.lto___core_init.6440483f3f017154,"",%progbits
  23 0000 789C6362 		.ascii	"x\234cb`b@\007\"@\354\013\304N \0163\003#P\005#\023"
  23      60624007 
  23      2240EC0B 
  23      C44E200E 
  23      33032350 
  24 0017 232390C3 		.ascii	"##\220\303\310P\317\304X\037\311\010V\266\236\351\300"
  24      C850CFC4 
  24      581FC908 
  24      56B69EE9 
  24      C0
  25 0028 83FFFFD7 		.ascii	"\203\377\377\327m\350\232\363\206q%\023H\214\225\241"
  25      6DE89AF3 
  25      86712513 
  25      488C95A1 
  26 0038 A5A16182 		.ascii	"\245\241a\202\002\003C2XE\010\230\014\005\351g\276\310"
  26      02034332 
  26      58450898 
  26      0C05E967 
  26      BEC8
  27 004a C098C8B8 		.ascii	"\300\230\310\270\220\221\025nI\010\310@\220\335\016"
  27      9091156E 
  27      4908C840 
  27      90DD0E
  28 0059 399949FA 		.ascii	"9\231I\372\316\031\231I\231\376\301\361\206fz\206z&"
ARM GAS  /tmp/ccBegRwk.s 			page 2


  28      CE199949 
  28      99FEC1F1 
  28      86667A86 
  28      7A26
  29 006b FAFAF9C5 		.ascii	"\372\372\371\305\372\311\371\271\271\371y\372\005\371"
  29      FAC9F9B9 
  29      B9F979FA 
  29      05F9
  30 0079 4525C5FA 		.ascii	"E%\305\372\216A\276\316\276\025 \261\202\314\234\324"
  30      8E41BECE 
  30      BE1520B1 
  30      82CC9CD4 
  31 0089 A2627D77 		.ascii	"\242b}wgg\375\344\242\022C\275d\006\000pZ%R"
  31      6767FDE4 
  31      A21243BD 
  31      64060070 
  31      5A2552
  32              		.text
  33              		.section	.gnu.lto___early_init.6440483f3f017154,"",%progbits
  34 0000 789C6362 		.ascii	"x\234cb`b@\007\"@\354\005\304N \0163\003#P\005#\023"
  34      60624007 
  34      2240EC05 
  34      C44E200E 
  34      33032350 
  35 0017 232390C3 		.ascii	"##\220\303\310P\317\304X\037\311\010V\266\236\351\300"
  35      C850CFC4 
  35      581FC908 
  35      56B69EE9 
  35      C0
  36 0028 83FFFFD7 		.ascii	"\203\377\377\327};5G\002$\300\312\320\322\3200A\201"
  36      7D3B3547 
  36      0224C0CA 
  36      D0D2D030 
  36      4181
  37 003a 8121192C 		.ascii	"\201!\031,\035\002&CA\232\231/20&2.dd\205\333\020\002"
  37      1D022643 
  37      419A992F 
  37      32302632 
  37      2E646485 
  38 0051 320D64B1 		.ascii	"2\015d\261CNf\222\276sFfR\246\177p\274\241\231\236\241"
  38      434E6692 
  38      BE734666 
  38      52A67F70 
  38      BCA1999E 
  39 0066 9E89BE7E 		.ascii	"\236\211\276~~\261~r~nn~\236~A~QI\261\276c\220\257\263"
  39      7EB17E72 
  39      7E6E6E7E 
  39      9E7E417E 
  39      5149B1BE 
  40 007e 6F0548AC 		.ascii	"o\005H\254 3'\265\250X\337\335\331Y?\271\250\304P/\231"
  40      203327B5 
  40      A858DFDD 
  40      D9593FB9 
  40      A8C4502F 
  41 0093 0100D972 		.ascii	"\001\000\331r$U"
  41      2455
  42              		.text
ARM GAS  /tmp/ccBegRwk.s 			page 3


  43              		.section	.gnu.lto___late_init.6440483f3f017154,"",%progbits
  44 0000 789C6362 		.ascii	"x\234cb`b@\007\"@\354\005\304N \0163\003#P\005#\023"
  44      60624007 
  44      2240EC05 
  44      C44E200E 
  44      33032350 
  45 0017 232390C3 		.ascii	"##\220\303\310P\317\304X\037\311\010V\266\236\351\300"
  45      C850CFC4 
  45      581FC908 
  45      56B69EE9 
  45      C0
  46 0028 83FFFFD7 		.ascii	"\203\377\377\327m\352\236#\001\022`ehih\230\240\300"
  46      6DEA9E23 
  46      01126065 
  46      68696898 
  46      A0C0
  47 003a C0900C96 		.ascii	"\300\220\014\226\016\001\223\241 \315\314\027\031\030"
  47      0E0193A1 
  47      20CDCC17 
  47      1918
  48 0048 13191732 		.ascii	"\023\031\0272\262\302m\010\001\231\006\262\330!'3I\337"
  48      B2C26D08 
  48      019906B2 
  48      D8212733 
  48      49DF
  49 005a 39233329 		.ascii	"9#3)\323?8\336\320L\317P\317D_?\277X?9?77?O\277 \277"
  49      D33F38DE 
  49      D04CCF50 
  49      CF445F3F 
  49      BF583F39 
  50 0076 A8A458DF 		.ascii	"\250\244X\3371\310\327\331\267\002$V\220\231\223ZT\254"
  50      31C8D7D9 
  50      B7022456 
  50      9099935A 
  50      54AC
  51 0088 EFEEECAC 		.ascii	"\357\356\354\254\237\\Tb\250\227\314\000\000\2317#\322"
  51      9F5C5462 
  51      A897CC00 
  51      00993723 
  51      D2
  52              		.text
  53              		.section	.gnu.lto___default_exit.6440483f3f017154,"",%progbits
  54 0000 789C6362 		.ascii	"x\234cb`b@\007\"@l\003\304N \0163\003#P\005#\023\230"
  54      60624007 
  54      22406C03 
  54      C44E200E 
  54      33032350 
  55 0018 6464A867 		.ascii	"dd\250gb\254\217d\004+[\317t\340\301\377\377\353\356"
  55      62AC8F64 
  55      042B5BCF 
  55      74E0C1FF 
  55      FFEBEE
  56 002b 9C9EBB87 		.ascii	"\234\236\273\207q=\023H\214\225\241\245\241a\202\002"
  56      713D1348 
  56      8C95A1A5 
  56      A1618202 
  57 003b 03433258 		.ascii	"\003C2XE\010\224\004\352d\016a\204hbp\310\311L\322w"
ARM GAS  /tmp/ccBegRwk.s 			page 4


  57      45089404 
  57      EA640E61 
  57      84686270 
  57      C8C94CD2 
  58 0050 CEC84CCA 		.ascii	"\316\310L\312\364\017\21674\3233\3243\321\327\317/\326"
  58      F40F8E37 
  58      34D333D4 
  58      33D1D7CF 
  58      2FD6
  59 0062 4FCECFCD 		.ascii	"O\316\317\315\315\317\323/\310/*)\326w\014\362u\366"
  59      CDCFD32F 
  59      C82F2A29 
  59      D6770CF2 
  59      75F6
  60 0074 AD008915 		.ascii	"\255\000\211\025d\346\244\026\025\353\273;;\353'\027"
  60      64E6A416 
  60      15EBBB3B 
  60      3BEB2717 
  61 0084 9518EA25 		.ascii	"\225\030\352%3\000\000\365z#\251"
  61      330000F5 
  61      7A23A9
  62              		.text
  63              		.section	.gnu.lto___init_ram_areas.6440483f3f017154,"",%progbits
  64 0000 789C8D54 		.ascii	"x\234\215T]HTQ\020\2369\347\356\375Y\327U\350%!A|\351"
  64      5D485451 
  64      109E39E7 
  64      EEFD59D7 
  64      55E82521 
  65 0017 21F22244 		.ascii	"!\362\"DAO\305>\010\205D?\013\366P\272n\261-d\273\254"
  65      414FC53E 
  65      0885443F 
  65      0BF650BA 
  65      6EB12D64 
  66 002d 06418167 		.ascii	"\006A\201g\325 Jj\213\004\313\025\014\"B\027\"zY\242"
  66      D5204A6A 
  66      8B04CB15 
  66      0C224217 
  66      227A59A2 
  67 0041 07838202 		.ascii	"\007\203\202\002[\364-\243@\211$,\010\261\036\222h\233"
  67      5BF42DA3 
  67      4089242C 
  67      08B11E92 
  67      689B
  68 0053 73EFB97B 		.ascii	"s\357\271{%\264\366\300\235s\356\314|3\363\235\231{"
  68      25B4F6C0 
  68      9D73EECC 
  68      7C33F39D 
  68      997B
  69 0065 1930F87B 		.ascii	"\0310\370{\235\244\2471\000pP\276\324\000\222\0072\344"
  69      9DA4A731 
  69      007050BE 
  69      D4009207 
  69      32E4
  70 0077 2439921A 		.ascii	"$9\222\0325G\006\230\006 \230NB\323\321$\215\341H\223"
  70      35470698 
  70      0620984E 
  70      42D3D124 
ARM GAS  /tmp/ccBegRwk.s 			page 5


  70      8DE14893 
  71 008b 19526F49 		.ascii	"\031RoI\275\305\270<\007\3459\210H\341\020\372\031\327"
  71      BDC5B83C 
  71      07E53988 
  71      48E110FA 
  71      19D7
  72 009d 02BA615A 		.ascii	"\002\272aZA\354?.U\2407\303=!n-\274\\Z\304;\267\247"
  72      41EC3F2E 
  72      55A037C3 
  72      3D216E2D 
  72      BC5C5AC4 
  73 00b4 8726C4AF 		.ascii	"\207&\304\257r\0311)\215q\204\016:a\223\263\311\224"
  73      72193129 
  73      8D71840E 
  73      3A6193B3 
  73      C994
  74 00c6 EB970B9C 		.ascii	"\353\227\013\234~R\032i\270:1\220\023\277\011\227\224"
  74      7E521A69 
  74      B83A3190 
  74      13BF0997 
  74      94
  75 00d7 9556059B 		.ascii	"\225V\005\233-\015\007s\331+\242\\\356\257\0364r}\274"
  75      2D0D0773 
  75      D92BA25C 
  75      EEAF1E34 
  75      727DBC
  76 00ea 41F8B934 		.ascii	"A\370\2714\006\021\254\0169V\272\261\036\311\031\264"
  76      0611AC0E 
  76      3956BAB1 
  76      1EC919B4 
  77 00fa 5589CC97 		.ascii	"U\211\314\227B~\235\014\016\374\017\366\210M/\224\313"
  77      427E9D0C 
  77      0EFC0FF6 
  77      884D2F94 
  77      CB
  78 010b C32BDF17 		.ascii	"\303+\337\027\213\270\245\016!\206\367\261\231\032\035"
  78      8BB8A50E 
  78      2186F7B1 
  78      991A1D
  79 011a C307B473 		.ascii	"\303\007\264s\332\037\322\256\251=\240\354\272\262\033"
  79      DA1FD2AE 
  79      A93DA0EC 
  79      BAB21B
  80 0129 4A6F0265 		.ascii	"Jo\002e\263H@Pij\224GHZj\2252\254\340\264\0020$D\256"
  80      B3484050 
  80      696A9447 
  80      485A6A95 
  80      32ACE0B4 
  81 0142 C97B8F3B 		.ascii	"\311{\217;\335=\346\310\250\234\"\376\006\006\326\006"
  81      DD3DE6C8 
  81      A89C22FE 
  81      0606D606 
  82 0152 A7F27B63 		.ascii	"\247\362{c8I3\224\300\300EX\023\243B\334$\022\201\036"
  82      38493394 
  82      C0C04558 
  82      13A342DC 
  82      2412811E 
ARM GAS  /tmp/ccBegRwk.s 			page 6


  83 0166 F4194465 		.ascii	"\364\031De?\244\373\273\342\307\237X\211+\223\273Y\001"
  83      3FA4FBBB 
  83      E2C79F58 
  83      892B93BB 
  83      5901
  84 0178 DC18B412 		.ascii	"\334\030\264\022\250\357\200I\221\023\2423\211\372\030"
  84      A8EF8049 
  84      9113A233 
  84      89FA18
  85 0187 DCA56046 		.ascii	"\334\245`F\002Q\336\214{1\335\225\3102\342[\212\030"
  85      0251DE8C 
  85      7B31DD95 
  85      C832E25B 
  85      8A18
  86 0199 C3825380 		.ascii	"\303\202S\200\241\220'6E\372E\315\003R\305\254\260\362"
  86      A1902736 
  86      45FA45CD 
  86      0352C5AC 
  86      B0F2
  87 01ab 99F6B035 		.ascii	"\231\366\2605\363\243K\326\251\271u>\275\374%\277\315"
  87      F3A34BD6 
  87      A9B9753E 
  87      BDFC25BF 
  87      CD
  88 01bc 8B6AB9A1 		.ascii	"\213j\271\241\314\004\262\016w\036\275\344\257gu\327"
  88      CC04B20E 
  88      771EBDE4 
  88      AF6775D7 
  89 01cc 893CB242 		.ascii	"\211<\262B\210:\307\213\373^\004\226\216\203\327\006"
  89      883AC78B 
  89      FB5E0496 
  89      8E83D706 
  90 01dc BFE5B77A 		.ascii	"\277\345\267z\361\202\312\305\351\263c\\\3157x\306\032"
  90      F182CAC5 
  90      E9B3635C 
  90      CD3778C6 
  90      1A
  91 01ed 95A53204 		.ascii	"\225\2452\004Qy-\356\335-\3153\317\315\224L\3537\245"
  91      51792DEE 
  91      DD2DCD33 
  91      CFCD944C 
  91      EB37A5
  92 0200 E9FD055E 		.ascii	"\351\375\005^\301\213\245\354\236\012(Q)\236\3503\272"
  92      C18BA5EC 
  92      9E0A2851 
  92      299EE833 
  92      BA
  93 0211 69FE7EE5 		.ascii	"i\376~\345\022\345\324fVO\315\003\247\013\344_\245\""
  93      12E5D466 
  93      564FCD03 
  93      A70BE45F 
  93      A522
  94 0223 A83D5BED 		.ascii	"\250=[\355\222\275\246\337\001\217\242\341\026P,.\317"
  94      92BDA6DF 
  94      018FA2E1 
  94      16502C2E 
  94      CF
ARM GAS  /tmp/ccBegRwk.s 			page 7


  95 0234 E1067C35 		.ascii	"\341\006|5\237\257<\231\340\321\232\032\257p\256Un\353"
  95      9FAF3C99 
  95      E0D19A1A 
  95      AF70AE55 
  95      6EEB
  96 0246 68998AD6 		.ascii	"h\231\212\326\350\262O+\364oZ|CZ\241\004j>-\215H\352"
  96      E8B24F2B 
  96      F46F5A7C 
  96      435AA104 
  96      6A3E2D8D 
  97 025c D4D25AA3 		.ascii	"\324\322Z\243\340\266\324r\362P9\217\033=DX\305e\365"
  97      E0B6D472 
  97      F250398F 
  97      1B3D4458 
  97      C565F5
  98 026f 6EB04FCF 		.ascii	"n\260O\317?\224\320\233\342\260\232\342\303\224w'\024"
  98      3F94D09B 
  98      E2B09AE2 
  98      C3947727 
  98      14
  99 0280 E43C9DA7 		.ascii	"\344<\235\247Rz\334o\3242a\243\025E\372+\3629\310.\024"
  99      527ADC6F 
  99      D43261A3 
  99      1545FA2B 
  99      F239C82E 
 100 0295 B7574619 		.ascii	"\267WF\031\334\017\206fN\366c\337\331d\267\0359\223"
 100      DC0F8666 
 100      4EF663DF 
 100      D964B71D 
 100      3993
 101 02a7 EC4E1E3A 		.ascii	"\354N\036:\332\331\272\273\245\265e\227m\247z\355x\252"
 101      DAD9BABB 
 101      A5B56597 
 101      6DA77AED 
 101      78AA
 102 02b9 A72775CE 		.ascii	"\247'u\316N\2472}\275\366\376#\355\221\366\013R\227"
 102      4EA7327D 
 102      BDF6FE23 
 102      ED91F60B 
 102      5297
 103 02cb 4E9E3D9D 		.ascii	"N\236=\235\351\265\333\"\021;\236\351km\211\003\317"
 103      E9B5DB22 
 103      113B9EE9 
 103      6B6D8903 
 103      CF
 104 02dc C4D2AC2F 		.ascii	"\304\322\254/\215\351?\20128f"
 104      8DE93F81 
 104      323866
 105              		.text
 106              		.section	.gnu.lto_.symbol_nodes.6440483f3f017154,"",%progbits
 107 0000 789C4DD0 		.ascii	"x\234M\320\333ZAa\024\205\341\371\375\313\242\215D$"
 107      DB5A4161 
 107      1485E1F9 
 107      FDCBA28D 
 107      4424
 108 0012 7B5D44F7 		.ascii	"{]D\367\367\227})\024\251P\272\"\207n\246H\343q`\315"
 108      F7977D29 
ARM GAS  /tmp/ccBegRwk.s 			page 8


 108      14A950BA 
 108      22876EA6 
 108      48E37160 
 109 0027 93F7F94E 		.ascii	"\223\367\371N\306\301t\346\354\006\333\237\3735o6Z\231"
 109      C6C174E6 
 109      EC06DB9F 
 109      FB356F36 
 109      5A99
 110 0039 79BFEEE1 		.ascii	"y\277\356\3416\346\211\344\326\274\213\344\237\371 "
 110      36E689E4 
 110      D6BC8BE4 
 110      9FF920
 111 0048 92B7F8D8 		.ascii	"\222\267\370\330!\303\037\263\270\017\302;\370\337\014"
 111      21C31FB3 
 111      B80FC23B 
 111      F8DF0C
 112 0057 1B38D124 		.ascii	"\0338\321$\020-b\242M(:\304E\227\204\350q$\3569\026"
 112      102D62A2 
 112      4D283AC4 
 112      459784E8 
 112      7124EE39 
 113 006c 0F9C883E 		.ascii	"\017\234\210>\247\342\221\244x\342L\014H\211!\347bD"
 113      A7E291A4 
 113      78E24C0C 
 113      488921E7 
 113      6244
 114 007e 5A3C9311 		.ascii	"Z<\223\021/\\\2101Y1!'^\271\024S\362\342\215+\361NA"
 114      2F5C8831 
 114      59312127 
 114      5EB91453 
 114      F2E28D2B 
 115 0095 7C501433 		.ascii	"|P\0243JbNY,\250\210O\252\342\213\232XR\027\337\\\353"
 115      4A624E59 
 115      2CA8884F 
 115      AAE28B9A 
 115      585217DF 
 116 00ab 593B79EA 		.ascii	"Y;y\352@/"
 116      402F
 117              		.text
 118              		.section	.gnu.lto_.refs.6440483f3f017154,"",%progbits
 119 0000 789C25C1 		.ascii	"x\234%\301[\026BP\000\000\300{\346\270Ry\246\007J\221"
 119      5B164250 
 119      0000C07B 
 119      E6B85279 
 119      A6074A91 
 120 0014 2CA6FD6F 		.ascii	",\246\375o\310\207\031A\370\207\235D\024\247(u\2209"
 120      C8871941 
 120      F8879D44 
 120      14A72875 
 120      9039
 121 0026 3A39CB15 		.ascii	":9\313\025J\225Z\343\242uus\367\320\351\015\236^Fo\037"
 121      4A955AE3 
 121      A2757573 
 121      F7D0E90D 
 121      9E5E466F 
 122 003b 93D9D7E2 		.ascii	"\223\331\327\342g\015\033s\304\003w"
 122      670D1B73 
ARM GAS  /tmp/ccBegRwk.s 			page 9


 122      C40377
 123              		.text
 124              		.section	.gnu.lto_.decls.6440483f3f017154,"",%progbits
 125 0000 789C9558 		.ascii	"x\234\225Xml\024E\030\236\331+m\257=\012\242b0\020\256"
 125      6D6C1445 
 125      189ED92B 
 125      6DAF3D0A 
 125      A2623010 
 126 0015 462421D2 		.ascii	"F$!\322\343\332k\033\215\020L\177\340\0374\321`L\374"
 126      E3DA6B1B 
 126      8D104C7F 
 126      E01F34D1 
 126      604CFC
 127 0028 B1598E35 		.ascii	"\261Y\2165\275x\275#w\333\000\361\317\202X\0324\244"
 127      BD78BD23 
 127      77DB00F1 
 127      CF82581A 
 127      34A4
 128 003a 106A2517 		.ascii	"\020j%\027>\212@J,\244\245\261\245\226\322m\023\240"
 128      3E8A404A 
 128      2CA4A5B1 
 128      A596D26D 
 128      13A0
 129 004c D860D0A6 		.ascii	"\330`\320\246\032,j\243F\203\321\004\305\240\200p\276"
 129      1A2C6AA3 
 129      4683D104 
 129      C5A08070 
 129      BE
 130 005d FB711F33 		.ascii	"\373q\0373;sC'}\356fv\337\347}f\346\231w\232VB\022\352"
 130      3B734327 
 130      7DEE6676 
 130      DFE77D66 
 130      E699779A 
 131 0075 C608A5A1 		.ascii	"\306\010\245\241\035}\014\241u\036\204\212\021BkP\256"
 131      1D7D0CA1 
 131      751E848A 
 131      11426B50 
 131      AE
 132 0086 CD017402 		.ascii	"\315\001t\002\272\000\335\200\036@?\240\0220\010\370"
 132      BA00DD80 
 132      1E403FA0 
 132      123008F8 
 133 0096 1A700D70 		.ascii	"\032p\015p\035\360\003\340'\300/\200\033\200\337\001"
 133      1DF003E0 
 133      27C02F80 
 133      1B80DF01 
 134 00a6 3701B700 		.ascii	"7\001\267\000\267\001w\000\367\315\244\240\351\001\024"
 134      B7017700 
 134      F7CDA4A0 
 134      E90114
 135 00b5 03CA0073 		.ascii	"\003\312\000s\001\363\001\217\002\236\000<\011X\002"
 135      01F3018F 
 135      029E003C 
 135      095802
 136 00c4 F0039E06 		.ascii	"\360\003\236\006,\007\254\000\254\004\004\001!@=\340"
 136      2C07AC00 
 136      AC040401 
ARM GAS  /tmp/ccBegRwk.s 			page 10


 136      21403DE0 
 137 00d4 798C88D6 		.ascii	"y\214\210\326\231\327\307\3248\323\272\250\230.FL7\025"
 137      99D7C7D4 
 137      38D3BAA8 
 137      982E464C 
 137      3715
 138 00e6 D3CD88E9 		.ascii	"\323\315\210\351\241bz\0301\346>\225\001J\000\025\000"
 138      A1627A18 
 138      31E63E95 
 138      014A0015 
 138      00
 139 00f7 1F6014F0 		.ascii	"\037`\024\360\002\020V\003\326\000\206`<\006(r`\000"
 139      02105603 
 139      D6008660 
 139      3C062872 
 139      6000
 140 0109 2E032600 		.ascii	".\003&\000W\234\334\375\316\367 \225\177):\244\0371"
 140      579CDCFD 
 140      CEF72095 
 140      7F293AA4 
 140      1F31
 141 011b 66DE3BD1 		.ascii	"f\336;\321\273H?\262c4\235\036Y\213\026\242v\035\332"
 141      BB483FB2 
 141      63349D1E 
 141      598B16A2 
 141      761DDA
 142 012e 91165DC7 		.ascii	"\221\026]\307\232\202\327<\216\336\300\012\256\360\""
 142      9A82D73C 
 142      8EDEC00A 
 142      AEF022
 143 013d BFD5F179 		.ascii	"\277\325\361y-\025\204\024|\024/tz\033<v>\0115`\264"
 143      2D158414 
 143      7C142F74 
 143      7A1B3C76 
 143      3E093560 
 144 0152 029D047E 		.ascii	"\002\235\004~\233\256\377\270\234\332^h\036\210\201"
 144      9BAEFFB8 
 144      9CDA5E68 
 144      1E8881
 145 0161 9FD7B36F 		.ascii	"\237\327\263o\236A\307M9\275K\367Xbf\272N\2744\237\243"
 145      9E41C74D 
 145      39BD4BF7 
 145      586266BA 
 145      4EBC349F 
 146 0176 E08FB1E4 		.ascii	"\340\217\261\344\236\266q\373s_\333\350L:}\330o\317"
 146      9EB671FB 
 146      735FDBE8 
 146      4C3A7DD8 
 146      6FCF
 147 0188 45426F62 		.ascii	"EBob\010>\206W\344\244\024|\"\307eiu\321Z'\231Zg&h\255"
 147      083E8657 
 147      E4A4147C 
 147      22C76569 
 147      75D15A27 
 148 01a2 C6D96B75 		.ascii	"\306\331ku\323Z\247\030Z\243\306u\227\226\306\325r\366"
 148      D35AA718 
 148      5AA3C675 
ARM GAS  /tmp/ccBegRwk.s 			page 11


 148      9796C6D5 
 148      72F6
 149 01b4 F35D9CBF 		.ascii	"\363]\234\277\325,\355\036Z\273\227\271\316\266/|m\333"
 149      D52CED1E 
 149      5ABB97B9 
 149      CEB62F7C 
 149      6DDB
 150 01c6 09ED0F70 		.ascii	"\011\355\017p\2768/}?\235~\200L\377\024\352\324\257"
 150      BE382F7D 
 150      3F9D7E80 
 150      4CFF14EA 
 150      D4AF
 151 01d8 5E35EEB4 		.ascii	"^5\356\264\034\306p\322t\375A:\215\037Amf\032\377x\305"
 151      1CC670D2 
 151      74FD413A 
 151      8D1F416D 
 151      661AFF78 
 152 01ed 02B4D73A 		.ascii	"\002\264\327:sp\344\306\341\234;\007N\307\231\0237\037"
 152      7370E4C6 
 152      E19C3B07 
 152      4EC79913 
 152      371F
 153 01ff 322C43C7 		.ascii	"2,C\307\340T\031\267\346JN\264\237\033\252\340sx\031"
 153      E05419B7 
 153      E64A4EB4 
 153      9F1BAAE0 
 153      737819
 154 0212 12869981 		.ascii	"\022\206\231\201\347\361\002guV~\335\270\246\372\355"
 154      E7F10267 
 154      75567EDD 
 154      B8A6FAED 
 155 0222 A7885A75 		.ascii	"\247\210Zu^\253D0\323\035\306\364\215\313X\337\347+"
 155      5EAB4430 
 155      D31DC6F4 
 155      8DCB58DF 
 155      E72B
 156 0234 47BB6164 		.ascii	"G\273ad\026\314K\343\240\321\232\033 f\351\330\013\231"
 156      16CC4BE3 
 156      A0D19A1B 
 156      2066E9D8 
 156      0B99
 157 0246 B9B7FBC2 		.ascii	"\271\267\373\302(\206\235\200\027c\330\013\033=Dm\364"
 157      28869D80 
 157      1763D80B 
 157      1B3D446D 
 157      F4
 158 0257 C3A73AB0 		.ascii	"\303\247:\260\347\334s\272^\252\340\013V\242\277\250"
 158      E7DC73BA 
 158      5EAAE00B 
 158      56A2BFA8 
 159 0267 440A2EF1 		.ascii	"D\012.\361\222\346\3008\023`f\263^;\035\363*\237\207"
 159      92E6C038 
 159      136066B3 
 159      5E3B1DF3 
 159      2A9F87
 160 027a 661BCEBB 		.ascii	"f\033\316\273\"Fqy&\215\204\356[\3632\367\226\025\356"
 160      22467179 
ARM GAS  /tmp/ccBegRwk.s 			page 12


 160      268D84EE 
 160      5BF332F7 
 160      9615EE
 161 028d 74EDE604 		.ascii	"t\355\346\004\020\373=s!u\020\256\2511l\247\205\223"
 161      10FB3D73 
 161      217510AE 
 161      A9316CA7 
 161      8593
 162 029f 29CD369F 		.ascii	")\3156\237\237\360\357{u|U&\327\207\017\223\253\224"
 162      9FF0EF7B 
 162      757C5526 
 162      D7870F93 
 162      AB94
 163 02b1 3B37E366 		.ascii	";7\343f^\256\316Y\347\362S\007\314\336m\005\217\300"
 163      5EAECE59 
 163      E7F25307 
 163      CCDE6D05 
 163      8FC0
 164 02c3 3156B081 		.ascii	"1V\260\201+\341\363\262\3659a}^\301\225\271`\011\235"
 164      2BE1F3B2 
 164      F539617D 
 164      5EC195B9 
 164      60099D
 165 02d6 9668C3ED 		.ascii	"\226h\303\355\003\234\227/w\316\2218c\246ZJ3\223\325"
 165      039C972F 
 165      77CE9138 
 165      63A65A4A 
 165      3393D5
 166 02e9 EDDB2557 		.ascii	"\355\333%W\260\012\036\316-\317\025\247\340\253P\334"
 166      B00A1ECE 
 166      2DCF15A7 
 166      E0AB50DC 
 167 02f9 66B3CEB0 		.ascii	"f\263\316\260\356\234a+\204wR\276\304\336\254\266\317"
 167      EE9C612B 
 167      847752BE 
 167      C4DEACB6 
 167      CF
 168 030a 9BEB9410 		.ascii	"\233\353\224\020\313\310D\301\242\317g\027\315\237\306"
 168      CBC844C1 
 168      A2CF6717 
 168      CD9FC6
 169 0319 57CE2514 		.ascii	"W\316%\024B}z\253a^W\237\301\304\262\006\332\217\327"
 169      427D7AAB 
 169      615E579F 
 169      C1C4B206 
 169      DA8FD7
 170 032c 2A78C8DA 		.ascii	"*x\310\332\035sW\336Aw\365V\335\270\327\"\331n\232\367"
 170      1D7357DE 
 170      4177F556 
 170      DDB8D722 
 170      D96E9AF7 
 171 0340 D6CC3E63 		.ascii	"\326\314>c\357\305\375\213\364N\347\336\312\024\354"
 171      EFC5FD8B 
 171      F44EE7DE 
 171      CA14EC
 172 034f 383D03D7 		.ascii	"8=\003\327\242\276!.A{\3073\012\027\027S\012'\334\012"
 172      A2BE212E 
ARM GAS  /tmp/ccBegRwk.s 			page 13


 172      417BC733 
 172      0A171753 
 172      0A27DC0A 
 173 0363 D342856F 		.ascii	"\323B\205o)\205\211|\205gI\205\226~\267\302\015\241"
 173      2985897C 
 173      85674985 
 173      967EB7C2 
 173      0DA1
 174 0375 C27794C2 		.ascii	"\302w\224\302\225\374]ZM)\\\304\007\364\261\235\272"
 174      95FC5D5A 
 174      4D295CC4 
 174      07F4B19D 
 174      BA
 175 0386 FE1F4864 		.ascii	"\376\037Hd5\376\025j\314\220\277,\2340\\\300\2404eP"
 175      35FE156A 
 175      CC90BF2C 
 175      9C305CC0 
 175      A0346550 
 176 039a 07CBA056 		.ascii	"\007\313\240V\217H\370g\276Ai\312\240\016\226A)\241"
 176      8F48F867 
 176      BE4169CA 
 176      A00E9641 
 176      29A1
 177 03ac C2AF7C83 		.ascii	"\302\257|\203\322\224A\035,\203N\012\025~\343\033\224"
 177      D294411D 
 177      2C834E0A 
 177      157EE31B 
 177      94
 178 03bd A60CEA60 		.ascii	"\246\014\352`\033tV\250\361\007\323 \251\200A\355\273"
 178      1B7456A8 
 178      F107D320 
 178      A98041ED 
 178      BB
 179 03ce 48830E32 		.ascii	"H\203\0162+H(\374'\337\240\366K\213)\005V\005\011\025"
 179      2B4828FC 
 179      27DFA0F6 
 179      4B8B2905 
 179      56050915 
 180 03e2 FEE61BD4 		.ascii	"\376\346\033\324~\2114\350 \263\202\204\012\377\360"
 180      7E8934E8 
 180      20B38284 
 180      0AFFF0
 181 03f1 0D6ADFB5 		.ascii	"\015j\337\265\232R`W\220P\343.\323 O\001\203R\224A}"
 181      9A526057 
 181      9050E32E 
 181      D3204F01 
 181      83529441 
 182 0406 CC0A2A12 		.ascii	"\314\012*\022\011?\340\033\224\242\014\352cV\220Pa\273"
 182      093FE01B 
 182      94A20CEA 
 182      63569050 
 182      61BB
 183 0418 C4352845 		.ascii	"\3045(E\031\324\307\254 \241\302N\211kP\2122\250\217"
 183      19D4C7AC 
 183      20A1C24E 
 183      896B508A 
 183      32A88F
ARM GAS  /tmp/ccBegRwk.s 			page 14


 184 042b 5341428D 		.ascii	"SAB\215]\022\313\240\242\002\006\365R\006\0152+H(\374"
 184      5D12CBA0 
 184      A20206F5 
 184      52060D32 
 184      2B4828FC 
 185 043f BEC435A8 		.ascii	"\276\3045\250\2272h\220YAB\205=|\203z)\203\006\231\025"
 185      97326890 
 185      59414285 
 185      3D7C837A 
 185      29830699 
 186 0454 2454D8CB 		.ascii	"$T\330\3137\250\2272h\220SAB\215\375L\203\346\0240h"
 186      37A89732 
 186      68905341 
 186      428DFD4C 
 186      83E61430 
 187 0469 80326884 		.ascii	"\2002h\204YAsD\302\037\361\015\032\240\014\032aV\220"
 187      59417344 
 187      C21FF10D 
 187      1AA00C1A 
 187      615690
 188 047c 5021C537 		.ascii	"P!\3057h\2002h\204YAB\205C|\203\006(\203F8\025$\324"
 188      68803268 
 188      84594142 
 188      85437C83 
 188      06288346 
 189 0494 E8641A54 		.ascii	"\350d\032T\\\300\240a\312\240)f\005\011\205\217\363"
 189      5CC0A061 
 189      CAA02966 
 189      0509858F 
 189      F3
 190 04a5 0D1AA60C 		.ascii	"\015\032\246\014\232bV\220P\241\213o\3200e\320\024\263"
 190      9A625690 
 190      50A18B6F 
 190      D03065D0 
 190      14B3
 191 04b7 82840A9F 		.ascii	"\202\204\012\237\360\015\032\246\014\232\342T\220P\343"
 191      F00D1AA6 
 191      0C9AE254 
 191      9050E3
 192 04c6 34D3A092 		.ascii	"4\323\240\222\002\006MR\006M3+\250X$|\206o\320$e\320"
 192      02064D52 
 192      064D332B 
 192      A858247C 
 192      866FD024 
 193 04dc 34B38284 		.ascii	"4\263\202\204\012\237\362\015\232\244\014\232fV\220"
 193      0A9FF20D 
 193      9AA40C9A 
 193      665690
 194 04eb 50E12CDF 		.ascii	"P\341,\337\240I\312\240iN\005\0115\206H\203\020\"\376"
 194      A049CAA0 
 194      694E0509 
 194      35864883 
 194      1022FE
 195 04fe 7561FBC3 		.ascii	"ua\373\303\343\236\223\3129\254\274?\251\\\254a\006"
 195      E39E93CA 
 195      39ACBC3F 
 195      A95CAC61 
ARM GAS  /tmp/ccBegRwk.s 			page 15


 195      06
 196 050f CBB058E6 		.ascii	"\313\260X\346\234\037\342\277\006hm4\2621\320\320\030"
 196      9C1FE2BF 
 196      06686D34 
 196      B231D0D0 
 196      18
 197 0520 D91879E5 		.ascii	"\331\030y\34559XW\025\254\012\005\002\361d \034oj\212"
 197      35395857 
 197      15AC0A05 
 197      02F16420 
 197      1C6F6A8A 
 198 0534 C7029BE3 		.ascii	"\307\002\233\343\011-\031x\361\325\365\015\353\267\232"
 198      092D1978 
 198      F1D5F50D 
 198      EBB79A
 199 0543 CF3647A2 		.ascii	"\3176G\242j\"\031X\327\320\020\010'\264`U\030\225\313"
 199      6A221958 
 199      D7D01008 
 199      27B46055 
 199      1895CB
 200 0556 72389E50 		.ascii	"r8\236P\345H,\242\025\257{y\203\277\001\025mQ\225\267"
 200      E5482CA2 
 200      15AF7B79 
 200      83BF0115 
 200      6D5195B7 
 201 056a 7DB2AC2A 		.ascii	"}\262\254*\211\3506\353\005\004E\025\315\016\252\220"
 201      89E836EB 
 201      05044515 
 201      CD0EAA90 
 202 057a E54DEA5B 		.ascii	"\345M\352[JsT\223\325\255\021\2554\006l\2559\021\233"
 202      4A735493 
 202      D5AD11AD 
 202      34066CAD 
 202      39119B
 203 058d 2F5BAFE5 		.ascii	"/[\257\345\204\322$+\011UI.\0114'\023\201H,\034m\336"
 203      84D2242B 
 203      0955492E 
 203      09342713 
 203      81482C1C 
 204 05a3 A40662EA 		.ascii	"\244\006b\352\026s\252ImS$\246U5\242\322f\370\256\251"
 204      1673AA49 
 204      6D5324A6 
 204      5535A2D2 
 204      66F8AEA9 
 205 05b7 96B595AC 		.ascii	"\226\265\225\254\260&%\334\030\211\251\201\254\224\266"
 205      B02625DC 
 205      1889A981 
 205      AC94B6
 206 05c6 6DB39A04 		.ascii	"m\263\232\004Z\231,g\210\025\226\234\246n\325,=\257"
 206      5A992C67 
 206      8815969C 
 206      A66ED52C 
 206      3DAF
 207 05d8 35347B65 		.ascii	"54{e\341(L\335\352\372bq9\373|\2369\265\354H\326\274"
 207      E1284CDD 
 207      EAFA6271 
 207      39FB7C9E 
ARM GAS  /tmp/ccBegRwk.s 			page 16


 207      39B5EC48 
 208 05ee D9A92E90 		.ascii	"\331\251.\220\315i\257\222s\031\345\271\371\217\344"
 208      CD69AF92 
 208      7319E5B9 
 208      F98FE4
 209 05fd 0A676467 		.ascii	"\012gdg\226\3479\303X\334~m\363\203n~\220\340\007I~"
 209      96E739C3 
 209      58DC7E6D 
 209      F3836E7E 
 209      90E00749 
 210 0612 90E257BB 		.ascii	"\220\342W\273\371\325\004\277\232\344WS\374\0327\277"
 210      F9D504BF 
 210      9AE45753 
 210      FC1A37BF 
 211 0622 86E0D790 		.ascii	"\206\340\327\220\374\032\212\037r\363C\004?D\362C\024"
 211      FC1A8A1F 
 211      72F34304 
 211      3F44F243 
 211      14
 212 0633 BFD6CDAF 		.ascii	"\277\326\315\257%\370\265$\277\226\342\327\271\371u"
 212      25F8B524 
 212      BF96E2D7 
 212      B9F975
 213 0642 04BF8EE4 		.ascii	"\004\277\216\344\327Q\374z7\277\236\340\327\223\374"
 213      D751FC7A 
 213      37BF9EE0 
 213      D793FC
 214 0651 FA2CFF7F 		.ascii	"\372,\377\177I\262\007\351"
 214      49B207E9 
 215              		.text
 216              		.section	.gnu.lto_.symtab.6440483f3f017154,"",%progbits
 217 0000 5F5F636F 		.ascii	"__core_init\000\000\001\000\000\000\000\000\000\000"
 217      72655F69 
 217      6E697400 
 217      00010000 
 217      00000000 
 218 0015 0000A100 		.ascii	"\000\000\241\000\000\000__early_init\000\000\001\000"
 218      00005F5F 
 218      6561726C 
 218      795F696E 
 218      69740000 
 219 002b 00000000 		.ascii	"\000\000\000\000\000\000\000\000\250\000\000\000__l"
 219      00000000 
 219      A8000000 
 219      5F5F6C
 220 003a 6174655F 		.ascii	"ate_init\000\000\001\000\000\000\000\000\000\000\000"
 220      696E6974 
 220      00000100 
 220      00000000 
 220      000000
 221 004d 00AC0000 		.ascii	"\000\254\000\000\000__default_exit\000\000\001\000\000"
 221      005F5F64 
 221      65666175 
 221      6C745F65 
 221      78697400 
 222 0065 00000000 		.ascii	"\000\000\000\000\000\000\000\260\000\000\000__init_"
 222      000000B0 
ARM GAS  /tmp/ccBegRwk.s 			page 17


 222      0000005F 
 222      5F696E69 
 222      745F
 223 0077 72616D5F 		.ascii	"ram_areas\000\000\000\000\000\000\000\000\000\000\000"
 223      61726561 
 223      73000000 
 223      00000000 
 223      00000000 
 224 008b 00B60000 		.ascii	"\000\266\000\000\000__ram0_init_text__\000\000\002\000"
 224      005F5F72 
 224      616D305F 
 224      696E6974 
 224      5F746578 
 225 00a6 00000000 		.ascii	"\000\000\000\000\000\000\000\000\326\000\000\000__r"
 225      00000000 
 225      D6000000 
 225      5F5F72
 226 00b5 616D305F 		.ascii	"am0_init__\000\000\002\000\000\000\000\000\000\000\000"
 226      696E6974 
 226      5F5F0000 
 226      02000000 
 226      00000000 
 227 00ca 00D90000 		.ascii	"\000\331\000\000\000__ram0_clear__\000\000\002\000\000"
 227      005F5F72 
 227      616D305F 
 227      636C6561 
 227      725F5F00 
 228 00e2 00000000 		.ascii	"\000\000\000\000\000\000\000\334\000\000\000__ram0_"
 228      000000DC 
 228      0000005F 
 228      5F72616D 
 228      305F
 229 00f4 6E6F696E 		.ascii	"noinit__\000\000\002\000\000\000\000\000\000\000\000"
 229      69745F5F 
 229      00000200 
 229      00000000 
 229      000000
 230 0107 00DF0000 		.ascii	"\000\337\000\000\000__ram1_init_text__\000\000\002\000"
 230      005F5F72 
 230      616D315F 
 230      696E6974 
 230      5F746578 
 231 0122 00000000 		.ascii	"\000\000\000\000\000\000\000\000\343\000\000\000__r"
 231      00000000 
 231      E3000000 
 231      5F5F72
 232 0131 616D315F 		.ascii	"am1_init__\000\000\002\000\000\000\000\000\000\000\000"
 232      696E6974 
 232      5F5F0000 
 232      02000000 
 232      00000000 
 233 0146 00E60000 		.ascii	"\000\346\000\000\000__ram1_clear__\000\000\002\000\000"
 233      005F5F72 
 233      616D315F 
 233      636C6561 
 233      725F5F00 
 234 015e 00000000 		.ascii	"\000\000\000\000\000\000\000\351\000\000\000__ram1_"
ARM GAS  /tmp/ccBegRwk.s 			page 18


 234      000000E9 
 234      0000005F 
 234      5F72616D 
 234      315F
 235 0170 6E6F696E 		.ascii	"noinit__\000\000\002\000\000\000\000\000\000\000\000"
 235      69745F5F 
 235      00000200 
 235      00000000 
 235      000000
 236 0183 00EC0000 		.ascii	"\000\354\000\000\000__ram2_init_text__\000\000\002\000"
 236      005F5F72 
 236      616D325F 
 236      696E6974 
 236      5F746578 
 237 019e 00000000 		.ascii	"\000\000\000\000\000\000\000\000\360\000\000\000__r"
 237      00000000 
 237      F0000000 
 237      5F5F72
 238 01ad 616D325F 		.ascii	"am2_init__\000\000\002\000\000\000\000\000\000\000\000"
 238      696E6974 
 238      5F5F0000 
 238      02000000 
 238      00000000 
 239 01c2 00F30000 		.ascii	"\000\363\000\000\000__ram2_clear__\000\000\002\000\000"
 239      005F5F72 
 239      616D325F 
 239      636C6561 
 239      725F5F00 
 240 01da 00000000 		.ascii	"\000\000\000\000\000\000\000\366\000\000\000__ram2_"
 240      000000F6 
 240      0000005F 
 240      5F72616D 
 240      325F
 241 01ec 6E6F696E 		.ascii	"noinit__\000\000\002\000\000\000\000\000\000\000\000"
 241      69745F5F 
 241      00000200 
 241      00000000 
 241      000000
 242 01ff 00F90000 		.ascii	"\000\371\000\000\000__ram3_init_text__\000\000\002\000"
 242      005F5F72 
 242      616D335F 
 242      696E6974 
 242      5F746578 
 243 021a 00000000 		.ascii	"\000\000\000\000\000\000\000\000\375\000\000\000__r"
 243      00000000 
 243      FD000000 
 243      5F5F72
 244 0229 616D335F 		.ascii	"am3_init__\000\000\002\000\000\000\000\000\000\000\000"
 244      696E6974 
 244      5F5F0000 
 244      02000000 
 244      00000000 
 245 023e 00000100 		.ascii	"\000\000\001\000\000__ram3_clear__\000\000\002\000\000"
 245      005F5F72 
 245      616D335F 
 245      636C6561 
 245      725F5F00 
ARM GAS  /tmp/ccBegRwk.s 			page 19


 246 0256 00000000 		.ascii	"\000\000\000\000\000\000\000\003\001\000\000__ram3_"
 246      00000003 
 246      0100005F 
 246      5F72616D 
 246      335F
 247 0268 6E6F696E 		.ascii	"noinit__\000\000\002\000\000\000\000\000\000\000\000"
 247      69745F5F 
 247      00000200 
 247      00000000 
 247      000000
 248 027b 00060100 		.ascii	"\000\006\001\000\000__ram4_init_text__\000\000\002\000"
 248      005F5F72 
 248      616D345F 
 248      696E6974 
 248      5F746578 
 249 0296 00000000 		.ascii	"\000\000\000\000\000\000\000\000\012\001\000\000__r"
 249      00000000 
 249      0A010000 
 249      5F5F72
 250 02a5 616D345F 		.ascii	"am4_init__\000\000\002\000\000\000\000\000\000\000\000"
 250      696E6974 
 250      5F5F0000 
 250      02000000 
 250      00000000 
 251 02ba 000D0100 		.ascii	"\000\015\001\000\000__ram4_clear__\000\000\002\000\000"
 251      005F5F72 
 251      616D345F 
 251      636C6561 
 251      725F5F00 
 252 02d2 00000000 		.ascii	"\000\000\000\000\000\000\000\020\001\000\000__ram4_"
 252      00000010 
 252      0100005F 
 252      5F72616D 
 252      345F
 253 02e4 6E6F696E 		.ascii	"noinit__\000\000\002\000\000\000\000\000\000\000\000"
 253      69745F5F 
 253      00000200 
 253      00000000 
 253      000000
 254 02f7 00130100 		.ascii	"\000\023\001\000\000__ram5_init_text__\000\000\002\000"
 254      005F5F72 
 254      616D355F 
 254      696E6974 
 254      5F746578 
 255 0312 00000000 		.ascii	"\000\000\000\000\000\000\000\000\027\001\000\000__r"
 255      00000000 
 255      17010000 
 255      5F5F72
 256 0321 616D355F 		.ascii	"am5_init__\000\000\002\000\000\000\000\000\000\000\000"
 256      696E6974 
 256      5F5F0000 
 256      02000000 
 256      00000000 
 257 0336 001A0100 		.ascii	"\000\032\001\000\000__ram5_clear__\000\000\002\000\000"
 257      005F5F72 
 257      616D355F 
 257      636C6561 
ARM GAS  /tmp/ccBegRwk.s 			page 20


 257      725F5F00 
 258 034e 00000000 		.ascii	"\000\000\000\000\000\000\000\035\001\000\000__ram5_"
 258      0000001D 
 258      0100005F 
 258      5F72616D 
 258      355F
 259 0360 6E6F696E 		.ascii	"noinit__\000\000\002\000\000\000\000\000\000\000\000"
 259      69745F5F 
 259      00000200 
 259      00000000 
 259      000000
 260 0373 00200100 		.ascii	"\000 \001\000\000__ram6_init_text__\000\000\002\000"
 260      005F5F72 
 260      616D365F 
 260      696E6974 
 260      5F746578 
 261 038e 00000000 		.ascii	"\000\000\000\000\000\000\000\000$\001\000\000__ram6"
 261      00000000 
 261      24010000 
 261      5F5F7261 
 261      6D36
 262 03a0 5F696E69 		.ascii	"_init__\000\000\002\000\000\000\000\000\000\000\000"
 262      745F5F00 
 262      00020000 
 262      00000000 
 262      0000
 263 03b2 00270100 		.ascii	"\000'\001\000\000__ram6_clear__\000\000\002\000\000"
 263      005F5F72 
 263      616D365F 
 263      636C6561 
 263      725F5F00 
 264 03ca 00000000 		.ascii	"\000\000\000\000\000\000\000*\001\000\000__ram6_noi"
 264      0000002A 
 264      0100005F 
 264      5F72616D 
 264      365F6E6F 
 265 03df 6E69745F 		.ascii	"nit__\000\000\002\000\000\000\000\000\000\000\000\000"
 265      5F000002 
 265      00000000 
 265      00000000 
 265      00
 266 03f0 2D010000 		.ascii	"-\001\000\000__ra"
 266      5F5F7261 
 267 03f8 6D375F69 		.ascii	"m7_init_text__\000\000\002\000\000\000\000\000\000\000"
 267      6E69745F 
 267      74657874 
 267      5F5F0000 
 267      02000000 
 268 0410 00003101 		.ascii	"\000\0001\001\000\000__ram7_init__\000\000\002\000\000"
 268      00005F5F 
 268      72616D37 
 268      5F696E69 
 268      745F5F00 
 269 0428 00000000 		.ascii	"\000\000\000\000\000\000\0004\001\000\000__ram7_cle"
 269      00000034 
 269      0100005F 
 269      5F72616D 
ARM GAS  /tmp/ccBegRwk.s 			page 21


 269      375F636C 
 270 043d 61725F5F 		.ascii	"ar__\000\000\002\000\000\000\000\000\000\000\000\000"
 270      00000200 
 270      00000000 
 270      00000000 
 271 044d 37010000 		.ascii	"7\001\000\000__ram7_noinit__\000\000\002\000\000\000"
 271      5F5F7261 
 271      6D375F6E 
 271      6F696E69 
 271      745F5F00 
 272 0466 00000000 		.ascii	"\000\000\000\000\000\000:\001\000\000"
 272      00003A01 
 272      0000
 273              		.text
 274              		.section	.gnu.lto_.opts,"",%progbits
 275 0000 272D6D63 		.ascii	"'-mcpu=cortex-m4' '-mno-thumb-interwork' '-mthumb' "
 275      70753D63 
 275      6F727465 
 275      782D6D34 
 275      2720272D 
 276 0033 272D6767 		.ascii	"'-ggdb' '-O0' '-fomit-frame-pointer' '-falign-funct"
 276      64622720 
 276      272D4F30 
 276      2720272D 
 276      666F6D69 
 277 0066 696F6E73 		.ascii	"ions=16' '-ffunction-sections' '-fdata-sections' '-"
 277      3D313627 
 277      20272D66 
 277      66756E63 
 277      74696F6E 
 278 0099 666E6F2D 		.ascii	"fno-common' '-flto'\000"
 278      636F6D6D 
 278      6F6E2720 
 278      272D666C 
 278      746F2700 
 279              		.text
 280              		.cfi_sections	.debug_frame
 281              		.section	.rodata.ram_areas,"a",%progbits
 282              		.align	2
 283              		.type	ram_areas, %object
 284              		.size	ram_areas, 128
 285              	ram_areas:
 286 0000 00000000 		.word	__ram0_init_text__
 287 0004 00000000 		.word	__ram0_init__
 288 0008 00000000 		.word	__ram0_clear__
 289 000c 00000000 		.word	__ram0_noinit__
 290 0010 00000000 		.word	__ram1_init_text__
 291 0014 00000000 		.word	__ram1_init__
 292 0018 00000000 		.word	__ram1_clear__
 293 001c 00000000 		.word	__ram1_noinit__
 294 0020 00000000 		.word	__ram2_init_text__
 295 0024 00000000 		.word	__ram2_init__
 296 0028 00000000 		.word	__ram2_clear__
 297 002c 00000000 		.word	__ram2_noinit__
 298 0030 00000000 		.word	__ram3_init_text__
 299 0034 00000000 		.word	__ram3_init__
 300 0038 00000000 		.word	__ram3_clear__
ARM GAS  /tmp/ccBegRwk.s 			page 22


 301 003c 00000000 		.word	__ram3_noinit__
 302 0040 00000000 		.word	__ram4_init_text__
 303 0044 00000000 		.word	__ram4_init__
 304 0048 00000000 		.word	__ram4_clear__
 305 004c 00000000 		.word	__ram4_noinit__
 306 0050 00000000 		.word	__ram5_init_text__
 307 0054 00000000 		.word	__ram5_init__
 308 0058 00000000 		.word	__ram5_clear__
 309 005c 00000000 		.word	__ram5_noinit__
 310 0060 00000000 		.word	__ram6_init_text__
 311 0064 00000000 		.word	__ram6_init__
 312 0068 00000000 		.word	__ram6_clear__
 313 006c 00000000 		.word	__ram6_noinit__
 314 0070 00000000 		.word	__ram7_init_text__
 315 0074 00000000 		.word	__ram7_init__
 316 0078 00000000 		.word	__ram7_clear__
 317 007c 00000000 		.word	__ram7_noinit__
 318              		.section	.text.__core_init,"ax",%progbits
 319              		.align	2
 320              		.p2align 4,,15
 321              		.weak	__core_init
 322              		.thumb
 323              		.thumb_func
 324              		.type	__core_init, %function
 325              	__core_init:
 326              	.LFB123:
 327              		.file 1 "lib/ChibiOS_16.1.4//os/common/ports/ARMCMx/compilers/GCC/crt1.c"
 328              		.loc 1 136 0
 329              		.cfi_startproc
 330              		@ args = 0, pretend = 0, frame = 0
 331              		@ frame_needed = 0, uses_anonymous_args = 0
 332              		@ link register save eliminated.
 333              		.loc 1 142 0
 334 0000 7047     		bx	lr
 335              		.cfi_endproc
 336              	.LFE123:
 337              		.size	__core_init, .-__core_init
 338 0002 00BFAFF3 		.section	.text.__early_init,"ax",%progbits
 338      0080AFF3 
 338      0080AFF3 
 338      0080
 339              		.align	2
 340              		.p2align 4,,15
 341              		.weak	__early_init
 342              		.thumb
 343              		.thumb_func
 344              		.type	__early_init, %function
 345              	__early_init:
 346              	.LFB124:
 347              		.loc 1 155 0
 348              		.cfi_startproc
 349              		@ args = 0, pretend = 0, frame = 0
 350              		@ frame_needed = 0, uses_anonymous_args = 0
 351              		@ link register save eliminated.
 352              		.loc 1 155 0
 353 0000 7047     		bx	lr
 354              		.cfi_endproc
ARM GAS  /tmp/ccBegRwk.s 			page 23


 355              	.LFE124:
 356              		.size	__early_init, .-__early_init
 357 0002 00BFAFF3 		.section	.text.__late_init,"ax",%progbits
 357      0080AFF3 
 357      0080AFF3 
 357      0080
 358              		.align	2
 359              		.p2align 4,,15
 360              		.weak	__late_init
 361              		.thumb
 362              		.thumb_func
 363              		.type	__late_init, %function
 364              	__late_init:
 365              	.LFB125:
 366              		.loc 1 169 0
 367              		.cfi_startproc
 368              		@ args = 0, pretend = 0, frame = 0
 369              		@ frame_needed = 0, uses_anonymous_args = 0
 370              		@ link register save eliminated.
 371              		.loc 1 169 0
 372 0000 7047     		bx	lr
 373              		.cfi_endproc
 374              	.LFE125:
 375              		.size	__late_init, .-__late_init
 376 0002 00BFAFF3 		.section	.text.__default_exit,"ax",%progbits
 376      0080AFF3 
 376      0080AFF3 
 376      0080
 377              		.align	2
 378              		.p2align 4,,15
 379              		.weak	__default_exit
 380              		.thumb
 381              		.thumb_func
 382              		.type	__default_exit, %function
 383              	__default_exit:
 384              	.LFB126:
 385              		.loc 1 182 0
 386              		.cfi_startproc
 387              		@ args = 0, pretend = 0, frame = 0
 388              		@ frame_needed = 0, uses_anonymous_args = 0
 389              		@ link register save eliminated.
 390              	.L5:
 391              		.loc 1 186 0 discriminator 1
 392 0000 FEE7     		b	.L5
 393              		.cfi_endproc
 394              	.LFE126:
 395              		.size	__default_exit, .-__default_exit
 396 0002 00BFAFF3 		.section	.text.__init_ram_areas,"ax",%progbits
 396      0080AFF3 
 396      0080AFF3 
 396      0080
 397              		.align	2
 398              		.p2align 4,,15
 399              		.global	__init_ram_areas
 400              		.thumb
 401              		.thumb_func
 402              		.type	__init_ram_areas, %function
ARM GAS  /tmp/ccBegRwk.s 			page 24


 403              	__init_ram_areas:
 404              	.LFB127:
 405              		.loc 1 192 0
 406              		.cfi_startproc
 407              		@ args = 0, pretend = 0, frame = 16
 408              		@ frame_needed = 0, uses_anonymous_args = 0
 409              		@ link register save eliminated.
 410 0000 84B0     		sub	sp, sp, #16
 411              		.cfi_def_cfa_offset 16
 412              		.loc 1 194 0
 413 0002 40F20003 		movw	r3, #:lower16:ram_areas
 414 0006 C0F20003 		movt	r3, #:upper16:ram_areas
 415 000a 0393     		str	r3, [sp, #12]
 416              	.L11:
 417              	.LBB2:
 418              		.loc 1 197 0
 419 000c 039B     		ldr	r3, [sp, #12]
 420 000e 1B68     		ldr	r3, [r3]
 421 0010 0293     		str	r3, [sp, #8]
 422              		.loc 1 198 0
 423 0012 039B     		ldr	r3, [sp, #12]
 424 0014 5B68     		ldr	r3, [r3, #4]
 425 0016 0193     		str	r3, [sp, #4]
 426              		.loc 1 201 0
 427 0018 09E0     		b	.L7
 428              	.L8:
 429              		.loc 1 202 0
 430 001a 029B     		ldr	r3, [sp, #8]
 431 001c 1A68     		ldr	r2, [r3]
 432 001e 019B     		ldr	r3, [sp, #4]
 433 0020 1A60     		str	r2, [r3]
 434              		.loc 1 203 0
 435 0022 019B     		ldr	r3, [sp, #4]
 436 0024 0433     		adds	r3, r3, #4
 437 0026 0193     		str	r3, [sp, #4]
 438              		.loc 1 204 0
 439 0028 029B     		ldr	r3, [sp, #8]
 440 002a 0433     		adds	r3, r3, #4
 441 002c 0293     		str	r3, [sp, #8]
 442              	.L7:
 443              		.loc 1 201 0 discriminator 1
 444 002e 039B     		ldr	r3, [sp, #12]
 445 0030 9A68     		ldr	r2, [r3, #8]
 446 0032 019B     		ldr	r3, [sp, #4]
 447 0034 9A42     		cmp	r2, r3
 448 0036 F0D8     		bhi	.L8
 449              		.loc 1 208 0
 450 0038 05E0     		b	.L9
 451              	.L10:
 452              		.loc 1 209 0
 453 003a 019B     		ldr	r3, [sp, #4]
 454 003c 0022     		movs	r2, #0
 455 003e 1A60     		str	r2, [r3]
 456              		.loc 1 210 0
 457 0040 019B     		ldr	r3, [sp, #4]
 458 0042 0433     		adds	r3, r3, #4
 459 0044 0193     		str	r3, [sp, #4]
ARM GAS  /tmp/ccBegRwk.s 			page 25


 460              	.L9:
 461              		.loc 1 208 0 discriminator 1
 462 0046 039B     		ldr	r3, [sp, #12]
 463 0048 DA68     		ldr	r2, [r3, #12]
 464 004a 019B     		ldr	r3, [sp, #4]
 465 004c 9A42     		cmp	r2, r3
 466 004e F4D8     		bhi	.L10
 467              		.loc 1 212 0
 468 0050 039B     		ldr	r3, [sp, #12]
 469 0052 1033     		adds	r3, r3, #16
 470 0054 0393     		str	r3, [sp, #12]
 471              	.LBE2:
 472              		.loc 1 214 0
 473 0056 039A     		ldr	r2, [sp, #12]
 474 0058 024B     		ldr	r3, .L12
 475 005a 9A42     		cmp	r2, r3
 476 005c D6D3     		bcc	.L11
 477              		.loc 1 216 0
 478 005e 04B0     		add	sp, sp, #16
 479              		@ sp needed
 480 0060 7047     		bx	lr
 481              	.L13:
 482 0062 00BF     		.align	2
 483              	.L12:
 484 0064 80000000 		.word	ram_areas+128
 485              		.cfi_endproc
 486              	.LFE127:
 487              		.size	__init_ram_areas, .-__init_ram_areas
 488 0068 AFF30080 		.text
 488      AFF30080 
 489              	.Letext0:
 490              		.file 2 "/usr/include/newlib/machine/_default_types.h"
 491              		.file 3 "/usr/include/newlib/stdint.h"
 492              		.file 4 "lib/ChibiOS_16.1.4//os/ext/CMSIS/include/core_cm4.h"
 493              		.section	.debug_info,"",%progbits
 494              	.Ldebug_info0:
 495 0000 12030000 		.4byte	0x312
 496 0004 0400     		.2byte	0x4
 497 0006 00000000 		.4byte	.Ldebug_abbrev0
 498 000a 04       		.byte	0x4
 499 000b 01       		.uleb128 0x1
 500 000c 38030000 		.4byte	.LASF57
 501 0010 01       		.byte	0x1
 502 0011 21000000 		.4byte	.LASF58
 503 0015 07040000 		.4byte	.LASF59
 504 0019 00000000 		.4byte	.Ldebug_ranges0+0
 505 001d 00000000 		.4byte	0
 506 0021 00000000 		.4byte	.Ldebug_line0
 507 0025 02       		.uleb128 0x2
 508 0026 01       		.byte	0x1
 509 0027 06       		.byte	0x6
 510 0028 DA010000 		.4byte	.LASF0
 511 002c 02       		.uleb128 0x2
 512 002d 01       		.byte	0x1
 513 002e 08       		.byte	0x8
 514 002f 9E010000 		.4byte	.LASF1
 515 0033 02       		.uleb128 0x2
ARM GAS  /tmp/ccBegRwk.s 			page 26


 516 0034 02       		.byte	0x2
 517 0035 05       		.byte	0x5
 518 0036 7A000000 		.4byte	.LASF2
 519 003a 02       		.uleb128 0x2
 520 003b 02       		.byte	0x2
 521 003c 07       		.byte	0x7
 522 003d 85020000 		.4byte	.LASF3
 523 0041 03       		.uleb128 0x3
 524 0042 2E030000 		.4byte	.LASF5
 525 0046 02       		.byte	0x2
 526 0047 37       		.byte	0x37
 527 0048 4C000000 		.4byte	0x4c
 528 004c 02       		.uleb128 0x2
 529 004d 04       		.byte	0x4
 530 004e 05       		.byte	0x5
 531 004f 48010000 		.4byte	.LASF4
 532 0053 03       		.uleb128 0x3
 533 0054 9E000000 		.4byte	.LASF6
 534 0058 02       		.byte	0x2
 535 0059 38       		.byte	0x38
 536 005a 5E000000 		.4byte	0x5e
 537 005e 02       		.uleb128 0x2
 538 005f 04       		.byte	0x4
 539 0060 07       		.byte	0x7
 540 0061 22020000 		.4byte	.LASF7
 541 0065 02       		.uleb128 0x2
 542 0066 08       		.byte	0x8
 543 0067 05       		.byte	0x5
 544 0068 00010000 		.4byte	.LASF8
 545 006c 02       		.uleb128 0x2
 546 006d 08       		.byte	0x8
 547 006e 07       		.byte	0x7
 548 006f E6010000 		.4byte	.LASF9
 549 0073 04       		.uleb128 0x4
 550 0074 04       		.byte	0x4
 551 0075 05       		.byte	0x5
 552 0076 696E7400 		.ascii	"int\000"
 553 007a 02       		.uleb128 0x2
 554 007b 04       		.byte	0x4
 555 007c 07       		.byte	0x7
 556 007d 15020000 		.4byte	.LASF10
 557 0081 03       		.uleb128 0x3
 558 0082 7D020000 		.4byte	.LASF11
 559 0086 03       		.byte	0x3
 560 0087 41       		.byte	0x41
 561 0088 41000000 		.4byte	0x41
 562 008c 03       		.uleb128 0x3
 563 008d FD010000 		.4byte	.LASF12
 564 0091 03       		.byte	0x3
 565 0092 42       		.byte	0x42
 566 0093 53000000 		.4byte	0x53
 567 0097 02       		.uleb128 0x2
 568 0098 04       		.byte	0x4
 569 0099 07       		.byte	0x7
 570 009a 84000000 		.4byte	.LASF13
 571 009e 05       		.uleb128 0x5
 572 009f 10       		.byte	0x10
ARM GAS  /tmp/ccBegRwk.s 			page 27


 573 00a0 01       		.byte	0x1
 574 00a1 34       		.byte	0x34
 575 00a2 D7000000 		.4byte	0xd7
 576 00a6 06       		.uleb128 0x6
 577 00a7 43040000 		.4byte	.LASF14
 578 00ab 01       		.byte	0x1
 579 00ac 35       		.byte	0x35
 580 00ad D7000000 		.4byte	0xd7
 581 00b1 00       		.byte	0
 582 00b2 06       		.uleb128 0x6
 583 00b3 39040000 		.4byte	.LASF15
 584 00b7 01       		.byte	0x1
 585 00b8 36       		.byte	0x36
 586 00b9 D7000000 		.4byte	0xd7
 587 00bd 04       		.byte	0x4
 588 00be 06       		.uleb128 0x6
 589 00bf 6F000000 		.4byte	.LASF16
 590 00c3 01       		.byte	0x1
 591 00c4 37       		.byte	0x37
 592 00c5 D7000000 		.4byte	0xd7
 593 00c9 08       		.byte	0x8
 594 00ca 06       		.uleb128 0x6
 595 00cb 1D010000 		.4byte	.LASF17
 596 00cf 01       		.byte	0x1
 597 00d0 38       		.byte	0x38
 598 00d1 D7000000 		.4byte	0xd7
 599 00d5 0C       		.byte	0xc
 600 00d6 00       		.byte	0
 601 00d7 07       		.uleb128 0x7
 602 00d8 04       		.byte	0x4
 603 00d9 8C000000 		.4byte	0x8c
 604 00dd 03       		.uleb128 0x3
 605 00de 2A010000 		.4byte	.LASF18
 606 00e2 01       		.byte	0x1
 607 00e3 39       		.byte	0x39
 608 00e4 9E000000 		.4byte	0x9e
 609 00e8 08       		.uleb128 0x8
 610 00e9 D1000000 		.4byte	.LASF19
 611 00ed 01       		.byte	0x1
 612 00ee 88       		.byte	0x88
 613 00ef 00000000 		.4byte	.LFB123
 614 00f3 02000000 		.4byte	.LFE123-.LFB123
 615 00f7 01       		.uleb128 0x1
 616 00f8 9C       		.byte	0x9c
 617 00f9 08       		.uleb128 0x8
 618 00fa 70020000 		.4byte	.LASF20
 619 00fe 01       		.byte	0x1
 620 00ff 9B       		.byte	0x9b
 621 0100 00000000 		.4byte	.LFB124
 622 0104 02000000 		.4byte	.LFE124-.LFB124
 623 0108 01       		.uleb128 0x1
 624 0109 9C       		.byte	0x9c
 625 010a 08       		.uleb128 0x8
 626 010b 51010000 		.4byte	.LASF21
 627 010f 01       		.byte	0x1
 628 0110 A9       		.byte	0xa9
 629 0111 00000000 		.4byte	.LFB125
ARM GAS  /tmp/ccBegRwk.s 			page 28


 630 0115 02000000 		.4byte	.LFE125-.LFB125
 631 0119 01       		.uleb128 0x1
 632 011a 9C       		.byte	0x9c
 633 011b 08       		.uleb128 0x8
 634 011c 0E010000 		.4byte	.LASF22
 635 0120 01       		.byte	0x1
 636 0121 B6       		.byte	0xb6
 637 0122 00000000 		.4byte	.LFB126
 638 0126 02000000 		.4byte	.LFE126-.LFB126
 639 012a 01       		.uleb128 0x1
 640 012b 9C       		.byte	0x9c
 641 012c 09       		.uleb128 0x9
 642 012d 8D000000 		.4byte	.LASF60
 643 0131 01       		.byte	0x1
 644 0132 C0       		.byte	0xc0
 645 0133 00000000 		.4byte	.LFB127
 646 0137 68000000 		.4byte	.LFE127-.LFB127
 647 013b 01       		.uleb128 0x1
 648 013c 9C       		.byte	0x9c
 649 013d 73010000 		.4byte	0x173
 650 0141 0A       		.uleb128 0xa
 651 0142 72617000 		.ascii	"rap\000"
 652 0146 01       		.byte	0x1
 653 0147 C2       		.byte	0xc2
 654 0148 73010000 		.4byte	0x173
 655 014c 02       		.uleb128 0x2
 656 014d 91       		.byte	0x91
 657 014e 7C       		.sleb128 -4
 658 014f 0B       		.uleb128 0xb
 659 0150 0C000000 		.4byte	.LBB2
 660 0154 4A000000 		.4byte	.LBE2-.LBB2
 661 0158 0A       		.uleb128 0xa
 662 0159 747000   		.ascii	"tp\000"
 663 015c 01       		.byte	0x1
 664 015d C5       		.byte	0xc5
 665 015e D7000000 		.4byte	0xd7
 666 0162 02       		.uleb128 0x2
 667 0163 91       		.byte	0x91
 668 0164 78       		.sleb128 -8
 669 0165 0A       		.uleb128 0xa
 670 0166 7000     		.ascii	"p\000"
 671 0168 01       		.byte	0x1
 672 0169 C6       		.byte	0xc6
 673 016a D7000000 		.4byte	0xd7
 674 016e 02       		.uleb128 0x2
 675 016f 91       		.byte	0x91
 676 0170 74       		.sleb128 -12
 677 0171 00       		.byte	0
 678 0172 00       		.byte	0
 679 0173 07       		.uleb128 0x7
 680 0174 04       		.byte	0x4
 681 0175 79010000 		.4byte	0x179
 682 0179 0C       		.uleb128 0xc
 683 017a DD000000 		.4byte	0xdd
 684 017e 0D       		.uleb128 0xd
 685 017f DD000000 		.4byte	0xdd
 686 0183 8E010000 		.4byte	0x18e
ARM GAS  /tmp/ccBegRwk.s 			page 29


 687 0187 0E       		.uleb128 0xe
 688 0188 97000000 		.4byte	0x97
 689 018c 07       		.byte	0x7
 690 018d 00       		.byte	0
 691 018e 0F       		.uleb128 0xf
 692 018f C7000000 		.4byte	.LASF23
 693 0193 01       		.byte	0x1
 694 0194 5C       		.byte	0x5c
 695 0195 9F010000 		.4byte	0x19f
 696 0199 05       		.uleb128 0x5
 697 019a 03       		.byte	0x3
 698 019b 00000000 		.4byte	ram_areas
 699 019f 0C       		.uleb128 0xc
 700 01a0 7E010000 		.4byte	0x17e
 701 01a4 10       		.uleb128 0x10
 702 01a5 11030000 		.4byte	.LASF24
 703 01a9 04       		.byte	0x4
 704 01aa FA06     		.2byte	0x6fa
 705 01ac B0010000 		.4byte	0x1b0
 706 01b0 11       		.uleb128 0x11
 707 01b1 81000000 		.4byte	0x81
 708 01b5 12       		.uleb128 0x12
 709 01b6 AB020000 		.4byte	.LASF25
 710 01ba 01       		.byte	0x1
 711 01bb 40       		.byte	0x40
 712 01bc 8C000000 		.4byte	0x8c
 713 01c0 12       		.uleb128 0x12
 714 01c1 13000000 		.4byte	.LASF26
 715 01c5 01       		.byte	0x1
 716 01c6 40       		.byte	0x40
 717 01c7 8C000000 		.4byte	0x8c
 718 01cb 12       		.uleb128 0x12
 719 01cc EF020000 		.4byte	.LASF27
 720 01d0 01       		.byte	0x1
 721 01d1 40       		.byte	0x40
 722 01d2 8C000000 		.4byte	0x8c
 723 01d6 12       		.uleb128 0x12
 724 01d7 BB010000 		.4byte	.LASF28
 725 01db 01       		.byte	0x1
 726 01dc 40       		.byte	0x40
 727 01dd 8C000000 		.4byte	0x8c
 728 01e1 12       		.uleb128 0x12
 729 01e2 8B010000 		.4byte	.LASF29
 730 01e6 01       		.byte	0x1
 731 01e7 43       		.byte	0x43
 732 01e8 8C000000 		.4byte	0x8c
 733 01ec 12       		.uleb128 0x12
 734 01ed 3A010000 		.4byte	.LASF30
 735 01f1 01       		.byte	0x1
 736 01f2 43       		.byte	0x43
 737 01f3 8C000000 		.4byte	0x8c
 738 01f7 12       		.uleb128 0x12
 739 01f8 6D010000 		.4byte	.LASF31
 740 01fc 01       		.byte	0x1
 741 01fd 43       		.byte	0x43
 742 01fe 8C000000 		.4byte	0x8c
 743 0202 12       		.uleb128 0x12
ARM GAS  /tmp/ccBegRwk.s 			page 30


 744 0203 DB030000 		.4byte	.LASF32
 745 0207 01       		.byte	0x1
 746 0208 43       		.byte	0x43
 747 0209 8C000000 		.4byte	0x8c
 748 020d 12       		.uleb128 0x12
 749 020e DC020000 		.4byte	.LASF33
 750 0212 01       		.byte	0x1
 751 0213 46       		.byte	0x46
 752 0214 8C000000 		.4byte	0x8c
 753 0218 12       		.uleb128 0x12
 754 0219 CE020000 		.4byte	.LASF34
 755 021d 01       		.byte	0x1
 756 021e 46       		.byte	0x46
 757 021f 8C000000 		.4byte	0x8c
 758 0223 12       		.uleb128 0x12
 759 0224 7C010000 		.4byte	.LASF35
 760 0228 01       		.byte	0x1
 761 0229 46       		.byte	0x46
 762 022a 8C000000 		.4byte	0x8c
 763 022e 12       		.uleb128 0x12
 764 022f F0000000 		.4byte	.LASF36
 765 0233 01       		.byte	0x1
 766 0234 46       		.byte	0x46
 767 0235 8C000000 		.4byte	0x8c
 768 0239 12       		.uleb128 0x12
 769 023a 26040000 		.4byte	.LASF37
 770 023e 01       		.byte	0x1
 771 023f 49       		.byte	0x49
 772 0240 8C000000 		.4byte	0x8c
 773 0244 12       		.uleb128 0x12
 774 0245 61000000 		.4byte	.LASF38
 775 0249 01       		.byte	0x1
 776 024a 49       		.byte	0x49
 777 024b 8C000000 		.4byte	0x8c
 778 024f 12       		.uleb128 0x12
 779 0250 AC010000 		.4byte	.LASF39
 780 0254 01       		.byte	0x1
 781 0255 49       		.byte	0x49
 782 0256 8C000000 		.4byte	0x8c
 783 025a 12       		.uleb128 0x12
 784 025b A9000000 		.4byte	.LASF40
 785 025f 01       		.byte	0x1
 786 0260 49       		.byte	0x49
 787 0261 8C000000 		.4byte	0x8c
 788 0265 12       		.uleb128 0x12
 789 0266 FE020000 		.4byte	.LASF41
 790 026a 01       		.byte	0x1
 791 026b 4C       		.byte	0x4c
 792 026c 8C000000 		.4byte	0x8c
 793 0270 12       		.uleb128 0x12
 794 0271 EB030000 		.4byte	.LASF42
 795 0275 01       		.byte	0x1
 796 0276 4C       		.byte	0x4c
 797 0277 8C000000 		.4byte	0x8c
 798 027b 12       		.uleb128 0x12
 799 027c CB010000 		.4byte	.LASF43
 800 0280 01       		.byte	0x1
ARM GAS  /tmp/ccBegRwk.s 			page 31


 801 0281 4C       		.byte	0x4c
 802 0282 8C000000 		.4byte	0x8c
 803 0286 12       		.uleb128 0x12
 804 0287 43020000 		.4byte	.LASF44
 805 028b 01       		.byte	0x1
 806 028c 4C       		.byte	0x4c
 807 028d 8C000000 		.4byte	0x8c
 808 0291 12       		.uleb128 0x12
 809 0292 00000000 		.4byte	.LASF45
 810 0296 01       		.byte	0x1
 811 0297 4F       		.byte	0x4f
 812 0298 8C000000 		.4byte	0x8c
 813 029c 12       		.uleb128 0x12
 814 029d B9000000 		.4byte	.LASF46
 815 02a1 01       		.byte	0x1
 816 02a2 4F       		.byte	0x4f
 817 02a3 8C000000 		.4byte	0x8c
 818 02a7 12       		.uleb128 0x12
 819 02a8 06020000 		.4byte	.LASF47
 820 02ac 01       		.byte	0x1
 821 02ad 4F       		.byte	0x4f
 822 02ae 8C000000 		.4byte	0x8c
 823 02b2 12       		.uleb128 0x12
 824 02b3 BE020000 		.4byte	.LASF48
 825 02b7 01       		.byte	0x1
 826 02b8 4F       		.byte	0x4f
 827 02b9 8C000000 		.4byte	0x8c
 828 02bd 12       		.uleb128 0x12
 829 02be DD000000 		.4byte	.LASF49
 830 02c2 01       		.byte	0x1
 831 02c3 52       		.byte	0x52
 832 02c4 8C000000 		.4byte	0x8c
 833 02c8 12       		.uleb128 0x12
 834 02c9 53020000 		.4byte	.LASF50
 835 02cd 01       		.byte	0x1
 836 02ce 52       		.byte	0x52
 837 02cf 8C000000 		.4byte	0x8c
 838 02d3 12       		.uleb128 0x12
 839 02d4 34020000 		.4byte	.LASF51
 840 02d8 01       		.byte	0x1
 841 02d9 52       		.byte	0x52
 842 02da 8C000000 		.4byte	0x8c
 843 02de 12       		.uleb128 0x12
 844 02df 5D010000 		.4byte	.LASF52
 845 02e3 01       		.byte	0x1
 846 02e4 52       		.byte	0x52
 847 02e5 8C000000 		.4byte	0x8c
 848 02e9 12       		.uleb128 0x12
 849 02ea 98020000 		.4byte	.LASF53
 850 02ee 01       		.byte	0x1
 851 02ef 55       		.byte	0x55
 852 02f0 8C000000 		.4byte	0x8c
 853 02f4 12       		.uleb128 0x12
 854 02f5 F9030000 		.4byte	.LASF54
 855 02f9 01       		.byte	0x1
 856 02fa 55       		.byte	0x55
 857 02fb 8C000000 		.4byte	0x8c
ARM GAS  /tmp/ccBegRwk.s 			page 32


 858 02ff 12       		.uleb128 0x12
 859 0300 61020000 		.4byte	.LASF55
 860 0304 01       		.byte	0x1
 861 0305 55       		.byte	0x55
 862 0306 8C000000 		.4byte	0x8c
 863 030a 12       		.uleb128 0x12
 864 030b 1E030000 		.4byte	.LASF56
 865 030f 01       		.byte	0x1
 866 0310 55       		.byte	0x55
 867 0311 8C000000 		.4byte	0x8c
 868 0315 00       		.byte	0
 869              		.section	.debug_abbrev,"",%progbits
 870              	.Ldebug_abbrev0:
 871 0000 01       		.uleb128 0x1
 872 0001 11       		.uleb128 0x11
 873 0002 01       		.byte	0x1
 874 0003 25       		.uleb128 0x25
 875 0004 0E       		.uleb128 0xe
 876 0005 13       		.uleb128 0x13
 877 0006 0B       		.uleb128 0xb
 878 0007 03       		.uleb128 0x3
 879 0008 0E       		.uleb128 0xe
 880 0009 1B       		.uleb128 0x1b
 881 000a 0E       		.uleb128 0xe
 882 000b 55       		.uleb128 0x55
 883 000c 17       		.uleb128 0x17
 884 000d 11       		.uleb128 0x11
 885 000e 01       		.uleb128 0x1
 886 000f 10       		.uleb128 0x10
 887 0010 17       		.uleb128 0x17
 888 0011 00       		.byte	0
 889 0012 00       		.byte	0
 890 0013 02       		.uleb128 0x2
 891 0014 24       		.uleb128 0x24
 892 0015 00       		.byte	0
 893 0016 0B       		.uleb128 0xb
 894 0017 0B       		.uleb128 0xb
 895 0018 3E       		.uleb128 0x3e
 896 0019 0B       		.uleb128 0xb
 897 001a 03       		.uleb128 0x3
 898 001b 0E       		.uleb128 0xe
 899 001c 00       		.byte	0
 900 001d 00       		.byte	0
 901 001e 03       		.uleb128 0x3
 902 001f 16       		.uleb128 0x16
 903 0020 00       		.byte	0
 904 0021 03       		.uleb128 0x3
 905 0022 0E       		.uleb128 0xe
 906 0023 3A       		.uleb128 0x3a
 907 0024 0B       		.uleb128 0xb
 908 0025 3B       		.uleb128 0x3b
 909 0026 0B       		.uleb128 0xb
 910 0027 49       		.uleb128 0x49
 911 0028 13       		.uleb128 0x13
 912 0029 00       		.byte	0
 913 002a 00       		.byte	0
 914 002b 04       		.uleb128 0x4
ARM GAS  /tmp/ccBegRwk.s 			page 33


 915 002c 24       		.uleb128 0x24
 916 002d 00       		.byte	0
 917 002e 0B       		.uleb128 0xb
 918 002f 0B       		.uleb128 0xb
 919 0030 3E       		.uleb128 0x3e
 920 0031 0B       		.uleb128 0xb
 921 0032 03       		.uleb128 0x3
 922 0033 08       		.uleb128 0x8
 923 0034 00       		.byte	0
 924 0035 00       		.byte	0
 925 0036 05       		.uleb128 0x5
 926 0037 13       		.uleb128 0x13
 927 0038 01       		.byte	0x1
 928 0039 0B       		.uleb128 0xb
 929 003a 0B       		.uleb128 0xb
 930 003b 3A       		.uleb128 0x3a
 931 003c 0B       		.uleb128 0xb
 932 003d 3B       		.uleb128 0x3b
 933 003e 0B       		.uleb128 0xb
 934 003f 01       		.uleb128 0x1
 935 0040 13       		.uleb128 0x13
 936 0041 00       		.byte	0
 937 0042 00       		.byte	0
 938 0043 06       		.uleb128 0x6
 939 0044 0D       		.uleb128 0xd
 940 0045 00       		.byte	0
 941 0046 03       		.uleb128 0x3
 942 0047 0E       		.uleb128 0xe
 943 0048 3A       		.uleb128 0x3a
 944 0049 0B       		.uleb128 0xb
 945 004a 3B       		.uleb128 0x3b
 946 004b 0B       		.uleb128 0xb
 947 004c 49       		.uleb128 0x49
 948 004d 13       		.uleb128 0x13
 949 004e 38       		.uleb128 0x38
 950 004f 0B       		.uleb128 0xb
 951 0050 00       		.byte	0
 952 0051 00       		.byte	0
 953 0052 07       		.uleb128 0x7
 954 0053 0F       		.uleb128 0xf
 955 0054 00       		.byte	0
 956 0055 0B       		.uleb128 0xb
 957 0056 0B       		.uleb128 0xb
 958 0057 49       		.uleb128 0x49
 959 0058 13       		.uleb128 0x13
 960 0059 00       		.byte	0
 961 005a 00       		.byte	0
 962 005b 08       		.uleb128 0x8
 963 005c 2E       		.uleb128 0x2e
 964 005d 00       		.byte	0
 965 005e 3F       		.uleb128 0x3f
 966 005f 19       		.uleb128 0x19
 967 0060 03       		.uleb128 0x3
 968 0061 0E       		.uleb128 0xe
 969 0062 3A       		.uleb128 0x3a
 970 0063 0B       		.uleb128 0xb
 971 0064 3B       		.uleb128 0x3b
ARM GAS  /tmp/ccBegRwk.s 			page 34


 972 0065 0B       		.uleb128 0xb
 973 0066 27       		.uleb128 0x27
 974 0067 19       		.uleb128 0x19
 975 0068 11       		.uleb128 0x11
 976 0069 01       		.uleb128 0x1
 977 006a 12       		.uleb128 0x12
 978 006b 06       		.uleb128 0x6
 979 006c 40       		.uleb128 0x40
 980 006d 18       		.uleb128 0x18
 981 006e 9742     		.uleb128 0x2117
 982 0070 19       		.uleb128 0x19
 983 0071 00       		.byte	0
 984 0072 00       		.byte	0
 985 0073 09       		.uleb128 0x9
 986 0074 2E       		.uleb128 0x2e
 987 0075 01       		.byte	0x1
 988 0076 3F       		.uleb128 0x3f
 989 0077 19       		.uleb128 0x19
 990 0078 03       		.uleb128 0x3
 991 0079 0E       		.uleb128 0xe
 992 007a 3A       		.uleb128 0x3a
 993 007b 0B       		.uleb128 0xb
 994 007c 3B       		.uleb128 0x3b
 995 007d 0B       		.uleb128 0xb
 996 007e 27       		.uleb128 0x27
 997 007f 19       		.uleb128 0x19
 998 0080 11       		.uleb128 0x11
 999 0081 01       		.uleb128 0x1
 1000 0082 12       		.uleb128 0x12
 1001 0083 06       		.uleb128 0x6
 1002 0084 40       		.uleb128 0x40
 1003 0085 18       		.uleb128 0x18
 1004 0086 9742     		.uleb128 0x2117
 1005 0088 19       		.uleb128 0x19
 1006 0089 01       		.uleb128 0x1
 1007 008a 13       		.uleb128 0x13
 1008 008b 00       		.byte	0
 1009 008c 00       		.byte	0
 1010 008d 0A       		.uleb128 0xa
 1011 008e 34       		.uleb128 0x34
 1012 008f 00       		.byte	0
 1013 0090 03       		.uleb128 0x3
 1014 0091 08       		.uleb128 0x8
 1015 0092 3A       		.uleb128 0x3a
 1016 0093 0B       		.uleb128 0xb
 1017 0094 3B       		.uleb128 0x3b
 1018 0095 0B       		.uleb128 0xb
 1019 0096 49       		.uleb128 0x49
 1020 0097 13       		.uleb128 0x13
 1021 0098 02       		.uleb128 0x2
 1022 0099 18       		.uleb128 0x18
 1023 009a 00       		.byte	0
 1024 009b 00       		.byte	0
 1025 009c 0B       		.uleb128 0xb
 1026 009d 0B       		.uleb128 0xb
 1027 009e 01       		.byte	0x1
 1028 009f 11       		.uleb128 0x11
ARM GAS  /tmp/ccBegRwk.s 			page 35


 1029 00a0 01       		.uleb128 0x1
 1030 00a1 12       		.uleb128 0x12
 1031 00a2 06       		.uleb128 0x6
 1032 00a3 00       		.byte	0
 1033 00a4 00       		.byte	0
 1034 00a5 0C       		.uleb128 0xc
 1035 00a6 26       		.uleb128 0x26
 1036 00a7 00       		.byte	0
 1037 00a8 49       		.uleb128 0x49
 1038 00a9 13       		.uleb128 0x13
 1039 00aa 00       		.byte	0
 1040 00ab 00       		.byte	0
 1041 00ac 0D       		.uleb128 0xd
 1042 00ad 01       		.uleb128 0x1
 1043 00ae 01       		.byte	0x1
 1044 00af 49       		.uleb128 0x49
 1045 00b0 13       		.uleb128 0x13
 1046 00b1 01       		.uleb128 0x1
 1047 00b2 13       		.uleb128 0x13
 1048 00b3 00       		.byte	0
 1049 00b4 00       		.byte	0
 1050 00b5 0E       		.uleb128 0xe
 1051 00b6 21       		.uleb128 0x21
 1052 00b7 00       		.byte	0
 1053 00b8 49       		.uleb128 0x49
 1054 00b9 13       		.uleb128 0x13
 1055 00ba 2F       		.uleb128 0x2f
 1056 00bb 0B       		.uleb128 0xb
 1057 00bc 00       		.byte	0
 1058 00bd 00       		.byte	0
 1059 00be 0F       		.uleb128 0xf
 1060 00bf 34       		.uleb128 0x34
 1061 00c0 00       		.byte	0
 1062 00c1 03       		.uleb128 0x3
 1063 00c2 0E       		.uleb128 0xe
 1064 00c3 3A       		.uleb128 0x3a
 1065 00c4 0B       		.uleb128 0xb
 1066 00c5 3B       		.uleb128 0x3b
 1067 00c6 0B       		.uleb128 0xb
 1068 00c7 49       		.uleb128 0x49
 1069 00c8 13       		.uleb128 0x13
 1070 00c9 02       		.uleb128 0x2
 1071 00ca 18       		.uleb128 0x18
 1072 00cb 00       		.byte	0
 1073 00cc 00       		.byte	0
 1074 00cd 10       		.uleb128 0x10
 1075 00ce 34       		.uleb128 0x34
 1076 00cf 00       		.byte	0
 1077 00d0 03       		.uleb128 0x3
 1078 00d1 0E       		.uleb128 0xe
 1079 00d2 3A       		.uleb128 0x3a
 1080 00d3 0B       		.uleb128 0xb
 1081 00d4 3B       		.uleb128 0x3b
 1082 00d5 05       		.uleb128 0x5
 1083 00d6 49       		.uleb128 0x49
 1084 00d7 13       		.uleb128 0x13
 1085 00d8 3F       		.uleb128 0x3f
ARM GAS  /tmp/ccBegRwk.s 			page 36


 1086 00d9 19       		.uleb128 0x19
 1087 00da 3C       		.uleb128 0x3c
 1088 00db 19       		.uleb128 0x19
 1089 00dc 00       		.byte	0
 1090 00dd 00       		.byte	0
 1091 00de 11       		.uleb128 0x11
 1092 00df 35       		.uleb128 0x35
 1093 00e0 00       		.byte	0
 1094 00e1 49       		.uleb128 0x49
 1095 00e2 13       		.uleb128 0x13
 1096 00e3 00       		.byte	0
 1097 00e4 00       		.byte	0
 1098 00e5 12       		.uleb128 0x12
 1099 00e6 34       		.uleb128 0x34
 1100 00e7 00       		.byte	0
 1101 00e8 03       		.uleb128 0x3
 1102 00e9 0E       		.uleb128 0xe
 1103 00ea 3A       		.uleb128 0x3a
 1104 00eb 0B       		.uleb128 0xb
 1105 00ec 3B       		.uleb128 0x3b
 1106 00ed 0B       		.uleb128 0xb
 1107 00ee 49       		.uleb128 0x49
 1108 00ef 13       		.uleb128 0x13
 1109 00f0 3F       		.uleb128 0x3f
 1110 00f1 19       		.uleb128 0x19
 1111 00f2 3C       		.uleb128 0x3c
 1112 00f3 19       		.uleb128 0x19
 1113 00f4 00       		.byte	0
 1114 00f5 00       		.byte	0
 1115 00f6 00       		.byte	0
 1116              		.section	.debug_aranges,"",%progbits
 1117 0000 3C000000 		.4byte	0x3c
 1118 0004 0200     		.2byte	0x2
 1119 0006 00000000 		.4byte	.Ldebug_info0
 1120 000a 04       		.byte	0x4
 1121 000b 00       		.byte	0
 1122 000c 0000     		.2byte	0
 1123 000e 0000     		.2byte	0
 1124 0010 00000000 		.4byte	.LFB123
 1125 0014 02000000 		.4byte	.LFE123-.LFB123
 1126 0018 00000000 		.4byte	.LFB124
 1127 001c 02000000 		.4byte	.LFE124-.LFB124
 1128 0020 00000000 		.4byte	.LFB125
 1129 0024 02000000 		.4byte	.LFE125-.LFB125
 1130 0028 00000000 		.4byte	.LFB126
 1131 002c 02000000 		.4byte	.LFE126-.LFB126
 1132 0030 00000000 		.4byte	.LFB127
 1133 0034 68000000 		.4byte	.LFE127-.LFB127
 1134 0038 00000000 		.4byte	0
 1135 003c 00000000 		.4byte	0
 1136              		.section	.debug_ranges,"",%progbits
 1137              	.Ldebug_ranges0:
 1138 0000 00000000 		.4byte	.LFB123
 1139 0004 02000000 		.4byte	.LFE123
 1140 0008 00000000 		.4byte	.LFB124
 1141 000c 02000000 		.4byte	.LFE124
 1142 0010 00000000 		.4byte	.LFB125
ARM GAS  /tmp/ccBegRwk.s 			page 37


 1143 0014 02000000 		.4byte	.LFE125
 1144 0018 00000000 		.4byte	.LFB126
 1145 001c 02000000 		.4byte	.LFE126
 1146 0020 00000000 		.4byte	.LFB127
 1147 0024 68000000 		.4byte	.LFE127
 1148 0028 00000000 		.4byte	0
 1149 002c 00000000 		.4byte	0
 1150              		.section	.debug_line,"",%progbits
 1151              	.Ldebug_line0:
 1152 0000 52010000 		.section	.debug_str,"MS",%progbits,1
 1152      0200DD00 
 1152      00000201 
 1152      FB0E0D00 
 1152      01010101 
 1153              	.LASF45:
 1154 0000 5F5F7261 		.ascii	"__ram5_init_text__\000"
 1154      6D355F69 
 1154      6E69745F 
 1154      74657874 
 1154      5F5F00
 1155              	.LASF26:
 1156 0013 5F5F7261 		.ascii	"__ram0_init__\000"
 1156      6D305F69 
 1156      6E69745F 
 1156      5F00
 1157              	.LASF58:
 1158 0021 6C69622F 		.ascii	"lib/ChibiOS_16.1.4//os/common/ports/ARMCMx/compiler"
 1158      43686962 
 1158      694F535F 
 1158      31362E31 
 1158      2E342F2F 
 1159 0054 732F4743 		.ascii	"s/GCC/crt1.c\000"
 1159      432F6372 
 1159      74312E63 
 1159      00
 1160              	.LASF38:
 1161 0061 5F5F7261 		.ascii	"__ram3_init__\000"
 1161      6D335F69 
 1161      6E69745F 
 1161      5F00
 1162              	.LASF16:
 1163 006f 636C6561 		.ascii	"clear_area\000"
 1163      725F6172 
 1163      656100
 1164              	.LASF2:
 1165 007a 73686F72 		.ascii	"short int\000"
 1165      7420696E 
 1165      7400
 1166              	.LASF13:
 1167 0084 73697A65 		.ascii	"sizetype\000"
 1167      74797065 
 1167      00
 1168              	.LASF60:
 1169 008d 5F5F696E 		.ascii	"__init_ram_areas\000"
 1169      69745F72 
 1169      616D5F61 
 1169      72656173 
ARM GAS  /tmp/ccBegRwk.s 			page 38


 1169      00
 1170              	.LASF6:
 1171 009e 5F5F7569 		.ascii	"__uint32_t\000"
 1171      6E743332 
 1171      5F7400
 1172              	.LASF40:
 1173 00a9 5F5F7261 		.ascii	"__ram3_noinit__\000"
 1173      6D335F6E 
 1173      6F696E69 
 1173      745F5F00 
 1174              	.LASF46:
 1175 00b9 5F5F7261 		.ascii	"__ram5_init__\000"
 1175      6D355F69 
 1175      6E69745F 
 1175      5F00
 1176              	.LASF23:
 1177 00c7 72616D5F 		.ascii	"ram_areas\000"
 1177      61726561 
 1177      7300
 1178              	.LASF19:
 1179 00d1 5F5F636F 		.ascii	"__core_init\000"
 1179      72655F69 
 1179      6E697400 
 1180              	.LASF49:
 1181 00dd 5F5F7261 		.ascii	"__ram6_init_text__\000"
 1181      6D365F69 
 1181      6E69745F 
 1181      74657874 
 1181      5F5F00
 1182              	.LASF36:
 1183 00f0 5F5F7261 		.ascii	"__ram2_noinit__\000"
 1183      6D325F6E 
 1183      6F696E69 
 1183      745F5F00 
 1184              	.LASF8:
 1185 0100 6C6F6E67 		.ascii	"long long int\000"
 1185      206C6F6E 
 1185      6720696E 
 1185      7400
 1186              	.LASF22:
 1187 010e 5F5F6465 		.ascii	"__default_exit\000"
 1187      6661756C 
 1187      745F6578 
 1187      697400
 1188              	.LASF17:
 1189 011d 6E6F5F69 		.ascii	"no_init_area\000"
 1189      6E69745F 
 1189      61726561 
 1189      00
 1190              	.LASF18:
 1191 012a 72616D5F 		.ascii	"ram_init_area_t\000"
 1191      696E6974 
 1191      5F617265 
 1191      615F7400 
 1192              	.LASF30:
 1193 013a 5F5F7261 		.ascii	"__ram1_init__\000"
 1193      6D315F69 
ARM GAS  /tmp/ccBegRwk.s 			page 39


 1193      6E69745F 
 1193      5F00
 1194              	.LASF4:
 1195 0148 6C6F6E67 		.ascii	"long int\000"
 1195      20696E74 
 1195      00
 1196              	.LASF21:
 1197 0151 5F5F6C61 		.ascii	"__late_init\000"
 1197      74655F69 
 1197      6E697400 
 1198              	.LASF52:
 1199 015d 5F5F7261 		.ascii	"__ram6_noinit__\000"
 1199      6D365F6E 
 1199      6F696E69 
 1199      745F5F00 
 1200              	.LASF31:
 1201 016d 5F5F7261 		.ascii	"__ram1_clear__\000"
 1201      6D315F63 
 1201      6C656172 
 1201      5F5F00
 1202              	.LASF35:
 1203 017c 5F5F7261 		.ascii	"__ram2_clear__\000"
 1203      6D325F63 
 1203      6C656172 
 1203      5F5F00
 1204              	.LASF29:
 1205 018b 5F5F7261 		.ascii	"__ram1_init_text__\000"
 1205      6D315F69 
 1205      6E69745F 
 1205      74657874 
 1205      5F5F00
 1206              	.LASF1:
 1207 019e 756E7369 		.ascii	"unsigned char\000"
 1207      676E6564 
 1207      20636861 
 1207      7200
 1208              	.LASF39:
 1209 01ac 5F5F7261 		.ascii	"__ram3_clear__\000"
 1209      6D335F63 
 1209      6C656172 
 1209      5F5F00
 1210              	.LASF28:
 1211 01bb 5F5F7261 		.ascii	"__ram0_noinit__\000"
 1211      6D305F6E 
 1211      6F696E69 
 1211      745F5F00 
 1212              	.LASF43:
 1213 01cb 5F5F7261 		.ascii	"__ram4_clear__\000"
 1213      6D345F63 
 1213      6C656172 
 1213      5F5F00
 1214              	.LASF0:
 1215 01da 7369676E 		.ascii	"signed char\000"
 1215      65642063 
 1215      68617200 
 1216              	.LASF9:
 1217 01e6 6C6F6E67 		.ascii	"long long unsigned int\000"
ARM GAS  /tmp/ccBegRwk.s 			page 40


 1217      206C6F6E 
 1217      6720756E 
 1217      7369676E 
 1217      65642069 
 1218              	.LASF12:
 1219 01fd 75696E74 		.ascii	"uint32_t\000"
 1219      33325F74 
 1219      00
 1220              	.LASF47:
 1221 0206 5F5F7261 		.ascii	"__ram5_clear__\000"
 1221      6D355F63 
 1221      6C656172 
 1221      5F5F00
 1222              	.LASF10:
 1223 0215 756E7369 		.ascii	"unsigned int\000"
 1223      676E6564 
 1223      20696E74 
 1223      00
 1224              	.LASF7:
 1225 0222 6C6F6E67 		.ascii	"long unsigned int\000"
 1225      20756E73 
 1225      69676E65 
 1225      6420696E 
 1225      7400
 1226              	.LASF51:
 1227 0234 5F5F7261 		.ascii	"__ram6_clear__\000"
 1227      6D365F63 
 1227      6C656172 
 1227      5F5F00
 1228              	.LASF44:
 1229 0243 5F5F7261 		.ascii	"__ram4_noinit__\000"
 1229      6D345F6E 
 1229      6F696E69 
 1229      745F5F00 
 1230              	.LASF50:
 1231 0253 5F5F7261 		.ascii	"__ram6_init__\000"
 1231      6D365F69 
 1231      6E69745F 
 1231      5F00
 1232              	.LASF55:
 1233 0261 5F5F7261 		.ascii	"__ram7_clear__\000"
 1233      6D375F63 
 1233      6C656172 
 1233      5F5F00
 1234              	.LASF20:
 1235 0270 5F5F6561 		.ascii	"__early_init\000"
 1235      726C795F 
 1235      696E6974 
 1235      00
 1236              	.LASF11:
 1237 027d 696E7433 		.ascii	"int32_t\000"
 1237      325F7400 
 1238              	.LASF3:
 1239 0285 73686F72 		.ascii	"short unsigned int\000"
 1239      7420756E 
 1239      7369676E 
 1239      65642069 
ARM GAS  /tmp/ccBegRwk.s 			page 41


 1239      6E7400
 1240              	.LASF53:
 1241 0298 5F5F7261 		.ascii	"__ram7_init_text__\000"
 1241      6D375F69 
 1241      6E69745F 
 1241      74657874 
 1241      5F5F00
 1242              	.LASF25:
 1243 02ab 5F5F7261 		.ascii	"__ram0_init_text__\000"
 1243      6D305F69 
 1243      6E69745F 
 1243      74657874 
 1243      5F5F00
 1244              	.LASF48:
 1245 02be 5F5F7261 		.ascii	"__ram5_noinit__\000"
 1245      6D355F6E 
 1245      6F696E69 
 1245      745F5F00 
 1246              	.LASF34:
 1247 02ce 5F5F7261 		.ascii	"__ram2_init__\000"
 1247      6D325F69 
 1247      6E69745F 
 1247      5F00
 1248              	.LASF33:
 1249 02dc 5F5F7261 		.ascii	"__ram2_init_text__\000"
 1249      6D325F69 
 1249      6E69745F 
 1249      74657874 
 1249      5F5F00
 1250              	.LASF27:
 1251 02ef 5F5F7261 		.ascii	"__ram0_clear__\000"
 1251      6D305F63 
 1251      6C656172 
 1251      5F5F00
 1252              	.LASF41:
 1253 02fe 5F5F7261 		.ascii	"__ram4_init_text__\000"
 1253      6D345F69 
 1253      6E69745F 
 1253      74657874 
 1253      5F5F00
 1254              	.LASF24:
 1255 0311 49544D5F 		.ascii	"ITM_RxBuffer\000"
 1255      52784275 
 1255      66666572 
 1255      00
 1256              	.LASF56:
 1257 031e 5F5F7261 		.ascii	"__ram7_noinit__\000"
 1257      6D375F6E 
 1257      6F696E69 
 1257      745F5F00 
 1258              	.LASF5:
 1259 032e 5F5F696E 		.ascii	"__int32_t\000"
 1259      7433325F 
 1259      7400
 1260              	.LASF57:
 1261 0338 474E5520 		.ascii	"GNU C 4.8.2 -mcpu=cortex-m4 -mno-thumb-interwork -m"
 1261      4320342E 
ARM GAS  /tmp/ccBegRwk.s 			page 42


 1261      382E3220 
 1261      2D6D6370 
 1261      753D636F 
 1262 036b 7468756D 		.ascii	"thumb -ggdb -O0 -fomit-frame-pointer -falign-functi"
 1262      62202D67 
 1262      67646220 
 1262      2D4F3020 
 1262      2D666F6D 
 1263 039e 6F6E733D 		.ascii	"ons=16 -ffunction-sections -fdata-sections -fno-com"
 1263      3136202D 
 1263      6666756E 
 1263      6374696F 
 1263      6E2D7365 
 1264 03d1 6D6F6E20 		.ascii	"mon -flto\000"
 1264      2D666C74 
 1264      6F00
 1265              	.LASF32:
 1266 03db 5F5F7261 		.ascii	"__ram1_noinit__\000"
 1266      6D315F6E 
 1266      6F696E69 
 1266      745F5F00 
 1267              	.LASF42:
 1268 03eb 5F5F7261 		.ascii	"__ram4_init__\000"
 1268      6D345F69 
 1268      6E69745F 
 1268      5F00
 1269              	.LASF54:
 1270 03f9 5F5F7261 		.ascii	"__ram7_init__\000"
 1270      6D375F69 
 1270      6E69745F 
 1270      5F00
 1271              	.LASF59:
 1272 0407 2F686F6D 		.ascii	"/home/jerker/git/AutoTux/stm32\000"
 1272      652F6A65 
 1272      726B6572 
 1272      2F676974 
 1272      2F417574 
 1273              	.LASF37:
 1274 0426 5F5F7261 		.ascii	"__ram3_init_text__\000"
 1274      6D335F69 
 1274      6E69745F 
 1274      74657874 
 1274      5F5F00
 1275              	.LASF15:
 1276 0439 696E6974 		.ascii	"init_area\000"
 1276      5F617265 
 1276      6100
 1277              	.LASF14:
 1278 0443 696E6974 		.ascii	"init_text_area\000"
 1278      5F746578 
 1278      745F6172 
 1278      656100
 1279              		.comm	__gnu_lto_v1,1,1
 1280              		.ident	"GCC: (4.8.2-14ubuntu1+6) 4.8.2"
ARM GAS  /tmp/ccBegRwk.s 			page 43


DEFINED SYMBOLS
                            *ABS*:0000000000000000 crt1.c
     /tmp/ccBegRwk.s:282    .rodata.ram_areas:0000000000000000 $d
     /tmp/ccBegRwk.s:285    .rodata.ram_areas:0000000000000000 ram_areas
     /tmp/ccBegRwk.s:319    .text.__core_init:0000000000000000 $t
     /tmp/ccBegRwk.s:325    .text.__core_init:0000000000000000 __core_init
     /tmp/ccBegRwk.s:339    .text.__early_init:0000000000000000 $t
     /tmp/ccBegRwk.s:345    .text.__early_init:0000000000000000 __early_init
     /tmp/ccBegRwk.s:358    .text.__late_init:0000000000000000 $t
     /tmp/ccBegRwk.s:364    .text.__late_init:0000000000000000 __late_init
     /tmp/ccBegRwk.s:377    .text.__default_exit:0000000000000000 $t
     /tmp/ccBegRwk.s:383    .text.__default_exit:0000000000000000 __default_exit
     /tmp/ccBegRwk.s:397    .text.__init_ram_areas:0000000000000000 $t
     /tmp/ccBegRwk.s:403    .text.__init_ram_areas:0000000000000000 __init_ram_areas
     /tmp/ccBegRwk.s:484    .text.__init_ram_areas:0000000000000064 $d
                            *COM*:0000000000000001 __gnu_lto_v1
                     .debug_frame:0000000000000010 $d
     /tmp/ccBegRwk.s:488    .text.__init_ram_areas:0000000000000068 $t

UNDEFINED SYMBOLS
__ram0_init_text__
__ram0_init__
__ram0_clear__
__ram0_noinit__
__ram1_init_text__
__ram1_init__
__ram1_clear__
__ram1_noinit__
__ram2_init_text__
__ram2_init__
__ram2_clear__
__ram2_noinit__
__ram3_init_text__
__ram3_init__
__ram3_clear__
__ram3_noinit__
__ram4_init_text__
__ram4_init__
__ram4_clear__
__ram4_noinit__
__ram5_init_text__
__ram5_init__
__ram5_clear__
__ram5_noinit__
__ram6_init_text__
__ram6_init__
__ram6_clear__
__ram6_noinit__
__ram7_init_text__
__ram7_init__
__ram7_clear__
__ram7_noinit__
