ARM GAS  /tmp/ccDsWh8H.s 			page 1


   1              		.syntax unified
   2              		.cpu cortex-m4
   3              		.fpu softvfp
   4              		.eabi_attribute 20, 1
   5              		.eabi_attribute 21, 1
   6              		.eabi_attribute 23, 3
   7              		.eabi_attribute 24, 1
   8              		.eabi_attribute 25, 1
   9              		.eabi_attribute 26, 1
  10              		.eabi_attribute 30, 6
  11              		.eabi_attribute 34, 1
  12              		.eabi_attribute 18, 4
  13              		.thumb
  14              		.file	"hal.c"
  15              		.text
  16              	.Ltext0:
  17              		.section	.gnu.lto_.inline.c204e094a00fd1a0,"",%progbits
  18 0000 789C6362 		.ascii	"x\234cb`b\300\006\274\2404P\226\031\210\231\230\026"
  18      6062C006 
  18      BCA03450 
  18      96198899 
  18      9816
  19 0012 C833B040 		.ascii	"\3103\260@\32422p\237d@\023\342\302$\230\270Q\270\014"
  19      D4323270 
  19      9F644013 
  19      E2C22498 
  19      B851B80C 
  20 0026 00A3FC03 		.ascii	"\000\243\374\003\014"
  20      0C
  21              		.text
  22              		.section	.gnu.lto_osalInit.c204e094a00fd1a0,"",%progbits
  23 0000 789C6362 		.ascii	"x\234cb`b@\007\"@\354\013\304* \0163\003#P\005#\023"
  23      60624007 
  23      2240EC0B 
  23      C42A200E 
  23      33032350 
  24 0017 232390C3 		.ascii	"##\220\303\310P\317\304X\037\311\010V\266\236\351\300"
  24      C850CFC4 
  24      581FC908 
  24      56B69EE9 
  24      C0
  25 0028 83FFFFD7 		.ascii	"\203\377\377\327M\272\267t\017\343\017&\220\030+CKC"
  25      4DBAB774 
  25      0FE30F26 
  25      90182B43 
  25      4B43
  26 003a C3040506 		.ascii	"\303\004\005\006\206d\260\212\0200\031\012\322\317|"
  26      8664B08A 
  26      1030190A 
  26      D2CF7C
  27 0049 91813191 		.ascii	"\221\2011\221q!#+\334\222\020\220\201 \273\225\364\364"
  27      7121232B 
  27      DC921090 
  27      8120BB95 
  27      F4F4
  28 005b F4E128BF 		.ascii	"\364\341(\277X?#1\007H\001\211\242\0220\255\227\301"
  28      583F2331 
ARM GAS  /tmp/ccDsWh8H.s 			page 2


  28      07480189 
  28      A21230AD 
  28      97C1
  29 006d 0000822D 		.ascii	"\000\000\202-\0326"
  29      1A36
  30              		.text
  31              		.section	.gnu.lto_halInit.c204e094a00fd1a0,"",%progbits
  32 0000 789C6362 		.ascii	"x\234cb`b@\007\"@\234\316\310\300 \017\342030\002U0"
  32      60624007 
  32      22409CCE 
  32      C8C0200F 
  32      E2303330 
  33 0017 32310205 		.ascii	"21\002\005\030\030\031\352\231\030\353#\031\301\312"
  33      181819EA 
  33      9918EB23 
  33      19C1CA
  34 0026 D6331D78 		.ascii	"\3263\035x\360\377\377\272\017\033\037\316c\024\002"
  34      F0FFFFBA 
  34      0F1B1FCE 
  34      631402
  35 0035 09B132B4 		.ascii	"\011\2612\26444LP``H\006+\010\001\223\241 \355\314\347"
  35      34344C50 
  35      60604806 
  35      2B080193 
  35      A120EDCC 
  36 004a 199A1FFC 		.ascii	"\031\232\037\3746Kd\\\310\310\012\024\253f\370\325\320"
  36      364B645C 
  36      C8C80A14 
  36      AB66F8D5 
  36      D0
  37 005b D12090C9 		.ascii	"\321 \220\311\010T\0111+\023D\203\024\375\263\303\246"
  37      08540931 
  37      2B134483 
  37      14FDB3C3 
  37      A6
  38 006c 88095951 		.ascii	"\210\011YQ\313\203\316d\014EL\311\214\314`E \021\211"
  38      CB83CE64 
  38      0C454CC9 
  38      8CCC6045 
  38      201189
  39 007f 4C46E65C 		.ascii	"LF\346\\F\006\250\242LF\026\210\331\367\016\263a3\234"
  39      4606A8A2 
  39      4C461688 
  39      D9F70EB3 
  39      61339C
  40 0092 05C5050B 		.ascii	"\005\305\005\013\3360cS\304\212\352\314\336Vvl\252\330"
  40      DE306353 
  40      C48AEACC 
  40      DE56766C 
  40      AAD8
  41 00a4 5055CD59 		.ascii	"PU\315Y\212\325Bv\204\252\213\014\215\017\346\251\302"
  41      8AD54276 
  41      84AA8B0C 
  41      8D0FE6A9 
  41      C2
  42 00b5 14414008 		.ascii	"\024A@\010H\002\344cY==}8\312/\326\317H\314\321/.J\006"
  42      4802E463 
ARM GAS  /tmp/ccDsWh8H.s 			page 3


  42      593D3D7D 
  42      38CA2FD6 
  42      CF48CCD1 
  43 00cd D17AC90C 		.ascii	"\321z\311\014\000r\302Z\177"
  43      0072C25A 
  43      7F
  44              		.text
  45              		.section	.gnu.lto_.symbol_nodes.c204e094a00fd1a0,"",%progbits
  46 0000 789C45C8 		.ascii	"x\234E\310\261\021\202@\024\204\341}{\034\330\246\225"
  46      B1118240 
  46      1484E17D 
  46      7B1CD8A6 
  46      95
  47 0011 2C030921 		.ascii	",\003\011!\242h\001\224`\011\344\204\3062T@\003\214"
  47      A2680194 
  47      6009E484 
  47      C6325440 
  47      038C
  48 0023 E7C1702F 		.ascii	"\347\301p/\371\336\277\004\361\306q\\M@;\001R\337\\"
  48      F9DEBF04 
  48      F1C6715C 
  48      4D403B01 
  48      52DF5C
  49 0036 D95276E4 		.ascii	"\331Rv\344\2471\177g\370`/\212\373Z\226fO\312\245\352"
  49      A7317F67 
  49      F8602F8A 
  49      FB5A9666 
  49      4FCAA5EA 
  50 004a A92CD583 		.ascii	"\251,\325\203\362\251:*Ou\243\212\263\234\001\325w\013"
  50      F2A93A2A 
  50      4F75A38A 
  50      B39C01D5 
  50      770B
  51 005c 5E30440B 		.ascii	"^0D\013\214\321\034K\324\243\236\377f\030\242\016c\020"
  51      8CD11C4B 
  51      D4A39EFF 
  51      6618A20E 
  51      6310
  52 006e 3FC26F35 		.ascii	"?\302o5\316"
  52      CE
  53              		.text
  54              		.section	.gnu.lto_.refs.c204e094a00fd1a0,"",%progbits
  55 0000 789C6362 		.ascii	"x\234cb`b`e\200\000FF&&\006\000\000\245\000\020"
  55      60626065 
  55      80004646 
  55      26260600 
  55      00A50010 
  56              		.text
  57              		.section	.gnu.lto_.decls.c204e094a00fd1a0,"",%progbits
  58 0000 789CA596 		.ascii	"x\234\245\226\177L\034E\024\307g\366\370u\026\301\220"
  58      7F4C1C45 
  58      14C767F6 
  58      F87516C1 
  58      90
  59 0011 5821B1E1 		.ascii	"X!\261\341h\2021\215r\0114Q\377i\254\320R\022\264\244"
  59      6882318D 
  59      72093451 
ARM GAS  /tmp/ccDsWh8H.s 			page 4


  59      FF69ACD0 
  59      5212B4A4 
  60 0025 B446FFDA 		.ascii	"\264F\377\332,\334\321\273\344\270\273\354\356iML:\245"
  60      2CDCD1BB 
  60      E4B8BBEC 
  60      EE694D4C 
  60      3AA5
  61 0037 0D691B35 		.ascii	"\015i\0335\207?ji\033s\320\026[\253\026\260\032,Z\266"
  61      873F6A69 
  61      1B73D016 
  61      5BAB16B0 
  61      1A2C5AB6 
  62 004b A426C498 		.ascii	"\244&\304\230\2024\244\032\332p\225X\324\022\203\211"
  62      8234A41A 
  62      DA709558 
  62      D4128389 
  63 005b 566288E7 		.ascii	"Vb\210\347\233\331\335\273\335c\027\2268\341\2757\307"
  63      9BD9DDBB 
  63      DD631796 
  63      38E1BD37 
  63      C7
  64 006c BEF779DF 		.ascii	"\276\367y\337\231\235\333[\016q\350\032B(\005#\277\020"
  64      999DDB5B 
  64      0E71E81A 
  64      42280523 
  64      BF10
  65 007e A1931C42 		.ascii	"\241\223\034B.\370\274\005eF\001X\017X\037\330y\260"
  65      2EF8BC05 
  65      65460158 
  65      0F581FD8 
  65      79B0
  66 0090 0B609F80 		.ascii	"\013`\237\200]\004\033\000\233\003\303`\277\"\363\350"
  66      5D041B00 
  66      9B03C360 
  66      BF22F3E8 
  67 00a0 31CC71D6 		.ascii	"1\314q\326g}Pf.\330=\260^\260y\260K`\203\206\336}Z\355"
  67      677D5066 
  67      2ED83DB0 
  67      5EB079B0 
  67      4B608386 
  68 00b8 9CD6EFA2 		.ascii	"\234\326\357\242\326\377\202\246\307\252w9\372\200("
  68      D6FF82A6 
  68      C7AA7739 
  68      FA8028
  69 00c7 13C9B33F 		.ascii	"\023\311\263?\315r\335D9D`y\004{\326\243\367\010\214"
  69      CD72DD44 
  69      39446079 
  69      047BD6A3 
  69      F7088C
  70 00da 44272158 		.ascii	"D'!X\026\360\226\207\321KX\300En\344a\223B7\312a\325"
  70      16F09687 
  70      D14B58C0 
  70      456EE461 
  70      934237CA 
  71 00f0 02EEC5EB 		.ascii	"\002\356\305\353\265\331\036\227J\344P%F\233\320y\250"
  71      B5D91E97 
  71      4AE45025 
ARM GAS  /tmp/ccDsWh8H.s 			page 5


  71      469BD079 
  71      A8
  72 0101 8F1332FA 		.ascii	"\217\0232\372\210\305b\020z\014\235\245\015\3109\342"
  72      88C56210 
  72      7A0C9DA5 
  72      0DC839E2 
  73 0111 62780AE8 		.ascii	"bx\012\350\301\345\306\024\001\237\306\\\266\324\204"
  73      C1E5C614 
  73      019FC65C 
  73      B6D484
  74 0120 929CBEF3 		.ascii	"\222\234\276\363Y\031It(\251\324\310\263\232\000\016"
  74      59194974 
  74      28A9D4C8 
  74      B39A000E 
  75 0130 3563989E 		.ascii	"5c\230\236\301\233Vl\320\227\335\340\303\345\015\222"
  75      C19B566C 
  75      D097DDE0 
  75      C3E50D92 
  76 0140 F1E4DF9D 		.ascii	"\361\344\337\2357\017\340\256\203\2111\262\220J\025"
  76      370FE0AE 
  76      838931B2 
  76      904A15
  77 014f A75BBC9E 		.ascii	"\247[\274\236\335Be|d\3118v\364\376\023\335d\224\356"
  77      DD42657C 
  77      64C93876 
  77      F4FE13DD 
  77      6494EE
  78 0162 E7FE3461 		.ascii	"\347\3764a\030[#>\266D\234x\353On\031\342w\033\304\247"
  78      185B233E 
  78      B6449C78 
  78      EB4F6E19 
  78      E2771BC4 
  79 0177 96885BE3 		.ascii	"\226\210[\343\267\312\226!\216s\326\210~KD\374\306\317"
  79      B7CA9621 
  79      8E73D688 
  79      7E4B44FC 
  79      C6CF
  80 0189 A56984F3 		.ascii	"\245i\204\363c1\250\035\013\027b\320u\350(!\035\264"
  80      6331A81D 
  80      0B1762D0 
  80      75E82821 
  80      1DB4
  81 019b 70C75851 		.ascii	"p\307XQ\011\352b\024\200\214\025!\035\221,\326\031K"
  81      09EA6214 
  81      808C1521 
  81      1D912CD6 
  81      194B
  82 01ad F49C56A2 		.ascii	"\364\234V\2423p~\224\277n`\217\226\357\261O\026\360"
  82      33707E94 
  82      BF6E608F 
  82      96EFB14F 
  82      16F0
  83 01bf 17B812AD 		.ascii	"\027\270\022\255\236G3\207p\211\266|\326\202(\303\223"
  83      9E473387 
  83      7089B67C 
  83      D68228C3 
  83      93
ARM GAS  /tmp/ccDsWh8H.s 			page 6


  84 01d0 852447FD 		.ascii	"\205$G\375?\262\330\030mT\240\004M\376~\362\024&\211"
  84      3FB2D818 
  84      6D54A004 
  84      4DFE7EF2 
  84      142689
  85 01e3 516CD50B 		.ascii	"Ql\325\013\353\275\036\315\350\357\236\304\036\001\017"
  85      EBBD1ECD 
  85      E8EF9EC4 
  85      1E010F
  86 01f2 433E87A6 		.ascii	"C>\207\246\2626~U\006\225s%[\356\3648\223{\305\201\334"
  86      B2367E55 
  86      06957325 
  86      5BEEF438 
  86      937BC581 
  87 0207 0E6566FC 		.ascii	"\016ef\374T\031\225\353F\2073\373\217,\357\232*89\360"
  87      541995EB 
  87      468733FB 
  87      8F2CEF9A 
  87      2A3839F0 
  88 021b FE375771 		.ascii	"\3767Wq\007\334\032\001_\2052\016u\272\314\252\235\243"
  88      07DC1A01 
  88      5F85320E 
  88      75BACCAA 
  88      9DA3
  89 022d 464E7CF5 		.ascii	"FN|\365\014!\005\002\276\306@_g\201\004\234\3576\237"
  89      0C210502 
  89      BEC6405F 
  89      6781049C 
  89      EF369F
  90 0240 40F8AC27 		.ascii	"@\370\254'P\032\273\254M\350c\267\030\2555\235Cc\254"
  90      501ABBAC 
  90      4DE863B7 
  90      18AD359D 
  90      4363AC
  91 0253 29DD2C2B 		.ascii	")\335,+\241\332T\035Z\202i\003\341\370/\271\350s\321"
  91      A1DA541D 
  91      5A826903 
  91      E1F82FB9 
  91      E873D1
  92 0266 A56FC7F5 		.ascii	"\245o\307\3655\003=\246;r\177\2740.\350\260)'\260\002"
  92      35033DA6 
  92      3B727FBC 
  92      302EE8B0 
  92      2927B002 
  93 027a 5B75CA3F 		.ascii	"[u\312?F\330\3555\303\314\312\3765\302f\235\300\036"
  93      46D8ED35 
  93      C3CCCAFE 
  93      35C2669D 
  93      C01E
  94 028c B257F6F6 		.ascii	"\262W\366\366\244\0016\267f\230Y\3311#l\336\011\254"
  94      A40136B7 
  94      669859D9 
  94      31236CDE 
  94      09AC
  95 029e D44299D5 		.ascii	"\324B\231\3250~\277\004<\002\017\021\001+\270\002\374"
  95      307EBF04 
  95      3C020F11 
ARM GAS  /tmp/ccDsWh8H.s 			page 7


  95      012BB802 
  95      FC
  96 02af 18F3DF32 		.ascii	"\030\363\3372\377\035\363\327\231\237`~\022|zp\350\017"
  96      FF1DF3D7 
  96      999F607E 
  96      127C7A70 
  96      E80F
  97 02c1 A66928A3 		.ascii	"\246i(\243\311\374=^\355\230\021\345\207]t\201\352c"
  97      C9FC3D5E 
  97      ED9811E5 
  97      875D7481 
  97      EA63
  98 02d3 62D111CC 		.ascii	"b\321\021\314\264B\217\011\266`\200\245\034\301\236"
  98      B4428F09 
  98      B66080A5 
  98      1CC19E
  99 02e2 B657B668 		.ascii	"\266W\266h\200u\3468\2015\331+\2137g`o:\202E\355\225"
  99      8075E638 
  99      8135D92B 
  99      8B376760 
  99      6F3A8245 
 100 02f8 1D37C0DE 		.ascii	"\0357\300\336u\004;\214\355\245\365\033h'\035\321\316"
 100      75043B8C 
 100      EDA5F51B 
 100      68271DD1 
 100      CE
 101 0309 617B6D43 		.ascii	"a{mC\006Z\257#\232\262\202\266\011\003\355\274#Z\322"
 101      065AAF23 
 101      9AB282B6 
 101      0903EDBC 
 101      235AD2
 102 031c 4A9BE1D4 		.ascii	"J\233\341\324\253\347\375Kv\336/\263\023=\305\374M\346"
 102      ABE7FD4B 
 102      76DE2FB3 
 102      133DC5FC 
 102      4DE6
 103 032e 7F647E9A 		.ascii	"\177d~\232\371\333\314\3170\177\207\371Y\363\331\357"
 103      F9DBCCCF 
 103      307F87F9 
 103      59F3D9EF 
 104 033e CFC97EAC 		.ascii	"\317\311~\254\253\277\244\206n\231\237\\\364\177\373"
 104      ABBFA486 
 104      6E999F5C 
 104      F47FFB
 105 034d D9BD6F5C 		.ascii	"\331\275o\\\302\3532\375\3647Q\246\357r\226>=\351\256"
 105      C2EB32FD 
 105      F43751A6 
 105      EF72963E 
 105      3DE9AE
 106 0360 E5EBCEC0 		.ascii	"\345\353\316\300]\345\015|\360t\247\022?\220L\355/\327"
 106      5DE50D7C 
 106      F074A712 
 106      3F904CED 
 106      2FD7
 107 0372 DF99966C 		.ascii	"\337\231\226l \277\230!\033Q\017Y\210'\273\336\231)"
 107      20BF9821 
 107      1B510F59 
ARM GAS  /tmp/ccDsWh8H.s 			page 8


 107      8827BBDE 
 107      9929
 108 0384 1DEA2087 		.ascii	"\035\352 \207\216\020\262\230\302)\370\355\370\234\335"
 108      8E10B298 
 108      C229F8ED 
 108      F89CDD
 109 0393 BB23B93A 		.ascii	"\273#\271:\305\376\365\344\267\014\321\364\322\244*"
 109      C5FEF5E4 
 109      B70CD1F4 
 109      D2A42A
 110 03a2 B15BFEBD 		.ascii	"\261[\376\275\314\362\263\252\006W\250\232\317T\241"
 110      CCF2B3AA 
 110      0657A89A 
 110      CF54A1
 111 03b1 8D5555DE 		.ascii	"\215UU\336\364_D\362\006\204\020\004p\242\314bU\000"
 111      F45F44F2 
 111      06841004 
 111      70A2CC62 
 111      5500
 112 03c3 15D0D810 		.ascii	"\025\320\330\020\016\312y\365/\354\361\324\242\015\026"
 112      0ECA79F5 
 112      2FECF1D4 
 112      A20D16
 113 03d2 2592D84A 		.ascii	"%\222\330JcU+\312\017\250\311\036\213\254`\2705\024"
 113      63552BCA 
 113      0FA8C91E 
 113      8BAC60B8 
 113      3514
 114 03e4 F3F9BD92 		.ascii	"\363\371\275\222\014\330<I\246yOY\344\265D\004\321'"
 114      0CD83C49 
 114      A6794F59 
 114      E4B54404 
 114      D127
 115 03f6 799B77F3 		.ascii	"y\233w\363\315\273\237\257\251\336\276\231\257kh\256"
 115      CDBB9FAF 
 115      A9DEBE99 
 115      AF6B68AE 
 116 0406 DDF9E2B6 		.ascii	"\335\371\342\266]/\253\327\240\334\315&\224\360\370"
 116      5D2FABD7 
 116      A0DCCD26 
 116      94F0F8
 117 0415 4A9DFC62 		.ascii	"J\235\374bP\010\3611\251\005J\362%_\214\026T\254P\240"
 117      5008F131 
 117      A9054AF2 
 117      255F8C16 
 117      54AC50A0 
 118 0429 6542A099 		.ascii	"eB\240\231\233-2\243\021Q\246\332@\230\267\261\261\316"
 118      9B2D32A3 
 118      1151A6DA 
 118      4098B7B1 
 118      B1CE
 119 043b 5BDFD4B0 		.ascii	"[\337\324\260\363\225jo\024\332\204BTY\211$\267\327"
 119      F3956A6F 
 119      14DA8442 
 119      54598924 
 119      B7D7
 120 044d 54F37BA3 		.ascii	"T\363{\243\301\010/\371\345X\224\2277\000WL\367\010"
ARM GAS  /tmp/ccDsWh8H.s 			page 9


 120      C1082FF9 
 120      E5589497 
 120      3700574C 
 120      F708
 121 045f FB5F0D05 		.ascii	"\373_\015\005[`\027|\3010\335\211\202\030D\250\220\237"
 121      5B60177C 
 121      C130DD89 
 121      821844A8 
 121      909F
 122 0471 B44A6B17 		.ascii	"\264Jk\027Z\003\301\260\337\313\373\374mB,$\363\362"
 122      5A03C1B0 
 122      DFCBFBFC 
 122      6D422C24 
 122      F3F2
 123 0483 6B51BF04 		.ascii	"kQ\277\004e\017\360\274^\230\333\036\361\371\305\274"
 123      650FF0BC 
 123      5E98DB1E 
 123      F1F9C5BC 
 124 0493 08BD24E6 		.ascii	"\010\275$\346G\244\250\337\357\023s\243\261\250OtE|"
 124      47A4A8DF 
 124      EF1373A3 
 124      B1A84F74 
 124      457C
 125 04a5 628ED026 		.ascii	"b\216\320&\206\250\013\3445m\255\023d!\257\35195\324"
 125      86A80BE4 
 125      356DAD13 
 125      6421AFE9 
 125      3935D4
 126 04b8 AAA14E0D 		.ascii	"\252\241N\015\333\324\260]\015\365j\330\241\206\006"
 126      DBD4B05D 
 126      0DF56AD8 
 126      A18606
 127 04c7 1ADC4D5B 		.ascii	"\032\334M[\033k#\341\266\340\336\007ym\301|\020\366"
 127      1B6B23E1 
 127      B6E0DE07 
 127      796DC17C 
 127      10F6
 128 04d9 A966957D 		.ascii	"\251f\225}\322n\343\276}\364\212\266M\205\001\003\240"
 128      D26EE3BE 
 128      7DF48AB6 
 128      4D850103 
 128      A0
 129 04ea 84D2F405 		.ascii	"\204\322\364\005\266\262\016\377\001\225H-\277"
 129      B6B20EFF 
 129      0195482D 
 129      BF
 130              		.text
 131              		.section	.gnu.lto_.symtab.c204e094a00fd1a0,"",%progbits
 132 0000 68616C49 		.ascii	"halInit\000\000\000\000\000\000\000\000\000\000\000"
 132      6E697400 
 132      00000000 
 132      00000000 
 132      0000
 133 0012 00A60000 		.ascii	"\000\246\000\000\000pal_default_config\000\000\002\000"
 133      0070616C 
 133      5F646566 
 133      61756C74 
ARM GAS  /tmp/ccDsWh8H.s 			page 10


 133      5F636F6E 
 134 002d 00000000 		.ascii	"\000\000\000\000\000\000\000\000\351\000\000\000stI"
 134      00000000 
 134      E9000000 
 134      737449
 135 003c 6E697400 		.ascii	"nit\000\000\002\000\000\000\000\000\000\000\000\000"
 135      00020000 
 135      00000000 
 135      000000
 136 004b A9000000 		.ascii	"\251\000\000\000boardInit\000\000\002\000\000\000\000"
 136      626F6172 
 136      64496E69 
 136      74000002 
 136      00000000 
 137 005f 00000000 		.ascii	"\000\000\000\000\000\253\000\000\000sduInit\000\000"
 137      00AB0000 
 137      00736475 
 137      496E6974 
 137      0000
 138 0071 02000000 		.ascii	"\002\000\000\000\000\000\000\000\000\000\255\000\000"
 138      00000000 
 138      0000AD00 
 138      00
 139 007e 00757362 		.ascii	"\000usbInit\000\000\002\000\000\000\000\000\000\000"
 139      496E6974 
 139      00000200 
 139      00000000 
 139      0000
 140 0090 0000AF00 		.ascii	"\000\000\257\000\000\000_pal_lld_init\000\000\002\000"
 140      00005F70 
 140      616C5F6C 
 140      6C645F69 
 140      6E697400 
 141 00a7 00000000 		.ascii	"\000\000\000\000\000\000\000\000\261\000\000\000hal"
 141      00000000 
 141      B1000000 
 141      68616C
 142 00b6 5F6C6C64 		.ascii	"_lld_init\000\000\002\000\000\000\000\000\000\000\000"
 142      5F696E69 
 142      74000002 
 142      00000000 
 142      00000000 
 143 00ca 00E70000 		.ascii	"\000\347\000\000\000"
 143      00
 144              		.text
 145              		.section	.gnu.lto_.opts,"",%progbits
 146 0000 272D6D63 		.ascii	"'-mcpu=cortex-m4' '-mno-thumb-interwork' '-mthumb' "
 146      70753D63 
 146      6F727465 
 146      782D6D34 
 146      2720272D 
 147 0033 272D6767 		.ascii	"'-ggdb' '-O0' '-fomit-frame-pointer' '-falign-funct"
 147      64622720 
 147      272D4F30 
 147      2720272D 
 147      666F6D69 
 148 0066 696F6E73 		.ascii	"ions=16' '-ffunction-sections' '-fdata-sections' '-"
ARM GAS  /tmp/ccDsWh8H.s 			page 11


 148      3D313627 
 148      20272D66 
 148      66756E63 
 148      74696F6E 
 149 0099 666E6F2D 		.ascii	"fno-common' '-flto'\000"
 149      636F6D6D 
 149      6F6E2720 
 149      272D666C 
 149      746F2700 
 150              		.text
 151              		.cfi_sections	.debug_frame
 152              		.section	.text.osalInit,"ax",%progbits
 153              		.align	2
 154              		.p2align 4,,15
 155              		.thumb
 156              		.thumb_func
 157              		.type	osalInit, %function
 158              	osalInit:
 159              	.LFB241:
 160              		.file 1 "../../../../os/hal/osal/rt/osal.h"
 161              		.loc 1 449 0
 162              		.cfi_startproc
 163              		@ args = 0, pretend = 0, frame = 0
 164              		@ frame_needed = 0, uses_anonymous_args = 0
 165              		@ link register save eliminated.
 166              		.loc 1 451 0
 167 0000 7047     		bx	lr
 168              		.cfi_endproc
 169              	.LFE241:
 170              		.size	osalInit, .-osalInit
 171 0002 00BFAFF3 		.section	.text.halInit,"ax",%progbits
 171      0080AFF3 
 171      0080AFF3 
 171      0080
 172              		.align	2
 173              		.p2align 4,,15
 174              		.global	halInit
 175              		.thumb
 176              		.thumb_func
 177              		.type	halInit, %function
 178              	halInit:
 179              	.LFB272:
 180              		.file 2 "../../../../os/hal/src/hal.c"
 181              		.loc 2 56 0
 182              		.cfi_startproc
 183              		@ args = 0, pretend = 0, frame = 0
 184              		@ frame_needed = 0, uses_anonymous_args = 0
 185 0000 08B5     		push	{r3, lr}
 186              		.cfi_def_cfa_offset 8
 187              		.cfi_offset 3, -8
 188              		.cfi_offset 14, -4
 189              		.loc 2 59 0
 190 0002 FFF7FEFF 		bl	osalInit
 191              		.loc 2 62 0
 192 0006 FFF7FEFF 		bl	hal_lld_init
 193              		.loc 2 65 0
 194 000a 40F20000 		movw	r0, #:lower16:pal_default_config
ARM GAS  /tmp/ccDsWh8H.s 			page 12


 195 000e C0F20000 		movt	r0, #:upper16:pal_default_config
 196 0012 FFF7FEFF 		bl	_pal_lld_init
 197              		.loc 2 110 0
 198 0016 FFF7FEFF 		bl	usbInit
 199              		.loc 2 116 0
 200 001a FFF7FEFF 		bl	sduInit
 201              		.loc 2 133 0
 202 001e FFF7FEFF 		bl	boardInit
 203              		.loc 2 140 0
 204 0022 FFF7FEFF 		bl	stInit
 205              		.loc 2 142 0
 206 0026 08BD     		pop	{r3, pc}
 207              		.cfi_endproc
 208              	.LFE272:
 209              		.size	halInit, .-halInit
 210 0028 AFF30080 		.text
 210      AFF30080 
 211              	.Letext0:
 212              		.file 3 "/usr/include/newlib/machine/_default_types.h"
 213              		.file 4 "/usr/include/newlib/stdint.h"
 214              		.file 5 "../../../../os/rt/ports/ARMCMx/compilers/GCC/chtypes.h"
 215              		.file 6 "../../../../os/rt/include/chsystypes.h"
 216              		.file 7 "../../../../os/rt/include/chschd.h"
 217              		.file 8 "../../../../os/rt/ports/ARMCMx/chcore.h"
 218              		.file 9 "../../../../os/rt/ports/ARMCMx/chcore_v7m.h"
 219              		.file 10 "../../../../os/rt/include/chdebug.h"
 220              		.file 11 "../../../../os/rt/include/chtm.h"
 221              		.file 12 "../../../../os/rt/include/chstats.h"
 222              		.file 13 "../../../../os/rt/include/chsem.h"
 223              		.file 14 "../../../../os/rt/include/chmtx.h"
 224              		.file 15 "../../../../os/hal/ports/STM32/LLD/GPIOv2/pal_lld.h"
 225              		.file 16 "../../../../os/ext/CMSIS/include/core_cm4.h"
 226              		.section	.debug_info,"",%progbits
 227              	.Ldebug_info0:
 228 0000 F3080000 		.4byte	0x8f3
 229 0004 0400     		.2byte	0x4
 230 0006 00000000 		.4byte	.Ldebug_abbrev0
 231 000a 04       		.byte	0x4
 232 000b 01       		.uleb128 0x1
 233 000c F9020000 		.4byte	.LASF148
 234 0010 01       		.byte	0x1
 235 0011 D0020000 		.4byte	.LASF149
 236 0015 85020000 		.4byte	.LASF150
 237 0019 00000000 		.4byte	.Ldebug_ranges0+0
 238 001d 00000000 		.4byte	0
 239 0021 00000000 		.4byte	.Ldebug_line0
 240 0025 02       		.uleb128 0x2
 241 0026 04       		.byte	0x4
 242 0027 05       		.byte	0x5
 243 0028 696E7400 		.ascii	"int\000"
 244 002c 03       		.uleb128 0x3
 245 002d 04       		.byte	0x4
 246 002e 07       		.byte	0x7
 247 002f 00020000 		.4byte	.LASF0
 248 0033 03       		.uleb128 0x3
 249 0034 01       		.byte	0x1
 250 0035 06       		.byte	0x6
ARM GAS  /tmp/ccDsWh8H.s 			page 13


 251 0036 35010000 		.4byte	.LASF1
 252 003a 04       		.uleb128 0x4
 253 003b 52000000 		.4byte	.LASF5
 254 003f 03       		.byte	0x3
 255 0040 1C       		.byte	0x1c
 256 0041 45000000 		.4byte	0x45
 257 0045 03       		.uleb128 0x3
 258 0046 01       		.byte	0x1
 259 0047 08       		.byte	0x8
 260 0048 E1040000 		.4byte	.LASF2
 261 004c 03       		.uleb128 0x3
 262 004d 02       		.byte	0x2
 263 004e 05       		.byte	0x5
 264 004f 04050000 		.4byte	.LASF3
 265 0053 03       		.uleb128 0x3
 266 0054 02       		.byte	0x2
 267 0055 07       		.byte	0x7
 268 0056 4E020000 		.4byte	.LASF4
 269 005a 04       		.uleb128 0x4
 270 005b C9030000 		.4byte	.LASF6
 271 005f 03       		.byte	0x3
 272 0060 37       		.byte	0x37
 273 0061 65000000 		.4byte	0x65
 274 0065 03       		.uleb128 0x3
 275 0066 04       		.byte	0x4
 276 0067 05       		.byte	0x5
 277 0068 61010000 		.4byte	.LASF7
 278 006c 04       		.uleb128 0x4
 279 006d ED050000 		.4byte	.LASF8
 280 0071 03       		.byte	0x3
 281 0072 38       		.byte	0x38
 282 0073 77000000 		.4byte	0x77
 283 0077 03       		.uleb128 0x3
 284 0078 04       		.byte	0x4
 285 0079 07       		.byte	0x7
 286 007a A3050000 		.4byte	.LASF9
 287 007e 03       		.uleb128 0x3
 288 007f 08       		.byte	0x8
 289 0080 05       		.byte	0x5
 290 0081 27010000 		.4byte	.LASF10
 291 0085 04       		.uleb128 0x4
 292 0086 7A040000 		.4byte	.LASF11
 293 008a 03       		.byte	0x3
 294 008b 4E       		.byte	0x4e
 295 008c 90000000 		.4byte	0x90
 296 0090 03       		.uleb128 0x3
 297 0091 08       		.byte	0x8
 298 0092 07       		.byte	0x7
 299 0093 A8000000 		.4byte	.LASF12
 300 0097 04       		.uleb128 0x4
 301 0098 58060000 		.4byte	.LASF13
 302 009c 04       		.byte	0x4
 303 009d 2A       		.byte	0x2a
 304 009e 3A000000 		.4byte	0x3a
 305 00a2 04       		.uleb128 0x4
 306 00a3 D9040000 		.4byte	.LASF14
 307 00a7 04       		.byte	0x4
ARM GAS  /tmp/ccDsWh8H.s 			page 14


 308 00a8 41       		.byte	0x41
 309 00a9 5A000000 		.4byte	0x5a
 310 00ad 04       		.uleb128 0x4
 311 00ae 72050000 		.4byte	.LASF15
 312 00b2 04       		.byte	0x4
 313 00b3 42       		.byte	0x42
 314 00b4 6C000000 		.4byte	0x6c
 315 00b8 04       		.uleb128 0x4
 316 00b9 3C000000 		.4byte	.LASF16
 317 00bd 04       		.byte	0x4
 318 00be 4E       		.byte	0x4e
 319 00bf 85000000 		.4byte	0x85
 320 00c3 04       		.uleb128 0x4
 321 00c4 11060000 		.4byte	.LASF17
 322 00c8 05       		.byte	0x5
 323 00c9 39       		.byte	0x39
 324 00ca AD000000 		.4byte	0xad
 325 00ce 04       		.uleb128 0x4
 326 00cf 17010000 		.4byte	.LASF18
 327 00d3 05       		.byte	0x5
 328 00d4 3A       		.byte	0x3a
 329 00d5 B8000000 		.4byte	0xb8
 330 00d9 04       		.uleb128 0x4
 331 00da 9C030000 		.4byte	.LASF19
 332 00de 05       		.byte	0x5
 333 00df 3C       		.byte	0x3c
 334 00e0 97000000 		.4byte	0x97
 335 00e4 04       		.uleb128 0x4
 336 00e5 71010000 		.4byte	.LASF20
 337 00e9 05       		.byte	0x5
 338 00ea 3D       		.byte	0x3d
 339 00eb 97000000 		.4byte	0x97
 340 00ef 04       		.uleb128 0x4
 341 00f0 90040000 		.4byte	.LASF21
 342 00f4 05       		.byte	0x5
 343 00f5 3E       		.byte	0x3e
 344 00f6 97000000 		.4byte	0x97
 345 00fa 04       		.uleb128 0x4
 346 00fb C2040000 		.4byte	.LASF22
 347 00ff 05       		.byte	0x5
 348 0100 40       		.byte	0x40
 349 0101 AD000000 		.4byte	0xad
 350 0105 04       		.uleb128 0x4
 351 0106 7A020000 		.4byte	.LASF23
 352 010a 05       		.byte	0x5
 353 010b 41       		.byte	0x41
 354 010c A2000000 		.4byte	0xa2
 355 0110 04       		.uleb128 0x4
 356 0111 BD030000 		.4byte	.LASF24
 357 0115 05       		.byte	0x5
 358 0116 43       		.byte	0x43
 359 0117 AD000000 		.4byte	0xad
 360 011b 04       		.uleb128 0x4
 361 011c EF010000 		.4byte	.LASF25
 362 0120 05       		.byte	0x5
 363 0121 45       		.byte	0x45
 364 0122 A2000000 		.4byte	0xa2
ARM GAS  /tmp/ccDsWh8H.s 			page 15


 365 0126 04       		.uleb128 0x4
 366 0127 C9020000 		.4byte	.LASF26
 367 012b 05       		.byte	0x5
 368 012c 46       		.byte	0x46
 369 012d AD000000 		.4byte	0xad
 370 0131 04       		.uleb128 0x4
 371 0132 CF050000 		.4byte	.LASF27
 372 0136 06       		.byte	0x6
 373 0137 33       		.byte	0x33
 374 0138 AD000000 		.4byte	0xad
 375 013c 04       		.uleb128 0x4
 376 013d BA050000 		.4byte	.LASF28
 377 0141 06       		.byte	0x6
 378 0142 3F       		.byte	0x3f
 379 0143 47010000 		.4byte	0x147
 380 0147 05       		.uleb128 0x5
 381 0148 70020000 		.4byte	.LASF50
 382 014c 60       		.byte	0x60
 383 014d 07       		.byte	0x7
 384 014e C2       		.byte	0xc2
 385 014f 4D020000 		.4byte	0x24d
 386 0153 06       		.uleb128 0x6
 387 0154 2B050000 		.4byte	.LASF29
 388 0158 07       		.byte	0x7
 389 0159 C3       		.byte	0xc3
 390 015a 58020000 		.4byte	0x258
 391 015e 00       		.byte	0
 392 015f 06       		.uleb128 0x6
 393 0160 B2040000 		.4byte	.LASF30
 394 0164 07       		.byte	0x7
 395 0165 C5       		.byte	0xc5
 396 0166 58020000 		.4byte	0x258
 397 016a 04       		.byte	0x4
 398 016b 06       		.uleb128 0x6
 399 016c 20010000 		.4byte	.LASF31
 400 0170 07       		.byte	0x7
 401 0171 C7       		.byte	0xc7
 402 0172 FA000000 		.4byte	0xfa
 403 0176 08       		.byte	0x8
 404 0177 06       		.uleb128 0x6
 405 0178 C4060000 		.4byte	.LASF32
 406 017c 07       		.byte	0x7
 407 017d C8       		.byte	0xc8
 408 017e C1040000 		.4byte	0x4c1
 409 0182 0C       		.byte	0xc
 410 0183 06       		.uleb128 0x6
 411 0184 80010000 		.4byte	.LASF33
 412 0188 07       		.byte	0x7
 413 0189 CA       		.byte	0xca
 414 018a 58020000 		.4byte	0x258
 415 018e 10       		.byte	0x10
 416 018f 06       		.uleb128 0x6
 417 0190 3D040000 		.4byte	.LASF34
 418 0194 07       		.byte	0x7
 419 0195 CB       		.byte	0xcb
 420 0196 58020000 		.4byte	0x258
 421 019a 14       		.byte	0x14
ARM GAS  /tmp/ccDsWh8H.s 			page 16


 422 019b 06       		.uleb128 0x6
 423 019c 67060000 		.4byte	.LASF35
 424 01a0 07       		.byte	0x7
 425 01a1 D2       		.byte	0xd2
 426 01a2 65070000 		.4byte	0x765
 427 01a6 18       		.byte	0x18
 428 01a7 06       		.uleb128 0x6
 429 01a8 F5010000 		.4byte	.LASF36
 430 01ac 07       		.byte	0x7
 431 01ad D8       		.byte	0xd8
 432 01ae 77070000 		.4byte	0x777
 433 01b2 1C       		.byte	0x1c
 434 01b3 06       		.uleb128 0x6
 435 01b4 0E050000 		.4byte	.LASF37
 436 01b8 07       		.byte	0x7
 437 01b9 DD       		.byte	0xdd
 438 01ba E4000000 		.4byte	0xe4
 439 01be 20       		.byte	0x20
 440 01bf 06       		.uleb128 0x6
 441 01c0 32050000 		.4byte	.LASF38
 442 01c4 07       		.byte	0x7
 443 01c5 E1       		.byte	0xe1
 444 01c6 D9000000 		.4byte	0xd9
 445 01ca 21       		.byte	0x21
 446 01cb 06       		.uleb128 0x6
 447 01cc 43060000 		.4byte	.LASF39
 448 01d0 07       		.byte	0x7
 449 01d1 E6       		.byte	0xe6
 450 01d2 EF000000 		.4byte	0xef
 451 01d6 22       		.byte	0x22
 452 01d7 07       		.uleb128 0x7
 453 01d8 705F7500 		.ascii	"p_u\000"
 454 01dc 07       		.byte	0x7
 455 01dd 3101     		.2byte	0x131
 456 01df A0060000 		.4byte	0x6a0
 457 01e3 24       		.byte	0x24
 458 01e4 08       		.uleb128 0x8
 459 01e5 E5030000 		.4byte	.LASF40
 460 01e9 07       		.byte	0x7
 461 01ea 3601     		.2byte	0x136
 462 01ec 5E020000 		.4byte	0x25e
 463 01f0 28       		.byte	0x28
 464 01f1 08       		.uleb128 0x8
 465 01f2 1C020000 		.4byte	.LASF41
 466 01f6 07       		.byte	0x7
 467 01f7 3C01     		.2byte	0x13c
 468 01f9 82020000 		.4byte	0x282
 469 01fd 2C       		.byte	0x2c
 470 01fe 08       		.uleb128 0x8
 471 01ff 91060000 		.4byte	.LASF42
 472 0203 07       		.byte	0x7
 473 0204 4001     		.2byte	0x140
 474 0206 05010000 		.4byte	0x105
 475 020a 34       		.byte	0x34
 476 020b 08       		.uleb128 0x8
 477 020c 67050000 		.4byte	.LASF43
 478 0210 07       		.byte	0x7
ARM GAS  /tmp/ccDsWh8H.s 			page 17


 479 0211 4601     		.2byte	0x146
 480 0213 10010000 		.4byte	0x110
 481 0217 38       		.byte	0x38
 482 0218 08       		.uleb128 0x8
 483 0219 FA040000 		.4byte	.LASF44
 484 021d 07       		.byte	0x7
 485 021e 4D01     		.2byte	0x14d
 486 0220 5F070000 		.4byte	0x75f
 487 0224 3C       		.byte	0x3c
 488 0225 08       		.uleb128 0x8
 489 0226 D9050000 		.4byte	.LASF45
 490 022a 07       		.byte	0x7
 491 022b 5101     		.2byte	0x151
 492 022d FA000000 		.4byte	0xfa
 493 0231 40       		.byte	0x40
 494 0232 08       		.uleb128 0x8
 495 0233 41010000 		.4byte	.LASF46
 496 0237 07       		.byte	0x7
 497 0238 5801     		.2byte	0x158
 498 023a 35030000 		.4byte	0x335
 499 023e 44       		.byte	0x44
 500 023f 08       		.uleb128 0x8
 501 0240 3A050000 		.4byte	.LASF47
 502 0244 07       		.byte	0x7
 503 0245 5E01     		.2byte	0x15e
 504 0247 51060000 		.4byte	0x651
 505 024b 48       		.byte	0x48
 506 024c 00       		.byte	0
 507 024d 04       		.uleb128 0x4
 508 024e F8030000 		.4byte	.LASF48
 509 0252 06       		.byte	0x6
 510 0253 44       		.byte	0x44
 511 0254 58020000 		.4byte	0x258
 512 0258 09       		.uleb128 0x9
 513 0259 04       		.byte	0x4
 514 025a 3C010000 		.4byte	0x13c
 515 025e 04       		.uleb128 0x4
 516 025f 75060000 		.4byte	.LASF49
 517 0263 06       		.byte	0x6
 518 0264 49       		.byte	0x49
 519 0265 69020000 		.4byte	0x269
 520 0269 05       		.uleb128 0x5
 521 026a 93050000 		.4byte	.LASF51
 522 026e 04       		.byte	0x4
 523 026f 07       		.byte	0x7
 524 0270 B0       		.byte	0xb0
 525 0271 82020000 		.4byte	0x282
 526 0275 06       		.uleb128 0x6
 527 0276 2B050000 		.4byte	.LASF29
 528 027a 07       		.byte	0x7
 529 027b B1       		.byte	0xb1
 530 027c 58020000 		.4byte	0x258
 531 0280 00       		.byte	0
 532 0281 00       		.byte	0
 533 0282 04       		.uleb128 0x4
 534 0283 2A060000 		.4byte	.LASF52
 535 0287 06       		.byte	0x6
ARM GAS  /tmp/ccDsWh8H.s 			page 18


 536 0288 50       		.byte	0x50
 537 0289 8D020000 		.4byte	0x28d
 538 028d 05       		.uleb128 0x5
 539 028e 68000000 		.4byte	.LASF53
 540 0292 08       		.byte	0x8
 541 0293 07       		.byte	0x7
 542 0294 B7       		.byte	0xb7
 543 0295 B2020000 		.4byte	0x2b2
 544 0299 06       		.uleb128 0x6
 545 029a 2B050000 		.4byte	.LASF29
 546 029e 07       		.byte	0x7
 547 029f B8       		.byte	0xb8
 548 02a0 58020000 		.4byte	0x258
 549 02a4 00       		.byte	0
 550 02a5 06       		.uleb128 0x6
 551 02a6 B2040000 		.4byte	.LASF30
 552 02aa 07       		.byte	0x7
 553 02ab B9       		.byte	0xb9
 554 02ac 58020000 		.4byte	0x258
 555 02b0 04       		.byte	0x4
 556 02b1 00       		.byte	0
 557 02b2 04       		.uleb128 0x4
 558 02b3 1A000000 		.4byte	.LASF54
 559 02b7 06       		.byte	0x6
 560 02b8 57       		.byte	0x57
 561 02b9 BD020000 		.4byte	0x2bd
 562 02bd 0A       		.uleb128 0xa
 563 02be AF030000 		.4byte	.LASF55
 564 02c2 1C       		.byte	0x1c
 565 02c3 07       		.byte	0x7
 566 02c4 9001     		.2byte	0x190
 567 02c6 19030000 		.4byte	0x319
 568 02ca 08       		.uleb128 0x8
 569 02cb 82050000 		.4byte	.LASF56
 570 02cf 07       		.byte	0x7
 571 02d0 9101     		.2byte	0x191
 572 02d2 82020000 		.4byte	0x282
 573 02d6 00       		.byte	0
 574 02d7 08       		.uleb128 0x8
 575 02d8 16050000 		.4byte	.LASF57
 576 02dc 07       		.byte	0x7
 577 02dd 9201     		.2byte	0x192
 578 02df FA000000 		.4byte	0xfa
 579 02e3 08       		.byte	0x8
 580 02e4 08       		.uleb128 0x8
 581 02e5 45040000 		.4byte	.LASF58
 582 02e9 07       		.byte	0x7
 583 02ea 9401     		.2byte	0x194
 584 02ec C1040000 		.4byte	0x4c1
 585 02f0 0C       		.byte	0xc
 586 02f1 08       		.uleb128 0x8
 587 02f2 98010000 		.4byte	.LASF59
 588 02f6 07       		.byte	0x7
 589 02f7 9701     		.2byte	0x197
 590 02f9 58020000 		.4byte	0x258
 591 02fd 10       		.byte	0x10
 592 02fe 08       		.uleb128 0x8
ARM GAS  /tmp/ccDsWh8H.s 			page 19


 593 02ff 72040000 		.4byte	.LASF60
 594 0303 07       		.byte	0x7
 595 0304 9801     		.2byte	0x198
 596 0306 58020000 		.4byte	0x258
 597 030a 14       		.byte	0x14
 598 030b 08       		.uleb128 0x8
 599 030c 68040000 		.4byte	.LASF61
 600 0310 07       		.byte	0x7
 601 0311 9B01     		.2byte	0x19b
 602 0313 58020000 		.4byte	0x258
 603 0317 18       		.byte	0x18
 604 0318 00       		.byte	0
 605 0319 04       		.uleb128 0x4
 606 031a E4050000 		.4byte	.LASF62
 607 031e 06       		.byte	0x6
 608 031f 5C       		.byte	0x5c
 609 0320 24030000 		.4byte	0x324
 610 0324 09       		.uleb128 0x9
 611 0325 04       		.byte	0x4
 612 0326 2A030000 		.4byte	0x32a
 613 032a 0B       		.uleb128 0xb
 614 032b 35030000 		.4byte	0x335
 615 032f 0C       		.uleb128 0xc
 616 0330 35030000 		.4byte	0x335
 617 0334 00       		.byte	0
 618 0335 0D       		.uleb128 0xd
 619 0336 04       		.byte	0x4
 620 0337 04       		.uleb128 0x4
 621 0338 A2040000 		.4byte	.LASF63
 622 033c 06       		.byte	0x6
 623 033d 61       		.byte	0x61
 624 033e 42030000 		.4byte	0x342
 625 0342 0A       		.uleb128 0xa
 626 0343 49050000 		.4byte	.LASF64
 627 0347 14       		.byte	0x14
 628 0348 07       		.byte	0x7
 629 0349 6B01     		.2byte	0x16b
 630 034b 91030000 		.4byte	0x391
 631 034f 08       		.uleb128 0x8
 632 0350 0D020000 		.4byte	.LASF65
 633 0354 07       		.byte	0x7
 634 0355 6C01     		.2byte	0x16c
 635 0357 7D070000 		.4byte	0x77d
 636 035b 00       		.byte	0
 637 035c 08       		.uleb128 0x8
 638 035d A9010000 		.4byte	.LASF66
 639 0361 07       		.byte	0x7
 640 0362 6D01     		.2byte	0x16d
 641 0364 7D070000 		.4byte	0x77d
 642 0368 04       		.byte	0x4
 643 0369 08       		.uleb128 0x8
 644 036a 8A050000 		.4byte	.LASF67
 645 036e 07       		.byte	0x7
 646 036f 6E01     		.2byte	0x16e
 647 0371 31010000 		.4byte	0x131
 648 0375 08       		.byte	0x8
 649 0376 08       		.uleb128 0x8
ARM GAS  /tmp/ccDsWh8H.s 			page 20


 650 0377 CA060000 		.4byte	.LASF68
 651 037b 07       		.byte	0x7
 652 037c 6F01     		.2byte	0x16f
 653 037e 19030000 		.4byte	0x319
 654 0382 0C       		.byte	0xc
 655 0383 08       		.uleb128 0x8
 656 0384 19060000 		.4byte	.LASF69
 657 0388 07       		.byte	0x7
 658 0389 7101     		.2byte	0x171
 659 038b 35030000 		.4byte	0x335
 660 038f 10       		.byte	0x10
 661 0390 00       		.byte	0
 662 0391 04       		.uleb128 0x4
 663 0392 F4000000 		.4byte	.LASF70
 664 0396 06       		.byte	0x6
 665 0397 66       		.byte	0x66
 666 0398 9C030000 		.4byte	0x39c
 667 039c 0A       		.uleb128 0xa
 668 039d 0B040000 		.4byte	.LASF71
 669 03a1 10       		.byte	0x10
 670 03a2 07       		.byte	0x7
 671 03a3 7B01     		.2byte	0x17b
 672 03a5 DE030000 		.4byte	0x3de
 673 03a9 08       		.uleb128 0x8
 674 03aa 0D020000 		.4byte	.LASF65
 675 03ae 07       		.byte	0x7
 676 03af 7C01     		.2byte	0x17c
 677 03b1 7D070000 		.4byte	0x77d
 678 03b5 00       		.byte	0
 679 03b6 08       		.uleb128 0x8
 680 03b7 A9010000 		.4byte	.LASF66
 681 03bb 07       		.byte	0x7
 682 03bc 7E01     		.2byte	0x17e
 683 03be 7D070000 		.4byte	0x77d
 684 03c2 04       		.byte	0x4
 685 03c3 08       		.uleb128 0x8
 686 03c4 8A050000 		.4byte	.LASF67
 687 03c8 07       		.byte	0x7
 688 03c9 8001     		.2byte	0x180
 689 03cb 31010000 		.4byte	0x131
 690 03cf 08       		.byte	0x8
 691 03d0 08       		.uleb128 0x8
 692 03d1 31040000 		.4byte	.LASF72
 693 03d5 07       		.byte	0x7
 694 03d6 8801     		.2byte	0x188
 695 03d8 31010000 		.4byte	0x131
 696 03dc 0C       		.byte	0xc
 697 03dd 00       		.byte	0
 698 03de 04       		.uleb128 0x4
 699 03df 79000000 		.4byte	.LASF73
 700 03e3 06       		.byte	0x6
 701 03e4 6B       		.byte	0x6b
 702 03e5 E9030000 		.4byte	0x3e9
 703 03e9 0E       		.uleb128 0xe
 704 03ea B8010000 		.4byte	.LASF74
 705 03ee 1404     		.2byte	0x414
 706 03f0 07       		.byte	0x7
ARM GAS  /tmp/ccDsWh8H.s 			page 21


 707 03f1 A201     		.2byte	0x1a2
 708 03f3 2C040000 		.4byte	0x42c
 709 03f7 08       		.uleb128 0x8
 710 03f8 F8050000 		.4byte	.LASF75
 711 03fc 07       		.byte	0x7
 712 03fd AA01     		.2byte	0x1aa
 713 03ff 83070000 		.4byte	0x783
 714 0403 00       		.byte	0
 715 0404 08       		.uleb128 0x8
 716 0405 4A060000 		.4byte	.LASF76
 717 0409 07       		.byte	0x7
 718 040a AF01     		.2byte	0x1af
 719 040c 1B010000 		.4byte	0x11b
 720 0410 04       		.byte	0x4
 721 0411 08       		.uleb128 0x8
 722 0412 D7010000 		.4byte	.LASF77
 723 0416 07       		.byte	0x7
 724 0417 B301     		.2byte	0x1b3
 725 0419 1B010000 		.4byte	0x11b
 726 041d 08       		.byte	0x8
 727 041e 08       		.uleb128 0x8
 728 041f 84060000 		.4byte	.LASF78
 729 0423 07       		.byte	0x7
 730 0424 B901     		.2byte	0x1b9
 731 0426 E3050000 		.4byte	0x5e3
 732 042a 0C       		.byte	0xc
 733 042b 00       		.byte	0
 734 042c 04       		.uleb128 0x4
 735 042d ED020000 		.4byte	.LASF79
 736 0431 06       		.byte	0x6
 737 0432 70       		.byte	0x70
 738 0433 37040000 		.4byte	0x437
 739 0437 0E       		.uleb128 0xe
 740 0438 57010000 		.4byte	.LASF80
 741 043c D805     		.2byte	0x5d8
 742 043e 07       		.byte	0x7
 743 043f C201     		.2byte	0x1c2
 744 0441 A4040000 		.4byte	0x4a4
 745 0445 08       		.uleb128 0x8
 746 0446 52060000 		.4byte	.LASF81
 747 044a 07       		.byte	0x7
 748 044b C601     		.2byte	0x1c6
 749 044d B2020000 		.4byte	0x2b2
 750 0451 00       		.byte	0
 751 0452 08       		.uleb128 0x8
 752 0453 B1010000 		.4byte	.LASF82
 753 0457 07       		.byte	0x7
 754 0458 CA01     		.2byte	0x1ca
 755 045a 91030000 		.4byte	0x391
 756 045e 1C       		.byte	0x1c
 757 045f 07       		.uleb128 0x7
 758 0460 64626700 		.ascii	"dbg\000"
 759 0464 07       		.byte	0x7
 760 0465 CE01     		.2byte	0x1ce
 761 0467 DE030000 		.4byte	0x3de
 762 046b 2C       		.byte	0x2c
 763 046c 0F       		.uleb128 0xf
ARM GAS  /tmp/ccDsWh8H.s 			page 22


 764 046d E9000000 		.4byte	.LASF83
 765 0471 07       		.byte	0x7
 766 0472 D201     		.2byte	0x1d2
 767 0474 3C010000 		.4byte	0x13c
 768 0478 4004     		.2byte	0x440
 769 047a 10       		.uleb128 0x10
 770 047b 746D00   		.ascii	"tm\000"
 771 047e 07       		.byte	0x7
 772 047f D701     		.2byte	0x1d7
 773 0481 03060000 		.4byte	0x603
 774 0485 A004     		.2byte	0x4a0
 775 0487 0F       		.uleb128 0xf
 776 0488 45000000 		.4byte	.LASF84
 777 048c 07       		.byte	0x7
 778 048d DD01     		.2byte	0x1dd
 779 048f 95060000 		.4byte	0x695
 780 0493 A804     		.2byte	0x4a8
 781 0495 0F       		.uleb128 0xf
 782 0496 E0010000 		.4byte	.LASF85
 783 049a 07       		.byte	0x7
 784 049b E301     		.2byte	0x1e3
 785 049d 88070000 		.4byte	0x788
 786 04a1 E004     		.2byte	0x4e0
 787 04a3 00       		.byte	0
 788 04a4 03       		.uleb128 0x3
 789 04a5 04       		.byte	0x4
 790 04a6 07       		.byte	0x7
 791 04a7 EF030000 		.4byte	.LASF86
 792 04ab 04       		.uleb128 0x4
 793 04ac A0010000 		.4byte	.LASF87
 794 04b0 08       		.byte	0x8
 795 04b1 65       		.byte	0x65
 796 04b2 35030000 		.4byte	0x335
 797 04b6 04       		.uleb128 0x4
 798 04b7 DA030000 		.4byte	.LASF88
 799 04bb 08       		.byte	0x8
 800 04bc 6D       		.byte	0x6d
 801 04bd B8000000 		.4byte	0xb8
 802 04c1 05       		.uleb128 0x5
 803 04c2 09060000 		.4byte	.LASF89
 804 04c6 04       		.byte	0x4
 805 04c7 08       		.byte	0x8
 806 04c8 89       		.byte	0x89
 807 04c9 DA040000 		.4byte	0x4da
 808 04cd 11       		.uleb128 0x11
 809 04ce 72313300 		.ascii	"r13\000"
 810 04d2 08       		.byte	0x8
 811 04d3 8A       		.byte	0x8a
 812 04d4 55050000 		.4byte	0x555
 813 04d8 00       		.byte	0
 814 04d9 00       		.byte	0
 815 04da 05       		.uleb128 0x5
 816 04db 5C000000 		.4byte	.LASF90
 817 04df 24       		.byte	0x24
 818 04e0 09       		.byte	0x9
 819 04e1 FD       		.byte	0xfd
 820 04e2 55050000 		.4byte	0x555
ARM GAS  /tmp/ccDsWh8H.s 			page 23


 821 04e6 07       		.uleb128 0x7
 822 04e7 723400   		.ascii	"r4\000"
 823 04ea 09       		.byte	0x9
 824 04eb 1001     		.2byte	0x110
 825 04ed AB040000 		.4byte	0x4ab
 826 04f1 00       		.byte	0
 827 04f2 07       		.uleb128 0x7
 828 04f3 723500   		.ascii	"r5\000"
 829 04f6 09       		.byte	0x9
 830 04f7 1101     		.2byte	0x111
 831 04f9 AB040000 		.4byte	0x4ab
 832 04fd 04       		.byte	0x4
 833 04fe 07       		.uleb128 0x7
 834 04ff 723600   		.ascii	"r6\000"
 835 0502 09       		.byte	0x9
 836 0503 1201     		.2byte	0x112
 837 0505 AB040000 		.4byte	0x4ab
 838 0509 08       		.byte	0x8
 839 050a 07       		.uleb128 0x7
 840 050b 723700   		.ascii	"r7\000"
 841 050e 09       		.byte	0x9
 842 050f 1301     		.2byte	0x113
 843 0511 AB040000 		.4byte	0x4ab
 844 0515 0C       		.byte	0xc
 845 0516 07       		.uleb128 0x7
 846 0517 723800   		.ascii	"r8\000"
 847 051a 09       		.byte	0x9
 848 051b 1401     		.2byte	0x114
 849 051d AB040000 		.4byte	0x4ab
 850 0521 10       		.byte	0x10
 851 0522 07       		.uleb128 0x7
 852 0523 723900   		.ascii	"r9\000"
 853 0526 09       		.byte	0x9
 854 0527 1501     		.2byte	0x115
 855 0529 AB040000 		.4byte	0x4ab
 856 052d 14       		.byte	0x14
 857 052e 07       		.uleb128 0x7
 858 052f 72313000 		.ascii	"r10\000"
 859 0533 09       		.byte	0x9
 860 0534 1601     		.2byte	0x116
 861 0536 AB040000 		.4byte	0x4ab
 862 053a 18       		.byte	0x18
 863 053b 07       		.uleb128 0x7
 864 053c 72313100 		.ascii	"r11\000"
 865 0540 09       		.byte	0x9
 866 0541 1701     		.2byte	0x117
 867 0543 AB040000 		.4byte	0x4ab
 868 0547 1C       		.byte	0x1c
 869 0548 07       		.uleb128 0x7
 870 0549 6C7200   		.ascii	"lr\000"
 871 054c 09       		.byte	0x9
 872 054d 1801     		.2byte	0x118
 873 054f AB040000 		.4byte	0x4ab
 874 0553 20       		.byte	0x20
 875 0554 00       		.byte	0
 876 0555 09       		.uleb128 0x9
 877 0556 04       		.byte	0x4
ARM GAS  /tmp/ccDsWh8H.s 			page 24


 878 0557 DA040000 		.4byte	0x4da
 879 055b 12       		.uleb128 0x12
 880 055c 10       		.byte	0x10
 881 055d 0A       		.byte	0xa
 882 055e 51       		.byte	0x51
 883 055f 94050000 		.4byte	0x594
 884 0563 06       		.uleb128 0x6
 885 0564 27000000 		.4byte	.LASF91
 886 0568 0A       		.byte	0xa
 887 0569 55       		.byte	0x55
 888 056a 31010000 		.4byte	0x131
 889 056e 00       		.byte	0
 890 056f 06       		.uleb128 0x6
 891 0570 7A010000 		.4byte	.LASF92
 892 0574 0A       		.byte	0xa
 893 0575 59       		.byte	0x59
 894 0576 58020000 		.4byte	0x258
 895 057a 04       		.byte	0x4
 896 057b 06       		.uleb128 0x6
 897 057c 3D020000 		.4byte	.LASF93
 898 0580 0A       		.byte	0xa
 899 0581 5D       		.byte	0x5d
 900 0582 35030000 		.4byte	0x335
 901 0586 08       		.byte	0x8
 902 0587 06       		.uleb128 0x6
 903 0588 D1000000 		.4byte	.LASF94
 904 058c 0A       		.byte	0xa
 905 058d 61       		.byte	0x61
 906 058e 97000000 		.4byte	0x97
 907 0592 0C       		.byte	0xc
 908 0593 00       		.byte	0
 909 0594 04       		.uleb128 0x4
 910 0595 22040000 		.4byte	.LASF95
 911 0599 0A       		.byte	0xa
 912 059a 62       		.byte	0x62
 913 059b 5B050000 		.4byte	0x55b
 914 059f 13       		.uleb128 0x13
 915 05a0 0804     		.2byte	0x408
 916 05a2 0A       		.byte	0xa
 917 05a3 67       		.byte	0x67
 918 05a4 CD050000 		.4byte	0x5cd
 919 05a8 06       		.uleb128 0x6
 920 05a9 90010000 		.4byte	.LASF96
 921 05ad 0A       		.byte	0xa
 922 05ae 6B       		.byte	0x6b
 923 05af 2C000000 		.4byte	0x2c
 924 05b3 00       		.byte	0
 925 05b4 06       		.uleb128 0x6
 926 05b5 13000000 		.4byte	.LASF97
 927 05b9 0A       		.byte	0xa
 928 05ba 6F       		.byte	0x6f
 929 05bb CD050000 		.4byte	0x5cd
 930 05bf 04       		.byte	0x4
 931 05c0 06       		.uleb128 0x6
 932 05c1 98040000 		.4byte	.LASF98
 933 05c5 0A       		.byte	0xa
 934 05c6 73       		.byte	0x73
ARM GAS  /tmp/ccDsWh8H.s 			page 25


 935 05c7 D3050000 		.4byte	0x5d3
 936 05cb 08       		.byte	0x8
 937 05cc 00       		.byte	0
 938 05cd 09       		.uleb128 0x9
 939 05ce 04       		.byte	0x4
 940 05cf 94050000 		.4byte	0x594
 941 05d3 14       		.uleb128 0x14
 942 05d4 94050000 		.4byte	0x594
 943 05d8 E3050000 		.4byte	0x5e3
 944 05dc 15       		.uleb128 0x15
 945 05dd A4040000 		.4byte	0x4a4
 946 05e1 3F       		.byte	0x3f
 947 05e2 00       		.byte	0
 948 05e3 04       		.uleb128 0x4
 949 05e4 BF000000 		.4byte	.LASF99
 950 05e8 0A       		.byte	0xa
 951 05e9 74       		.byte	0x74
 952 05ea 9F050000 		.4byte	0x59f
 953 05ee 12       		.uleb128 0x12
 954 05ef 04       		.byte	0x4
 955 05f0 0B       		.byte	0xb
 956 05f1 38       		.byte	0x38
 957 05f2 03060000 		.4byte	0x603
 958 05f6 06       		.uleb128 0x6
 959 05f7 02060000 		.4byte	.LASF100
 960 05fb 0B       		.byte	0xb
 961 05fc 3C       		.byte	0x3c
 962 05fd C3000000 		.4byte	0xc3
 963 0601 00       		.byte	0
 964 0602 00       		.byte	0
 965 0603 04       		.uleb128 0x4
 966 0604 4B040000 		.4byte	.LASF101
 967 0608 0B       		.byte	0xb
 968 0609 3D       		.byte	0x3d
 969 060a EE050000 		.4byte	0x5ee
 970 060e 12       		.uleb128 0x12
 971 060f 18       		.byte	0x18
 972 0610 0B       		.byte	0xb
 973 0611 48       		.byte	0x48
 974 0612 51060000 		.4byte	0x651
 975 0616 06       		.uleb128 0x6
 976 0617 C3050000 		.4byte	.LASF102
 977 061b 0B       		.byte	0xb
 978 061c 49       		.byte	0x49
 979 061d C3000000 		.4byte	0xc3
 980 0621 00       		.byte	0
 981 0622 06       		.uleb128 0x6
 982 0623 88000000 		.4byte	.LASF103
 983 0627 0B       		.byte	0xb
 984 0628 4A       		.byte	0x4a
 985 0629 C3000000 		.4byte	0xc3
 986 062d 04       		.byte	0x4
 987 062e 06       		.uleb128 0x6
 988 062f 80020000 		.4byte	.LASF104
 989 0633 0B       		.byte	0xb
 990 0634 4B       		.byte	0x4b
 991 0635 C3000000 		.4byte	0xc3
ARM GAS  /tmp/ccDsWh8H.s 			page 26


 992 0639 08       		.byte	0x8
 993 063a 11       		.uleb128 0x11
 994 063b 6E00     		.ascii	"n\000"
 995 063d 0B       		.byte	0xb
 996 063e 4C       		.byte	0x4c
 997 063f 26010000 		.4byte	0x126
 998 0643 0C       		.byte	0xc
 999 0644 06       		.uleb128 0x6
 1000 0645 85040000 		.4byte	.LASF105
 1001 0649 0B       		.byte	0xb
 1002 064a 4D       		.byte	0x4d
 1003 064b CE000000 		.4byte	0xce
 1004 064f 10       		.byte	0x10
 1005 0650 00       		.byte	0
 1006 0651 04       		.uleb128 0x4
 1007 0652 95000000 		.4byte	.LASF106
 1008 0656 0B       		.byte	0xb
 1009 0657 4E       		.byte	0x4e
 1010 0658 0E060000 		.4byte	0x60e
 1011 065c 12       		.uleb128 0x12
 1012 065d 38       		.byte	0x38
 1013 065e 0C       		.byte	0xc
 1014 065f 38       		.byte	0x38
 1015 0660 95060000 		.4byte	0x695
 1016 0664 06       		.uleb128 0x6
 1017 0665 37020000 		.4byte	.LASF107
 1018 0669 0C       		.byte	0xc
 1019 066a 39       		.byte	0x39
 1020 066b 26010000 		.4byte	0x126
 1021 066f 00       		.byte	0
 1022 0670 06       		.uleb128 0x6
 1023 0671 CA040000 		.4byte	.LASF108
 1024 0675 0C       		.byte	0xc
 1025 0676 3A       		.byte	0x3a
 1026 0677 26010000 		.4byte	0x126
 1027 067b 04       		.byte	0x4
 1028 067c 06       		.uleb128 0x6
 1029 067d 9E060000 		.4byte	.LASF109
 1030 0681 0C       		.byte	0xc
 1031 0682 3B       		.byte	0x3b
 1032 0683 51060000 		.4byte	0x651
 1033 0687 08       		.byte	0x8
 1034 0688 06       		.uleb128 0x6
 1035 0689 A4030000 		.4byte	.LASF110
 1036 068d 0C       		.byte	0xc
 1037 068e 3D       		.byte	0x3d
 1038 068f 51060000 		.4byte	0x651
 1039 0693 20       		.byte	0x20
 1040 0694 00       		.byte	0
 1041 0695 04       		.uleb128 0x4
 1042 0696 61020000 		.4byte	.LASF111
 1043 069a 0C       		.byte	0xc
 1044 069b 3F       		.byte	0x3f
 1045 069c 5C060000 		.4byte	0x65c
 1046 06a0 16       		.uleb128 0x16
 1047 06a1 04       		.byte	0x4
 1048 06a2 07       		.byte	0x7
ARM GAS  /tmp/ccDsWh8H.s 			page 27


 1049 06a3 FA       		.byte	0xfa
 1050 06a4 FD060000 		.4byte	0x6fd
 1051 06a8 17       		.uleb128 0x17
 1052 06a9 35000000 		.4byte	.LASF112
 1053 06ad 07       		.byte	0x7
 1054 06ae 0101     		.2byte	0x101
 1055 06b0 05010000 		.4byte	0x105
 1056 06b4 17       		.uleb128 0x17
 1057 06b5 E0000000 		.4byte	.LASF113
 1058 06b9 07       		.byte	0x7
 1059 06ba 0801     		.2byte	0x108
 1060 06bc 05010000 		.4byte	0x105
 1061 06c0 17       		.uleb128 0x17
 1062 06c1 60060000 		.4byte	.LASF114
 1063 06c5 07       		.byte	0x7
 1064 06c6 0F01     		.2byte	0x10f
 1065 06c8 35030000 		.4byte	0x335
 1066 06cc 17       		.uleb128 0x17
 1067 06cd 2F000000 		.4byte	.LASF115
 1068 06d1 07       		.byte	0x7
 1069 06d2 1601     		.2byte	0x116
 1070 06d4 FD060000 		.4byte	0x6fd
 1071 06d8 17       		.uleb128 0x17
 1072 06d9 15020000 		.4byte	.LASF116
 1073 06dd 07       		.byte	0x7
 1074 06de 1E01     		.2byte	0x11e
 1075 06e0 28070000 		.4byte	0x728
 1076 06e4 17       		.uleb128 0x17
 1077 06e5 7B050000 		.4byte	.LASF117
 1078 06e9 07       		.byte	0x7
 1079 06ea 2701     		.2byte	0x127
 1080 06ec 5F070000 		.4byte	0x75f
 1081 06f0 17       		.uleb128 0x17
 1082 06f1 24050000 		.4byte	.LASF118
 1083 06f5 07       		.byte	0x7
 1084 06f6 2F01     		.2byte	0x12f
 1085 06f8 10010000 		.4byte	0x110
 1086 06fc 00       		.byte	0
 1087 06fd 09       		.uleb128 0x9
 1088 06fe 04       		.byte	0x4
 1089 06ff 4D020000 		.4byte	0x24d
 1090 0703 05       		.uleb128 0x5
 1091 0704 5A050000 		.4byte	.LASF119
 1092 0708 0C       		.byte	0xc
 1093 0709 0D       		.byte	0xd
 1094 070a 34       		.byte	0x34
 1095 070b 28070000 		.4byte	0x728
 1096 070f 06       		.uleb128 0x6
 1097 0710 88010000 		.4byte	.LASF120
 1098 0714 0D       		.byte	0xd
 1099 0715 35       		.byte	0x35
 1100 0716 82020000 		.4byte	0x282
 1101 071a 00       		.byte	0
 1102 071b 06       		.uleb128 0x6
 1103 071c F4040000 		.4byte	.LASF121
 1104 0720 0D       		.byte	0xd
 1105 0721 37       		.byte	0x37
ARM GAS  /tmp/ccDsWh8H.s 			page 28


 1106 0722 1B010000 		.4byte	0x11b
 1107 0726 08       		.byte	0x8
 1108 0727 00       		.byte	0
 1109 0728 09       		.uleb128 0x9
 1110 0729 04       		.byte	0x4
 1111 072a 03070000 		.4byte	0x703
 1112 072e 05       		.uleb128 0x5
 1113 072f 3A060000 		.4byte	.LASF122
 1114 0733 10       		.byte	0x10
 1115 0734 0E       		.byte	0xe
 1116 0735 39       		.byte	0x39
 1117 0736 5F070000 		.4byte	0x75f
 1118 073a 06       		.uleb128 0x6
 1119 073b 49010000 		.4byte	.LASF123
 1120 073f 0E       		.byte	0xe
 1121 0740 3A       		.byte	0x3a
 1122 0741 82020000 		.4byte	0x282
 1123 0745 00       		.byte	0
 1124 0746 06       		.uleb128 0x6
 1125 0747 A9060000 		.4byte	.LASF124
 1126 074b 0E       		.byte	0xe
 1127 074c 3C       		.byte	0x3c
 1128 074d 58020000 		.4byte	0x258
 1129 0751 08       		.byte	0x8
 1130 0752 06       		.uleb128 0x6
 1131 0753 C8050000 		.4byte	.LASF125
 1132 0757 0E       		.byte	0xe
 1133 0758 3E       		.byte	0x3e
 1134 0759 A3070000 		.4byte	0x7a3
 1135 075d 0C       		.byte	0xc
 1136 075e 00       		.byte	0
 1137 075f 09       		.uleb128 0x9
 1138 0760 04       		.byte	0x4
 1139 0761 2E070000 		.4byte	0x72e
 1140 0765 09       		.uleb128 0x9
 1141 0766 04       		.byte	0x4
 1142 0767 6B070000 		.4byte	0x76b
 1143 076b 18       		.uleb128 0x18
 1144 076c 70070000 		.4byte	0x770
 1145 0770 03       		.uleb128 0x3
 1146 0771 01       		.byte	0x1
 1147 0772 08       		.byte	0x8
 1148 0773 B5050000 		.4byte	.LASF126
 1149 0777 09       		.uleb128 0x9
 1150 0778 04       		.byte	0x4
 1151 0779 B6040000 		.4byte	0x4b6
 1152 077d 09       		.uleb128 0x9
 1153 077e 04       		.byte	0x4
 1154 077f 37030000 		.4byte	0x337
 1155 0783 19       		.uleb128 0x19
 1156 0784 65070000 		.4byte	0x765
 1157 0788 14       		.uleb128 0x14
 1158 0789 B6040000 		.4byte	0x4b6
 1159 078d 98070000 		.4byte	0x798
 1160 0791 15       		.uleb128 0x15
 1161 0792 A4040000 		.4byte	0x4a4
 1162 0796 1E       		.byte	0x1e
ARM GAS  /tmp/ccDsWh8H.s 			page 29


 1163 0797 00       		.byte	0
 1164 0798 04       		.uleb128 0x4
 1165 0799 C8010000 		.4byte	.LASF127
 1166 079d 0E       		.byte	0xe
 1167 079e 34       		.byte	0x34
 1168 079f 2E070000 		.4byte	0x72e
 1169 07a3 09       		.uleb128 0x9
 1170 07a4 04       		.byte	0x4
 1171 07a5 98070000 		.4byte	0x798
 1172 07a9 03       		.uleb128 0x3
 1173 07aa 01       		.byte	0x1
 1174 07ab 02       		.byte	0x2
 1175 07ac D3040000 		.4byte	.LASF128
 1176 07b0 12       		.uleb128 0x12
 1177 07b1 1C       		.byte	0x1c
 1178 07b2 0F       		.byte	0xf
 1179 07b3 F5       		.byte	0xf5
 1180 07b4 0F080000 		.4byte	0x80f
 1181 07b8 06       		.uleb128 0x6
 1182 07b9 51010000 		.4byte	.LASF129
 1183 07bd 0F       		.byte	0xf
 1184 07be F7       		.byte	0xf7
 1185 07bf AD000000 		.4byte	0xad
 1186 07c3 00       		.byte	0
 1187 07c4 06       		.uleb128 0x6
 1188 07c5 47020000 		.4byte	.LASF130
 1189 07c9 0F       		.byte	0xf
 1190 07ca F9       		.byte	0xf9
 1191 07cb AD000000 		.4byte	0xad
 1192 07cf 04       		.byte	0x4
 1193 07d0 06       		.uleb128 0x6
 1194 07d1 2F020000 		.4byte	.LASF131
 1195 07d5 0F       		.byte	0xf
 1196 07d6 FB       		.byte	0xfb
 1197 07d7 AD000000 		.4byte	0xad
 1198 07db 08       		.byte	0x8
 1199 07dc 06       		.uleb128 0x6
 1200 07dd DA000000 		.4byte	.LASF132
 1201 07e1 0F       		.byte	0xf
 1202 07e2 FD       		.byte	0xfd
 1203 07e3 AD000000 		.4byte	0xad
 1204 07e7 0C       		.byte	0xc
 1205 07e8 11       		.uleb128 0x11
 1206 07e9 6F647200 		.ascii	"odr\000"
 1207 07ed 0F       		.byte	0xf
 1208 07ee FF       		.byte	0xff
 1209 07ef AD000000 		.4byte	0xad
 1210 07f3 10       		.byte	0x10
 1211 07f4 08       		.uleb128 0x8
 1212 07f5 EF040000 		.4byte	.LASF133
 1213 07f9 0F       		.byte	0xf
 1214 07fa 0101     		.2byte	0x101
 1215 07fc AD000000 		.4byte	0xad
 1216 0800 14       		.byte	0x14
 1217 0801 08       		.uleb128 0x8
 1218 0802 5C040000 		.4byte	.LASF134
 1219 0806 0F       		.byte	0xf
ARM GAS  /tmp/ccDsWh8H.s 			page 30


 1220 0807 0301     		.2byte	0x103
 1221 0809 AD000000 		.4byte	0xad
 1222 080d 18       		.byte	0x18
 1223 080e 00       		.byte	0
 1224 080f 1A       		.uleb128 0x1a
 1225 0810 00000000 		.4byte	.LASF135
 1226 0814 0F       		.byte	0xf
 1227 0815 0401     		.2byte	0x104
 1228 0817 B0070000 		.4byte	0x7b0
 1229 081b 1B       		.uleb128 0x1b
 1230 081c FC       		.byte	0xfc
 1231 081d 0F       		.byte	0xf
 1232 081e 0D01     		.2byte	0x10d
 1233 0820 9A080000 		.4byte	0x89a
 1234 0824 08       		.uleb128 0x8
 1235 0825 1D050000 		.4byte	.LASF136
 1236 0829 0F       		.byte	0xf
 1237 082a 1001     		.2byte	0x110
 1238 082c 0F080000 		.4byte	0x80f
 1239 0830 00       		.byte	0
 1240 0831 08       		.uleb128 0x8
 1241 0832 D0010000 		.4byte	.LASF137
 1242 0836 0F       		.byte	0xf
 1243 0837 1401     		.2byte	0x114
 1244 0839 0F080000 		.4byte	0x80f
 1245 083d 1C       		.byte	0x1c
 1246 083e 08       		.uleb128 0x8
 1247 083f 6E060000 		.4byte	.LASF138
 1248 0843 0F       		.byte	0xf
 1249 0844 1801     		.2byte	0x118
 1250 0846 0F080000 		.4byte	0x80f
 1251 084a 38       		.byte	0x38
 1252 084b 08       		.uleb128 0x8
 1253 084c 61040000 		.4byte	.LASF139
 1254 0850 0F       		.byte	0xf
 1255 0851 1C01     		.2byte	0x11c
 1256 0853 0F080000 		.4byte	0x80f
 1257 0857 54       		.byte	0x54
 1258 0858 08       		.uleb128 0x8
 1259 0859 6A010000 		.4byte	.LASF140
 1260 085d 0F       		.byte	0xf
 1261 085e 2001     		.2byte	0x120
 1262 0860 0F080000 		.4byte	0x80f
 1263 0864 70       		.byte	0x70
 1264 0865 08       		.uleb128 0x8
 1265 0866 97060000 		.4byte	.LASF141
 1266 086a 0F       		.byte	0xf
 1267 086b 2401     		.2byte	0x124
 1268 086d 0F080000 		.4byte	0x80f
 1269 0871 8C       		.byte	0x8c
 1270 0872 08       		.uleb128 0x8
 1271 0873 D3030000 		.4byte	.LASF142
 1272 0877 0F       		.byte	0xf
 1273 0878 2801     		.2byte	0x128
 1274 087a 0F080000 		.4byte	0x80f
 1275 087e A8       		.byte	0xa8
 1276 087f 08       		.uleb128 0x8
ARM GAS  /tmp/ccDsWh8H.s 			page 31


 1277 0880 8E000000 		.4byte	.LASF143
 1278 0884 0F       		.byte	0xf
 1279 0885 2C01     		.2byte	0x12c
 1280 0887 0F080000 		.4byte	0x80f
 1281 088b C4       		.byte	0xc4
 1282 088c 08       		.uleb128 0x8
 1283 088d 42050000 		.4byte	.LASF144
 1284 0891 0F       		.byte	0xf
 1285 0892 3001     		.2byte	0x130
 1286 0894 0F080000 		.4byte	0x80f
 1287 0898 E0       		.byte	0xe0
 1288 0899 00       		.byte	0
 1289 089a 1A       		.uleb128 0x1a
 1290 089b 20060000 		.4byte	.LASF145
 1291 089f 0F       		.byte	0xf
 1292 08a0 3A01     		.2byte	0x13a
 1293 08a2 1B080000 		.4byte	0x81b
 1294 08a6 1C       		.uleb128 0x1c
 1295 08a7 B9040000 		.4byte	.LASF151
 1296 08ab 01       		.byte	0x1
 1297 08ac C101     		.2byte	0x1c1
 1298 08ae 00000000 		.4byte	.LFB241
 1299 08b2 02000000 		.4byte	.LFE241-.LFB241
 1300 08b6 01       		.uleb128 0x1
 1301 08b7 9C       		.byte	0x9c
 1302 08b8 1D       		.uleb128 0x1d
 1303 08b9 27020000 		.4byte	.LASF152
 1304 08bd 02       		.byte	0x2
 1305 08be 38       		.byte	0x38
 1306 08bf 00000000 		.4byte	.LFB272
 1307 08c3 28000000 		.4byte	.LFE272-.LFB272
 1308 08c7 01       		.uleb128 0x1
 1309 08c8 9C       		.byte	0x9c
 1310 08c9 1E       		.uleb128 0x1e
 1311 08ca 0A010000 		.4byte	.LASF146
 1312 08ce 10       		.byte	0x10
 1313 08cf FA06     		.2byte	0x6fa
 1314 08d1 D5080000 		.4byte	0x8d5
 1315 08d5 19       		.uleb128 0x19
 1316 08d6 A2000000 		.4byte	0xa2
 1317 08da 1F       		.uleb128 0x1f
 1318 08db 636800   		.ascii	"ch\000"
 1319 08de 07       		.byte	0x7
 1320 08df 0902     		.2byte	0x209
 1321 08e1 2C040000 		.4byte	0x42c
 1322 08e5 1E       		.uleb128 0x1e
 1323 08e6 B1060000 		.4byte	.LASF147
 1324 08ea 0F       		.byte	0xf
 1325 08eb 1E02     		.2byte	0x21e
 1326 08ed F1080000 		.4byte	0x8f1
 1327 08f1 18       		.uleb128 0x18
 1328 08f2 9A080000 		.4byte	0x89a
 1329 08f6 00       		.byte	0
 1330              		.section	.debug_abbrev,"",%progbits
 1331              	.Ldebug_abbrev0:
 1332 0000 01       		.uleb128 0x1
 1333 0001 11       		.uleb128 0x11
ARM GAS  /tmp/ccDsWh8H.s 			page 32


 1334 0002 01       		.byte	0x1
 1335 0003 25       		.uleb128 0x25
 1336 0004 0E       		.uleb128 0xe
 1337 0005 13       		.uleb128 0x13
 1338 0006 0B       		.uleb128 0xb
 1339 0007 03       		.uleb128 0x3
 1340 0008 0E       		.uleb128 0xe
 1341 0009 1B       		.uleb128 0x1b
 1342 000a 0E       		.uleb128 0xe
 1343 000b 55       		.uleb128 0x55
 1344 000c 17       		.uleb128 0x17
 1345 000d 11       		.uleb128 0x11
 1346 000e 01       		.uleb128 0x1
 1347 000f 10       		.uleb128 0x10
 1348 0010 17       		.uleb128 0x17
 1349 0011 00       		.byte	0
 1350 0012 00       		.byte	0
 1351 0013 02       		.uleb128 0x2
 1352 0014 24       		.uleb128 0x24
 1353 0015 00       		.byte	0
 1354 0016 0B       		.uleb128 0xb
 1355 0017 0B       		.uleb128 0xb
 1356 0018 3E       		.uleb128 0x3e
 1357 0019 0B       		.uleb128 0xb
 1358 001a 03       		.uleb128 0x3
 1359 001b 08       		.uleb128 0x8
 1360 001c 00       		.byte	0
 1361 001d 00       		.byte	0
 1362 001e 03       		.uleb128 0x3
 1363 001f 24       		.uleb128 0x24
 1364 0020 00       		.byte	0
 1365 0021 0B       		.uleb128 0xb
 1366 0022 0B       		.uleb128 0xb
 1367 0023 3E       		.uleb128 0x3e
 1368 0024 0B       		.uleb128 0xb
 1369 0025 03       		.uleb128 0x3
 1370 0026 0E       		.uleb128 0xe
 1371 0027 00       		.byte	0
 1372 0028 00       		.byte	0
 1373 0029 04       		.uleb128 0x4
 1374 002a 16       		.uleb128 0x16
 1375 002b 00       		.byte	0
 1376 002c 03       		.uleb128 0x3
 1377 002d 0E       		.uleb128 0xe
 1378 002e 3A       		.uleb128 0x3a
 1379 002f 0B       		.uleb128 0xb
 1380 0030 3B       		.uleb128 0x3b
 1381 0031 0B       		.uleb128 0xb
 1382 0032 49       		.uleb128 0x49
 1383 0033 13       		.uleb128 0x13
 1384 0034 00       		.byte	0
 1385 0035 00       		.byte	0
 1386 0036 05       		.uleb128 0x5
 1387 0037 13       		.uleb128 0x13
 1388 0038 01       		.byte	0x1
 1389 0039 03       		.uleb128 0x3
 1390 003a 0E       		.uleb128 0xe
ARM GAS  /tmp/ccDsWh8H.s 			page 33


 1391 003b 0B       		.uleb128 0xb
 1392 003c 0B       		.uleb128 0xb
 1393 003d 3A       		.uleb128 0x3a
 1394 003e 0B       		.uleb128 0xb
 1395 003f 3B       		.uleb128 0x3b
 1396 0040 0B       		.uleb128 0xb
 1397 0041 01       		.uleb128 0x1
 1398 0042 13       		.uleb128 0x13
 1399 0043 00       		.byte	0
 1400 0044 00       		.byte	0
 1401 0045 06       		.uleb128 0x6
 1402 0046 0D       		.uleb128 0xd
 1403 0047 00       		.byte	0
 1404 0048 03       		.uleb128 0x3
 1405 0049 0E       		.uleb128 0xe
 1406 004a 3A       		.uleb128 0x3a
 1407 004b 0B       		.uleb128 0xb
 1408 004c 3B       		.uleb128 0x3b
 1409 004d 0B       		.uleb128 0xb
 1410 004e 49       		.uleb128 0x49
 1411 004f 13       		.uleb128 0x13
 1412 0050 38       		.uleb128 0x38
 1413 0051 0B       		.uleb128 0xb
 1414 0052 00       		.byte	0
 1415 0053 00       		.byte	0
 1416 0054 07       		.uleb128 0x7
 1417 0055 0D       		.uleb128 0xd
 1418 0056 00       		.byte	0
 1419 0057 03       		.uleb128 0x3
 1420 0058 08       		.uleb128 0x8
 1421 0059 3A       		.uleb128 0x3a
 1422 005a 0B       		.uleb128 0xb
 1423 005b 3B       		.uleb128 0x3b
 1424 005c 05       		.uleb128 0x5
 1425 005d 49       		.uleb128 0x49
 1426 005e 13       		.uleb128 0x13
 1427 005f 38       		.uleb128 0x38
 1428 0060 0B       		.uleb128 0xb
 1429 0061 00       		.byte	0
 1430 0062 00       		.byte	0
 1431 0063 08       		.uleb128 0x8
 1432 0064 0D       		.uleb128 0xd
 1433 0065 00       		.byte	0
 1434 0066 03       		.uleb128 0x3
 1435 0067 0E       		.uleb128 0xe
 1436 0068 3A       		.uleb128 0x3a
 1437 0069 0B       		.uleb128 0xb
 1438 006a 3B       		.uleb128 0x3b
 1439 006b 05       		.uleb128 0x5
 1440 006c 49       		.uleb128 0x49
 1441 006d 13       		.uleb128 0x13
 1442 006e 38       		.uleb128 0x38
 1443 006f 0B       		.uleb128 0xb
 1444 0070 00       		.byte	0
 1445 0071 00       		.byte	0
 1446 0072 09       		.uleb128 0x9
 1447 0073 0F       		.uleb128 0xf
ARM GAS  /tmp/ccDsWh8H.s 			page 34


 1448 0074 00       		.byte	0
 1449 0075 0B       		.uleb128 0xb
 1450 0076 0B       		.uleb128 0xb
 1451 0077 49       		.uleb128 0x49
 1452 0078 13       		.uleb128 0x13
 1453 0079 00       		.byte	0
 1454 007a 00       		.byte	0
 1455 007b 0A       		.uleb128 0xa
 1456 007c 13       		.uleb128 0x13
 1457 007d 01       		.byte	0x1
 1458 007e 03       		.uleb128 0x3
 1459 007f 0E       		.uleb128 0xe
 1460 0080 0B       		.uleb128 0xb
 1461 0081 0B       		.uleb128 0xb
 1462 0082 3A       		.uleb128 0x3a
 1463 0083 0B       		.uleb128 0xb
 1464 0084 3B       		.uleb128 0x3b
 1465 0085 05       		.uleb128 0x5
 1466 0086 01       		.uleb128 0x1
 1467 0087 13       		.uleb128 0x13
 1468 0088 00       		.byte	0
 1469 0089 00       		.byte	0
 1470 008a 0B       		.uleb128 0xb
 1471 008b 15       		.uleb128 0x15
 1472 008c 01       		.byte	0x1
 1473 008d 27       		.uleb128 0x27
 1474 008e 19       		.uleb128 0x19
 1475 008f 01       		.uleb128 0x1
 1476 0090 13       		.uleb128 0x13
 1477 0091 00       		.byte	0
 1478 0092 00       		.byte	0
 1479 0093 0C       		.uleb128 0xc
 1480 0094 05       		.uleb128 0x5
 1481 0095 00       		.byte	0
 1482 0096 49       		.uleb128 0x49
 1483 0097 13       		.uleb128 0x13
 1484 0098 00       		.byte	0
 1485 0099 00       		.byte	0
 1486 009a 0D       		.uleb128 0xd
 1487 009b 0F       		.uleb128 0xf
 1488 009c 00       		.byte	0
 1489 009d 0B       		.uleb128 0xb
 1490 009e 0B       		.uleb128 0xb
 1491 009f 00       		.byte	0
 1492 00a0 00       		.byte	0
 1493 00a1 0E       		.uleb128 0xe
 1494 00a2 13       		.uleb128 0x13
 1495 00a3 01       		.byte	0x1
 1496 00a4 03       		.uleb128 0x3
 1497 00a5 0E       		.uleb128 0xe
 1498 00a6 0B       		.uleb128 0xb
 1499 00a7 05       		.uleb128 0x5
 1500 00a8 3A       		.uleb128 0x3a
 1501 00a9 0B       		.uleb128 0xb
 1502 00aa 3B       		.uleb128 0x3b
 1503 00ab 05       		.uleb128 0x5
 1504 00ac 01       		.uleb128 0x1
ARM GAS  /tmp/ccDsWh8H.s 			page 35


 1505 00ad 13       		.uleb128 0x13
 1506 00ae 00       		.byte	0
 1507 00af 00       		.byte	0
 1508 00b0 0F       		.uleb128 0xf
 1509 00b1 0D       		.uleb128 0xd
 1510 00b2 00       		.byte	0
 1511 00b3 03       		.uleb128 0x3
 1512 00b4 0E       		.uleb128 0xe
 1513 00b5 3A       		.uleb128 0x3a
 1514 00b6 0B       		.uleb128 0xb
 1515 00b7 3B       		.uleb128 0x3b
 1516 00b8 05       		.uleb128 0x5
 1517 00b9 49       		.uleb128 0x49
 1518 00ba 13       		.uleb128 0x13
 1519 00bb 38       		.uleb128 0x38
 1520 00bc 05       		.uleb128 0x5
 1521 00bd 00       		.byte	0
 1522 00be 00       		.byte	0
 1523 00bf 10       		.uleb128 0x10
 1524 00c0 0D       		.uleb128 0xd
 1525 00c1 00       		.byte	0
 1526 00c2 03       		.uleb128 0x3
 1527 00c3 08       		.uleb128 0x8
 1528 00c4 3A       		.uleb128 0x3a
 1529 00c5 0B       		.uleb128 0xb
 1530 00c6 3B       		.uleb128 0x3b
 1531 00c7 05       		.uleb128 0x5
 1532 00c8 49       		.uleb128 0x49
 1533 00c9 13       		.uleb128 0x13
 1534 00ca 38       		.uleb128 0x38
 1535 00cb 05       		.uleb128 0x5
 1536 00cc 00       		.byte	0
 1537 00cd 00       		.byte	0
 1538 00ce 11       		.uleb128 0x11
 1539 00cf 0D       		.uleb128 0xd
 1540 00d0 00       		.byte	0
 1541 00d1 03       		.uleb128 0x3
 1542 00d2 08       		.uleb128 0x8
 1543 00d3 3A       		.uleb128 0x3a
 1544 00d4 0B       		.uleb128 0xb
 1545 00d5 3B       		.uleb128 0x3b
 1546 00d6 0B       		.uleb128 0xb
 1547 00d7 49       		.uleb128 0x49
 1548 00d8 13       		.uleb128 0x13
 1549 00d9 38       		.uleb128 0x38
 1550 00da 0B       		.uleb128 0xb
 1551 00db 00       		.byte	0
 1552 00dc 00       		.byte	0
 1553 00dd 12       		.uleb128 0x12
 1554 00de 13       		.uleb128 0x13
 1555 00df 01       		.byte	0x1
 1556 00e0 0B       		.uleb128 0xb
 1557 00e1 0B       		.uleb128 0xb
 1558 00e2 3A       		.uleb128 0x3a
 1559 00e3 0B       		.uleb128 0xb
 1560 00e4 3B       		.uleb128 0x3b
 1561 00e5 0B       		.uleb128 0xb
ARM GAS  /tmp/ccDsWh8H.s 			page 36


 1562 00e6 01       		.uleb128 0x1
 1563 00e7 13       		.uleb128 0x13
 1564 00e8 00       		.byte	0
 1565 00e9 00       		.byte	0
 1566 00ea 13       		.uleb128 0x13
 1567 00eb 13       		.uleb128 0x13
 1568 00ec 01       		.byte	0x1
 1569 00ed 0B       		.uleb128 0xb
 1570 00ee 05       		.uleb128 0x5
 1571 00ef 3A       		.uleb128 0x3a
 1572 00f0 0B       		.uleb128 0xb
 1573 00f1 3B       		.uleb128 0x3b
 1574 00f2 0B       		.uleb128 0xb
 1575 00f3 01       		.uleb128 0x1
 1576 00f4 13       		.uleb128 0x13
 1577 00f5 00       		.byte	0
 1578 00f6 00       		.byte	0
 1579 00f7 14       		.uleb128 0x14
 1580 00f8 01       		.uleb128 0x1
 1581 00f9 01       		.byte	0x1
 1582 00fa 49       		.uleb128 0x49
 1583 00fb 13       		.uleb128 0x13
 1584 00fc 01       		.uleb128 0x1
 1585 00fd 13       		.uleb128 0x13
 1586 00fe 00       		.byte	0
 1587 00ff 00       		.byte	0
 1588 0100 15       		.uleb128 0x15
 1589 0101 21       		.uleb128 0x21
 1590 0102 00       		.byte	0
 1591 0103 49       		.uleb128 0x49
 1592 0104 13       		.uleb128 0x13
 1593 0105 2F       		.uleb128 0x2f
 1594 0106 0B       		.uleb128 0xb
 1595 0107 00       		.byte	0
 1596 0108 00       		.byte	0
 1597 0109 16       		.uleb128 0x16
 1598 010a 17       		.uleb128 0x17
 1599 010b 01       		.byte	0x1
 1600 010c 0B       		.uleb128 0xb
 1601 010d 0B       		.uleb128 0xb
 1602 010e 3A       		.uleb128 0x3a
 1603 010f 0B       		.uleb128 0xb
 1604 0110 3B       		.uleb128 0x3b
 1605 0111 0B       		.uleb128 0xb
 1606 0112 01       		.uleb128 0x1
 1607 0113 13       		.uleb128 0x13
 1608 0114 00       		.byte	0
 1609 0115 00       		.byte	0
 1610 0116 17       		.uleb128 0x17
 1611 0117 0D       		.uleb128 0xd
 1612 0118 00       		.byte	0
 1613 0119 03       		.uleb128 0x3
 1614 011a 0E       		.uleb128 0xe
 1615 011b 3A       		.uleb128 0x3a
 1616 011c 0B       		.uleb128 0xb
 1617 011d 3B       		.uleb128 0x3b
 1618 011e 05       		.uleb128 0x5
ARM GAS  /tmp/ccDsWh8H.s 			page 37


 1619 011f 49       		.uleb128 0x49
 1620 0120 13       		.uleb128 0x13
 1621 0121 00       		.byte	0
 1622 0122 00       		.byte	0
 1623 0123 18       		.uleb128 0x18
 1624 0124 26       		.uleb128 0x26
 1625 0125 00       		.byte	0
 1626 0126 49       		.uleb128 0x49
 1627 0127 13       		.uleb128 0x13
 1628 0128 00       		.byte	0
 1629 0129 00       		.byte	0
 1630 012a 19       		.uleb128 0x19
 1631 012b 35       		.uleb128 0x35
 1632 012c 00       		.byte	0
 1633 012d 49       		.uleb128 0x49
 1634 012e 13       		.uleb128 0x13
 1635 012f 00       		.byte	0
 1636 0130 00       		.byte	0
 1637 0131 1A       		.uleb128 0x1a
 1638 0132 16       		.uleb128 0x16
 1639 0133 00       		.byte	0
 1640 0134 03       		.uleb128 0x3
 1641 0135 0E       		.uleb128 0xe
 1642 0136 3A       		.uleb128 0x3a
 1643 0137 0B       		.uleb128 0xb
 1644 0138 3B       		.uleb128 0x3b
 1645 0139 05       		.uleb128 0x5
 1646 013a 49       		.uleb128 0x49
 1647 013b 13       		.uleb128 0x13
 1648 013c 00       		.byte	0
 1649 013d 00       		.byte	0
 1650 013e 1B       		.uleb128 0x1b
 1651 013f 13       		.uleb128 0x13
 1652 0140 01       		.byte	0x1
 1653 0141 0B       		.uleb128 0xb
 1654 0142 0B       		.uleb128 0xb
 1655 0143 3A       		.uleb128 0x3a
 1656 0144 0B       		.uleb128 0xb
 1657 0145 3B       		.uleb128 0x3b
 1658 0146 05       		.uleb128 0x5
 1659 0147 01       		.uleb128 0x1
 1660 0148 13       		.uleb128 0x13
 1661 0149 00       		.byte	0
 1662 014a 00       		.byte	0
 1663 014b 1C       		.uleb128 0x1c
 1664 014c 2E       		.uleb128 0x2e
 1665 014d 00       		.byte	0
 1666 014e 03       		.uleb128 0x3
 1667 014f 0E       		.uleb128 0xe
 1668 0150 3A       		.uleb128 0x3a
 1669 0151 0B       		.uleb128 0xb
 1670 0152 3B       		.uleb128 0x3b
 1671 0153 05       		.uleb128 0x5
 1672 0154 27       		.uleb128 0x27
 1673 0155 19       		.uleb128 0x19
 1674 0156 11       		.uleb128 0x11
 1675 0157 01       		.uleb128 0x1
ARM GAS  /tmp/ccDsWh8H.s 			page 38


 1676 0158 12       		.uleb128 0x12
 1677 0159 06       		.uleb128 0x6
 1678 015a 40       		.uleb128 0x40
 1679 015b 18       		.uleb128 0x18
 1680 015c 9742     		.uleb128 0x2117
 1681 015e 19       		.uleb128 0x19
 1682 015f 00       		.byte	0
 1683 0160 00       		.byte	0
 1684 0161 1D       		.uleb128 0x1d
 1685 0162 2E       		.uleb128 0x2e
 1686 0163 00       		.byte	0
 1687 0164 3F       		.uleb128 0x3f
 1688 0165 19       		.uleb128 0x19
 1689 0166 03       		.uleb128 0x3
 1690 0167 0E       		.uleb128 0xe
 1691 0168 3A       		.uleb128 0x3a
 1692 0169 0B       		.uleb128 0xb
 1693 016a 3B       		.uleb128 0x3b
 1694 016b 0B       		.uleb128 0xb
 1695 016c 27       		.uleb128 0x27
 1696 016d 19       		.uleb128 0x19
 1697 016e 11       		.uleb128 0x11
 1698 016f 01       		.uleb128 0x1
 1699 0170 12       		.uleb128 0x12
 1700 0171 06       		.uleb128 0x6
 1701 0172 40       		.uleb128 0x40
 1702 0173 18       		.uleb128 0x18
 1703 0174 9642     		.uleb128 0x2116
 1704 0176 19       		.uleb128 0x19
 1705 0177 00       		.byte	0
 1706 0178 00       		.byte	0
 1707 0179 1E       		.uleb128 0x1e
 1708 017a 34       		.uleb128 0x34
 1709 017b 00       		.byte	0
 1710 017c 03       		.uleb128 0x3
 1711 017d 0E       		.uleb128 0xe
 1712 017e 3A       		.uleb128 0x3a
 1713 017f 0B       		.uleb128 0xb
 1714 0180 3B       		.uleb128 0x3b
 1715 0181 05       		.uleb128 0x5
 1716 0182 49       		.uleb128 0x49
 1717 0183 13       		.uleb128 0x13
 1718 0184 3F       		.uleb128 0x3f
 1719 0185 19       		.uleb128 0x19
 1720 0186 3C       		.uleb128 0x3c
 1721 0187 19       		.uleb128 0x19
 1722 0188 00       		.byte	0
 1723 0189 00       		.byte	0
 1724 018a 1F       		.uleb128 0x1f
 1725 018b 34       		.uleb128 0x34
 1726 018c 00       		.byte	0
 1727 018d 03       		.uleb128 0x3
 1728 018e 08       		.uleb128 0x8
 1729 018f 3A       		.uleb128 0x3a
 1730 0190 0B       		.uleb128 0xb
 1731 0191 3B       		.uleb128 0x3b
 1732 0192 05       		.uleb128 0x5
ARM GAS  /tmp/ccDsWh8H.s 			page 39


 1733 0193 49       		.uleb128 0x49
 1734 0194 13       		.uleb128 0x13
 1735 0195 3F       		.uleb128 0x3f
 1736 0196 19       		.uleb128 0x19
 1737 0197 3C       		.uleb128 0x3c
 1738 0198 19       		.uleb128 0x19
 1739 0199 00       		.byte	0
 1740 019a 00       		.byte	0
 1741 019b 00       		.byte	0
 1742              		.section	.debug_aranges,"",%progbits
 1743 0000 24000000 		.4byte	0x24
 1744 0004 0200     		.2byte	0x2
 1745 0006 00000000 		.4byte	.Ldebug_info0
 1746 000a 04       		.byte	0x4
 1747 000b 00       		.byte	0
 1748 000c 0000     		.2byte	0
 1749 000e 0000     		.2byte	0
 1750 0010 00000000 		.4byte	.LFB241
 1751 0014 02000000 		.4byte	.LFE241-.LFB241
 1752 0018 00000000 		.4byte	.LFB272
 1753 001c 28000000 		.4byte	.LFE272-.LFB272
 1754 0020 00000000 		.4byte	0
 1755 0024 00000000 		.4byte	0
 1756              		.section	.debug_ranges,"",%progbits
 1757              	.Ldebug_ranges0:
 1758 0000 00000000 		.4byte	.LFB241
 1759 0004 02000000 		.4byte	.LFE241
 1760 0008 00000000 		.4byte	.LFB272
 1761 000c 28000000 		.4byte	.LFE272
 1762 0010 00000000 		.4byte	0
 1763 0014 00000000 		.4byte	0
 1764              		.section	.debug_line,"",%progbits
 1765              	.Ldebug_line0:
 1766 0000 27020000 		.section	.debug_str,"MS",%progbits,1
 1766      0200F301 
 1766      00000201 
 1766      FB0E0D00 
 1766      01010101 
 1767              	.LASF135:
 1768 0000 73746D33 		.ascii	"stm32_gpio_setup_t\000"
 1768      325F6770 
 1768      696F5F73 
 1768      65747570 
 1768      5F7400
 1769              	.LASF97:
 1770 0013 74625F70 		.ascii	"tb_ptr\000"
 1770      747200
 1771              	.LASF54:
 1772 001a 72656164 		.ascii	"ready_list_t\000"
 1772      795F6C69 
 1772      73745F74 
 1772      00
 1773              	.LASF91:
 1774 0027 73655F74 		.ascii	"se_time\000"
 1774      696D6500 
 1775              	.LASF115:
 1776 002f 77747472 		.ascii	"wttrp\000"
ARM GAS  /tmp/ccDsWh8H.s 			page 40


 1776      7000
 1777              	.LASF112:
 1778 0035 7264796D 		.ascii	"rdymsg\000"
 1778      736700
 1779              	.LASF16:
 1780 003c 75696E74 		.ascii	"uint64_t\000"
 1780      36345F74 
 1780      00
 1781              	.LASF84:
 1782 0045 6B65726E 		.ascii	"kernel_stats\000"
 1782      656C5F73 
 1782      74617473 
 1782      00
 1783              	.LASF5:
 1784 0052 5F5F7569 		.ascii	"__uint8_t\000"
 1784      6E74385F 
 1784      7400
 1785              	.LASF90:
 1786 005c 706F7274 		.ascii	"port_intctx\000"
 1786      5F696E74 
 1786      63747800 
 1787              	.LASF53:
 1788 0068 63685F74 		.ascii	"ch_threads_queue\000"
 1788      68726561 
 1788      64735F71 
 1788      75657565 
 1788      00
 1789              	.LASF73:
 1790 0079 73797374 		.ascii	"system_debug_t\000"
 1790      656D5F64 
 1790      65627567 
 1790      5F7400
 1791              	.LASF103:
 1792 0088 776F7273 		.ascii	"worst\000"
 1792      7400
 1793              	.LASF143:
 1794 008e 50484461 		.ascii	"PHData\000"
 1794      746100
 1795              	.LASF106:
 1796 0095 74696D65 		.ascii	"time_measurement_t\000"
 1796      5F6D6561 
 1796      73757265 
 1796      6D656E74 
 1796      5F7400
 1797              	.LASF12:
 1798 00a8 6C6F6E67 		.ascii	"long long unsigned int\000"
 1798      206C6F6E 
 1798      6720756E 
 1798      7369676E 
 1798      65642069 
 1799              	.LASF99:
 1800 00bf 63685F74 		.ascii	"ch_trace_buffer_t\000"
 1800      72616365 
 1800      5F627566 
 1800      6665725F 
 1800      7400
 1801              	.LASF94:
ARM GAS  /tmp/ccDsWh8H.s 			page 41


 1802 00d1 73655F73 		.ascii	"se_state\000"
 1802      74617465 
 1802      00
 1803              	.LASF132:
 1804 00da 70757064 		.ascii	"pupdr\000"
 1804      7200
 1805              	.LASF113:
 1806 00e0 65786974 		.ascii	"exitcode\000"
 1806      636F6465 
 1806      00
 1807              	.LASF83:
 1808 00e9 6D61696E 		.ascii	"mainthread\000"
 1808      74687265 
 1808      616400
 1809              	.LASF70:
 1810 00f4 76697274 		.ascii	"virtual_timers_list_t\000"
 1810      75616C5F 
 1810      74696D65 
 1810      72735F6C 
 1810      6973745F 
 1811              	.LASF146:
 1812 010a 49544D5F 		.ascii	"ITM_RxBuffer\000"
 1812      52784275 
 1812      66666572 
 1812      00
 1813              	.LASF18:
 1814 0117 72747469 		.ascii	"rttime_t\000"
 1814      6D655F74 
 1814      00
 1815              	.LASF31:
 1816 0120 705F7072 		.ascii	"p_prio\000"
 1816      696F00
 1817              	.LASF10:
 1818 0127 6C6F6E67 		.ascii	"long long int\000"
 1818      206C6F6E 
 1818      6720696E 
 1818      7400
 1819              	.LASF1:
 1820 0135 7369676E 		.ascii	"signed char\000"
 1820      65642063 
 1820      68617200 
 1821              	.LASF46:
 1822 0141 705F6D70 		.ascii	"p_mpool\000"
 1822      6F6F6C00 
 1823              	.LASF123:
 1824 0149 6D5F7175 		.ascii	"m_queue\000"
 1824      65756500 
 1825              	.LASF129:
 1826 0151 6D6F6465 		.ascii	"moder\000"
 1826      7200
 1827              	.LASF80:
 1828 0157 63685F73 		.ascii	"ch_system\000"
 1828      79737465 
 1828      6D00
 1829              	.LASF7:
 1830 0161 6C6F6E67 		.ascii	"long int\000"
 1830      20696E74 
ARM GAS  /tmp/ccDsWh8H.s 			page 42


 1830      00
 1831              	.LASF140:
 1832 016a 50454461 		.ascii	"PEData\000"
 1832      746100
 1833              	.LASF20:
 1834 0171 74737461 		.ascii	"tstate_t\000"
 1834      74655F74 
 1834      00
 1835              	.LASF92:
 1836 017a 73655F74 		.ascii	"se_tp\000"
 1836      7000
 1837              	.LASF33:
 1838 0180 705F6E65 		.ascii	"p_newer\000"
 1838      77657200 
 1839              	.LASF120:
 1840 0188 735F7175 		.ascii	"s_queue\000"
 1840      65756500 
 1841              	.LASF96:
 1842 0190 74625F73 		.ascii	"tb_size\000"
 1842      697A6500 
 1843              	.LASF59:
 1844 0198 725F6E65 		.ascii	"r_newer\000"
 1844      77657200 
 1845              	.LASF87:
 1846 01a0 72656761 		.ascii	"regarm_t\000"
 1846      726D5F74 
 1846      00
 1847              	.LASF66:
 1848 01a9 76745F70 		.ascii	"vt_prev\000"
 1848      72657600 
 1849              	.LASF82:
 1850 01b1 76746C69 		.ascii	"vtlist\000"
 1850      737400
 1851              	.LASF74:
 1852 01b8 63685F73 		.ascii	"ch_system_debug\000"
 1852      79737465 
 1852      6D5F6465 
 1852      62756700 
 1853              	.LASF127:
 1854 01c8 6D757465 		.ascii	"mutex_t\000"
 1854      785F7400 
 1855              	.LASF137:
 1856 01d0 50424461 		.ascii	"PBData\000"
 1856      746100
 1857              	.LASF77:
 1858 01d7 6C6F636B 		.ascii	"lock_cnt\000"
 1858      5F636E74 
 1858      00
 1859              	.LASF85:
 1860 01e0 69646C65 		.ascii	"idle_thread_wa\000"
 1860      5F746872 
 1860      6561645F 
 1860      776100
 1861              	.LASF25:
 1862 01ef 636E745F 		.ascii	"cnt_t\000"
 1862      7400
 1863              	.LASF36:
ARM GAS  /tmp/ccDsWh8H.s 			page 43


 1864 01f5 705F7374 		.ascii	"p_stklimit\000"
 1864      6B6C696D 
 1864      697400
 1865              	.LASF0:
 1866 0200 756E7369 		.ascii	"unsigned int\000"
 1866      676E6564 
 1866      20696E74 
 1866      00
 1867              	.LASF65:
 1868 020d 76745F6E 		.ascii	"vt_next\000"
 1868      65787400 
 1869              	.LASF116:
 1870 0215 77747365 		.ascii	"wtsemp\000"
 1870      6D7000
 1871              	.LASF41:
 1872 021c 705F6D73 		.ascii	"p_msgqueue\000"
 1872      67717565 
 1872      756500
 1873              	.LASF152:
 1874 0227 68616C49 		.ascii	"halInit\000"
 1874      6E697400 
 1875              	.LASF131:
 1876 022f 6F737065 		.ascii	"ospeedr\000"
 1876      65647200 
 1877              	.LASF107:
 1878 0237 6E5F6972 		.ascii	"n_irq\000"
 1878      7100
 1879              	.LASF93:
 1880 023d 73655F77 		.ascii	"se_wtobjp\000"
 1880      746F626A 
 1880      7000
 1881              	.LASF130:
 1882 0247 6F747970 		.ascii	"otyper\000"
 1882      657200
 1883              	.LASF4:
 1884 024e 73686F72 		.ascii	"short unsigned int\000"
 1884      7420756E 
 1884      7369676E 
 1884      65642069 
 1884      6E7400
 1885              	.LASF111:
 1886 0261 6B65726E 		.ascii	"kernel_stats_t\000"
 1886      656C5F73 
 1886      74617473 
 1886      5F7400
 1887              	.LASF50:
 1888 0270 63685F74 		.ascii	"ch_thread\000"
 1888      68726561 
 1888      6400
 1889              	.LASF23:
 1890 027a 6D73675F 		.ascii	"msg_t\000"
 1890      7400
 1891              	.LASF104:
 1892 0280 6C617374 		.ascii	"last\000"
 1892      00
 1893              	.LASF150:
 1894 0285 2F686F6D 		.ascii	"/home/jerker/chibios/ChibiOS_16.1.4/testhal/STM32/S"
ARM GAS  /tmp/ccDsWh8H.s 			page 44


 1894      652F6A65 
 1894      726B6572 
 1894      2F636869 
 1894      62696F73 
 1895 02b8 544D3332 		.ascii	"TM32F4xx/USB_CDC\000"
 1895      46347878 
 1895      2F555342 
 1895      5F434443 
 1895      00
 1896              	.LASF26:
 1897 02c9 75636E74 		.ascii	"ucnt_t\000"
 1897      5F7400
 1898              	.LASF149:
 1899 02d0 2E2E2F2E 		.ascii	"../../../../os/hal/src/hal.c\000"
 1899      2E2F2E2E 
 1899      2F2E2E2F 
 1899      6F732F68 
 1899      616C2F73 
 1900              	.LASF79:
 1901 02ed 63685F73 		.ascii	"ch_system_t\000"
 1901      79737465 
 1901      6D5F7400 
 1902              	.LASF148:
 1903 02f9 474E5520 		.ascii	"GNU C 4.8.2 -mcpu=cortex-m4 -mno-thumb-interwork -m"
 1903      4320342E 
 1903      382E3220 
 1903      2D6D6370 
 1903      753D636F 
 1904 032c 7468756D 		.ascii	"thumb -ggdb -O0 -fomit-frame-pointer -falign-functi"
 1904      62202D67 
 1904      67646220 
 1904      2D4F3020 
 1904      2D666F6D 
 1905 035f 6F6E733D 		.ascii	"ons=16 -ffunction-sections -fdata-sections -fno-com"
 1905      3136202D 
 1905      6666756E 
 1905      6374696F 
 1905      6E2D7365 
 1906 0392 6D6F6E20 		.ascii	"mon -flto\000"
 1906      2D666C74 
 1906      6F00
 1907              	.LASF19:
 1908 039c 746D6F64 		.ascii	"tmode_t\000"
 1908      655F7400 
 1909              	.LASF110:
 1910 03a4 6D5F6372 		.ascii	"m_crit_isr\000"
 1910      69745F69 
 1910      737200
 1911              	.LASF55:
 1912 03af 63685F72 		.ascii	"ch_ready_list\000"
 1912      65616479 
 1912      5F6C6973 
 1912      7400
 1913              	.LASF24:
 1914 03bd 6576656E 		.ascii	"eventmask_t\000"
 1914      746D6173 
 1914      6B5F7400 
ARM GAS  /tmp/ccDsWh8H.s 			page 45


 1915              	.LASF6:
 1916 03c9 5F5F696E 		.ascii	"__int32_t\000"
 1916      7433325F 
 1916      7400
 1917              	.LASF142:
 1918 03d3 50474461 		.ascii	"PGData\000"
 1918      746100
 1919              	.LASF88:
 1920 03da 73746B61 		.ascii	"stkalign_t\000"
 1920      6C69676E 
 1920      5F7400
 1921              	.LASF40:
 1922 03e5 705F7761 		.ascii	"p_waiting\000"
 1922      6974696E 
 1922      6700
 1923              	.LASF86:
 1924 03ef 73697A65 		.ascii	"sizetype\000"
 1924      74797065 
 1924      00
 1925              	.LASF48:
 1926 03f8 74687265 		.ascii	"thread_reference_t\000"
 1926      61645F72 
 1926      65666572 
 1926      656E6365 
 1926      5F7400
 1927              	.LASF71:
 1928 040b 63685F76 		.ascii	"ch_virtual_timers_list\000"
 1928      69727475 
 1928      616C5F74 
 1928      696D6572 
 1928      735F6C69 
 1929              	.LASF95:
 1930 0422 63685F73 		.ascii	"ch_swc_event_t\000"
 1930      77635F65 
 1930      76656E74 
 1930      5F7400
 1931              	.LASF72:
 1932 0431 76745F6C 		.ascii	"vt_lasttime\000"
 1932      61737474 
 1932      696D6500 
 1933              	.LASF34:
 1934 043d 705F6F6C 		.ascii	"p_older\000"
 1934      64657200 
 1935              	.LASF58:
 1936 0445 725F6374 		.ascii	"r_ctx\000"
 1936      7800
 1937              	.LASF101:
 1938 044b 746D5F63 		.ascii	"tm_calibration_t\000"
 1938      616C6962 
 1938      72617469 
 1938      6F6E5F74 
 1938      00
 1939              	.LASF134:
 1940 045c 61667268 		.ascii	"afrh\000"
 1940      00
 1941              	.LASF139:
 1942 0461 50444461 		.ascii	"PDData\000"
ARM GAS  /tmp/ccDsWh8H.s 			page 46


 1942      746100
 1943              	.LASF61:
 1944 0468 725F6375 		.ascii	"r_current\000"
 1944      7272656E 
 1944      7400
 1945              	.LASF60:
 1946 0472 725F6F6C 		.ascii	"r_older\000"
 1946      64657200 
 1947              	.LASF11:
 1948 047a 5F5F7569 		.ascii	"__uint64_t\000"
 1948      6E743634 
 1948      5F7400
 1949              	.LASF105:
 1950 0485 63756D75 		.ascii	"cumulative\000"
 1950      6C617469 
 1950      766500
 1951              	.LASF21:
 1952 0490 74726566 		.ascii	"trefs_t\000"
 1952      735F7400 
 1953              	.LASF98:
 1954 0498 74625F62 		.ascii	"tb_buffer\000"
 1954      75666665 
 1954      7200
 1955              	.LASF63:
 1956 04a2 76697274 		.ascii	"virtual_timer_t\000"
 1956      75616C5F 
 1956      74696D65 
 1956      725F7400 
 1957              	.LASF30:
 1958 04b2 705F7072 		.ascii	"p_prev\000"
 1958      657600
 1959              	.LASF151:
 1960 04b9 6F73616C 		.ascii	"osalInit\000"
 1960      496E6974 
 1960      00
 1961              	.LASF22:
 1962 04c2 74707269 		.ascii	"tprio_t\000"
 1962      6F5F7400 
 1963              	.LASF108:
 1964 04ca 6E5F6374 		.ascii	"n_ctxswc\000"
 1964      78737763 
 1964      00
 1965              	.LASF128:
 1966 04d3 5F426F6F 		.ascii	"_Bool\000"
 1966      6C00
 1967              	.LASF14:
 1968 04d9 696E7433 		.ascii	"int32_t\000"
 1968      325F7400 
 1969              	.LASF2:
 1970 04e1 756E7369 		.ascii	"unsigned char\000"
 1970      676E6564 
 1970      20636861 
 1970      7200
 1971              	.LASF133:
 1972 04ef 6166726C 		.ascii	"afrl\000"
 1972      00
 1973              	.LASF121:
ARM GAS  /tmp/ccDsWh8H.s 			page 47


 1974 04f4 735F636E 		.ascii	"s_cnt\000"
 1974      7400
 1975              	.LASF44:
 1976 04fa 705F6D74 		.ascii	"p_mtxlist\000"
 1976      786C6973 
 1976      7400
 1977              	.LASF3:
 1978 0504 73686F72 		.ascii	"short int\000"
 1978      7420696E 
 1978      7400
 1979              	.LASF37:
 1980 050e 705F7374 		.ascii	"p_state\000"
 1980      61746500 
 1981              	.LASF57:
 1982 0516 725F7072 		.ascii	"r_prio\000"
 1982      696F00
 1983              	.LASF136:
 1984 051d 50414461 		.ascii	"PAData\000"
 1984      746100
 1985              	.LASF118:
 1986 0524 65776D61 		.ascii	"ewmask\000"
 1986      736B00
 1987              	.LASF29:
 1988 052b 705F6E65 		.ascii	"p_next\000"
 1988      787400
 1989              	.LASF38:
 1990 0532 705F666C 		.ascii	"p_flags\000"
 1990      61677300 
 1991              	.LASF47:
 1992 053a 705F7374 		.ascii	"p_stats\000"
 1992      61747300 
 1993              	.LASF144:
 1994 0542 50494461 		.ascii	"PIData\000"
 1994      746100
 1995              	.LASF64:
 1996 0549 63685F76 		.ascii	"ch_virtual_timer\000"
 1996      69727475 
 1996      616C5F74 
 1996      696D6572 
 1996      00
 1997              	.LASF119:
 1998 055a 63685F73 		.ascii	"ch_semaphore\000"
 1998      656D6170 
 1998      686F7265 
 1998      00
 1999              	.LASF43:
 2000 0567 705F6570 		.ascii	"p_epending\000"
 2000      656E6469 
 2000      6E6700
 2001              	.LASF15:
 2002 0572 75696E74 		.ascii	"uint32_t\000"
 2002      33325F74 
 2002      00
 2003              	.LASF117:
 2004 057b 77746D74 		.ascii	"wtmtxp\000"
 2004      787000
 2005              	.LASF56:
ARM GAS  /tmp/ccDsWh8H.s 			page 48


 2006 0582 725F7175 		.ascii	"r_queue\000"
 2006      65756500 
 2007              	.LASF67:
 2008 058a 76745F64 		.ascii	"vt_delta\000"
 2008      656C7461 
 2008      00
 2009              	.LASF51:
 2010 0593 63685F74 		.ascii	"ch_threads_list\000"
 2010      68726561 
 2010      64735F6C 
 2010      69737400 
 2011              	.LASF9:
 2012 05a3 6C6F6E67 		.ascii	"long unsigned int\000"
 2012      20756E73 
 2012      69676E65 
 2012      6420696E 
 2012      7400
 2013              	.LASF126:
 2014 05b5 63686172 		.ascii	"char\000"
 2014      00
 2015              	.LASF28:
 2016 05ba 74687265 		.ascii	"thread_t\000"
 2016      61645F74 
 2016      00
 2017              	.LASF102:
 2018 05c3 62657374 		.ascii	"best\000"
 2018      00
 2019              	.LASF125:
 2020 05c8 6D5F6E65 		.ascii	"m_next\000"
 2020      787400
 2021              	.LASF27:
 2022 05cf 73797374 		.ascii	"systime_t\000"
 2022      696D655F 
 2022      7400
 2023              	.LASF45:
 2024 05d9 705F7265 		.ascii	"p_realprio\000"
 2024      616C7072 
 2024      696F00
 2025              	.LASF62:
 2026 05e4 76746675 		.ascii	"vtfunc_t\000"
 2026      6E635F74 
 2026      00
 2027              	.LASF8:
 2028 05ed 5F5F7569 		.ascii	"__uint32_t\000"
 2028      6E743332 
 2028      5F7400
 2029              	.LASF75:
 2030 05f8 70616E69 		.ascii	"panic_msg\000"
 2030      635F6D73 
 2030      6700
 2031              	.LASF100:
 2032 0602 6F666673 		.ascii	"offset\000"
 2032      657400
 2033              	.LASF89:
 2034 0609 636F6E74 		.ascii	"context\000"
 2034      65787400 
 2035              	.LASF17:
ARM GAS  /tmp/ccDsWh8H.s 			page 49


 2036 0611 7274636E 		.ascii	"rtcnt_t\000"
 2036      745F7400 
 2037              	.LASF69:
 2038 0619 76745F70 		.ascii	"vt_par\000"
 2038      617200
 2039              	.LASF145:
 2040 0620 50414C43 		.ascii	"PALConfig\000"
 2040      6F6E6669 
 2040      6700
 2041              	.LASF52:
 2042 062a 74687265 		.ascii	"threads_queue_t\000"
 2042      6164735F 
 2042      71756575 
 2042      655F7400 
 2043              	.LASF122:
 2044 063a 63685F6D 		.ascii	"ch_mutex\000"
 2044      75746578 
 2044      00
 2045              	.LASF39:
 2046 0643 705F7265 		.ascii	"p_refs\000"
 2046      667300
 2047              	.LASF76:
 2048 064a 6973725F 		.ascii	"isr_cnt\000"
 2048      636E7400 
 2049              	.LASF81:
 2050 0652 726C6973 		.ascii	"rlist\000"
 2050      7400
 2051              	.LASF13:
 2052 0658 75696E74 		.ascii	"uint8_t\000"
 2052      385F7400 
 2053              	.LASF114:
 2054 0660 77746F62 		.ascii	"wtobjp\000"
 2054      6A7000
 2055              	.LASF35:
 2056 0667 705F6E61 		.ascii	"p_name\000"
 2056      6D6500
 2057              	.LASF138:
 2058 066e 50434461 		.ascii	"PCData\000"
 2058      746100
 2059              	.LASF49:
 2060 0675 74687265 		.ascii	"threads_list_t\000"
 2060      6164735F 
 2060      6C697374 
 2060      5F7400
 2061              	.LASF78:
 2062 0684 74726163 		.ascii	"trace_buffer\000"
 2062      655F6275 
 2062      66666572 
 2062      00
 2063              	.LASF42:
 2064 0691 705F6D73 		.ascii	"p_msg\000"
 2064      6700
 2065              	.LASF141:
 2066 0697 50464461 		.ascii	"PFData\000"
 2066      746100
 2067              	.LASF109:
 2068 069e 6D5F6372 		.ascii	"m_crit_thd\000"
ARM GAS  /tmp/ccDsWh8H.s 			page 50


 2068      69745F74 
 2068      686400
 2069              	.LASF124:
 2070 06a9 6D5F6F77 		.ascii	"m_owner\000"
 2070      6E657200 
 2071              	.LASF147:
 2072 06b1 70616C5F 		.ascii	"pal_default_config\000"
 2072      64656661 
 2072      756C745F 
 2072      636F6E66 
 2072      696700
 2073              	.LASF32:
 2074 06c4 705F6374 		.ascii	"p_ctx\000"
 2074      7800
 2075              	.LASF68:
 2076 06ca 76745F66 		.ascii	"vt_func\000"
 2076      756E6300 
 2077              		.comm	__gnu_lto_v1,1,1
 2078              		.ident	"GCC: (4.8.2-14ubuntu1+6) 4.8.2"
ARM GAS  /tmp/ccDsWh8H.s 			page 51


DEFINED SYMBOLS
                            *ABS*:0000000000000000 hal.c
     /tmp/ccDsWh8H.s:153    .text.osalInit:0000000000000000 $t
     /tmp/ccDsWh8H.s:158    .text.osalInit:0000000000000000 osalInit
     /tmp/ccDsWh8H.s:172    .text.halInit:0000000000000000 $t
     /tmp/ccDsWh8H.s:178    .text.halInit:0000000000000000 halInit
                            *COM*:0000000000000001 __gnu_lto_v1
                     .debug_frame:0000000000000010 $d

UNDEFINED SYMBOLS
hal_lld_init
pal_default_config
_pal_lld_init
usbInit
sduInit
boardInit
stInit
