ARM GAS  /tmp/cciKhLR3.s 			page 1


   1              		.syntax unified
   2              		.cpu cortex-m4
   3              		.fpu softvfp
   4              		.eabi_attribute 20, 1
   5              		.eabi_attribute 21, 1
   6              		.eabi_attribute 23, 3
   7              		.eabi_attribute 24, 1
   8              		.eabi_attribute 25, 1
   9              		.eabi_attribute 26, 1
  10              		.eabi_attribute 30, 6
  11              		.eabi_attribute 34, 1
  12              		.eabi_attribute 18, 4
  13              		.thumb
  14              		.file	"hal_lld.c"
  15              		.text
  16              	.Ltext0:
  17              		.section	.gnu.lto_.inline.5bc5f9b46db4b176,"",%progbits
  18 0000 789C6362 		.ascii	"x\234cb`b\300\006\234\24143\003\003?\037\003\003\223"
  18      6062C006 
  18      9CA13433 
  18      03033F1F 
  18      030393
  19 0013 D4835B8C 		.ascii	"\324\203[\214\014,\020\305\214\014\"2@!\245\0053\231"
  19      0C2C10C5 
  19      8C0C2232 
  19      4021A505 
  19      3399
  20 0025 E0425C40 		.ascii	"\340B\\@\202\211\341\020\303A\020\335\300x\341;;L\212"
  20      8289E110 
  20      C34110DD 
  20      C078E13B 
  20      3B4C8A
  21 0038 010002B0 		.ascii	"\001\000\002\260\007\302"
  21      07C2
  22              		.text
  23              		.section	.gnu.lto_hal_lld_backup_domain_init.5bc5f9b46db4b176,"",%progbits
  24 0000 789CDD54 		.ascii	"x\234\335T=h\024Q\020\236yow\357\366~\324V\020\014\332"
  24      3D681451 
  24      109E796F 
  24      77EFF67E 
  24      D456100C 
  25 0015 08C22DA7 		.ascii	"\010\302-\247A\004\021\013A\260\020\205\\@mB.B\262p"
  25      4104110B 
  25      41B01085 
  25      5C406D42 
  25      2E42B270 
  26 0029 103116E9 		.ascii	"\0201\026\351\362690\010J\320B\320\302\244\020$\205"
  26      F2363930 
  26      084AD042 
  26      D0C2A410 
  26      2485
  27 003b 82D589CD 		.ascii	"\202\325\211\315bu WX\010V\307\011\012\026)\016\253"
  27      62752057 
  27      580856C7 
  27      090A1629 
  27      0EAB
  28 004d 4034CF99 		.ascii	"@4\317\231]\337\336rw\301DH\343\300~\273\217\231\371"
ARM GAS  /tmp/cciKhLR3.s 			page 2


  28      5DDFDE72 
  28      77C14448 
  28      E3C07EBB 
  28      8F99F9
  29 0060 DE37F366 		.ascii	"\3367\363f\237\000\001\375v\202\036\327\0018\317\013"
  29      9F0001FD 
  29      76821ED7 
  29      0138CF0B 
  30 0070 1B902250 		.ascii	"\033\220\"P\010\011\240\204E`I\244\027Z\210\344FX\020"
  30      0809A084 
  30      456049A4 
  30      175A88E4 
  30      465810
  31 0083 D2C2851B 		.ascii	"\322\302\205\033\274\200\3421XS\352Q\347E\373\301\341"
  31      BC80E231 
  31      5853EA51 
  31      E745FBC1 
  31      E1
  32 0094 FBAB8B2B 		.ascii	"\373\253\213+j[k\364\3315\205p\235\276p$z1O\332\342"
  32      6A5B6BF4 
  32      D9358570 
  32      9DBE7024 
  32      7A314FDA 
  33 00a9 34F5E6A5 		.ascii	"4\365\346\245rW\325O\255\345\277\345\310\375\313\011"
  33      7257D54F 
  33      ADE5BFE5 
  33      C8FDCB09 
  34 00b9 37BF5D6B 		.ascii	"7\277]k\252z\250\365\005\237\313\3377m\237\276\366\366"
  34      AA7AA8F5 
  34      059FCBDF 
  34      376D9FBE 
  34      F6F6
  35 00cb D9ADB65F 		.ascii	"\331\255\266__\232kH\271AW\353\203\273\226\027n\357"
  35      5F9A6B48 
  35      B94157EB 
  35      83BB9617 
  35      6EEF
  36 00dd BDA4F0F1 		.ascii	"\275\244\360\361\275\207\377\315\311\276\026aG\353\215"
  36      BD87FFCD 
  36      C9BE1661 
  36      47EB8D
  37 00ec D693F611 		.ascii	"\326\223\366\021<\200@\312\004\203$\220\026\203M`9\374"
  37      3C8040CA 
  37      04832490 
  37      16834D60 
  37      39FC
  38 00fe 9561C8F2 		.ascii	"\225a\310\362\322e\310q\\\236\241\300\216\"D\273\321"
  38      D265C871 
  38      5C9EA1C0 
  38      8E2244BB 
  38      D1
  39 010f BF52576A 		.ascii	"\277RWje$\332\227\254\022\3418\377?\262\005\213\215"
  39      6524DA97 
  39      AC12E138 
  39      FF3FB205 
  39      8B8D
  40 0121 46BB3889 		.ascii	"F\2738\211\257\320\206iD\326\003\252\023(\326D\316\263"
ARM GAS  /tmp/cciKhLR3.s 			page 3


  40      AFD08669 
  40      44D603AA 
  40      1328D644 
  40      CEB3
  41 0133 C623FA3C 		.ascii	"\306#\372<\357o\032\217<\011\353\252\036\034\362\321"
  41      EF6F1A8F 
  41      3C09EBAA 
  41      1E1CF2D1 
  42 0143 7E064F29 		.ascii	"~\006O)\3121\321\221U\321\324\325\202\245\267\322dY"
  42      CA31D191 
  42      55D1D4D5 
  42      82A5B7D2 
  42      6459
  43 0155 94C84152 		.ascii	"\224\310AR\211\230\357r\354\031B\206\203d\323<\030\254"
  43      8998EF72 
  43      EC194286 
  43      8364D33C 
  43      18AC
  44 0167 7DF9A821 		.ascii	"}\371\250!\2649\312R\335\345\001\201N\304\211\011e\306"
  44      B439CA52 
  44      DDE50181 
  44      4EC48909 
  44      65C6
  45 0179 04FFA1C4 		.ascii	"\004\377\241\304\236\276wK\353h\322(\314\211\025\322"
  45      9EBE774B 
  45      EB68D228 
  45      CC8915D2 
  46 0189 9D034DA8 		.ascii	"\235\003M\250o\004I\2372\261#}p\343\334\352\250\237"
  46      6F04499F 
  46      32B1237D 
  46      70E3DCEA 
  46      A89F
  47 019b 9F9F174C 		.ascii	"\237\237\027L\\\266_T\243\233I\327\251\312iU\331AU\361"
  47      5CB65F54 
  47      A39B49D7 
  47      A9CA6955 
  47      D94155F1 
  48 01af 3EE6341A 		.ascii	">\3464\032\337\223r\335=1\273\303\231\355\236x\313\014"
  48      DF9372DD 
  48      3D31BBC3 
  48      99ED9E78 
  48      CB0C
  49 01c1 C38F4ED2 		.ascii	"\303\217N\322\201\334\216\323\220\337q\032\012C\016"
  49      81DC8ED3 
  49      90DF711A 
  49      0A430E
  50 01d0 309F3E40 		.ascii	"0\237>@s\257s\267\223i(RbT\252\336\242\253\342o\003"
  50      73AF73B7 
  50      93692852 
  50      6254AADE 
  50      A2ABE26F 
  51 01e5 911BE423 		.ascii	"\221\033\344#\012\200\217\020t>\034\217\323\214U\270"
  51      0A808F10 
  51      743E1C8F 
  51      D38C55B8 
  52 01f5 5C8E3957 		.ascii	"\\\2169W\363\253\336\305\031\277\352_\035\233(\237)"
  52      F3ABDEC5 
ARM GAS  /tmp/cciKhLR3.s 			page 4


  52      19BFEA5F 
  52      1D9B289F 
  52      29
  53 0206 954BA39E 		.ascii	"\225K\243\2367;\347\315L\326\274\333\263w\356\316yc"
  53      373BE7CD 
  53      4CD6BCDB 
  53      B377EECE 
  53      7963
  54 0218 952BA74F 		.ascii	"\225+\247O\305xit~\236=\023\265\332\255\322\024\374"
  54      C5786974 
  54      7E9E3D13 
  54      B5DAADD2 
  54      14FC
  55 022a 06E2AF60 		.ascii	"\006\342\257`O"
  55      4F
  56              		.text
  57              		.section	.gnu.lto_hal_lld_init.5bc5f9b46db4b176,"",%progbits
  58 0000 789CED94 		.ascii	"x\234\355\224Mh\023A\024\307\337\333\331\315W\233\357"
  58      4D681341 
  58      14C7DFDB 
  58      D9CD579B 
  58      EF
  59 0011 562C5E4A 		.ascii	"V,^J\301\223\2205\265\210 xQ\004\005\351\241)\250\227"
  59      C1939035 
  59      B5882078 
  59      510405E9 
  59      A129A897 
  60 0025 9244B00B 		.ascii	"\222D\260\013\201\024+R(\230I\333C\020\017\301\223\325"
  60      81142B52 
  60      289849DB 
  60      43100FC1 
  60      93D5
  61 0037 4BD58345 		.ascii	"K\325\203E\004\321S=\024\212 \236\212\350\311\223D\360"
  61      04D1533D 
  61      148A209E 
  61      8AE8C993 
  61      44F0
  62 0049 E0B17812 		.ascii	"\340\261x\022+\256\363v\263\333MvW\327(\222\203\003"
  62      2BAEF376 
  62      B3DB4D76 
  62      57D72892 
  62      8303
  63 005b F96767E6 		.ascii	"\371gg\346\275\337\314\377\355c%\220\240{\034\020\277"
  63      BDDFCCFF 
  63      ED632590 
  63      A07B1C10 
  63      BF
  64 006c B7318049 		.ascii	"\2671\200I\232\310\200\"\002%dB\031\242XB\250I\014k"
  64      9AC88022 
  64      02256442 
  64      19A25842 
  64      A8490C6B 
  65 0080 17E81946 		.ascii	"\027\350\031F\306\340\036\347\267Z/wo\217\334X[j\362"
  65      C6E01EE7 
  65      B75A2F77 
  65      6F8FDC58 
  65      5B6AF2
ARM GAS  /tmp/cciKhLR3.s 			page 5


  66 0093 EFBA8E1A 		.ascii	"\357\272\216\032m\225\021\316\213'\0345\376$\271\363"
  66      6D9511CE 
  66      8B271C35 
  66      FE24B9F3 
  67 00a3 10338D3F 		.ascii	"\0203\215?[\347\3215\376M\327\231\206L\202\023\370\373"
  67      5BE7D135 
  67      FE4DD799 
  67      864C8213 
  67      F8FB
  68 00b5 69BD1C15 		.ascii	"i\275\034\0250g\353\375\253\233\261f\275\301u\275\326"
  68      3067EBFD 
  68      AB9BB166 
  68      BDC175BD 
  68      D6
  69 00c6 B3A7537D 		.ascii	"\263\247S}\346i\347O=\365T\207\177\224\023\264\010\237"
  69      E669E74F 
  69      3DF55487 
  69      7F9413B4 
  69      089F
  70 00d8 FFC28B3D 		.ascii	"\377\302\213=\333g/\366\313\377\027\333\247~\236H[-"
  70      DB672FF6 
  70      CBFF17DB 
  70      A77E9E48 
  70      5B2D
  71 00ea 5D7FBCF9 		.ascii	"]\177\274\371\361\303*f\366!\210\253IP\304\3738\006"
  71      F1C32A66 
  71      F62188AB 
  71      4950C4FB 
  71      3806
  72 00fc 8C263289 		.ascii	"\214&2\211B\022\022\313\017\305r\230&\021\222(I\214"
  72      421212CB 
  72      0FC57298 
  72      26119228 
  72      498C
  73 010e 6440081B 		.ascii	"d@\010\033$\211\3234A\222\024\361OE|\212&i\222\014I"
  73      2489D334 
  73      419214F1 
  73      4F457C8A 
  73      2669920C 
  74 0123 96648842 		.ascii	"\226d\210B\207\301\270\237\240\257p\336\0345n*F\301"
  74      87C1B89F 
  74      A0AF70DE 
  74      1C356E2A 
  74      46C1
  75 0135 D069FAB6 		.ascii	"\320i\372\266\263mX\332x\267\273\277\210\233\250\300"
  75      B36D58DA 
  75      78B7BBBF 
  75      889BA8C0 
  76 0145 65447200 		.ascii	"eDr\000|\247\301\311\3056\274\270h\355H\207\340\021"
  76      7CA7C1C9 
  76      C536BCB8 
  76      68ED4887 
  76      E011
  77 0157 5FA9A734 		.ascii	"_\251\2474\224\357\302\035\021\245X\321\306(\241\345"
  77      94EFC21D 
  77      11A558D1 
  77      C628A1E5 
ARM GAS  /tmp/cciKhLR3.s 			page 6


  78 0167 57108F59 		.ascii	"W\020\217YI\254\033\327\336\361`17\213V\230.F\262\013"
  78      49AC1BD7 
  78      DEF16031 
  78      378B5698 
  78      2E46B20B 
  79 017b 2BFF0C8B 		.ascii	"+\377\014\213N\252\354M\225\333\027\335\370\264h1\025"
  79      4EAAEC4D 
  79      95DB17DD 
  79      F8B46831 
  79      15
  80 018c 5FE7218F 		.ascii	"_\347!\217\333*N.z8\017\007w\036v\263|\235G\002;\217"
  80      DB2A4E2E 
  80      7A380F07 
  80      771E76B3 
  80      7C9D4702 
  81 01a2 78536DE7 		.ascii	"xSm\347\215\353\0263\332\305\334;-\346[\223\001\017"
  81      8DEB1633 
  81      DAC5DC3B 
  81      2DE65B93 
  81      010F
  82 01b4 1F31E789 		.ascii	"\0371\347\211\222]\223\345\347\314\312\032\024\211\266"
  82      925D93E5 
  82      E7CCCA1A 
  82      1489B6
  83 01c3 B584893C 		.ascii	"\265\204\211<\343[\227\250\233'\020\2357\214\007\256"
  83      E35B97A8 
  83      9B27109D 
  83      378C07AE 
  84 01d3 47DC4DEB 		.ascii	"G\334M\353\250\307\272]\217\204\257\353\244\307-\023"
  84      A8C7BA5D 
  84      8F84AFEB 
  84      A4C72D13 
  85 01e3 4E2EF3E8 		.ascii	"N.\363\350\204T\360NH\271Y\276\235\220\016\354<\355"
  85      8454F04E 
  85      48B959BE 
  85      9D900EEC 
  85      3CED
  86 01f5 4DDDEB84 		.ascii	"M\335\353\204\232\305\314\370vB\326\267&C\036>\262\316"
  86      9AC5CCF8 
  86      7642D6B7 
  86      26431E3E 
  86      B2CE
  87 0207 1365BB26 		.ascii	"\023e\273&\216N\030\026\211\2065.\006\376\252\0232n"
  87      8E4E1816 
  87      8986352E 
  87      06FEAA13 
  87      326E
  88 0219 9E40980B 		.ascii	"\236@\230\013\323d\211\275\206\345\226\376 i\022\000"
  88      D36489BD 
  88      86E596FE 
  88      20691200 
  89 0229 16E12B6F 		.ascii	"\026\341+op\301\010\225\333\275\257a\030\340\015\324"
  89      70C10895 
  89      DBBDAF61 
  89      18E00DD4 
  90 0239 5BAB07AD 		.ascii	"[\253\007\255 s\024(\200\372\341xE+\251'g\265\22269"
  90      20731428 
ARM GAS  /tmp/cciKhLR3.s 			page 7


  90      80FAE178 
  90      452BA927 
  90      67B59236 
  91 024e 35933F9A 		.ascii	"5\223?\232\313\347&T\265:\257\316\026+\352\\\365\312"
  91      CBE72654 
  91      B53AAFCE 
  91      162BEA5C 
  91      F5CA
  92 0260 D57975AA 		.ascii	"\325yu\252p\356\310\270\251\247'\026\026hg\246R\271"
  92      70EEC8B8 
  92      A9A72716 
  92      166867A6 
  92      52B9
  93 0272 942B8372 		.ascii	"\224+\203r\255Z\311\03564o\350\370\017o\306f\252"
  93      AD5AC91D 
  93      36346FE8 
  93      F80F6FC6 
  93      66AA
  94              		.text
  95              		.section	.gnu.lto_stm32_clock_init.5bc5f9b46db4b176,"",%progbits
  96 0000 789CDD58 		.ascii	"x\234\335Xkh\024W\024\236;3\273;\373\336\315\303<L\314"
  96      6B681457 
  96      149E3B33 
  96      BB3BFBDE 
  96      CDC33C4C 
  97 0015 C39887D1 		.ascii	"\303\230\207\321]7o\3630Q\241\320\037\245\005\023h\373"
  97      5D376FF3 
  97      3051A1D0 
  97      1FA50513 
  97      68FB
  98 0027 478C055D 		.ascii	"G\214\005]\010Xj\177\370/\263I\012\241\332\230F\012"
  98      08586A7F 
  98      F82FB349 
  98      0AA1DA98 
  98      460A
  99 0039 A5FEA8B6 		.ascii	"\245\376\250\266P\203\006[S\232\254Hm\010\026\322\206"
  99      5083065B 
  99      539AAC48 
  99      6D0816D2 
  99      86
 100 004a 482B142B 		.ascii	"H+\024+\375\321\250\245\322Rh,\026\"\226N\357\231\231"
 100      FDD1A8A5 
 100      D252682C 
 100      1622964E 
 100      EF9999
 101 005d 3B33D999 		.ascii	";3\331\231\233]W\032\226\035\310\311=\347\3169\373\235"
 101      9B5D571A 
 101      961DC8C9 
 101      3DE7CE39 
 101      FB9D
 102 006f EF9C7BF6 		.ascii	"\357\234{\366&,\3032\211\317\005\374\343*e\230.Pr\030"
 102      262CC332 
 102      89CF05FC 
 102      E32A6598 
 102      2E507218 
 103 0083 84DF402C 		.ascii	"\204\337@,\342\260\344X,E\226\307\202\347\221\015[l"
 103      E2B0E458 
ARM GAS  /tmp/cciKhLR3.s 			page 8


 103      2C4596C7 
 103      82E7910D 
 103      5B6C
 104 0095 AC0D2C76 		.ascii	"\254\015,v\260\330\221\003[\034\254\003,\002X\004\344"
 104      B0D89103 
 104      5B1CAC03 
 104      2C025804 
 104      E4
 105 00a6 C41627EB 		.ascii	"\304\026'\353\004\213\013,.\344\306\0267\353\006\213"
 105      048B0B2C 
 105      2EE4C616 
 105      37EB068B 
 106 00b6 072C1EE4 		.ascii	"\007,\036\344\305\026/\353\005\213\017,>\344\307\026"
 106      C5162FEB 
 106      058B0F2C 
 106      3EE4C716 
 107 00c6 3FEB074B 		.ascii	"?\353\007K\000,\001\024\304\226 B\030\020b\006Y\216"
 107      002C0114 
 107      C4962042 
 107      18106206 
 107      598E
 108 00d8 B7D91D82 		.ascii	"\267\331\035\202\323\345\366x}\376@\020\015\276\002"
 108      D3E5F678 
 108      7DFE4010 
 108      0DBE02
 109 00e7 3BCC3C53 		.ascii	";\314<S\311\234\027\305\211\345\257/])z\373\334\320"
 109      C99C17C5 
 109      89E5AF2F 
 109      5D297AFB 
 109      DCD0
 110 00f9 B8F8AF24 		.ascii	"\270\370\257$\241(\354\035F\314\313x\205\312\345_\220"
 110      A128EC1D 
 110      46CCCB78 
 110      85CAE55F 
 110      90
 111 010a 81F151DC 		.ascii	"\201\361Q\334\346\036}{\3125\036\033\025%i0\012\371"
 111      E61E7D7B 
 111      CA351E1B 
 111      15256930 
 111      0AF9
 112 011c A6E47466 		.ascii	"\246\344tf\361\2354>K\234\236\024\235\347\304\177$\211"
 112      F19D343E 
 112      4B9C9E14 
 112      9DE7C47F 
 112      2489
 113 012e 4BCF87FF 		.ascii	"K\317\207\377\377|\346\336[<\375\254)\245\012\357\316"
 113      FF7CE6DE 
 113      5B3CFDAC 
 113      29A50AEF 
 113      CE
 114 013f 2F2F2D88 		.ascii	"//-\210#s\222\324\235:\274+\213c\331\306\370\364\242"
 114      237392D4 
 114      9D3ABC2B 
 114      8B63D9C6 
 114      F8F4A2
 115 0152 A1F3322C 		.ascii	"\241\3632,\241\271/NnX;\374\224F;|\231}\007\360\253"
 115      A1B92F4E 
ARM GAS  /tmp/cciKhLR3.s 			page 9


 115      6E583BFC 
 115      94463B7C 
 115      997D07F0 
 116 0167 938BE711 		.ascii	"\223\213\347\021\366\215\255H\222?\365\371\3650\373"
 116      F68DAD48 
 116      923FF5F9 
 116      F530FB
 117 0176 98F87BE3 		.ascii	"\230\370{\343z\357v\032\275\367\356X\326\215\2423c\031"
 117      7AEF761A 
 117      BDF7EE58 
 117      D68DA233 
 117      6319
 118 0188 3DFC3F1C 		.ascii	"=\374?\034K\353h|~3\353\216\306\265\265\205J\361\276"
 118      4BEB687C 
 118      7E33EB8E 
 118      C6B5B585 
 118      4AF1BE
 119 019b B261857A 		.ascii	"\262a\205zr3\243\373\350\347\323i\365\321\331\211S\306"
 119      7233A3FB 
 119      E8E7D369 
 119      F5D1D989 
 119      53C6
 120 01ad AC6C29BA 		.ascii	"\254l)\272\315\336\312\2729qu\"\243o\005\267o}\223F"
 120      CDDECABA 
 120      39717522 
 120      A36F05B7 
 120      6F7D9346 
 121 01c1 7D3399F1 		.ascii	"}3\231\361g\306\2261\371|\312\316-K\322\324\017\217"
 121      67C69631 
 121      F97CCACE 
 121      2D4BD2D4 
 121      0F8F
 122 01d3 EE4EA1BC 		.ascii	"\356N\241\274\375\210\301\320X,8\016V<\010\033\026\274"
 122      FD88C1D0 
 122      582C380E 
 122      563C081B 
 122      16BC
 123 01e5 1D840354 		.ascii	"\035\204\003T\001VN\020.P\335 <\240zA\370@\365\203\010"
 123      01564E10 
 123      2E50DD20 
 123      3CA07A41 
 123      F840F583 
 124 01fa 801A8455 		.ascii	"\200\032\204U\016\254rA\344\201\232\017b\023\250\005"
 124      0EAC7241 
 124      E4819A0F 
 124      6213A805 
 125 020a 200A412D 		.ascii	" \012A-\002Q\014b3\330J@\224\202\272\005Ve \312A\255"
 125      02510C62 
 125      33D84A40 
 125      9482BA05 
 125      566520CA 
 126 0220 005109EA 		.ascii	"\000Q\011\352V\020U\240n\203U5\210\032PkA\324\201\330"
 126      561055A0 
 126      6E835535 
 126      881A506B 
 126      41D481D8 
 127 0234 0EB67A10 		.ascii	"\016\266z\020; \243\235\260\012\201\010\303\356.XE@"
ARM GAS  /tmp/cciKhLR3.s 			page 10


 127      3B20A39D 
 127      B00A8108 
 127      C3EE2E58 
 127      4540
 128 0246 3480DA88 		.ascii	"4\200\332\210\205\255\011V\315 Z`\243\025D\033\250\273"
 128      85AD0956 
 128      CD205A60 
 128      A315441B 
 128      A8BB
 129 0258 61D50EA2 		.ascii	"a\325\016\242\003\324N\020]\240\356\001\321\015j\017"
 129      03D44E10 
 129      5DA0EE01 
 129      D10D6A0F 
 130 0268 88BDA0EE 		.ascii	"\210\275\240\356cd\3361q#\2428^.W\000?\275\262\354\203"
 130      6364DE31 
 130      7123A238 
 130      5E2E5700 
 130      3FBDB2EC 
 131 027d 3FE1B925 		.ascii	"?\341\271%f(\376\343\245\310!t\037\217\255#\010Ae\030"
 131      6628FEE3 
 131      A5C82174 
 131      1F8FAD23 
 131      08416518 
 132 0291 71655404 		.ascii	"qeT\004\277%f>>\356R\366\352\231\213\342HL\364F\221"
 132      BF25663E 
 132      3EEE52F6 
 132      EA998BE2 
 132      484CF446 
 133 02a6 FD2CF301 		.ascii	"\375,\363\001~\313A\336\226\237~\3657Xx\021?H\366\037"
 133      7ECB41DE 
 133      969F7EF5 
 133      37587811 
 133      3F48F61F 
 134 02ba 8A2F5C46 		.ascii	"\212/\\F$8\013\233\234\270\034\323\202\257\330)\301"
 134      24380B9B 
 134      9CB81CD3 
 134      82AFD829 
 134      C1
 135 02cb 05F2B61A 		.ascii	"\005\362\266\032\034i\301\355\242\310\251\241\343\323"
 135      1C69C1ED 
 135      A2C8A9A1 
 135      E3D3
 136 02d9 77B4D85C 		.ascii	"w\264\330\\\002\360\2416\262\303'\246\364*\331\261)"
 136      02F0A136 
 136      B2C327A6 
 136      F42AD9B1 
 136      29
 137 02ea 1F1B30A6 		.ascii	"\037\0330\246\304\033S\"\377\005Yb\206\257r\304\313"
 137      C41B5322 
 137      FF055962 
 137      86AF72C4 
 137      CB
 138 02fb 8E1DE52C 		.ascii	"\216\035\345,\225\014\347\2377\246\260&\026g\216\205"
 138      950CE79F 
 138      37A6B026 
 138      16678E85 
 139 030b DD15431F 		.ascii	"\335\025C\037\244\246\260?\375X\313\302A\305*\310\361"
ARM GAS  /tmp/cciKhLR3.s 			page 11


 139      A4A6B03F 
 139      FD58CBC2 
 139      41C52AC8 
 139      F1
 140 031c 9131BC83 		.ascii	"\2211\274\203\002\365\332\360\264\026\320\211=e\260"
 140      02F5DAF0 
 140      B416D089 
 140      3D65B0
 141 032b B0BFC0DC 		.ascii	"\260\277\300\334x\020k\324\266d\273\361\004\366\201"
 141      78106BD4 
 141      B664BBF1 
 141      04F681
 142 033a 2A637A7F 		.ascii	"*cz\177\3467-\204\213\312\254\233\212\326c\301\206\333"
 142      E6372D84 
 142      8BCAAC9B 
 142      8AD663C1 
 142      86DB
 143 034c 089733C0 		.ascii	"\010\2273\300\325\230\365bG\031\024\236\030\222?\031"
 143      D598F562 
 143      4719149E 
 143      18923F19 
 144 035c BB2E73BC 		.ascii	"\273.s\274#\360_#\300?9\243\301\367Q\341\373\251\360"
 144      23F05F23 
 144      C03F39A3 
 144      C1F751E1 
 144      FBA9F0
 145 036f 03161FE7 		.ascii	"\003\026\037\347\267\206\277\016@\237\025\300\000\241"
 145      B786BF0E 
 145      409F15C0 
 145      00A1
 146 037d DA46CA3F 		.ascii	"\332F\312?\363P\303\032\244\"\3121\227?H\343sXO>\027"
 146      F350C31A 
 146      A422CA31 
 146      973F48E3 
 146      73584F3E 
 147 0392 7BCA8C7A 		.ascii	"{\312\214z\344\362\217\374\241\227?\327\242\374v\202"
 147      E4F28FFC 
 147      A1973FD7 
 147      A2FC7682 
 148 03a2 69563F58 		.ascii	"iV?XyT\376\362\251h7Y\260\221O\353V\255\374\005\330"
 148      7954FEF2 
 148      A9683759 
 148      B0914FEB 
 148      56ADFC05 
 149 03b7 5106F538 		.ascii	"Q\006\3658\351\311\312\263:Y\005J\355Wg\265iVh\232f"
 149      E9C9CAB3 
 149      3A59054A 
 149      ED5767B5 
 149      6956689A 
 150 03cc 9F39E8D3 		.ascii	"\2379\350\323\254\320L\250<p\024\240\370P\\\327Y)\242"
 150      ACD04CA8 
 150      3C7014A0 
 150      F8505CD7 
 150      5929A2
 151 03df B2524C65 		.ascii	"\262RLee\263E\"\305I\307M\011vT\207*\237\214\226\"+"
 151      65B34522 
 151      C549C74D 
ARM GAS  /tmp/cciKhLR3.s 			page 12


 151      09765487 
 151      2A9F8C96 
 152 03f5 5A4A4875 		.ascii	"ZJHu\035\244\272\327\365\216+\245\242\335b\356\270R"
 152      1DA4BAD7 
 152      F58E2BA5 
 152      A2DD62EE 
 152      B852
 153 0407 EAC0D167 		.ascii	"\352\300\321g|\031\366T\341\012L\342\310)\263\3509\201"
 153      7C19F654 
 153      E10A4CE2 
 153      C829B3E8 
 153      3981
 154 0419 8C9C7B77 		.ascii	"\214\234{w\265 \345Tv+\250x+-\370\2500\002\346u\300"
 154      B520E554 
 154      762BA878 
 154      2B2DF8A8 
 154      3002E675 
 155 042e 3ABB5BB1 		.ascii	":\273[\261cj\303\274\334\034\013\273\223,\234j\026\361"
 155      636AC3BC 
 155      DC1C0BBB 
 155      932C9C6A 
 155      16F1
 156 0440 7B3AB755 		.ascii	"{:\267UT\254\333\314\334VQ\240\032\207y5\366\244\014"
 156      54ACDBCC 
 156      DC5651A0 
 156      1A877935 
 156      F6A40C
 157 0453 F36A0B66 		.ascii	"\363j\013f]*\246\325\373\332\201\250y\252\257\367\032"
 157      5D2AA6D5 
 157      FBDA81A8 
 157      79AAAFF7 
 157      1A
 158 0464 23269B7E 		.ascii	"#&\233~ F'c\355\352\231\210\377\252\237\211Zj\325\352"
 158      20462763 
 158      EDEA9988 
 158      FFAA9F89 
 158      5A6AD5EA 
 159 0478 A84C6CB7 		.ascii	"\250Ll\267`\272.\351\231\250\307\216\344\242!$+\\\255"
 159      60BA2EE9 
 159      99A8C78E 
 159      E4A22124 
 159      2B5CAD
 160 048b D5A1A827 		.ascii	"\325\241\250'$\271I\341\036\350\205\333\221xO\321\340"
 160      24B949E1 
 160      1EE885DB 
 160      91784FD1 
 160      E0
 161 049c EE4C289C 		.ascii	"\356L(\234@^V\303\333\255\013\027\302\236*^d*]\310T"
 161      405E56C3 
 161      DBAD0B17 
 161      C29E2A5E 
 161      642A5DC8 
 162 04b1 BA5E84C7 		.ascii	"\272^\204\3075\327\007_f\012\266?\365\033B\230J\345"
 162      35D7075F 
 162      660AB63F 
 162      F51B4298 
 162      4AE5
ARM GAS  /tmp/cciKhLR3.s 			page 13


 163 04c3 2E735385 		.ascii	".sS\205S\270!D\260'\3412`\002\027\261\350+\037\351\253"
 163      53B82144 
 163      B027E132 
 163      600217B1 
 163      E82B1FE9 
 164 04d8 275A5F35 		.ascii	"'Z_5<\325\240m\240\014Zq\362\243\033\332\335\356\343"
 164      3CD5A06D 
 164      A00C5A71 
 164      F2A31BDA 
 164      DDEEE3
 165 04eb 790D6223 		.ascii	"y\015b#\354\332\304U=\372wk\243G\264\350N\362\266\032"
 165      ECDAC455 
 165      3DFA776B 
 165      A347B4E8 
 165      4EF2B61A 
 166 04ff DDA145E7 		.ascii	"\335\241E\347\337\362\251\241W?\371]\013\335D\355\331"
 166      DFF2A9A1 
 166      573FF95D 
 166      0BDD44ED 
 166      D9
 167 0510 662AD12D 		.ascii	"f*\321-\026M\326L\3712\326{\266\025;j\207w\335\206m"
 167      164DD64C 
 167      F932D67B 
 167      B6153B6A 
 167      8777DD86 
 168 0525 B2BA37B4 		.ascii	"\262\2727\264\022\366\375d^^\370K\313\242\215\212u\267"
 168      12F6FD64 
 168      5E5EF84B 
 168      CBA28D8A 
 168      75B7
 169 0537 B929DA52 		.ascii	"\271)\332R\2707\264cO\312\275\241]\266\013k:\"@:\342"
 169      B837B463 
 169      4FCABDA1 
 169      5DB60B6B 
 169      3A22403A 
 170 054c 623179AD 		.ascii	"b1y\255\203Jl'\025l\227\005\031\235F\264\202\216V'v"
 170      834A6C27 
 170      156C9705 
 170      199D46B4 
 170      828E5627 
 171 0561 0F76341C 		.ascii	"\017v4\034\256u\251\3550G\303\001H\032A%\015\015i75"
 171      AE75A9ED 
 171      3047C301 
 171      481A4125 
 171      0D0D6937 
 172 0576 871E6A0E 		.ascii	"\207\036j\016{->\265\307\370\251N\253\034\366a\307T"
 172      7B2D3EB5 
 172      C7F8A94E 
 172      AB1CF661 
 172      C754
 173 0588 73E83647 		.ascii	"s\3506G\303\001\030\346{&\266<U\247\270\221\247\027"
 173      C30118E6 
 173      7B26B63C 
 173      55A7B891 
 173      A717
 174 059a FE708286 		.ascii	"\376p\202\206\353\030\210\366\207\367\037\215\366G_"
 174      EB1888F6 
ARM GAS  /tmp/cciKhLR3.s 			page 14


 174      87F71F8D 
 174      F6475F
 175 05a9 3C7030D2 		.ascii	"<p0\322\022\212\204\232\302\341c\307\303G\017\015\204"
 175      128A849A 
 175      C2E163C7 
 175      C3470F0D 
 175      84
 176 05ba 5F3FF6C6 		.ascii	"_?\366\306\233\307\303\007z_hlP\344sM'N\300\316\301"
 176      9BC7C307 
 176      7A5F686C 
 176      50E4734D 
 176      274EC0CE 
 177 05cf 8181D742 		.ascii	"\201\201\327B\207\231\377\000a\331s\301"
 177      8799FF00 
 177      61D973C1 
 178              		.text
 179              		.section	.gnu.lto_.symbol_nodes.5bc5f9b46db4b176,"",%progbits
 180 0000 789C6362 		.ascii	"x\234cb`b\260c\200\002\246\211L\365\014\014\023\316"
 180      6062B063 
 180      8002A689 
 180      4CF50C0C 
 180      13CE
 181 0012 3130D4D7 		.ascii	"10\324\327_\351Hd\232\304T\317\010\345^\353`d\232\314"
 181      5FE94864 
 181      9AC454CF 
 181      08E55EEB 
 181      60649ACC 
 182 0026 54CF84E0 		.ascii	"T\317\204\340\262N`b`\257g`fd`8\324\377F\236\001\000"
 182      B24E6062 
 182      60AF6760 
 182      66646038 
 182      D4FF469E 
 183 003c 60761291 		.ascii	"`v\022\221"
 184              		.text
 185              		.section	.gnu.lto_.refs.5bc5f9b46db4b176,"",%progbits
 186 0000 789C6362 		.ascii	"x\234cb`b`d\200\002\000\000F\000\006"
 186      60626064 
 186      80020000 
 186      460006
 187              		.text
 188              		.section	.gnu.lto_.decls.5bc5f9b46db4b176,"",%progbits
 189 0000 789C9D97 		.ascii	"x\234\235\227\177lSU\024\307\357}-\254e\225_F\002FC"
 189      7F6C5355 
 189      14C7EF7D 
 189      2DAC6595 
 189      5F460246 
 190 0015 31C11812 		.ascii	"1\301\030\022W\366C\324h\310\306c0\342\200\346u(\376"
 190      57F643D4 
 190      68C8C663 
 190      30E280E6 
 190      7528FE
 191 0028 551E5BC9 		.ascii	"U\036[\311\032\272\037\241]\034\377=6\002\210\212e\316"
 191      1ABA1FA1 
 191      5D1CFF3D 
 191      3602888A 
 191      65CE
 192 003a DF081B20 		.ascii	"\337\010\033 :\005\2432\024\007lU\034Y\220\220\005\007"
ARM GAS  /tmp/cciKhLR3.s 			page 15


 192      3A05A332 
 192      14076C55 
 192      1C599090 
 192      0507
 193 004c 22E058C8 		.ascii	"\"\340X\310\262\351\202\206\220I`\002\365\334\323\367"
 193      B2E98286 
 193      90496002 
 193      F5DCD3F7 
 194 005c DADEDAD7 		.ascii	"\332\336\332\327\275\347K\316\367\335\276{\357\347\236"
 194      BDE74BCE 
 194      F7DDBE7B 
 194      EFE79E
 195 006b 73EE792F 		.ascii	"s\356y/\267\002\021H\031%$\012\327\316\007\011\011\010"
 195      B7021148 
 195      1925240A 
 195      D7CE0709 
 195      0908
 196 007d 84580921 		.ascii	"\204X\011!\013I\342\262\200\265\202\035\000k\003\203"
 196      0B49E2B2 
 196      80B5821D 
 196      006B0383 
 197 008d E1E420E1 		.ascii	"\341\344 \341/\326o\003k\007\233\014\346\000\313\002"
 197      2FD66F03 
 197      6B079B0C 
 197      E600CB02 
 198 009d EB023B06 		.ascii	"\353\002;\006v\004,\242\262:\300n\203\235PY\255\344"
 198      76042CA2 
 198      B23AC06E 
 198      839D5059 
 198      ADE4
 199 00af BFD70195 		.ascii	"\277\327\001\225\327\225\302;\246r(L\334\013\367\011"
 199      D795C23B 
 199      A672284C 
 199      DC0BF709 
 200 00bf 6067C0CE 		.ascii	"`g\300\316\202\365\201]\000\033\004\023TF:6\213aR\012"
 200      82F5815D 
 200      001B0413 
 200      54463A36 
 200      8B61520A 
 201 00d3 BB5DE50B 		.ascii	"\273]\345\0134\261\006\363\331Bcc\007U\277\273\301z"
 201      34B106F3 
 201      D9426363 
 201      0755BFBB 
 201      C17A
 202 00e5 C0C6C04E 		.ascii	"\300\306\300N\2511\330`\314\020\334G\325x\332\322\254"
 202      A931D860 
 202      CC10DC47 
 202      D578DAD2 
 202      AC
 203 00f6 399BEC56 		.ascii	"9\233\354V\"\275\003\335\227w\314RZ\032\"\321hW!\231"
 203      22BD03DD 
 203      9777CC52 
 203      5A1A22D1 
 203      68572199 
 204 010a 41DE56E0 		.ascii	"A\336V\340j\331\242(4$\323\205\017\221\325T\246\223"
 204      6AD9A228 
 204      3424D385 
ARM GAS  /tmp/cciKhLR3.s 			page 16


 204      0F91D554 
 204      A693
 205 011c EDC4890D 		.ascii	"\355\304\211\015\207\035w\202\020\231\356\2453\324\326"
 205      871D7782 
 205      1099EEA5 
 205      33D4D6
 206 012b 2A4B8C27 		.ascii	"*K\214'\220\205\224\314#m0?\254({sh\2325\011y\234|\314"
 206      908594CC 
 206      236D303F 
 206      AC287B73 
 206      689A3509 
 207 0143 56503E55 		.ascii	"VP>U,\310g\204V:;y\210L\367Q!\325\323\226H\344\374\326"
 207      2CC86784 
 207      563A3B79 
 207      884CF751 
 207      21D5D396 
 208 015b 9FA8D2A4 		.ascii	"\237\250\322\244\334\215F\033\255\252\007\002YC\241"
 208      DC8D461B 
 208      ADAA0702 
 208      5943A1
 209 016a B99FCECB 		.ascii	"\271\237\316\313\270\300\201\324\005>I\273@\337iGx\323"
 209      B8C081D4 
 209      053E49BB 
 209      40DF6947 
 209      78D3
 210 017c 4034BAC7 		.ascii	"@4\272\307\251\321\253\214\320\333R\351\237\361\364"
 210      A9D1AB8C 
 210      D0DB52E9 
 210      9FF1F4
 211 018b C748ABD2 		.ascii	"\307H\253\322\362Cd\317\037=\314}\345F4:\305N\266)J"
 211      F24364CF 
 211      1F3DCC7D 
 211      E546343A 
 211      C54EB629 
 212 01a0 03CB7349 		.ascii	"\003\313sI\017\354w\272$\317%\373!\221\003\367\266v"
 212      0FEC77BA 
 212      24CF25FB 
 212      219103F7 
 212      B676
 213 01b2 7F4F1B60 		.ascii	"\177O\033`;dz\210\332\301\245]\224\367\3118\352\303"
 213      3B647A88 
 213      DAC1A55D 
 213      94F7C938 
 213      EAC3
 214 01c4 D78E3FAB 		.ascii	"\327\216?\253(6\231~\211\240\237S@2\315\262\363q\300"
 214      2836997E 
 214      89A09F53 
 214      4032CDB2 
 214      F371C0
 215 01d7 6F6D00A3 		.ascii	"om\000\243a\267\332`/\347\024bv\270@\372\343\213\352"
 215      61B7DA60 
 215      2FE71462 
 215      76B840FA 
 215      E38BEA
 216 01ea 15D66135 		.ascii	"\025\326a5y\253\325\210\225\3217\334\204d\223\355\211"
 216      79ABD588 
 216      95D137DC 
ARM GAS  /tmp/cciKhLR3.s 			page 17


 216      846493ED 
 216      89
 217 01fb 28A7939D 		.ascii	"(\247\223\235X\245\205I\001\027j\034[\"\340\023o\016"
 217      58A58549 
 217      01176A1C 
 217      5B22E013 
 217      6F0E
 218 020d CE6AC4D4 		.ascii	"\316j\304\324\035\241\323a\361\317\005>\342q9\314\237"
 218      1DA1D361 
 218      F1CF053E 
 218      E27139CC 
 218      9F
 219 021e A3303536 		.ascii	"\243056\011\251J\344\316\020\354#K#\353!)\365\221t\315"
 219      09A94AE4 
 219      CE10EC23 
 219      4B23EB21 
 219      29F59174 
 220 0233 212DCAE6 		.ascii	"!-\312\346\306\310\275\241\036\341}%\262\331\202\033"
 220      C6C8BDA1 
 220      1EE17D25 
 220      B2D9821B 
 221 0243 D59871A3 		.ascii	"\325\230q\243d\372\005\235k0\223\337b0\314\207t$\265"
 221      64FA059D 
 221      6B3093DF 
 221      6230CC87 
 221      7424B5
 222 0256 49E2A99C 		.ascii	"I\342\251\234lO\361\353>\013\243\311!\323cX\015\035"
 222      6C4FF1EB 
 222      3E0BA3C9 
 222      21D36358 
 222      0D1D
 223 0268 A671CE74 		.ascii	"\246q\316tAk\265\220\310\232L\277\303\230:\350\034\320"
 223      416BB590 
 223      C89A4CBF 
 223      C3983AE8 
 223      1CD0
 224 027a 13A0F14B 		.ascii	"\023\240\361K\257\004\332i\2666$\335\276;\223\322\027"
 224      AF04DA69 
 224      B63624DD 
 224      BE3B93D2 
 224      17
 225 028b B16993B7 		.ascii	"\261i\223\267\321\370\306G\366\214\314T\2542\215\340"
 225      D1F8C647 
 225      F68CCC54 
 225      AC328DE0 
 226 029b AE77A6DF 		.ascii	"\256w\246\337\365\014\024\346\303\311\324m\377hX\335"
 226      F50C14E6 
 226      C3C9D46D 
 226      FF6858DD 
 227 02ab F69386B6 		.ascii	"\366\223\206\266\375\253au\333c\011\226\351q\250\353"
 227      FDAB6175 
 227      DB630996 
 227      E971A8EB 
 228 02bb D8E4FFB7 		.ascii	"\330\344\377\267__\017s\373u\032\2432\203sr\270v\036"
 228      5F5F0F73 
 228      FB751AA3 
 228      32837372 
ARM GAS  /tmp/cciKhLR3.s 			page 18


 228      B8761E
 229 02ce 77CE08CE 		.ascii	"w\316\010\316\246\357\3357<\356\027\3238\336\273\243"
 229      A6EFDD37 
 229      3CEE17D3 
 229      38DEBBA3 
 230 02de 3CEEB211 		.ascii	"<\356\262\021\334T}\357:x\334\240i\034\357\335q\036"
 230      DC547DEF 
 230      3A78DCA0 
 230      691CEFDD 
 230      711E
 231 02f0 F7A711DC 		.ascii	"\367\247\021\334L\035\357\224\206H\247\206\213}\340"
 231      4C1DEF94 
 231      8648A786 
 231      8B7DE0
 232 02ff 6F99C6F1 		.ascii	"o\231\306\361\336\365\362\336)\026\0038\247~\356\316"
 232      DEF5F2DE 
 232      29160338 
 232      A77EEECE 
 233 030f F1B8574D 		.ascii	"\361\270WM\343\222\274\203\327\250o\330\006\264i$\254"
 233      E392BC83 
 233      D7A86FD8 
 233      06B46924 
 233      AC
 234 0320 7D796361 		.ascii	"}yca\353}}\177\245\323\260\205\037OE\375\016\340\010"
 234      EB7D7D7F 
 234      A5D3B085 
 234      1F4F45FD 
 234      0EE008
 235 0333 BD8FC725 		.ascii	"\275\217\307%j\217\257\356\260'\032\332qD M\251!p\253"
 235      6A8FAFEE 
 235      B0271ADA 
 235      7144204D 
 235      A92170AB 
 236 0347 AACD27F4 		.ascii	"\252\315'\3643r\201\317\310.#\031\231\257\217\273\310"
 236      337281CF 
 236      C82E2319 
 236      99AF8FBB 
 236      C8
 237 0358 E3F69BC6 		.ascii	"\343\366\233\306\361\333\177\211\307\0354\202{F\277"
 237      F1DB7F89 
 237      C71D3482 
 237      7B46BF
 238 0367 38AFF0C5 		.ascii	"8\257\360\305\331n\032\307{\327\317{\327i\004W\250\237"
 238      D96E1AC7 
 238      7BD7CF7B 
 238      D7690457 
 238      A89F
 239 0379 BB1B3CEE 		.ascii	"\273\033<\356\224i\034_\2347\2618cU'\220\263F\352\244"
 239      94691C5F 
 239      9C37B138 
 239      63552790 
 239      B346EAA4 
 240 038d 44DFB951 		.ascii	"D\337\271Q\336\271\213F\234s\353\343n\361\270k\246q"
 240      DEB98B46 
 240      9C73EBE3 
 240      6EF1B86B 
 240      A671
ARM GAS  /tmp/cciKhLR3.s 			page 19


 241 039f FC4EDCE6 		.ascii	"\374N\334\346q\327\215\340V\353\327\311X\312G\3144\216"
 241      71D78DE0 
 241      56EBD7C9 
 241      58CA47CC 
 241      348E
 242 03b1 F7EE6ECA 		.ascii	"\367\356n\312G\314j\000\267F?w\367y\334v\3238\276N\302"
 242      47CC6A00 
 242      B7463F77 
 242      F779DC76 
 242      D338BE4E 
 243 03c6 23C975D2 		.ascii	"#\311u\322\234JKW'\225\372\3165\215p\316\3556\342\\"
 243      9C4A4B57 
 243      2795FACE 
 243      358D70CE 
 243      ED36E25C 
 244 03da AD3EAE39 		.ascii	"\255>\2569\031'\323N#\347\216Z\375X\337\341b\335g$\326"
 244      1927D34E 
 244      23E78E5A 
 244      FD58DFE1 
 244      62DD6724 
 245 03ef 7A7DE7DE 		.ascii	"z}\347\336\343c=d$V\205\352\363>\340y\207\315\363\234"
 245      E3633D64 
 245      245685EA 
 245      F33EE079 
 245      87CDF39C 
 246 0403 44F74A3E 		.ascii	"D\367J>\005\312\364G<\306v\3431\366\024j\017\352i\324"
 246      05CAF447 
 246      3CC676E3 
 246      31F6146A 
 246      0FEA69D4 
 247 0417 33A86751 		.ascii	"3\250gQ{Q\317\241\366\241^@\275\210z\005\265\037u\000"
 247      7B51CFA1 
 247      F6A15E40 
 247      BD887A05 
 247      B51F7500 
 248 042b F51AEA20 		.ascii	"\365\032\352 \352\020\352\357\250#\250\327Q\377B\275"
 248      EA10EAEF 
 248      A823A8D7 
 248      51FF42BD 
 249 043b 817A1375 		.ascii	"\201z\023u\024\365\026\352m\3241\324\177P\357\241F\215"
 249      14F516EA 
 249      6DD431D4 
 249      7F50EFA1 
 249      468D
 250 044d 1CB7BB74 		.ascii	"\034\267\273t\216\333\261?\301z\2636\011\206\017\351"
 250      8EDBB13F 
 250      C17AB336 
 250      09860FE9 
 251 045d 03549BFC 		.ascii	"\003T\233\374\010\211\237\321\337\275J\341ov\243\200"
 251      08899FD1 
 251      DFBD4AE1 
 251      6F76A380 
 252 046d 4774EBB8 		.ascii	"Gt\353\270Gt\236\301\034\330\"\244\234\320\377\356w"
 252      47749EC1 
 252      1CD822A4 
 252      9CD0FFEE 
 252      77
ARM GAS  /tmp/cciKhLR3.s 			page 20


 253 047e B0533F7B 		.ascii	"\260S?{>\376\371\374N\177\363,\370WN\265\3129\203.\260"
 253      3EFEF9FC 
 253      4E7FF32C 
 253      F8574EB5 
 253      CA39832E 
 254 0493 B9192A87 		.ascii	"\271\031*\207\313#\317\033\353w\204e\015\326k\032\346"
 254      CB23CF1B 
 254      EB778465 
 254      0DD66B1A 
 254      E6
 255 04a4 E4607793 		.ascii	"\344`w\223a\347\215\3002\034\315\357'\303~3\015\343"
 255      61E78DC0 
 255      321CCDEF 
 255      27C37E33 
 255      0DE3
 256 04b6 3D0B5F8D 		.ascii	"=\013_\215\303\264\2774\343\3002\034\313\233\256&y6"
 256      C3B4BF34 
 256      E3C0321C 
 256      CB9BAE26 
 256      7936
 257 04c8 60C4B30C 		.ascii	"`\304\263\014\207\362\346d\330\220\021X\272#y\272+\271"
 257      87F2E664 
 257      D8901158 
 257      BA2379BA 
 257      2BB9
 258 04da D464BA55 		.ascii	"\324d\272U`\237\201m\002{\275\266\243\276\216\272\003"
 258      609F816D 
 258      027BBDB6 
 258      A3BE8EBA 
 258      03
 259 04eb 358CBA13 		.ascii	"5\214\272\023\365-\301\300\313\327\220x\215\310s\001"
 259      F52DC1C0 
 259      CBD79078 
 259      8DC87301 
 260 04fb FF5A9758 		.ascii	"\377Z\227X\351_\353_\351\361\346.\310\311\315)p\271"
 260      E95FEB5F 
 260      E9F1E62E 
 260      C8C9CD29 
 260      70B9
 261 050d 6A82AE4A 		.ascii	"j\202\256J9\340\252\255\331\020\012\272<e\313\363\363"
 261      39E0AAAD 
 261      D9100ABA 
 261      3C65CBF3 
 261      F3
 262 051e 62BAA4A0 		.ascii	"b\272\244\240\276\236\365x\003\201\212\234r\362\260"
 262      BE9EF578 
 262      03818A9C 
 262      72F2B0
 263 052d DAF4AE95 		.ascii	"\332\364\256\225\313\327\327\325z+j\252d\177\265\327"
 263      CBD7D7D5 
 263      7A2B6AAA 
 263      647FB5D7 
 264 053d 5FED0F4D 		.ascii	"_\355\017M\\\272b\225S$\016m\004{65\030\252\312\317"
 264      5CBA6295 
 264      53240E6D 
 264      047B3635 
 264      18AACACF 
ARM GAS  /tmp/cciKhLR3.s 			page 21


 265 0551 F396076A 		.ascii	"\363\226\007j\312\327\343\203G]u\301\015.\177uy\240"
 265      CAD7E383 
 265      475D75C1 
 265      0D2E7F75 
 265      79A0
 266 0563 AEC2E7AA 		.ascii	"\256\302\347\252\366\275\302|\011\206*\374\325\241\234"
 266      F6BDC27C 
 266      09862AFC 
 266      D5A19C
 267 0572 4A62AB83 		.ascii	"Jb\253\203;\214\017=\231nX\225\\^\351\257\366\271\274"
 267      3B8C0F3D 
 267      996E5895 
 267      5C5EE9AF 
 267      F6B9BC
 268 0585 15BE7572 		.ascii	"\025\276ur] \344\015m\254\365\005a\332$\257W\2338\305"
 268      5D20E40D 
 268      6DACF505 
 268      61DA24AF 
 268      579B38C5 
 269 0599 B33118F2 		.ascii	"\2631\030\362U\2115\033|\"[\364y\235X}\365!\227\270"
 269      5589351B 
 269      7C225BF4 
 269      799D587D 
 269      F52197B8 
 270 05ad DCB3CC03 		.ascii	"\334\263\314\003Q&\005\212\356\256+\230\377t}=p\263"
 270      5126058A 
 270      EEAE2B98 
 270      FF747D3D 
 270      70B3
 271 05bf DD2F49DE 		.ascii	"\335/I\3362Xd\261o\235 J\026\321#eK\242\250=\312r\227"
 271      325864B1 
 271      6F9D204A 
 271      16D12365 
 271      4BA2A83D 
 272 05d6 968A4B96 		.ascii	"\226\212K\226JV&\026q\231d+*Y\224+y\312\260\221\247"
 272      4A562616 
 272      7199642B 
 272      2A59942B 
 272      79CAB091 
 273 05eb 35F259C3 		.ascii	"5\362Y\303.\025{\212\245\027\213\027\317\267\025\271"
 273      2E157B8A 
 273      A5178B17 
 273      CFB715B9 
 274 05fb B541EED8 		.ascii	"\265A\356\330\240x_n\026\003\024\257\220\330=O\275\347"
 274      A0785F6E 
 274      160314AF 
 274      90D83D4F 
 274      BDE7
 275 060d C33D3E22 		.ascii	"\303=>\"/\213\315\306\0367\216\210\367\344\333\331\334"
 275      2F8BCDC6 
 275      1E378E88 
 275      F7E4DBD9 
 275      DC
 276 061e 52377BC6 		.ascii	"R7{\306f\307[\371\261\2266\256\300\316\010j\257[\033"
 276      66C75BF9 
 276      B19636AE 
 276      C0CE086A 
ARM GAS  /tmp/cciKhLR3.s 			page 22


 276      AF5B1B
 277 0631 A7F53E65 		.ascii	"\247\365>e]\264XL\374\\0\301\343\021\227J\223 \320e"
 277      5DB4584C 
 277      FC5C30C1 
 277      E311974A 
 277      9320D065 
 278 0645 791E16E6 		.ascii	"y\036\026\346\003KJ\213<%Z\006,E\242d}\241\370e)k\245"
 278      034B4A8B 
 278      3C255A06 
 278      2C45A264 
 278      7DA1F865 
 279 065c BB8CDD05 		.ascii	"\273\214\335\005\2174\001\232\2424\0215\367_\352\030"
 279      8F34019A 
 279      A2341135 
 279      F75FEA18 
 280 066c 5559     		.ascii	"UY"
 281              		.text
 282              		.section	.gnu.lto_.symtab.5bc5f9b46db4b176,"",%progbits
 283 0000 68616C5F 		.ascii	"hal_lld_init\000\000\000\000\000\000\000\000\000\000"
 283      6C6C645F 
 283      696E6974 
 283      00000000 
 283      00000000 
 284 0016 0000A600 		.ascii	"\000\000\246\000\000\000stm32_clock_init\000\000\000"
 284      00007374 
 284      6D33325F 
 284      636C6F63 
 284      6B5F696E 
 285 002f 00000000 		.ascii	"\000\000\000\000\000\000\000\000\000\251\000\000\000"
 285      00000000 
 285      00A90000 
 285      00
 286 003c 53797374 		.ascii	"SystemCoreClock\000\000\000\000\000\000\000\000\000"
 286      656D436F 
 286      7265436C 
 286      6F636B00 
 286      00000000 
 287 0054 000000AC 		.ascii	"\000\000\000\254\000\000\000"
 287      000000
 288              		.text
 289              		.section	.gnu.lto_.opts,"",%progbits
 290 0000 272D6D63 		.ascii	"'-mcpu=cortex-m4' '-mno-thumb-interwork' '-mthumb' "
 290      70753D63 
 290      6F727465 
 290      782D6D34 
 290      2720272D 
 291 0033 272D6767 		.ascii	"'-ggdb' '-O0' '-fomit-frame-pointer' '-falign-funct"
 291      64622720 
 291      272D4F30 
 291      2720272D 
 291      666F6D69 
 292 0066 696F6E73 		.ascii	"ions=16' '-ffunction-sections' '-fdata-sections' '-"
 292      3D313627 
 292      20272D66 
 292      66756E63 
 292      74696F6E 
 293 0099 666E6F2D 		.ascii	"fno-common' '-flto'\000"
ARM GAS  /tmp/cciKhLR3.s 			page 23


 293      636F6D6D 
 293      6F6E2720 
 293      272D666C 
 293      746F2700 
 294              		.text
 295              		.cfi_sections	.debug_frame
 296              		.global	SystemCoreClock
 297              		.section	.data.SystemCoreClock,"aw",%progbits
 298              		.align	2
 299              		.type	SystemCoreClock, %object
 300              		.size	SystemCoreClock, 4
 301              	SystemCoreClock:
 302 0000 007A030A 		.word	168000000
 303              		.section	.text.hal_lld_backup_domain_init,"ax",%progbits
 304              		.align	2
 305              		.p2align 4,,15
 306              		.thumb
 307              		.thumb_func
 308              		.type	hal_lld_backup_domain_init, %function
 309              	hal_lld_backup_domain_init:
 310              	.LFB272:
 311              		.file 1 "lib/ChibiOS_16.1.4//os/hal/ports/STM32/STM32F4xx/hal_lld.c"
 312              		.loc 1 54 0
 313              		.cfi_startproc
 314              		@ args = 0, pretend = 0, frame = 0
 315              		@ frame_needed = 0, uses_anonymous_args = 0
 316              		@ link register save eliminated.
 317              		.loc 1 57 0
 318 0000 4FF4E043 		mov	r3, #28672
 319 0004 C4F20003 		movt	r3, 16384
 320 0008 4FF4E042 		mov	r2, #28672
 321 000c C4F20002 		movt	r2, 16384
 322 0010 1268     		ldr	r2, [r2]
 323 0012 42F48072 		orr	r2, r2, #256
 324 0016 1A60     		str	r2, [r3]
 325              		.loc 1 60 0
 326 0018 4FF46053 		mov	r3, #14336
 327 001c C4F20203 		movt	r3, 16386
 328 0020 1B6F     		ldr	r3, [r3, #112]
 329 0022 03F44073 		and	r3, r3, #768
 330 0026 B3F5007F 		cmp	r3, #512
 331 002a 0CD0     		beq	.L2
 332              		.loc 1 62 0
 333 002c 4FF46053 		mov	r3, #14336
 334 0030 C4F20203 		movt	r3, 16386
 335 0034 4FF48032 		mov	r2, #65536
 336 0038 1A67     		str	r2, [r3, #112]
 337              		.loc 1 63 0
 338 003a 4FF46053 		mov	r3, #14336
 339 003e C4F20203 		movt	r3, 16386
 340 0042 0022     		movs	r2, #0
 341 0044 1A67     		str	r2, [r3, #112]
 342              	.L2:
 343              		.loc 1 97 0
 344 0046 4FF4E043 		mov	r3, #28672
 345 004a C4F20003 		movt	r3, 16384
 346 004e 4FF4E042 		mov	r2, #28672
ARM GAS  /tmp/cciKhLR3.s 			page 24


 347 0052 C4F20002 		movt	r2, 16384
 348 0056 5268     		ldr	r2, [r2, #4]
 349 0058 22F40072 		bic	r2, r2, #512
 350 005c 5A60     		str	r2, [r3, #4]
 351              		.loc 1 99 0
 352 005e 7047     		bx	lr
 353              		.cfi_endproc
 354              	.LFE272:
 355              		.size	hal_lld_backup_domain_init, .-hal_lld_backup_domain_init
 356              		.section	.text.hal_lld_init,"ax",%progbits
 357              		.align	2
 358              		.p2align 4,,15
 359              		.global	hal_lld_init
 360              		.thumb
 361              		.thumb_func
 362              		.type	hal_lld_init, %function
 363              	hal_lld_init:
 364              	.LFB273:
 365              		.loc 1 114 0
 366              		.cfi_startproc
 367              		@ args = 0, pretend = 0, frame = 0
 368              		@ frame_needed = 0, uses_anonymous_args = 0
 369 0000 08B5     		push	{r3, lr}
 370              		.cfi_def_cfa_offset 8
 371              		.cfi_offset 3, -8
 372              		.cfi_offset 14, -4
 373              		.loc 1 118 0
 374 0002 4FF46053 		mov	r3, #14336
 375 0006 C4F20203 		movt	r3, 16386
 376 000a 1B69     		ldr	r3, [r3, #16]
 377 000c 4FF46053 		mov	r3, #14336
 378 0010 C4F20203 		movt	r3, 16386
 379 0014 4FF0FF32 		mov	r2, #-1
 380 0018 1A61     		str	r2, [r3, #16]
 381 001a 4FF46053 		mov	r3, #14336
 382 001e C4F20203 		movt	r3, 16386
 383 0022 0022     		movs	r2, #0
 384 0024 1A61     		str	r2, [r3, #16]
 385              		.loc 1 119 0
 386 0026 4FF46053 		mov	r3, #14336
 387 002a C4F20203 		movt	r3, 16386
 388 002e 5B69     		ldr	r3, [r3, #20]
 389 0030 4FF46053 		mov	r3, #14336
 390 0034 C4F20203 		movt	r3, 16386
 391 0038 4FF0FF32 		mov	r2, #-1
 392 003c 5A61     		str	r2, [r3, #20]
 393 003e 4FF46053 		mov	r3, #14336
 394 0042 C4F20203 		movt	r3, 16386
 395 0046 0022     		movs	r2, #0
 396 0048 5A61     		str	r2, [r3, #20]
 397              		.loc 1 120 0
 398 004a 4FF46053 		mov	r3, #14336
 399 004e C4F20203 		movt	r3, 16386
 400 0052 4FF46052 		mov	r2, #14336
 401 0056 C4F20202 		movt	r2, 16386
 402 005a 126A     		ldr	r2, [r2, #32]
 403 005c 62F08052 		orn	r2, r2, #268435456
ARM GAS  /tmp/cciKhLR3.s 			page 25


 404 0060 1A62     		str	r2, [r3, #32]
 405 0062 4FF46053 		mov	r3, #14336
 406 0066 C4F20203 		movt	r3, 16386
 407 006a 0022     		movs	r2, #0
 408 006c 1A62     		str	r2, [r3, #32]
 409              		.loc 1 121 0
 410 006e 4FF46053 		mov	r3, #14336
 411 0072 C4F20203 		movt	r3, 16386
 412 0076 5B6A     		ldr	r3, [r3, #36]
 413 0078 4FF46053 		mov	r3, #14336
 414 007c C4F20203 		movt	r3, 16386
 415 0080 4FF0FF32 		mov	r2, #-1
 416 0084 5A62     		str	r2, [r3, #36]
 417 0086 4FF46053 		mov	r3, #14336
 418 008a C4F20203 		movt	r3, 16386
 419 008e 0022     		movs	r2, #0
 420 0090 5A62     		str	r2, [r3, #36]
 421              		.loc 1 124 0
 422 0092 4FF46053 		mov	r3, #14336
 423 0096 C4F20203 		movt	r3, 16386
 424 009a 4FF46052 		mov	r2, #14336
 425 009e C4F20202 		movt	r2, 16386
 426 00a2 126C     		ldr	r2, [r2, #64]
 427 00a4 42F08052 		orr	r2, r2, #268435456
 428 00a8 1A64     		str	r2, [r3, #64]
 429              		.loc 1 127 0
 430 00aa FFF7FEFF 		bl	hal_lld_backup_domain_init
 431              		.loc 1 137 0
 432 00ae 08BD     		pop	{r3, pc}
 433              		.cfi_endproc
 434              	.LFE273:
 435              		.size	hal_lld_init, .-hal_lld_init
 436              		.section	.text.stm32_clock_init,"ax",%progbits
 437              		.align	2
 438              		.p2align 4,,15
 439              		.global	stm32_clock_init
 440              		.thumb
 441              		.thumb_func
 442              		.type	stm32_clock_init, %function
 443              	stm32_clock_init:
 444              	.LFB274:
 445              		.loc 1 146 0
 446              		.cfi_startproc
 447              		@ args = 0, pretend = 0, frame = 0
 448              		@ frame_needed = 0, uses_anonymous_args = 0
 449              		@ link register save eliminated.
 450              		.loc 1 150 0
 451 0000 4FF46053 		mov	r3, #14336
 452 0004 C4F20203 		movt	r3, 16386
 453 0008 4FF08052 		mov	r2, #268435456
 454 000c 1A64     		str	r2, [r3, #64]
 455              		.loc 1 154 0
 456 000e 4FF4E043 		mov	r3, #28672
 457 0012 C4F20003 		movt	r3, 16384
 458 0016 4FF44042 		mov	r2, #49152
 459 001a 1A60     		str	r2, [r3]
 460              		.loc 1 161 0
ARM GAS  /tmp/cciKhLR3.s 			page 26


 461 001c 4FF46053 		mov	r3, #14336
 462 0020 C4F20203 		movt	r3, 16386
 463 0024 4FF46052 		mov	r2, #14336
 464 0028 C4F20202 		movt	r2, 16386
 465 002c 1268     		ldr	r2, [r2]
 466 002e 42F00102 		orr	r2, r2, #1
 467 0032 1A60     		str	r2, [r3]
 468              		.loc 1 162 0
 469 0034 00BF     		nop
 470              	.L5:
 471              		.loc 1 162 0 is_stmt 0 discriminator 1
 472 0036 4FF46053 		mov	r3, #14336
 473 003a C4F20203 		movt	r3, 16386
 474 003e 1B68     		ldr	r3, [r3]
 475 0040 03F00203 		and	r3, r3, #2
 476 0044 002B     		cmp	r3, #0
 477 0046 F6D0     		beq	.L5
 478              		.loc 1 168 0 is_stmt 1
 479 0048 4FF46053 		mov	r3, #14336
 480 004c C4F20203 		movt	r3, 16386
 481 0050 4FF46052 		mov	r2, #14336
 482 0054 C4F20202 		movt	r2, 16386
 483 0058 9268     		ldr	r2, [r2, #8]
 484 005a 22F00302 		bic	r2, r2, #3
 485 005e 9A60     		str	r2, [r3, #8]
 486              		.loc 1 169 0
 487 0060 4FF46053 		mov	r3, #14336
 488 0064 C4F20203 		movt	r3, 16386
 489 0068 4FF46052 		mov	r2, #14336
 490 006c C4F20202 		movt	r2, 16386
 491 0070 9268     		ldr	r2, [r2, #8]
 492 0072 9A60     		str	r2, [r3, #8]
 493              		.loc 1 170 0
 494 0074 00BF     		nop
 495              	.L6:
 496              		.loc 1 170 0 is_stmt 0 discriminator 1
 497 0076 4FF46053 		mov	r3, #14336
 498 007a C4F20203 		movt	r3, 16386
 499 007e 9B68     		ldr	r3, [r3, #8]
 500 0080 03F00C03 		and	r3, r3, #12
 501 0084 002B     		cmp	r3, #0
 502 0086 F6D1     		bne	.L6
 503              		.loc 1 174 0 is_stmt 1
 504 0088 4FF46053 		mov	r3, #14336
 505 008c C4F20203 		movt	r3, 16386
 506 0090 4FF46052 		mov	r2, #14336
 507 0094 C4F20202 		movt	r2, 16386
 508 0098 1268     		ldr	r2, [r2]
 509 009a 02F0F902 		and	r2, r2, #249
 510 009e 1A60     		str	r2, [r3]
 511              		.loc 1 175 0
 512 00a0 4FF46053 		mov	r3, #14336
 513 00a4 C4F20203 		movt	r3, 16386
 514 00a8 0022     		movs	r2, #0
 515 00aa 9A60     		str	r2, [r3, #8]
 516              		.loc 1 184 0
 517 00ac 4FF46053 		mov	r3, #14336
ARM GAS  /tmp/cciKhLR3.s 			page 27


 518 00b0 C4F20203 		movt	r3, 16386
 519 00b4 4FF46052 		mov	r2, #14336
 520 00b8 C4F20202 		movt	r2, 16386
 521 00bc 1268     		ldr	r2, [r2]
 522 00be 42F48032 		orr	r2, r2, #65536
 523 00c2 1A60     		str	r2, [r3]
 524              		.loc 1 186 0
 525 00c4 00BF     		nop
 526              	.L7:
 527              		.loc 1 186 0 is_stmt 0 discriminator 1
 528 00c6 4FF46053 		mov	r3, #14336
 529 00ca C4F20203 		movt	r3, 16386
 530 00ce 1B68     		ldr	r3, [r3]
 531 00d0 03F40033 		and	r3, r3, #131072
 532 00d4 002B     		cmp	r3, #0
 533 00d6 F6D0     		beq	.L7
 534              		.loc 1 192 0 is_stmt 1
 535 00d8 4FF46053 		mov	r3, #14336
 536 00dc C4F20203 		movt	r3, 16386
 537 00e0 4FF46052 		mov	r2, #14336
 538 00e4 C4F20202 		movt	r2, 16386
 539 00e8 526F     		ldr	r2, [r2, #116]
 540 00ea 42F00102 		orr	r2, r2, #1
 541 00ee 5A67     		str	r2, [r3, #116]
 542              		.loc 1 193 0
 543 00f0 00BF     		nop
 544              	.L8:
 545              		.loc 1 193 0 is_stmt 0 discriminator 1
 546 00f2 4FF46053 		mov	r3, #14336
 547 00f6 C4F20203 		movt	r3, 16386
 548 00fa 5B6F     		ldr	r3, [r3, #116]
 549 00fc 03F00203 		and	r3, r3, #2
 550 0100 002B     		cmp	r3, #0
 551 0102 F6D0     		beq	.L8
 552              		.loc 1 199 0 is_stmt 1
 553 0104 4FF46053 		mov	r3, #14336
 554 0108 C4F20203 		movt	r3, 16386
 555 010c 45F20842 		movw	r2, #21512
 556 0110 C0F24072 		movt	r2, 1856
 557 0114 5A60     		str	r2, [r3, #4]
 558              		.loc 1 201 0
 559 0116 4FF46053 		mov	r3, #14336
 560 011a C4F20203 		movt	r3, 16386
 561 011e 4FF46052 		mov	r2, #14336
 562 0122 C4F20202 		movt	r2, 16386
 563 0126 1268     		ldr	r2, [r2]
 564 0128 42F08072 		orr	r2, r2, #16777216
 565 012c 1A60     		str	r2, [r3]
 566              		.loc 1 205 0
 567 012e 00BF     		nop
 568              	.L9:
 569              		.loc 1 205 0 is_stmt 0 discriminator 1
 570 0130 4FF4E043 		mov	r3, #28672
 571 0134 C4F20003 		movt	r3, 16384
 572 0138 5B68     		ldr	r3, [r3, #4]
 573 013a 03F48043 		and	r3, r3, #16384
 574 013e 002B     		cmp	r3, #0
ARM GAS  /tmp/cciKhLR3.s 			page 28


 575 0140 F6D0     		beq	.L9
 576              		.loc 1 221 0 is_stmt 1
 577 0142 00BF     		nop
 578              	.L10:
 579              		.loc 1 221 0 is_stmt 0 discriminator 1
 580 0144 4FF46053 		mov	r3, #14336
 581 0148 C4F20203 		movt	r3, 16386
 582 014c 1B68     		ldr	r3, [r3]
 583 014e 03F00073 		and	r3, r3, #33554432
 584 0152 002B     		cmp	r3, #0
 585 0154 F6D0     		beq	.L10
 586              		.loc 1 247 0 is_stmt 1
 587 0156 4FF46053 		mov	r3, #14336
 588 015a C4F20203 		movt	r3, 16386
 589 015e 4FF41442 		mov	r2, #37888
 590 0162 C3F68802 		movt	r2, 14472
 591 0166 9A60     		str	r2, [r3, #8]
 592              		.loc 1 261 0
 593 0168 4FF47053 		mov	r3, #15360
 594 016c C4F20203 		movt	r3, 16386
 595 0170 40F20572 		movw	r2, #1797
 596 0174 1A60     		str	r2, [r3]
 597              		.loc 1 267 0
 598 0176 4FF46053 		mov	r3, #14336
 599 017a C4F20203 		movt	r3, 16386
 600 017e 4FF46052 		mov	r2, #14336
 601 0182 C4F20202 		movt	r2, 16386
 602 0186 9268     		ldr	r2, [r2, #8]
 603 0188 42F00202 		orr	r2, r2, #2
 604 018c 9A60     		str	r2, [r3, #8]
 605              		.loc 1 268 0
 606 018e 00BF     		nop
 607              	.L11:
 608              		.loc 1 268 0 is_stmt 0 discriminator 1
 609 0190 4FF46053 		mov	r3, #14336
 610 0194 C4F20203 		movt	r3, 16386
 611 0198 9B68     		ldr	r3, [r3, #8]
 612 019a 03F00C03 		and	r3, r3, #12
 613 019e 082B     		cmp	r3, #8
 614 01a0 F6D1     		bne	.L11
 615              		.loc 1 275 0 is_stmt 1
 616 01a2 4FF46053 		mov	r3, #14336
 617 01a6 C4F20203 		movt	r3, 16386
 618 01aa 4FF46052 		mov	r2, #14336
 619 01ae C4F20202 		movt	r2, 16386
 620 01b2 526C     		ldr	r2, [r2, #68]
 621 01b4 42F48042 		orr	r2, r2, #16384
 622 01b8 5A64     		str	r2, [r3, #68]
 623 01ba 4FF46053 		mov	r3, #14336
 624 01be C4F20203 		movt	r3, 16386
 625 01c2 4FF46052 		mov	r2, #14336
 626 01c6 C4F20202 		movt	r2, 16386
 627 01ca 526E     		ldr	r2, [r2, #100]
 628 01cc 42F48042 		orr	r2, r2, #16384
 629 01d0 5A66     		str	r2, [r3, #100]
 630              		.loc 1 276 0
 631 01d2 7047     		bx	lr
ARM GAS  /tmp/cciKhLR3.s 			page 29


 632              		.cfi_endproc
 633              	.LFE274:
 634              		.size	stm32_clock_init, .-stm32_clock_init
 635 01d4 AFF30080 		.text
 635      AFF30080 
 635      AFF30080 
 636              	.Letext0:
 637              		.file 2 "/usr/lib/gcc/arm-none-eabi/4.8.2/include/stddef.h"
 638              		.file 3 "/usr/include/newlib/machine/_default_types.h"
 639              		.file 4 "/usr/include/newlib/stdint.h"
 640              		.file 5 "lib/ChibiOS_16.1.4//os/rt/ports/ARMCMx/compilers/GCC/chtypes.h"
 641              		.file 6 "lib/ChibiOS_16.1.4//os/rt/include/chsystypes.h"
 642              		.file 7 "lib/ChibiOS_16.1.4//os/rt/include/chschd.h"
 643              		.file 8 "lib/ChibiOS_16.1.4//os/ext/CMSIS/ST/STM32F4xx/stm32f407xx.h"
 644              		.file 9 "lib/ChibiOS_16.1.4//os/rt/ports/ARMCMx/chcore.h"
 645              		.file 10 "lib/ChibiOS_16.1.4//os/rt/ports/ARMCMx/chcore_v7m.h"
 646              		.file 11 "lib/ChibiOS_16.1.4//os/rt/include/chdebug.h"
 647              		.file 12 "lib/ChibiOS_16.1.4//os/rt/include/chtm.h"
 648              		.file 13 "lib/ChibiOS_16.1.4//os/rt/include/chstats.h"
 649              		.file 14 "lib/ChibiOS_16.1.4//os/rt/include/chsem.h"
 650              		.file 15 "lib/ChibiOS_16.1.4//os/rt/include/chmtx.h"
 651              		.file 16 "lib/ChibiOS_16.1.4//os/ext/CMSIS/include/core_cm4.h"