ARM GAS  /tmp/cciKhLR3.s 			page 1


   1              		.syntax unified
   2              		.cpu cortex-m4
   3              		.fpu softvfp
   4              		.eabi_attribute 20, 1
   5              		.eabi_attribute 21, 1
   6              		.eabi_attribute 23, 3
   7              		.eabi_attribute 24, 1
   8              		.eabi_attribute 25, 1
   9              		.eabi_attribute 26, 1
  10              		.eabi_attribute 30, 6
  11              		.eabi_attribute 34, 1
  12              		.eabi_attribute 18, 4
  13              		.thumb
  14              		.file	"hal_lld.c"
  15              		.text
  16              	.Ltext0:
  17              		.section	.gnu.lto_.inline.5bc5f9b46db4b176,"",%progbits
  18 0000 789C6362 		.ascii	"x\234cb`b\300\006\234\24143\003\003?\037\003\003\223"
  18      6062C006 
  18      9CA13433 
  18      03033F1F 
  18      030393
  19 0013 D4835B8C 		.ascii	"\324\203[\214\014,\020\305\214\014\"2@!\245\0053\231"
  19      0C2C10C5 
  19      8C0C2232 
  19      4021A505 
  19      3399
  20 0025 E0425C40 		.ascii	"\340B\\@\202\211\341\020\303A\020\335\300x\341;;L\212"
  20      8289E110 
  20      C34110DD 
  20      C078E13B 
  20      3B4C8A
  21 0038 010002B0 		.ascii	"\001\000\002\260\007\302"
  21      07C2
  22              		.text
  23              		.section	.gnu.lto_hal_lld_backup_domain_init.5bc5f9b46db4b176,"",%progbits
  24 0000 789CDD54 		.ascii	"x\234\335T=h\024Q\020\236yow\357\366~\324V\020\014\332"
  24      3D681451 
  24      109E796F 
  24      77EFF67E 
  24      D456100C 
  25 0015 08C22DA7 		.ascii	"\010\302-\247A\004\021\013A\260\020\205\\@mB.B\262p"
  25      4104110B 
  25      41B01085 
  25      5C406D42 
  25      2E42B270 
  26 0029 103116E9 		.ascii	"\0201\026\351\362690\010J\320B\320\302\244\020$\205"
  26      F2363930 
  26      084AD042 
  26      D0C2A410 
  26      2485
  27 003b 82D589CD 		.ascii	"\202\325\211\315bu WX\010V\307\011\012\026)\016\253"
  27      62752057 
  27      580856C7 
  27      090A1629 
  27      0EAB
  28 004d 4034CF99 		.ascii	"@4\317\231]\337\336rw\301DH\343\300~\273\217\231\371"
ARM GAS  /tmp/cciKhLR3.s 			page 2


  28      5DDFDE72 
  28      77C14448 
  28      E3C07EBB 
  28      8F99F9
  29 0060 DE37F366 		.ascii	"\3367\363f\237\000\001\375v\202\036\327\0018\317\013"
  29      9F0001FD 
  29      76821ED7 
  29      0138CF0B 
  30 0070 1B902250 		.ascii	"\033\220\"P\010\011\240\204E`I\244\027Z\210\344FX\020"
  30      0809A084 
  30      456049A4 
  30      175A88E4 
  30      465810
  31 0083 D2C2851B 		.ascii	"\322\302\205\033\274\200\3421XS\352Q\347E\373\301\341"
  31      BC80E231 
  31      5853EA51 
  31      E745FBC1 
  31      E1
  32 0094 FBAB8B2B 		.ascii	"\373\253\213+j[k\364\3315\205p\235\276p$z1O\332\342"
  32      6A5B6BF4 
  32      D9358570 
  32      9DBE7024 
  32      7A314FDA 
  33 00a9 34F5E6A5 		.ascii	"4\365\346\245rW\325O\255\345\277\345\310\375\313\011"
  33      7257D54F 
  33      ADE5BFE5 
  33      C8FDCB09 
  34 00b9 37BF5D6B 		.ascii	"7\277]k\252z\250\365\005\237\313\3377m\237\276\366\366"
  34      AA7AA8F5 
  34      059FCBDF 
  34      376D9FBE 
  34      F6F6
  35 00cb D9ADB65F 		.ascii	"\331\255\266__\232kH\271AW\353\203\273\226\027n\357"
  35      5F9A6B48 
  35      B94157EB 
  35      83BB9617 
  35      6EEF
  36 00dd BDA4F0F1 		.ascii	"\275\244\360\361\275\207\377\315\311\276\026aG\353\215"
  36      BD87FFCD 
  36      C9BE1661 
  36      47EB8D
  37 00ec D693F611 		.ascii	"\326\223\366\021<\200@\312\004\203$\220\026\203M`9\374"
  37      3C8040CA 
  37      04832490 
  37      16834D60 
  37      39FC
  38 00fe 9561C8F2 		.ascii	"\225a\310\362\322e\310q\\\236\241\300\216\"D\273\321"
  38      D265C871 
  38      5C9EA1C0 
  38      8E2244BB 
  38      D1
  39 010f BF52576A 		.ascii	"\277RWje$\332\227\254\022\3418\377?\262\005\213\215"
  39      6524DA97 
  39      AC12E138 
  39      FF3FB205 
  39      8B8D
  40 0121 46BB3889 		.ascii	"F\2738\211\257\320\206iD\326\003\252\023(\326D\316\263"
ARM GAS  /tmp/cciKhLR3.s 			page 3


  40      AFD08669 
  40      44D603AA 
  40      1328D644 
  40      CEB3
  41 0133 C623FA3C 		.ascii	"\306#\372<\357o\032\217<\011\353\252\036\034\362\321"
  41      EF6F1A8F 
  41      3C09EBAA 
  41      1E1CF2D1 
  42 0143 7E064F29 		.ascii	"~\006O)\3121\321\221U\321\324\325\202\245\267\322dY"
  42      CA31D191 
  42      55D1D4D5 
  42      82A5B7D2 
  42      6459
  43 0155 94C84152 		.ascii	"\224\310AR\211\230\357r\354\031B\206\203d\323<\030\254"
  43      8998EF72 
  43      EC194286 
  43      8364D33C 
  43      18AC
  44 0167 7DF9A821 		.ascii	"}\371\250!\2649\312R\335\345\001\201N\304\211\011e\306"
  44      B439CA52 
  44      DDE50181 
  44      4EC48909 
  44      65C6
  45 0179 04FFA1C4 		.ascii	"\004\377\241\304\236\276wK\353h\322(\314\211\025\322"
  45      9EBE774B 
  45      EB68D228 
  45      CC8915D2 
  46 0189 9D034DA8 		.ascii	"\235\003M\250o\004I\2372\261#}p\343\334\352\250\237"
  46      6F04499F 
  46      32B1237D 
  46      70E3DCEA 
  46      A89F
  47 019b 9F9F174C 		.ascii	"\237\237\027L\\\266_T\243\233I\327\251\312iU\331AU\361"
  47      5CB65F54 
  47      A39B49D7 
  47      A9CA6955 
  47      D94155F1 
  48 01af 3EE6341A 		.ascii	">\3464\032\337\223r\335=1\273\303\231\355\236x\313\014"
  48      DF9372DD 
  48      3D31BBC3 
  48      99ED9E78 
  48      CB0C
  49 01c1 C38F4ED2 		.ascii	"\303\217N\322\201\334\216\323\220\337q\032\012C\016"
  49      81DC8ED3 
  49      90DF711A 
  49      0A430E
  50 01d0 309F3E40 		.ascii	"0\237>@s\257s\267\223i(RbT\252\336\242\253\342o\003"
  50      73AF73B7 
  50      93692852 
  50      6254AADE 
  50      A2ABE26F 
  51 01e5 911BE423 		.ascii	"\221\033\344#\012\200\217\020t>\034\217\323\214U\270"
  51      0A808F10 
  51      743E1C8F 
  51      D38C55B8 
  52 01f5 5C8E3957 		.ascii	"\\\2169W\363\253\336\305\031\277\352_\035\233(\237)"
  52      F3ABDEC5 
ARM GAS  /tmp/cciKhLR3.s 			page 4


  52      19BFEA5F 
  52      1D9B289F 
  52      29
  53 0206 954BA39E 		.ascii	"\225K\243\2367;\347\315L\326\274\333\263w\356\316yc"
  53      373BE7CD 
  53      4CD6BCDB 
  53      B377EECE 
  53      7963
  54 0218 952BA74F 		.ascii	"\225+\247O\305xit~\236=\023\265\332\255\322\024\374"
  54      C5786974 
  54      7E9E3D13 
  54      B5DAADD2 
  54      14FC
  55 022a 06E2AF60 		.ascii	"\006\342\257`O"
  55      4F
  56              		.text
  57              		.section	.gnu.lto_hal_lld_init.5bc5f9b46db4b176,"",%progbits
  58 0000 789CED94 		.ascii	"x\234\355\224Mh\023A\024\307\337\333\331\315W\233\357"
  58      4D681341 
  58      14C7DFDB 
  58      D9CD579B 
  58      EF
  59 0011 562C5E4A 		.ascii	"V,^J\301\223\2205\265\210 xQ\004\005\351\241)\250\227"
  59      C1939035 
  59      B5882078 
  59      510405E9 
  59      A129A897 
  60 0025 9244B00B 		.ascii	"\222D\260\013\201\024+R(\230I\333C\020\017\301\223\325"
  60      81142B52 
  60      289849DB 
  60      43100FC1 
  60      93D5
  61 0037 4BD58345 		.ascii	"K\325\203E\004\321S=\024\212 \236\212\350\311\223D\360"
  61      04D1533D 
  61      148A209E 
  61      8AE8C993 
  61      44F0
  62 0049 E0B17812 		.ascii	"\340\261x\022+\256\363v\263\333MvW\327(\222\203\003"
  62      2BAEF376 
  62      B3DB4D76 
  62      57D72892 
  62      8303
  63 005b F96767E6 		.ascii	"\371gg\346\275\337\314\377\355c%\220\240{\034\020\277"
  63      BDDFCCFF 
  63      ED632590 
  63      A07B1C10 
  63      BF
  64 006c B7318049 		.ascii	"\2671\200I\232\310\200\"\002%dB\031\242XB\250I\014k"
  64      9AC88022 
  64      02256442 
  64      19A25842 
  64      A8490C6B 
  65 0080 17E81946 		.ascii	"\027\350\031F\306\340\036\347\267Z/wo\217\334X[j\362"
  65      C6E01EE7 
  65      B75A2F77 
  65      6F8FDC58 
  65      5B6AF2
ARM GAS  /tmp/cciKhLR3.s 			page 5


  66 0093 EFBA8E1A 		.ascii	"\357\272\216\032m\225\021\316\213'\0345\376$\271\363"
  66      6D9511CE 
  66      8B271C35 
  66      FE24B9F3 
  67 00a3 10338D3F 		.ascii	"\0203\215?[\347\3215\376M\327\231\206L\202\023\370\373"
  67      5BE7D135 
  67      FE4DD799 
  67      864C8213 
  67      F8FB
  68 00b5 69BD1C15 		.ascii	"i\275\034\0250g\353\375\253\233\261f\275\301u\275\326"
  68      3067EBFD 
  68      AB9BB166 
  68      BDC175BD 
  68      D6
  69 00c6 B3A7537D 		.ascii	"\263\247S}\346i\347O=\365T\207\177\224\023\264\010\237"
  69      E669E74F 
  69      3DF55487 
  69      7F9413B4 
  69      089F
  70 00d8 FFC28B3D 		.ascii	"\377\302\213=\333g/\366\313\377\027\333\247~\236H[-"
  70      DB672FF6 
  70      CBFF17DB 
  70      A77E9E48 
  70      5B2D
  71 00ea 5D7FBCF9 		.ascii	"]\177\274\371\361\303*f\366!\210\253IP\304\3738\006"
  71      F1C32A66 
  71      F62188AB 
  71      4950C4FB 
  71      3806
  72 00fc 8C263289 		.ascii	"\214&2\211B\022\022\313\017\305r\230&\021\222(I\214"
  72      421212CB 
  72      0FC57298 
  72      26119228 
  72      498C
  73 010e 6440081B 		.ascii	"d@\010\033$\211\3234A\222\024\361OE|\212&i\222\014I"
  73      2489D334 
  73      419214F1 
  73      4F457C8A 
  73      2669920C 
  74 0123 96648842 		.ascii	"\226d\210B\207\301\270\237\240\257p\336\0345n*F\301"
  74      87C1B89F 
  74      A0AF70DE 
  74      1C356E2A 
  74      46C1
  75 0135 D069FAB6 		.ascii	"\320i\372\266\263mX\332x\267\273\277\210\233\250\300"
  75      B36D58DA 
  75      78B7BBBF 
  75      889BA8C0 
  76 0145 65447200 		.ascii	"eDr\000|\247\301\311\3056\274\270h\355H\207\340\021"
  76      7CA7C1C9 
  76      C536BCB8 
  76      68ED4887 
  76      E011
  77 0157 5FA9A734 		.ascii	"_\251\2474\224\357\302\035\021\245X\321\306(\241\345"
  77      94EFC21D 
  77      11A558D1 
  77      C628A1E5 
ARM GAS  /tmp/cciKhLR3.s 			page 6


  78 0167 57108F59 		.ascii	"W\020\217YI\254\033\327\336\361`17\213V\230.F\262\013"
  78      49AC1BD7 
  78      DEF16031 
  78      378B5698 
  78      2E46B20B 
  79 017b 2BFF0C8B 		.ascii	"+\377\014\213N\252\354M\225\333\027\335\370\264h1\025"
  79      4EAAEC4D 
  79      95DB17DD 
  79      F8B46831 
  79      15
  80 018c 5FE7218F 		.ascii	"_\347!\217\333*N.z8\017\007w\036v\263|\235G\002;\217"
  80      DB2A4E2E 
  80      7A380F07 
  80      771E76B3 
  80      7C9D4702 
  81 01a2 78536DE7 		.ascii	"xSm\347\215\353\0263\332\305\334;-\346[\223\001\017"
  81      8DEB1633 
  81      DAC5DC3B 
  81      2DE65B93 
  81      010F
  82 01b4 1F31E789 		.ascii	"\0371\347\211\222]\223\345\347\314\312\032\024\211\266"
  82      925D93E5 
  82      E7CCCA1A 
  82      1489B6
  83 01c3 B584893C 		.ascii	"\265\204\211<\343[\227\250\233'\020\2357\214\007\256"
  83      E35B97A8 
  83      9B27109D 
  83      378C07AE 
  84 01d3 47DC4DEB 		.ascii	"G\334M\353\250\307\272]\217\204\257\353\244\307-\023"
  84      A8C7BA5D 
  84      8F84AFEB 
  84      A4C72D13 
  85 01e3 4E2EF3E8 		.ascii	"N.\363\350\204T\360NH\271Y\276\235\220\016\354<\355"
  85      8454F04E 
  85      48B959BE 
  85      9D900EEC 
  85      3CED
  86 01f5 4DDDEB84 		.ascii	"M\335\353\204\232\305\314\370vB\326\267&C\036>\262\316"
  86      9AC5CCF8 
  86      7642D6B7 
  86      26431E3E 
  86      B2CE
  87 0207 1365BB26 		.ascii	"\023e\273&\216N\030\026\211\2065.\006\376\252\0232n"
  87      8E4E1816 
  87      8986352E 
  87      06FEAA13 
  87      326E
  88 0219 9E40980B 		.ascii	"\236@\230\013\323d\211\275\206\345\226\376 i\022\000"
  88      D36489BD 
  88      86E596FE 
  88      20691200 
  89 0229 16E12B6F 		.ascii	"\026\341+op\301\010\225\333\275\257a\030\340\015\324"
  89      70C10895 
  89      DBBDAF61 
  89      18E00DD4 
  90 0239 5BAB07AD 		.ascii	"[\253\007\255 s\024(\200\372\341xE+\251'g\265\22269"
  90      20731428 
ARM GAS  /tmp/cciKhLR3.s 			page 7


  90      80FAE178 
  90      452BA927 
  90      67B59236 
  91 024e 35933F9A 		.ascii	"5\223?\232\313\347&T\265:\257\316\026+\352\\\365\312"
  91      CBE72654 
  91      B53AAFCE 
  91      162BEA5C 
  91      F5CA
  92 0260 D57975AA 		.ascii	"\325yu\252p\356\310\270\251\247'\026\026hg\246R\271"
  92      70EEC8B8 
  92      A9A72716 
  92      166867A6 
  92      52B9
  93 0272 942B8372 		.ascii	"\224+\203r\255Z\311\03564o\350\370\017o\306f\252"
  93      AD5AC91D 
  93      36346FE8 
  93      F80F6FC6 
  93      66AA
  94              		.text
  95              		.section	.gnu.lto_stm32_clock_init.5bc5f9b46db4b176,"",%progbits
  96 0000 789CDD58 		.ascii	"x\234\335Xkh\024W\024\236;3\273;\373\336\315\303<L\314"
  96      6B681457 
  96      149E3B33 
  96      BB3BFBDE 
  96      CDC33C4C 
  97 0015 C39887D1 		.ascii	"\303\230\207\321]7o\3630Q\241\320\037\245\005\023h\373"
  97      5D376FF3 
  97      3051A1D0 
  97      1FA50513 
  97      68FB
  98 0027 478C055D 		.ascii	"G\214\005]\010Xj\177\370/\263I\012\241\332\230F\012"
  98      08586A7F 
  98      F82FB349 
  98      0AA1DA98 
  98      460A
  99 0039 A5FEA8B6 		.ascii	"\245\376\250\266P\203\006[S\232\254Hm\010\026\322\206"
  99      5083065B 
  99      539AAC48 
  99      6D0816D2 
  99      86
 100 004a 482B142B 		.ascii	"H+\024+\375\321\250\245\322Rh,\026\"\226N\357\231\231"
 100      FDD1A8A5 
 100      D252682C 
 100      1622964E 
 100      EF9999
 101 005d 3B33D999 		.ascii	";3\331\231\233]W\032\226\035\310\311=\347\3169\373\235"
 101      9B5D571A 
 101      961DC8C9 
 101      3DE7CE39 
 101      FB9D
 102 006f EF9C7BF6 		.ascii	"\357\234{\366&,\3032\211\317\005\374\343*e\230.Pr\030"
 102      262CC332 
 102      89CF05FC 
 102      E32A6598 
 102      2E507218 
 103 0083 84DF402C 		.ascii	"\204\337@,\342\260\344X,E\226\307\202\347\221\015[l"
 103      E2B0E458 
ARM GAS  /tmp/cciKhLR3.s 			page 8


 103      2C4596C7 
 103      82E7910D 
 103      5B6C
 104 0095 AC0D2C76 		.ascii	"\254\015,v\260\330\221\003[\034\254\003,\002X\004\344"
 104      B0D89103 
 104      5B1CAC03 
 104      2C025804 
 104      E4
 105 00a6 C41627EB 		.ascii	"\304\026'\353\004\213\013,.\344\306\0267\353\006\213"
 105      048B0B2C 
 105      2EE4C616 
 105      37EB068B 
 106 00b6 072C1EE4 		.ascii	"\007,\036\344\305\026/\353\005\213\017,>\344\307\026"
 106      C5162FEB 
 106      058B0F2C 
 106      3EE4C716 
 107 00c6 3FEB074B 		.ascii	"?\353\007K\000,\001\024\304\226 B\030\020b\006Y\216"
 107      002C0114 
 107      C4962042 
 107      18106206 
 107      598E
 108 00d8 B7D91D82 		.ascii	"\267\331\035\202\323\345\366x}\376@\020\015\276\002"
 108      D3E5F678 
 108      7DFE4010 
 108      0DBE02
 109 00e7 3BCC3C53 		.ascii	";\314<S\311\234\027\305\211\345\257/])z\373\334\320"
 109      C99C17C5 
 109      89E5AF2F 
 109      5D297AFB 
 109      DCD0
 110 00f9 B8F8AF24 		.ascii	"\270\370\257$\241(\354\035F\314\313x\205\312\345_\220"
 110      A128EC1D 
 110      46CCCB78 
 110      85CAE55F 
 110      90
 111 010a 81F151DC 		.ascii	"\201\361Q\334\346\036}{\3125\036\033\025%i0\012\371"
 111      E61E7D7B 
 111      CA351E1B 
 111      15256930 
 111      0AF9
 112 011c A6E47466 		.ascii	"\246\344tf\361\2354>K\234\236\024\235\347\304\177$\211"
 112      F19D343E 
 112      4B9C9E14 
 112      9DE7C47F 
 112      2489
 113 012e 4BCF87FF 		.ascii	"K\317\207\377\377|\346\336[<\375\254)\245\012\357\316"
 113      FF7CE6DE 
 113      5B3CFDAC 
 113      29A50AEF 
 113      CE
 114 013f 2F2F2D88 		.ascii	"//-\210#s\222\324\235:\274+\213c\331\306\370\364\242"
 114      237392D4 
 114      9D3ABC2B 
 114      8B63D9C6 
 114      F8F4A2
 115 0152 A1F3322C 		.ascii	"\241\3632,\241\271/NnX;\374\224F;|\231}\007\360\253"
 115      A1B92F4E 
ARM GAS  /tmp/cciKhLR3.s 			page 9


 115      6E583BFC 
 115      94463B7C 
 115      997D07F0 
 116 0167 938BE711 		.ascii	"\223\213\347\021\366\215\255H\222?\365\371\3650\373"
 116      F68DAD48 
 116      923FF5F9 
 116      F530FB
 117 0176 98F87BE3 		.ascii	"\230\370{\343z\357v\032\275\367\356X\326\215\2423c\031"
 117      7AEF761A 
 117      BDF7EE58 
 117      D68DA233 
 117      6319
 118 0188 3DFC3F1C 		.ascii	"=\374?\034K\353h|~3\353\216\306\265\265\205J\361\276"
 118      4BEB687C 
 118      7E33EB8E 
 118      C6B5B585 
 118      4AF1BE
 119 019b B261857A 		.ascii	"\262a\205zr3\243\373\350\347\323i\365\321\331\211S\306"
 119      7233A3FB 
 119      E8E7D369 
 119      F5D1D989 
 119      53C6
 120 01ad AC6C29BA 		.ascii	"\254l)\272\315\336\312\2729qu\"\243o\005\267o}\223F"
 120      CDDECABA 
 120      39717522 
 120      A36F05B7 
 120      6F7D9346 
 121 01c1 7D3399F1 		.ascii	"}3\231\361g\306\2261\371|\312\316-K\322\324\017\217"
 121      67C69631 
 121      F97CCACE 
 121      2D4BD2D4 
 121      0F8F
 122 01d3 EE4EA1BC 		.ascii	"\356N\241\274\375\210\301\320X,8\016V<\010\033\026\274"
 122      FD88C1D0 
 122      582C380E 
 122      563C081B 
 122      16BC
 123 01e5 1D840354 		.ascii	"\035\204\003T\001VN\020.P\335 <\240zA\370@\365\203\010"
 123      01564E10 
 123      2E50DD20 
 123      3CA07A41 
 123      F840F583 
 124 01fa 801A8455 		.ascii	"\200\032\204U\016\254rA\344\201\232\017b\023\250\005"
 124      0EAC7241 
 124      E4819A0F 
 124      6213A805 
 125 020a 200A412D 		.ascii	" \012A-\002Q\014b3\330J@\224\202\272\005Ve \312A\255"
 125      02510C62 
 125      33D84A40 
 125      9482BA05 
 125      566520CA 
 126 0220 005109EA 		.ascii	"\000Q\011\352V\020U\240n\203U5\210\032PkA\324\201\330"
 126      561055A0 
 126      6E835535 
 126      881A506B 
 126      41D481D8 
 127 0234 0EB67A10 		.ascii	"\016\266z\020; \243\235\260\012\201\010\303\356.XE@"
ARM GAS  /tmp/cciKhLR3.s 			page 10


 127      3B20A39D 
 127      B00A8108 
 127      C3EE2E58 
 127      4540
 128 0246 3480DA88 		.ascii	"4\200\332\210\205\255\011V\315 Z`\243\025D\033\250\273"
 128      85AD0956 
 128      CD205A60 
 128      A315441B 
 128      A8BB
 129 0258 61D50EA2 		.ascii	"a\325\016\242\003\324N\020]\240\356\001\321\015j\017"
 129      03D44E10 
 129      5DA0EE01 
 129      D10D6A0F 
 130 0268 88BDA0EE 		.ascii	"\210\275\240\356cd\3361q#\2428^.W\000?\275\262\354\203"
 130      6364DE31 
 130      7123A238 
 130      5E2E5700 
 130      3FBDB2EC 
 131 027d 3FE1B925 		.ascii	"?\341\271%f(\376\343\245\310!t\037\217\255#\010Ae\030"
 131      6628FEE3 
 131      A5C82174 
 131      1F8FAD23 
 131      08416518 
 132 0291 71655404 		.ascii	"qeT\004\277%f>>\356R\366\352\231\213\342HL\364F\221"
 132      BF25663E 
 132      3EEE52F6 
 132      EA998BE2 
 132      484CF446 
 133 02a6 FD2CF301 		.ascii	"\375,\363\001~\313A\336\226\237~\3657Xx\021?H\366\037"
 133      7ECB41DE 
 133      969F7EF5 
 133      37587811 
 133      3F48F61F 
 134 02ba 8A2F5C46 		.ascii	"\212/\\F$8\013\233\234\270\034\323\202\257\330)\301"
 134      24380B9B 
 134      9CB81CD3 
 134      82AFD829 
 134      C1
 135 02cb 05F2B61A 		.ascii	"\005\362\266\032\034i\301\355\242\310\251\241\343\323"
 135      1C69C1ED 
 135      A2C8A9A1 
 135      E3D3
 136 02d9 77B4D85C 		.ascii	"w\264\330\\\002\360\2416\262\303'\246\364*\331\261)"
 136      02F0A136 
 136      B2C327A6 
 136      F42AD9B1 
 136      29
 137 02ea 1F1B30A6 		.ascii	"\037\0330\246\304\033S\"\377\005Yb\206\257r\304\313"
 137      C41B5322 
 137      FF055962 
 137      86AF72C4 
 137      CB
 138 02fb 8E1DE52C 		.ascii	"\216\035\345,\225\014\347\2377\246\260&\026g\216\205"
 138      950CE79F 
 138      37A6B026 
 138      16678E85 
 139 030b DD15431F 		.ascii	"\335\025C\037\244\246\260?\375X\313\302A\305*\310\361"
ARM GAS  /tmp/cciKhLR3.s 			page 11


 139      A4A6B03F 
 139      FD58CBC2 
 139      41C52AC8 
 139      F1
 140 031c 9131BC83 		.ascii	"\2211\274\203\002\365\332\360\264\026\320\211=e\260"
 140      02F5DAF0 
 140      B416D089 
 140      3D65B0
 141 032b B0BFC0DC 		.ascii	"\260\277\300\334x\020k\324\266d\273\361\004\366\201"
 141      78106BD4 
 141      B664BBF1 
 141      04F681
 142 033a 2A637A7F 		.ascii	"*cz\177\3467-\204\213\312\254\233\212\326c\301\206\333"
 142      E6372D84 
 142      8BCAAC9B 
 142      8AD663C1 
 142      86DB
 143 034c 089733C0 		.ascii	"\010\2273\300\325\230\365bG\031\024\236\030\222?\031"
 143      D598F562 
 143      4719149E 
 143      18923F19 
 144 035c BB2E73BC 		.ascii	"\273.s\274#\360_#\300?9\243\301\367Q\341\373\251\360"
 144      23F05F23 
 144      C03F39A3 
 144      C1F751E1 
 144      FBA9F0
 145 036f 03161FE7 		.ascii	"\003\026\037\347\267\206\277\016@\237\025\300\000\241"
 145      B786BF0E 
 145      409F15C0 
 145      00A1
 146 037d DA46CA3F 		.ascii	"\332F\312?\363P\303\032\244\"\3121\227?H\343sXO>\027"
 146      F350C31A 
 146      A422CA31 
 146      973F48E3 
 146      73584F3E 
 147 0392 7BCA8C7A 		.ascii	"{\312\214z\344\362\217\374\241\227?\327\242\374v\202"
 147      E4F28FFC 
 147      A1973FD7 
 147      A2FC7682 
 148 03a2 69563F58 		.ascii	"iV?XyT\376\362\251h7Y\260\221O\353V\255\374\005\330"
 148      7954FEF2 
 148      A9683759 
 148      B0914FEB 
 148      56ADFC05 
 149 03b7 5106F538 		.ascii	"Q\006\3658\351\311\312\263:Y\005J\355Wg\265iVh\232f"
 149      E9C9CAB3 
 149      3A59054A 
 149      ED5767B5 
 149      6956689A 
 150 03cc 9F39E8D3 		.ascii	"\2379\350\323\254\320L\250<p\024\240\370P\\\327Y)\242"
 150      ACD04CA8 
 150      3C7014A0 
 150      F8505CD7 
 150      5929A2
 151 03df B2524C65 		.ascii	"\262RLee\263E\"\305I\307M\011vT\207*\237\214\226\"+"
 151      65B34522 
 151      C549C74D 
ARM GAS  /tmp/cciKhLR3.s 			page 12


 151      09765487 
 151      2A9F8C96 
 152 03f5 5A4A4875 		.ascii	"ZJHu\035\244\272\327\365\216+\245\242\335b\356\270R"
 152      1DA4BAD7 
 152      F58E2BA5 
 152      A2DD62EE 
 152      B852
 153 0407 EAC0D167 		.ascii	"\352\300\321g|\031\366T\341\012L\342\310)\263\3509\201"
 153      7C19F654 
 153      E10A4CE2 
 153      C829B3E8 
 153      3981
 154 0419 8C9C7B77 		.ascii	"\214\234{w\265 \345Tv+\250x+-\370\2500\002\346u\300"
 154      B520E554 
 154      762BA878 
 154      2B2DF8A8 
 154      3002E675 
 155 042e 3ABB5BB1 		.ascii	":\273[\261cj\303\274\334\034\013\273\223,\234j\026\361"
 155      636AC3BC 
 155      DC1C0BBB 
 155      932C9C6A 
 155      16F1
 156 0440 7B3AB755 		.ascii	"{:\267UT\254\333\314\334VQ\240\032\207y5\366\244\014"
 156      54ACDBCC 
 156      DC5651A0 
 156      1A877935 
 156      F6A40C
 157 0453 F36A0B66 		.ascii	"\363j\013f]*\246\325\373\332\201\250y\252\257\367\032"
 157      5D2AA6D5 
 157      FBDA81A8 
 157      79AAAFF7 
 157      1A
 158 0464 23269B7E 		.ascii	"#&\233~ F'c\355\352\231\210\377\252\237\211Zj\325\352"
 158      20462763 
 158      EDEA9988 
 158      FFAA9F89 
 158      5A6AD5EA 
 159 0478 A84C6CB7 		.ascii	"\250Ll\267`\272.\351\231\250\307\216\344\242!$+\\\255"
 159      60BA2EE9 
 159      99A8C78E 
 159      E4A22124 
 159      2B5CAD
 160 048b D5A1A827 		.ascii	"\325\241\250'$\271I\341\036\350\205\333\221xO\321\340"
 160      24B949E1 
 160      1EE885DB 
 160      91784FD1 
 160      E0
 161 049c EE4C289C 		.ascii	"\356L(\234@^V\303\333\255\013\027\302\236*^d*]\310T"
 161      405E56C3 
 161      DBAD0B17 
 161      C29E2A5E 
 161      642A5DC8 
 162 04b1 BA5E84C7 		.ascii	"\272^\204\3075\327\007_f\012\266?\365\033B\230J\345"
 162      35D7075F 
 162      660AB63F 
 162      F51B4298 
 162      4AE5
ARM GAS  /tmp/cciKhLR3.s 			page 13


 163 04c3 2E735385 		.ascii	".sS\205S\270!D\260'\3412`\002\027\261\350+\037\351\253"
 163      53B82144 
 163      B027E132 
 163      600217B1 
 163      E82B1FE9 
 164 04d8 275A5F35 		.ascii	"'Z_5<\325\240m\240\014Zq\362\243\033\332\335\356\343"
 164      3CD5A06D 
 164      A00C5A71 
 164      F2A31BDA 
 164      DDEEE3
 165 04eb 790D6223 		.ascii	"y\015b#\354\332\304U=\372wk\243G\264\350N\362\266\032"
 165      ECDAC455 
 165      3DFA776B 
 165      A347B4E8 
 165      4EF2B61A 
 166 04ff DDA145E7 		.ascii	"\335\241E\347\337\362\251\241W?\371]\013\335D\355\331"
 166      DFF2A9A1 
 166      573FF95D 
 166      0BDD44ED 
 166      D9
 167 0510 662AD12D 		.ascii	"f*\321-\026M\326L\3712\326{\266\025;j\207w\335\206m"
 167      164DD64C 
 167      F932D67B 
 167      B6153B6A 
 167      8777DD86 
 168 0525 B2BA37B4 		.ascii	"\262\2727\264\022\366\375d^^\370K\313\242\215\212u\267"
 168      12F6FD64 
 168      5E5EF84B 
 168      CBA28D8A 
 168      75B7
 169 0537 B929DA52 		.ascii	"\271)\332R\2707\264cO\312\275\241]\266\013k:\"@:\342"
 169      B837B463 
 169      4FCABDA1 
 169      5DB60B6B 
 169      3A22403A 
 170 054c 623179AD 		.ascii	"b1y\255\203Jl'\025l\227\005\031\235F\264\202\216V'v"
 170      834A6C27 
 170      156C9705 
 170      199D46B4 
 170      828E5627 
 171 0561 0F76341C 		.ascii	"\017v4\034\256u\251\3550G\303\001H\032A%\015\015i75"
 171      AE75A9ED 
 171      3047C301 
 171      481A4125 
 171      0D0D6937 
 172 0576 871E6A0E 		.ascii	"\207\036j\016{->\265\307\370\251N\253\034\366a\307T"
 172      7B2D3EB5 
 172      C7F8A94E 
 172      AB1CF661 
 172      C754
 173 0588 73E83647 		.ascii	"s\3506G\303\001\030\346{&\266<U\247\270\221\247\027"
 173      C30118E6 
 173      7B26B63C 
 173      55A7B891 
 173      A717
 174 059a FE708286 		.ascii	"\376p\202\206\353\030\210\366\207\367\037\215\366G_"
 174      EB1888F6 
ARM GAS  /tmp/cciKhLR3.s 			page 14


 174      87F71F8D 
 174      F6475F
 175 05a9 3C7030D2 		.ascii	"<p0\322\022\212\204\232\302\341c\307\303G\017\015\204"
 175      128A849A 
 175      C2E163C7 
 175      C3470F0D 
 175      84
 176 05ba 5F3FF6C6 		.ascii	"_?\366\306\233\307\303\007z_hlP\344sM'N\300\316\301"
 176      9BC7C307 
 176      7A5F686C 
 176      50E4734D 
 176      274EC0CE 
 177 05cf 8181D742 		.ascii	"\201\201\327B\207\231\377\000a\331s\301"
 177      8799FF00 
 177      61D973C1 
 178              		.text
 179              		.section	.gnu.lto_.symbol_nodes.5bc5f9b46db4b176,"",%progbits
 180 0000 789C6362 		.ascii	"x\234cb`b\260c\200\002\246\211L\365\014\014\023\316"
 180      6062B063 
 180      8002A689 
 180      4CF50C0C 
 180      13CE
 181 0012 3130D4D7 		.ascii	"10\324\327_\351Hd\232\304T\317\010\345^\353`d\232\314"
 181      5FE94864 
 181      9AC454CF 
 181      08E55EEB 
 181      60649ACC 
 182 0026 54CF84E0 		.ascii	"T\317\204\340\262N`b`\257g`fd`8\324\377F\236\001\000"
 182      B24E6062 
 182      60AF6760 
 182      66646038 
 182      D4FF469E 
 183 003c 60761291 		.ascii	"`v\022\221"
 184              		.text
 185              		.section	.gnu.lto_.refs.5bc5f9b46db4b176,"",%progbits
 186 0000 789C6362 		.ascii	"x\234cb`b`d\200\002\000\000F\000\006"
 186      60626064 
 186      80020000 
 186      460006
 187              		.text
 188              		.section	.gnu.lto_.decls.5bc5f9b46db4b176,"",%progbits
 189 0000 789C9D97 		.ascii	"x\234\235\227\177lSU\024\307\357}-\254e\225_F\002FC"
 189      7F6C5355 
 189      14C7EF7D 
 189      2DAC6595 
 189      5F460246 
 190 0015 31C11812 		.ascii	"1\301\030\022W\366C\324h\310\306c0\342\200\346u(\376"
 190      57F643D4 
 190      68C8C663 
 190      30E280E6 
 190      7528FE
 191 0028 551E5BC9 		.ascii	"U\036[\311\032\272\037\241]\034\377=6\002\210\212e\316"
 191      1ABA1FA1 
 191      5D1CFF3D 
 191      3602888A 
 191      65CE
 192 003a DF081B20 		.ascii	"\337\010\033 :\005\2432\024\007lU\034Y\220\220\005\007"
ARM GAS  /tmp/cciKhLR3.s 			page 15


 192      3A05A332 
 192      14076C55 
 192      1C599090 
 192      0507
 193 004c 22E058C8 		.ascii	"\"\340X\310\262\351\202\206\220I`\002\365\334\323\367"
 193      B2E98286 
 193      90496002 
 193      F5DCD3F7 
 194 005c DADEDAD7 		.ascii	"\332\336\332\327\275\347K\316\367\335\276{\357\347\236"
 194      BDE74BCE 
 194      F7DDBE7B 
 194      EFE79E
 195 006b 73EE792F 		.ascii	"s\356y/\267\002\021H\031%$\012\327\316\007\011\011\010"
 195      B7021148 
 195      1925240A 
 195      D7CE0709 
 195      0908
 196 007d 84580921 		.ascii	"\204X\011!\013I\342\262\200\265\202\035\000k\003\203"
 196      0B49E2B2 
 196      80B5821D 
 196      006B0383 
 197 008d E1E420E1 		.ascii	"\341\344 \341/\326o\003k\007\233\014\346\000\313\002"
 197      2FD66F03 
 197      6B079B0C 
 197      E600CB02 
 198 009d EB023B06 		.ascii	"\353\002;\006v\004,\242\262:\300n\203\235PY\255\344"
 198      76042CA2 
 198      B23AC06E 
 198      839D5059 
 198      ADE4
 199 00af BFD70195 		.ascii	"\277\327\001\225\327\225\302;\246r(L\334\013\367\011"
 199      D795C23B 
 199      A672284C 
 199      DC0BF709 
 200 00bf 6067C0CE 		.ascii	"`g\300\316\202\365\201]\000\033\004\023TF:6\213aR\012"
 200      82F5815D 
 200      001B0413 
 200      54463A36 
 200      8B61520A 
 201 00d3 BB5DE50B 		.ascii	"\273]\345\0134\261\006\363\331Bcc\007U\277\273\301z"
 201      34B106F3 
 201      D9426363 
 201      0755BFBB 
 201      C17A
 202 00e5 C0C6C04E 		.ascii	"\300\306\300N\2511\330`\314\020\334G\325x\332\322\254"
 202      A931D860 
 202      CC10DC47 
 202      D578DAD2 
 202      AC
 203 00f6 399BEC56 		.ascii	"9\233\354V\"\275\003\335\227w\314RZ\032\"\321hW!\231"
 203      22BD03DD 
 203      9777CC52 
 203      5A1A22D1 
 203      68572199 
 204 010a 41DE56E0 		.ascii	"A\336V\340j\331\242(4$\323\205\017\221\325T\246\223"
 204      6AD9A228 
 204      3424D385 
ARM GAS  /tmp/cciKhLR3.s 			page 16


 204      0F91D554 
 204      A693
 205 011c EDC4890D 		.ascii	"\355\304\211\015\207\035w\202\020\231\356\2453\324\326"
 205      871D7782 
 205      1099EEA5 
 205      33D4D6
 206 012b 2A4B8C27 		.ascii	"*K\214'\220\205\224\314#m0?\254({sh\2325\011y\234|\314"
 206      908594CC 
 206      236D303F 
 206      AC287B73 
 206      689A3509 
 207 0143 56503E55 		.ascii	"VP>U,\310g\204V:;y\210L\367Q!\325\323\226H\344\374\326"
 207      2CC86784 
 207      563A3B79 
 207      884CF751 
 207      21D5D396 
 208 015b 9FA8D2A4 		.ascii	"\237\250\322\244\334\215F\033\255\252\007\002YC\241"
 208      DC8D461B 
 208      ADAA0702 
 208      5943A1
 209 016a B99FCECB 		.ascii	"\271\237\316\313\270\300\201\324\005>I\273@\337iGx\323"
 209      B8C081D4 
 209      053E49BB 
 209      40DF6947 
 209      78D3
 210 017c 4034BAC7 		.ascii	"@4\272\307\251\321\253\214\320\333R\351\237\361\364"
 210      A9D1AB8C 
 210      D0DB52E9 
 210      9FF1F4
 211 018b C748ABD2 		.ascii	"\307H\253\322\362Cd\317\037=\314}\345F4:\305N\266)J"
 211      F24364CF 
 211      1F3DCC7D 
 211      E546343A 
 211      C54EB629 
 212 01a0 03CB7349 		.ascii	"\003\313sI\017\354w\272$\317%\373!\221\003\367\266v"
 212      0FEC77BA 
 212      24CF25FB 
 212      219103F7 
 212      B676
 213 01b2 7F4F1B60 		.ascii	"\177O\033`;dz\210\332\301\245]\224\367\3118\352\303"
 213      3B647A88 
 213      DAC1A55D 
 213      94F7C938 
 213      EAC3
 214 01c4 D78E3FAB 		.ascii	"\327\216?\253(6\231~\211\240\237S@2\315\262\363q\300"
 214      2836997E 
 214      89A09F53 
 214      4032CDB2 
 214      F371C0
 215 01d7 6F6D00A3 		.ascii	"om\000\243a\267\332`/\347\024bv\270@\372\343\213\352"
 215      61B7DA60 
 215      2FE71462 
 215      76B840FA 
 215      E38BEA
 216 01ea 15D66135 		.ascii	"\025\326a5y\253\325\210\225\3217\334\204d\223\355\211"
 216      79ABD588 
 216      95D137DC 
ARM GAS  /tmp/cciKhLR3.s 			page 17


 216      846493ED 
 216      89
 217 01fb 28A7939D 		.ascii	"(\247\223\235X\245\205I\001\027j\034[\"\340\023o\016"
 217      58A58549 
 217      01176A1C 
 217      5B22E013 
 217      6F0E
 218 020d CE6AC4D4 		.ascii	"\316j\304\324\035\241\323a\361\317\005>\342q9\314\237"
 218      1DA1D361 
 218      F1CF053E 
 218      E27139CC 
 218      9F
 219 021e A3303536 		.ascii	"\243056\011\251J\344\316\020\354#K#\353!)\365\221t\315"
 219      09A94AE4 
 219      CE10EC23 
 219      4B23EB21 
 219      29F59174 
 220 0233 212DCAE6 		.ascii	"!-\312\346\306\310\275\241\036\341}%\262\331\202\033"
 220      C6C8BDA1 
 220      1EE17D25 
 220      B2D9821B 
 221 0243 D59871A3 		.ascii	"\325\230q\243d\372\005\235k0\223\337b0\314\207t$\265"
 221      64FA059D 
 221      6B3093DF 
 221      6230CC87 
 221      7424B5
 222 0256 49E2A99C 		.ascii	"I\342\251\234lO\361\353>\013\243\311!\323cX\015\035"
 222      6C4FF1EB 
 222      3E0BA3C9 
 222      21D36358 
 222      0D1D
 223 0268 A671CE74 		.ascii	"\246q\316tAk\265\220\310\232L\277\303\230:\350\034\320"
 223      416BB590 
 223      C89A4CBF 
 223      C3983AE8 
 223      1CD0
 224 027a 13A0F14B 		.ascii	"\023\240\361K\257\004\332i\2666$\335\276;\223\322\027"
 224      AF04DA69 
 224      B63624DD 
 224      BE3B93D2 
 224      17
 225 028b B16993B7 		.ascii	"\261i\223\267\321\370\306G\366\214\314T\2542\215\340"
 225      D1F8C647 
 225      F68CCC54 
 225      AC328DE0 
 226 029b AE77A6DF 		.ascii	"\256w\246\337\365\014\024\346\303\311\324m\377hX\335"
 226      F50C14E6 
 226      C3C9D46D 
 226      FF6858DD 
 227 02ab F69386B6 		.ascii	"\366\223\206\266\375\253au\333c\011\226\351q\250\353"
 227      FDAB6175 
 227      DB630996 
 227      E971A8EB 
 228 02bb D8E4FFB7 		.ascii	"\330\344\377\267__\017s\373u\032\2432\203sr\270v\036"
 228      5F5F0F73 
 228      FB751AA3 
 228      32837372 
ARM GAS  /tmp/cciKhLR3.s 			page 18


 228      B8761E
 229 02ce 77CE08CE 		.ascii	"w\316\010\316\246\357\3357<\356\027\3238\336\273\243"
 229      A6EFDD37 
 229      3CEE17D3 
 229      38DEBBA3 
 230 02de 3CEEB211 		.ascii	"<\356\262\021\334T}\357:x\334\240i\034\357\335q\036"
 230      DC547DEF 
 230      3A78DCA0 
 230      691CEFDD 
 230      711E
 231 02f0 F7A711DC 		.ascii	"\367\247\021\334L\035\357\224\206H\247\206\213}\340"
 231      4C1DEF94 
 231      8648A786 
 231      8B7DE0
 232 02ff 6F99C6F1 		.ascii	"o\231\306\361\336\365\362\336)\026\0038\247~\356\316"
 232      DEF5F2DE 
 232      29160338 
 232      A77EEECE 
 233 030f F1B8574D 		.ascii	"\361\270WM\343\222\274\203\327\250o\330\006\264i$\254"
 233      E392BC83 
 233      D7A86FD8 
 233      06B46924 
 233      AC
 234 0320 7D796361 		.ascii	"}yca\353}}\177\245\323\260\205\037OE\375\016\340\010"
 234      EB7D7D7F 
 234      A5D3B085 
 234      1F4F45FD 
 234      0EE008
 235 0333 BD8FC725 		.ascii	"\275\217\307%j\217\257\356\260'\032\332qD M\251!p\253"
 235      6A8FAFEE 
 235      B0271ADA 
 235      7144204D 
 235      A92170AB 
 236 0347 AACD27F4 		.ascii	"\252\315'\3643r\201\317\310.#\031\231\257\217\273\310"
 236      337281CF 
 236      C82E2319 
 236      99AF8FBB 
 236      C8
 237 0358 E3F69BC6 		.ascii	"\343\366\233\306\361\333\177\211\307\0354\202{F\277"
 237      F1DB7F89 
 237      C71D3482 
 237      7B46BF
 238 0367 38AFF0C5 		.ascii	"8\257\360\305\331n\032\307{\327\317{\327i\004W\250\237"
 238      D96E1AC7 
 238      7BD7CF7B 
 238      D7690457 
 238      A89F
 239 0379 BB1B3CEE 		.ascii	"\273\033<\356\224i\034_\2347\2618cU'\220\263F\352\244"
 239      94691C5F 
 239      9C37B138 
 239      63552790 
 239      B346EAA4 
 240 038d 44DFB951 		.ascii	"D\337\271Q\336\271\213F\234s\353\343n\361\270k\246q"
 240      DEB98B46 
 240      9C73EBE3 
 240      6EF1B86B 
 240      A671
ARM GAS  /tmp/cciKhLR3.s 			page 19


 241 039f FC4EDCE6 		.ascii	"\374N\334\346q\327\215\340V\353\327\311X\312G\3144\216"
 241      71D78DE0 
 241      56EBD7C9 
 241      58CA47CC 
 241      348E
 242 03b1 F7EE6ECA 		.ascii	"\367\356n\312G\314j\000\267F?w\367y\334v\3238\276N\302"
 242      47CC6A00 
 242      B7463F77 
 242      F779DC76 
 242      D338BE4E 
 243 03c6 23C975D2 		.ascii	"#\311u\322\234JKW'\225\372\3165\215p\316\3556\342\\"
 243      9C4A4B57 
 243      2795FACE 
 243      358D70CE 
 243      ED36E25C 
 244 03da AD3EAE39 		.ascii	"\255>\2569\031'\323N#\347\216Z\375X\337\341b\335g$\326"
 244      1927D34E 
 244      23E78E5A 
 244      FD58DFE1 
 244      62DD6724 
 245 03ef 7A7DE7DE 		.ascii	"z}\347\336\343c=d$V\205\352\363>\340y\207\315\363\234"
 245      E3633D64 
 245      245685EA 
 245      F33EE079 
 245      87CDF39C 
 246 0403 44F74A3E 		.ascii	"D\367J>\005\312\364G<\306v\3431\366\024j\017\352i\324"
 246      05CAF447 
 246      3CC676E3 
 246      31F6146A 
 246      0FEA69D4 
 247 0417 33A86751 		.ascii	"3\250gQ{Q\317\241\366\241^@\275\210z\005\265\037u\000"
 247      7B51CFA1 
 247      F6A15E40 
 247      BD887A05 
 247      B51F7500 
 248 042b F51AEA20 		.ascii	"\365\032\352 \352\020\352\357\250#\250\327Q\377B\275"
 248      EA10EAEF 
 248      A823A8D7 
 248      51FF42BD 
 249 043b 817A1375 		.ascii	"\201z\023u\024\365\026\352m\3241\324\177P\357\241F\215"
 249      14F516EA 
 249      6DD431D4 
 249      7F50EFA1 
 249      468D
 250 044d 1CB7BB74 		.ascii	"\034\267\273t\216\333\261?\301z\2636\011\206\017\351"
 250      8EDBB13F 
 250      C17AB336 
 250      09860FE9 
 251 045d 03549BFC 		.ascii	"\003T\233\374\010\211\237\321\337\275J\341ov\243\200"
 251      08899FD1 
 251      DFBD4AE1 
 251      6F76A380 
 252 046d 4774EBB8 		.ascii	"Gt\353\270Gt\236\301\034\330\"\244\234\320\377\356w"
 252      47749EC1 
 252      1CD822A4 
 252      9CD0FFEE 
 252      77
ARM GAS  /tmp/cciKhLR3.s 			page 20


 253 047e B0533F7B 		.ascii	"\260S?{>\376\371\374N\177\363,\370WN\265\3129\203.\260"
 253      3EFEF9FC 
 253      4E7FF32C 
 253      F8574EB5 
 253      CA39832E 
 254 0493 B9192A87 		.ascii	"\271\031*\207\313#\317\033\353w\204e\015\326k\032\346"
 254      CB23CF1B 
 254      EB778465 
 254      0DD66B1A 
 254      E6
 255 04a4 E4607793 		.ascii	"\344`w\223a\347\215\3002\034\315\357'\303~3\015\343"
 255      61E78DC0 
 255      321CCDEF 
 255      27C37E33 
 255      0DE3
 256 04b6 3D0B5F8D 		.ascii	"=\013_\215\303\264\2774\343\3002\034\313\233\256&y6"
 256      C3B4BF34 
 256      E3C0321C 
 256      CB9BAE26 
 256      7936
 257 04c8 60C4B30C 		.ascii	"`\304\263\014\207\362\346d\330\220\021X\272#y\272+\271"
 257      87F2E664 
 257      D8901158 
 257      BA2379BA 
 257      2BB9
 258 04da D464BA55 		.ascii	"\324d\272U`\237\201m\002{\275\266\243\276\216\272\003"
 258      609F816D 
 258      027BBDB6 
 258      A3BE8EBA 
 258      03
 259 04eb 358CBA13 		.ascii	"5\214\272\023\365-\301\300\313\327\220x\215\310s\001"
 259      F52DC1C0 
 259      CBD79078 
 259      8DC87301 
 260 04fb FF5A9758 		.ascii	"\377Z\227X\351_\353_\351\361\346.\310\311\315)p\271"
 260      E95FEB5F 
 260      E9F1E62E 
 260      C8C9CD29 
 260      70B9
 261 050d 6A82AE4A 		.ascii	"j\202\256J9\340\252\255\331\020\012\272<e\313\363\363"
 261      39E0AAAD 
 261      D9100ABA 
 261      3C65CBF3 
 261      F3
 262 051e 62BAA4A0 		.ascii	"b\272\244\240\276\236\365x\003\201\212\234r\362\260"
 262      BE9EF578 
 262      03818A9C 
 262      72F2B0
 263 052d DAF4AE95 		.ascii	"\332\364\256\225\313\327\327\325z+j\252d\177\265\327"
 263      CBD7D7D5 
 263      7A2B6AAA 
 263      647FB5D7 
 264 053d 5FED0F4D 		.ascii	"_\355\017M\\\272b\225S$\016m\004{65\030\252\312\317"
 264      5CBA6295 
 264      53240E6D 
 264      047B3635 
 264      18AACACF 
ARM GAS  /tmp/cciKhLR3.s 			page 21


 265 0551 F396076A 		.ascii	"\363\226\007j\312\327\343\203G]u\301\015.\177uy\240"
 265      CAD7E383 
 265      475D75C1 
 265      0D2E7F75 
 265      79A0
 266 0563 AEC2E7AA 		.ascii	"\256\302\347\252\366\275\302|\011\206*\374\325\241\234"
 266      F6BDC27C 
 266      09862AFC 
 266      D5A19C
 267 0572 4A62AB83 		.ascii	"Jb\253\203;\214\017=\231nX\225\\^\351\257\366\271\274"
 267      3B8C0F3D 
 267      996E5895 
 267      5C5EE9AF 
 267      F6B9BC
 268 0585 15BE7572 		.ascii	"\025\276ur] \344\015m\254\365\005a\332$\257W\2338\305"
 268      5D20E40D 
 268      6DACF505 
 268      61DA24AF 
 268      579B38C5 
 269 0599 B33118F2 		.ascii	"\2631\030\362U\2115\033|\"[\364y\235X}\365!\227\270"
 269      5589351B 
 269      7C225BF4 
 269      799D587D 
 269      F52197B8 
 270 05ad DCB3CC03 		.ascii	"\334\263\314\003Q&\005\212\356\256+\230\377t}=p\263"
 270      5126058A 
 270      EEAE2B98 
 270      FF747D3D 
 270      70B3
 271 05bf DD2F49DE 		.ascii	"\335/I\3362Xd\261o\235 J\026\321#eK\242\250=\312r\227"
 271      325864B1 
 271      6F9D204A 
 271      16D12365 
 271      4BA2A83D 
 272 05d6 968A4B96 		.ascii	"\226\212K\226JV&\026q\231d+*Y\224+y\312\260\221\247"
 272      4A562616 
 272      7199642B 
 272      2A59942B 
 272      79CAB091 
 273 05eb 35F259C3 		.ascii	"5\362Y\303.\025{\212\245\027\213\027\317\267\025\271"
 273      2E157B8A 
 273      A5178B17 
 273      CFB715B9 
 274 05fb B541EED8 		.ascii	"\265A\356\330\240x_n\026\003\024\257\220\330=O\275\347"
 274      A0785F6E 
 274      160314AF 
 274      90D83D4F 
 274      BDE7
 275 060d C33D3E22 		.ascii	"\303=>\"/\213\315\306\0367\216\210\367\344\333\331\334"
 275      2F8BCDC6 
 275      1E378E88 
 275      F7E4DBD9 
 275      DC
 276 061e 52377BC6 		.ascii	"R7{\306f\307[\371\261\2266\256\300\316\010j\257[\033"
 276      66C75BF9 
 276      B19636AE 
 276      C0CE086A 
ARM GAS  /tmp/cciKhLR3.s 			page 22


 276      AF5B1B
 277 0631 A7F53E65 		.ascii	"\247\365>e]\264XL\374\\0\301\343\021\227J\223 \320e"
 277      5DB4584C 
 277      FC5C30C1 
 277      E311974A 
 277      9320D065 
 278 0645 791E16E6 		.ascii	"y\036\026\346\003KJ\213<%Z\006,E\242d}\241\370e)k\245"
 278      034B4A8B 
 278      3C255A06 
 278      2C45A264 
 278      7DA1F865 
 279 065c BB8CDD05 		.ascii	"\273\214\335\005\2174\001\232\2424\0215\367_\352\030"
 279      8F34019A 
 279      A2341135 
 279      F75FEA18 
 280 066c 5559     		.ascii	"UY"
 281              		.text
 282              		.section	.gnu.lto_.symtab.5bc5f9b46db4b176,"",%progbits
 283 0000 68616C5F 		.ascii	"hal_lld_init\000\000\000\000\000\000\000\000\000\000"
 283      6C6C645F 
 283      696E6974 
 283      00000000 
 283      00000000 
 284 0016 0000A600 		.ascii	"\000\000\246\000\000\000stm32_clock_init\000\000\000"
 284      00007374 
 284      6D33325F 
 284      636C6F63 
 284      6B5F696E 
 285 002f 00000000 		.ascii	"\000\000\000\000\000\000\000\000\000\251\000\000\000"
 285      00000000 
 285      00A90000 
 285      00
 286 003c 53797374 		.ascii	"SystemCoreClock\000\000\000\000\000\000\000\000\000"
 286      656D436F 
 286      7265436C 
 286      6F636B00 
 286      00000000 
 287 0054 000000AC 		.ascii	"\000\000\000\254\000\000\000"
 287      000000
 288              		.text
 289              		.section	.gnu.lto_.opts,"",%progbits
 290 0000 272D6D63 		.ascii	"'-mcpu=cortex-m4' '-mno-thumb-interwork' '-mthumb' "
 290      70753D63 
 290      6F727465 
 290      782D6D34 
 290      2720272D 
 291 0033 272D6767 		.ascii	"'-ggdb' '-O0' '-fomit-frame-pointer' '-falign-funct"
 291      64622720 
 291      272D4F30 
 291      2720272D 
 291      666F6D69 
 292 0066 696F6E73 		.ascii	"ions=16' '-ffunction-sections' '-fdata-sections' '-"
 292      3D313627 
 292      20272D66 
 292      66756E63 
 292      74696F6E 
 293 0099 666E6F2D 		.ascii	"fno-common' '-flto'\000"
ARM GAS  /tmp/cciKhLR3.s 			page 23


 293      636F6D6D 
 293      6F6E2720 
 293      272D666C 
 293      746F2700 
 294              		.text
 295              		.cfi_sections	.debug_frame
 296              		.global	SystemCoreClock
 297              		.section	.data.SystemCoreClock,"aw",%progbits
 298              		.align	2
 299              		.type	SystemCoreClock, %object
 300              		.size	SystemCoreClock, 4
 301              	SystemCoreClock:
 302 0000 007A030A 		.word	168000000
 303              		.section	.text.hal_lld_backup_domain_init,"ax",%progbits
 304              		.align	2
 305              		.p2align 4,,15
 306              		.thumb
 307              		.thumb_func
 308              		.type	hal_lld_backup_domain_init, %function
 309              	hal_lld_backup_domain_init:
 310              	.LFB272:
 311              		.file 1 "lib/ChibiOS_16.1.4//os/hal/ports/STM32/STM32F4xx/hal_lld.c"
 312              		.loc 1 54 0
 313              		.cfi_startproc
 314              		@ args = 0, pretend = 0, frame = 0
 315              		@ frame_needed = 0, uses_anonymous_args = 0
 316              		@ link register save eliminated.
 317              		.loc 1 57 0
 318 0000 4FF4E043 		mov	r3, #28672
 319 0004 C4F20003 		movt	r3, 16384
 320 0008 4FF4E042 		mov	r2, #28672
 321 000c C4F20002 		movt	r2, 16384
 322 0010 1268     		ldr	r2, [r2]
 323 0012 42F48072 		orr	r2, r2, #256
 324 0016 1A60     		str	r2, [r3]
 325              		.loc 1 60 0
 326 0018 4FF46053 		mov	r3, #14336
 327 001c C4F20203 		movt	r3, 16386
 328 0020 1B6F     		ldr	r3, [r3, #112]
 329 0022 03F44073 		and	r3, r3, #768
 330 0026 B3F5007F 		cmp	r3, #512
 331 002a 0CD0     		beq	.L2
 332              		.loc 1 62 0
 333 002c 4FF46053 		mov	r3, #14336
 334 0030 C4F20203 		movt	r3, 16386
 335 0034 4FF48032 		mov	r2, #65536
 336 0038 1A67     		str	r2, [r3, #112]
 337              		.loc 1 63 0
 338 003a 4FF46053 		mov	r3, #14336
 339 003e C4F20203 		movt	r3, 16386
 340 0042 0022     		movs	r2, #0
 341 0044 1A67     		str	r2, [r3, #112]
 342              	.L2:
 343              		.loc 1 97 0
 344 0046 4FF4E043 		mov	r3, #28672
 345 004a C4F20003 		movt	r3, 16384
 346 004e 4FF4E042 		mov	r2, #28672
ARM GAS  /tmp/cciKhLR3.s 			page 24


 347 0052 C4F20002 		movt	r2, 16384
 348 0056 5268     		ldr	r2, [r2, #4]
 349 0058 22F40072 		bic	r2, r2, #512
 350 005c 5A60     		str	r2, [r3, #4]
 351              		.loc 1 99 0
 352 005e 7047     		bx	lr
 353              		.cfi_endproc
 354              	.LFE272:
 355              		.size	hal_lld_backup_domain_init, .-hal_lld_backup_domain_init
 356              		.section	.text.hal_lld_init,"ax",%progbits
 357              		.align	2
 358              		.p2align 4,,15
 359              		.global	hal_lld_init
 360              		.thumb
 361              		.thumb_func
 362              		.type	hal_lld_init, %function
 363              	hal_lld_init:
 364              	.LFB273:
 365              		.loc 1 114 0
 366              		.cfi_startproc
 367              		@ args = 0, pretend = 0, frame = 0
 368              		@ frame_needed = 0, uses_anonymous_args = 0
 369 0000 08B5     		push	{r3, lr}
 370              		.cfi_def_cfa_offset 8
 371              		.cfi_offset 3, -8
 372              		.cfi_offset 14, -4
 373              		.loc 1 118 0
 374 0002 4FF46053 		mov	r3, #14336
 375 0006 C4F20203 		movt	r3, 16386
 376 000a 1B69     		ldr	r3, [r3, #16]
 377 000c 4FF46053 		mov	r3, #14336
 378 0010 C4F20203 		movt	r3, 16386
 379 0014 4FF0FF32 		mov	r2, #-1
 380 0018 1A61     		str	r2, [r3, #16]
 381 001a 4FF46053 		mov	r3, #14336
 382 001e C4F20203 		movt	r3, 16386
 383 0022 0022     		movs	r2, #0
 384 0024 1A61     		str	r2, [r3, #16]
 385              		.loc 1 119 0
 386 0026 4FF46053 		mov	r3, #14336
 387 002a C4F20203 		movt	r3, 16386
 388 002e 5B69     		ldr	r3, [r3, #20]
 389 0030 4FF46053 		mov	r3, #14336
 390 0034 C4F20203 		movt	r3, 16386
 391 0038 4FF0FF32 		mov	r2, #-1
 392 003c 5A61     		str	r2, [r3, #20]
 393 003e 4FF46053 		mov	r3, #14336
 394 0042 C4F20203 		movt	r3, 16386
 395 0046 0022     		movs	r2, #0
 396 0048 5A61     		str	r2, [r3, #20]
 397              		.loc 1 120 0
 398 004a 4FF46053 		mov	r3, #14336
 399 004e C4F20203 		movt	r3, 16386
 400 0052 4FF46052 		mov	r2, #14336
 401 0056 C4F20202 		movt	r2, 16386
 402 005a 126A     		ldr	r2, [r2, #32]
 403 005c 62F08052 		orn	r2, r2, #268435456
ARM GAS  /tmp/cciKhLR3.s 			page 25


 404 0060 1A62     		str	r2, [r3, #32]
 405 0062 4FF46053 		mov	r3, #14336
 406 0066 C4F20203 		movt	r3, 16386
 407 006a 0022     		movs	r2, #0
 408 006c 1A62     		str	r2, [r3, #32]
 409              		.loc 1 121 0
 410 006e 4FF46053 		mov	r3, #14336
 411 0072 C4F20203 		movt	r3, 16386
 412 0076 5B6A     		ldr	r3, [r3, #36]
 413 0078 4FF46053 		mov	r3, #14336
 414 007c C4F20203 		movt	r3, 16386
 415 0080 4FF0FF32 		mov	r2, #-1
 416 0084 5A62     		str	r2, [r3, #36]
 417 0086 4FF46053 		mov	r3, #14336
 418 008a C4F20203 		movt	r3, 16386
 419 008e 0022     		movs	r2, #0
 420 0090 5A62     		str	r2, [r3, #36]
 421              		.loc 1 124 0
 422 0092 4FF46053 		mov	r3, #14336
 423 0096 C4F20203 		movt	r3, 16386
 424 009a 4FF46052 		mov	r2, #14336
 425 009e C4F20202 		movt	r2, 16386
 426 00a2 126C     		ldr	r2, [r2, #64]
 427 00a4 42F08052 		orr	r2, r2, #268435456
 428 00a8 1A64     		str	r2, [r3, #64]
 429              		.loc 1 127 0
 430 00aa FFF7FEFF 		bl	hal_lld_backup_domain_init
 431              		.loc 1 137 0
 432 00ae 08BD     		pop	{r3, pc}
 433              		.cfi_endproc
 434              	.LFE273:
 435              		.size	hal_lld_init, .-hal_lld_init
 436              		.section	.text.stm32_clock_init,"ax",%progbits
 437              		.align	2
 438              		.p2align 4,,15
 439              		.global	stm32_clock_init
 440              		.thumb
 441              		.thumb_func
 442              		.type	stm32_clock_init, %function
 443              	stm32_clock_init:
 444              	.LFB274:
 445              		.loc 1 146 0
 446              		.cfi_startproc
 447              		@ args = 0, pretend = 0, frame = 0
 448              		@ frame_needed = 0, uses_anonymous_args = 0
 449              		@ link register save eliminated.
 450              		.loc 1 150 0
 451 0000 4FF46053 		mov	r3, #14336
 452 0004 C4F20203 		movt	r3, 16386
 453 0008 4FF08052 		mov	r2, #268435456
 454 000c 1A64     		str	r2, [r3, #64]
 455              		.loc 1 154 0
 456 000e 4FF4E043 		mov	r3, #28672
 457 0012 C4F20003 		movt	r3, 16384
 458 0016 4FF44042 		mov	r2, #49152
 459 001a 1A60     		str	r2, [r3]
 460              		.loc 1 161 0
ARM GAS  /tmp/cciKhLR3.s 			page 26


 461 001c 4FF46053 		mov	r3, #14336
 462 0020 C4F20203 		movt	r3, 16386
 463 0024 4FF46052 		mov	r2, #14336
 464 0028 C4F20202 		movt	r2, 16386
 465 002c 1268     		ldr	r2, [r2]
 466 002e 42F00102 		orr	r2, r2, #1
 467 0032 1A60     		str	r2, [r3]
 468              		.loc 1 162 0
 469 0034 00BF     		nop
 470              	.L5:
 471              		.loc 1 162 0 is_stmt 0 discriminator 1
 472 0036 4FF46053 		mov	r3, #14336
 473 003a C4F20203 		movt	r3, 16386
 474 003e 1B68     		ldr	r3, [r3]
 475 0040 03F00203 		and	r3, r3, #2
 476 0044 002B     		cmp	r3, #0
 477 0046 F6D0     		beq	.L5
 478              		.loc 1 168 0 is_stmt 1
 479 0048 4FF46053 		mov	r3, #14336
 480 004c C4F20203 		movt	r3, 16386
 481 0050 4FF46052 		mov	r2, #14336
 482 0054 C4F20202 		movt	r2, 16386
 483 0058 9268     		ldr	r2, [r2, #8]
 484 005a 22F00302 		bic	r2, r2, #3
 485 005e 9A60     		str	r2, [r3, #8]
 486              		.loc 1 169 0
 487 0060 4FF46053 		mov	r3, #14336
 488 0064 C4F20203 		movt	r3, 16386
 489 0068 4FF46052 		mov	r2, #14336
 490 006c C4F20202 		movt	r2, 16386
 491 0070 9268     		ldr	r2, [r2, #8]
 492 0072 9A60     		str	r2, [r3, #8]
 493              		.loc 1 170 0
 494 0074 00BF     		nop
 495              	.L6:
 496              		.loc 1 170 0 is_stmt 0 discriminator 1
 497 0076 4FF46053 		mov	r3, #14336
 498 007a C4F20203 		movt	r3, 16386
 499 007e 9B68     		ldr	r3, [r3, #8]
 500 0080 03F00C03 		and	r3, r3, #12
 501 0084 002B     		cmp	r3, #0
 502 0086 F6D1     		bne	.L6
 503              		.loc 1 174 0 is_stmt 1
 504 0088 4FF46053 		mov	r3, #14336
 505 008c C4F20203 		movt	r3, 16386
 506 0090 4FF46052 		mov	r2, #14336
 507 0094 C4F20202 		movt	r2, 16386
 508 0098 1268     		ldr	r2, [r2]
 509 009a 02F0F902 		and	r2, r2, #249
 510 009e 1A60     		str	r2, [r3]
 511              		.loc 1 175 0
 512 00a0 4FF46053 		mov	r3, #14336
 513 00a4 C4F20203 		movt	r3, 16386
 514 00a8 0022     		movs	r2, #0
 515 00aa 9A60     		str	r2, [r3, #8]
 516              		.loc 1 184 0
 517 00ac 4FF46053 		mov	r3, #14336
ARM GAS  /tmp/cciKhLR3.s 			page 27


 518 00b0 C4F20203 		movt	r3, 16386
 519 00b4 4FF46052 		mov	r2, #14336
 520 00b8 C4F20202 		movt	r2, 16386
 521 00bc 1268     		ldr	r2, [r2]
 522 00be 42F48032 		orr	r2, r2, #65536
 523 00c2 1A60     		str	r2, [r3]
 524              		.loc 1 186 0
 525 00c4 00BF     		nop
 526              	.L7:
 527              		.loc 1 186 0 is_stmt 0 discriminator 1
 528 00c6 4FF46053 		mov	r3, #14336
 529 00ca C4F20203 		movt	r3, 16386
 530 00ce 1B68     		ldr	r3, [r3]
 531 00d0 03F40033 		and	r3, r3, #131072
 532 00d4 002B     		cmp	r3, #0
 533 00d6 F6D0     		beq	.L7
 534              		.loc 1 192 0 is_stmt 1
 535 00d8 4FF46053 		mov	r3, #14336
 536 00dc C4F20203 		movt	r3, 16386
 537 00e0 4FF46052 		mov	r2, #14336
 538 00e4 C4F20202 		movt	r2, 16386
 539 00e8 526F     		ldr	r2, [r2, #116]
 540 00ea 42F00102 		orr	r2, r2, #1
 541 00ee 5A67     		str	r2, [r3, #116]
 542              		.loc 1 193 0
 543 00f0 00BF     		nop
 544              	.L8:
 545              		.loc 1 193 0 is_stmt 0 discriminator 1
 546 00f2 4FF46053 		mov	r3, #14336
 547 00f6 C4F20203 		movt	r3, 16386
 548 00fa 5B6F     		ldr	r3, [r3, #116]
 549 00fc 03F00203 		and	r3, r3, #2
 550 0100 002B     		cmp	r3, #0
 551 0102 F6D0     		beq	.L8
 552              		.loc 1 199 0 is_stmt 1
 553 0104 4FF46053 		mov	r3, #14336
 554 0108 C4F20203 		movt	r3, 16386
 555 010c 45F20842 		movw	r2, #21512
 556 0110 C0F24072 		movt	r2, 1856
 557 0114 5A60     		str	r2, [r3, #4]
 558              		.loc 1 201 0
 559 0116 4FF46053 		mov	r3, #14336
 560 011a C4F20203 		movt	r3, 16386
 561 011e 4FF46052 		mov	r2, #14336
 562 0122 C4F20202 		movt	r2, 16386
 563 0126 1268     		ldr	r2, [r2]
 564 0128 42F08072 		orr	r2, r2, #16777216
 565 012c 1A60     		str	r2, [r3]
 566              		.loc 1 205 0
 567 012e 00BF     		nop
 568              	.L9:
 569              		.loc 1 205 0 is_stmt 0 discriminator 1
 570 0130 4FF4E043 		mov	r3, #28672
 571 0134 C4F20003 		movt	r3, 16384
 572 0138 5B68     		ldr	r3, [r3, #4]
 573 013a 03F48043 		and	r3, r3, #16384
 574 013e 002B     		cmp	r3, #0
ARM GAS  /tmp/cciKhLR3.s 			page 28


 575 0140 F6D0     		beq	.L9
 576              		.loc 1 221 0 is_stmt 1
 577 0142 00BF     		nop
 578              	.L10:
 579              		.loc 1 221 0 is_stmt 0 discriminator 1
 580 0144 4FF46053 		mov	r3, #14336
 581 0148 C4F20203 		movt	r3, 16386
 582 014c 1B68     		ldr	r3, [r3]
 583 014e 03F00073 		and	r3, r3, #33554432
 584 0152 002B     		cmp	r3, #0
 585 0154 F6D0     		beq	.L10
 586              		.loc 1 247 0 is_stmt 1
 587 0156 4FF46053 		mov	r3, #14336
 588 015a C4F20203 		movt	r3, 16386
 589 015e 4FF41442 		mov	r2, #37888
 590 0162 C3F68802 		movt	r2, 14472
 591 0166 9A60     		str	r2, [r3, #8]
 592              		.loc 1 261 0
 593 0168 4FF47053 		mov	r3, #15360
 594 016c C4F20203 		movt	r3, 16386
 595 0170 40F20572 		movw	r2, #1797
 596 0174 1A60     		str	r2, [r3]
 597              		.loc 1 267 0
 598 0176 4FF46053 		mov	r3, #14336
 599 017a C4F20203 		movt	r3, 16386
 600 017e 4FF46052 		mov	r2, #14336
 601 0182 C4F20202 		movt	r2, 16386
 602 0186 9268     		ldr	r2, [r2, #8]
 603 0188 42F00202 		orr	r2, r2, #2
 604 018c 9A60     		str	r2, [r3, #8]
 605              		.loc 1 268 0
 606 018e 00BF     		nop
 607              	.L11:
 608              		.loc 1 268 0 is_stmt 0 discriminator 1
 609 0190 4FF46053 		mov	r3, #14336
 610 0194 C4F20203 		movt	r3, 16386
 611 0198 9B68     		ldr	r3, [r3, #8]
 612 019a 03F00C03 		and	r3, r3, #12
 613 019e 082B     		cmp	r3, #8
 614 01a0 F6D1     		bne	.L11
 615              		.loc 1 275 0 is_stmt 1
 616 01a2 4FF46053 		mov	r3, #14336
 617 01a6 C4F20203 		movt	r3, 16386
 618 01aa 4FF46052 		mov	r2, #14336
 619 01ae C4F20202 		movt	r2, 16386
 620 01b2 526C     		ldr	r2, [r2, #68]
 621 01b4 42F48042 		orr	r2, r2, #16384
 622 01b8 5A64     		str	r2, [r3, #68]
 623 01ba 4FF46053 		mov	r3, #14336
 624 01be C4F20203 		movt	r3, 16386
 625 01c2 4FF46052 		mov	r2, #14336
 626 01c6 C4F20202 		movt	r2, 16386
 627 01ca 526E     		ldr	r2, [r2, #100]
 628 01cc 42F48042 		orr	r2, r2, #16384
 629 01d0 5A66     		str	r2, [r3, #100]
 630              		.loc 1 276 0
 631 01d2 7047     		bx	lr
ARM GAS  /tmp/cciKhLR3.s 			page 29


 632              		.cfi_endproc
 633              	.LFE274:
 634              		.size	stm32_clock_init, .-stm32_clock_init
 635 01d4 AFF30080 		.text
 635      AFF30080 
 635      AFF30080 
 636              	.Letext0:
 637              		.file 2 "/usr/lib/gcc/arm-none-eabi/4.8.2/include/stddef.h"
 638              		.file 3 "/usr/include/newlib/machine/_default_types.h"
 639              		.file 4 "/usr/include/newlib/stdint.h"
 640              		.file 5 "lib/ChibiOS_16.1.4//os/rt/ports/ARMCMx/compilers/GCC/chtypes.h"
 641              		.file 6 "lib/ChibiOS_16.1.4//os/rt/include/chsystypes.h"
 642              		.file 7 "lib/ChibiOS_16.1.4//os/rt/include/chschd.h"
 643              		.file 8 "lib/ChibiOS_16.1.4//os/ext/CMSIS/ST/STM32F4xx/stm32f407xx.h"
 644              		.file 9 "lib/ChibiOS_16.1.4//os/rt/ports/ARMCMx/chcore.h"
 645              		.file 10 "lib/ChibiOS_16.1.4//os/rt/ports/ARMCMx/chcore_v7m.h"
 646              		.file 11 "lib/ChibiOS_16.1.4//os/rt/include/chdebug.h"
 647              		.file 12 "lib/ChibiOS_16.1.4//os/rt/include/chtm.h"
 648              		.file 13 "lib/ChibiOS_16.1.4//os/rt/include/chstats.h"
 649              		.file 14 "lib/ChibiOS_16.1.4//os/rt/include/chsem.h"
 650              		.file 15 "lib/ChibiOS_16.1.4//os/rt/include/chmtx.h"
 651              		.file 16 "lib/ChibiOS_16.1.4//os/ext/CMSIS/include/core_cm4.h"
 652              		.section	.debug_info,"",%progbits
 653              	.Ldebug_info0:
 654 0000 660A0000 		.4byte	0xa66
 655 0004 0400     		.2byte	0x4
 656 0006 00000000 		.4byte	.Ldebug_abbrev0
 657 000a 04       		.byte	0x4
 658 000b 01       		.uleb128 0x1
 659 000c 28030000 		.4byte	.LASF168
 660 0010 01       		.byte	0x1
 661 0011 30060000 		.4byte	.LASF169
 662 0015 41010000 		.4byte	.LASF170
 663 0019 00000000 		.4byte	.Ldebug_ranges0+0
 664 001d 00000000 		.4byte	0
 665 0021 00000000 		.4byte	.Ldebug_line0
 666 0025 02       		.uleb128 0x2
 667 0026 04       		.byte	0x4
 668 0027 05       		.byte	0x5
 669 0028 696E7400 		.ascii	"int\000"
 670 002c 03       		.uleb128 0x3
 671 002d 1C000000 		.4byte	.LASF2
 672 0031 02       		.byte	0x2
 673 0032 D4       		.byte	0xd4
 674 0033 37000000 		.4byte	0x37
 675 0037 04       		.uleb128 0x4
 676 0038 04       		.byte	0x4
 677 0039 07       		.byte	0x7
 678 003a 65020000 		.4byte	.LASF0
 679 003e 04       		.uleb128 0x4
 680 003f 01       		.byte	0x1
 681 0040 06       		.byte	0x6
 682 0041 35010000 		.4byte	.LASF1
 683 0045 03       		.uleb128 0x3
 684 0046 40000000 		.4byte	.LASF3
 685 004a 03       		.byte	0x3
 686 004b 1C       		.byte	0x1c
ARM GAS  /tmp/cciKhLR3.s 			page 30


 687 004c 50000000 		.4byte	0x50
 688 0050 04       		.uleb128 0x4
 689 0051 01       		.byte	0x1
 690 0052 08       		.byte	0x8
 691 0053 54050000 		.4byte	.LASF4
 692 0057 04       		.uleb128 0x4
 693 0058 02       		.byte	0x2
 694 0059 05       		.byte	0x5
 695 005a 6C050000 		.4byte	.LASF5
 696 005e 04       		.uleb128 0x4
 697 005f 02       		.byte	0x2
 698 0060 07       		.byte	0x7
 699 0061 B4020000 		.4byte	.LASF6
 700 0065 03       		.uleb128 0x3
 701 0066 04040000 		.4byte	.LASF7
 702 006a 03       		.byte	0x3
 703 006b 37       		.byte	0x37
 704 006c 70000000 		.4byte	0x70
 705 0070 04       		.uleb128 0x4
 706 0071 04       		.byte	0x4
 707 0072 05       		.byte	0x5
 708 0073 AA010000 		.4byte	.LASF8
 709 0077 03       		.uleb128 0x3
 710 0078 A7060000 		.4byte	.LASF9
 711 007c 03       		.byte	0x3
 712 007d 38       		.byte	0x38
 713 007e 82000000 		.4byte	0x82
 714 0082 04       		.uleb128 0x4
 715 0083 04       		.byte	0x4
 716 0084 07       		.byte	0x7
 717 0085 19060000 		.4byte	.LASF10
 718 0089 04       		.uleb128 0x4
 719 008a 08       		.byte	0x8
 720 008b 05       		.byte	0x5
 721 008c 27010000 		.4byte	.LASF11
 722 0090 03       		.uleb128 0x3
 723 0091 D4040000 		.4byte	.LASF12
 724 0095 03       		.byte	0x3
 725 0096 4E       		.byte	0x4e
 726 0097 9B000000 		.4byte	0x9b
 727 009b 04       		.uleb128 0x4
 728 009c 08       		.byte	0x8
 729 009d 07       		.byte	0x7
 730 009e 9C000000 		.4byte	.LASF13
 731 00a2 03       		.uleb128 0x3
 732 00a3 3D070000 		.4byte	.LASF14
 733 00a7 04       		.byte	0x4
 734 00a8 2A       		.byte	0x2a
 735 00a9 45000000 		.4byte	0x45
 736 00ad 03       		.uleb128 0x3
 737 00ae 4C050000 		.4byte	.LASF15
 738 00b2 04       		.byte	0x4
 739 00b3 41       		.byte	0x41
 740 00b4 65000000 		.4byte	0x65
 741 00b8 03       		.uleb128 0x3
 742 00b9 E8050000 		.4byte	.LASF16
 743 00bd 04       		.byte	0x4
ARM GAS  /tmp/cciKhLR3.s 			page 31


 744 00be 42       		.byte	0x42
 745 00bf 77000000 		.4byte	0x77
 746 00c3 03       		.uleb128 0x3
 747 00c4 2A000000 		.4byte	.LASF17
 748 00c8 04       		.byte	0x4
 749 00c9 4E       		.byte	0x4e
 750 00ca 90000000 		.4byte	0x90
 751 00ce 03       		.uleb128 0x3
 752 00cf F5060000 		.4byte	.LASF18
 753 00d3 05       		.byte	0x5
 754 00d4 39       		.byte	0x39
 755 00d5 B8000000 		.4byte	0xb8
 756 00d9 03       		.uleb128 0x3
 757 00da 0D010000 		.4byte	.LASF19
 758 00de 05       		.byte	0x5
 759 00df 3A       		.byte	0x3a
 760 00e0 C3000000 		.4byte	0xc3
 761 00e4 03       		.uleb128 0x3
 762 00e5 60070000 		.4byte	.LASF20
 763 00e9 05       		.byte	0x5
 764 00ea 3C       		.byte	0x3c
 765 00eb A2000000 		.4byte	0xa2
 766 00ef 03       		.uleb128 0x3
 767 00f0 C6010000 		.4byte	.LASF21
 768 00f4 05       		.byte	0x5
 769 00f5 3D       		.byte	0x3d
 770 00f6 A2000000 		.4byte	0xa2
 771 00fa 03       		.uleb128 0x3
 772 00fb EA040000 		.4byte	.LASF22
 773 00ff 05       		.byte	0x5
 774 0100 3E       		.byte	0x3e
 775 0101 A2000000 		.4byte	0xa2
 776 0105 03       		.uleb128 0x3
 777 0106 35050000 		.4byte	.LASF23
 778 010a 05       		.byte	0x5
 779 010b 40       		.byte	0x40
 780 010c B8000000 		.4byte	0xb8
 781 0110 03       		.uleb128 0x3
 782 0111 EB020000 		.4byte	.LASF24
 783 0115 05       		.byte	0x5
 784 0116 41       		.byte	0x41
 785 0117 AD000000 		.4byte	0xad
 786 011b 03       		.uleb128 0x3
 787 011c F8030000 		.4byte	.LASF25
 788 0120 05       		.byte	0x5
 789 0121 43       		.byte	0x43
 790 0122 B8000000 		.4byte	0xb8
 791 0126 03       		.uleb128 0x3
 792 0127 54020000 		.4byte	.LASF26
 793 012b 05       		.byte	0x5
 794 012c 45       		.byte	0x45
 795 012d AD000000 		.4byte	0xad
 796 0131 03       		.uleb128 0x3
 797 0132 FA020000 		.4byte	.LASF27
 798 0136 05       		.byte	0x5
 799 0137 46       		.byte	0x46
 800 0138 B8000000 		.4byte	0xb8
ARM GAS  /tmp/cciKhLR3.s 			page 32


 801 013c 03       		.uleb128 0x3
 802 013d 89060000 		.4byte	.LASF28
 803 0141 06       		.byte	0x6
 804 0142 33       		.byte	0x33
 805 0143 B8000000 		.4byte	0xb8
 806 0147 03       		.uleb128 0x3
 807 0148 74060000 		.4byte	.LASF29
 808 014c 06       		.byte	0x6
 809 014d 3F       		.byte	0x3f
 810 014e 52010000 		.4byte	0x152
 811 0152 05       		.uleb128 0x5
 812 0153 D6020000 		.4byte	.LASF51
 813 0157 60       		.byte	0x60
 814 0158 07       		.byte	0x7
 815 0159 C2       		.byte	0xc2
 816 015a 58020000 		.4byte	0x258
 817 015e 06       		.uleb128 0x6
 818 015f 96050000 		.4byte	.LASF30
 819 0163 07       		.byte	0x7
 820 0164 C3       		.byte	0xc3
 821 0165 63020000 		.4byte	0x263
 822 0169 00       		.byte	0
 823 016a 06       		.uleb128 0x6
 824 016b 24050000 		.4byte	.LASF31
 825 016f 07       		.byte	0x7
 826 0170 C5       		.byte	0xc5
 827 0171 63020000 		.4byte	0x263
 828 0175 04       		.byte	0x4
 829 0176 06       		.uleb128 0x6
 830 0177 20010000 		.4byte	.LASF32
 831 017b 07       		.byte	0x7
 832 017c C7       		.byte	0xc7
 833 017d 05010000 		.4byte	0x105
 834 0181 08       		.byte	0x8
 835 0182 06       		.uleb128 0x6
 836 0183 98070000 		.4byte	.LASF33
 837 0187 07       		.byte	0x7
 838 0188 C8       		.byte	0xc8
 839 0189 1A070000 		.4byte	0x71a
 840 018d 0C       		.byte	0xc
 841 018e 06       		.uleb128 0x6
 842 018f DD010000 		.4byte	.LASF34
 843 0193 07       		.byte	0x7
 844 0194 CA       		.byte	0xca
 845 0195 63020000 		.4byte	0x263
 846 0199 10       		.byte	0x10
 847 019a 06       		.uleb128 0x6
 848 019b 98040000 		.4byte	.LASF35
 849 019f 07       		.byte	0x7
 850 01a0 CB       		.byte	0xcb
 851 01a1 63020000 		.4byte	0x263
 852 01a5 14       		.byte	0x14
 853 01a6 06       		.uleb128 0x6
 854 01a7 4C070000 		.4byte	.LASF36
 855 01ab 07       		.byte	0x7
 856 01ac D2       		.byte	0xd2
 857 01ad BE090000 		.4byte	0x9be
ARM GAS  /tmp/cciKhLR3.s 			page 33


 858 01b1 18       		.byte	0x18
 859 01b2 06       		.uleb128 0x6
 860 01b3 5A020000 		.4byte	.LASF37
 861 01b7 07       		.byte	0x7
 862 01b8 D8       		.byte	0xd8
 863 01b9 D0090000 		.4byte	0x9d0
 864 01bd 1C       		.byte	0x1c
 865 01be 06       		.uleb128 0x6
 866 01bf 76050000 		.4byte	.LASF38
 867 01c3 07       		.byte	0x7
 868 01c4 DD       		.byte	0xdd
 869 01c5 EF000000 		.4byte	0xef
 870 01c9 20       		.byte	0x20
 871 01ca 06       		.uleb128 0x6
 872 01cb 9D050000 		.4byte	.LASF39
 873 01cf 07       		.byte	0x7
 874 01d0 E1       		.byte	0xe1
 875 01d1 E4000000 		.4byte	0xe4
 876 01d5 21       		.byte	0x21
 877 01d6 06       		.uleb128 0x6
 878 01d7 23070000 		.4byte	.LASF40
 879 01db 07       		.byte	0x7
 880 01dc E6       		.byte	0xe6
 881 01dd FA000000 		.4byte	0xfa
 882 01e1 22       		.byte	0x22
 883 01e2 07       		.uleb128 0x7
 884 01e3 705F7500 		.ascii	"p_u\000"
 885 01e7 07       		.byte	0x7
 886 01e8 3101     		.2byte	0x131
 887 01ea F9080000 		.4byte	0x8f9
 888 01ee 24       		.byte	0x24
 889 01ef 08       		.uleb128 0x8
 890 01f0 38040000 		.4byte	.LASF41
 891 01f4 07       		.byte	0x7
 892 01f5 3601     		.2byte	0x136
 893 01f7 69020000 		.4byte	0x269
 894 01fb 28       		.byte	0x28
 895 01fc 08       		.uleb128 0x8
 896 01fd 91020000 		.4byte	.LASF42
 897 0201 07       		.byte	0x7
 898 0202 3C01     		.2byte	0x13c
 899 0204 8D020000 		.4byte	0x28d
 900 0208 2C       		.byte	0x2c
 901 0209 08       		.uleb128 0x8
 902 020a 75070000 		.4byte	.LASF43
 903 020e 07       		.byte	0x7
 904 020f 4001     		.2byte	0x140
 905 0211 10010000 		.4byte	0x110
 906 0215 34       		.byte	0x34
 907 0216 08       		.uleb128 0x8
 908 0217 D3050000 		.4byte	.LASF44
 909 021b 07       		.byte	0x7
 910 021c 4601     		.2byte	0x146
 911 021e 1B010000 		.4byte	0x11b
 912 0222 38       		.byte	0x38
 913 0223 08       		.uleb128 0x8
 914 0224 62050000 		.4byte	.LASF45
ARM GAS  /tmp/cciKhLR3.s 			page 34


 915 0228 07       		.byte	0x7
 916 0229 4D01     		.2byte	0x14d
 917 022b B8090000 		.4byte	0x9b8
 918 022f 3C       		.byte	0x3c
 919 0230 08       		.uleb128 0x8
 920 0231 93060000 		.4byte	.LASF46
 921 0235 07       		.byte	0x7
 922 0236 5101     		.2byte	0x151
 923 0238 05010000 		.4byte	0x105
 924 023c 40       		.byte	0x40
 925 023d 08       		.uleb128 0x8
 926 023e 77010000 		.4byte	.LASF47
 927 0242 07       		.byte	0x7
 928 0243 5801     		.2byte	0x158
 929 0245 40030000 		.4byte	0x340
 930 0249 44       		.byte	0x44
 931 024a 08       		.uleb128 0x8
 932 024b A5050000 		.4byte	.LASF48
 933 024f 07       		.byte	0x7
 934 0250 5E01     		.2byte	0x15e
 935 0252 AA080000 		.4byte	0x8aa
 936 0256 48       		.byte	0x48
 937 0257 00       		.byte	0
 938 0258 03       		.uleb128 0x3
 939 0259 4B040000 		.4byte	.LASF49
 940 025d 06       		.byte	0x6
 941 025e 44       		.byte	0x44
 942 025f 63020000 		.4byte	0x263
 943 0263 09       		.uleb128 0x9
 944 0264 04       		.byte	0x4
 945 0265 47010000 		.4byte	0x147
 946 0269 03       		.uleb128 0x3
 947 026a 19040000 		.4byte	.LASF50
 948 026e 06       		.byte	0x6
 949 026f 49       		.byte	0x49
 950 0270 74020000 		.4byte	0x274
 951 0274 05       		.uleb128 0x5
 952 0275 09060000 		.4byte	.LASF52
 953 0279 04       		.byte	0x4
 954 027a 07       		.byte	0x7
 955 027b B0       		.byte	0xb0
 956 027c 8D020000 		.4byte	0x28d
 957 0280 06       		.uleb128 0x6
 958 0281 96050000 		.4byte	.LASF30
 959 0285 07       		.byte	0x7
 960 0286 B1       		.byte	0xb1
 961 0287 63020000 		.4byte	0x263
 962 028b 00       		.byte	0
 963 028c 00       		.byte	0
 964 028d 03       		.uleb128 0x3
 965 028e 0A070000 		.4byte	.LASF53
 966 0292 06       		.byte	0x6
 967 0293 50       		.byte	0x50
 968 0294 98020000 		.4byte	0x298
 969 0298 05       		.uleb128 0x5
 970 0299 56000000 		.4byte	.LASF54
 971 029d 08       		.byte	0x8
ARM GAS  /tmp/cciKhLR3.s 			page 35


 972 029e 07       		.byte	0x7
 973 029f B7       		.byte	0xb7
 974 02a0 BD020000 		.4byte	0x2bd
 975 02a4 06       		.uleb128 0x6
 976 02a5 96050000 		.4byte	.LASF30
 977 02a9 07       		.byte	0x7
 978 02aa B8       		.byte	0xb8
 979 02ab 63020000 		.4byte	0x263
 980 02af 00       		.byte	0
 981 02b0 06       		.uleb128 0x6
 982 02b1 24050000 		.4byte	.LASF31
 983 02b5 07       		.byte	0x7
 984 02b6 B9       		.byte	0xb9
 985 02b7 63020000 		.4byte	0x263
 986 02bb 04       		.byte	0x4
 987 02bc 00       		.byte	0
 988 02bd 03       		.uleb128 0x3
 989 02be 07000000 		.4byte	.LASF55
 990 02c2 06       		.byte	0x6
 991 02c3 57       		.byte	0x57
 992 02c4 C8020000 		.4byte	0x2c8
 993 02c8 0A       		.uleb128 0xa
 994 02c9 EA030000 		.4byte	.LASF56
 995 02cd 1C       		.byte	0x1c
 996 02ce 07       		.byte	0x7
 997 02cf 9001     		.2byte	0x190
 998 02d1 24030000 		.4byte	0x324
 999 02d5 08       		.uleb128 0x8
 1000 02d6 F8050000 		.4byte	.LASF57
 1001 02da 07       		.byte	0x7
 1002 02db 9101     		.2byte	0x191
 1003 02dd 8D020000 		.4byte	0x28d
 1004 02e1 00       		.byte	0
 1005 02e2 08       		.uleb128 0x8
 1006 02e3 88050000 		.4byte	.LASF58
 1007 02e7 07       		.byte	0x7
 1008 02e8 9201     		.2byte	0x192
 1009 02ea 05010000 		.4byte	0x105
 1010 02ee 08       		.byte	0x8
 1011 02ef 08       		.uleb128 0x8
 1012 02f0 A0040000 		.4byte	.LASF59
 1013 02f4 07       		.byte	0x7
 1014 02f5 9401     		.2byte	0x194
 1015 02f7 1A070000 		.4byte	0x71a
 1016 02fb 0C       		.byte	0xc
 1017 02fc 08       		.uleb128 0x8
 1018 02fd F5010000 		.4byte	.LASF60
 1019 0301 07       		.byte	0x7
 1020 0302 9701     		.2byte	0x197
 1021 0304 63020000 		.4byte	0x263
 1022 0308 10       		.byte	0x10
 1023 0309 08       		.uleb128 0x8
 1024 030a E0060000 		.4byte	.LASF61
 1025 030e 07       		.byte	0x7
 1026 030f 9801     		.2byte	0x198
 1027 0311 63020000 		.4byte	0x263
 1028 0315 14       		.byte	0x14
ARM GAS  /tmp/cciKhLR3.s 			page 36


 1029 0316 08       		.uleb128 0x8
 1030 0317 C1040000 		.4byte	.LASF62
 1031 031b 07       		.byte	0x7
 1032 031c 9B01     		.2byte	0x19b
 1033 031e 63020000 		.4byte	0x263
 1034 0322 18       		.byte	0x18
 1035 0323 00       		.byte	0
 1036 0324 03       		.uleb128 0x3
 1037 0325 9E060000 		.4byte	.LASF63
 1038 0329 06       		.byte	0x6
 1039 032a 5C       		.byte	0x5c
 1040 032b 2F030000 		.4byte	0x32f
 1041 032f 09       		.uleb128 0x9
 1042 0330 04       		.byte	0x4
 1043 0331 35030000 		.4byte	0x335
 1044 0335 0B       		.uleb128 0xb
 1045 0336 40030000 		.4byte	0x340
 1046 033a 0C       		.uleb128 0xc
 1047 033b 40030000 		.4byte	0x340
 1048 033f 00       		.byte	0
 1049 0340 0D       		.uleb128 0xd
 1050 0341 04       		.byte	0x4
 1051 0342 03       		.uleb128 0x3
 1052 0343 28040000 		.4byte	.LASF64
 1053 0347 06       		.byte	0x6
 1054 0348 61       		.byte	0x61
 1055 0349 4D030000 		.4byte	0x34d
 1056 034d 0A       		.uleb128 0xa
 1057 034e B5050000 		.4byte	.LASF65
 1058 0352 14       		.byte	0x14
 1059 0353 07       		.byte	0x7
 1060 0354 6B01     		.2byte	0x16b
 1061 0356 9C030000 		.4byte	0x39c
 1062 035a 08       		.uleb128 0x8
 1063 035b 72020000 		.4byte	.LASF66
 1064 035f 07       		.byte	0x7
 1065 0360 6C01     		.2byte	0x16c
 1066 0362 D6090000 		.4byte	0x9d6
 1067 0366 00       		.byte	0
 1068 0367 08       		.uleb128 0x8
 1069 0368 06020000 		.4byte	.LASF67
 1070 036c 07       		.byte	0x7
 1071 036d 6D01     		.2byte	0x16d
 1072 036f D6090000 		.4byte	0x9d6
 1073 0373 04       		.byte	0x4
 1074 0374 08       		.uleb128 0x8
 1075 0375 00060000 		.4byte	.LASF68
 1076 0379 07       		.byte	0x7
 1077 037a 6E01     		.2byte	0x16e
 1078 037c 3C010000 		.4byte	0x13c
 1079 0380 08       		.byte	0x8
 1080 0381 08       		.uleb128 0x8
 1081 0382 9E070000 		.4byte	.LASF69
 1082 0386 07       		.byte	0x7
 1083 0387 6F01     		.2byte	0x16f
 1084 0389 24030000 		.4byte	0x324
 1085 038d 0C       		.byte	0xc
ARM GAS  /tmp/cciKhLR3.s 			page 37


 1086 038e 08       		.uleb128 0x8
 1087 038f FD060000 		.4byte	.LASF70
 1088 0393 07       		.byte	0x7
 1089 0394 7101     		.2byte	0x171
 1090 0396 40030000 		.4byte	0x340
 1091 039a 10       		.byte	0x10
 1092 039b 00       		.byte	0
 1093 039c 03       		.uleb128 0x3
 1094 039d EA000000 		.4byte	.LASF71
 1095 03a1 06       		.byte	0x6
 1096 03a2 66       		.byte	0x66
 1097 03a3 A7030000 		.4byte	0x3a7
 1098 03a7 0A       		.uleb128 0xa
 1099 03a8 5E040000 		.4byte	.LASF72
 1100 03ac 10       		.byte	0x10
 1101 03ad 07       		.byte	0x7
 1102 03ae 7B01     		.2byte	0x17b
 1103 03b0 E9030000 		.4byte	0x3e9
 1104 03b4 08       		.uleb128 0x8
 1105 03b5 72020000 		.4byte	.LASF66
 1106 03b9 07       		.byte	0x7
 1107 03ba 7C01     		.2byte	0x17c
 1108 03bc D6090000 		.4byte	0x9d6
 1109 03c0 00       		.byte	0
 1110 03c1 08       		.uleb128 0x8
 1111 03c2 06020000 		.4byte	.LASF67
 1112 03c6 07       		.byte	0x7
 1113 03c7 7E01     		.2byte	0x17e
 1114 03c9 D6090000 		.4byte	0x9d6
 1115 03cd 04       		.byte	0x4
 1116 03ce 08       		.uleb128 0x8
 1117 03cf 00060000 		.4byte	.LASF68
 1118 03d3 07       		.byte	0x7
 1119 03d4 8001     		.2byte	0x180
 1120 03d6 3C010000 		.4byte	0x13c
 1121 03da 08       		.byte	0x8
 1122 03db 08       		.uleb128 0x8
 1123 03dc 8C040000 		.4byte	.LASF73
 1124 03e0 07       		.byte	0x7
 1125 03e1 8801     		.2byte	0x188
 1126 03e3 3C010000 		.4byte	0x13c
 1127 03e7 0C       		.byte	0xc
 1128 03e8 00       		.byte	0
 1129 03e9 03       		.uleb128 0x3
 1130 03ea 67000000 		.4byte	.LASF74
 1131 03ee 06       		.byte	0x6
 1132 03ef 6B       		.byte	0x6b
 1133 03f0 F4030000 		.4byte	0x3f4
 1134 03f4 0E       		.uleb128 0xe
 1135 03f5 13020000 		.4byte	.LASF75
 1136 03f9 1404     		.2byte	0x414
 1137 03fb 07       		.byte	0x7
 1138 03fc A201     		.2byte	0x1a2
 1139 03fe 37040000 		.4byte	0x437
 1140 0402 08       		.uleb128 0x8
 1141 0403 B7060000 		.4byte	.LASF76
 1142 0407 07       		.byte	0x7
ARM GAS  /tmp/cciKhLR3.s 			page 38


 1143 0408 AA01     		.2byte	0x1aa
 1144 040a DC090000 		.4byte	0x9dc
 1145 040e 00       		.byte	0
 1146 040f 08       		.uleb128 0x8
 1147 0410 2A070000 		.4byte	.LASF77
 1148 0414 07       		.byte	0x7
 1149 0415 AF01     		.2byte	0x1af
 1150 0417 26010000 		.4byte	0x126
 1151 041b 04       		.byte	0x4
 1152 041c 08       		.uleb128 0x8
 1153 041d 3C020000 		.4byte	.LASF78
 1154 0421 07       		.byte	0x7
 1155 0422 B301     		.2byte	0x1b3
 1156 0424 26010000 		.4byte	0x126
 1157 0428 08       		.byte	0x8
 1158 0429 08       		.uleb128 0x8
 1159 042a 68070000 		.4byte	.LASF79
 1160 042e 07       		.byte	0x7
 1161 042f B901     		.2byte	0x1b9
 1162 0431 3C080000 		.4byte	0x83c
 1163 0435 0C       		.byte	0xc
 1164 0436 00       		.byte	0
 1165 0437 03       		.uleb128 0x3
 1166 0438 1C030000 		.4byte	.LASF80
 1167 043c 06       		.byte	0x6
 1168 043d 70       		.byte	0x70
 1169 043e 42040000 		.4byte	0x442
 1170 0442 0E       		.uleb128 0xe
 1171 0443 A0010000 		.4byte	.LASF81
 1172 0447 D805     		.2byte	0x5d8
 1173 0449 07       		.byte	0x7
 1174 044a C201     		.2byte	0x1c2
 1175 044c AF040000 		.4byte	0x4af
 1176 0450 08       		.uleb128 0x8
 1177 0451 37070000 		.4byte	.LASF82
 1178 0455 07       		.byte	0x7
 1179 0456 C601     		.2byte	0x1c6
 1180 0458 BD020000 		.4byte	0x2bd
 1181 045c 00       		.byte	0
 1182 045d 08       		.uleb128 0x8
 1183 045e 87010000 		.4byte	.LASF83
 1184 0462 07       		.byte	0x7
 1185 0463 CA01     		.2byte	0x1ca
 1186 0465 9C030000 		.4byte	0x39c
 1187 0469 1C       		.byte	0x1c
 1188 046a 07       		.uleb128 0x7
 1189 046b 64626700 		.ascii	"dbg\000"
 1190 046f 07       		.byte	0x7
 1191 0470 CE01     		.2byte	0x1ce
 1192 0472 E9030000 		.4byte	0x3e9
 1193 0476 2C       		.byte	0x2c
 1194 0477 0F       		.uleb128 0xf
 1195 0478 DF000000 		.4byte	.LASF84
 1196 047c 07       		.byte	0x7
 1197 047d D201     		.2byte	0x1d2
 1198 047f 47010000 		.4byte	0x147
 1199 0483 4004     		.2byte	0x440
ARM GAS  /tmp/cciKhLR3.s 			page 39


 1200 0485 10       		.uleb128 0x10
 1201 0486 746D00   		.ascii	"tm\000"
 1202 0489 07       		.byte	0x7
 1203 048a D701     		.2byte	0x1d7
 1204 048c 5C080000 		.4byte	0x85c
 1205 0490 A004     		.2byte	0x4a0
 1206 0492 0F       		.uleb128 0xf
 1207 0493 33000000 		.4byte	.LASF85
 1208 0497 07       		.byte	0x7
 1209 0498 DD01     		.2byte	0x1dd
 1210 049a EE080000 		.4byte	0x8ee
 1211 049e A804     		.2byte	0x4a8
 1212 04a0 0F       		.uleb128 0xf
 1213 04a1 45020000 		.4byte	.LASF86
 1214 04a5 07       		.byte	0x7
 1215 04a6 E301     		.2byte	0x1e3
 1216 04a8 E1090000 		.4byte	0x9e1
 1217 04ac E004     		.2byte	0x4e0
 1218 04ae 00       		.byte	0
 1219 04af 04       		.uleb128 0x4
 1220 04b0 04       		.byte	0x4
 1221 04b1 07       		.byte	0x7
 1222 04b2 42040000 		.4byte	.LASF87
 1223 04b6 11       		.uleb128 0x11
 1224 04b7 B8000000 		.4byte	0xb8
 1225 04bb 12       		.uleb128 0x12
 1226 04bc B8000000 		.4byte	0xb8
 1227 04c0 CB040000 		.4byte	0x4cb
 1228 04c4 13       		.uleb128 0x13
 1229 04c5 AF040000 		.4byte	0x4af
 1230 04c9 01       		.byte	0x1
 1231 04ca 00       		.byte	0
 1232 04cb 14       		.uleb128 0x14
 1233 04cc 1C       		.byte	0x1c
 1234 04cd 08       		.byte	0x8
 1235 04ce DA01     		.2byte	0x1da
 1236 04d0 2E050000 		.4byte	0x52e
 1237 04d4 07       		.uleb128 0x7
 1238 04d5 41435200 		.ascii	"ACR\000"
 1239 04d9 08       		.byte	0x8
 1240 04da DC01     		.2byte	0x1dc
 1241 04dc B6040000 		.4byte	0x4b6
 1242 04e0 00       		.byte	0
 1243 04e1 08       		.uleb128 0x8
 1244 04e2 0E020000 		.4byte	.LASF88
 1245 04e6 08       		.byte	0x8
 1246 04e7 DD01     		.2byte	0x1dd
 1247 04e9 B6040000 		.4byte	0x4b6
 1248 04ed 04       		.byte	0x4
 1249 04ee 08       		.uleb128 0x8
 1250 04ef D5010000 		.4byte	.LASF89
 1251 04f3 08       		.byte	0x8
 1252 04f4 DE01     		.2byte	0x1de
 1253 04f6 B6040000 		.4byte	0x4b6
 1254 04fa 08       		.byte	0x8
 1255 04fb 07       		.uleb128 0x7
 1256 04fc 535200   		.ascii	"SR\000"
ARM GAS  /tmp/cciKhLR3.s 			page 40


 1257 04ff 08       		.byte	0x8
 1258 0500 DF01     		.2byte	0x1df
 1259 0502 B6040000 		.4byte	0x4b6
 1260 0506 0C       		.byte	0xc
 1261 0507 07       		.uleb128 0x7
 1262 0508 435200   		.ascii	"CR\000"
 1263 050b 08       		.byte	0x8
 1264 050c E001     		.2byte	0x1e0
 1265 050e B6040000 		.4byte	0x4b6
 1266 0512 10       		.byte	0x10
 1267 0513 08       		.uleb128 0x8
 1268 0514 76000000 		.4byte	.LASF90
 1269 0518 08       		.byte	0x8
 1270 0519 E101     		.2byte	0x1e1
 1271 051b B6040000 		.4byte	0x4b6
 1272 051f 14       		.byte	0x14
 1273 0520 08       		.uleb128 0x8
 1274 0521 82000000 		.4byte	.LASF91
 1275 0525 08       		.byte	0x8
 1276 0526 E201     		.2byte	0x1e2
 1277 0528 B6040000 		.4byte	0x4b6
 1278 052c 18       		.byte	0x18
 1279 052d 00       		.byte	0
 1280 052e 15       		.uleb128 0x15
 1281 052f 69010000 		.4byte	.LASF92
 1282 0533 08       		.byte	0x8
 1283 0534 E301     		.2byte	0x1e3
 1284 0536 CB040000 		.4byte	0x4cb
 1285 053a 14       		.uleb128 0x14
 1286 053b 08       		.byte	0x8
 1287 053c 08       		.byte	0x8
 1288 053d 5C02     		.2byte	0x25c
 1289 053f 5D050000 		.4byte	0x55d
 1290 0543 07       		.uleb128 0x7
 1291 0544 435200   		.ascii	"CR\000"
 1292 0547 08       		.byte	0x8
 1293 0548 5E02     		.2byte	0x25e
 1294 054a B6040000 		.4byte	0x4b6
 1295 054e 00       		.byte	0
 1296 054f 07       		.uleb128 0x7
 1297 0550 43535200 		.ascii	"CSR\000"
 1298 0554 08       		.byte	0x8
 1299 0555 5F02     		.2byte	0x25f
 1300 0557 B6040000 		.4byte	0x4b6
 1301 055b 04       		.byte	0x4
 1302 055c 00       		.byte	0
 1303 055d 15       		.uleb128 0x15
 1304 055e 8E010000 		.4byte	.LASF93
 1305 0562 08       		.byte	0x8
 1306 0563 6002     		.2byte	0x260
 1307 0565 3A050000 		.4byte	0x53a
 1308 0569 14       		.uleb128 0x14
 1309 056a 88       		.byte	0x88
 1310 056b 08       		.byte	0x8
 1311 056c 6602     		.2byte	0x266
 1312 056e F8060000 		.4byte	0x6f8
 1313 0572 07       		.uleb128 0x7
ARM GAS  /tmp/cciKhLR3.s 			page 41


 1314 0573 435200   		.ascii	"CR\000"
 1315 0576 08       		.byte	0x8
 1316 0577 6802     		.2byte	0x268
 1317 0579 B6040000 		.4byte	0x4b6
 1318 057d 00       		.byte	0
 1319 057e 08       		.uleb128 0x8
 1320 057f E5010000 		.4byte	.LASF94
 1321 0583 08       		.byte	0x8
 1322 0584 6902     		.2byte	0x269
 1323 0586 B6040000 		.4byte	0x4b6
 1324 058a 04       		.byte	0x4
 1325 058b 08       		.uleb128 0x8
 1326 058c 5B070000 		.4byte	.LASF95
 1327 0590 08       		.byte	0x8
 1328 0591 6A02     		.2byte	0x26a
 1329 0593 B6040000 		.4byte	0x4b6
 1330 0597 08       		.byte	0x8
 1331 0598 07       		.uleb128 0x7
 1332 0599 43495200 		.ascii	"CIR\000"
 1333 059d 08       		.byte	0x8
 1334 059e 6B02     		.2byte	0x26b
 1335 05a0 B6040000 		.4byte	0x4b6
 1336 05a4 0C       		.byte	0xc
 1337 05a5 08       		.uleb128 0x8
 1338 05a6 60010000 		.4byte	.LASF96
 1339 05aa 08       		.byte	0x8
 1340 05ab 6C02     		.2byte	0x26c
 1341 05ad B6040000 		.4byte	0x4b6
 1342 05b1 10       		.byte	0x10
 1343 05b2 08       		.uleb128 0x8
 1344 05b3 6B060000 		.4byte	.LASF97
 1345 05b7 08       		.byte	0x8
 1346 05b8 6D02     		.2byte	0x26d
 1347 05ba B6040000 		.4byte	0x4b6
 1348 05be 14       		.byte	0x14
 1349 05bf 08       		.uleb128 0x8
 1350 05c0 F1020000 		.4byte	.LASF98
 1351 05c4 08       		.byte	0x8
 1352 05c5 6E02     		.2byte	0x26e
 1353 05c7 B6040000 		.4byte	0x4b6
 1354 05cb 18       		.byte	0x18
 1355 05cc 08       		.uleb128 0x8
 1356 05cd F2040000 		.4byte	.LASF99
 1357 05d1 08       		.byte	0x8
 1358 05d2 6F02     		.2byte	0x26f
 1359 05d4 B8000000 		.4byte	0xb8
 1360 05d8 1C       		.byte	0x1c
 1361 05d9 08       		.uleb128 0x8
 1362 05da CB040000 		.4byte	.LASF100
 1363 05de 08       		.byte	0x8
 1364 05df 7002     		.2byte	0x270
 1365 05e1 B6040000 		.4byte	0x4b6
 1366 05e5 20       		.byte	0x20
 1367 05e6 08       		.uleb128 0x8
 1368 05e7 B3010000 		.4byte	.LASF101
 1369 05eb 08       		.byte	0x8
 1370 05ec 7102     		.2byte	0x271
ARM GAS  /tmp/cciKhLR3.s 			page 42


 1371 05ee B6040000 		.4byte	0x4b6
 1372 05f2 24       		.byte	0x24
 1373 05f3 08       		.uleb128 0x8
 1374 05f4 FC040000 		.4byte	.LASF102
 1375 05f8 08       		.byte	0x8
 1376 05f9 7202     		.2byte	0x272
 1377 05fb BB040000 		.4byte	0x4bb
 1378 05ff 28       		.byte	0x28
 1379 0600 08       		.uleb128 0x8
 1380 0601 53070000 		.4byte	.LASF103
 1381 0605 08       		.byte	0x8
 1382 0606 7302     		.2byte	0x273
 1383 0608 B6040000 		.4byte	0x4b6
 1384 060c 30       		.byte	0x30
 1385 060d 08       		.uleb128 0x8
 1386 060e D0060000 		.4byte	.LASF104
 1387 0612 08       		.byte	0x8
 1388 0613 7402     		.2byte	0x274
 1389 0615 B6040000 		.4byte	0x4b6
 1390 0619 34       		.byte	0x34
 1391 061a 08       		.uleb128 0x8
 1392 061b 84040000 		.4byte	.LASF105
 1393 061f 08       		.byte	0x8
 1394 0620 7502     		.2byte	0x275
 1395 0622 B6040000 		.4byte	0x4b6
 1396 0626 38       		.byte	0x38
 1397 0627 08       		.uleb128 0x8
 1398 0628 06050000 		.4byte	.LASF106
 1399 062c 08       		.byte	0x8
 1400 062d 7602     		.2byte	0x276
 1401 062f B8000000 		.4byte	0xb8
 1402 0633 3C       		.byte	0x3c
 1403 0634 08       		.uleb128 0x8
 1404 0635 C8060000 		.4byte	.LASF107
 1405 0639 08       		.byte	0x8
 1406 063a 7702     		.2byte	0x277
 1407 063c B6040000 		.4byte	0x4b6
 1408 0640 40       		.byte	0x40
 1409 0641 08       		.uleb128 0x8
 1410 0642 AD050000 		.4byte	.LASF108
 1411 0646 08       		.byte	0x8
 1412 0647 7802     		.2byte	0x278
 1413 0649 B6040000 		.4byte	0x4b6
 1414 064d 44       		.byte	0x44
 1415 064e 08       		.uleb128 0x8
 1416 064f 10050000 		.4byte	.LASF109
 1417 0653 08       		.byte	0x8
 1418 0654 7902     		.2byte	0x279
 1419 0656 BB040000 		.4byte	0x4bb
 1420 065a 48       		.byte	0x48
 1421 065b 08       		.uleb128 0x8
 1422 065c 16010000 		.4byte	.LASF110
 1423 0660 08       		.byte	0x8
 1424 0661 7A02     		.2byte	0x27a
 1425 0663 B6040000 		.4byte	0x4b6
 1426 0667 50       		.byte	0x50
 1427 0668 08       		.uleb128 0x8
ARM GAS  /tmp/cciKhLR3.s 			page 43


 1428 0669 A6040000 		.4byte	.LASF111
 1429 066d 08       		.byte	0x8
 1430 066e 7B02     		.2byte	0x27b
 1431 0670 B6040000 		.4byte	0x4b6
 1432 0674 54       		.byte	0x54
 1433 0675 08       		.uleb128 0x8
 1434 0676 7E050000 		.4byte	.LASF112
 1435 067a 08       		.byte	0x8
 1436 067b 7C02     		.2byte	0x27c
 1437 067d B6040000 		.4byte	0x4b6
 1438 0681 58       		.byte	0x58
 1439 0682 08       		.uleb128 0x8
 1440 0683 1A050000 		.4byte	.LASF113
 1441 0687 08       		.byte	0x8
 1442 0688 7D02     		.2byte	0x27d
 1443 068a B8000000 		.4byte	0xb8
 1444 068e 5C       		.byte	0x5c
 1445 068f 08       		.uleb128 0x8
 1446 0690 BC010000 		.4byte	.LASF114
 1447 0694 08       		.byte	0x8
 1448 0695 7E02     		.2byte	0x27e
 1449 0697 B6040000 		.4byte	0x4b6
 1450 069b 60       		.byte	0x60
 1451 069c 08       		.uleb128 0x8
 1452 069d D5030000 		.4byte	.LASF115
 1453 06a1 08       		.byte	0x8
 1454 06a2 7F02     		.2byte	0x27f
 1455 06a4 B6040000 		.4byte	0x4b6
 1456 06a8 64       		.byte	0x64
 1457 06a9 08       		.uleb128 0x8
 1458 06aa DE050000 		.4byte	.LASF116
 1459 06ae 08       		.byte	0x8
 1460 06af 8002     		.2byte	0x280
 1461 06b1 BB040000 		.4byte	0x4bb
 1462 06b5 68       		.byte	0x68
 1463 06b6 08       		.uleb128 0x8
 1464 06b7 32070000 		.4byte	.LASF117
 1465 06bb 08       		.byte	0x8
 1466 06bc 8102     		.2byte	0x281
 1467 06be B6040000 		.4byte	0x4b6
 1468 06c2 70       		.byte	0x70
 1469 06c3 07       		.uleb128 0x7
 1470 06c4 43535200 		.ascii	"CSR\000"
 1471 06c8 08       		.byte	0x8
 1472 06c9 8202     		.2byte	0x282
 1473 06cb B6040000 		.4byte	0x4b6
 1474 06cf 74       		.byte	0x74
 1475 06d0 08       		.uleb128 0x8
 1476 06d1 2B050000 		.4byte	.LASF118
 1477 06d5 08       		.byte	0x8
 1478 06d6 8302     		.2byte	0x283
 1479 06d8 BB040000 		.4byte	0x4bb
 1480 06dc 78       		.byte	0x78
 1481 06dd 08       		.uleb128 0x8
 1482 06de 04070000 		.4byte	.LASF119
 1483 06e2 08       		.byte	0x8
 1484 06e3 8402     		.2byte	0x284
ARM GAS  /tmp/cciKhLR3.s 			page 44


 1485 06e5 B6040000 		.4byte	0x4b6
 1486 06e9 80       		.byte	0x80
 1487 06ea 08       		.uleb128 0x8
 1488 06eb E0020000 		.4byte	.LASF120
 1489 06ef 08       		.byte	0x8
 1490 06f0 8502     		.2byte	0x285
 1491 06f2 B6040000 		.4byte	0x4b6
 1492 06f6 84       		.byte	0x84
 1493 06f7 00       		.byte	0
 1494 06f8 15       		.uleb128 0x15
 1495 06f9 9C020000 		.4byte	.LASF121
 1496 06fd 08       		.byte	0x8
 1497 06fe 8702     		.2byte	0x287
 1498 0700 69050000 		.4byte	0x569
 1499 0704 03       		.uleb128 0x3
 1500 0705 FD010000 		.4byte	.LASF122
 1501 0709 09       		.byte	0x9
 1502 070a 65       		.byte	0x65
 1503 070b 40030000 		.4byte	0x340
 1504 070f 03       		.uleb128 0x3
 1505 0710 0E040000 		.4byte	.LASF123
 1506 0714 09       		.byte	0x9
 1507 0715 6D       		.byte	0x6d
 1508 0716 C3000000 		.4byte	0xc3
 1509 071a 05       		.uleb128 0x5
 1510 071b D8060000 		.4byte	.LASF124
 1511 071f 04       		.byte	0x4
 1512 0720 09       		.byte	0x9
 1513 0721 89       		.byte	0x89
 1514 0722 33070000 		.4byte	0x733
 1515 0726 16       		.uleb128 0x16
 1516 0727 72313300 		.ascii	"r13\000"
 1517 072b 09       		.byte	0x9
 1518 072c 8A       		.byte	0x8a
 1519 072d AE070000 		.4byte	0x7ae
 1520 0731 00       		.byte	0
 1521 0732 00       		.byte	0
 1522 0733 05       		.uleb128 0x5
 1523 0734 4A000000 		.4byte	.LASF125
 1524 0738 24       		.byte	0x24
 1525 0739 0A       		.byte	0xa
 1526 073a FD       		.byte	0xfd
 1527 073b AE070000 		.4byte	0x7ae
 1528 073f 07       		.uleb128 0x7
 1529 0740 723400   		.ascii	"r4\000"
 1530 0743 0A       		.byte	0xa
 1531 0744 1001     		.2byte	0x110
 1532 0746 04070000 		.4byte	0x704
 1533 074a 00       		.byte	0
 1534 074b 07       		.uleb128 0x7
 1535 074c 723500   		.ascii	"r5\000"
 1536 074f 0A       		.byte	0xa
 1537 0750 1101     		.2byte	0x111
 1538 0752 04070000 		.4byte	0x704
 1539 0756 04       		.byte	0x4
 1540 0757 07       		.uleb128 0x7
 1541 0758 723600   		.ascii	"r6\000"
ARM GAS  /tmp/cciKhLR3.s 			page 45


 1542 075b 0A       		.byte	0xa
 1543 075c 1201     		.2byte	0x112
 1544 075e 04070000 		.4byte	0x704
 1545 0762 08       		.byte	0x8
 1546 0763 07       		.uleb128 0x7
 1547 0764 723700   		.ascii	"r7\000"
 1548 0767 0A       		.byte	0xa
 1549 0768 1301     		.2byte	0x113
 1550 076a 04070000 		.4byte	0x704
 1551 076e 0C       		.byte	0xc
 1552 076f 07       		.uleb128 0x7
 1553 0770 723800   		.ascii	"r8\000"
 1554 0773 0A       		.byte	0xa
 1555 0774 1401     		.2byte	0x114
 1556 0776 04070000 		.4byte	0x704
 1557 077a 10       		.byte	0x10
 1558 077b 07       		.uleb128 0x7
 1559 077c 723900   		.ascii	"r9\000"
 1560 077f 0A       		.byte	0xa
 1561 0780 1501     		.2byte	0x115
 1562 0782 04070000 		.4byte	0x704
 1563 0786 14       		.byte	0x14
 1564 0787 07       		.uleb128 0x7
 1565 0788 72313000 		.ascii	"r10\000"
 1566 078c 0A       		.byte	0xa
 1567 078d 1601     		.2byte	0x116
 1568 078f 04070000 		.4byte	0x704
 1569 0793 18       		.byte	0x18
 1570 0794 07       		.uleb128 0x7
 1571 0795 72313100 		.ascii	"r11\000"
 1572 0799 0A       		.byte	0xa
 1573 079a 1701     		.2byte	0x117
 1574 079c 04070000 		.4byte	0x704
 1575 07a0 1C       		.byte	0x1c
 1576 07a1 07       		.uleb128 0x7
 1577 07a2 6C7200   		.ascii	"lr\000"
 1578 07a5 0A       		.byte	0xa
 1579 07a6 1801     		.2byte	0x118
 1580 07a8 04070000 		.4byte	0x704
 1581 07ac 20       		.byte	0x20
 1582 07ad 00       		.byte	0
 1583 07ae 09       		.uleb128 0x9
 1584 07af 04       		.byte	0x4
 1585 07b0 33070000 		.4byte	0x733
 1586 07b4 17       		.uleb128 0x17
 1587 07b5 10       		.byte	0x10
 1588 07b6 0B       		.byte	0xb
 1589 07b7 51       		.byte	0x51
 1590 07b8 ED070000 		.4byte	0x7ed
 1591 07bc 06       		.uleb128 0x6
 1592 07bd 14000000 		.4byte	.LASF126
 1593 07c1 0B       		.byte	0xb
 1594 07c2 55       		.byte	0x55
 1595 07c3 3C010000 		.4byte	0x13c
 1596 07c7 00       		.byte	0
 1597 07c8 06       		.uleb128 0x6
 1598 07c9 CF010000 		.4byte	.LASF127
ARM GAS  /tmp/cciKhLR3.s 			page 46


 1599 07cd 0B       		.byte	0xb
 1600 07ce 59       		.byte	0x59
 1601 07cf 63020000 		.4byte	0x263
 1602 07d3 04       		.byte	0x4
 1603 07d4 06       		.uleb128 0x6
 1604 07d5 8E070000 		.4byte	.LASF128
 1605 07d9 0B       		.byte	0xb
 1606 07da 5D       		.byte	0x5d
 1607 07db 40030000 		.4byte	0x340
 1608 07df 08       		.byte	0x8
 1609 07e0 06       		.uleb128 0x6
 1610 07e1 C5000000 		.4byte	.LASF129
 1611 07e5 0B       		.byte	0xb
 1612 07e6 61       		.byte	0x61
 1613 07e7 A2000000 		.4byte	0xa2
 1614 07eb 0C       		.byte	0xc
 1615 07ec 00       		.byte	0
 1616 07ed 03       		.uleb128 0x3
 1617 07ee 75040000 		.4byte	.LASF130
 1618 07f2 0B       		.byte	0xb
 1619 07f3 62       		.byte	0x62
 1620 07f4 B4070000 		.4byte	0x7b4
 1621 07f8 18       		.uleb128 0x18
 1622 07f9 0804     		.2byte	0x408
 1623 07fb 0B       		.byte	0xb
 1624 07fc 67       		.byte	0x67
 1625 07fd 26080000 		.4byte	0x826
 1626 0801 06       		.uleb128 0x6
 1627 0802 ED010000 		.4byte	.LASF131
 1628 0806 0B       		.byte	0xb
 1629 0807 6B       		.byte	0x6b
 1630 0808 37000000 		.4byte	0x37
 1631 080c 00       		.byte	0
 1632 080d 06       		.uleb128 0x6
 1633 080e 00000000 		.4byte	.LASF132
 1634 0812 0B       		.byte	0xb
 1635 0813 6F       		.byte	0x6f
 1636 0814 26080000 		.4byte	0x826
 1637 0818 04       		.byte	0x4
 1638 0819 06       		.uleb128 0x6
 1639 081a CB030000 		.4byte	.LASF133
 1640 081e 0B       		.byte	0xb
 1641 081f 73       		.byte	0x73
 1642 0820 2C080000 		.4byte	0x82c
 1643 0824 08       		.byte	0x8
 1644 0825 00       		.byte	0
 1645 0826 09       		.uleb128 0x9
 1646 0827 04       		.byte	0x4
 1647 0828 ED070000 		.4byte	0x7ed
 1648 082c 12       		.uleb128 0x12
 1649 082d ED070000 		.4byte	0x7ed
 1650 0831 3C080000 		.4byte	0x83c
 1651 0835 13       		.uleb128 0x13
 1652 0836 AF040000 		.4byte	0x4af
 1653 083a 3F       		.byte	0x3f
 1654 083b 00       		.byte	0
 1655 083c 03       		.uleb128 0x3
ARM GAS  /tmp/cciKhLR3.s 			page 47


 1656 083d B3000000 		.4byte	.LASF134
 1657 0841 0B       		.byte	0xb
 1658 0842 74       		.byte	0x74
 1659 0843 F8070000 		.4byte	0x7f8
 1660 0847 17       		.uleb128 0x17
 1661 0848 04       		.byte	0x4
 1662 0849 0C       		.byte	0xc
 1663 084a 38       		.byte	0x38
 1664 084b 5C080000 		.4byte	0x85c
 1665 084f 06       		.uleb128 0x6
 1666 0850 C1060000 		.4byte	.LASF135
 1667 0854 0C       		.byte	0xc
 1668 0855 3C       		.byte	0x3c
 1669 0856 CE000000 		.4byte	0xce
 1670 085a 00       		.byte	0
 1671 085b 00       		.byte	0
 1672 085c 03       		.uleb128 0x3
 1673 085d B0040000 		.4byte	.LASF136
 1674 0861 0C       		.byte	0xc
 1675 0862 3D       		.byte	0x3d
 1676 0863 47080000 		.4byte	0x847
 1677 0867 17       		.uleb128 0x17
 1678 0868 18       		.byte	0x18
 1679 0869 0C       		.byte	0xc
 1680 086a 48       		.byte	0x48
 1681 086b AA080000 		.4byte	0x8aa
 1682 086f 06       		.uleb128 0x6
 1683 0870 7D060000 		.4byte	.LASF137
 1684 0874 0C       		.byte	0xc
 1685 0875 49       		.byte	0x49
 1686 0876 CE000000 		.4byte	0xce
 1687 087a 00       		.byte	0
 1688 087b 06       		.uleb128 0x6
 1689 087c 7C000000 		.4byte	.LASF138
 1690 0880 0C       		.byte	0xc
 1691 0881 4A       		.byte	0x4a
 1692 0882 CE000000 		.4byte	0xce
 1693 0886 04       		.byte	0x4
 1694 0887 06       		.uleb128 0x6
 1695 0888 B2060000 		.4byte	.LASF139
 1696 088c 0C       		.byte	0xc
 1697 088d 4B       		.byte	0x4b
 1698 088e CE000000 		.4byte	0xce
 1699 0892 08       		.byte	0x8
 1700 0893 16       		.uleb128 0x16
 1701 0894 6E00     		.ascii	"n\000"
 1702 0896 0C       		.byte	0xc
 1703 0897 4C       		.byte	0x4c
 1704 0898 31010000 		.4byte	0x131
 1705 089c 0C       		.byte	0xc
 1706 089d 06       		.uleb128 0x6
 1707 089e DF040000 		.4byte	.LASF140
 1708 08a2 0C       		.byte	0xc
 1709 08a3 4D       		.byte	0x4d
 1710 08a4 D9000000 		.4byte	0xd9
 1711 08a8 10       		.byte	0x10
 1712 08a9 00       		.byte	0
ARM GAS  /tmp/cciKhLR3.s 			page 48


 1713 08aa 03       		.uleb128 0x3
 1714 08ab 89000000 		.4byte	.LASF141
 1715 08af 0C       		.byte	0xc
 1716 08b0 4E       		.byte	0x4e
 1717 08b1 67080000 		.4byte	0x867
 1718 08b5 17       		.uleb128 0x17
 1719 08b6 38       		.byte	0x38
 1720 08b7 0D       		.byte	0xd
 1721 08b8 38       		.byte	0x38
 1722 08b9 EE080000 		.4byte	0x8ee
 1723 08bd 06       		.uleb128 0x6
 1724 08be A8020000 		.4byte	.LASF142
 1725 08c2 0D       		.byte	0xd
 1726 08c3 39       		.byte	0x39
 1727 08c4 31010000 		.4byte	0x131
 1728 08c8 00       		.byte	0
 1729 08c9 06       		.uleb128 0x6
 1730 08ca 3D050000 		.4byte	.LASF143
 1731 08ce 0D       		.byte	0xd
 1732 08cf 3A       		.byte	0x3a
 1733 08d0 31010000 		.4byte	0x131
 1734 08d4 04       		.byte	0x4
 1735 08d5 06       		.uleb128 0x6
 1736 08d6 7B070000 		.4byte	.LASF144
 1737 08da 0D       		.byte	0xd
 1738 08db 3B       		.byte	0x3b
 1739 08dc AA080000 		.4byte	0x8aa
 1740 08e0 08       		.byte	0x8
 1741 08e1 06       		.uleb128 0x6
 1742 08e2 DF030000 		.4byte	.LASF145
 1743 08e6 0D       		.byte	0xd
 1744 08e7 3D       		.byte	0x3d
 1745 08e8 AA080000 		.4byte	0x8aa
 1746 08ec 20       		.byte	0x20
 1747 08ed 00       		.byte	0
 1748 08ee 03       		.uleb128 0x3
 1749 08ef C7020000 		.4byte	.LASF146
 1750 08f3 0D       		.byte	0xd
 1751 08f4 3F       		.byte	0x3f
 1752 08f5 B5080000 		.4byte	0x8b5
 1753 08f9 19       		.uleb128 0x19
 1754 08fa 04       		.byte	0x4
 1755 08fb 07       		.byte	0x7
 1756 08fc FA       		.byte	0xfa
 1757 08fd 56090000 		.4byte	0x956
 1758 0901 1A       		.uleb128 0x1a
 1759 0902 23000000 		.4byte	.LASF147
 1760 0906 07       		.byte	0x7
 1761 0907 0101     		.2byte	0x101
 1762 0909 10010000 		.4byte	0x110
 1763 090d 1A       		.uleb128 0x1a
 1764 090e D6000000 		.4byte	.LASF148
 1765 0912 07       		.byte	0x7
 1766 0913 0801     		.2byte	0x108
 1767 0915 10010000 		.4byte	0x110
 1768 0919 1A       		.uleb128 0x1a
 1769 091a 45070000 		.4byte	.LASF149
ARM GAS  /tmp/cciKhLR3.s 			page 49


 1770 091e 07       		.byte	0x7
 1771 091f 0F01     		.2byte	0x10f
 1772 0921 40030000 		.4byte	0x340
 1773 0925 1A       		.uleb128 0x1a
 1774 0926 9A010000 		.4byte	.LASF150
 1775 092a 07       		.byte	0x7
 1776 092b 1601     		.2byte	0x116
 1777 092d 56090000 		.4byte	0x956
 1778 0931 1A       		.uleb128 0x1a
 1779 0932 8A020000 		.4byte	.LASF151
 1780 0936 07       		.byte	0x7
 1781 0937 1E01     		.2byte	0x11e
 1782 0939 81090000 		.4byte	0x981
 1783 093d 1A       		.uleb128 0x1a
 1784 093e F1050000 		.4byte	.LASF152
 1785 0942 07       		.byte	0x7
 1786 0943 2701     		.2byte	0x127
 1787 0945 B8090000 		.4byte	0x9b8
 1788 0949 1A       		.uleb128 0x1a
 1789 094a 8F050000 		.4byte	.LASF153
 1790 094e 07       		.byte	0x7
 1791 094f 2F01     		.2byte	0x12f
 1792 0951 1B010000 		.4byte	0x11b
 1793 0955 00       		.byte	0
 1794 0956 09       		.uleb128 0x9
 1795 0957 04       		.byte	0x4
 1796 0958 58020000 		.4byte	0x258
 1797 095c 05       		.uleb128 0x5
 1798 095d C6050000 		.4byte	.LASF154
 1799 0961 0C       		.byte	0xc
 1800 0962 0E       		.byte	0xe
 1801 0963 34       		.byte	0x34
 1802 0964 81090000 		.4byte	0x981
 1803 0968 06       		.uleb128 0x6
 1804 0969 CE000000 		.4byte	.LASF155
 1805 096d 0E       		.byte	0xe
 1806 096e 35       		.byte	0x35
 1807 096f 8D020000 		.4byte	0x28d
 1808 0973 00       		.byte	0
 1809 0974 06       		.uleb128 0x6
 1810 0975 AE020000 		.4byte	.LASF156
 1811 0979 0E       		.byte	0xe
 1812 097a 37       		.byte	0x37
 1813 097b 26010000 		.4byte	0x126
 1814 097f 08       		.byte	0x8
 1815 0980 00       		.byte	0
 1816 0981 09       		.uleb128 0x9
 1817 0982 04       		.byte	0x4
 1818 0983 5C090000 		.4byte	0x95c
 1819 0987 05       		.uleb128 0x5
 1820 0988 1A070000 		.4byte	.LASF157
 1821 098c 10       		.byte	0x10
 1822 098d 0F       		.byte	0xf
 1823 098e 39       		.byte	0x39
 1824 098f B8090000 		.4byte	0x9b8
 1825 0993 06       		.uleb128 0x6
 1826 0994 7F010000 		.4byte	.LASF158
ARM GAS  /tmp/cciKhLR3.s 			page 50


 1827 0998 0F       		.byte	0xf
 1828 0999 3A       		.byte	0x3a
 1829 099a 8D020000 		.4byte	0x28d
 1830 099e 00       		.byte	0
 1831 099f 06       		.uleb128 0x6
 1832 09a0 86070000 		.4byte	.LASF159
 1833 09a4 0F       		.byte	0xf
 1834 09a5 3C       		.byte	0x3c
 1835 09a6 63020000 		.4byte	0x263
 1836 09aa 08       		.byte	0x8
 1837 09ab 06       		.uleb128 0x6
 1838 09ac 82060000 		.4byte	.LASF160
 1839 09b0 0F       		.byte	0xf
 1840 09b1 3E       		.byte	0x3e
 1841 09b2 FC090000 		.4byte	0x9fc
 1842 09b6 0C       		.byte	0xc
 1843 09b7 00       		.byte	0
 1844 09b8 09       		.uleb128 0x9
 1845 09b9 04       		.byte	0x4
 1846 09ba 87090000 		.4byte	0x987
 1847 09be 09       		.uleb128 0x9
 1848 09bf 04       		.byte	0x4
 1849 09c0 C4090000 		.4byte	0x9c4
 1850 09c4 1B       		.uleb128 0x1b
 1851 09c5 C9090000 		.4byte	0x9c9
 1852 09c9 04       		.uleb128 0x4
 1853 09ca 01       		.byte	0x1
 1854 09cb 08       		.byte	0x8
 1855 09cc 2B060000 		.4byte	.LASF161
 1856 09d0 09       		.uleb128 0x9
 1857 09d1 04       		.byte	0x4
 1858 09d2 0F070000 		.4byte	0x70f
 1859 09d6 09       		.uleb128 0x9
 1860 09d7 04       		.byte	0x4
 1861 09d8 42030000 		.4byte	0x342
 1862 09dc 11       		.uleb128 0x11
 1863 09dd BE090000 		.4byte	0x9be
 1864 09e1 12       		.uleb128 0x12
 1865 09e2 0F070000 		.4byte	0x70f
 1866 09e6 F1090000 		.4byte	0x9f1
 1867 09ea 13       		.uleb128 0x13
 1868 09eb AF040000 		.4byte	0x4af
 1869 09ef 1E       		.byte	0x1e
 1870 09f0 00       		.byte	0
 1871 09f1 03       		.uleb128 0x3
 1872 09f2 34020000 		.4byte	.LASF162
 1873 09f6 0F       		.byte	0xf
 1874 09f7 34       		.byte	0x34
 1875 09f8 87090000 		.4byte	0x987
 1876 09fc 09       		.uleb128 0x9
 1877 09fd 04       		.byte	0x4
 1878 09fe F1090000 		.4byte	0x9f1
 1879 0a02 04       		.uleb128 0x4
 1880 0a03 01       		.byte	0x1
 1881 0a04 02       		.byte	0x2
 1882 0a05 46050000 		.4byte	.LASF163
 1883 0a09 1C       		.uleb128 0x1c
ARM GAS  /tmp/cciKhLR3.s 			page 51


 1884 0a0a 01030000 		.4byte	.LASF171
 1885 0a0e 01       		.byte	0x1
 1886 0a0f 36       		.byte	0x36
 1887 0a10 00000000 		.4byte	.LFB272
 1888 0a14 60000000 		.4byte	.LFE272-.LFB272
 1889 0a18 01       		.uleb128 0x1
 1890 0a19 9C       		.byte	0x9c
 1891 0a1a 1D       		.uleb128 0x1d
 1892 0a1b E8060000 		.4byte	.LASF164
 1893 0a1f 01       		.byte	0x1
 1894 0a20 72       		.byte	0x72
 1895 0a21 00000000 		.4byte	.LFB273
 1896 0a25 B0000000 		.4byte	.LFE273-.LFB273
 1897 0a29 01       		.uleb128 0x1
 1898 0a2a 9C       		.byte	0x9c
 1899 0a2b 1E       		.uleb128 0x1e
 1900 0a2c 23020000 		.4byte	.LASF165
 1901 0a30 01       		.byte	0x1
 1902 0a31 92       		.byte	0x92
 1903 0a32 00000000 		.4byte	.LFB274
 1904 0a36 D4010000 		.4byte	.LFE274-.LFB274
 1905 0a3a 01       		.uleb128 0x1
 1906 0a3b 9C       		.byte	0x9c
 1907 0a3c 1F       		.uleb128 0x1f
 1908 0a3d 00010000 		.4byte	.LASF166
 1909 0a41 10       		.byte	0x10
 1910 0a42 FA06     		.2byte	0x6fa
 1911 0a44 480A0000 		.4byte	0xa48
 1912 0a48 11       		.uleb128 0x11
 1913 0a49 AD000000 		.4byte	0xad
 1914 0a4d 20       		.uleb128 0x20
 1915 0a4e 7A020000 		.4byte	.LASF167
 1916 0a52 01       		.byte	0x1
 1917 0a53 27       		.byte	0x27
 1918 0a54 B8000000 		.4byte	0xb8
 1919 0a58 05       		.uleb128 0x5
 1920 0a59 03       		.byte	0x3
 1921 0a5a 00000000 		.4byte	SystemCoreClock
 1922 0a5e 21       		.uleb128 0x21
 1923 0a5f 636800   		.ascii	"ch\000"
 1924 0a62 07       		.byte	0x7
 1925 0a63 0902     		.2byte	0x209
 1926 0a65 37040000 		.4byte	0x437
 1927 0a69 00       		.byte	0
 1928              		.section	.debug_abbrev,"",%progbits
 1929              	.Ldebug_abbrev0:
 1930 0000 01       		.uleb128 0x1
 1931 0001 11       		.uleb128 0x11
 1932 0002 01       		.byte	0x1
 1933 0003 25       		.uleb128 0x25
 1934 0004 0E       		.uleb128 0xe
 1935 0005 13       		.uleb128 0x13
 1936 0006 0B       		.uleb128 0xb
 1937 0007 03       		.uleb128 0x3
 1938 0008 0E       		.uleb128 0xe
 1939 0009 1B       		.uleb128 0x1b
 1940 000a 0E       		.uleb128 0xe
ARM GAS  /tmp/cciKhLR3.s 			page 52


 1941 000b 55       		.uleb128 0x55
 1942 000c 17       		.uleb128 0x17
 1943 000d 11       		.uleb128 0x11
 1944 000e 01       		.uleb128 0x1
 1945 000f 10       		.uleb128 0x10
 1946 0010 17       		.uleb128 0x17
 1947 0011 00       		.byte	0
 1948 0012 00       		.byte	0
 1949 0013 02       		.uleb128 0x2
 1950 0014 24       		.uleb128 0x24
 1951 0015 00       		.byte	0
 1952 0016 0B       		.uleb128 0xb
 1953 0017 0B       		.uleb128 0xb
 1954 0018 3E       		.uleb128 0x3e
 1955 0019 0B       		.uleb128 0xb
 1956 001a 03       		.uleb128 0x3
 1957 001b 08       		.uleb128 0x8
 1958 001c 00       		.byte	0
 1959 001d 00       		.byte	0
 1960 001e 03       		.uleb128 0x3
 1961 001f 16       		.uleb128 0x16
 1962 0020 00       		.byte	0
 1963 0021 03       		.uleb128 0x3
 1964 0022 0E       		.uleb128 0xe
 1965 0023 3A       		.uleb128 0x3a
 1966 0024 0B       		.uleb128 0xb
 1967 0025 3B       		.uleb128 0x3b
 1968 0026 0B       		.uleb128 0xb
 1969 0027 49       		.uleb128 0x49
 1970 0028 13       		.uleb128 0x13
 1971 0029 00       		.byte	0
 1972 002a 00       		.byte	0
 1973 002b 04       		.uleb128 0x4
 1974 002c 24       		.uleb128 0x24
 1975 002d 00       		.byte	0
 1976 002e 0B       		.uleb128 0xb
 1977 002f 0B       		.uleb128 0xb
 1978 0030 3E       		.uleb128 0x3e
 1979 0031 0B       		.uleb128 0xb
 1980 0032 03       		.uleb128 0x3
 1981 0033 0E       		.uleb128 0xe
 1982 0034 00       		.byte	0
 1983 0035 00       		.byte	0
 1984 0036 05       		.uleb128 0x5
 1985 0037 13       		.uleb128 0x13
 1986 0038 01       		.byte	0x1
 1987 0039 03       		.uleb128 0x3
 1988 003a 0E       		.uleb128 0xe
 1989 003b 0B       		.uleb128 0xb
 1990 003c 0B       		.uleb128 0xb
 1991 003d 3A       		.uleb128 0x3a
 1992 003e 0B       		.uleb128 0xb
 1993 003f 3B       		.uleb128 0x3b
 1994 0040 0B       		.uleb128 0xb
 1995 0041 01       		.uleb128 0x1
 1996 0042 13       		.uleb128 0x13
 1997 0043 00       		.byte	0
ARM GAS  /tmp/cciKhLR3.s 			page 53


 1998 0044 00       		.byte	0
 1999 0045 06       		.uleb128 0x6
 2000 0046 0D       		.uleb128 0xd
 2001 0047 00       		.byte	0
 2002 0048 03       		.uleb128 0x3
 2003 0049 0E       		.uleb128 0xe
 2004 004a 3A       		.uleb128 0x3a
 2005 004b 0B       		.uleb128 0xb
 2006 004c 3B       		.uleb128 0x3b
 2007 004d 0B       		.uleb128 0xb
 2008 004e 49       		.uleb128 0x49
 2009 004f 13       		.uleb128 0x13
 2010 0050 38       		.uleb128 0x38
 2011 0051 0B       		.uleb128 0xb
 2012 0052 00       		.byte	0
 2013 0053 00       		.byte	0
 2014 0054 07       		.uleb128 0x7
 2015 0055 0D       		.uleb128 0xd
 2016 0056 00       		.byte	0
 2017 0057 03       		.uleb128 0x3
 2018 0058 08       		.uleb128 0x8
 2019 0059 3A       		.uleb128 0x3a
 2020 005a 0B       		.uleb128 0xb
 2021 005b 3B       		.uleb128 0x3b
 2022 005c 05       		.uleb128 0x5
 2023 005d 49       		.uleb128 0x49
 2024 005e 13       		.uleb128 0x13
 2025 005f 38       		.uleb128 0x38
 2026 0060 0B       		.uleb128 0xb
 2027 0061 00       		.byte	0
 2028 0062 00       		.byte	0
 2029 0063 08       		.uleb128 0x8
 2030 0064 0D       		.uleb128 0xd
 2031 0065 00       		.byte	0
 2032 0066 03       		.uleb128 0x3
 2033 0067 0E       		.uleb128 0xe
 2034 0068 3A       		.uleb128 0x3a
 2035 0069 0B       		.uleb128 0xb
 2036 006a 3B       		.uleb128 0x3b
 2037 006b 05       		.uleb128 0x5
 2038 006c 49       		.uleb128 0x49
 2039 006d 13       		.uleb128 0x13
 2040 006e 38       		.uleb128 0x38
 2041 006f 0B       		.uleb128 0xb
 2042 0070 00       		.byte	0
 2043 0071 00       		.byte	0
 2044 0072 09       		.uleb128 0x9
 2045 0073 0F       		.uleb128 0xf
 2046 0074 00       		.byte	0
 2047 0075 0B       		.uleb128 0xb
 2048 0076 0B       		.uleb128 0xb
 2049 0077 49       		.uleb128 0x49
 2050 0078 13       		.uleb128 0x13
 2051 0079 00       		.byte	0
 2052 007a 00       		.byte	0
 2053 007b 0A       		.uleb128 0xa
 2054 007c 13       		.uleb128 0x13
ARM GAS  /tmp/cciKhLR3.s 			page 54


 2055 007d 01       		.byte	0x1
 2056 007e 03       		.uleb128 0x3
 2057 007f 0E       		.uleb128 0xe
 2058 0080 0B       		.uleb128 0xb
 2059 0081 0B       		.uleb128 0xb
 2060 0082 3A       		.uleb128 0x3a
 2061 0083 0B       		.uleb128 0xb
 2062 0084 3B       		.uleb128 0x3b
 2063 0085 05       		.uleb128 0x5
 2064 0086 01       		.uleb128 0x1
 2065 0087 13       		.uleb128 0x13
 2066 0088 00       		.byte	0
 2067 0089 00       		.byte	0
 2068 008a 0B       		.uleb128 0xb
 2069 008b 15       		.uleb128 0x15
 2070 008c 01       		.byte	0x1
 2071 008d 27       		.uleb128 0x27
 2072 008e 19       		.uleb128 0x19
 2073 008f 01       		.uleb128 0x1
 2074 0090 13       		.uleb128 0x13
 2075 0091 00       		.byte	0
 2076 0092 00       		.byte	0
 2077 0093 0C       		.uleb128 0xc
 2078 0094 05       		.uleb128 0x5
 2079 0095 00       		.byte	0
 2080 0096 49       		.uleb128 0x49
 2081 0097 13       		.uleb128 0x13
 2082 0098 00       		.byte	0
 2083 0099 00       		.byte	0
 2084 009a 0D       		.uleb128 0xd
 2085 009b 0F       		.uleb128 0xf
 2086 009c 00       		.byte	0
 2087 009d 0B       		.uleb128 0xb
 2088 009e 0B       		.uleb128 0xb
 2089 009f 00       		.byte	0
 2090 00a0 00       		.byte	0
 2091 00a1 0E       		.uleb128 0xe
 2092 00a2 13       		.uleb128 0x13
 2093 00a3 01       		.byte	0x1
 2094 00a4 03       		.uleb128 0x3
 2095 00a5 0E       		.uleb128 0xe
 2096 00a6 0B       		.uleb128 0xb
 2097 00a7 05       		.uleb128 0x5
 2098 00a8 3A       		.uleb128 0x3a
 2099 00a9 0B       		.uleb128 0xb
 2100 00aa 3B       		.uleb128 0x3b
 2101 00ab 05       		.uleb128 0x5
 2102 00ac 01       		.uleb128 0x1
 2103 00ad 13       		.uleb128 0x13
 2104 00ae 00       		.byte	0
 2105 00af 00       		.byte	0
 2106 00b0 0F       		.uleb128 0xf
 2107 00b1 0D       		.uleb128 0xd
 2108 00b2 00       		.byte	0
 2109 00b3 03       		.uleb128 0x3
 2110 00b4 0E       		.uleb128 0xe
 2111 00b5 3A       		.uleb128 0x3a
ARM GAS  /tmp/cciKhLR3.s 			page 55


 2112 00b6 0B       		.uleb128 0xb
 2113 00b7 3B       		.uleb128 0x3b
 2114 00b8 05       		.uleb128 0x5
 2115 00b9 49       		.uleb128 0x49
 2116 00ba 13       		.uleb128 0x13
 2117 00bb 38       		.uleb128 0x38
 2118 00bc 05       		.uleb128 0x5
 2119 00bd 00       		.byte	0
 2120 00be 00       		.byte	0
 2121 00bf 10       		.uleb128 0x10
 2122 00c0 0D       		.uleb128 0xd
 2123 00c1 00       		.byte	0
 2124 00c2 03       		.uleb128 0x3
 2125 00c3 08       		.uleb128 0x8
 2126 00c4 3A       		.uleb128 0x3a
 2127 00c5 0B       		.uleb128 0xb
 2128 00c6 3B       		.uleb128 0x3b
 2129 00c7 05       		.uleb128 0x5
 2130 00c8 49       		.uleb128 0x49
 2131 00c9 13       		.uleb128 0x13
 2132 00ca 38       		.uleb128 0x38
 2133 00cb 05       		.uleb128 0x5
 2134 00cc 00       		.byte	0
 2135 00cd 00       		.byte	0
 2136 00ce 11       		.uleb128 0x11
 2137 00cf 35       		.uleb128 0x35
 2138 00d0 00       		.byte	0
 2139 00d1 49       		.uleb128 0x49
 2140 00d2 13       		.uleb128 0x13
 2141 00d3 00       		.byte	0
 2142 00d4 00       		.byte	0
 2143 00d5 12       		.uleb128 0x12
 2144 00d6 01       		.uleb128 0x1
 2145 00d7 01       		.byte	0x1
 2146 00d8 49       		.uleb128 0x49
 2147 00d9 13       		.uleb128 0x13
 2148 00da 01       		.uleb128 0x1
 2149 00db 13       		.uleb128 0x13
 2150 00dc 00       		.byte	0
 2151 00dd 00       		.byte	0
 2152 00de 13       		.uleb128 0x13
 2153 00df 21       		.uleb128 0x21
 2154 00e0 00       		.byte	0
 2155 00e1 49       		.uleb128 0x49
 2156 00e2 13       		.uleb128 0x13
 2157 00e3 2F       		.uleb128 0x2f
 2158 00e4 0B       		.uleb128 0xb
 2159 00e5 00       		.byte	0
 2160 00e6 00       		.byte	0
 2161 00e7 14       		.uleb128 0x14
 2162 00e8 13       		.uleb128 0x13
 2163 00e9 01       		.byte	0x1
 2164 00ea 0B       		.uleb128 0xb
 2165 00eb 0B       		.uleb128 0xb
 2166 00ec 3A       		.uleb128 0x3a
 2167 00ed 0B       		.uleb128 0xb
 2168 00ee 3B       		.uleb128 0x3b
ARM GAS  /tmp/cciKhLR3.s 			page 56


 2169 00ef 05       		.uleb128 0x5
 2170 00f0 01       		.uleb128 0x1
 2171 00f1 13       		.uleb128 0x13
 2172 00f2 00       		.byte	0
 2173 00f3 00       		.byte	0
 2174 00f4 15       		.uleb128 0x15
 2175 00f5 16       		.uleb128 0x16
 2176 00f6 00       		.byte	0
 2177 00f7 03       		.uleb128 0x3
 2178 00f8 0E       		.uleb128 0xe
 2179 00f9 3A       		.uleb128 0x3a
 2180 00fa 0B       		.uleb128 0xb
 2181 00fb 3B       		.uleb128 0x3b
 2182 00fc 05       		.uleb128 0x5
 2183 00fd 49       		.uleb128 0x49
 2184 00fe 13       		.uleb128 0x13
 2185 00ff 00       		.byte	0
 2186 0100 00       		.byte	0
 2187 0101 16       		.uleb128 0x16
 2188 0102 0D       		.uleb128 0xd
 2189 0103 00       		.byte	0
 2190 0104 03       		.uleb128 0x3
 2191 0105 08       		.uleb128 0x8
 2192 0106 3A       		.uleb128 0x3a
 2193 0107 0B       		.uleb128 0xb
 2194 0108 3B       		.uleb128 0x3b
 2195 0109 0B       		.uleb128 0xb
 2196 010a 49       		.uleb128 0x49
 2197 010b 13       		.uleb128 0x13
 2198 010c 38       		.uleb128 0x38
 2199 010d 0B       		.uleb128 0xb
 2200 010e 00       		.byte	0
 2201 010f 00       		.byte	0
 2202 0110 17       		.uleb128 0x17
 2203 0111 13       		.uleb128 0x13
 2204 0112 01       		.byte	0x1
 2205 0113 0B       		.uleb128 0xb
 2206 0114 0B       		.uleb128 0xb
 2207 0115 3A       		.uleb128 0x3a
 2208 0116 0B       		.uleb128 0xb
 2209 0117 3B       		.uleb128 0x3b
 2210 0118 0B       		.uleb128 0xb
 2211 0119 01       		.uleb128 0x1
 2212 011a 13       		.uleb128 0x13
 2213 011b 00       		.byte	0
 2214 011c 00       		.byte	0
 2215 011d 18       		.uleb128 0x18
 2216 011e 13       		.uleb128 0x13
 2217 011f 01       		.byte	0x1
 2218 0120 0B       		.uleb128 0xb
 2219 0121 05       		.uleb128 0x5
 2220 0122 3A       		.uleb128 0x3a
 2221 0123 0B       		.uleb128 0xb
 2222 0124 3B       		.uleb128 0x3b
 2223 0125 0B       		.uleb128 0xb
 2224 0126 01       		.uleb128 0x1
 2225 0127 13       		.uleb128 0x13
ARM GAS  /tmp/cciKhLR3.s 			page 57


 2226 0128 00       		.byte	0
 2227 0129 00       		.byte	0
 2228 012a 19       		.uleb128 0x19
 2229 012b 17       		.uleb128 0x17
 2230 012c 01       		.byte	0x1
 2231 012d 0B       		.uleb128 0xb
 2232 012e 0B       		.uleb128 0xb
 2233 012f 3A       		.uleb128 0x3a
 2234 0130 0B       		.uleb128 0xb
 2235 0131 3B       		.uleb128 0x3b
 2236 0132 0B       		.uleb128 0xb
 2237 0133 01       		.uleb128 0x1
 2238 0134 13       		.uleb128 0x13
 2239 0135 00       		.byte	0
 2240 0136 00       		.byte	0
 2241 0137 1A       		.uleb128 0x1a
 2242 0138 0D       		.uleb128 0xd
 2243 0139 00       		.byte	0
 2244 013a 03       		.uleb128 0x3
 2245 013b 0E       		.uleb128 0xe
 2246 013c 3A       		.uleb128 0x3a
 2247 013d 0B       		.uleb128 0xb
 2248 013e 3B       		.uleb128 0x3b
 2249 013f 05       		.uleb128 0x5
 2250 0140 49       		.uleb128 0x49
 2251 0141 13       		.uleb128 0x13
 2252 0142 00       		.byte	0
 2253 0143 00       		.byte	0
 2254 0144 1B       		.uleb128 0x1b
 2255 0145 26       		.uleb128 0x26
 2256 0146 00       		.byte	0
 2257 0147 49       		.uleb128 0x49
 2258 0148 13       		.uleb128 0x13
 2259 0149 00       		.byte	0
 2260 014a 00       		.byte	0
 2261 014b 1C       		.uleb128 0x1c
 2262 014c 2E       		.uleb128 0x2e
 2263 014d 00       		.byte	0
 2264 014e 03       		.uleb128 0x3
 2265 014f 0E       		.uleb128 0xe
 2266 0150 3A       		.uleb128 0x3a
 2267 0151 0B       		.uleb128 0xb
 2268 0152 3B       		.uleb128 0x3b
 2269 0153 0B       		.uleb128 0xb
 2270 0154 27       		.uleb128 0x27
 2271 0155 19       		.uleb128 0x19
 2272 0156 11       		.uleb128 0x11
 2273 0157 01       		.uleb128 0x1
 2274 0158 12       		.uleb128 0x12
 2275 0159 06       		.uleb128 0x6
 2276 015a 40       		.uleb128 0x40
 2277 015b 18       		.uleb128 0x18
 2278 015c 9742     		.uleb128 0x2117
 2279 015e 19       		.uleb128 0x19
 2280 015f 00       		.byte	0
 2281 0160 00       		.byte	0
 2282 0161 1D       		.uleb128 0x1d
ARM GAS  /tmp/cciKhLR3.s 			page 58


 2283 0162 2E       		.uleb128 0x2e
 2284 0163 00       		.byte	0
 2285 0164 3F       		.uleb128 0x3f
 2286 0165 19       		.uleb128 0x19
 2287 0166 03       		.uleb128 0x3
 2288 0167 0E       		.uleb128 0xe
 2289 0168 3A       		.uleb128 0x3a
 2290 0169 0B       		.uleb128 0xb
 2291 016a 3B       		.uleb128 0x3b
 2292 016b 0B       		.uleb128 0xb
 2293 016c 27       		.uleb128 0x27
 2294 016d 19       		.uleb128 0x19
 2295 016e 11       		.uleb128 0x11
 2296 016f 01       		.uleb128 0x1
 2297 0170 12       		.uleb128 0x12
 2298 0171 06       		.uleb128 0x6
 2299 0172 40       		.uleb128 0x40
 2300 0173 18       		.uleb128 0x18
 2301 0174 9642     		.uleb128 0x2116
 2302 0176 19       		.uleb128 0x19
 2303 0177 00       		.byte	0
 2304 0178 00       		.byte	0
 2305 0179 1E       		.uleb128 0x1e
 2306 017a 2E       		.uleb128 0x2e
 2307 017b 00       		.byte	0
 2308 017c 3F       		.uleb128 0x3f
 2309 017d 19       		.uleb128 0x19
 2310 017e 03       		.uleb128 0x3
 2311 017f 0E       		.uleb128 0xe
 2312 0180 3A       		.uleb128 0x3a
 2313 0181 0B       		.uleb128 0xb
 2314 0182 3B       		.uleb128 0x3b
 2315 0183 0B       		.uleb128 0xb
 2316 0184 27       		.uleb128 0x27
 2317 0185 19       		.uleb128 0x19
 2318 0186 11       		.uleb128 0x11
 2319 0187 01       		.uleb128 0x1
 2320 0188 12       		.uleb128 0x12
 2321 0189 06       		.uleb128 0x6
 2322 018a 40       		.uleb128 0x40
 2323 018b 18       		.uleb128 0x18
 2324 018c 9742     		.uleb128 0x2117
 2325 018e 19       		.uleb128 0x19
 2326 018f 00       		.byte	0
 2327 0190 00       		.byte	0
 2328 0191 1F       		.uleb128 0x1f
 2329 0192 34       		.uleb128 0x34
 2330 0193 00       		.byte	0
 2331 0194 03       		.uleb128 0x3
 2332 0195 0E       		.uleb128 0xe
 2333 0196 3A       		.uleb128 0x3a
 2334 0197 0B       		.uleb128 0xb
 2335 0198 3B       		.uleb128 0x3b
 2336 0199 05       		.uleb128 0x5
 2337 019a 49       		.uleb128 0x49
 2338 019b 13       		.uleb128 0x13
 2339 019c 3F       		.uleb128 0x3f
ARM GAS  /tmp/cciKhLR3.s 			page 59


 2340 019d 19       		.uleb128 0x19
 2341 019e 3C       		.uleb128 0x3c
 2342 019f 19       		.uleb128 0x19
 2343 01a0 00       		.byte	0
 2344 01a1 00       		.byte	0
 2345 01a2 20       		.uleb128 0x20
 2346 01a3 34       		.uleb128 0x34
 2347 01a4 00       		.byte	0
 2348 01a5 03       		.uleb128 0x3
 2349 01a6 0E       		.uleb128 0xe
 2350 01a7 3A       		.uleb128 0x3a
 2351 01a8 0B       		.uleb128 0xb
 2352 01a9 3B       		.uleb128 0x3b
 2353 01aa 0B       		.uleb128 0xb
 2354 01ab 49       		.uleb128 0x49
 2355 01ac 13       		.uleb128 0x13
 2356 01ad 3F       		.uleb128 0x3f
 2357 01ae 19       		.uleb128 0x19
 2358 01af 02       		.uleb128 0x2
 2359 01b0 18       		.uleb128 0x18
 2360 01b1 00       		.byte	0
 2361 01b2 00       		.byte	0
 2362 01b3 21       		.uleb128 0x21
 2363 01b4 34       		.uleb128 0x34
 2364 01b5 00       		.byte	0
 2365 01b6 03       		.uleb128 0x3
 2366 01b7 08       		.uleb128 0x8
 2367 01b8 3A       		.uleb128 0x3a
 2368 01b9 0B       		.uleb128 0xb
 2369 01ba 3B       		.uleb128 0x3b
 2370 01bb 05       		.uleb128 0x5
 2371 01bc 49       		.uleb128 0x49
 2372 01bd 13       		.uleb128 0x13
 2373 01be 3F       		.uleb128 0x3f
 2374 01bf 19       		.uleb128 0x19
 2375 01c0 3C       		.uleb128 0x3c
 2376 01c1 19       		.uleb128 0x19
 2377 01c2 00       		.byte	0
 2378 01c3 00       		.byte	0
 2379 01c4 00       		.byte	0
 2380              		.section	.debug_aranges,"",%progbits
 2381 0000 2C000000 		.4byte	0x2c
 2382 0004 0200     		.2byte	0x2
 2383 0006 00000000 		.4byte	.Ldebug_info0
 2384 000a 04       		.byte	0x4
 2385 000b 00       		.byte	0
 2386 000c 0000     		.2byte	0
 2387 000e 0000     		.2byte	0
 2388 0010 00000000 		.4byte	.LFB272
 2389 0014 60000000 		.4byte	.LFE272-.LFB272
 2390 0018 00000000 		.4byte	.LFB273
 2391 001c B0000000 		.4byte	.LFE273-.LFB273
 2392 0020 00000000 		.4byte	.LFB274
 2393 0024 D4010000 		.4byte	.LFE274-.LFB274
 2394 0028 00000000 		.4byte	0
 2395 002c 00000000 		.4byte	0
 2396              		.section	.debug_ranges,"",%progbits
ARM GAS  /tmp/cciKhLR3.s 			page 60


 2397              	.Ldebug_ranges0:
 2398 0000 00000000 		.4byte	.LFB272
 2399 0004 60000000 		.4byte	.LFE272
 2400 0008 00000000 		.4byte	.LFB273
 2401 000c B0000000 		.4byte	.LFE273
 2402 0010 00000000 		.4byte	.LFB274
 2403 0014 D4010000 		.4byte	.LFE274
 2404 0018 00000000 		.4byte	0
 2405 001c 00000000 		.4byte	0
 2406              		.section	.debug_line,"",%progbits
 2407              	.Ldebug_line0:
 2408 0000 E4020000 		.section	.debug_str,"MS",%progbits,1
 2408      02004902 
 2408      00000201 
 2408      FB0E0D00 
 2408      01010101 
 2409              	.LASF132:
 2410 0000 74625F70 		.ascii	"tb_ptr\000"
 2410      747200
 2411              	.LASF55:
 2412 0007 72656164 		.ascii	"ready_list_t\000"
 2412      795F6C69 
 2412      73745F74 
 2412      00
 2413              	.LASF126:
 2414 0014 73655F74 		.ascii	"se_time\000"
 2414      696D6500 
 2415              	.LASF2:
 2416 001c 73697A65 		.ascii	"size_t\000"
 2416      5F7400
 2417              	.LASF147:
 2418 0023 7264796D 		.ascii	"rdymsg\000"
 2418      736700
 2419              	.LASF17:
 2420 002a 75696E74 		.ascii	"uint64_t\000"
 2420      36345F74 
 2420      00
 2421              	.LASF85:
 2422 0033 6B65726E 		.ascii	"kernel_stats\000"
 2422      656C5F73 
 2422      74617473 
 2422      00
 2423              	.LASF3:
 2424 0040 5F5F7569 		.ascii	"__uint8_t\000"
 2424      6E74385F 
 2424      7400
 2425              	.LASF125:
 2426 004a 706F7274 		.ascii	"port_intctx\000"
 2426      5F696E74 
 2426      63747800 
 2427              	.LASF54:
 2428 0056 63685F74 		.ascii	"ch_threads_queue\000"
 2428      68726561 
 2428      64735F71 
 2428      75657565 
 2428      00
 2429              	.LASF74:
ARM GAS  /tmp/cciKhLR3.s 			page 61


 2430 0067 73797374 		.ascii	"system_debug_t\000"
 2430      656D5F64 
 2430      65627567 
 2430      5F7400
 2431              	.LASF90:
 2432 0076 4F505443 		.ascii	"OPTCR\000"
 2432      5200
 2433              	.LASF138:
 2434 007c 776F7273 		.ascii	"worst\000"
 2434      7400
 2435              	.LASF91:
 2436 0082 4F505443 		.ascii	"OPTCR1\000"
 2436      523100
 2437              	.LASF141:
 2438 0089 74696D65 		.ascii	"time_measurement_t\000"
 2438      5F6D6561 
 2438      73757265 
 2438      6D656E74 
 2438      5F7400
 2439              	.LASF13:
 2440 009c 6C6F6E67 		.ascii	"long long unsigned int\000"
 2440      206C6F6E 
 2440      6720756E 
 2440      7369676E 
 2440      65642069 
 2441              	.LASF134:
 2442 00b3 63685F74 		.ascii	"ch_trace_buffer_t\000"
 2442      72616365 
 2442      5F627566 
 2442      6665725F 
 2442      7400
 2443              	.LASF129:
 2444 00c5 73655F73 		.ascii	"se_state\000"
 2444      74617465 
 2444      00
 2445              	.LASF155:
 2446 00ce 735F7175 		.ascii	"s_queue\000"
 2446      65756500 
 2447              	.LASF148:
 2448 00d6 65786974 		.ascii	"exitcode\000"
 2448      636F6465 
 2448      00
 2449              	.LASF84:
 2450 00df 6D61696E 		.ascii	"mainthread\000"
 2450      74687265 
 2450      616400
 2451              	.LASF71:
 2452 00ea 76697274 		.ascii	"virtual_timers_list_t\000"
 2452      75616C5F 
 2452      74696D65 
 2452      72735F6C 
 2452      6973745F 
 2453              	.LASF166:
 2454 0100 49544D5F 		.ascii	"ITM_RxBuffer\000"
 2454      52784275 
 2454      66666572 
 2454      00
ARM GAS  /tmp/cciKhLR3.s 			page 62


 2455              	.LASF19:
 2456 010d 72747469 		.ascii	"rttime_t\000"
 2456      6D655F74 
 2456      00
 2457              	.LASF110:
 2458 0116 41484231 		.ascii	"AHB1LPENR\000"
 2458      4C50454E 
 2458      5200
 2459              	.LASF32:
 2460 0120 705F7072 		.ascii	"p_prio\000"
 2460      696F00
 2461              	.LASF11:
 2462 0127 6C6F6E67 		.ascii	"long long int\000"
 2462      206C6F6E 
 2462      6720696E 
 2462      7400
 2463              	.LASF1:
 2464 0135 7369676E 		.ascii	"signed char\000"
 2464      65642063 
 2464      68617200 
 2465              	.LASF170:
 2466 0141 2F686F6D 		.ascii	"/home/jerker/git/AutoTux/stm32\000"
 2466      652F6A65 
 2466      726B6572 
 2466      2F676974 
 2466      2F417574 
 2467              	.LASF96:
 2468 0160 41484231 		.ascii	"AHB1RSTR\000"
 2468      52535452 
 2468      00
 2469              	.LASF92:
 2470 0169 464C4153 		.ascii	"FLASH_TypeDef\000"
 2470      485F5479 
 2470      70654465 
 2470      6600
 2471              	.LASF47:
 2472 0177 705F6D70 		.ascii	"p_mpool\000"
 2472      6F6F6C00 
 2473              	.LASF158:
 2474 017f 6D5F7175 		.ascii	"m_queue\000"
 2474      65756500 
 2475              	.LASF83:
 2476 0187 76746C69 		.ascii	"vtlist\000"
 2476      737400
 2477              	.LASF93:
 2478 018e 5057525F 		.ascii	"PWR_TypeDef\000"
 2478      54797065 
 2478      44656600 
 2479              	.LASF150:
 2480 019a 77747472 		.ascii	"wttrp\000"
 2480      7000
 2481              	.LASF81:
 2482 01a0 63685F73 		.ascii	"ch_system\000"
 2482      79737465 
 2482      6D00
 2483              	.LASF8:
 2484 01aa 6C6F6E67 		.ascii	"long int\000"
ARM GAS  /tmp/cciKhLR3.s 			page 63


 2484      20696E74 
 2484      00
 2485              	.LASF101:
 2486 01b3 41504232 		.ascii	"APB2RSTR\000"
 2486      52535452 
 2486      00
 2487              	.LASF114:
 2488 01bc 41504231 		.ascii	"APB1LPENR\000"
 2488      4C50454E 
 2488      5200
 2489              	.LASF21:
 2490 01c6 74737461 		.ascii	"tstate_t\000"
 2490      74655F74 
 2490      00
 2491              	.LASF127:
 2492 01cf 73655F74 		.ascii	"se_tp\000"
 2492      7000
 2493              	.LASF89:
 2494 01d5 4F50544B 		.ascii	"OPTKEYR\000"
 2494      45595200 
 2495              	.LASF34:
 2496 01dd 705F6E65 		.ascii	"p_newer\000"
 2496      77657200 
 2497              	.LASF94:
 2498 01e5 504C4C43 		.ascii	"PLLCFGR\000"
 2498      46475200 
 2499              	.LASF131:
 2500 01ed 74625F73 		.ascii	"tb_size\000"
 2500      697A6500 
 2501              	.LASF60:
 2502 01f5 725F6E65 		.ascii	"r_newer\000"
 2502      77657200 
 2503              	.LASF122:
 2504 01fd 72656761 		.ascii	"regarm_t\000"
 2504      726D5F74 
 2504      00
 2505              	.LASF67:
 2506 0206 76745F70 		.ascii	"vt_prev\000"
 2506      72657600 
 2507              	.LASF88:
 2508 020e 4B455952 		.ascii	"KEYR\000"
 2508      00
 2509              	.LASF75:
 2510 0213 63685F73 		.ascii	"ch_system_debug\000"
 2510      79737465 
 2510      6D5F6465 
 2510      62756700 
 2511              	.LASF165:
 2512 0223 73746D33 		.ascii	"stm32_clock_init\000"
 2512      325F636C 
 2512      6F636B5F 
 2512      696E6974 
 2512      00
 2513              	.LASF162:
 2514 0234 6D757465 		.ascii	"mutex_t\000"
 2514      785F7400 
 2515              	.LASF78:
ARM GAS  /tmp/cciKhLR3.s 			page 64


 2516 023c 6C6F636B 		.ascii	"lock_cnt\000"
 2516      5F636E74 
 2516      00
 2517              	.LASF86:
 2518 0245 69646C65 		.ascii	"idle_thread_wa\000"
 2518      5F746872 
 2518      6561645F 
 2518      776100
 2519              	.LASF26:
 2520 0254 636E745F 		.ascii	"cnt_t\000"
 2520      7400
 2521              	.LASF37:
 2522 025a 705F7374 		.ascii	"p_stklimit\000"
 2522      6B6C696D 
 2522      697400
 2523              	.LASF0:
 2524 0265 756E7369 		.ascii	"unsigned int\000"
 2524      676E6564 
 2524      20696E74 
 2524      00
 2525              	.LASF66:
 2526 0272 76745F6E 		.ascii	"vt_next\000"
 2526      65787400 
 2527              	.LASF167:
 2528 027a 53797374 		.ascii	"SystemCoreClock\000"
 2528      656D436F 
 2528      7265436C 
 2528      6F636B00 
 2529              	.LASF151:
 2530 028a 77747365 		.ascii	"wtsemp\000"
 2530      6D7000
 2531              	.LASF42:
 2532 0291 705F6D73 		.ascii	"p_msgqueue\000"
 2532      67717565 
 2532      756500
 2533              	.LASF121:
 2534 029c 5243435F 		.ascii	"RCC_TypeDef\000"
 2534      54797065 
 2534      44656600 
 2535              	.LASF142:
 2536 02a8 6E5F6972 		.ascii	"n_irq\000"
 2536      7100
 2537              	.LASF156:
 2538 02ae 735F636E 		.ascii	"s_cnt\000"
 2538      7400
 2539              	.LASF6:
 2540 02b4 73686F72 		.ascii	"short unsigned int\000"
 2540      7420756E 
 2540      7369676E 
 2540      65642069 
 2540      6E7400
 2541              	.LASF146:
 2542 02c7 6B65726E 		.ascii	"kernel_stats_t\000"
 2542      656C5F73 
 2542      74617473 
 2542      5F7400
 2543              	.LASF51:
ARM GAS  /tmp/cciKhLR3.s 			page 65


 2544 02d6 63685F74 		.ascii	"ch_thread\000"
 2544      68726561 
 2544      6400
 2545              	.LASF120:
 2546 02e0 504C4C49 		.ascii	"PLLI2SCFGR\000"
 2546      32534346 
 2546      475200
 2547              	.LASF24:
 2548 02eb 6D73675F 		.ascii	"msg_t\000"
 2548      7400
 2549              	.LASF98:
 2550 02f1 41484233 		.ascii	"AHB3RSTR\000"
 2550      52535452 
 2550      00
 2551              	.LASF27:
 2552 02fa 75636E74 		.ascii	"ucnt_t\000"
 2552      5F7400
 2553              	.LASF171:
 2554 0301 68616C5F 		.ascii	"hal_lld_backup_domain_init\000"
 2554      6C6C645F 
 2554      6261636B 
 2554      75705F64 
 2554      6F6D6169 
 2555              	.LASF80:
 2556 031c 63685F73 		.ascii	"ch_system_t\000"
 2556      79737465 
 2556      6D5F7400 
 2557              	.LASF168:
 2558 0328 474E5520 		.ascii	"GNU C 4.8.2 -mcpu=cortex-m4 -mno-thumb-interwork -m"
 2558      4320342E 
 2558      382E3220 
 2558      2D6D6370 
 2558      753D636F 
 2559 035b 7468756D 		.ascii	"thumb -ggdb -O0 -fomit-frame-pointer -falign-functi"
 2559      62202D67 
 2559      67646220 
 2559      2D4F3020 
 2559      2D666F6D 
 2560 038e 6F6E733D 		.ascii	"ons=16 -ffunction-sections -fdata-sections -fno-com"
 2560      3136202D 
 2560      6666756E 
 2560      6374696F 
 2560      6E2D7365 
 2561 03c1 6D6F6E20 		.ascii	"mon -flto\000"
 2561      2D666C74 
 2561      6F00
 2562              	.LASF133:
 2563 03cb 74625F62 		.ascii	"tb_buffer\000"
 2563      75666665 
 2563      7200
 2564              	.LASF115:
 2565 03d5 41504232 		.ascii	"APB2LPENR\000"
 2565      4C50454E 
 2565      5200
 2566              	.LASF145:
 2567 03df 6D5F6372 		.ascii	"m_crit_isr\000"
 2567      69745F69 
ARM GAS  /tmp/cciKhLR3.s 			page 66


 2567      737200
 2568              	.LASF56:
 2569 03ea 63685F72 		.ascii	"ch_ready_list\000"
 2569      65616479 
 2569      5F6C6973 
 2569      7400
 2570              	.LASF25:
 2571 03f8 6576656E 		.ascii	"eventmask_t\000"
 2571      746D6173 
 2571      6B5F7400 
 2572              	.LASF7:
 2573 0404 5F5F696E 		.ascii	"__int32_t\000"
 2573      7433325F 
 2573      7400
 2574              	.LASF123:
 2575 040e 73746B61 		.ascii	"stkalign_t\000"
 2575      6C69676E 
 2575      5F7400
 2576              	.LASF50:
 2577 0419 74687265 		.ascii	"threads_list_t\000"
 2577      6164735F 
 2577      6C697374 
 2577      5F7400
 2578              	.LASF64:
 2579 0428 76697274 		.ascii	"virtual_timer_t\000"
 2579      75616C5F 
 2579      74696D65 
 2579      725F7400 
 2580              	.LASF41:
 2581 0438 705F7761 		.ascii	"p_waiting\000"
 2581      6974696E 
 2581      6700
 2582              	.LASF87:
 2583 0442 73697A65 		.ascii	"sizetype\000"
 2583      74797065 
 2583      00
 2584              	.LASF49:
 2585 044b 74687265 		.ascii	"thread_reference_t\000"
 2585      61645F72 
 2585      65666572 
 2585      656E6365 
 2585      5F7400
 2586              	.LASF72:
 2587 045e 63685F76 		.ascii	"ch_virtual_timers_list\000"
 2587      69727475 
 2587      616C5F74 
 2587      696D6572 
 2587      735F6C69 
 2588              	.LASF130:
 2589 0475 63685F73 		.ascii	"ch_swc_event_t\000"
 2589      77635F65 
 2589      76656E74 
 2589      5F7400
 2590              	.LASF105:
 2591 0484 41484233 		.ascii	"AHB3ENR\000"
 2591      454E5200 
 2592              	.LASF73:
ARM GAS  /tmp/cciKhLR3.s 			page 67


 2593 048c 76745F6C 		.ascii	"vt_lasttime\000"
 2593      61737474 
 2593      696D6500 
 2594              	.LASF35:
 2595 0498 705F6F6C 		.ascii	"p_older\000"
 2595      64657200 
 2596              	.LASF59:
 2597 04a0 725F6374 		.ascii	"r_ctx\000"
 2597      7800
 2598              	.LASF111:
 2599 04a6 41484232 		.ascii	"AHB2LPENR\000"
 2599      4C50454E 
 2599      5200
 2600              	.LASF136:
 2601 04b0 746D5F63 		.ascii	"tm_calibration_t\000"
 2601      616C6962 
 2601      72617469 
 2601      6F6E5F74 
 2601      00
 2602              	.LASF62:
 2603 04c1 725F6375 		.ascii	"r_current\000"
 2603      7272656E 
 2603      7400
 2604              	.LASF100:
 2605 04cb 41504231 		.ascii	"APB1RSTR\000"
 2605      52535452 
 2605      00
 2606              	.LASF12:
 2607 04d4 5F5F7569 		.ascii	"__uint64_t\000"
 2607      6E743634 
 2607      5F7400
 2608              	.LASF140:
 2609 04df 63756D75 		.ascii	"cumulative\000"
 2609      6C617469 
 2609      766500
 2610              	.LASF22:
 2611 04ea 74726566 		.ascii	"trefs_t\000"
 2611      735F7400 
 2612              	.LASF99:
 2613 04f2 52455345 		.ascii	"RESERVED0\000"
 2613      52564544 
 2613      3000
 2614              	.LASF102:
 2615 04fc 52455345 		.ascii	"RESERVED1\000"
 2615      52564544 
 2615      3100
 2616              	.LASF106:
 2617 0506 52455345 		.ascii	"RESERVED2\000"
 2617      52564544 
 2617      3200
 2618              	.LASF109:
 2619 0510 52455345 		.ascii	"RESERVED3\000"
 2619      52564544 
 2619      3300
 2620              	.LASF113:
 2621 051a 52455345 		.ascii	"RESERVED4\000"
 2621      52564544 
ARM GAS  /tmp/cciKhLR3.s 			page 68


 2621      3400
 2622              	.LASF31:
 2623 0524 705F7072 		.ascii	"p_prev\000"
 2623      657600
 2624              	.LASF118:
 2625 052b 52455345 		.ascii	"RESERVED6\000"
 2625      52564544 
 2625      3600
 2626              	.LASF23:
 2627 0535 74707269 		.ascii	"tprio_t\000"
 2627      6F5F7400 
 2628              	.LASF143:
 2629 053d 6E5F6374 		.ascii	"n_ctxswc\000"
 2629      78737763 
 2629      00
 2630              	.LASF163:
 2631 0546 5F426F6F 		.ascii	"_Bool\000"
 2631      6C00
 2632              	.LASF15:
 2633 054c 696E7433 		.ascii	"int32_t\000"
 2633      325F7400 
 2634              	.LASF4:
 2635 0554 756E7369 		.ascii	"unsigned char\000"
 2635      676E6564 
 2635      20636861 
 2635      7200
 2636              	.LASF45:
 2637 0562 705F6D74 		.ascii	"p_mtxlist\000"
 2637      786C6973 
 2637      7400
 2638              	.LASF5:
 2639 056c 73686F72 		.ascii	"short int\000"
 2639      7420696E 
 2639      7400
 2640              	.LASF38:
 2641 0576 705F7374 		.ascii	"p_state\000"
 2641      61746500 
 2642              	.LASF112:
 2643 057e 41484233 		.ascii	"AHB3LPENR\000"
 2643      4C50454E 
 2643      5200
 2644              	.LASF58:
 2645 0588 725F7072 		.ascii	"r_prio\000"
 2645      696F00
 2646              	.LASF153:
 2647 058f 65776D61 		.ascii	"ewmask\000"
 2647      736B00
 2648              	.LASF30:
 2649 0596 705F6E65 		.ascii	"p_next\000"
 2649      787400
 2650              	.LASF39:
 2651 059d 705F666C 		.ascii	"p_flags\000"
 2651      61677300 
 2652              	.LASF48:
 2653 05a5 705F7374 		.ascii	"p_stats\000"
 2653      61747300 
 2654              	.LASF108:
ARM GAS  /tmp/cciKhLR3.s 			page 69


 2655 05ad 41504232 		.ascii	"APB2ENR\000"
 2655      454E5200 
 2656              	.LASF65:
 2657 05b5 63685F76 		.ascii	"ch_virtual_timer\000"
 2657      69727475 
 2657      616C5F74 
 2657      696D6572 
 2657      00
 2658              	.LASF154:
 2659 05c6 63685F73 		.ascii	"ch_semaphore\000"
 2659      656D6170 
 2659      686F7265 
 2659      00
 2660              	.LASF44:
 2661 05d3 705F6570 		.ascii	"p_epending\000"
 2661      656E6469 
 2661      6E6700
 2662              	.LASF116:
 2663 05de 52455345 		.ascii	"RESERVED5\000"
 2663      52564544 
 2663      3500
 2664              	.LASF16:
 2665 05e8 75696E74 		.ascii	"uint32_t\000"
 2665      33325F74 
 2665      00
 2666              	.LASF152:
 2667 05f1 77746D74 		.ascii	"wtmtxp\000"
 2667      787000
 2668              	.LASF57:
 2669 05f8 725F7175 		.ascii	"r_queue\000"
 2669      65756500 
 2670              	.LASF68:
 2671 0600 76745F64 		.ascii	"vt_delta\000"
 2671      656C7461 
 2671      00
 2672              	.LASF52:
 2673 0609 63685F74 		.ascii	"ch_threads_list\000"
 2673      68726561 
 2673      64735F6C 
 2673      69737400 
 2674              	.LASF10:
 2675 0619 6C6F6E67 		.ascii	"long unsigned int\000"
 2675      20756E73 
 2675      69676E65 
 2675      6420696E 
 2675      7400
 2676              	.LASF161:
 2677 062b 63686172 		.ascii	"char\000"
 2677      00
 2678              	.LASF169:
 2679 0630 6C69622F 		.ascii	"lib/ChibiOS_16.1.4//os/hal/ports/STM32/STM32F4xx/ha"
 2679      43686962 
 2679      694F535F 
 2679      31362E31 
 2679      2E342F2F 
 2680 0663 6C5F6C6C 		.ascii	"l_lld.c\000"
 2680      642E6300 
ARM GAS  /tmp/cciKhLR3.s 			page 70


 2681              	.LASF97:
 2682 066b 41484232 		.ascii	"AHB2RSTR\000"
 2682      52535452 
 2682      00
 2683              	.LASF29:
 2684 0674 74687265 		.ascii	"thread_t\000"
 2684      61645F74 
 2684      00
 2685              	.LASF137:
 2686 067d 62657374 		.ascii	"best\000"
 2686      00
 2687              	.LASF160:
 2688 0682 6D5F6E65 		.ascii	"m_next\000"
 2688      787400
 2689              	.LASF28:
 2690 0689 73797374 		.ascii	"systime_t\000"
 2690      696D655F 
 2690      7400
 2691              	.LASF46:
 2692 0693 705F7265 		.ascii	"p_realprio\000"
 2692      616C7072 
 2692      696F00
 2693              	.LASF63:
 2694 069e 76746675 		.ascii	"vtfunc_t\000"
 2694      6E635F74 
 2694      00
 2695              	.LASF9:
 2696 06a7 5F5F7569 		.ascii	"__uint32_t\000"
 2696      6E743332 
 2696      5F7400
 2697              	.LASF139:
 2698 06b2 6C617374 		.ascii	"last\000"
 2698      00
 2699              	.LASF76:
 2700 06b7 70616E69 		.ascii	"panic_msg\000"
 2700      635F6D73 
 2700      6700
 2701              	.LASF135:
 2702 06c1 6F666673 		.ascii	"offset\000"
 2702      657400
 2703              	.LASF107:
 2704 06c8 41504231 		.ascii	"APB1ENR\000"
 2704      454E5200 
 2705              	.LASF104:
 2706 06d0 41484232 		.ascii	"AHB2ENR\000"
 2706      454E5200 
 2707              	.LASF124:
 2708 06d8 636F6E74 		.ascii	"context\000"
 2708      65787400 
 2709              	.LASF61:
 2710 06e0 725F6F6C 		.ascii	"r_older\000"
 2710      64657200 
 2711              	.LASF164:
 2712 06e8 68616C5F 		.ascii	"hal_lld_init\000"
 2712      6C6C645F 
 2712      696E6974 
 2712      00
ARM GAS  /tmp/cciKhLR3.s 			page 71


 2713              	.LASF18:
 2714 06f5 7274636E 		.ascii	"rtcnt_t\000"
 2714      745F7400 
 2715              	.LASF70:
 2716 06fd 76745F70 		.ascii	"vt_par\000"
 2716      617200
 2717              	.LASF119:
 2718 0704 53534347 		.ascii	"SSCGR\000"
 2718      5200
 2719              	.LASF53:
 2720 070a 74687265 		.ascii	"threads_queue_t\000"
 2720      6164735F 
 2720      71756575 
 2720      655F7400 
 2721              	.LASF157:
 2722 071a 63685F6D 		.ascii	"ch_mutex\000"
 2722      75746578 
 2722      00
 2723              	.LASF40:
 2724 0723 705F7265 		.ascii	"p_refs\000"
 2724      667300
 2725              	.LASF77:
 2726 072a 6973725F 		.ascii	"isr_cnt\000"
 2726      636E7400 
 2727              	.LASF117:
 2728 0732 42444352 		.ascii	"BDCR\000"
 2728      00
 2729              	.LASF82:
 2730 0737 726C6973 		.ascii	"rlist\000"
 2730      7400
 2731              	.LASF14:
 2732 073d 75696E74 		.ascii	"uint8_t\000"
 2732      385F7400 
 2733              	.LASF149:
 2734 0745 77746F62 		.ascii	"wtobjp\000"
 2734      6A7000
 2735              	.LASF36:
 2736 074c 705F6E61 		.ascii	"p_name\000"
 2736      6D6500
 2737              	.LASF103:
 2738 0753 41484231 		.ascii	"AHB1ENR\000"
 2738      454E5200 
 2739              	.LASF95:
 2740 075b 43464752 		.ascii	"CFGR\000"
 2740      00
 2741              	.LASF20:
 2742 0760 746D6F64 		.ascii	"tmode_t\000"
 2742      655F7400 
 2743              	.LASF79:
 2744 0768 74726163 		.ascii	"trace_buffer\000"
 2744      655F6275 
 2744      66666572 
 2744      00
 2745              	.LASF43:
 2746 0775 705F6D73 		.ascii	"p_msg\000"
 2746      6700
 2747              	.LASF144:
ARM GAS  /tmp/cciKhLR3.s 			page 72


 2748 077b 6D5F6372 		.ascii	"m_crit_thd\000"
 2748      69745F74 
 2748      686400
 2749              	.LASF159:
 2750 0786 6D5F6F77 		.ascii	"m_owner\000"
 2750      6E657200 
 2751              	.LASF128:
 2752 078e 73655F77 		.ascii	"se_wtobjp\000"
 2752      746F626A 
 2752      7000
 2753              	.LASF33:
 2754 0798 705F6374 		.ascii	"p_ctx\000"
 2754      7800
 2755              	.LASF69:
 2756 079e 76745F66 		.ascii	"vt_func\000"
 2756      756E6300 
 2757              		.comm	__gnu_lto_v1,1,1
 2758              		.ident	"GCC: (4.8.2-14ubuntu1+6) 4.8.2"
ARM GAS  /tmp/cciKhLR3.s 			page 73


DEFINED SYMBOLS
                            *ABS*:0000000000000000 hal_lld.c
     /tmp/cciKhLR3.s:301    .data.SystemCoreClock:0000000000000000 SystemCoreClock
     /tmp/cciKhLR3.s:298    .data.SystemCoreClock:0000000000000000 $d
     /tmp/cciKhLR3.s:304    .text.hal_lld_backup_domain_init:0000000000000000 $t
     /tmp/cciKhLR3.s:309    .text.hal_lld_backup_domain_init:0000000000000000 hal_lld_backup_domain_init
     /tmp/cciKhLR3.s:357    .text.hal_lld_init:0000000000000000 $t
     /tmp/cciKhLR3.s:363    .text.hal_lld_init:0000000000000000 hal_lld_init
     /tmp/cciKhLR3.s:437    .text.stm32_clock_init:0000000000000000 $t
     /tmp/cciKhLR3.s:443    .text.stm32_clock_init:0000000000000000 stm32_clock_init
                            *COM*:0000000000000001 __gnu_lto_v1
                     .debug_frame:0000000000000010 $d

NO UNDEFINED SYMBOLS
