ARM GAS  /tmp/ccT7YWlu.s 			page 1


   1              		.syntax unified
   2              		.cpu cortex-m4
   3              		.fpu softvfp
   4              		.eabi_attribute 20, 1
   5              		.eabi_attribute 21, 1
   6              		.eabi_attribute 23, 3
   7              		.eabi_attribute 24, 1
   8              		.eabi_attribute 25, 1
   9              		.eabi_attribute 26, 1
  10              		.eabi_attribute 30, 6
  11              		.eabi_attribute 34, 1
  12              		.eabi_attribute 18, 4
  13              		.thumb
  14              		.file	"memstreams.c"
  15              		.text
  16              	.Ltext0:
  17              		.section	.gnu.lto_.inline.c0d1d754b27eec5c,"",%progbits
  18 0000 789C6362 		.ascii	"x\234cb`b\300\006\262\2404+\003\003\037/\003\003\223"
  18      6062C006 
  18      B2A0342B 
  18      03031F2F 
  18      030393
  19 0013 C484D38C 		.ascii	"\304\204\323\214\014,\020\305\214\230BL\014\242\262"
  19      0C2C10C5 
  19      8C98424C 
  19      0CA2B2
  20 0022 4052AEE1 		.ascii	"@R\256\341\027\\\210\005\250\206\201\031\2078\013\003"
  20      175C8805 
  20      A8868119 
  20      87380B03 
  21 0032 073B509C 		.ascii	"\007;P\234gC.L\230\001\000\011~\010\264"
  21      67432E4C 
  21      98010009 
  21      7E08B4
  22              		.text
  23              		.section	.gnu.lto_put.c0d1d754b27eec5c,"",%progbits
  24 0000 789C9D53 		.ascii	"x\234\235S\277k\024A\024~of\366~\237Q\2600]H%Fn\301"
  24      BF6B1441 
  24      147E6F66 
  24      F67E9F51 
  24      B0305D48 
  25 0018 7FC0DACE 		.ascii	"\177\300\332\316B!\026\026\227\030\326\205\034\212g"
  25      42211616 
  25      9718D685 
  25      1C8A67
  26 0027 7F73C911 		.ascii	"\177s\311\021D\203\204\0200F\305\244P\374\005\346\264"
  26      44838410 
  26      3046C5A4 
  26      50FC05E6 
  26      B4
  27 0038 B922C516 		.ascii	"\271\"\305\026\022\016\217@\304F\003\302\221\223\330"
  27      120E8F40 
  27      C44603C2 
  27      9193D8
  28 0047 5858A610 		.ascii	"XX\246\020\327\367f\262\233C\324\254>v\337\316\274\371"
  28      D7F766B2 
  28      9B43D4AC 
ARM GAS  /tmp/ccT7YWlu.s 			page 2


  28      3E76DFCE 
  28      BCF9
  29 0059 BEF7BE79 		.ascii	"\276\367\276y3+@\300\257\346\322\273\246\000N\361$\005"
  29      332B40C0 
  29      AFE6D2BB 
  29      A6004EF1 
  29      2405
  30 006b 48081442 		.ascii	"H\010\024B\002hAQ\255$:\024Q\306;\210\004B\250\011\251"
  30      02684151 
  30      AD243A14 
  30      51C63B88 
  30      0442A809 
  31 0080 1CAC5DE0 		.ascii	"\034\254]\340\031d\207aE\353\371\356\243\336&\336]\010"
  31      19648761 
  31      45EBF9EE 
  31      A3DE26DE 
  31      5D08
  32 0092 1ACBFA7B 		.ascii	"\032\313\372{\030\"\372\2748\2160J#\0342\037N\330o\226"
  32      1822FABC 
  32      388E304A 
  32      231C321F 
  32      4ED86F96 
  33 00a6 A83F7D3E 		.ascii	"\250?}>\333\326\215 \014O'\345,\006\017\326\337\256"
  33      DBD68D20 
  33      0C4F27E5 
  33      2C060FD6 
  33      DFAE
  34 00b8 2071EBDF 		.ascii	" q\353\337\302p\300G\231\254T\360pfv\360\346\362\324"
  34      C270C047 
  34      99AC54F0 
  34      706676F0 
  34      E6F2D4
  35 00cb 9CFE4112 		.ascii	"\234\376A\022}T\011\025\276\377g\205\363\372\325\023"
  35      7D540915 
  35      BEFF6785 
  35      F3FAD513 
  36 00db 9D35AD90 		.ascii	"\2355\255\220\211\353\004\315\231\333\375\362\376\247"
  36      89EB04CD 
  36      99DBFDF2 
  36      FEA7
  37 00e9 54424E70 		.ascii	"TBNpg}aP\357\227r\004\270x\000\363\245\010\272a\370"
  37      677D6150 
  37      EF977204 
  37      B87800F3 
  37      A508BA61 
  38 00fe A2B9B6BD 		.ascii	"\242\271\266\275\204G\016!P\333\005V\020$\224\361)\016"
  38      84470E21 
  38      50DB0556 
  38      102494F1 
  38      290E
  39 0110 83A20838 		.ascii	"\203\242\0108\354R\274\226&\2472<\315\362(GP\314\363"
  39      EC52BC96 
  39      26A7323C 
  39      CDF22847 
  39      50CCF3
  40 0123 B4C0AE08 		.ascii	"\264\300\256\010\346\324\010\337\320zn\310f0\332\311"
  40      E6D408DF 
ARM GAS  /tmp/ccT7YWlu.s 			page 3


  40      D07A6EC8 
  40      6630DAC9 
  41 0133 CE197F9E 		.ascii	"\316\031\177\236\357\242\334\200\251\316\356v[\224\361"
  41      EFA2DC80 
  41      A9CEEE76 
  41      5B94F1
  42 0142 39DD410F 		.ascii	"9\335A\017\245\307a\212n\265\350\302EQ5\002'|L\335\203"
  42      A5C7618A 
  42      6EB5E8C2 
  42      45513502 
  42      277C4CDD 
  43 0157 25129E26 		.ascii	"%\022\236&\024o\3001\262\3070\332\000\2236\363\021\305"
  43      146FC031 
  43      B2C730DA 
  43      009336F3 
  43      11C5
  44 0169 F91B25E2 		.ascii	"\371\033%\342\264\341\315\227z1\256\342\355\001\300"
  44      B4E1CD97 
  44      7A31AEE2 
  44      ED01C0
  45 0178 EA93565F 		.ascii	"\352\223V_\353C\357x\004Iq\026IM\265\206\265\010\253"
  45      EB43EF78 
  45      04497116 
  45      494DB586 
  45      B508AB
  46 018b 2C766BB7 		.ascii	",vk\267\027\304\252\323F\202\372\275\004\321\247z5\027"
  46      17C4AAD3 
  46      4682FABD 
  46      04D1A77A 
  46      3517
  47 019d 5132B1EA 		.ascii	"Q2\261\352\272\326\372\342\237\225o\300\364\255\351"
  47      BAD6FAE2 
  47      9F956FC0 
  47      F4ADE9
  48 01ac C771A9AC 		.ascii	"\307q\251\254\307\310\214I\327Y\035\260\341\275,i\037"
  48      C7C88C49 
  48      D7591DB0 
  48      E1BD2C69 
  48      1F
  49 01bd 338418B5 		.ascii	"3\204\030\265\177\004\231\2079[wq\247\033g\310\217\300"
  49      7F049987 
  49      395B7771 
  49      A71B67C8 
  49      8FC0
  50 01cf 33021F3E 		.ascii	"3\002\037>\260gT\371\206\214X\005\"2(\205v+g\354B\262"
  50      B06754F9 
  50      868C5805 
  50      22322885 
  50      762B67EC 
  51 01e5 5C4437A4 		.ascii	"\\D7\244Vk\347X\224\260h\032\274\177\006\304\220\035"
  51      566BE758 
  51      94B0681A 
  51      BC7F06C4 
  51      901D
  52 01f7 A8D3CE2E 		.ascii	"\250\323\316.q\313\336\231\241g\023|\004\244\023\221"
  52      71CBDE99 
  52      A167137C 
ARM GAS  /tmp/ccT7YWlu.s 			page 4


  52      04A41391 
  53 0207 5F9B4789 		.ascii	"_\233G\211\247\356\277.\360\325\242\025n\355\311R\311"
  53      A7EEBF2E 
  53      F0D5A215 
  53      6EEDC952 
  53      C9
  54 0218 8D9F2B55 		.ascii	"\215\237+U\367ry\322\235\364\307\334\352\365k\023\345"
  54      F77279D2 
  54      9DF4C7DC 
  54      EAF56B13 
  54      E5
  55 0229 4AD5AD4C 		.ascii	"J\325\255LT\366\206\245q\220\225\352\325\237j~\024\203"
  55      54F686A5 
  55      719095EA 
  55      D59F6A7E 
  55      1483
  56              		.text
  57              		.section	.gnu.lto_get.c0d1d754b27eec5c,"",%progbits
  58 0000 789CB553 		.ascii	"x\234\265SKh\024A\020\255\352\356\331\377\372\001Qr"
  58      4B681441 
  58      10ADEAEE 
  58      D9FFFA01 
  58      5172
  59 0012 0B398991 		.ascii	"\0139\211\221\035\004\357\236\275y0\020\217\2731\254"
  59      1D04EF9E 
  59      BD793010 
  59      8FBB31AC 
  60 0022 03191457 		.ascii	"\003\031\024W\317\333\233\335HP\362!\344\020?\207\344"
  60      CFDB9BDD 
  60      4850F221 
  60      E4103F87 
  60      E4
  61 0033 E687A018 		.ascii	"\346\207\240\030\"A\021\346 \313b\022PD\214\361\262"
  61      224111E6 
  61      20CB6212 
  61      50448CF1 
  61      B2
  62 0044 8210D883 		.ascii	"\202\020\330\203\344\230Cp\254\352\311\214AV3\010\026"
  62      E4984370 
  62      ACEAC98C 
  62      41563308 
  62      16
  63 0055 BB3DDDD5 		.ascii	"\273=\335\325\357U\275\252\356\026 \340w\263\351\277"
  63      EF55BDAA 
  63      EE1620E0 
  63      77B3E9BF 
  64 0065 AB00CEF2 		.ascii	"\253\000\316\362\"\001H\010\024B\002hA^\255$Z\344Qf"
  64      22014808 
  64      14420268 
  64      415EAD24 
  64      5AE45166 
  65 0079 B4100984 		.ascii	"\264\020\011\204P\025RYX\275\304+\310\364\301\202\326"
  65      50155259 
  65      58BDC42B 
  65      C8F4C182 
  65      D6
  66 008a 33EDB1CE 		.ascii	"3\355\261\316;\274;\3535\346\365\256\357#:\2749\204"
ARM GAS  /tmp/ccT7YWlu.s 			page 5


  66      3BBC3BEB 
  66      35E6F5AE 
  66      EF233ABC 
  66      3984
  67 009c 304833EC 		.ascii	"0H3\3545\037\016\270\337\002\242\376\362\355BK7<\337"
  67      351F0EB8 
  67      DF02A2FE 
  67      F2ED424B 
  67      373CDF
  68 00af 3F179733 		.ascii	"?\027\2273\347}h\276]@\342\326\266}\377\260\2032^*\357"
  68      E77D68BE 
  68      5D40E2D6 
  68      B67DFFB0 
  68      83325E2A 
  69 00c4 E3ADC99E 		.ascii	"\343\255\311\236\333\363\243\323\372\007ItP\3757\205"
  69      DBF3A3D3 
  69      FA074974 
  69      50FD3785 
  70 00d4 33FAF943 		.ascii	"3\372\371C\2356\255\220\261\363x\237\232S\373\345\375"
  70      9D36AD90 
  70      B1F3789F 
  70      9A53FBE5 
  70      FD
  71 00e5 4BAA981C 		.ascii	"K\252\230\034\357Us\342\204n\3530\225%\300\306\210\231"
  71      EF5573E2 
  71      846EEB30 
  71      9525C0C6 
  71      8899
  72 00f7 0A98D895 		.ascii	"\012\230\330\225\371\2729\333\243\177\211L\0108\203"
  72      F9BA39DB 
  72      A37F894C 
  72      083883
  73 0106 07E47C2A 		.ascii	"\007\344|*\274\266\357\257-m\177]\304\243\207\020\350"
  73      BCB6EFAF 
  73      2D6D7F5D 
  73      C4A38710 
  73      E8
  74 0117 C004BA08 		.ascii	"\300\004\272\010\022\212\370\004\373@\221\007,\036\022"
  74      128AF804 
  74      FB409107 
  74      2C1E12
  75 0126 BC97A441 		.ascii	"\274\227\244A\245x\231\346Y\206P\217\010\225eO\216\207"
  75      A57899E6 
  75      5986508F 
  75      0895654F 
  75      8E87
  76 0138 3C982327 		.ascii	"<\230#'JC\353\351\336`;\010e\312'\273h\306\001\276\316"
  76      4A43EBE9 
  76      DE603B08 
  76      65CA27BB 
  76      68C601BE 
  77 014d 721D4657 		.ascii	"r\035FW7\266Z\242\210\213t\215\313(\313\354&\357\346"
  77      37B65AA2 
  77      888B748D 
  77      CB28CBEC 
  77      26EFE6
  78 0160 1CDDD9D0 		.ascii	"\034\335\331\320\253\372\341\224\203\311\373p\217*H"
ARM GAS  /tmp/ccT7YWlu.s 			page 6


  78      ABFAE194 
  78      83C9FB70 
  78      8F2A48
  79 016f 118A2B49 		.ascii	"\021\212+I\030\375\245\250\023Lz\226\015)\326\337(!"
  79      18FDA5A8 
  79      134C7A96 
  79      0D29D6DF 
  79      2821
  80 0181 A7056FB6 		.ascii	"\247\005o\266j\371(K\231_Rh\003\\\006\353[Y\351\234"
  80      6AF9284B 
  80      995F5268 
  80      035C06EB 
  80      5B59E99C 
  81 0195 0C21098E 		.ascii	"\014!\011\216\"\251\273\201a5\304\252\000\273\271\321"
  81      22A9BB81 
  81      6135C4AA 
  81      00BBB9D1 
  82 01a5 6947AA93 		.ascii	"iG\252\223F\202\352.AtU\235\212T\327\264\3267\377\254"
  82      4682EA2E 
  82      4174559D 
  82      8A54D7B4 
  82      D637FFAC 
  83 01b9 7C1DEA77 		.ascii	"|\035\352w\352/\242Ti\312Fl\023\356\345\330\361\320"
  83      EA2FA254 
  83      69CA466C 
  83      13EEE5D8 
  83      F1D0
  84 01cb 9DD90B44 		.ascii	"\235\331\013D\317\320\"\320`\360\256\242\274;\235\235"
  84      CFD022D0 
  84      60F0AEA2 
  84      BC3B9D9D 
  85 01db 2842B61F 		.ascii	"(B\266\037\036\023\362\310\201=\243\314\3432d\345\210"
  85      1E13F2C8 
  85      813DA3CC 
  85      E33264E5 
  85      88
  86 01ec C8A02406 		.ascii	"\310\240$\006!\317\007\033\361b\021\335\220\276\327"
  86      21CF071B 
  86      F16211DD 
  86      90BED7
  87 01fb 9726A288 		.ascii	"\227&\242\210yR\0356\225NC\256B\215\312\272\314\224"
  87      79521D36 
  87      954E43AE 
  87      428DCABA 
  87      CC94
  88 020d F7665A0E 		.ascii	"\367fZ\016\330\237\001\3518\344\203\345c\304Qk\3139"
  88      D89F01E9 
  88      38E483E5 
  88      63C4516B 
  88      CB39
  89 021f BE57B4C3 		.ascii	"\276W\264\303}=](\330\321\357j\305\276R\034\261G\234"
  89      7D3D5D28 
  89      D8D1EF6A 
  89      C5BE521C 
  89      B1479C
  90 0232 925DB971 		.ascii	"\222]\271q}\270\350Vlw\330\335\233\026\206\000K\322"
  90      7DB8E856 
ARM GAS  /tmp/ccT7YWlu.s 			page 7


  90      6C77D8DD 
  90      9B168600 
  90      4BD2
  91 0244 AD5CFB09 		.ascii	"\255\\\373\011w\206&<"
  91      7786263C 
  92              		.text
  93              		.section	.gnu.lto_writes.c0d1d754b27eec5c,"",%progbits
  94 0000 789C9D93 		.ascii	"x\234\235\223\317k\023Q\020\307g\336\333l~\377\250\210"
  94      CF6B1351 
  94      10C767DE 
  94      DB6C7EFF 
  94      A888
  95 0012 E0454A8F 		.ascii	"\340EJ\217V\262\340?\340\331\233\207\026\364\230\306"
  95      56B2E03F 
  95      E0D99B87 
  95      16F498C6 
  96 0022 BA06BA28 		.ascii	"\272\006\272(F\360\340!/M\017\361\027\004O\222\036l"
  96      46F0E021 
  96      2F4D0FF1 
  96      17044F92 
  96      1E6C
  97 0034 0F15D1A2 		.ascii	"\017\025\321\242\240\227z2\007\017)\241\250H\251M\021"
  97      A0977A32 
  97      070F29A1 
  97      A848A94D 
  97      11
  98 0045 72D09B05 		.ascii	"r\320\233\005{\221\"\342sf7\273]D\352\232G2\373\336"
  98      7B9122E2 
  98      736637BB 
  98      5D44EA9A 
  98      4732FBDE 
  99 0059 BCF9CC7C 		.ascii	"\274\371\314|\337\274]\001\002\376\034\026\3757c\000"
  99      DFBC5D01 
  99      02FE1C16 
  99      FD376300 
 100 0069 A7796102 		.ascii	"\247ya\002R\004\012!\001\2240\310\030\022\351\201\006"
 100      52040A21 
 100      019430C8 
 100      1812E981 
 100      06
 101 007a 5208C610 		.ascii	"R\010\306\020)\010\241&\244\021\303\332\005^Af\002\226"
 101      2908A126 
 101      A411C3DA 
 101      055E4166 
 101      0296
 102 008c 95BA3F58 		.ascii	"\225\272?Xi\337;~{i\276\245~i\215\025\336*#\234\247"
 102      69DF3B7E 
 102      7B69BEA5 
 102      7E698D15 
 102      DE2A239C 
 103 00a1 198EBB0F 		.ascii	"\031\216\273\017N\027\036\036\246>}>\327U\013\035\255"
 103      4E171E1E 
 103      A63E7D3E 
 103      D7550B1D 
 103      AD
 104 00b2 CF44673E 		.ascii	"\317Dg>\374?\323\331\334\353.#\261\365oZ\347\243\227"
 104      FC3FD3D9 
ARM GAS  /tmp/ccT7YWlu.s 			page 8


 104      DCEB2E23 
 104      B1F56F5A 
 104      E7A397
 105 00c5 DA1BA1D4 		.ascii	"\332\033\241\324\326\253\365p)\031\261\324\313\021:"
 105      D6ABF570 
 105      2919B1D4 
 105      CB113A
 106 00d4 F1E2B14A 		.ascii	"\361\342\261J.\251\237Z\313\012\337S$y\333\243u\"\\"
 106      2EA99F5A 
 106      CB0ADF53 
 106      2479DBA3 
 106      75225C
 107 00e7 2A1AD3EE 		.ascii	"*\032\323\356\354l\334M\265\352M\245u\255\302oP$}\257"
 107      EC6CDC4D 
 107      B5EA4DA5 
 107      75ADC26F 
 107      50247DAF 
 108 00fb 57D643F2 		.ascii	"W\326C\362L\001\026\376\003|.:\003\255\277>}\370\375"
 108      4C0116FE 
 108      037C2E3A 
 108      03ADBF3E 
 108      7DF8FD
 109 010e D8110407 		.ascii	"\330\021\004\007A\240\203\324\367\022\256\342\004\030"
 109      41A083D4 
 109      F712AEE2 
 109      0418
 110 011c 4082636C 		.ascii	"@\202clL6q\332\203\004\317\222lR\034\237\246\231\314"
 110      4C3671DA 
 110      8304CF92 
 110      6C521C9F 
 110      A699CC
 111 012f F0324BC6 		.ascii	"\3602K\306\310Q\210\310\363\262\300f\014\\\361\224c"
 111      C85188C8 
 111      F3B2C066 
 111      0C5CF194 
 111      63
 112 0140 41A9D6B8 		.ascii	"A\251\326\270\227\325=\014\215)\327N\363w#7`\276\267"
 112      97D53D0C 
 112      8D29D74E 
 112      F3772337 
 112      60BEB7
 113 0153 BF75B484 		.ascii	"\277u\264\204\317(\336Fi\263\227\234\375\265v\326w\032"
 113      CF28DE46 
 113      69B3979C 
 113      FDB576D6 
 113      771A
 114 0165 937092D2 		.ascii	"\223p\222\322-B\233\016\022\247 >\220\351\036c\006\375"
 114      2D429B0E 
 114      12A7203E 
 114      90E91E63 
 114      06FD
 115 0177 0331F32E 		.ascii	"\0031\363.\355#\261\303\020\014\220\306\255\306#\364"
 115      ED23B1C3 
 115      100C90C6 
 115      ADC623F4 
 116 0187 19932AD9 		.ascii	"\031\223*\331\254\272\013o\276\324\263!w\374\240o\323"
 116      ACBA0B6F 
ARM GAS  /tmp/ccT7YWlu.s 			page 9


 116      BED4B321 
 116      77FCA06F 
 116      D3
 117 0198 FC6EB2EA 		.ascii	"\374n\262\352\376\307v\316\017ID\025\330\012\220dd\201"
 117      FEC776CE 
 117      0F494415 
 117      D80A9064 
 117      6481
 118 01aa 277C2445 		.ascii	"'|$E\205\010\364u\030C\035\373\375 i\332M*\377\236T"
 118      8508F475 
 118      18431DFB 
 118      FD2069DA 
 118      4D2AFF9E 
 119 01bf 84741C34 		.ascii	"\204t\0344*\023\350\250+\245n\034\252\345N\343\222\217"
 119      2A13E8A8 
 119      2BA56E1C 
 119      AAE54EE3 
 119      928F
 120 01d1 65A918C1 		.ascii	"e\251\030\301\000o\301\364|\0007\341\207j\252B\005\023"
 120      006FC1F4 
 120      7C0037E1 
 120      876AAA42 
 120      0513
 121 01e3 E521E5C6 		.ascii	"\345!\345\306\345l\244tI\257\360\203\305@l~\022\236"
 121      E56CA474 
 121      49AFF083 
 121      C5406C7E 
 121      129E
 122 01f5 50C94294 		.ascii	"P\311B\224.4\245O\025\010\264y\213\262\235\365\234\321"
 122      2E34A54F 
 122      1508B479 
 122      8BB29DF5 
 122      9CD1
 123 0207 F210EA42 		.ascii	"\362\020\352B\275\265\235\340\306\307los\033\220.Y\220"
 123      BDB59DE0 
 123      C6C76C6F 
 123      731B902E 
 123      5990
 124 0219 49C9D55D 		.ascii	"I\311\325]\344\356\322\201d\017\352\011\200\213|\343"
 124      E4EED281 
 124      640FEA09 
 124      808B7CE3 
 125 0229 EFA13ED8 		.ascii	"\357\241>\3305\003\316\0236\3054\267\365T\261h\005\277"
 125      3503CE13 
 125      36C534B7 
 125      F554B168 
 125      05BF
 126 023b 2B55EB72 		.ascii	"+U\353ri\316\232\253\314X\325\353\327fKN\325rf\235\341"
 126      69CE9AAB 
 126      CC58D5EB 
 126      D7664B4E 
 126      D572669D 
 127 0250 B45806E9 		.ascii	"\264X\006\351T\257\376\006\200\265Bi"
 127      54AFFE06 
 127      80B54269 
 128              		.text
 129              		.section	.gnu.lto_reads.c0d1d754b27eec5c,"",%progbits
ARM GAS  /tmp/ccT7YWlu.s 			page 10


 130 0000 789C9D93 		.ascii	"x\234\235\223\317k\023Q\020\307g\336\333l~\377\250x"
 130      CF6B1351 
 130      10C767DE 
 130      DB6C7EFF 
 130      A878
 131 0012 D08B941E 		.ascii	"\320\213\224\036\255d\301\177\300\2637\017-\3501\215"
 131      AD64C17F 
 131      C0B3370F 
 131      2DE8318D 
 132 0022 750D7451 		.ascii	"u\015tQ\2147\017yiz\210\265B\360$-\324V\020DDE/=\346"
 132      8C370F79 
 132      697A88B5 
 132      42F0242D 
 132      D4561044 
 133 003b 2092124B 		.ascii	" \222\022K\355E\264\202\311\301\036<Y\361R\177\324\347"
 133      ED45B482 
 133      C9C11E3C 
 133      59F1527F 
 133      D4E7
 134 004d CC6E765D 		.ascii	"\314nv]D\352\232G2\373\336\274\371\314|\337\274]\001"
 134      44EA9A47 
 134      32FBDEBC 
 134      F9CC7CDF 
 134      BC5D01
 135 0060 02FE1C16 		.ascii	"\002\376\034\026\375_\307\000N\362\302\004\244\010\024"
 135      FD5FC700 
 135      4EF2C204 
 135      A40814
 136 006f 42022861 		.ascii	"B\002(a\2201$\322\003\015\244\020\214!R\020BMH#\206"
 136      903124D2 
 136      030DA410 
 136      8C215210 
 136      424D4823 
 137 0084 B573BC82 		.ascii	"\265s\274\202\314\030\254*u\253\277\263|\363\350\374"
 137      CC18AC2A 
 137      75ABBFB3 
 137      7CF3E8FC 
 138 0094 CA6C4BFD 		.ascii	"\312lK\375\324\032+\274UF8K3\034u\037\234.<<L\275\373"
 138      D41A2BBC 
 138      5546384B 
 138      331C751F 
 138      9C2E3C3C 
 139 00ab 70A6A3E6 		.ascii	"p\246\243\346\332Z\237\212\316l\375?\323\376\372\271"
 139      DA5A9F8A 
 139      CE6CFD3F 
 139      D3FEFAB9 
 140 00bb B38AC4D6 		.ascii	"\263\212\304\326w\265\316G/\325\033\242\324\367\217"
 140      77B5CE47 
 140      2FD51BA2 
 140      D4F78F
 141 00ca EBE15232 		.ascii	"\353\341R2b\251gCt\342\351}\225\\Q?\264\226\025\276"
 141      62A96743 
 141      74E2E97D 
 141      955C513F 
 141      B49615BE 
 142 00de A748F2F6 		.ascii	"\247H\362\366\367\207\352D\270T4f\261\2557\026R\255"
 142      F787EA44 
ARM GAS  /tmp/ccT7YWlu.s 			page 11


 142      B8543466 
 142      B1AD3716 
 142      52AD
 143 00f0 7A53695D 		.ascii	"zSi]\253\360\033\024I\337\227{\353!y\246\000\013\377"
 143      ABF01B14 
 143      49DF977B 
 143      EB2179A6 
 143      000BFF
 144 0103 013E16ED 		.ascii	"\001>\026\355\276\326\013\233K/\216\340!\004\007A\240"
 144      BED60B9B 
 144      4B2F8EE0 
 144      21040741 
 144      A0
 145 0114 83D4F812 		.ascii	"\203\324\370\022>\30410\200\024\307\330\230l\342\264"
 145      3EC43130 
 145      8014C7D8 
 145      986CE2B4 
 146 0124 07099E25 		.ascii	"\007\011\236%\331\2448>M3\231\341e\226\214\221\243\020"
 146      D9A4383E 
 146      4D3399E1 
 146      65968C91 
 146      A310
 147 0136 91E76581 		.ascii	"\221\347e\201\315\010\270\352)\307\234R\255Q/\253{\032"
 147      CD08B8EA 
 147      29C79C52 
 147      AD512FAB 
 147      7B1A
 148 0148 1A13AE9D 		.ascii	"\032\023\256\235\344\017Gn\300lw\355\375\341\022>\242"
 148      E40F476E 
 148      C06C77ED 
 148      FDE1123E 
 148      A2
 149 0159 781BA5CD 		.ascii	"x\033\245\315^rn\357-g}\2471\016\307)\335\022,\322I"
 149      5E726EEF 
 149      2D677DA7 
 149      310EC729 
 149      DD122CD2 
 150 016e E214C427 		.ascii	"\342\024\304'2\335sL\241\177\"f\236\244}$v\020\202\001"
 150      32DD734C 
 150      A17F2266 
 150      9EA47D24 
 150      76108201 
 151 0182 D2B8DEB8 		.ascii	"\322\270\336\270\213>cR%\233Uw\340\371N=\033r\307\177"
 151      8B3E6352 
 151      259B5577 
 151      E0F94E3D 
 151      1B72C77F 
 152 0196 376E925F 		.ascii	"7n\222_NV\275}\373N\316\017ID\025\270\033\010LF\026"
 152      4E56BD7D 
 152      FB4ECE0F 
 152      494415B8 
 152      1B084C46 
 153 01ab 78CC4752 		.ascii	"x\314GRT\210@_\2071\320\261\326\013\272\227v\223\312"
 153      5488405F 
 153      8731D0B1 
 153      D60BBA97 
 153      7693CA
ARM GAS  /tmp/ccT7YWlu.s 			page 12


 154 01be BF271521 		.ascii	"\277'\025!\035\257\002\351\231@G])U;P\313\215\306\005"
 154      1DAF02E9 
 154      9940475D 
 154      29553B50 
 154      CB8DC605 
 155 01d2 1FCB5231 		.ascii	"\037\313R1\202\0016\301\364|\000\327\340\233j\252B\005"
 155      820136C1 
 155      F47C00D7 
 155      E09B6AAA 
 155      4205
 156 01e4 13E50165 		.ascii	"\023\345\001ec\316\015\245tI\257\360\233^\336O\221\037"
 156      63CE0DA5 
 156      7449AFF0 
 156      9B5EDE4F 
 156      911F
 157 01f6 870754B2 		.ascii	"\207\007T\262\020\245\013M\351S\005\002m\336\242l\247"
 157      10A50B4D 
 157      E9530502 
 157      6DDEA26C 
 157      A7
 158 0207 3D67B43C 		.ascii	"=g\264<\204\272Pw\257\027\334\370\210\355m\276\005\244"
 158      84BA5077 
 158      AF17DCF8 
 158      88ED6DBE 
 158      05A4
 159 0219 4B166452 		.ascii	"K\026dR\362\345'\344\356\322\201d\027\352\011\200\363"
 159      F2E527E4 
 159      EED28164 
 159      17EA0980 
 159      F3
 160 022a 7CE35B50 		.ascii	"|\343[P\357k3\340<a\023Ls[O\024\213V\360\273T\265.\226"
 160      EF6B33E0 
 160      3C61134C 
 160      735B4F14 
 160      8B56F0BB 
 161 0242 66AC99CA 		.ascii	"f\254\231\312\224U\275ze\272\344T-g\332\031L\213e\220"
 161      9455BD7A 
 161      65BAE454 
 161      2D67DA19 
 161      4C8B6590 
 162 0256 4EF5F22F 		.ascii	"N\365\362/\266:D\007"
 162      B63A4407 
 163              		.text
 164              		.section	.gnu.lto_msObjectInit.c0d1d754b27eec5c,"",%progbits
 165 0000 789C8D8F 		.ascii	"x\234\215\217\261K\0031\024\306\277/\271\033\335\334"
 165      B14B0331 
 165      14C6BF2F 
 165      B91BDDDC 
 166 0010 151C95CB 		.ascii	"\025\034\225\313\037c\205:^K\251\007\015\202\347\326"
 166      1F63853A 
 166      5E4BA907 
 166      0D82E7D6 
 167 0020 A1D10A6E 		.ascii	"\241\321\012n\342x(\016\256\016\325\261\243\2738\270"
 167      E278280E 
 167      AE0ED5B1 
 167      A3BB38B8 
 168 0030 B9D9DD5D 		.ascii	"\271\331\335]K\021\332\227\344t\250\035\372H^^\036\337"
ARM GAS  /tmp/ccT7YWlu.s 			page 13


 168      4B11DA97 
 168      E474A81D 
 168      FA485E5E 
 168      1EDF
 169 0042 EF4B9E82 		.ascii	"\357K\236\202\302rl\312\256\010d\376\242AQPQ\032 \006"
 169      C2726CCA 
 169      AE0864FE 
 169      A2415150 
 169      511A2006 
 170 0056 8A834306 		.ascii	"\212\203C\006\331\243z\236\314\347\243\247\313\321\017"
 170      D9A37A9E 
 170      CCE7A3A7 
 170      CBD10F
 171 0065 EF544A5A 		.ascii	"\357TJZBI\242\226\244\022IZT).\234\273\336\006\332\201"
 171      4249A296 
 171      A412495A 
 171      54292E9C 
 171      BBDE06DA 
 172 007a 6A847CE0 		.ascii	"j\204|\340=\365+\316g\303\317\253\255\234\367L\261\213"
 172      3DF52BCE 
 172      67C3CFAB 
 172      AD9CF74C 
 172      B18B
 173 008c 0727B151 		.ascii	"\007'\261Q\020\267\270aAv\311\246\234\361\203\255\370"
 173      10B7B861 
 173      4176C9A6 
 173      9CF183AD 
 173      F8
 174 009d 28FA98B9 		.ascii	"(\372\230\271\312\271}\221Y&\241%>/\323\257)\227}\364"
 174      CAB97D91 
 174      5926A125 
 174      3E2FD3AF 
 174      29977DF4 
 175 00b1 6A9F68D4 		.ascii	"j\237h\324\365wOV\337\377\311d5\251jRGr\274>\251k2\011"
 175      F5774F56 
 175      DFFFC964 
 175      35A96A52 
 175      4772BC3E 
 176 00c9 E4F87D7D 		.ascii	"\344\370}}2\216\350;\241z\303\331\344c'\262\277\321"
 176      328EE83B 
 176      A17AC3D9 
 176      E46327B2 
 176      BFD1
 177 00db F02379FD 		.ascii	"\360#y\375^\226\231\277u\\\232\243\274gzE\313\224\247"
 177      5E9699BF 
 177      755C9AA3 
 177      BC677A45 
 177      CB94A7
 178 00ee 279DDC96 		.ascii	"'\235\334\226\306vl]fm,\000\300\031f\300"
 178      C6766C5D 
 178      666D2C00 
 178      C01966C0 
 179              		.text
 180              		.section	.gnu.lto_.symbol_nodes.c0d1d754b27eec5c,"",%progbits
 181 0000 789C4DC8 		.ascii	"x\234M\310\271\021\2000\020CQ\255\026\323\006\265\321"
 181      B9118030 
 181      104351AD 
ARM GAS  /tmp/ccT7YWlu.s 			page 14


 181      16D306B5 
 181      D1
 182 0011 020DC811 		.ascii	"\002\015\310\021\003\2319\313\"bh\200\224\"\010\354"
 182      039939CB 
 182      22626880 
 182      942208EC 
 183 0021 C04AFE3C 		.ascii	"\300J\376<\021\304\2002\256\024\220.@\272\347\236\033"
 183      11C48032 
 183      AE14902E 
 183      40BAE79E 
 183      1B
 184 0032 651513C5 		.ascii	"e\025\023\305\212\013\345\025\017\252)|&\013;\321\312"
 184      8A0BE515 
 184      0FAA297C 
 184      260B3BD1 
 184      CA
 185 0043 EDA4427E 		.ascii	"\355\244B~c4g\213w\374:\367\\\374iv$+"
 185      6334678B 
 185      77FC3AF7 
 185      5CFC6976 
 185      242B
 186              		.text
 187              		.section	.gnu.lto_.refs.c0d1d754b27eec5c,"",%progbits
 188 0000 789C6362 		.ascii	"x\234cb`b\340g\200\000F\026&V\026V&&&f&\006&F\006\000"
 188      6062E067 
 188      80004616 
 188      26561656 
 188      26262666 
 189 001a 032B0037 		.ascii	"\003+\0007"
 190              		.text
 191              		.section	.gnu.lto_.decls.c0d1d754b27eec5c,"",%progbits
 192 0000 789CBD58 		.ascii	"x\234\275X]l\024U\024\276w\366\247]\332`\323\010)\017"
 192      5D6C1455 
 192      14BE77F6 
 192      A75DDA60 
 192      D308290F 
 193 0014 CA82E203 		.ascii	"\312\202\342\003J' \011\274\010\222>P\037\252F\305\370"
 193      4A272009 
 193      BC08923E 
 193      501FAA46 
 193      C5F8
 194 0026 629AE976 		.ascii	"b\232\351v\332\256\331\277\354LE\364\301K!@\032\023"
 194      DAAED9BF 
 194      EC4C45F4 
 194      C14B2140 
 194      1A13
 195 0038 2AC42026 		.ascii	"*\304 &\320\226\202F\210\001J\020\222\002]\250`#\242"
 195      D0968246 
 195      88014A10 
 195      92025DA8 
 195      6023A2
 196 004b 4D9B540B 		.ascii	"M\233T\013b\026R\376%\224\237Z\240\324\365\334;wvg\246"
 196      621652FE 
 196      25949F5A 
 196      A0D4F5DC 
 196      3B777667 
 197 0060 33BB5B1F 		.ascii	"3\273[\037\274\3313{g\346\234\357\234{~\356\271\273"
ARM GAS  /tmp/ccT7YWlu.s 			page 15


 197      BCD9337B 
 197      67E69CEF 
 197      9C7B7EEE 
 197      B9BB
 198 0072 0212D062 		.ascii	"\002\022\320b\001\241\024\014\271\024\241\1770B^\204"
 198      01A1140C 
 198      B914A17F 
 198      30425E84 
 199 0082 D0329419 		.ascii	"\3202\224\031\364\276\035\250\013\350$P?\320E \037\360"
 199      F4BE1DA8 
 199      0BE82450 
 199      3FD04520 
 199      1FF0
 200 0094 C207CDC2 		.ascii	"\302\007\315\302\3104(\257\017\310\0034\035\250\030"
 200      C83428AF 
 200      0FC80334 
 200      1DA818
 201 00a3 A8036810 		.ascii	"\250\003h\020(\011\324\003t\011h?\220\013\350\021\320"
 201      2809D403 
 201      7409683F 
 201      900BE811 
 201      D0
 202 00b4 38D018D2 		.ascii	"8\320\030\322\360\332\371\363\357\201\216\002\315\266"
 202      F0DAF9F3 
 202      EF818E02 
 202      CDB6
 203 00c2 E07765C1 		.ascii	"\340we\301\337o\321\341\342\330\023\006|*\017KF\335"
 203      DF6FD1E1 
 203      E2D81306 
 203      7C2A0F4B 
 203      46DD
 204 00d4 407E0B36 		.ascii	"@~\0136]\3374\0136\305]\3161\223\034w\016\310M\303\223"
 204      5DDF340B 
 204      36C55DCE 
 204      31931C77 
 204      0EC84DC3 
 205 00e9 ED173806 		.ascii	"\355\0278\006\365\215\033\276\177\005\372\031\350\034"
 205      F58D1BBE 
 205      7F05FA19 
 205      E81C
 206 00f7 D05C8BAE 		.ascii	"\320\\\213\256~\007]+\262\3502\256E\340\030\272\256"
 206      7E075D2B 
 206      B2E832AE 
 206      45E018BA 
 206      AE
 207 0108 0B404340 		.ascii	"\013@C@\347\201\236\263\350\272\310\365\\\343\230I\256"
 207      E7819EB3 
 207      E8BAC8F5 
 207      5CE39849 
 207      AE
 208 0119 AB873FBF 		.ascii	"\253\207?\277\3121\365\265Lp_\351r.\270\361\320\334"
 208      CA31F5B5 
 208      4C705FE9 
 208      722EB8F1 
 208      D0DC
 209 012b 002AC093 		.ascii	"\000*\300\223c>\033\355$\211\276\344\351\313#x;I\254"
 209      633E1BED 
ARM GAS  /tmp/ccT7YWlu.s 			page 16


 209      2489BEE4 
 209      E9CB2378 
 209      3B49AC
 210 013e 27904E04 		.ascii	"'\220N\004\243\231\350\013\002\243m\003!X\365\241M\374"
 210      A399E80B 
 210      02A36D03 
 210      2158F5A1 
 210      4DFC
 211 0150 A6B21796 		.ascii	"\246\262\027\226\373\036\226\360t\037\362\263I\261\217"
 211      FB1E96F0 
 211      741FF2B3 
 211      49B18F
 212 015f AD601EDA 		.ascii	"\255`\036\332MHK\262{\317g\257\020R(\341\016\354\203"
 212      4D484BB2 
 212      7BCF67AF 
 212      105228E1 
 212      0EEC83
 213 0172 55D66334 		.ascii	"U\326c4\037}\013\242-\204\354ZbQ\314F\336\320mC?\316"
 213      1F7D0BA2 
 213      2D84EC5A 
 213      6251CC46 
 213      DED06D43 
 214 0188 206E097F 		.ascii	" n\011\177\303\200\267`\214$\3745\236?U\230\344\350"
 214      C380B760 
 214      8C24FC35 
 214      9E3F5598 
 214      E4E8
 215 019a 4F479632 		.ascii	"OG\2262\013\3672\240^\013\220\204\275>\243}\354^g\240"
 215      0BF732A0 
 215      5E0B9084 
 215      BD3EA37D 
 215      EC5E67A0 
 216 01ae 68704B35 		.ascii	"hpK5=\244e\207?\345O\350M\001\372\337\345\354\226I!"
 216      3DA46587 
 216      3FE54FE8 
 216      4D01FADF 
 216      E5EC9649 
 217 01c3 76E1996C 		.ascii	"v\341\231l\346b\211\006\017\226\027\351s\346\250&\222"
 217      E6628906 
 217      0F9617E9 
 217      73E6A826 
 217      92
 218 01d4 DC43CABE 		.ascii	"\334C\312\276\3148\252PG\300\031G\015m\374\356E\346"
 218      CC38AA50 
 218      47C01947 
 218      0D6DFCEE 
 218      45E6
 219 01e6 A8FDCC51 		.ascii	"\250\375\314Q\375v\036\317\013h\264y\247\346\361N\006"
 219      FD761ECF 
 219      0B68B479 
 219      A7E6F14E 
 219      06
 220 01f7 747E92C7 		.ascii	"t~\222\307\261\305\343\330\354\001\366\232OR\346\034"
 220      B1C5E3D8 
 220      EC01F69A 
 220      4F52E61C 
 221 0207 CA8757C2 		.ascii	"\312\207W\302\253\\i\001\001\015[\324?\217:\010\331"
ARM GAS  /tmp/ccT7YWlu.s 			page 17


 221      AB5C6901 
 221      010D5BD4 
 221      3F8F3A08 
 221      D9
 222 0218 92FCE172 		.ascii	"\222\374\341r/&\245\314S\002\272\316x\332\361l[\017"
 222      2F26A5CC 
 222      5302BACE 
 222      78DAF16C 
 222      5B0F
 223 022a 33262E47 		.ascii	"3&.G\266\277_\246{\350\226U\312\344\014\215\013\306"
 223      B6BF5FA6 
 223      7BE89655 
 223      CAE40C8D 
 223      0BC6
 224 023c 0B680F0D 		.ascii	"\013h\017\015\350\361\3417+\2652AYt\361\025\034\306"
 224      E8F1E137 
 224      2BB53241 
 224      5974F115 
 224      1CC6
 225 024e 8271D95A 		.ascii	"\202q\331Z\311&\216\236)nY\233L\245Z\375\246j\325P\235"
 225      C9268E9E 
 225      296E599B 
 225      4CA55AFD 
 225      A66AD550 
 226 0263 72E3984D 		.ascii	"r\343\230MnX\\t\333\326E\344nm%\347>\002\346H\270+\253"
 226      6E585C74 
 226      DBD645E4 
 226      6E6D25E7 
 226      3E02E648 
 227 027a 7F1C16EA 		.ascii	"\177\034\026\352$\304\255;a\273\320\343\023\020\234"
 227      24C4AD3B 
 227      61BBD0E3 
 227      13109C
 228 0289 2DE4492A 		.ascii	"-\344I*\265\316m\26335\345S\367\003\233\007\357\343"
 228      B5CE6DB3 
 228      3335E553 
 228      F7039B07 
 228      EFE3
 229 029b 26909170 		.ascii	"&\220\221p\017\013\327n\301\232\207\036K\036z\314\271"
 229      0F0BD76E 
 229      C19A871E 
 229      4B1E7ACC 
 229      B9
 230 02ac E5F16526 		.ascii	"\345\361e&\264\000\237r.\300S\316\005X\204\2323\026"
 230      B4009F72 
 230      2EC053CE 
 230      0558849A 
 230      3316
 231 02be A78B28E1 		.ascii	"\247\213(\341XD\022>\200\347\345Nt'Kzq\221aMi{z\264"
 231      5844123E 
 231      80E7E54E 
 231      74274B7A 
 231      7191614D 
 232 02d6 5CB4047E 		.ascii	"\\\264\004~\237`[\033\247\267\355\234E\332\004S\360"
 232      9F605B1B 
 232      A7B7ED9C 
 232      45DA0453 
ARM GAS  /tmp/ccT7YWlu.s 			page 18


 232      F0
 233 02e7 4FE6531C 		.ascii	"O\346S\034\335r\245f\201\200:\031\264\263\024\263\223"
 233      DD72A566 
 233      81803A19 
 233      B4B314B3 
 233      93
 234 02f8 8B8D5231 		.ascii	"\213\215R1-H\207s\210\365\030j\252\211t\263T\353\341"
 234      2D488773 
 234      88F5186A 
 234      AA8974B3 
 234      54EBE1
 235 030b A9E624C5 		.ascii	"\251\346$\305=s\3266\325F\344^2\222Jm.\261\224TO\226"
 235      3D73D636 
 235      D546E45E 
 235      32924A6D 
 235      2EB19454 
 236 0321 921AC833 		.ascii	"\222\032\3103\332\332\026\340\20428\225H\035\261\215"
 236      DADA16E0 
 236      84323895 
 236      481DB18D 
 237 0331 1419B394 		.ascii	"\024\031\263\224h\177>Q:H\335M\265K\370\227\034R\203"
 237      687F3E51 
 237      3A48DD4D 
 237      B54BF897 
 237      1C5283
 238 0344 8628FDA6 		.ascii	"\206(\375\246GI\302}9\304\262E\311I\212{\345\367\311"
 238      4749C27D 
 238      39C4B245 
 238      C9498A7B 
 238      E5F7C9
 239 0357 516A4B24 		.ascii	"QjK$Z7\236u\330\020$\274l\206\243\213\3774\007\312\024"
 239      5A379E75 
 239      D81024BC 
 239      6C86A38B 
 239      FF3407CA 
 240 036c 9C52F439 		.ascii	"\234R\3649E\361\033\266\2216\254\003<\215\322\373\310"
 240      45F11BB6 
 240      9136AC03 
 240      3C8DD2FB 
 240      C8
 241 037d F8D6730B 		.ascii	"\370\326s\013Y7\273\204K\001\346\246%\0209a\250\035"
 241      5937BB84 
 241      4B01E6A6 
 241      25103961 
 241      A81D
 242 038f C320AA09 		.ascii	"\303 \252\0111P\222\330q\246\230\236m\350sd\2023\215"
 242      315092D8 
 242      71A6989E 
 242      6DE87364 
 242      82338D
 243 03a2 39A80DEC 		.ascii	"9\250\015\354M\034\334\320\012\345x\012\333\231\017"
 243      4D1CDCD0 
 243      0AE5780A 
 243      DB990F
 244 03b1 0CD8A09A 		.ascii	"\014\330\240\232\244U\227\260\264\031\003km,4\263I\370"
 244      A45597B0 
 244      B419036B 
ARM GAS  /tmp/ccT7YWlu.s 			page 19


 244      6D2C34B3 
 244      49F8
 245 03c3 068BE74D 		.ascii	"\006\213\347M\253\225\343\222_{\232\333\306\211s\305"
 245      AB95E392 
 245      5F7B9ADB 
 245      C68973C5 
 246 03d3 2D9225F9 		.ascii	"-\222%\371\351\246\350\024\231\333\231\344\027\320z"
 246      E9A6E814 
 246      99DB99E4 
 246      17D07A
 247 03e2 17E6EAED 		.ascii	"\027\346\352\355\330\371T\033\234\301\244\234t\022\342"
 247      D8F9541B 
 247      9CC1A49C 
 247      7412E2
 248 03f1 F35A940F 		.ascii	"\363Z\224\017dQ>bT\336<e\345\376\234\312weQ~?\243\\"
 248      64513E62 
 248      54DE3C65 
 248      E5FE9CCA 
 248      7765517E 
 249 0408 EBF33995 		.ascii	"\353\3639\225\027Nm\345\307\262(\0375*?1e\345~K\360"
 249      174E6DE5 
 249      C7B2281F 
 249      352A3F31 
 249      65E57E4B 
 250 041d F5AC90F0 		.ascii	"\365\254\220\360_x\016\\\357\260\353=v}\000\327\364"
 250      5F780E5C 
 250      EFB0EB3D 
 250      767D00D7 
 250      F4
 251 042e 70B2E79A 		.ascii	"p\262\347\2321\022\233Y$\206\377k\032$:\341x$i{\226"
 251      31129B59 
 251      2486FF6B 
 251      1A243AE1 
 251      7824697B 
 252 0443 80B64E19 		.ascii	"\200\266N\031\314&\254zW\372*\037\260\\a\322\301Z\247"
 252      CC26AC7A 
 252      57FA2A1F 
 252      B05C61D2 
 252      C15AA7
 253 0456 0C96C5B2 		.ascii	"\014\226\305\262\216|\300Jl,\263\033\306\215J\302W\330"
 253      8E7CC04A 
 253      6C2CB31B 
 253      C68D4AC2 
 253      57D8
 254 0468 31E42A0B 		.ascii	"1\344*\013\346\030\273>b\327qv\235\310'\274\311Lx\323"
 254      E618BB3E 
 254      62D77176 
 254      9DC827BC 
 254      C94C78D3 
 255 047c FD8DB73D 		.ascii	"\375\215\267=k\277\313\321\377\366\272lO*W\356\367\272"
 255      6BBFCBD1 
 255      FFF6BA6C 
 255      4F2A57EE 
 255      F7BA
 256 048e E147AC5B 		.ascii	"\341G\254[S\005m\222\261]tlLIl9\254hm\360!\253\004g"
 256      53056D92 
 256      B15D746C 
ARM GAS  /tmp/ccT7YWlu.s 			page 20


 256      4C496C39 
 256      AC686DF0 
 257 04a6 31431B4C 		.ascii	"1C\033L\034\334\270C;\034i\255\360q\016Q\266\034\256"
 257      1CDCB843 
 257      3B1C69AD 
 257      F0710E51 
 257      B61CAE
 258 04b9 B135D341 		.ascii	"\2615\323A\237\344#\246\037\251\241\375\255k\303\304"
 258      9FE423A6 
 258      1FA9A1FD 
 258      AD6BC3C4 
 259 04c9 CB7A1DE2 		.ascii	"\313z\035\342r\246\2705\011\223\272f\362@r\354\302\266"
 259      72A6B835 
 259      0993BA66 
 259      F24072EC 
 259      C2B6
 260 04db B2EDE414 		.ascii	"\262\355\344\024\373\211_F\022\373\260\245s\302\231"
 260      FB895F46 
 260      12FBB0A5 
 260      73C299
 261 04ea 60B27616 		.ascii	"`\262v\026\010\001\015\321\277\021\364\233Kp\303\003"
 261      08010DD1 
 261      BF11F49B 
 261      4B70C303 
 262 04fa F42CBAE1 		.ascii	"\364,\272\341\332A\012\255\211\323,8\036\211$\274\302"
 262      DA410AAD 
 262      89D32C38 
 262      1E8924BC 
 262      C2
 263 050b 36E29608 		.ascii	"6\342\226\010\3372E\230+\276g\264\342\261\313\356\017"
 263      DF324598 
 263      2BBE67B4 
 263      E2B1CBEE 
 263      0F
 264 051c 85F4988B 		.ascii	"\205\364\230\213\332I__\362\312\255>\367Z\372\277\006"
 264      DA495F5F 
 264      F2CAAD3E 
 264      F75AFABF 
 264      06
 265 052d 3D2D6058 		.ascii	"=-`X\325u\226\323\1773\207Sx\333\036\2108\013\035\213"
 265      D57596D3 
 265      7F338753 
 265      78DB1E88 
 265      380B1D8B 
 266 0541 D121B229 		.ascii	"\321!\262)\361\252.I\267\266O\320c\002'\367CX\353\\"
 266      F1AA2E49 
 266      B7B64FD0 
 266      630227F7 
 266      4358EB5C 
 267 0555 DA599309 		.ascii	"\332Y\223\011\335\311\274\035\300Zk\321\3168\354\355"
 267      DDC9BC1D 
 267      C05A6BD1 
 267      CE38ECED 
 268 0565 BDCCDBBB 		.ascii	"\275\314\333\273X\333\373\265\337~\354\355\203\314\333"
 268      58DBFBB5 
 268      DF7EECED 
 268      83CCDB
ARM GAS  /tmp/ccT7YWlu.s 			page 21


 269 0574 71AC6DCE 		.ascii	"q\254m\316\332\017&6\374\250\225\306\376\360\031\342"
 269      DA0F2636 
 269      FCA895C6 
 269      FEF019E2 
 270 0584 F7A723DF 		.ascii	"\367\247#\337n\214<\3478\277\201\010B\232\243\313\310"
 270      6E8C3CE7 
 270      38BF8108 
 270      429AA3CB 
 270      C8
 271 0595 61690D34 		.ascii	"ai\0154JN\265\332.\024Yp\377X[\202\323\260'm\024\267"
 271      4A4EB5DA 
 271      2E145970 
 271      FF585B82 
 271      D3B0276D 
 272 05ab 9814F79B 		.ascii	"\230\024\367\233\222\362\245\362r1\375\211*b\203\024"
 272      92F2A5F2 
 272      7231FD89 
 272      2A628314 
 273 05bb 1243C11A 		.ascii	"\022C\301\032QQ\343\262\024V\304\260\034\346\323\362"
 273      5151E3B2 
 273      1456C4B0 
 273      1CE6D3F2 
 274 05cb 005A6261 		.ascii	"\000Zba\216\253b,\032W\025q\305[U\025U\037\211\201h"
 274      8EAB622C 
 274      1A571571 
 274      C55B5515 
 274      551F8981 
 275 05e0 38160CC9 		.ascii	"8\026\014\311qE\\YQ!\006\032\32451Y)o@\236\260R_\255"
 275      71455C59 
 275      5121061A 
 275      D4353159 
 275      296F409E 
 276 05f8 7A57BEBE 		.ascii	"zW\276\276\312_\201\236\021\033\225\270\030\214\004"
 276      CA5F819E 
 276      111B95B8 
 276      188C04
 277 0607 428DB5B2 		.ascii	"B\215\265\262\030\221Wk\352j\203\021\025X\013\340\353"
 277      1891576B 
 277      EA6A8311 
 277      15580BE0 
 277      EB
 278 0618 E545D5EA 		.ascii	"\345E\325\352\002;\256\260\024h\010Fd\261\272V\256\223"
 278      023BAEB0 
 278      14680846 
 278      64B1BA56 
 278      AE93
 279 062a 1A436AB5 		.ascii	"\032Cj\265\256\300W]\315\345\012\032a\262\264Z\205'"
 279      AEC0575D 
 279      CDE50A1A 
 279      61B2B45A 
 279      8527
 280 063c 7CE68A35 		.ascii	"|\346\2125\252B0\206k\\\365\262\272\210\301R\254\372"
 280      AA423086 
 280      6B5CF5B2 
 280      BA88C152 
 280      ACFA
 281 064e 404094E2 		.ascii	"@@\224\342\341\005\221hD^ K5Aqq\371\322\362Ei\225`\021"
ARM GAS  /tmp/ccT7YWlu.s 			page 22


 281      E1059168 
 281      445E204B 
 281      35417171 
 281      F9D2F245 
 282 0666 68016CAF 		.ascii	"h\001l\257\022\374X\006\353W\307\203\252\254\01051\034"
 282      12FC5806 
 282      EB57C783 
 282      AAAC0835 
 282      311C
 283 0678 F180436A 		.ascii	"\361\200Cj\225)\270\256\001\025W\311\341h|\315\333\354"
 283      9529B8AE 
 283      011557C9 
 283      E1687CCD 
 283      DBEC
 284 068a 01BDD166 		.ascii	"\001\275\321f\357V\275\343a\300n\012\351\3720\254zk"
 284      EF56BDE3 
 284      61C06E0A 
 284      E9FA30AC 
 284      7A6B
 285 069c 1AEBEAE4 		.ascii	"\032\353\352\344\270\233ju\311Q\305\033\255\253Sd\265"
 285      B89B6A75 
 285      C951C51B 
 285      ADAB5364 
 285      B5
 286 06ad 38ACBC51 		.ascii	"8\254\274Q\363\201\034P_\213\004UWX\2119\2701\036\214"
 286      F3811C50 
 286      5F8B0455 
 286      57588939 
 286      B8311E8C 
 287 06c1 D45337C2 		.ascii	"\324S7\302\262\"\215\241PA]\304\257\304\344\000^\350"
 287      B2228DA1 
 287      50415DC4 
 287      AFC4E400 
 287      5EE8
 288 06d3 057302B1 		.ascii	"\005s\002\2615\360Bm\210GW\273C\262T\367/\006\245SE"
 288      35F0426D 
 288      884757BB 
 288      43B254F7 
 288      2F06A553 
 289              		.text
 290              		.section	.gnu.lto_.symtab.c0d1d754b27eec5c,"",%progbits
 291 0000 6D734F62 		.ascii	"msObjectInit\000\000\000\000\000\000\000\000\000\000"
 291      6A656374 
 291      496E6974 
 291      00000000 
 291      00000000 
 292 0016 0000DD00 		.ascii	"\000\000\335\000\000\000"
 292      0000
 293              		.text
 294              		.section	.gnu.lto_.opts,"",%progbits
 295 0000 272D6D63 		.ascii	"'-mcpu=cortex-m4' '-mno-thumb-interwork' '-mthumb' "
 295      70753D63 
 295      6F727465 
 295      782D6D34 
 295      2720272D 
 296 0033 272D6767 		.ascii	"'-ggdb' '-O0' '-fomit-frame-pointer' '-falign-funct"
 296      64622720 
ARM GAS  /tmp/ccT7YWlu.s 			page 23


 296      272D4F30 
 296      2720272D 
 296      666F6D69 
 297 0066 696F6E73 		.ascii	"ions=16' '-ffunction-sections' '-fdata-sections' '-"
 297      3D313627 
 297      20272D66 
 297      66756E63 
 297      74696F6E 
 298 0099 666E6F2D 		.ascii	"fno-common' '-flto'\000"
 298      636F6D6D 
 298      6F6E2720 
 298      272D666C 
 298      746F2700 
 299              		.text
 300              		.cfi_sections	.debug_frame
 301              		.section	.text.writes,"ax",%progbits
 302              		.align	2
 303              		.p2align 4,,15
 304              		.thumb
 305              		.thumb_func
 306              		.type	writes, %function
 307              	writes:
 308              	.LFB272:
 309              		.file 1 "../../../../os/hal/lib/streams/memstreams.c"
 310              		.loc 1 46 0
 311              		.cfi_startproc
 312              		@ args = 0, pretend = 0, frame = 24
 313              		@ frame_needed = 0, uses_anonymous_args = 0
 314 0000 00B5     		push	{lr}
 315              		.cfi_def_cfa_offset 4
 316              		.cfi_offset 14, -4
 317 0002 87B0     		sub	sp, sp, #28
 318              		.cfi_def_cfa_offset 32
 319 0004 0390     		str	r0, [sp, #12]
 320 0006 0291     		str	r1, [sp, #8]
 321 0008 0192     		str	r2, [sp, #4]
 322              		.loc 1 47 0
 323 000a 039B     		ldr	r3, [sp, #12]
 324 000c 0593     		str	r3, [sp, #20]
 325              		.loc 1 49 0
 326 000e 059B     		ldr	r3, [sp, #20]
 327 0010 9A68     		ldr	r2, [r3, #8]
 328 0012 059B     		ldr	r3, [sp, #20]
 329 0014 DB68     		ldr	r3, [r3, #12]
 330 0016 D21A     		subs	r2, r2, r3
 331 0018 019B     		ldr	r3, [sp, #4]
 332 001a 9A42     		cmp	r2, r3
 333 001c 05D2     		bcs	.L2
 334              		.loc 1 50 0
 335 001e 059B     		ldr	r3, [sp, #20]
 336 0020 9A68     		ldr	r2, [r3, #8]
 337 0022 059B     		ldr	r3, [sp, #20]
 338 0024 DB68     		ldr	r3, [r3, #12]
 339 0026 D31A     		subs	r3, r2, r3
 340 0028 0193     		str	r3, [sp, #4]
 341              	.L2:
 342              		.loc 1 51 0
ARM GAS  /tmp/ccT7YWlu.s 			page 24


 343 002a 059B     		ldr	r3, [sp, #20]
 344 002c 5A68     		ldr	r2, [r3, #4]
 345 002e 059B     		ldr	r3, [sp, #20]
 346 0030 DB68     		ldr	r3, [r3, #12]
 347 0032 1344     		add	r3, r3, r2
 348 0034 1846     		mov	r0, r3
 349 0036 0299     		ldr	r1, [sp, #8]
 350 0038 019A     		ldr	r2, [sp, #4]
 351 003a FFF7FEFF 		bl	memcpy
 352              		.loc 1 52 0
 353 003e 059B     		ldr	r3, [sp, #20]
 354 0040 DA68     		ldr	r2, [r3, #12]
 355 0042 019B     		ldr	r3, [sp, #4]
 356 0044 1A44     		add	r2, r2, r3
 357 0046 059B     		ldr	r3, [sp, #20]
 358 0048 DA60     		str	r2, [r3, #12]
 359              		.loc 1 53 0
 360 004a 019B     		ldr	r3, [sp, #4]
 361              		.loc 1 54 0
 362 004c 1846     		mov	r0, r3
 363 004e 07B0     		add	sp, sp, #28
 364              		@ sp needed
 365 0050 5DF804FB 		ldr	pc, [sp], #4
 366              		.cfi_endproc
 367              	.LFE272:
 368              		.size	writes, .-writes
 369              		.section	.text.reads,"ax",%progbits
 370              		.align	2
 371              		.p2align 4,,15
 372              		.thumb
 373              		.thumb_func
 374              		.type	reads, %function
 375              	reads:
 376              	.LFB273:
 377              		.loc 1 56 0
 378              		.cfi_startproc
 379              		@ args = 0, pretend = 0, frame = 24
 380              		@ frame_needed = 0, uses_anonymous_args = 0
 381 0000 00B5     		push	{lr}
 382              		.cfi_def_cfa_offset 4
 383              		.cfi_offset 14, -4
 384 0002 87B0     		sub	sp, sp, #28
 385              		.cfi_def_cfa_offset 32
 386 0004 0390     		str	r0, [sp, #12]
 387 0006 0291     		str	r1, [sp, #8]
 388 0008 0192     		str	r2, [sp, #4]
 389              		.loc 1 57 0
 390 000a 039B     		ldr	r3, [sp, #12]
 391 000c 0593     		str	r3, [sp, #20]
 392              		.loc 1 59 0
 393 000e 059B     		ldr	r3, [sp, #20]
 394 0010 DA68     		ldr	r2, [r3, #12]
 395 0012 059B     		ldr	r3, [sp, #20]
 396 0014 1B69     		ldr	r3, [r3, #16]
 397 0016 D21A     		subs	r2, r2, r3
 398 0018 019B     		ldr	r3, [sp, #4]
 399 001a 9A42     		cmp	r2, r3
ARM GAS  /tmp/ccT7YWlu.s 			page 25


 400 001c 05D2     		bcs	.L5
 401              		.loc 1 60 0
 402 001e 059B     		ldr	r3, [sp, #20]
 403 0020 DA68     		ldr	r2, [r3, #12]
 404 0022 059B     		ldr	r3, [sp, #20]
 405 0024 1B69     		ldr	r3, [r3, #16]
 406 0026 D31A     		subs	r3, r2, r3
 407 0028 0193     		str	r3, [sp, #4]
 408              	.L5:
 409              		.loc 1 61 0
 410 002a 059B     		ldr	r3, [sp, #20]
 411 002c 5A68     		ldr	r2, [r3, #4]
 412 002e 059B     		ldr	r3, [sp, #20]
 413 0030 1B69     		ldr	r3, [r3, #16]
 414 0032 1344     		add	r3, r3, r2
 415 0034 0298     		ldr	r0, [sp, #8]
 416 0036 1946     		mov	r1, r3
 417 0038 019A     		ldr	r2, [sp, #4]
 418 003a FFF7FEFF 		bl	memcpy
 419              		.loc 1 62 0
 420 003e 059B     		ldr	r3, [sp, #20]
 421 0040 1A69     		ldr	r2, [r3, #16]
 422 0042 019B     		ldr	r3, [sp, #4]
 423 0044 1A44     		add	r2, r2, r3
 424 0046 059B     		ldr	r3, [sp, #20]
 425 0048 1A61     		str	r2, [r3, #16]
 426              		.loc 1 63 0
 427 004a 019B     		ldr	r3, [sp, #4]
 428              		.loc 1 64 0
 429 004c 1846     		mov	r0, r3
 430 004e 07B0     		add	sp, sp, #28
 431              		@ sp needed
 432 0050 5DF804FB 		ldr	pc, [sp], #4
 433              		.cfi_endproc
 434              	.LFE273:
 435              		.size	reads, .-reads
 436 0054 AFF30080 		.section	.text.put,"ax",%progbits
 436      AFF30080 
 436      AFF30080 
 437              		.align	2
 438              		.p2align 4,,15
 439              		.thumb
 440              		.thumb_func
 441              		.type	put, %function
 442              	put:
 443              	.LFB274:
 444              		.loc 1 66 0
 445              		.cfi_startproc
 446              		@ args = 0, pretend = 0, frame = 16
 447              		@ frame_needed = 0, uses_anonymous_args = 0
 448              		@ link register save eliminated.
 449 0000 84B0     		sub	sp, sp, #16
 450              		.cfi_def_cfa_offset 16
 451 0002 0190     		str	r0, [sp, #4]
 452 0004 0B46     		mov	r3, r1
 453 0006 8DF80330 		strb	r3, [sp, #3]
 454              		.loc 1 67 0
ARM GAS  /tmp/ccT7YWlu.s 			page 26


 455 000a 019B     		ldr	r3, [sp, #4]
 456 000c 0393     		str	r3, [sp, #12]
 457              		.loc 1 69 0
 458 000e 039B     		ldr	r3, [sp, #12]
 459 0010 9A68     		ldr	r2, [r3, #8]
 460 0012 039B     		ldr	r3, [sp, #12]
 461 0014 DB68     		ldr	r3, [r3, #12]
 462 0016 9A42     		cmp	r2, r3
 463 0018 02D1     		bne	.L8
 464              		.loc 1 70 0
 465 001a 6FF00103 		mvn	r3, #1
 466 001e 0DE0     		b	.L9
 467              	.L8:
 468              		.loc 1 71 0
 469 0020 039B     		ldr	r3, [sp, #12]
 470 0022 5A68     		ldr	r2, [r3, #4]
 471 0024 039B     		ldr	r3, [sp, #12]
 472 0026 DB68     		ldr	r3, [r3, #12]
 473 0028 1344     		add	r3, r3, r2
 474 002a 9DF80320 		ldrb	r2, [sp, #3]
 475 002e 1A70     		strb	r2, [r3]
 476              		.loc 1 72 0
 477 0030 039B     		ldr	r3, [sp, #12]
 478 0032 DB68     		ldr	r3, [r3, #12]
 479 0034 5A1C     		adds	r2, r3, #1
 480 0036 039B     		ldr	r3, [sp, #12]
 481 0038 DA60     		str	r2, [r3, #12]
 482              		.loc 1 73 0
 483 003a 0023     		movs	r3, #0
 484              	.L9:
 485              		.loc 1 74 0
 486 003c 1846     		mov	r0, r3
 487 003e 04B0     		add	sp, sp, #16
 488              		@ sp needed
 489 0040 7047     		bx	lr
 490              		.cfi_endproc
 491              	.LFE274:
 492              		.size	put, .-put
 493 0042 00BFAFF3 		.section	.text.get,"ax",%progbits
 493      0080AFF3 
 493      0080AFF3 
 493      0080
 494              		.align	2
 495              		.p2align 4,,15
 496              		.thumb
 497              		.thumb_func
 498              		.type	get, %function
 499              	get:
 500              	.LFB275:
 501              		.loc 1 76 0
 502              		.cfi_startproc
 503              		@ args = 0, pretend = 0, frame = 16
 504              		@ frame_needed = 0, uses_anonymous_args = 0
 505              		@ link register save eliminated.
 506 0000 84B0     		sub	sp, sp, #16
 507              		.cfi_def_cfa_offset 16
 508 0002 0190     		str	r0, [sp, #4]
ARM GAS  /tmp/ccT7YWlu.s 			page 27


 509              		.loc 1 78 0
 510 0004 019B     		ldr	r3, [sp, #4]
 511 0006 0393     		str	r3, [sp, #12]
 512              		.loc 1 80 0
 513 0008 039B     		ldr	r3, [sp, #12]
 514 000a DA68     		ldr	r2, [r3, #12]
 515 000c 039B     		ldr	r3, [sp, #12]
 516 000e 1B69     		ldr	r3, [r3, #16]
 517 0010 9A42     		cmp	r2, r3
 518 0012 02D1     		bne	.L11
 519              		.loc 1 81 0
 520 0014 6FF00103 		mvn	r3, #1
 521 0018 0EE0     		b	.L12
 522              	.L11:
 523              		.loc 1 82 0
 524 001a 039B     		ldr	r3, [sp, #12]
 525 001c 5A68     		ldr	r2, [r3, #4]
 526 001e 039B     		ldr	r3, [sp, #12]
 527 0020 1B69     		ldr	r3, [r3, #16]
 528 0022 1344     		add	r3, r3, r2
 529 0024 1B78     		ldrb	r3, [r3]
 530 0026 8DF80B30 		strb	r3, [sp, #11]
 531              		.loc 1 83 0
 532 002a 039B     		ldr	r3, [sp, #12]
 533 002c 1B69     		ldr	r3, [r3, #16]
 534 002e 5A1C     		adds	r2, r3, #1
 535 0030 039B     		ldr	r3, [sp, #12]
 536 0032 1A61     		str	r2, [r3, #16]
 537              		.loc 1 84 0
 538 0034 9DF80B30 		ldrb	r3, [sp, #11]	@ zero_extendqisi2
 539              	.L12:
 540              		.loc 1 85 0
 541 0038 1846     		mov	r0, r3
 542 003a 04B0     		add	sp, sp, #16
 543              		@ sp needed
 544 003c 7047     		bx	lr
 545              		.cfi_endproc
 546              	.LFE275:
 547              		.size	get, .-get
 548 003e 00BF     		.section	.rodata.vmt,"a",%progbits
 549              		.align	2
 550              		.type	vmt, %object
 551              		.size	vmt, 16
 552              	vmt:
 553 0000 00000000 		.word	writes
 554 0004 00000000 		.word	reads
 555 0008 00000000 		.word	put
 556 000c 00000000 		.word	get
 557              		.section	.text.msObjectInit,"ax",%progbits
 558              		.align	2
 559              		.p2align 4,,15
 560              		.global	msObjectInit
 561              		.thumb
 562              		.thumb_func
 563              		.type	msObjectInit, %function
 564              	msObjectInit:
 565              	.LFB276:
ARM GAS  /tmp/ccT7YWlu.s 			page 28


 566              		.loc 1 104 0
 567              		.cfi_startproc
 568              		@ args = 0, pretend = 0, frame = 16
 569              		@ frame_needed = 0, uses_anonymous_args = 0
 570              		@ link register save eliminated.
 571 0000 84B0     		sub	sp, sp, #16
 572              		.cfi_def_cfa_offset 16
 573 0002 0390     		str	r0, [sp, #12]
 574 0004 0291     		str	r1, [sp, #8]
 575 0006 0192     		str	r2, [sp, #4]
 576 0008 0093     		str	r3, [sp]
 577              		.loc 1 106 0
 578 000a 039A     		ldr	r2, [sp, #12]
 579 000c 40F20003 		movw	r3, #:lower16:vmt
 580 0010 C0F20003 		movt	r3, #:upper16:vmt
 581 0014 1360     		str	r3, [r2]
 582              		.loc 1 107 0
 583 0016 039B     		ldr	r3, [sp, #12]
 584 0018 029A     		ldr	r2, [sp, #8]
 585 001a 5A60     		str	r2, [r3, #4]
 586              		.loc 1 108 0
 587 001c 039B     		ldr	r3, [sp, #12]
 588 001e 019A     		ldr	r2, [sp, #4]
 589 0020 9A60     		str	r2, [r3, #8]
 590              		.loc 1 109 0
 591 0022 039B     		ldr	r3, [sp, #12]
 592 0024 009A     		ldr	r2, [sp]
 593 0026 DA60     		str	r2, [r3, #12]
 594              		.loc 1 110 0
 595 0028 039B     		ldr	r3, [sp, #12]
 596 002a 0022     		movs	r2, #0
 597 002c 1A61     		str	r2, [r3, #16]
 598              		.loc 1 111 0
 599 002e 04B0     		add	sp, sp, #16
 600              		@ sp needed
 601 0030 7047     		bx	lr
 602              		.cfi_endproc
 603              	.LFE276:
 604              		.size	msObjectInit, .-msObjectInit
 605 0032 00BFAFF3 		.text
 605      0080AFF3 
 605      0080AFF3 
 605      0080
 606              	.Letext0:
 607              		.file 2 "/usr/lib/gcc/arm-none-eabi/4.8.2/include/stddef.h"
 608              		.file 3 "/usr/include/newlib/machine/_default_types.h"
 609              		.file 4 "/usr/include/newlib/stdint.h"
 610              		.file 5 "../../../../os/rt/ports/ARMCMx/compilers/GCC/chtypes.h"
 611              		.file 6 "../../../../os/rt/include/chsystypes.h"
 612              		.file 7 "../../../../os/rt/include/chschd.h"
 613              		.file 8 "../../../../os/rt/ports/ARMCMx/chcore.h"
 614              		.file 9 "../../../../os/rt/ports/ARMCMx/chcore_v7m.h"
 615              		.file 10 "../../../../os/rt/include/chdebug.h"
 616              		.file 11 "../../../../os/rt/include/chtm.h"
 617              		.file 12 "../../../../os/rt/include/chstats.h"
 618              		.file 13 "../../../../os/rt/include/chsem.h"
 619              		.file 14 "../../../../os/rt/include/chmtx.h"
ARM GAS  /tmp/ccT7YWlu.s 			page 29


 620              		.file 15 "../../../../os/hal/lib/streams/memstreams.h"
 621              		.file 16 "../../../../os/ext/CMSIS/include/core_cm4.h"
 622              		.section	.debug_info,"",%progbits
 623              	.Ldebug_info0:
 624 0000 6D0A0000 		.4byte	0xa6d
 625 0004 0400     		.2byte	0x4
 626 0006 00000000 		.4byte	.Ldebug_abbrev0
 627 000a 04       		.byte	0x4
 628 000b 01       		.uleb128 0x1
 629 000c D5020000 		.4byte	.LASF139
 630 0010 01       		.byte	0x1
 631 0011 77000000 		.4byte	.LASF140
 632 0015 77020000 		.4byte	.LASF141
 633 0019 00000000 		.4byte	.Ldebug_ranges0+0
 634 001d 00000000 		.4byte	0
 635 0021 00000000 		.4byte	.Ldebug_line0
 636 0025 02       		.uleb128 0x2
 637 0026 04       		.byte	0x4
 638 0027 05       		.byte	0x5
 639 0028 696E7400 		.ascii	"int\000"
 640 002c 03       		.uleb128 0x3
 641 002d 1D000000 		.4byte	.LASF2
 642 0031 02       		.byte	0x2
 643 0032 D4       		.byte	0xd4
 644 0033 37000000 		.4byte	0x37
 645 0037 04       		.uleb128 0x4
 646 0038 04       		.byte	0x4
 647 0039 07       		.byte	0x7
 648 003a 0D020000 		.4byte	.LASF0
 649 003e 04       		.uleb128 0x4
 650 003f 01       		.byte	0x1
 651 0040 06       		.byte	0x6
 652 0041 49010000 		.4byte	.LASF1
 653 0045 03       		.uleb128 0x3
 654 0046 41000000 		.4byte	.LASF3
 655 004a 03       		.byte	0x3
 656 004b 1C       		.byte	0x1c
 657 004c 50000000 		.4byte	0x50
 658 0050 04       		.uleb128 0x4
 659 0051 01       		.byte	0x1
 660 0052 08       		.byte	0x8
 661 0053 D4040000 		.4byte	.LASF4
 662 0057 04       		.uleb128 0x4
 663 0058 02       		.byte	0x2
 664 0059 05       		.byte	0x5
 665 005a F4040000 		.4byte	.LASF5
 666 005e 04       		.uleb128 0x4
 667 005f 02       		.byte	0x2
 668 0060 07       		.byte	0x7
 669 0061 40020000 		.4byte	.LASF6
 670 0065 03       		.uleb128 0x3
 671 0066 A5030000 		.4byte	.LASF7
 672 006a 03       		.byte	0x3
 673 006b 37       		.byte	0x37
 674 006c 70000000 		.4byte	0x70
 675 0070 04       		.uleb128 0x4
 676 0071 04       		.byte	0x4
ARM GAS  /tmp/ccT7YWlu.s 			page 30


 677 0072 05       		.byte	0x5
 678 0073 7C010000 		.4byte	.LASF8
 679 0077 03       		.uleb128 0x3
 680 0078 CC050000 		.4byte	.LASF9
 681 007c 03       		.byte	0x3
 682 007d 38       		.byte	0x38
 683 007e 82000000 		.4byte	0x82
 684 0082 04       		.uleb128 0x4
 685 0083 04       		.byte	0x4
 686 0084 07       		.byte	0x7
 687 0085 7D050000 		.4byte	.LASF10
 688 0089 04       		.uleb128 0x4
 689 008a 08       		.byte	0x8
 690 008b 05       		.byte	0x5
 691 008c 3B010000 		.4byte	.LASF11
 692 0090 03       		.uleb128 0x3
 693 0091 6A040000 		.4byte	.LASF12
 694 0095 03       		.byte	0x3
 695 0096 4E       		.byte	0x4e
 696 0097 9B000000 		.4byte	0x9b
 697 009b 04       		.uleb128 0x4
 698 009c 08       		.byte	0x8
 699 009d 07       		.byte	0x7
 700 009e BC000000 		.4byte	.LASF13
 701 00a2 04       		.uleb128 0x4
 702 00a3 04       		.byte	0x4
 703 00a4 07       		.byte	0x7
 704 00a5 D7030000 		.4byte	.LASF14
 705 00a9 05       		.uleb128 0x5
 706 00aa 04       		.byte	0x4
 707 00ab 04       		.uleb128 0x4
 708 00ac 01       		.byte	0x1
 709 00ad 08       		.byte	0x8
 710 00ae 94050000 		.4byte	.LASF15
 711 00b2 06       		.uleb128 0x6
 712 00b3 04       		.byte	0x4
 713 00b4 B8000000 		.4byte	0xb8
 714 00b8 07       		.uleb128 0x7
 715 00b9 AB000000 		.4byte	0xab
 716 00bd 03       		.uleb128 0x3
 717 00be 2D060000 		.4byte	.LASF16
 718 00c2 04       		.byte	0x4
 719 00c3 2A       		.byte	0x2a
 720 00c4 45000000 		.4byte	0x45
 721 00c8 03       		.uleb128 0x3
 722 00c9 CC040000 		.4byte	.LASF17
 723 00cd 04       		.byte	0x4
 724 00ce 41       		.byte	0x41
 725 00cf 65000000 		.4byte	0x65
 726 00d3 03       		.uleb128 0x3
 727 00d4 4C050000 		.4byte	.LASF18
 728 00d8 04       		.byte	0x4
 729 00d9 42       		.byte	0x42
 730 00da 77000000 		.4byte	0x77
 731 00de 03       		.uleb128 0x3
 732 00df 2B000000 		.4byte	.LASF19
 733 00e3 04       		.byte	0x4
ARM GAS  /tmp/ccT7YWlu.s 			page 31


 734 00e4 4E       		.byte	0x4e
 735 00e5 90000000 		.4byte	0x90
 736 00e9 03       		.uleb128 0x3
 737 00ea F0050000 		.4byte	.LASF20
 738 00ee 05       		.byte	0x5
 739 00ef 39       		.byte	0x39
 740 00f0 D3000000 		.4byte	0xd3
 741 00f4 03       		.uleb128 0x3
 742 00f5 25010000 		.4byte	.LASF21
 743 00f9 05       		.byte	0x5
 744 00fa 3A       		.byte	0x3a
 745 00fb DE000000 		.4byte	0xde
 746 00ff 03       		.uleb128 0x3
 747 0100 78030000 		.4byte	.LASF22
 748 0104 05       		.byte	0x5
 749 0105 3C       		.byte	0x3c
 750 0106 BD000000 		.4byte	0xbd
 751 010a 03       		.uleb128 0x3
 752 010b 85010000 		.4byte	.LASF23
 753 010f 05       		.byte	0x5
 754 0110 3D       		.byte	0x3d
 755 0111 BD000000 		.4byte	0xbd
 756 0115 03       		.uleb128 0x3
 757 0116 00000000 		.4byte	.LASF24
 758 011a 05       		.byte	0x5
 759 011b 3E       		.byte	0x3e
 760 011c BD000000 		.4byte	0xbd
 761 0120 03       		.uleb128 0x3
 762 0121 A1040000 		.4byte	.LASF25
 763 0125 05       		.byte	0x5
 764 0126 40       		.byte	0x40
 765 0127 D3000000 		.4byte	0xd3
 766 012b 03       		.uleb128 0x3
 767 012c 6C020000 		.4byte	.LASF26
 768 0130 05       		.byte	0x5
 769 0131 41       		.byte	0x41
 770 0132 C8000000 		.4byte	0xc8
 771 0136 03       		.uleb128 0x3
 772 0137 99030000 		.4byte	.LASF27
 773 013b 05       		.byte	0x5
 774 013c 43       		.byte	0x43
 775 013d D3000000 		.4byte	0xd3
 776 0141 03       		.uleb128 0x3
 777 0142 FC010000 		.4byte	.LASF28
 778 0146 05       		.byte	0x5
 779 0147 45       		.byte	0x45
 780 0148 C8000000 		.4byte	0xc8
 781 014c 03       		.uleb128 0x3
 782 014d BB020000 		.4byte	.LASF29
 783 0151 05       		.byte	0x5
 784 0152 46       		.byte	0x46
 785 0153 D3000000 		.4byte	0xd3
 786 0157 03       		.uleb128 0x3
 787 0158 AE050000 		.4byte	.LASF30
 788 015c 06       		.byte	0x6
 789 015d 33       		.byte	0x33
 790 015e D3000000 		.4byte	0xd3
ARM GAS  /tmp/ccT7YWlu.s 			page 32


 791 0162 03       		.uleb128 0x3
 792 0163 99050000 		.4byte	.LASF31
 793 0167 06       		.byte	0x6
 794 0168 3F       		.byte	0x3f
 795 0169 6D010000 		.4byte	0x16d
 796 016d 08       		.uleb128 0x8
 797 016e 62020000 		.4byte	.LASF53
 798 0172 60       		.byte	0x60
 799 0173 07       		.byte	0x7
 800 0174 C2       		.byte	0xc2
 801 0175 73020000 		.4byte	0x273
 802 0179 09       		.uleb128 0x9
 803 017a 0C050000 		.4byte	.LASF32
 804 017e 07       		.byte	0x7
 805 017f C3       		.byte	0xc3
 806 0180 7E020000 		.4byte	0x27e
 807 0184 00       		.byte	0
 808 0185 09       		.uleb128 0x9
 809 0186 9A040000 		.4byte	.LASF33
 810 018a 07       		.byte	0x7
 811 018b C5       		.byte	0xc5
 812 018c 7E020000 		.4byte	0x27e
 813 0190 04       		.byte	0x4
 814 0191 09       		.uleb128 0x9
 815 0192 2E010000 		.4byte	.LASF34
 816 0196 07       		.byte	0x7
 817 0197 C7       		.byte	0xc7
 818 0198 20010000 		.4byte	0x120
 819 019c 08       		.byte	0x8
 820 019d 09       		.uleb128 0x9
 821 019e 80060000 		.4byte	.LASF35
 822 01a2 07       		.byte	0x7
 823 01a3 C8       		.byte	0xc8
 824 01a4 DE040000 		.4byte	0x4de
 825 01a8 0C       		.byte	0xc
 826 01a9 09       		.uleb128 0x9
 827 01aa 9B010000 		.4byte	.LASF36
 828 01ae 07       		.byte	0x7
 829 01af CA       		.byte	0xca
 830 01b0 7E020000 		.4byte	0x27e
 831 01b4 10       		.byte	0x10
 832 01b5 09       		.uleb128 0x9
 833 01b6 2C040000 		.4byte	.LASF37
 834 01ba 07       		.byte	0x7
 835 01bb CB       		.byte	0xcb
 836 01bc 7E020000 		.4byte	0x27e
 837 01c0 14       		.byte	0x14
 838 01c1 09       		.uleb128 0x9
 839 01c2 B6040000 		.4byte	.LASF38
 840 01c6 07       		.byte	0x7
 841 01c7 D2       		.byte	0xd2
 842 01c8 B2000000 		.4byte	0xb2
 843 01cc 18       		.byte	0x18
 844 01cd 09       		.uleb128 0x9
 845 01ce 02020000 		.4byte	.LASF39
 846 01d2 07       		.byte	0x7
 847 01d3 D8       		.byte	0xd8
ARM GAS  /tmp/ccT7YWlu.s 			page 33


 848 01d4 82070000 		.4byte	0x782
 849 01d8 1C       		.byte	0x1c
 850 01d9 09       		.uleb128 0x9
 851 01da E2040000 		.4byte	.LASF40
 852 01de 07       		.byte	0x7
 853 01df DD       		.byte	0xdd
 854 01e0 0A010000 		.4byte	0x10a
 855 01e4 20       		.byte	0x20
 856 01e5 09       		.uleb128 0x9
 857 01e6 13050000 		.4byte	.LASF41
 858 01ea 07       		.byte	0x7
 859 01eb E1       		.byte	0xe1
 860 01ec FF000000 		.4byte	0xff
 861 01f0 21       		.byte	0x21
 862 01f1 09       		.uleb128 0x9
 863 01f2 18060000 		.4byte	.LASF42
 864 01f6 07       		.byte	0x7
 865 01f7 E6       		.byte	0xe6
 866 01f8 15010000 		.4byte	0x115
 867 01fc 22       		.byte	0x22
 868 01fd 0A       		.uleb128 0xa
 869 01fe 705F7500 		.ascii	"p_u\000"
 870 0202 07       		.byte	0x7
 871 0203 3101     		.2byte	0x131
 872 0205 BD060000 		.4byte	0x6bd
 873 0209 24       		.byte	0x24
 874 020a 0B       		.uleb128 0xb
 875 020b CD030000 		.4byte	.LASF43
 876 020f 07       		.byte	0x7
 877 0210 3601     		.2byte	0x136
 878 0212 84020000 		.4byte	0x284
 879 0216 28       		.byte	0x28
 880 0217 0B       		.uleb128 0xb
 881 0218 29020000 		.4byte	.LASF44
 882 021c 07       		.byte	0x7
 883 021d 3C01     		.2byte	0x13c
 884 021f A8020000 		.4byte	0x2a8
 885 0223 2C       		.byte	0x2c
 886 0224 0B       		.uleb128 0xb
 887 0225 5D060000 		.4byte	.LASF45
 888 0229 07       		.byte	0x7
 889 022a 4001     		.2byte	0x140
 890 022c 2B010000 		.4byte	0x12b
 891 0230 34       		.byte	0x34
 892 0231 0B       		.uleb128 0xb
 893 0232 41050000 		.4byte	.LASF46
 894 0236 07       		.byte	0x7
 895 0237 4601     		.2byte	0x146
 896 0239 36010000 		.4byte	0x136
 897 023d 38       		.byte	0x38
 898 023e 0B       		.uleb128 0xb
 899 023f EA040000 		.4byte	.LASF47
 900 0243 07       		.byte	0x7
 901 0244 4D01     		.2byte	0x14d
 902 0246 7C070000 		.4byte	0x77c
 903 024a 3C       		.byte	0x3c
 904 024b 0B       		.uleb128 0xb
ARM GAS  /tmp/ccT7YWlu.s 			page 34


 905 024c B8050000 		.4byte	.LASF48
 906 0250 07       		.byte	0x7
 907 0251 5101     		.2byte	0x151
 908 0253 20010000 		.4byte	0x120
 909 0257 40       		.byte	0x40
 910 0258 0B       		.uleb128 0xb
 911 0259 55010000 		.4byte	.LASF49
 912 025d 07       		.byte	0x7
 913 025e 5801     		.2byte	0x158
 914 0260 A9000000 		.4byte	0xa9
 915 0264 44       		.byte	0x44
 916 0265 0B       		.uleb128 0xb
 917 0266 1B050000 		.4byte	.LASF50
 918 026a 07       		.byte	0x7
 919 026b 5E01     		.2byte	0x15e
 920 026d 6E060000 		.4byte	0x66e
 921 0271 48       		.byte	0x48
 922 0272 00       		.byte	0
 923 0273 03       		.uleb128 0x3
 924 0274 E0030000 		.4byte	.LASF51
 925 0278 06       		.byte	0x6
 926 0279 44       		.byte	0x44
 927 027a 7E020000 		.4byte	0x27e
 928 027e 06       		.uleb128 0x6
 929 027f 04       		.byte	0x4
 930 0280 62010000 		.4byte	0x162
 931 0284 03       		.uleb128 0x3
 932 0285 41060000 		.4byte	.LASF52
 933 0289 06       		.byte	0x6
 934 028a 49       		.byte	0x49
 935 028b 8F020000 		.4byte	0x28f
 936 028f 08       		.uleb128 0x8
 937 0290 6D050000 		.4byte	.LASF54
 938 0294 04       		.byte	0x4
 939 0295 07       		.byte	0x7
 940 0296 B0       		.byte	0xb0
 941 0297 A8020000 		.4byte	0x2a8
 942 029b 09       		.uleb128 0x9
 943 029c 0C050000 		.4byte	.LASF32
 944 02a0 07       		.byte	0x7
 945 02a1 B1       		.byte	0xb1
 946 02a2 7E020000 		.4byte	0x27e
 947 02a6 00       		.byte	0
 948 02a7 00       		.byte	0
 949 02a8 03       		.uleb128 0x3
 950 02a9 FF050000 		.4byte	.LASF55
 951 02ad 06       		.byte	0x6
 952 02ae 50       		.byte	0x50
 953 02af B3020000 		.4byte	0x2b3
 954 02b3 08       		.uleb128 0x8
 955 02b4 57000000 		.4byte	.LASF56
 956 02b8 08       		.byte	0x8
 957 02b9 07       		.byte	0x7
 958 02ba B7       		.byte	0xb7
 959 02bb D8020000 		.4byte	0x2d8
 960 02bf 09       		.uleb128 0x9
 961 02c0 0C050000 		.4byte	.LASF32
ARM GAS  /tmp/ccT7YWlu.s 			page 35


 962 02c4 07       		.byte	0x7
 963 02c5 B8       		.byte	0xb8
 964 02c6 7E020000 		.4byte	0x27e
 965 02ca 00       		.byte	0
 966 02cb 09       		.uleb128 0x9
 967 02cc 9A040000 		.4byte	.LASF33
 968 02d0 07       		.byte	0x7
 969 02d1 B9       		.byte	0xb9
 970 02d2 7E020000 		.4byte	0x27e
 971 02d6 04       		.byte	0x4
 972 02d7 00       		.byte	0
 973 02d8 03       		.uleb128 0x3
 974 02d9 08000000 		.4byte	.LASF57
 975 02dd 06       		.byte	0x6
 976 02de 57       		.byte	0x57
 977 02df E3020000 		.4byte	0x2e3
 978 02e3 0C       		.uleb128 0xc
 979 02e4 8B030000 		.4byte	.LASF58
 980 02e8 1C       		.byte	0x1c
 981 02e9 07       		.byte	0x7
 982 02ea 9001     		.2byte	0x190
 983 02ec 3F030000 		.4byte	0x33f
 984 02f0 0B       		.uleb128 0xb
 985 02f1 5C050000 		.4byte	.LASF59
 986 02f5 07       		.byte	0x7
 987 02f6 9101     		.2byte	0x191
 988 02f8 A8020000 		.4byte	0x2a8
 989 02fc 00       		.byte	0
 990 02fd 0B       		.uleb128 0xb
 991 02fe FE040000 		.4byte	.LASF60
 992 0302 07       		.byte	0x7
 993 0303 9201     		.2byte	0x192
 994 0305 20010000 		.4byte	0x120
 995 0309 08       		.byte	0x8
 996 030a 0B       		.uleb128 0xb
 997 030b 34040000 		.4byte	.LASF61
 998 030f 07       		.byte	0x7
 999 0310 9401     		.2byte	0x194
 1000 0312 DE040000 		.4byte	0x4de
 1001 0316 0C       		.byte	0xc
 1002 0317 0B       		.uleb128 0xb
 1003 0318 B3010000 		.4byte	.LASF62
 1004 031c 07       		.byte	0x7
 1005 031d 9701     		.2byte	0x197
 1006 031f 7E020000 		.4byte	0x27e
 1007 0323 10       		.byte	0x10
 1008 0324 0B       		.uleb128 0xb
 1009 0325 55040000 		.4byte	.LASF63
 1010 0329 07       		.byte	0x7
 1011 032a 9801     		.2byte	0x198
 1012 032c 7E020000 		.4byte	0x27e
 1013 0330 14       		.byte	0x14
 1014 0331 0B       		.uleb128 0xb
 1015 0332 4B040000 		.4byte	.LASF64
 1016 0336 07       		.byte	0x7
 1017 0337 9B01     		.2byte	0x19b
 1018 0339 7E020000 		.4byte	0x27e
ARM GAS  /tmp/ccT7YWlu.s 			page 36


 1019 033d 18       		.byte	0x18
 1020 033e 00       		.byte	0
 1021 033f 03       		.uleb128 0x3
 1022 0340 C3050000 		.4byte	.LASF65
 1023 0344 06       		.byte	0x6
 1024 0345 5C       		.byte	0x5c
 1025 0346 4A030000 		.4byte	0x34a
 1026 034a 06       		.uleb128 0x6
 1027 034b 04       		.byte	0x4
 1028 034c 50030000 		.4byte	0x350
 1029 0350 0D       		.uleb128 0xd
 1030 0351 5B030000 		.4byte	0x35b
 1031 0355 0E       		.uleb128 0xe
 1032 0356 A9000000 		.4byte	0xa9
 1033 035a 00       		.byte	0
 1034 035b 03       		.uleb128 0x3
 1035 035c 8A040000 		.4byte	.LASF66
 1036 0360 06       		.byte	0x6
 1037 0361 61       		.byte	0x61
 1038 0362 66030000 		.4byte	0x366
 1039 0366 0C       		.uleb128 0xc
 1040 0367 23050000 		.4byte	.LASF67
 1041 036b 14       		.byte	0x14
 1042 036c 07       		.byte	0x7
 1043 036d 6B01     		.2byte	0x16b
 1044 036f B5030000 		.4byte	0x3b5
 1045 0373 0B       		.uleb128 0xb
 1046 0374 1A020000 		.4byte	.LASF68
 1047 0378 07       		.byte	0x7
 1048 0379 6C01     		.2byte	0x16c
 1049 037b 88070000 		.4byte	0x788
 1050 037f 00       		.byte	0
 1051 0380 0B       		.uleb128 0xb
 1052 0381 C4010000 		.4byte	.LASF69
 1053 0385 07       		.byte	0x7
 1054 0386 6D01     		.2byte	0x16d
 1055 0388 88070000 		.4byte	0x788
 1056 038c 04       		.byte	0x4
 1057 038d 0B       		.uleb128 0xb
 1058 038e 64050000 		.4byte	.LASF70
 1059 0392 07       		.byte	0x7
 1060 0393 6E01     		.2byte	0x16e
 1061 0395 57010000 		.4byte	0x157
 1062 0399 08       		.byte	0x8
 1063 039a 0B       		.uleb128 0xb
 1064 039b 86060000 		.4byte	.LASF71
 1065 039f 07       		.byte	0x7
 1066 03a0 6F01     		.2byte	0x16f
 1067 03a2 3F030000 		.4byte	0x33f
 1068 03a6 0C       		.byte	0xc
 1069 03a7 0B       		.uleb128 0xb
 1070 03a8 F8050000 		.4byte	.LASF72
 1071 03ac 07       		.byte	0x7
 1072 03ad 7101     		.2byte	0x171
 1073 03af A9000000 		.4byte	0xa9
 1074 03b3 10       		.byte	0x10
 1075 03b4 00       		.byte	0
ARM GAS  /tmp/ccT7YWlu.s 			page 37


 1076 03b5 03       		.uleb128 0x3
 1077 03b6 02010000 		.4byte	.LASF73
 1078 03ba 06       		.byte	0x6
 1079 03bb 66       		.byte	0x66
 1080 03bc C0030000 		.4byte	0x3c0
 1081 03c0 0C       		.uleb128 0xc
 1082 03c1 F3030000 		.4byte	.LASF74
 1083 03c5 10       		.byte	0x10
 1084 03c6 07       		.byte	0x7
 1085 03c7 7B01     		.2byte	0x17b
 1086 03c9 02040000 		.4byte	0x402
 1087 03cd 0B       		.uleb128 0xb
 1088 03ce 1A020000 		.4byte	.LASF68
 1089 03d2 07       		.byte	0x7
 1090 03d3 7C01     		.2byte	0x17c
 1091 03d5 88070000 		.4byte	0x788
 1092 03d9 00       		.byte	0
 1093 03da 0B       		.uleb128 0xb
 1094 03db C4010000 		.4byte	.LASF69
 1095 03df 07       		.byte	0x7
 1096 03e0 7E01     		.2byte	0x17e
 1097 03e2 88070000 		.4byte	0x788
 1098 03e6 04       		.byte	0x4
 1099 03e7 0B       		.uleb128 0xb
 1100 03e8 64050000 		.4byte	.LASF70
 1101 03ec 07       		.byte	0x7
 1102 03ed 8001     		.2byte	0x180
 1103 03ef 57010000 		.4byte	0x157
 1104 03f3 08       		.byte	0x8
 1105 03f4 0B       		.uleb128 0xb
 1106 03f5 20040000 		.4byte	.LASF75
 1107 03f9 07       		.byte	0x7
 1108 03fa 8801     		.2byte	0x188
 1109 03fc 57010000 		.4byte	0x157
 1110 0400 0C       		.byte	0xc
 1111 0401 00       		.byte	0
 1112 0402 03       		.uleb128 0x3
 1113 0403 68000000 		.4byte	.LASF76
 1114 0407 06       		.byte	0x6
 1115 0408 6B       		.byte	0x6b
 1116 0409 0D040000 		.4byte	0x40d
 1117 040d 0F       		.uleb128 0xf
 1118 040e CC010000 		.4byte	.LASF77
 1119 0412 1404     		.2byte	0x414
 1120 0414 07       		.byte	0x7
 1121 0415 A201     		.2byte	0x1a2
 1122 0417 50040000 		.4byte	0x450
 1123 041b 0B       		.uleb128 0xb
 1124 041c D7050000 		.4byte	.LASF78
 1125 0420 07       		.byte	0x7
 1126 0421 AA01     		.2byte	0x1aa
 1127 0423 8E070000 		.4byte	0x78e
 1128 0427 00       		.byte	0
 1129 0428 0B       		.uleb128 0xb
 1130 0429 1F060000 		.4byte	.LASF79
 1131 042d 07       		.byte	0x7
 1132 042e AF01     		.2byte	0x1af
ARM GAS  /tmp/ccT7YWlu.s 			page 38


 1133 0430 41010000 		.4byte	0x141
 1134 0434 04       		.byte	0x4
 1135 0435 0B       		.uleb128 0xb
 1136 0436 E4010000 		.4byte	.LASF80
 1137 043a 07       		.byte	0x7
 1138 043b B301     		.2byte	0x1b3
 1139 043d 41010000 		.4byte	0x141
 1140 0441 08       		.byte	0x8
 1141 0442 0B       		.uleb128 0xb
 1142 0443 50060000 		.4byte	.LASF81
 1143 0447 07       		.byte	0x7
 1144 0448 B901     		.2byte	0x1b9
 1145 044a 00060000 		.4byte	0x600
 1146 044e 0C       		.byte	0xc
 1147 044f 00       		.byte	0
 1148 0450 03       		.uleb128 0x3
 1149 0451 C2020000 		.4byte	.LASF82
 1150 0455 06       		.byte	0x6
 1151 0456 70       		.byte	0x70
 1152 0457 5B040000 		.4byte	0x45b
 1153 045b 0F       		.uleb128 0xf
 1154 045c 72010000 		.4byte	.LASF83
 1155 0460 D805     		.2byte	0x5d8
 1156 0462 07       		.byte	0x7
 1157 0463 C201     		.2byte	0x1c2
 1158 0465 C8040000 		.4byte	0x4c8
 1159 0469 0B       		.uleb128 0xb
 1160 046a 27060000 		.4byte	.LASF84
 1161 046e 07       		.byte	0x7
 1162 046f C601     		.2byte	0x1c6
 1163 0471 D8020000 		.4byte	0x2d8
 1164 0475 00       		.byte	0
 1165 0476 0B       		.uleb128 0xb
 1166 0477 65010000 		.4byte	.LASF85
 1167 047b 07       		.byte	0x7
 1168 047c CA01     		.2byte	0x1ca
 1169 047e B5030000 		.4byte	0x3b5
 1170 0482 1C       		.byte	0x1c
 1171 0483 0A       		.uleb128 0xa
 1172 0484 64626700 		.ascii	"dbg\000"
 1173 0488 07       		.byte	0x7
 1174 0489 CE01     		.2byte	0x1ce
 1175 048b 02040000 		.4byte	0x402
 1176 048f 2C       		.byte	0x2c
 1177 0490 10       		.uleb128 0x10
 1178 0491 F7000000 		.4byte	.LASF86
 1179 0495 07       		.byte	0x7
 1180 0496 D201     		.2byte	0x1d2
 1181 0498 62010000 		.4byte	0x162
 1182 049c 4004     		.2byte	0x440
 1183 049e 11       		.uleb128 0x11
 1184 049f 746D00   		.ascii	"tm\000"
 1185 04a2 07       		.byte	0x7
 1186 04a3 D701     		.2byte	0x1d7
 1187 04a5 20060000 		.4byte	0x620
 1188 04a9 A004     		.2byte	0x4a0
 1189 04ab 10       		.uleb128 0x10
ARM GAS  /tmp/ccT7YWlu.s 			page 39


 1190 04ac 34000000 		.4byte	.LASF87
 1191 04b0 07       		.byte	0x7
 1192 04b1 DD01     		.2byte	0x1dd
 1193 04b3 B2060000 		.4byte	0x6b2
 1194 04b7 A804     		.2byte	0x4a8
 1195 04b9 10       		.uleb128 0x10
 1196 04ba ED010000 		.4byte	.LASF88
 1197 04be 07       		.byte	0x7
 1198 04bf E301     		.2byte	0x1e3
 1199 04c1 93070000 		.4byte	0x793
 1200 04c5 E004     		.2byte	0x4e0
 1201 04c7 00       		.byte	0
 1202 04c8 03       		.uleb128 0x3
 1203 04c9 BB010000 		.4byte	.LASF89
 1204 04cd 08       		.byte	0x8
 1205 04ce 65       		.byte	0x65
 1206 04cf A9000000 		.4byte	0xa9
 1207 04d3 03       		.uleb128 0x3
 1208 04d4 AF030000 		.4byte	.LASF90
 1209 04d8 08       		.byte	0x8
 1210 04d9 6D       		.byte	0x6d
 1211 04da DE000000 		.4byte	0xde
 1212 04de 08       		.uleb128 0x8
 1213 04df E8050000 		.4byte	.LASF91
 1214 04e3 04       		.byte	0x4
 1215 04e4 08       		.byte	0x8
 1216 04e5 89       		.byte	0x89
 1217 04e6 F7040000 		.4byte	0x4f7
 1218 04ea 12       		.uleb128 0x12
 1219 04eb 72313300 		.ascii	"r13\000"
 1220 04ef 08       		.byte	0x8
 1221 04f0 8A       		.byte	0x8a
 1222 04f1 72050000 		.4byte	0x572
 1223 04f5 00       		.byte	0
 1224 04f6 00       		.byte	0
 1225 04f7 08       		.uleb128 0x8
 1226 04f8 4B000000 		.4byte	.LASF92
 1227 04fc 24       		.byte	0x24
 1228 04fd 09       		.byte	0x9
 1229 04fe FD       		.byte	0xfd
 1230 04ff 72050000 		.4byte	0x572
 1231 0503 0A       		.uleb128 0xa
 1232 0504 723400   		.ascii	"r4\000"
 1233 0507 09       		.byte	0x9
 1234 0508 1001     		.2byte	0x110
 1235 050a C8040000 		.4byte	0x4c8
 1236 050e 00       		.byte	0
 1237 050f 0A       		.uleb128 0xa
 1238 0510 723500   		.ascii	"r5\000"
 1239 0513 09       		.byte	0x9
 1240 0514 1101     		.2byte	0x111
 1241 0516 C8040000 		.4byte	0x4c8
 1242 051a 04       		.byte	0x4
 1243 051b 0A       		.uleb128 0xa
 1244 051c 723600   		.ascii	"r6\000"
 1245 051f 09       		.byte	0x9
 1246 0520 1201     		.2byte	0x112
ARM GAS  /tmp/ccT7YWlu.s 			page 40


 1247 0522 C8040000 		.4byte	0x4c8
 1248 0526 08       		.byte	0x8
 1249 0527 0A       		.uleb128 0xa
 1250 0528 723700   		.ascii	"r7\000"
 1251 052b 09       		.byte	0x9
 1252 052c 1301     		.2byte	0x113
 1253 052e C8040000 		.4byte	0x4c8
 1254 0532 0C       		.byte	0xc
 1255 0533 0A       		.uleb128 0xa
 1256 0534 723800   		.ascii	"r8\000"
 1257 0537 09       		.byte	0x9
 1258 0538 1401     		.2byte	0x114
 1259 053a C8040000 		.4byte	0x4c8
 1260 053e 10       		.byte	0x10
 1261 053f 0A       		.uleb128 0xa
 1262 0540 723900   		.ascii	"r9\000"
 1263 0543 09       		.byte	0x9
 1264 0544 1501     		.2byte	0x115
 1265 0546 C8040000 		.4byte	0x4c8
 1266 054a 14       		.byte	0x14
 1267 054b 0A       		.uleb128 0xa
 1268 054c 72313000 		.ascii	"r10\000"
 1269 0550 09       		.byte	0x9
 1270 0551 1601     		.2byte	0x116
 1271 0553 C8040000 		.4byte	0x4c8
 1272 0557 18       		.byte	0x18
 1273 0558 0A       		.uleb128 0xa
 1274 0559 72313100 		.ascii	"r11\000"
 1275 055d 09       		.byte	0x9
 1276 055e 1701     		.2byte	0x117
 1277 0560 C8040000 		.4byte	0x4c8
 1278 0564 1C       		.byte	0x1c
 1279 0565 0A       		.uleb128 0xa
 1280 0566 6C7200   		.ascii	"lr\000"
 1281 0569 09       		.byte	0x9
 1282 056a 1801     		.2byte	0x118
 1283 056c C8040000 		.4byte	0x4c8
 1284 0570 20       		.byte	0x20
 1285 0571 00       		.byte	0
 1286 0572 06       		.uleb128 0x6
 1287 0573 04       		.byte	0x4
 1288 0574 F7040000 		.4byte	0x4f7
 1289 0578 13       		.uleb128 0x13
 1290 0579 10       		.byte	0x10
 1291 057a 0A       		.byte	0xa
 1292 057b 51       		.byte	0x51
 1293 057c B1050000 		.4byte	0x5b1
 1294 0580 09       		.uleb128 0x9
 1295 0581 15000000 		.4byte	.LASF93
 1296 0585 0A       		.byte	0xa
 1297 0586 55       		.byte	0x55
 1298 0587 57010000 		.4byte	0x157
 1299 058b 00       		.byte	0
 1300 058c 09       		.uleb128 0x9
 1301 058d 8E010000 		.4byte	.LASF94
 1302 0591 0A       		.byte	0xa
 1303 0592 59       		.byte	0x59
ARM GAS  /tmp/ccT7YWlu.s 			page 41


 1304 0593 7E020000 		.4byte	0x27e
 1305 0597 04       		.byte	0x4
 1306 0598 09       		.uleb128 0x9
 1307 0599 76060000 		.4byte	.LASF95
 1308 059d 0A       		.byte	0xa
 1309 059e 5D       		.byte	0x5d
 1310 059f A9000000 		.4byte	0xa9
 1311 05a3 08       		.byte	0x8
 1312 05a4 09       		.uleb128 0x9
 1313 05a5 E5000000 		.4byte	.LASF96
 1314 05a9 0A       		.byte	0xa
 1315 05aa 61       		.byte	0x61
 1316 05ab BD000000 		.4byte	0xbd
 1317 05af 0C       		.byte	0xc
 1318 05b0 00       		.byte	0
 1319 05b1 03       		.uleb128 0x3
 1320 05b2 11040000 		.4byte	.LASF97
 1321 05b6 0A       		.byte	0xa
 1322 05b7 62       		.byte	0x62
 1323 05b8 78050000 		.4byte	0x578
 1324 05bc 14       		.uleb128 0x14
 1325 05bd 0804     		.2byte	0x408
 1326 05bf 0A       		.byte	0xa
 1327 05c0 67       		.byte	0x67
 1328 05c1 EA050000 		.4byte	0x5ea
 1329 05c5 09       		.uleb128 0x9
 1330 05c6 AB010000 		.4byte	.LASF98
 1331 05ca 0A       		.byte	0xa
 1332 05cb 6B       		.byte	0x6b
 1333 05cc 37000000 		.4byte	0x37
 1334 05d0 00       		.byte	0
 1335 05d1 09       		.uleb128 0x9
 1336 05d2 0A040000 		.4byte	.LASF99
 1337 05d6 0A       		.byte	0xa
 1338 05d7 6F       		.byte	0x6f
 1339 05d8 EA050000 		.4byte	0x5ea
 1340 05dc 04       		.byte	0x4
 1341 05dd 09       		.uleb128 0x9
 1342 05de 80040000 		.4byte	.LASF100
 1343 05e2 0A       		.byte	0xa
 1344 05e3 73       		.byte	0x73
 1345 05e4 F0050000 		.4byte	0x5f0
 1346 05e8 08       		.byte	0x8
 1347 05e9 00       		.byte	0
 1348 05ea 06       		.uleb128 0x6
 1349 05eb 04       		.byte	0x4
 1350 05ec B1050000 		.4byte	0x5b1
 1351 05f0 15       		.uleb128 0x15
 1352 05f1 B1050000 		.4byte	0x5b1
 1353 05f5 00060000 		.4byte	0x600
 1354 05f9 16       		.uleb128 0x16
 1355 05fa A2000000 		.4byte	0xa2
 1356 05fe 3F       		.byte	0x3f
 1357 05ff 00       		.byte	0
 1358 0600 03       		.uleb128 0x3
 1359 0601 D3000000 		.4byte	.LASF101
 1360 0605 0A       		.byte	0xa
ARM GAS  /tmp/ccT7YWlu.s 			page 42


 1361 0606 74       		.byte	0x74
 1362 0607 BC050000 		.4byte	0x5bc
 1363 060b 13       		.uleb128 0x13
 1364 060c 04       		.byte	0x4
 1365 060d 0B       		.byte	0xb
 1366 060e 38       		.byte	0x38
 1367 060f 20060000 		.4byte	0x620
 1368 0613 09       		.uleb128 0x9
 1369 0614 E1050000 		.4byte	.LASF102
 1370 0618 0B       		.byte	0xb
 1371 0619 3C       		.byte	0x3c
 1372 061a E9000000 		.4byte	0xe9
 1373 061e 00       		.byte	0
 1374 061f 00       		.byte	0
 1375 0620 03       		.uleb128 0x3
 1376 0621 3A040000 		.4byte	.LASF103
 1377 0625 0B       		.byte	0xb
 1378 0626 3D       		.byte	0x3d
 1379 0627 0B060000 		.4byte	0x60b
 1380 062b 13       		.uleb128 0x13
 1381 062c 18       		.byte	0x18
 1382 062d 0B       		.byte	0xb
 1383 062e 48       		.byte	0x48
 1384 062f 6E060000 		.4byte	0x66e
 1385 0633 09       		.uleb128 0x9
 1386 0634 A2050000 		.4byte	.LASF104
 1387 0638 0B       		.byte	0xb
 1388 0639 49       		.byte	0x49
 1389 063a E9000000 		.4byte	0xe9
 1390 063e 00       		.byte	0
 1391 063f 09       		.uleb128 0x9
 1392 0640 A3000000 		.4byte	.LASF105
 1393 0644 0B       		.byte	0xb
 1394 0645 4A       		.byte	0x4a
 1395 0646 E9000000 		.4byte	0xe9
 1396 064a 04       		.byte	0x4
 1397 064b 09       		.uleb128 0x9
 1398 064c 72020000 		.4byte	.LASF106
 1399 0650 0B       		.byte	0xb
 1400 0651 4B       		.byte	0x4b
 1401 0652 E9000000 		.4byte	0xe9
 1402 0656 08       		.byte	0x8
 1403 0657 12       		.uleb128 0x12
 1404 0658 6E00     		.ascii	"n\000"
 1405 065a 0B       		.byte	0xb
 1406 065b 4C       		.byte	0x4c
 1407 065c 4C010000 		.4byte	0x14c
 1408 0660 0C       		.byte	0xc
 1409 0661 09       		.uleb128 0x9
 1410 0662 75040000 		.4byte	.LASF107
 1411 0666 0B       		.byte	0xb
 1412 0667 4D       		.byte	0x4d
 1413 0668 F4000000 		.4byte	0xf4
 1414 066c 10       		.byte	0x10
 1415 066d 00       		.byte	0
 1416 066e 03       		.uleb128 0x3
 1417 066f A9000000 		.4byte	.LASF108
ARM GAS  /tmp/ccT7YWlu.s 			page 43


 1418 0673 0B       		.byte	0xb
 1419 0674 4E       		.byte	0x4e
 1420 0675 2B060000 		.4byte	0x62b
 1421 0679 13       		.uleb128 0x13
 1422 067a 38       		.byte	0x38
 1423 067b 0C       		.byte	0xc
 1424 067c 38       		.byte	0x38
 1425 067d B2060000 		.4byte	0x6b2
 1426 0681 09       		.uleb128 0x9
 1427 0682 34020000 		.4byte	.LASF109
 1428 0686 0C       		.byte	0xc
 1429 0687 39       		.byte	0x39
 1430 0688 4C010000 		.4byte	0x14c
 1431 068c 00       		.byte	0
 1432 068d 09       		.uleb128 0x9
 1433 068e BD040000 		.4byte	.LASF110
 1434 0692 0C       		.byte	0xc
 1435 0693 3A       		.byte	0x3a
 1436 0694 4C010000 		.4byte	0x14c
 1437 0698 04       		.byte	0x4
 1438 0699 09       		.uleb128 0x9
 1439 069a 63060000 		.4byte	.LASF111
 1440 069e 0C       		.byte	0xc
 1441 069f 3B       		.byte	0x3b
 1442 06a0 6E060000 		.4byte	0x66e
 1443 06a4 08       		.byte	0x8
 1444 06a5 09       		.uleb128 0x9
 1445 06a6 80030000 		.4byte	.LASF112
 1446 06aa 0C       		.byte	0xc
 1447 06ab 3D       		.byte	0x3d
 1448 06ac 6E060000 		.4byte	0x66e
 1449 06b0 20       		.byte	0x20
 1450 06b1 00       		.byte	0
 1451 06b2 03       		.uleb128 0x3
 1452 06b3 53020000 		.4byte	.LASF113
 1453 06b7 0C       		.byte	0xc
 1454 06b8 3F       		.byte	0x3f
 1455 06b9 79060000 		.4byte	0x679
 1456 06bd 17       		.uleb128 0x17
 1457 06be 04       		.byte	0x4
 1458 06bf 07       		.byte	0x7
 1459 06c0 FA       		.byte	0xfa
 1460 06c1 1A070000 		.4byte	0x71a
 1461 06c5 18       		.uleb128 0x18
 1462 06c6 24000000 		.4byte	.LASF114
 1463 06ca 07       		.byte	0x7
 1464 06cb 0101     		.2byte	0x101
 1465 06cd 2B010000 		.4byte	0x12b
 1466 06d1 18       		.uleb128 0x18
 1467 06d2 EE000000 		.4byte	.LASF115
 1468 06d6 07       		.byte	0x7
 1469 06d7 0801     		.2byte	0x108
 1470 06d9 2B010000 		.4byte	0x12b
 1471 06dd 18       		.uleb128 0x18
 1472 06de 35060000 		.4byte	.LASF116
 1473 06e2 07       		.byte	0x7
 1474 06e3 0F01     		.2byte	0x10f
ARM GAS  /tmp/ccT7YWlu.s 			page 44


 1475 06e5 A9000000 		.4byte	0xa9
 1476 06e9 18       		.uleb128 0x18
 1477 06ea 6C010000 		.4byte	.LASF117
 1478 06ee 07       		.byte	0x7
 1479 06ef 1601     		.2byte	0x116
 1480 06f1 1A070000 		.4byte	0x71a
 1481 06f5 18       		.uleb128 0x18
 1482 06f6 22020000 		.4byte	.LASF118
 1483 06fa 07       		.byte	0x7
 1484 06fb 1E01     		.2byte	0x11e
 1485 06fd 45070000 		.4byte	0x745
 1486 0701 18       		.uleb128 0x18
 1487 0702 55050000 		.4byte	.LASF119
 1488 0706 07       		.byte	0x7
 1489 0707 2701     		.2byte	0x127
 1490 0709 7C070000 		.4byte	0x77c
 1491 070d 18       		.uleb128 0x18
 1492 070e 05050000 		.4byte	.LASF120
 1493 0712 07       		.byte	0x7
 1494 0713 2F01     		.2byte	0x12f
 1495 0715 36010000 		.4byte	0x136
 1496 0719 00       		.byte	0
 1497 071a 06       		.uleb128 0x6
 1498 071b 04       		.byte	0x4
 1499 071c 73020000 		.4byte	0x273
 1500 0720 08       		.uleb128 0x8
 1501 0721 34050000 		.4byte	.LASF121
 1502 0725 0C       		.byte	0xc
 1503 0726 0D       		.byte	0xd
 1504 0727 34       		.byte	0x34
 1505 0728 45070000 		.4byte	0x745
 1506 072c 09       		.uleb128 0x9
 1507 072d A3010000 		.4byte	.LASF122
 1508 0731 0D       		.byte	0xd
 1509 0732 35       		.byte	0x35
 1510 0733 A8020000 		.4byte	0x2a8
 1511 0737 00       		.byte	0
 1512 0738 09       		.uleb128 0x9
 1513 0739 3A020000 		.4byte	.LASF123
 1514 073d 0D       		.byte	0xd
 1515 073e 37       		.byte	0x37
 1516 073f 41010000 		.4byte	0x141
 1517 0743 08       		.byte	0x8
 1518 0744 00       		.byte	0
 1519 0745 06       		.uleb128 0x6
 1520 0746 04       		.byte	0x4
 1521 0747 20070000 		.4byte	0x720
 1522 074b 08       		.uleb128 0x8
 1523 074c 0F060000 		.4byte	.LASF124
 1524 0750 10       		.byte	0x10
 1525 0751 0E       		.byte	0xe
 1526 0752 39       		.byte	0x39
 1527 0753 7C070000 		.4byte	0x77c
 1528 0757 09       		.uleb128 0x9
 1529 0758 5D010000 		.4byte	.LASF125
 1530 075c 0E       		.byte	0xe
 1531 075d 3A       		.byte	0x3a
ARM GAS  /tmp/ccT7YWlu.s 			page 45


 1532 075e A8020000 		.4byte	0x2a8
 1533 0762 00       		.byte	0
 1534 0763 09       		.uleb128 0x9
 1535 0764 6E060000 		.4byte	.LASF126
 1536 0768 0E       		.byte	0xe
 1537 0769 3C       		.byte	0x3c
 1538 076a 7E020000 		.4byte	0x27e
 1539 076e 08       		.byte	0x8
 1540 076f 09       		.uleb128 0x9
 1541 0770 A7050000 		.4byte	.LASF127
 1542 0774 0E       		.byte	0xe
 1543 0775 3E       		.byte	0x3e
 1544 0776 AE070000 		.4byte	0x7ae
 1545 077a 0C       		.byte	0xc
 1546 077b 00       		.byte	0
 1547 077c 06       		.uleb128 0x6
 1548 077d 04       		.byte	0x4
 1549 077e 4B070000 		.4byte	0x74b
 1550 0782 06       		.uleb128 0x6
 1551 0783 04       		.byte	0x4
 1552 0784 D3040000 		.4byte	0x4d3
 1553 0788 06       		.uleb128 0x6
 1554 0789 04       		.byte	0x4
 1555 078a 5B030000 		.4byte	0x35b
 1556 078e 19       		.uleb128 0x19
 1557 078f B2000000 		.4byte	0xb2
 1558 0793 15       		.uleb128 0x15
 1559 0794 D3040000 		.4byte	0x4d3
 1560 0798 A3070000 		.4byte	0x7a3
 1561 079c 16       		.uleb128 0x16
 1562 079d A2000000 		.4byte	0xa2
 1563 07a1 1E       		.byte	0x1e
 1564 07a2 00       		.byte	0
 1565 07a3 03       		.uleb128 0x3
 1566 07a4 DC010000 		.4byte	.LASF128
 1567 07a8 0E       		.byte	0xe
 1568 07a9 34       		.byte	0x34
 1569 07aa 4B070000 		.4byte	0x74b
 1570 07ae 06       		.uleb128 0x6
 1571 07af 04       		.byte	0x4
 1572 07b0 A3070000 		.4byte	0x7a3
 1573 07b4 06       		.uleb128 0x6
 1574 07b5 04       		.byte	0x4
 1575 07b6 BD000000 		.4byte	0xbd
 1576 07ba 1A       		.uleb128 0x1a
 1577 07bb 2C000000 		.4byte	0x2c
 1578 07bf D3070000 		.4byte	0x7d3
 1579 07c3 0E       		.uleb128 0xe
 1580 07c4 A9000000 		.4byte	0xa9
 1581 07c8 0E       		.uleb128 0xe
 1582 07c9 D3070000 		.4byte	0x7d3
 1583 07cd 0E       		.uleb128 0xe
 1584 07ce 2C000000 		.4byte	0x2c
 1585 07d2 00       		.byte	0
 1586 07d3 06       		.uleb128 0x6
 1587 07d4 04       		.byte	0x4
 1588 07d5 D9070000 		.4byte	0x7d9
ARM GAS  /tmp/ccT7YWlu.s 			page 46


 1589 07d9 07       		.uleb128 0x7
 1590 07da BD000000 		.4byte	0xbd
 1591 07de 06       		.uleb128 0x6
 1592 07df 04       		.byte	0x4
 1593 07e0 BA070000 		.4byte	0x7ba
 1594 07e4 1A       		.uleb128 0x1a
 1595 07e5 2C000000 		.4byte	0x2c
 1596 07e9 FD070000 		.4byte	0x7fd
 1597 07ed 0E       		.uleb128 0xe
 1598 07ee A9000000 		.4byte	0xa9
 1599 07f2 0E       		.uleb128 0xe
 1600 07f3 B4070000 		.4byte	0x7b4
 1601 07f7 0E       		.uleb128 0xe
 1602 07f8 2C000000 		.4byte	0x2c
 1603 07fc 00       		.byte	0
 1604 07fd 06       		.uleb128 0x6
 1605 07fe 04       		.byte	0x4
 1606 07ff E4070000 		.4byte	0x7e4
 1607 0803 1A       		.uleb128 0x1a
 1608 0804 2B010000 		.4byte	0x12b
 1609 0808 17080000 		.4byte	0x817
 1610 080c 0E       		.uleb128 0xe
 1611 080d A9000000 		.4byte	0xa9
 1612 0811 0E       		.uleb128 0xe
 1613 0812 BD000000 		.4byte	0xbd
 1614 0816 00       		.byte	0
 1615 0817 06       		.uleb128 0x6
 1616 0818 04       		.byte	0x4
 1617 0819 03080000 		.4byte	0x803
 1618 081d 1A       		.uleb128 0x1a
 1619 081e 2B010000 		.4byte	0x12b
 1620 0822 2C080000 		.4byte	0x82c
 1621 0826 0E       		.uleb128 0xe
 1622 0827 A9000000 		.4byte	0xa9
 1623 082b 00       		.byte	0
 1624 082c 06       		.uleb128 0x6
 1625 082d 04       		.byte	0x4
 1626 082e 1D080000 		.4byte	0x81d
 1627 0832 04       		.uleb128 0x4
 1628 0833 01       		.byte	0x1
 1629 0834 02       		.byte	0x2
 1630 0835 C6040000 		.4byte	.LASF129
 1631 0839 08       		.uleb128 0x8
 1632 083a 5D040000 		.4byte	.LASF130
 1633 083e 10       		.byte	0x10
 1634 083f 0F       		.byte	0xf
 1635 0840 3D       		.byte	0x3d
 1636 0841 76080000 		.4byte	0x876
 1637 0845 09       		.uleb128 0x9
 1638 0846 C7030000 		.4byte	.LASF131
 1639 084a 0F       		.byte	0xf
 1640 084b 3E       		.byte	0x3e
 1641 084c DE070000 		.4byte	0x7de
 1642 0850 00       		.byte	0
 1643 0851 09       		.uleb128 0x9
 1644 0852 8F050000 		.4byte	.LASF132
 1645 0856 0F       		.byte	0xf
ARM GAS  /tmp/ccT7YWlu.s 			page 47


 1646 0857 3E       		.byte	0x3e
 1647 0858 FD070000 		.4byte	0x7fd
 1648 085c 04       		.byte	0x4
 1649 085d 12       		.uleb128 0x12
 1650 085e 70757400 		.ascii	"put\000"
 1651 0862 0F       		.byte	0xf
 1652 0863 3E       		.byte	0x3e
 1653 0864 17080000 		.4byte	0x817
 1654 0868 08       		.byte	0x8
 1655 0869 12       		.uleb128 0x12
 1656 086a 67657400 		.ascii	"get\000"
 1657 086e 0F       		.byte	0xf
 1658 086f 3E       		.byte	0x3e
 1659 0870 2C080000 		.4byte	0x82c
 1660 0874 0C       		.byte	0xc
 1661 0875 00       		.byte	0
 1662 0876 13       		.uleb128 0x13
 1663 0877 14       		.byte	0x14
 1664 0878 0F       		.byte	0xf
 1665 0879 46       		.byte	0x46
 1666 087a BB080000 		.4byte	0x8bb
 1667 087e 12       		.uleb128 0x12
 1668 087f 766D7400 		.ascii	"vmt\000"
 1669 0883 0F       		.byte	0xf
 1670 0884 48       		.byte	0x48
 1671 0885 BB080000 		.4byte	0x8bb
 1672 0889 00       		.byte	0
 1673 088a 09       		.uleb128 0x9
 1674 088b 94010000 		.4byte	.LASF133
 1675 088f 0F       		.byte	0xf
 1676 0890 49       		.byte	0x49
 1677 0891 B4070000 		.4byte	0x7b4
 1678 0895 04       		.byte	0x4
 1679 0896 09       		.uleb128 0x9
 1680 0897 3C060000 		.4byte	.LASF134
 1681 089b 0F       		.byte	0xf
 1682 089c 49       		.byte	0x49
 1683 089d 2C000000 		.4byte	0x2c
 1684 08a1 08       		.byte	0x8
 1685 08a2 12       		.uleb128 0x12
 1686 08a3 656F7300 		.ascii	"eos\000"
 1687 08a7 0F       		.byte	0xf
 1688 08a8 49       		.byte	0x49
 1689 08a9 2C000000 		.4byte	0x2c
 1690 08ad 0C       		.byte	0xc
 1691 08ae 09       		.uleb128 0x9
 1692 08af E1050000 		.4byte	.LASF102
 1693 08b3 0F       		.byte	0xf
 1694 08b4 49       		.byte	0x49
 1695 08b5 2C000000 		.4byte	0x2c
 1696 08b9 10       		.byte	0x10
 1697 08ba 00       		.byte	0
 1698 08bb 06       		.uleb128 0x6
 1699 08bc 04       		.byte	0x4
 1700 08bd C1080000 		.4byte	0x8c1
 1701 08c1 07       		.uleb128 0x7
 1702 08c2 39080000 		.4byte	0x839
ARM GAS  /tmp/ccT7YWlu.s 			page 48


 1703 08c6 03       		.uleb128 0x3
 1704 08c7 A9040000 		.4byte	.LASF135
 1705 08cb 0F       		.byte	0xf
 1706 08cc 4A       		.byte	0x4a
 1707 08cd 76080000 		.4byte	0x876
 1708 08d1 1B       		.uleb128 0x1b
 1709 08d2 CE020000 		.4byte	.LASF136
 1710 08d6 01       		.byte	0x1
 1711 08d7 2E       		.byte	0x2e
 1712 08d8 2C000000 		.4byte	0x2c
 1713 08dc 00000000 		.4byte	.LFB272
 1714 08e0 54000000 		.4byte	.LFE272-.LFB272
 1715 08e4 01       		.uleb128 0x1
 1716 08e5 9C       		.byte	0x9c
 1717 08e6 1F090000 		.4byte	0x91f
 1718 08ea 1C       		.uleb128 0x1c
 1719 08eb 697000   		.ascii	"ip\000"
 1720 08ee 01       		.byte	0x1
 1721 08ef 2E       		.byte	0x2e
 1722 08f0 A9000000 		.4byte	0xa9
 1723 08f4 02       		.uleb128 0x2
 1724 08f5 91       		.byte	0x91
 1725 08f6 6C       		.sleb128 -20
 1726 08f7 1C       		.uleb128 0x1c
 1727 08f8 627000   		.ascii	"bp\000"
 1728 08fb 01       		.byte	0x1
 1729 08fc 2E       		.byte	0x2e
 1730 08fd D3070000 		.4byte	0x7d3
 1731 0901 02       		.uleb128 0x2
 1732 0902 91       		.byte	0x91
 1733 0903 68       		.sleb128 -24
 1734 0904 1C       		.uleb128 0x1c
 1735 0905 6E00     		.ascii	"n\000"
 1736 0907 01       		.byte	0x1
 1737 0908 2E       		.byte	0x2e
 1738 0909 2C000000 		.4byte	0x2c
 1739 090d 02       		.uleb128 0x2
 1740 090e 91       		.byte	0x91
 1741 090f 64       		.sleb128 -28
 1742 0910 1D       		.uleb128 0x1d
 1743 0911 6D737000 		.ascii	"msp\000"
 1744 0915 01       		.byte	0x1
 1745 0916 2F       		.byte	0x2f
 1746 0917 1F090000 		.4byte	0x91f
 1747 091b 02       		.uleb128 0x2
 1748 091c 91       		.byte	0x91
 1749 091d 74       		.sleb128 -12
 1750 091e 00       		.byte	0
 1751 091f 06       		.uleb128 0x6
 1752 0920 04       		.byte	0x4
 1753 0921 C6080000 		.4byte	0x8c6
 1754 0925 1B       		.uleb128 0x1b
 1755 0926 35010000 		.4byte	.LASF137
 1756 092a 01       		.byte	0x1
 1757 092b 38       		.byte	0x38
 1758 092c 2C000000 		.4byte	0x2c
 1759 0930 00000000 		.4byte	.LFB273
ARM GAS  /tmp/ccT7YWlu.s 			page 49


 1760 0934 54000000 		.4byte	.LFE273-.LFB273
 1761 0938 01       		.uleb128 0x1
 1762 0939 9C       		.byte	0x9c
 1763 093a 73090000 		.4byte	0x973
 1764 093e 1C       		.uleb128 0x1c
 1765 093f 697000   		.ascii	"ip\000"
 1766 0942 01       		.byte	0x1
 1767 0943 38       		.byte	0x38
 1768 0944 A9000000 		.4byte	0xa9
 1769 0948 02       		.uleb128 0x2
 1770 0949 91       		.byte	0x91
 1771 094a 6C       		.sleb128 -20
 1772 094b 1C       		.uleb128 0x1c
 1773 094c 627000   		.ascii	"bp\000"
 1774 094f 01       		.byte	0x1
 1775 0950 38       		.byte	0x38
 1776 0951 B4070000 		.4byte	0x7b4
 1777 0955 02       		.uleb128 0x2
 1778 0956 91       		.byte	0x91
 1779 0957 68       		.sleb128 -24
 1780 0958 1C       		.uleb128 0x1c
 1781 0959 6E00     		.ascii	"n\000"
 1782 095b 01       		.byte	0x1
 1783 095c 38       		.byte	0x38
 1784 095d 2C000000 		.4byte	0x2c
 1785 0961 02       		.uleb128 0x2
 1786 0962 91       		.byte	0x91
 1787 0963 64       		.sleb128 -28
 1788 0964 1D       		.uleb128 0x1d
 1789 0965 6D737000 		.ascii	"msp\000"
 1790 0969 01       		.byte	0x1
 1791 096a 39       		.byte	0x39
 1792 096b 1F090000 		.4byte	0x91f
 1793 096f 02       		.uleb128 0x2
 1794 0970 91       		.byte	0x91
 1795 0971 74       		.sleb128 -12
 1796 0972 00       		.byte	0
 1797 0973 1E       		.uleb128 0x1e
 1798 0974 70757400 		.ascii	"put\000"
 1799 0978 01       		.byte	0x1
 1800 0979 42       		.byte	0x42
 1801 097a 2B010000 		.4byte	0x12b
 1802 097e 00000000 		.4byte	.LFB274
 1803 0982 42000000 		.4byte	.LFE274-.LFB274
 1804 0986 01       		.uleb128 0x1
 1805 0987 9C       		.byte	0x9c
 1806 0988 B4090000 		.4byte	0x9b4
 1807 098c 1C       		.uleb128 0x1c
 1808 098d 697000   		.ascii	"ip\000"
 1809 0990 01       		.byte	0x1
 1810 0991 42       		.byte	0x42
 1811 0992 A9000000 		.4byte	0xa9
 1812 0996 02       		.uleb128 0x2
 1813 0997 91       		.byte	0x91
 1814 0998 74       		.sleb128 -12
 1815 0999 1C       		.uleb128 0x1c
 1816 099a 6200     		.ascii	"b\000"
ARM GAS  /tmp/ccT7YWlu.s 			page 50


 1817 099c 01       		.byte	0x1
 1818 099d 42       		.byte	0x42
 1819 099e BD000000 		.4byte	0xbd
 1820 09a2 02       		.uleb128 0x2
 1821 09a3 91       		.byte	0x91
 1822 09a4 73       		.sleb128 -13
 1823 09a5 1D       		.uleb128 0x1d
 1824 09a6 6D737000 		.ascii	"msp\000"
 1825 09aa 01       		.byte	0x1
 1826 09ab 43       		.byte	0x43
 1827 09ac 1F090000 		.4byte	0x91f
 1828 09b0 02       		.uleb128 0x2
 1829 09b1 91       		.byte	0x91
 1830 09b2 7C       		.sleb128 -4
 1831 09b3 00       		.byte	0
 1832 09b4 1E       		.uleb128 0x1e
 1833 09b5 67657400 		.ascii	"get\000"
 1834 09b9 01       		.byte	0x1
 1835 09ba 4C       		.byte	0x4c
 1836 09bb 2B010000 		.4byte	0x12b
 1837 09bf 00000000 		.4byte	.LFB275
 1838 09c3 3E000000 		.4byte	.LFE275-.LFB275
 1839 09c7 01       		.uleb128 0x1
 1840 09c8 9C       		.byte	0x9c
 1841 09c9 F5090000 		.4byte	0x9f5
 1842 09cd 1C       		.uleb128 0x1c
 1843 09ce 697000   		.ascii	"ip\000"
 1844 09d1 01       		.byte	0x1
 1845 09d2 4C       		.byte	0x4c
 1846 09d3 A9000000 		.4byte	0xa9
 1847 09d7 02       		.uleb128 0x2
 1848 09d8 91       		.byte	0x91
 1849 09d9 74       		.sleb128 -12
 1850 09da 1D       		.uleb128 0x1d
 1851 09db 6200     		.ascii	"b\000"
 1852 09dd 01       		.byte	0x1
 1853 09de 4D       		.byte	0x4d
 1854 09df BD000000 		.4byte	0xbd
 1855 09e3 02       		.uleb128 0x2
 1856 09e4 91       		.byte	0x91
 1857 09e5 7B       		.sleb128 -5
 1858 09e6 1D       		.uleb128 0x1d
 1859 09e7 6D737000 		.ascii	"msp\000"
 1860 09eb 01       		.byte	0x1
 1861 09ec 4E       		.byte	0x4e
 1862 09ed 1F090000 		.4byte	0x91f
 1863 09f1 02       		.uleb128 0x2
 1864 09f2 91       		.byte	0x91
 1865 09f3 7C       		.sleb128 -4
 1866 09f4 00       		.byte	0
 1867 09f5 1F       		.uleb128 0x1f
 1868 09f6 BA030000 		.4byte	.LASF142
 1869 09fa 01       		.byte	0x1
 1870 09fb 67       		.byte	0x67
 1871 09fc 00000000 		.4byte	.LFB276
 1872 0a00 32000000 		.4byte	.LFE276-.LFB276
 1873 0a04 01       		.uleb128 0x1
ARM GAS  /tmp/ccT7YWlu.s 			page 51


 1874 0a05 9C       		.byte	0x9c
 1875 0a06 430A0000 		.4byte	0xa43
 1876 0a0a 1C       		.uleb128 0x1c
 1877 0a0b 6D737000 		.ascii	"msp\000"
 1878 0a0f 01       		.byte	0x1
 1879 0a10 67       		.byte	0x67
 1880 0a11 1F090000 		.4byte	0x91f
 1881 0a15 02       		.uleb128 0x2
 1882 0a16 91       		.byte	0x91
 1883 0a17 7C       		.sleb128 -4
 1884 0a18 20       		.uleb128 0x20
 1885 0a19 94010000 		.4byte	.LASF133
 1886 0a1d 01       		.byte	0x1
 1887 0a1e 67       		.byte	0x67
 1888 0a1f B4070000 		.4byte	0x7b4
 1889 0a23 02       		.uleb128 0x2
 1890 0a24 91       		.byte	0x91
 1891 0a25 78       		.sleb128 -8
 1892 0a26 20       		.uleb128 0x20
 1893 0a27 3C060000 		.4byte	.LASF134
 1894 0a2b 01       		.byte	0x1
 1895 0a2c 68       		.byte	0x68
 1896 0a2d 2C000000 		.4byte	0x2c
 1897 0a31 02       		.uleb128 0x2
 1898 0a32 91       		.byte	0x91
 1899 0a33 74       		.sleb128 -12
 1900 0a34 1C       		.uleb128 0x1c
 1901 0a35 656F7300 		.ascii	"eos\000"
 1902 0a39 01       		.byte	0x1
 1903 0a3a 68       		.byte	0x68
 1904 0a3b 2C000000 		.4byte	0x2c
 1905 0a3f 02       		.uleb128 0x2
 1906 0a40 91       		.byte	0x91
 1907 0a41 70       		.sleb128 -16
 1908 0a42 00       		.byte	0
 1909 0a43 1D       		.uleb128 0x1d
 1910 0a44 766D7400 		.ascii	"vmt\000"
 1911 0a48 01       		.byte	0x1
 1912 0a49 57       		.byte	0x57
 1913 0a4a C1080000 		.4byte	0x8c1
 1914 0a4e 05       		.uleb128 0x5
 1915 0a4f 03       		.byte	0x3
 1916 0a50 00000000 		.4byte	vmt
 1917 0a54 21       		.uleb128 0x21
 1918 0a55 18010000 		.4byte	.LASF138
 1919 0a59 10       		.byte	0x10
 1920 0a5a FA06     		.2byte	0x6fa
 1921 0a5c 600A0000 		.4byte	0xa60
 1922 0a60 19       		.uleb128 0x19
 1923 0a61 C8000000 		.4byte	0xc8
 1924 0a65 22       		.uleb128 0x22
 1925 0a66 636800   		.ascii	"ch\000"
 1926 0a69 07       		.byte	0x7
 1927 0a6a 0902     		.2byte	0x209
 1928 0a6c 50040000 		.4byte	0x450
 1929 0a70 00       		.byte	0
 1930              		.section	.debug_abbrev,"",%progbits
ARM GAS  /tmp/ccT7YWlu.s 			page 52


 1931              	.Ldebug_abbrev0:
 1932 0000 01       		.uleb128 0x1
 1933 0001 11       		.uleb128 0x11
 1934 0002 01       		.byte	0x1
 1935 0003 25       		.uleb128 0x25
 1936 0004 0E       		.uleb128 0xe
 1937 0005 13       		.uleb128 0x13
 1938 0006 0B       		.uleb128 0xb
 1939 0007 03       		.uleb128 0x3
 1940 0008 0E       		.uleb128 0xe
 1941 0009 1B       		.uleb128 0x1b
 1942 000a 0E       		.uleb128 0xe
 1943 000b 55       		.uleb128 0x55
 1944 000c 17       		.uleb128 0x17
 1945 000d 11       		.uleb128 0x11
 1946 000e 01       		.uleb128 0x1
 1947 000f 10       		.uleb128 0x10
 1948 0010 17       		.uleb128 0x17
 1949 0011 00       		.byte	0
 1950 0012 00       		.byte	0
 1951 0013 02       		.uleb128 0x2
 1952 0014 24       		.uleb128 0x24
 1953 0015 00       		.byte	0
 1954 0016 0B       		.uleb128 0xb
 1955 0017 0B       		.uleb128 0xb
 1956 0018 3E       		.uleb128 0x3e
 1957 0019 0B       		.uleb128 0xb
 1958 001a 03       		.uleb128 0x3
 1959 001b 08       		.uleb128 0x8
 1960 001c 00       		.byte	0
 1961 001d 00       		.byte	0
 1962 001e 03       		.uleb128 0x3
 1963 001f 16       		.uleb128 0x16
 1964 0020 00       		.byte	0
 1965 0021 03       		.uleb128 0x3
 1966 0022 0E       		.uleb128 0xe
 1967 0023 3A       		.uleb128 0x3a
 1968 0024 0B       		.uleb128 0xb
 1969 0025 3B       		.uleb128 0x3b
 1970 0026 0B       		.uleb128 0xb
 1971 0027 49       		.uleb128 0x49
 1972 0028 13       		.uleb128 0x13
 1973 0029 00       		.byte	0
 1974 002a 00       		.byte	0
 1975 002b 04       		.uleb128 0x4
 1976 002c 24       		.uleb128 0x24
 1977 002d 00       		.byte	0
 1978 002e 0B       		.uleb128 0xb
 1979 002f 0B       		.uleb128 0xb
 1980 0030 3E       		.uleb128 0x3e
 1981 0031 0B       		.uleb128 0xb
 1982 0032 03       		.uleb128 0x3
 1983 0033 0E       		.uleb128 0xe
 1984 0034 00       		.byte	0
 1985 0035 00       		.byte	0
 1986 0036 05       		.uleb128 0x5
 1987 0037 0F       		.uleb128 0xf
ARM GAS  /tmp/ccT7YWlu.s 			page 53


 1988 0038 00       		.byte	0
 1989 0039 0B       		.uleb128 0xb
 1990 003a 0B       		.uleb128 0xb
 1991 003b 00       		.byte	0
 1992 003c 00       		.byte	0
 1993 003d 06       		.uleb128 0x6
 1994 003e 0F       		.uleb128 0xf
 1995 003f 00       		.byte	0
 1996 0040 0B       		.uleb128 0xb
 1997 0041 0B       		.uleb128 0xb
 1998 0042 49       		.uleb128 0x49
 1999 0043 13       		.uleb128 0x13
 2000 0044 00       		.byte	0
 2001 0045 00       		.byte	0
 2002 0046 07       		.uleb128 0x7
 2003 0047 26       		.uleb128 0x26
 2004 0048 00       		.byte	0
 2005 0049 49       		.uleb128 0x49
 2006 004a 13       		.uleb128 0x13
 2007 004b 00       		.byte	0
 2008 004c 00       		.byte	0
 2009 004d 08       		.uleb128 0x8
 2010 004e 13       		.uleb128 0x13
 2011 004f 01       		.byte	0x1
 2012 0050 03       		.uleb128 0x3
 2013 0051 0E       		.uleb128 0xe
 2014 0052 0B       		.uleb128 0xb
 2015 0053 0B       		.uleb128 0xb
 2016 0054 3A       		.uleb128 0x3a
 2017 0055 0B       		.uleb128 0xb
 2018 0056 3B       		.uleb128 0x3b
 2019 0057 0B       		.uleb128 0xb
 2020 0058 01       		.uleb128 0x1
 2021 0059 13       		.uleb128 0x13
 2022 005a 00       		.byte	0
 2023 005b 00       		.byte	0
 2024 005c 09       		.uleb128 0x9
 2025 005d 0D       		.uleb128 0xd
 2026 005e 00       		.byte	0
 2027 005f 03       		.uleb128 0x3
 2028 0060 0E       		.uleb128 0xe
 2029 0061 3A       		.uleb128 0x3a
 2030 0062 0B       		.uleb128 0xb
 2031 0063 3B       		.uleb128 0x3b
 2032 0064 0B       		.uleb128 0xb
 2033 0065 49       		.uleb128 0x49
 2034 0066 13       		.uleb128 0x13
 2035 0067 38       		.uleb128 0x38
 2036 0068 0B       		.uleb128 0xb
 2037 0069 00       		.byte	0
 2038 006a 00       		.byte	0
 2039 006b 0A       		.uleb128 0xa
 2040 006c 0D       		.uleb128 0xd
 2041 006d 00       		.byte	0
 2042 006e 03       		.uleb128 0x3
 2043 006f 08       		.uleb128 0x8
 2044 0070 3A       		.uleb128 0x3a
ARM GAS  /tmp/ccT7YWlu.s 			page 54


 2045 0071 0B       		.uleb128 0xb
 2046 0072 3B       		.uleb128 0x3b
 2047 0073 05       		.uleb128 0x5
 2048 0074 49       		.uleb128 0x49
 2049 0075 13       		.uleb128 0x13
 2050 0076 38       		.uleb128 0x38
 2051 0077 0B       		.uleb128 0xb
 2052 0078 00       		.byte	0
 2053 0079 00       		.byte	0
 2054 007a 0B       		.uleb128 0xb
 2055 007b 0D       		.uleb128 0xd
 2056 007c 00       		.byte	0
 2057 007d 03       		.uleb128 0x3
 2058 007e 0E       		.uleb128 0xe
 2059 007f 3A       		.uleb128 0x3a
 2060 0080 0B       		.uleb128 0xb
 2061 0081 3B       		.uleb128 0x3b
 2062 0082 05       		.uleb128 0x5
 2063 0083 49       		.uleb128 0x49
 2064 0084 13       		.uleb128 0x13
 2065 0085 38       		.uleb128 0x38
 2066 0086 0B       		.uleb128 0xb
 2067 0087 00       		.byte	0
 2068 0088 00       		.byte	0
 2069 0089 0C       		.uleb128 0xc
 2070 008a 13       		.uleb128 0x13
 2071 008b 01       		.byte	0x1
 2072 008c 03       		.uleb128 0x3
 2073 008d 0E       		.uleb128 0xe
 2074 008e 0B       		.uleb128 0xb
 2075 008f 0B       		.uleb128 0xb
 2076 0090 3A       		.uleb128 0x3a
 2077 0091 0B       		.uleb128 0xb
 2078 0092 3B       		.uleb128 0x3b
 2079 0093 05       		.uleb128 0x5
 2080 0094 01       		.uleb128 0x1
 2081 0095 13       		.uleb128 0x13
 2082 0096 00       		.byte	0
 2083 0097 00       		.byte	0
 2084 0098 0D       		.uleb128 0xd
 2085 0099 15       		.uleb128 0x15
 2086 009a 01       		.byte	0x1
 2087 009b 27       		.uleb128 0x27
 2088 009c 19       		.uleb128 0x19
 2089 009d 01       		.uleb128 0x1
 2090 009e 13       		.uleb128 0x13
 2091 009f 00       		.byte	0
 2092 00a0 00       		.byte	0
 2093 00a1 0E       		.uleb128 0xe
 2094 00a2 05       		.uleb128 0x5
 2095 00a3 00       		.byte	0
 2096 00a4 49       		.uleb128 0x49
 2097 00a5 13       		.uleb128 0x13
 2098 00a6 00       		.byte	0
 2099 00a7 00       		.byte	0
 2100 00a8 0F       		.uleb128 0xf
 2101 00a9 13       		.uleb128 0x13
ARM GAS  /tmp/ccT7YWlu.s 			page 55


 2102 00aa 01       		.byte	0x1
 2103 00ab 03       		.uleb128 0x3
 2104 00ac 0E       		.uleb128 0xe
 2105 00ad 0B       		.uleb128 0xb
 2106 00ae 05       		.uleb128 0x5
 2107 00af 3A       		.uleb128 0x3a
 2108 00b0 0B       		.uleb128 0xb
 2109 00b1 3B       		.uleb128 0x3b
 2110 00b2 05       		.uleb128 0x5
 2111 00b3 01       		.uleb128 0x1
 2112 00b4 13       		.uleb128 0x13
 2113 00b5 00       		.byte	0
 2114 00b6 00       		.byte	0
 2115 00b7 10       		.uleb128 0x10
 2116 00b8 0D       		.uleb128 0xd
 2117 00b9 00       		.byte	0
 2118 00ba 03       		.uleb128 0x3
 2119 00bb 0E       		.uleb128 0xe
 2120 00bc 3A       		.uleb128 0x3a
 2121 00bd 0B       		.uleb128 0xb
 2122 00be 3B       		.uleb128 0x3b
 2123 00bf 05       		.uleb128 0x5
 2124 00c0 49       		.uleb128 0x49
 2125 00c1 13       		.uleb128 0x13
 2126 00c2 38       		.uleb128 0x38
 2127 00c3 05       		.uleb128 0x5
 2128 00c4 00       		.byte	0
 2129 00c5 00       		.byte	0
 2130 00c6 11       		.uleb128 0x11
 2131 00c7 0D       		.uleb128 0xd
 2132 00c8 00       		.byte	0
 2133 00c9 03       		.uleb128 0x3
 2134 00ca 08       		.uleb128 0x8
 2135 00cb 3A       		.uleb128 0x3a
 2136 00cc 0B       		.uleb128 0xb
 2137 00cd 3B       		.uleb128 0x3b
 2138 00ce 05       		.uleb128 0x5
 2139 00cf 49       		.uleb128 0x49
 2140 00d0 13       		.uleb128 0x13
 2141 00d1 38       		.uleb128 0x38
 2142 00d2 05       		.uleb128 0x5
 2143 00d3 00       		.byte	0
 2144 00d4 00       		.byte	0
 2145 00d5 12       		.uleb128 0x12
 2146 00d6 0D       		.uleb128 0xd
 2147 00d7 00       		.byte	0
 2148 00d8 03       		.uleb128 0x3
 2149 00d9 08       		.uleb128 0x8
 2150 00da 3A       		.uleb128 0x3a
 2151 00db 0B       		.uleb128 0xb
 2152 00dc 3B       		.uleb128 0x3b
 2153 00dd 0B       		.uleb128 0xb
 2154 00de 49       		.uleb128 0x49
 2155 00df 13       		.uleb128 0x13
 2156 00e0 38       		.uleb128 0x38
 2157 00e1 0B       		.uleb128 0xb
 2158 00e2 00       		.byte	0
ARM GAS  /tmp/ccT7YWlu.s 			page 56


 2159 00e3 00       		.byte	0
 2160 00e4 13       		.uleb128 0x13
 2161 00e5 13       		.uleb128 0x13
 2162 00e6 01       		.byte	0x1
 2163 00e7 0B       		.uleb128 0xb
 2164 00e8 0B       		.uleb128 0xb
 2165 00e9 3A       		.uleb128 0x3a
 2166 00ea 0B       		.uleb128 0xb
 2167 00eb 3B       		.uleb128 0x3b
 2168 00ec 0B       		.uleb128 0xb
 2169 00ed 01       		.uleb128 0x1
 2170 00ee 13       		.uleb128 0x13
 2171 00ef 00       		.byte	0
 2172 00f0 00       		.byte	0
 2173 00f1 14       		.uleb128 0x14
 2174 00f2 13       		.uleb128 0x13
 2175 00f3 01       		.byte	0x1
 2176 00f4 0B       		.uleb128 0xb
 2177 00f5 05       		.uleb128 0x5
 2178 00f6 3A       		.uleb128 0x3a
 2179 00f7 0B       		.uleb128 0xb
 2180 00f8 3B       		.uleb128 0x3b
 2181 00f9 0B       		.uleb128 0xb
 2182 00fa 01       		.uleb128 0x1
 2183 00fb 13       		.uleb128 0x13
 2184 00fc 00       		.byte	0
 2185 00fd 00       		.byte	0
 2186 00fe 15       		.uleb128 0x15
 2187 00ff 01       		.uleb128 0x1
 2188 0100 01       		.byte	0x1
 2189 0101 49       		.uleb128 0x49
 2190 0102 13       		.uleb128 0x13
 2191 0103 01       		.uleb128 0x1
 2192 0104 13       		.uleb128 0x13
 2193 0105 00       		.byte	0
 2194 0106 00       		.byte	0
 2195 0107 16       		.uleb128 0x16
 2196 0108 21       		.uleb128 0x21
 2197 0109 00       		.byte	0
 2198 010a 49       		.uleb128 0x49
 2199 010b 13       		.uleb128 0x13
 2200 010c 2F       		.uleb128 0x2f
 2201 010d 0B       		.uleb128 0xb
 2202 010e 00       		.byte	0
 2203 010f 00       		.byte	0
 2204 0110 17       		.uleb128 0x17
 2205 0111 17       		.uleb128 0x17
 2206 0112 01       		.byte	0x1
 2207 0113 0B       		.uleb128 0xb
 2208 0114 0B       		.uleb128 0xb
 2209 0115 3A       		.uleb128 0x3a
 2210 0116 0B       		.uleb128 0xb
 2211 0117 3B       		.uleb128 0x3b
 2212 0118 0B       		.uleb128 0xb
 2213 0119 01       		.uleb128 0x1
 2214 011a 13       		.uleb128 0x13
 2215 011b 00       		.byte	0
ARM GAS  /tmp/ccT7YWlu.s 			page 57


 2216 011c 00       		.byte	0
 2217 011d 18       		.uleb128 0x18
 2218 011e 0D       		.uleb128 0xd
 2219 011f 00       		.byte	0
 2220 0120 03       		.uleb128 0x3
 2221 0121 0E       		.uleb128 0xe
 2222 0122 3A       		.uleb128 0x3a
 2223 0123 0B       		.uleb128 0xb
 2224 0124 3B       		.uleb128 0x3b
 2225 0125 05       		.uleb128 0x5
 2226 0126 49       		.uleb128 0x49
 2227 0127 13       		.uleb128 0x13
 2228 0128 00       		.byte	0
 2229 0129 00       		.byte	0
 2230 012a 19       		.uleb128 0x19
 2231 012b 35       		.uleb128 0x35
 2232 012c 00       		.byte	0
 2233 012d 49       		.uleb128 0x49
 2234 012e 13       		.uleb128 0x13
 2235 012f 00       		.byte	0
 2236 0130 00       		.byte	0
 2237 0131 1A       		.uleb128 0x1a
 2238 0132 15       		.uleb128 0x15
 2239 0133 01       		.byte	0x1
 2240 0134 27       		.uleb128 0x27
 2241 0135 19       		.uleb128 0x19
 2242 0136 49       		.uleb128 0x49
 2243 0137 13       		.uleb128 0x13
 2244 0138 01       		.uleb128 0x1
 2245 0139 13       		.uleb128 0x13
 2246 013a 00       		.byte	0
 2247 013b 00       		.byte	0
 2248 013c 1B       		.uleb128 0x1b
 2249 013d 2E       		.uleb128 0x2e
 2250 013e 01       		.byte	0x1
 2251 013f 03       		.uleb128 0x3
 2252 0140 0E       		.uleb128 0xe
 2253 0141 3A       		.uleb128 0x3a
 2254 0142 0B       		.uleb128 0xb
 2255 0143 3B       		.uleb128 0x3b
 2256 0144 0B       		.uleb128 0xb
 2257 0145 27       		.uleb128 0x27
 2258 0146 19       		.uleb128 0x19
 2259 0147 49       		.uleb128 0x49
 2260 0148 13       		.uleb128 0x13
 2261 0149 11       		.uleb128 0x11
 2262 014a 01       		.uleb128 0x1
 2263 014b 12       		.uleb128 0x12
 2264 014c 06       		.uleb128 0x6
 2265 014d 40       		.uleb128 0x40
 2266 014e 18       		.uleb128 0x18
 2267 014f 9642     		.uleb128 0x2116
 2268 0151 19       		.uleb128 0x19
 2269 0152 01       		.uleb128 0x1
 2270 0153 13       		.uleb128 0x13
 2271 0154 00       		.byte	0
 2272 0155 00       		.byte	0
ARM GAS  /tmp/ccT7YWlu.s 			page 58


 2273 0156 1C       		.uleb128 0x1c
 2274 0157 05       		.uleb128 0x5
 2275 0158 00       		.byte	0
 2276 0159 03       		.uleb128 0x3
 2277 015a 08       		.uleb128 0x8
 2278 015b 3A       		.uleb128 0x3a
 2279 015c 0B       		.uleb128 0xb
 2280 015d 3B       		.uleb128 0x3b
 2281 015e 0B       		.uleb128 0xb
 2282 015f 49       		.uleb128 0x49
 2283 0160 13       		.uleb128 0x13
 2284 0161 02       		.uleb128 0x2
 2285 0162 18       		.uleb128 0x18
 2286 0163 00       		.byte	0
 2287 0164 00       		.byte	0
 2288 0165 1D       		.uleb128 0x1d
 2289 0166 34       		.uleb128 0x34
 2290 0167 00       		.byte	0
 2291 0168 03       		.uleb128 0x3
 2292 0169 08       		.uleb128 0x8
 2293 016a 3A       		.uleb128 0x3a
 2294 016b 0B       		.uleb128 0xb
 2295 016c 3B       		.uleb128 0x3b
 2296 016d 0B       		.uleb128 0xb
 2297 016e 49       		.uleb128 0x49
 2298 016f 13       		.uleb128 0x13
 2299 0170 02       		.uleb128 0x2
 2300 0171 18       		.uleb128 0x18
 2301 0172 00       		.byte	0
 2302 0173 00       		.byte	0
 2303 0174 1E       		.uleb128 0x1e
 2304 0175 2E       		.uleb128 0x2e
 2305 0176 01       		.byte	0x1
 2306 0177 03       		.uleb128 0x3
 2307 0178 08       		.uleb128 0x8
 2308 0179 3A       		.uleb128 0x3a
 2309 017a 0B       		.uleb128 0xb
 2310 017b 3B       		.uleb128 0x3b
 2311 017c 0B       		.uleb128 0xb
 2312 017d 27       		.uleb128 0x27
 2313 017e 19       		.uleb128 0x19
 2314 017f 49       		.uleb128 0x49
 2315 0180 13       		.uleb128 0x13
 2316 0181 11       		.uleb128 0x11
 2317 0182 01       		.uleb128 0x1
 2318 0183 12       		.uleb128 0x12
 2319 0184 06       		.uleb128 0x6
 2320 0185 40       		.uleb128 0x40
 2321 0186 18       		.uleb128 0x18
 2322 0187 9742     		.uleb128 0x2117
 2323 0189 19       		.uleb128 0x19
 2324 018a 01       		.uleb128 0x1
 2325 018b 13       		.uleb128 0x13
 2326 018c 00       		.byte	0
 2327 018d 00       		.byte	0
 2328 018e 1F       		.uleb128 0x1f
 2329 018f 2E       		.uleb128 0x2e
ARM GAS  /tmp/ccT7YWlu.s 			page 59


 2330 0190 01       		.byte	0x1
 2331 0191 3F       		.uleb128 0x3f
 2332 0192 19       		.uleb128 0x19
 2333 0193 03       		.uleb128 0x3
 2334 0194 0E       		.uleb128 0xe
 2335 0195 3A       		.uleb128 0x3a
 2336 0196 0B       		.uleb128 0xb
 2337 0197 3B       		.uleb128 0x3b
 2338 0198 0B       		.uleb128 0xb
 2339 0199 27       		.uleb128 0x27
 2340 019a 19       		.uleb128 0x19
 2341 019b 11       		.uleb128 0x11
 2342 019c 01       		.uleb128 0x1
 2343 019d 12       		.uleb128 0x12
 2344 019e 06       		.uleb128 0x6
 2345 019f 40       		.uleb128 0x40
 2346 01a0 18       		.uleb128 0x18
 2347 01a1 9742     		.uleb128 0x2117
 2348 01a3 19       		.uleb128 0x19
 2349 01a4 01       		.uleb128 0x1
 2350 01a5 13       		.uleb128 0x13
 2351 01a6 00       		.byte	0
 2352 01a7 00       		.byte	0
 2353 01a8 20       		.uleb128 0x20
 2354 01a9 05       		.uleb128 0x5
 2355 01aa 00       		.byte	0
 2356 01ab 03       		.uleb128 0x3
 2357 01ac 0E       		.uleb128 0xe
 2358 01ad 3A       		.uleb128 0x3a
 2359 01ae 0B       		.uleb128 0xb
 2360 01af 3B       		.uleb128 0x3b
 2361 01b0 0B       		.uleb128 0xb
 2362 01b1 49       		.uleb128 0x49
 2363 01b2 13       		.uleb128 0x13
 2364 01b3 02       		.uleb128 0x2
 2365 01b4 18       		.uleb128 0x18
 2366 01b5 00       		.byte	0
 2367 01b6 00       		.byte	0
 2368 01b7 21       		.uleb128 0x21
 2369 01b8 34       		.uleb128 0x34
 2370 01b9 00       		.byte	0
 2371 01ba 03       		.uleb128 0x3
 2372 01bb 0E       		.uleb128 0xe
 2373 01bc 3A       		.uleb128 0x3a
 2374 01bd 0B       		.uleb128 0xb
 2375 01be 3B       		.uleb128 0x3b
 2376 01bf 05       		.uleb128 0x5
 2377 01c0 49       		.uleb128 0x49
 2378 01c1 13       		.uleb128 0x13
 2379 01c2 3F       		.uleb128 0x3f
 2380 01c3 19       		.uleb128 0x19
 2381 01c4 3C       		.uleb128 0x3c
 2382 01c5 19       		.uleb128 0x19
 2383 01c6 00       		.byte	0
 2384 01c7 00       		.byte	0
 2385 01c8 22       		.uleb128 0x22
 2386 01c9 34       		.uleb128 0x34
ARM GAS  /tmp/ccT7YWlu.s 			page 60


 2387 01ca 00       		.byte	0
 2388 01cb 03       		.uleb128 0x3
 2389 01cc 08       		.uleb128 0x8
 2390 01cd 3A       		.uleb128 0x3a
 2391 01ce 0B       		.uleb128 0xb
 2392 01cf 3B       		.uleb128 0x3b
 2393 01d0 05       		.uleb128 0x5
 2394 01d1 49       		.uleb128 0x49
 2395 01d2 13       		.uleb128 0x13
 2396 01d3 3F       		.uleb128 0x3f
 2397 01d4 19       		.uleb128 0x19
 2398 01d5 3C       		.uleb128 0x3c
 2399 01d6 19       		.uleb128 0x19
 2400 01d7 00       		.byte	0
 2401 01d8 00       		.byte	0
 2402 01d9 00       		.byte	0
 2403              		.section	.debug_aranges,"",%progbits
 2404 0000 3C000000 		.4byte	0x3c
 2405 0004 0200     		.2byte	0x2
 2406 0006 00000000 		.4byte	.Ldebug_info0
 2407 000a 04       		.byte	0x4
 2408 000b 00       		.byte	0
 2409 000c 0000     		.2byte	0
 2410 000e 0000     		.2byte	0
 2411 0010 00000000 		.4byte	.LFB272
 2412 0014 54000000 		.4byte	.LFE272-.LFB272
 2413 0018 00000000 		.4byte	.LFB273
 2414 001c 54000000 		.4byte	.LFE273-.LFB273
 2415 0020 00000000 		.4byte	.LFB274
 2416 0024 42000000 		.4byte	.LFE274-.LFB274
 2417 0028 00000000 		.4byte	.LFB275
 2418 002c 3E000000 		.4byte	.LFE275-.LFB275
 2419 0030 00000000 		.4byte	.LFB276
 2420 0034 32000000 		.4byte	.LFE276-.LFB276
 2421 0038 00000000 		.4byte	0
 2422 003c 00000000 		.4byte	0
 2423              		.section	.debug_ranges,"",%progbits
 2424              	.Ldebug_ranges0:
 2425 0000 00000000 		.4byte	.LFB272
 2426 0004 54000000 		.4byte	.LFE272
 2427 0008 00000000 		.4byte	.LFB273
 2428 000c 54000000 		.4byte	.LFE273
 2429 0010 00000000 		.4byte	.LFB274
 2430 0014 42000000 		.4byte	.LFE274
 2431 0018 00000000 		.4byte	.LFB275
 2432 001c 3E000000 		.4byte	.LFE275
 2433 0020 00000000 		.4byte	.LFB276
 2434 0024 32000000 		.4byte	.LFE276
 2435 0028 00000000 		.4byte	0
 2436 002c 00000000 		.4byte	0
 2437              		.section	.debug_line,"",%progbits
 2438              	.Ldebug_line0:
 2439 0000 61020000 		.section	.debug_str,"MS",%progbits,1
 2439      0200EB01 
 2439      00000201 
 2439      FB0E0D00 
 2439      01010101 
ARM GAS  /tmp/ccT7YWlu.s 			page 61


 2440              	.LASF24:
 2441 0000 74726566 		.ascii	"trefs_t\000"
 2441      735F7400 
 2442              	.LASF57:
 2443 0008 72656164 		.ascii	"ready_list_t\000"
 2443      795F6C69 
 2443      73745F74 
 2443      00
 2444              	.LASF93:
 2445 0015 73655F74 		.ascii	"se_time\000"
 2445      696D6500 
 2446              	.LASF2:
 2447 001d 73697A65 		.ascii	"size_t\000"
 2447      5F7400
 2448              	.LASF114:
 2449 0024 7264796D 		.ascii	"rdymsg\000"
 2449      736700
 2450              	.LASF19:
 2451 002b 75696E74 		.ascii	"uint64_t\000"
 2451      36345F74 
 2451      00
 2452              	.LASF87:
 2453 0034 6B65726E 		.ascii	"kernel_stats\000"
 2453      656C5F73 
 2453      74617473 
 2453      00
 2454              	.LASF3:
 2455 0041 5F5F7569 		.ascii	"__uint8_t\000"
 2455      6E74385F 
 2455      7400
 2456              	.LASF92:
 2457 004b 706F7274 		.ascii	"port_intctx\000"
 2457      5F696E74 
 2457      63747800 
 2458              	.LASF56:
 2459 0057 63685F74 		.ascii	"ch_threads_queue\000"
 2459      68726561 
 2459      64735F71 
 2459      75657565 
 2459      00
 2460              	.LASF76:
 2461 0068 73797374 		.ascii	"system_debug_t\000"
 2461      656D5F64 
 2461      65627567 
 2461      5F7400
 2462              	.LASF140:
 2463 0077 2E2E2F2E 		.ascii	"../../../../os/hal/lib/streams/memstreams.c\000"
 2463      2E2F2E2E 
 2463      2F2E2E2F 
 2463      6F732F68 
 2463      616C2F6C 
 2464              	.LASF105:
 2465 00a3 776F7273 		.ascii	"worst\000"
 2465      7400
 2466              	.LASF108:
 2467 00a9 74696D65 		.ascii	"time_measurement_t\000"
 2467      5F6D6561 
ARM GAS  /tmp/ccT7YWlu.s 			page 62


 2467      73757265 
 2467      6D656E74 
 2467      5F7400
 2468              	.LASF13:
 2469 00bc 6C6F6E67 		.ascii	"long long unsigned int\000"
 2469      206C6F6E 
 2469      6720756E 
 2469      7369676E 
 2469      65642069 
 2470              	.LASF101:
 2471 00d3 63685F74 		.ascii	"ch_trace_buffer_t\000"
 2471      72616365 
 2471      5F627566 
 2471      6665725F 
 2471      7400
 2472              	.LASF96:
 2473 00e5 73655F73 		.ascii	"se_state\000"
 2473      74617465 
 2473      00
 2474              	.LASF115:
 2475 00ee 65786974 		.ascii	"exitcode\000"
 2475      636F6465 
 2475      00
 2476              	.LASF86:
 2477 00f7 6D61696E 		.ascii	"mainthread\000"
 2477      74687265 
 2477      616400
 2478              	.LASF73:
 2479 0102 76697274 		.ascii	"virtual_timers_list_t\000"
 2479      75616C5F 
 2479      74696D65 
 2479      72735F6C 
 2479      6973745F 
 2480              	.LASF138:
 2481 0118 49544D5F 		.ascii	"ITM_RxBuffer\000"
 2481      52784275 
 2481      66666572 
 2481      00
 2482              	.LASF21:
 2483 0125 72747469 		.ascii	"rttime_t\000"
 2483      6D655F74 
 2483      00
 2484              	.LASF34:
 2485 012e 705F7072 		.ascii	"p_prio\000"
 2485      696F00
 2486              	.LASF137:
 2487 0135 72656164 		.ascii	"reads\000"
 2487      7300
 2488              	.LASF11:
 2489 013b 6C6F6E67 		.ascii	"long long int\000"
 2489      206C6F6E 
 2489      6720696E 
 2489      7400
 2490              	.LASF1:
 2491 0149 7369676E 		.ascii	"signed char\000"
 2491      65642063 
 2491      68617200 
ARM GAS  /tmp/ccT7YWlu.s 			page 63


 2492              	.LASF49:
 2493 0155 705F6D70 		.ascii	"p_mpool\000"
 2493      6F6F6C00 
 2494              	.LASF125:
 2495 015d 6D5F7175 		.ascii	"m_queue\000"
 2495      65756500 
 2496              	.LASF85:
 2497 0165 76746C69 		.ascii	"vtlist\000"
 2497      737400
 2498              	.LASF117:
 2499 016c 77747472 		.ascii	"wttrp\000"
 2499      7000
 2500              	.LASF83:
 2501 0172 63685F73 		.ascii	"ch_system\000"
 2501      79737465 
 2501      6D00
 2502              	.LASF8:
 2503 017c 6C6F6E67 		.ascii	"long int\000"
 2503      20696E74 
 2503      00
 2504              	.LASF23:
 2505 0185 74737461 		.ascii	"tstate_t\000"
 2505      74655F74 
 2505      00
 2506              	.LASF94:
 2507 018e 73655F74 		.ascii	"se_tp\000"
 2507      7000
 2508              	.LASF133:
 2509 0194 62756666 		.ascii	"buffer\000"
 2509      657200
 2510              	.LASF36:
 2511 019b 705F6E65 		.ascii	"p_newer\000"
 2511      77657200 
 2512              	.LASF122:
 2513 01a3 735F7175 		.ascii	"s_queue\000"
 2513      65756500 
 2514              	.LASF98:
 2515 01ab 74625F73 		.ascii	"tb_size\000"
 2515      697A6500 
 2516              	.LASF62:
 2517 01b3 725F6E65 		.ascii	"r_newer\000"
 2517      77657200 
 2518              	.LASF89:
 2519 01bb 72656761 		.ascii	"regarm_t\000"
 2519      726D5F74 
 2519      00
 2520              	.LASF69:
 2521 01c4 76745F70 		.ascii	"vt_prev\000"
 2521      72657600 
 2522              	.LASF77:
 2523 01cc 63685F73 		.ascii	"ch_system_debug\000"
 2523      79737465 
 2523      6D5F6465 
 2523      62756700 
 2524              	.LASF128:
 2525 01dc 6D757465 		.ascii	"mutex_t\000"
 2525      785F7400 
ARM GAS  /tmp/ccT7YWlu.s 			page 64


 2526              	.LASF80:
 2527 01e4 6C6F636B 		.ascii	"lock_cnt\000"
 2527      5F636E74 
 2527      00
 2528              	.LASF88:
 2529 01ed 69646C65 		.ascii	"idle_thread_wa\000"
 2529      5F746872 
 2529      6561645F 
 2529      776100
 2530              	.LASF28:
 2531 01fc 636E745F 		.ascii	"cnt_t\000"
 2531      7400
 2532              	.LASF39:
 2533 0202 705F7374 		.ascii	"p_stklimit\000"
 2533      6B6C696D 
 2533      697400
 2534              	.LASF0:
 2535 020d 756E7369 		.ascii	"unsigned int\000"
 2535      676E6564 
 2535      20696E74 
 2535      00
 2536              	.LASF68:
 2537 021a 76745F6E 		.ascii	"vt_next\000"
 2537      65787400 
 2538              	.LASF118:
 2539 0222 77747365 		.ascii	"wtsemp\000"
 2539      6D7000
 2540              	.LASF44:
 2541 0229 705F6D73 		.ascii	"p_msgqueue\000"
 2541      67717565 
 2541      756500
 2542              	.LASF109:
 2543 0234 6E5F6972 		.ascii	"n_irq\000"
 2543      7100
 2544              	.LASF123:
 2545 023a 735F636E 		.ascii	"s_cnt\000"
 2545      7400
 2546              	.LASF6:
 2547 0240 73686F72 		.ascii	"short unsigned int\000"
 2547      7420756E 
 2547      7369676E 
 2547      65642069 
 2547      6E7400
 2548              	.LASF113:
 2549 0253 6B65726E 		.ascii	"kernel_stats_t\000"
 2549      656C5F73 
 2549      74617473 
 2549      5F7400
 2550              	.LASF53:
 2551 0262 63685F74 		.ascii	"ch_thread\000"
 2551      68726561 
 2551      6400
 2552              	.LASF26:
 2553 026c 6D73675F 		.ascii	"msg_t\000"
 2553      7400
 2554              	.LASF106:
 2555 0272 6C617374 		.ascii	"last\000"
ARM GAS  /tmp/ccT7YWlu.s 			page 65


 2555      00
 2556              	.LASF141:
 2557 0277 2F686F6D 		.ascii	"/home/jerker/chibios/ChibiOS_16.1.4/testhal/STM32/S"
 2557      652F6A65 
 2557      726B6572 
 2557      2F636869 
 2557      62696F73 
 2558 02aa 544D3332 		.ascii	"TM32F4xx/USB_CDC\000"
 2558      46347878 
 2558      2F555342 
 2558      5F434443 
 2558      00
 2559              	.LASF29:
 2560 02bb 75636E74 		.ascii	"ucnt_t\000"
 2560      5F7400
 2561              	.LASF82:
 2562 02c2 63685F73 		.ascii	"ch_system_t\000"
 2562      79737465 
 2562      6D5F7400 
 2563              	.LASF136:
 2564 02ce 77726974 		.ascii	"writes\000"
 2564      657300
 2565              	.LASF139:
 2566 02d5 474E5520 		.ascii	"GNU C 4.8.2 -mcpu=cortex-m4 -mno-thumb-interwork -m"
 2566      4320342E 
 2566      382E3220 
 2566      2D6D6370 
 2566      753D636F 
 2567 0308 7468756D 		.ascii	"thumb -ggdb -O0 -fomit-frame-pointer -falign-functi"
 2567      62202D67 
 2567      67646220 
 2567      2D4F3020 
 2567      2D666F6D 
 2568 033b 6F6E733D 		.ascii	"ons=16 -ffunction-sections -fdata-sections -fno-com"
 2568      3136202D 
 2568      6666756E 
 2568      6374696F 
 2568      6E2D7365 
 2569 036e 6D6F6E20 		.ascii	"mon -flto\000"
 2569      2D666C74 
 2569      6F00
 2570              	.LASF22:
 2571 0378 746D6F64 		.ascii	"tmode_t\000"
 2571      655F7400 
 2572              	.LASF112:
 2573 0380 6D5F6372 		.ascii	"m_crit_isr\000"
 2573      69745F69 
 2573      737200
 2574              	.LASF58:
 2575 038b 63685F72 		.ascii	"ch_ready_list\000"
 2575      65616479 
 2575      5F6C6973 
 2575      7400
 2576              	.LASF27:
 2577 0399 6576656E 		.ascii	"eventmask_t\000"
 2577      746D6173 
 2577      6B5F7400 
ARM GAS  /tmp/ccT7YWlu.s 			page 66


 2578              	.LASF7:
 2579 03a5 5F5F696E 		.ascii	"__int32_t\000"
 2579      7433325F 
 2579      7400
 2580              	.LASF90:
 2581 03af 73746B61 		.ascii	"stkalign_t\000"
 2581      6C69676E 
 2581      5F7400
 2582              	.LASF142:
 2583 03ba 6D734F62 		.ascii	"msObjectInit\000"
 2583      6A656374 
 2583      496E6974 
 2583      00
 2584              	.LASF131:
 2585 03c7 77726974 		.ascii	"write\000"
 2585      6500
 2586              	.LASF43:
 2587 03cd 705F7761 		.ascii	"p_waiting\000"
 2587      6974696E 
 2587      6700
 2588              	.LASF14:
 2589 03d7 73697A65 		.ascii	"sizetype\000"
 2589      74797065 
 2589      00
 2590              	.LASF51:
 2591 03e0 74687265 		.ascii	"thread_reference_t\000"
 2591      61645F72 
 2591      65666572 
 2591      656E6365 
 2591      5F7400
 2592              	.LASF74:
 2593 03f3 63685F76 		.ascii	"ch_virtual_timers_list\000"
 2593      69727475 
 2593      616C5F74 
 2593      696D6572 
 2593      735F6C69 
 2594              	.LASF99:
 2595 040a 74625F70 		.ascii	"tb_ptr\000"
 2595      747200
 2596              	.LASF97:
 2597 0411 63685F73 		.ascii	"ch_swc_event_t\000"
 2597      77635F65 
 2597      76656E74 
 2597      5F7400
 2598              	.LASF75:
 2599 0420 76745F6C 		.ascii	"vt_lasttime\000"
 2599      61737474 
 2599      696D6500 
 2600              	.LASF37:
 2601 042c 705F6F6C 		.ascii	"p_older\000"
 2601      64657200 
 2602              	.LASF61:
 2603 0434 725F6374 		.ascii	"r_ctx\000"
 2603      7800
 2604              	.LASF103:
 2605 043a 746D5F63 		.ascii	"tm_calibration_t\000"
 2605      616C6962 
ARM GAS  /tmp/ccT7YWlu.s 			page 67


 2605      72617469 
 2605      6F6E5F74 
 2605      00
 2606              	.LASF64:
 2607 044b 725F6375 		.ascii	"r_current\000"
 2607      7272656E 
 2607      7400
 2608              	.LASF63:
 2609 0455 725F6F6C 		.ascii	"r_older\000"
 2609      64657200 
 2610              	.LASF130:
 2611 045d 4D656D53 		.ascii	"MemStreamVMT\000"
 2611      74726561 
 2611      6D564D54 
 2611      00
 2612              	.LASF12:
 2613 046a 5F5F7569 		.ascii	"__uint64_t\000"
 2613      6E743634 
 2613      5F7400
 2614              	.LASF107:
 2615 0475 63756D75 		.ascii	"cumulative\000"
 2615      6C617469 
 2615      766500
 2616              	.LASF100:
 2617 0480 74625F62 		.ascii	"tb_buffer\000"
 2617      75666665 
 2617      7200
 2618              	.LASF66:
 2619 048a 76697274 		.ascii	"virtual_timer_t\000"
 2619      75616C5F 
 2619      74696D65 
 2619      725F7400 
 2620              	.LASF33:
 2621 049a 705F7072 		.ascii	"p_prev\000"
 2621      657600
 2622              	.LASF25:
 2623 04a1 74707269 		.ascii	"tprio_t\000"
 2623      6F5F7400 
 2624              	.LASF135:
 2625 04a9 4D656D6F 		.ascii	"MemoryStream\000"
 2625      72795374 
 2625      7265616D 
 2625      00
 2626              	.LASF38:
 2627 04b6 705F6E61 		.ascii	"p_name\000"
 2627      6D6500
 2628              	.LASF110:
 2629 04bd 6E5F6374 		.ascii	"n_ctxswc\000"
 2629      78737763 
 2629      00
 2630              	.LASF129:
 2631 04c6 5F426F6F 		.ascii	"_Bool\000"
 2631      6C00
 2632              	.LASF17:
 2633 04cc 696E7433 		.ascii	"int32_t\000"
 2633      325F7400 
 2634              	.LASF4:
ARM GAS  /tmp/ccT7YWlu.s 			page 68


 2635 04d4 756E7369 		.ascii	"unsigned char\000"
 2635      676E6564 
 2635      20636861 
 2635      7200
 2636              	.LASF40:
 2637 04e2 705F7374 		.ascii	"p_state\000"
 2637      61746500 
 2638              	.LASF47:
 2639 04ea 705F6D74 		.ascii	"p_mtxlist\000"
 2639      786C6973 
 2639      7400
 2640              	.LASF5:
 2641 04f4 73686F72 		.ascii	"short int\000"
 2641      7420696E 
 2641      7400
 2642              	.LASF60:
 2643 04fe 725F7072 		.ascii	"r_prio\000"
 2643      696F00
 2644              	.LASF120:
 2645 0505 65776D61 		.ascii	"ewmask\000"
 2645      736B00
 2646              	.LASF32:
 2647 050c 705F6E65 		.ascii	"p_next\000"
 2647      787400
 2648              	.LASF41:
 2649 0513 705F666C 		.ascii	"p_flags\000"
 2649      61677300 
 2650              	.LASF50:
 2651 051b 705F7374 		.ascii	"p_stats\000"
 2651      61747300 
 2652              	.LASF67:
 2653 0523 63685F76 		.ascii	"ch_virtual_timer\000"
 2653      69727475 
 2653      616C5F74 
 2653      696D6572 
 2653      00
 2654              	.LASF121:
 2655 0534 63685F73 		.ascii	"ch_semaphore\000"
 2655      656D6170 
 2655      686F7265 
 2655      00
 2656              	.LASF46:
 2657 0541 705F6570 		.ascii	"p_epending\000"
 2657      656E6469 
 2657      6E6700
 2658              	.LASF18:
 2659 054c 75696E74 		.ascii	"uint32_t\000"
 2659      33325F74 
 2659      00
 2660              	.LASF119:
 2661 0555 77746D74 		.ascii	"wtmtxp\000"
 2661      787000
 2662              	.LASF59:
 2663 055c 725F7175 		.ascii	"r_queue\000"
 2663      65756500 
 2664              	.LASF70:
 2665 0564 76745F64 		.ascii	"vt_delta\000"
ARM GAS  /tmp/ccT7YWlu.s 			page 69


 2665      656C7461 
 2665      00
 2666              	.LASF54:
 2667 056d 63685F74 		.ascii	"ch_threads_list\000"
 2667      68726561 
 2667      64735F6C 
 2667      69737400 
 2668              	.LASF10:
 2669 057d 6C6F6E67 		.ascii	"long unsigned int\000"
 2669      20756E73 
 2669      69676E65 
 2669      6420696E 
 2669      7400
 2670              	.LASF132:
 2671 058f 72656164 		.ascii	"read\000"
 2671      00
 2672              	.LASF15:
 2673 0594 63686172 		.ascii	"char\000"
 2673      00
 2674              	.LASF31:
 2675 0599 74687265 		.ascii	"thread_t\000"
 2675      61645F74 
 2675      00
 2676              	.LASF104:
 2677 05a2 62657374 		.ascii	"best\000"
 2677      00
 2678              	.LASF127:
 2679 05a7 6D5F6E65 		.ascii	"m_next\000"
 2679      787400
 2680              	.LASF30:
 2681 05ae 73797374 		.ascii	"systime_t\000"
 2681      696D655F 
 2681      7400
 2682              	.LASF48:
 2683 05b8 705F7265 		.ascii	"p_realprio\000"
 2683      616C7072 
 2683      696F00
 2684              	.LASF65:
 2685 05c3 76746675 		.ascii	"vtfunc_t\000"
 2685      6E635F74 
 2685      00
 2686              	.LASF9:
 2687 05cc 5F5F7569 		.ascii	"__uint32_t\000"
 2687      6E743332 
 2687      5F7400
 2688              	.LASF78:
 2689 05d7 70616E69 		.ascii	"panic_msg\000"
 2689      635F6D73 
 2689      6700
 2690              	.LASF102:
 2691 05e1 6F666673 		.ascii	"offset\000"
 2691      657400
 2692              	.LASF91:
 2693 05e8 636F6E74 		.ascii	"context\000"
 2693      65787400 
 2694              	.LASF20:
 2695 05f0 7274636E 		.ascii	"rtcnt_t\000"
ARM GAS  /tmp/ccT7YWlu.s 			page 70


 2695      745F7400 
 2696              	.LASF72:
 2697 05f8 76745F70 		.ascii	"vt_par\000"
 2697      617200
 2698              	.LASF55:
 2699 05ff 74687265 		.ascii	"threads_queue_t\000"
 2699      6164735F 
 2699      71756575 
 2699      655F7400 
 2700              	.LASF124:
 2701 060f 63685F6D 		.ascii	"ch_mutex\000"
 2701      75746578 
 2701      00
 2702              	.LASF42:
 2703 0618 705F7265 		.ascii	"p_refs\000"
 2703      667300
 2704              	.LASF79:
 2705 061f 6973725F 		.ascii	"isr_cnt\000"
 2705      636E7400 
 2706              	.LASF84:
 2707 0627 726C6973 		.ascii	"rlist\000"
 2707      7400
 2708              	.LASF16:
 2709 062d 75696E74 		.ascii	"uint8_t\000"
 2709      385F7400 
 2710              	.LASF116:
 2711 0635 77746F62 		.ascii	"wtobjp\000"
 2711      6A7000
 2712              	.LASF134:
 2713 063c 73697A65 		.ascii	"size\000"
 2713      00
 2714              	.LASF52:
 2715 0641 74687265 		.ascii	"threads_list_t\000"
 2715      6164735F 
 2715      6C697374 
 2715      5F7400
 2716              	.LASF81:
 2717 0650 74726163 		.ascii	"trace_buffer\000"
 2717      655F6275 
 2717      66666572 
 2717      00
 2718              	.LASF45:
 2719 065d 705F6D73 		.ascii	"p_msg\000"
 2719      6700
 2720              	.LASF111:
 2721 0663 6D5F6372 		.ascii	"m_crit_thd\000"
 2721      69745F74 
 2721      686400
 2722              	.LASF126:
 2723 066e 6D5F6F77 		.ascii	"m_owner\000"
 2723      6E657200 
 2724              	.LASF95:
 2725 0676 73655F77 		.ascii	"se_wtobjp\000"
 2725      746F626A 
 2725      7000
 2726              	.LASF35:
 2727 0680 705F6374 		.ascii	"p_ctx\000"
ARM GAS  /tmp/ccT7YWlu.s 			page 71


 2727      7800
 2728              	.LASF71:
 2729 0686 76745F66 		.ascii	"vt_func\000"
 2729      756E6300 
 2730              		.comm	__gnu_lto_v1,1,1
 2731              		.ident	"GCC: (4.8.2-14ubuntu1+6) 4.8.2"
ARM GAS  /tmp/ccT7YWlu.s 			page 72


DEFINED SYMBOLS
                            *ABS*:0000000000000000 memstreams.c
     /tmp/ccT7YWlu.s:302    .text.writes:0000000000000000 $t
     /tmp/ccT7YWlu.s:307    .text.writes:0000000000000000 writes
     /tmp/ccT7YWlu.s:370    .text.reads:0000000000000000 $t
     /tmp/ccT7YWlu.s:375    .text.reads:0000000000000000 reads
     /tmp/ccT7YWlu.s:437    .text.put:0000000000000000 $t
     /tmp/ccT7YWlu.s:442    .text.put:0000000000000000 put
     /tmp/ccT7YWlu.s:494    .text.get:0000000000000000 $t
     /tmp/ccT7YWlu.s:499    .text.get:0000000000000000 get
     /tmp/ccT7YWlu.s:549    .rodata.vmt:0000000000000000 $d
     /tmp/ccT7YWlu.s:552    .rodata.vmt:0000000000000000 vmt
     /tmp/ccT7YWlu.s:558    .text.msObjectInit:0000000000000000 $t
     /tmp/ccT7YWlu.s:564    .text.msObjectInit:0000000000000000 msObjectInit
                            *COM*:0000000000000001 __gnu_lto_v1
                     .debug_frame:0000000000000010 $d

UNDEFINED SYMBOLS
memcpy
