ARM GAS  /tmp/ccT7YWlu.s 			page 1


   1              		.syntax unified
   2              		.cpu cortex-m4
   3              		.fpu softvfp
   4              		.eabi_attribute 20, 1
   5              		.eabi_attribute 21, 1
   6              		.eabi_attribute 23, 3
   7              		.eabi_attribute 24, 1
   8              		.eabi_attribute 25, 1
   9              		.eabi_attribute 26, 1
  10              		.eabi_attribute 30, 6
  11              		.eabi_attribute 34, 1
  12              		.eabi_attribute 18, 4
  13              		.thumb
  14              		.file	"memstreams.c"
  15              		.text
  16              	.Ltext0:
  17              		.section	.gnu.lto_.inline.c0d1d754b27eec5c,"",%progbits
  18 0000 789C6362 		.ascii	"x\234cb`b\300\006\262\2404+\003\003\037/\003\003\223"
  18      6062C006 
  18      B2A0342B 
  18      03031F2F 
  18      030393
  19 0013 C484D38C 		.ascii	"\304\204\323\214\014,\020\305\214\230BL\014\242\262"
  19      0C2C10C5 
  19      8C98424C 
  19      0CA2B2
  20 0022 4052AEE1 		.ascii	"@R\256\341\027\\\210\005\250\206\201\031\2078\013\003"
  20      175C8805 
  20      A8868119 
  20      87380B03 
  21 0032 073B509C 		.ascii	"\007;P\234gC.L\230\001\000\011~\010\264"
  21      67432E4C 
  21      98010009 
  21      7E08B4
  22              		.text
  23              		.section	.gnu.lto_put.c0d1d754b27eec5c,"",%progbits
  24 0000 789C9D53 		.ascii	"x\234\235S\277k\024A\024~of\366~\237Q\2600]H%Fn\301"
  24      BF6B1441 
  24      147E6F66 
  24      F67E9F51 
  24      B0305D48 
  25 0018 7FC0DACE 		.ascii	"\177\300\332\316B!\026\026\227\030\326\205\034\212g"
  25      42211616 
  25      9718D685 
  25      1C8A67
  26 0027 7F73C911 		.ascii	"\177s\311\021D\203\204\0200F\305\244P\374\005\346\264"
  26      44838410 
  26      3046C5A4 
  26      50FC05E6 
  26      B4
  27 0038 B922C516 		.ascii	"\271\"\305\026\022\016\217@\304F\003\302\221\223\330"
  27      120E8F40 
  27      C44603C2 
  27      9193D8
  28 0047 5858A610 		.ascii	"XX\246\020\327\367f\262\233C\324\254>v\337\316\274\371"
  28      D7F766B2 
  28      9B43D4AC 
ARM GAS  /tmp/ccT7YWlu.s 			page 2


  28      3E76DFCE 
  28      BCF9
  29 0059 BEF7BE79 		.ascii	"\276\367\276y3+@\300\257\346\322\273\246\000N\361$\005"
  29      332B40C0 
  29      AFE6D2BB 
  29      A6004EF1 
  29      2405
  30 006b 48081442 		.ascii	"H\010\024B\002hAQ\255$:\024Q\306;\210\004B\250\011\251"
  30      02684151 
  30      AD243A14 
  30      51C63B88 
  30      0442A809 
  31 0080 1CAC5DE0 		.ascii	"\034\254]\340\031d\207aE\353\371\356\243\336&\336]\010"
  31      19648761 
  31      45EBF9EE 
  31      A3DE26DE 
  31      5D08
  32 0092 1ACBFA7B 		.ascii	"\032\313\372{\030\"\372\2748\2160J#\0342\037N\330o\226"
  32      1822FABC 
  32      388E304A 
  32      231C321F 
  32      4ED86F96 
  33 00a6 A83F7D3E 		.ascii	"\250?}>\333\326\215 \014O'\345,\006\017\326\337\256"
  33      DBD68D20 
  33      0C4F27E5 
  33      2C060FD6 
  33      DFAE
  34 00b8 2071EBDF 		.ascii	" q\353\337\302p\300G\231\254T\360pfv\360\346\362\324"
  34      C270C047 
  34      99AC54F0 
  34      706676F0 
  34      E6F2D4
  35 00cb 9CFE4112 		.ascii	"\234\376A\022}T\011\025\276\377g\205\363\372\325\023"
  35      7D540915 
  35      BEFF6785 
  35      F3FAD513 
  36 00db 9D35AD90 		.ascii	"\2355\255\220\211\353\004\315\231\333\375\362\376\247"
  36      89EB04CD 
  36      99DBFDF2 
  36      FEA7
  37 00e9 54424E70 		.ascii	"TBNpg}aP\357\227r\004\270x\000\363\245\010\272a\370"
  37      677D6150 
  37      EF977204 
  37      B87800F3 
  37      A508BA61 
  38 00fe A2B9B6BD 		.ascii	"\242\271\266\275\204G\016!P\333\005V\020$\224\361)\016"
  38      84470E21 
  38      50DB0556 
  38      102494F1 
  38      290E
  39 0110 83A20838 		.ascii	"\203\242\0108\354R\274\226&\2472<\315\362(GP\314\363"
  39      EC52BC96 
  39      26A7323C 
  39      CDF22847 
  39      50CCF3
  40 0123 B4C0AE08 		.ascii	"\264\300\256\010\346\324\010\337\320zn\310f0\332\311"
  40      E6D408DF 
ARM GAS  /tmp/ccT7YWlu.s 			page 3


  40      D07A6EC8 
  40      6630DAC9 
  41 0133 CE197F9E 		.ascii	"\316\031\177\236\357\242\334\200\251\316\356v[\224\361"
  41      EFA2DC80 
  41      A9CEEE76 
  41      5B94F1
  42 0142 39DD410F 		.ascii	"9\335A\017\245\307a\212n\265\350\302EQ5\002'|L\335\203"
  42      A5C7618A 
  42      6EB5E8C2 
  42      45513502 
  42      277C4CDD 
  43 0157 25129E26 		.ascii	"%\022\236&\024o\3001\262\3070\332\000\2236\363\021\305"
  43      146FC031 
  43      B2C730DA 
  43      009336F3 
  43      11C5
  44 0169 F91B25E2 		.ascii	"\371\033%\342\264\341\315\227z1\256\342\355\001\300"
  44      B4E1CD97 
  44      7A31AEE2 
  44      ED01C0
  45 0178 EA93565F 		.ascii	"\352\223V_\353C\357x\004Iq\026IM\265\206\265\010\253"
  45      EB43EF78 
  45      04497116 
  45      494DB586 
  45      B508AB
  46 018b 2C766BB7 		.ascii	",vk\267\027\304\252\323F\202\372\275\004\321\247z5\027"
  46      17C4AAD3 
  46      4682FABD 
  46      04D1A77A 
  46      3517
  47 019d 5132B1EA 		.ascii	"Q2\261\352\272\326\372\342\237\225o\300\364\255\351"
  47      BAD6FAE2 
  47      9F956FC0 
  47      F4ADE9
  48 01ac C771A9AC 		.ascii	"\307q\251\254\307\310\214I\327Y\035\260\341\275,i\037"
  48      C7C88C49 
  48      D7591DB0 
  48      E1BD2C69 
  48      1F
  49 01bd 338418B5 		.ascii	"3\204\030\265\177\004\231\2079[wq\247\033g\310\217\300"
  49      7F049987 
  49      395B7771 
  49      A71B67C8 
  49      8FC0
  50 01cf 33021F3E 		.ascii	"3\002\037>\260gT\371\206\214X\005\"2(\205v+g\354B\262"
  50      B06754F9 
  50      868C5805 
  50      22322885 
  50      762B67EC 
  51 01e5 5C4437A4 		.ascii	"\\D7\244Vk\347X\224\260h\032\274\177\006\304\220\035"
  51      566BE758 
  51      94B0681A 
  51      BC7F06C4 
  51      901D
  52 01f7 A8D3CE2E 		.ascii	"\250\323\316.q\313\336\231\241g\023|\004\244\023\221"
  52      71CBDE99 
  52      A167137C 
ARM GAS  /tmp/ccT7YWlu.s 			page 4


  52      04A41391 
  53 0207 5F9B4789 		.ascii	"_\233G\211\247\356\277.\360\325\242\025n\355\311R\311"
  53      A7EEBF2E 
  53      F0D5A215 
  53      6EEDC952 
  53      C9
  54 0218 8D9F2B55 		.ascii	"\215\237+U\367ry\322\235\364\307\334\352\365k\023\345"
  54      F77279D2 
  54      9DF4C7DC 
  54      EAF56B13 
  54      E5
  55 0229 4AD5AD4C 		.ascii	"J\325\255LT\366\206\245q\220\225\352\325\237j~\024\203"
  55      54F686A5 
  55      719095EA 
  55      D59F6A7E 
  55      1483
  56              		.text
  57              		.section	.gnu.lto_get.c0d1d754b27eec5c,"",%progbits
  58 0000 789CB553 		.ascii	"x\234\265SKh\024A\020\255\352\356\331\377\372\001Qr"
  58      4B681441 
  58      10ADEAEE 
  58      D9FFFA01 
  58      5172
  59 0012 0B398991 		.ascii	"\0139\211\221\035\004\357\236\275y0\020\217\2731\254"
  59      1D04EF9E 
  59      BD793010 
  59      8FBB31AC 
  60 0022 03191457 		.ascii	"\003\031\024W\317\333\233\335HP\362!\344\020?\207\344"
  60      CFDB9BDD 
  60      4850F221 
  60      E4103F87 
  60      E4
  61 0033 E687A018 		.ascii	"\346\207\240\030\"A\021\346 \313b\022PD\214\361\262"
  61      224111E6 
  61      20CB6212 
  61      50448CF1 
  61      B2
  62 0044 8210D883 		.ascii	"\202\020\330\203\344\230Cp\254\352\311\214AV3\010\026"
  62      E4984370 
  62      ACEAC98C 
  62      41563308 
  62      16
  63 0055 BB3DDDD5 		.ascii	"\273=\335\325\357U\275\252\356\026 \340w\263\351\277"
  63      EF55BDAA 
  63      EE1620E0 
  63      77B3E9BF 
  64 0065 AB00CEF2 		.ascii	"\253\000\316\362\"\001H\010\024B\002hA^\255$Z\344Qf"
  64      22014808 
  64      14420268 
  64      415EAD24 
  64      5AE45166 
  65 0079 B4100984 		.ascii	"\264\020\011\204P\025RYX\275\304+\310\364\301\202\326"
  65      50155259 
  65      58BDC42B 
  65      C8F4C182 
  65      D6
  66 008a 33EDB1CE 		.ascii	"3\355\261\316;\274;\3535\346\365\256\357#:\2749\204"
ARM GAS  /tmp/ccT7YWlu.s 			page 5


  66      3BBC3BEB 
  66      35E6F5AE 
  66      EF233ABC 
  66      3984
  67 009c 304833EC 		.ascii	"0H3\3545\037\016\270\337\002\242\376\362\355BK7<\337"
  67      351F0EB8 
  67      DF02A2FE 
  67      F2ED424B 
  67      373CDF
  68 00af 3F179733 		.ascii	"?\027\2273\347}h\276]@\342\326\266}\377\260\2032^*\357"
  68      E77D68BE 
  68      5D40E2D6 
  68      B67DFFB0 
  68      83325E2A 
  69 00c4 E3ADC99E 		.ascii	"\343\255\311\236\333\363\243\323\372\007ItP\3757\205"
  69      DBF3A3D3 
  69      FA074974 
  69      50FD3785 
  70 00d4 33FAF943 		.ascii	"3\372\371C\2356\255\220\261\363x\237\232S\373\345\375"
  70      9D36AD90 
  70      B1F3789F 
  70      9A53FBE5 
  70      FD
  71 00e5 4BAA981C 		.ascii	"K\252\230\034\357Us\342\204n\3530\225%\300\306\210\231"
  71      EF5573E2 
  71      846EEB30 
  71      9525C0C6 
  71      8899
  72 00f7 0A98D895 		.ascii	"\012\230\330\225\371\2729\333\243\177\211L\0108\203"
  72      F9BA39DB 
  72      A37F894C 
  72      083883
  73 0106 07E47C2A 		.ascii	"\007\344|*\274\266\357\257-m\177]\304\243\207\020\350"
  73      BCB6EFAF 
  73      2D6D7F5D 
  73      C4A38710 
  73      E8
  74 0117 C004BA08 		.ascii	"\300\004\272\010\022\212\370\004\373@\221\007,\036\022"
  74      128AF804 
  74      FB409107 
  74      2C1E12
  75 0126 BC97A441 		.ascii	"\274\227\244A\245x\231\346Y\206P\217\010\225eO\216\207"
  75      A57899E6 
  75      5986508F 
  75      0895654F 
  75      8E87
  76 0138 3C982327 		.ascii	"<\230#'JC\353\351\336`;\010e\312'\273h\306\001\276\316"
  76      4A43EBE9 
  76      DE603B08 
  76      65CA27BB 
  76      68C601BE 
  77 014d 721D4657 		.ascii	"r\035FW7\266Z\242\210\213t\215\313(\313\354&\357\346"
  77      37B65AA2 
  77      888B748D 
  77      CB28CBEC 
  77      26EFE6
  78 0160 1CDDD9D0 		.ascii	"\034\335\331\320\253\372\341\224\203\311\373p\217*H"
ARM GAS  /tmp/ccT7YWlu.s 			page 6


  78      ABFAE194 
  78      83C9FB70 
  78      8F2A48
  79 016f 118A2B49 		.ascii	"\021\212+I\030\375\245\250\023Lz\226\015)\326\337(!"
  79      18FDA5A8 
  79      134C7A96 
  79      0D29D6DF 
  79      2821
  80 0181 A7056FB6 		.ascii	"\247\005o\266j\371(K\231_Rh\003\\\006\353[Y\351\234"
  80      6AF9284B 
  80      995F5268 
  80      035C06EB 
  80      5B59E99C 
  81 0195 0C21098E 		.ascii	"\014!\011\216\"\251\273\201a5\304\252\000\273\271\321"
  81      22A9BB81 
  81      6135C4AA 
  81      00BBB9D1 
  82 01a5 6947AA93 		.ascii	"iG\252\223F\202\352.AtU\235\212T\327\264\3267\377\254"
  82      4682EA2E 
  82      4174559D 
  82      8A54D7B4 
  82      D637FFAC 
  83 01b9 7C1DEA77 		.ascii	"|\035\352w\352/\242Ti\312Fl\023\356\345\330\361\320"
  83      EA2FA254 
  83      69CA466C 
  83      13EEE5D8 
  83      F1D0
  84 01cb 9DD90B44 		.ascii	"\235\331\013D\317\320\"\320`\360\256\242\274;\235\235"
  84      CFD022D0 
  84      60F0AEA2 
  84      BC3B9D9D 
  85 01db 2842B61F 		.ascii	"(B\266\037\036\023\362\310\201=\243\314\3432d\345\210"
  85      1E13F2C8 
  85      813DA3CC 
  85      E33264E5 
  85      88
  86 01ec C8A02406 		.ascii	"\310\240$\006!\317\007\033\361b\021\335\220\276\327"
  86      21CF071B 
  86      F16211DD 
  86      90BED7
  87 01fb 9726A288 		.ascii	"\227&\242\210yR\0356\225NC\256B\215\312\272\314\224"
  87      79521D36 
  87      954E43AE 
  87      428DCABA 
  87      CC94
  88 020d F7665A0E 		.ascii	"\367fZ\016\330\237\001\3518\344\203\345c\304Qk\3139"
  88      D89F01E9 
  88      38E483E5 
  88      63C4516B 
  88      CB39
  89 021f BE57B4C3 		.ascii	"\276W\264\303}=](\330\321\357j\305\276R\034\261G\234"
  89      7D3D5D28 
  89      D8D1EF6A 
  89      C5BE521C 
  89      B1479C
  90 0232 925DB971 		.ascii	"\222]\271q}\270\350Vlw\330\335\233\026\206\000K\322"
  90      7DB8E856 
ARM GAS  /tmp/ccT7YWlu.s 			page 7


  90      6C77D8DD 
  90      9B168600 
  90      4BD2
  91 0244 AD5CFB09 		.ascii	"\255\\\373\011w\206&<"
  91      7786263C 
  92              		.text
  93              		.section	.gnu.lto_writes.c0d1d754b27eec5c,"",%progbits
  94 0000 789C9D93 		.ascii	"x\234\235\223\317k\023Q\020\307g\336\333l~\377\250\210"
  94      CF6B1351 
  94      10C767DE 
  94      DB6C7EFF 
  94      A888
  95 0012 E0454A8F 		.ascii	"\340EJ\217V\262\340?\340\331\233\207\026\364\230\306"
  95      56B2E03F 
  95      E0D99B87 
  95      16F498C6 
  96 0022 BA06BA28 		.ascii	"\272\006\272(F\360\340!/M\017\361\027\004O\222\036l"
  96      46F0E021 
  96      2F4D0FF1 
  96      17044F92 
  96      1E6C
  97 0034 0F15D1A2 		.ascii	"\017\025\321\242\240\227z2\007\017)\241\250H\251M\021"
  97      A0977A32 
  97      070F29A1 
  97      A848A94D 
  97      11
  98 0045 72D09B05 		.ascii	"r\320\233\005{\221\"\342sf7\273]D\352\232G2\373\336"
  98      7B9122E2 
  98      736637BB 
  98      5D44EA9A 
  98      4732FBDE 
  99 0059 BCF9CC7C 		.ascii	"\274\371\314|\337\274]\001\002\376\034\026\3757c\000"
  99      DFBC5D01 
  99      02FE1C16 
  99      FD376300 
 100 0069 A7796102 		.ascii	"\247ya\002R\004\012!\001\2240\310\030\022\351\201\006"
 100      52040A21 
 100      019430C8 
 100      1812E981 
 100      06
 101 007a 5208C610 		.ascii	"R\010\306\020)\010\241&\244\021\303\332\005^Af\002\226"
 101      2908A126 
 101      A411C3DA 
 101      055E4166 
 101      0296
 102 008c 95BA3F58 		.ascii	"\225\272?Xi\337;~{i\276\245~i\215\025\336*#\234\247"
 102      69DF3B7E 
 102      7B69BEA5 
 102      7E698D15 
 102      DE2A239C 
 103 00a1 198EBB0F 		.ascii	"\031\216\273\017N\027\036\036\246>}>\327U\013\035\255"
 103      4E171E1E 
 103      A63E7D3E 
 103      D7550B1D 
 103      AD
 104 00b2 CF44673E 		.ascii	"\317Dg>\374?\323\331\334\353.#\261\365oZ\347\243\227"
 104      FC3FD3D9 
ARM GAS  /tmp/ccT7YWlu.s 			page 8


 104      DCEB2E23 
 104      B1F56F5A 
 104      E7A397
 105 00c5 DA1BA1D4 		.ascii	"\332\033\241\324\326\253\365p)\031\261\324\313\021:"
 105      D6ABF570 
 105      2919B1D4 
 105      CB113A
 106 00d4 F1E2B14A 		.ascii	"\361\342\261J.\251\237Z\313\012\337S$y\333\243u\"\\"
 106      2EA99F5A 
 106      CB0ADF53 
 106      2479DBA3 
 106      75225C
 107 00e7 2A1AD3EE 		.ascii	"*\032\323\356\354l\334M\265\352M\245u\255\302oP$}\257"
 107      EC6CDC4D 
 107      B5EA4DA5 
 107      75ADC26F 
 107      50247DAF 
 108 00fb 57D643F2 		.ascii	"W\326C\362L\001\026\376\003|.:\003\255\277>}\370\375"
 108      4C0116FE 
 108      037C2E3A 
 108      03ADBF3E 
 108      7DF8FD
 109 010e D8110407 		.ascii	"\330\021\004\007A\240\203\324\367\022\256\342\004\030"
 109      41A083D4 
 109      F712AEE2 
 109      0418
 110 011c 4082636C 		.ascii	"@\202clL6q\332\203\004\317\222lR\034\237\246\231\314"
 110      4C3671DA 
 110      8304CF92 
 110      6C521C9F 
 110      A699CC
 111 012f F0324BC6 		.ascii	"\3602K\306\310Q\210\310\363\262\300f\014\\\361\224c"
 111      C85188C8 
 111      F3B2C066 
 111      0C5CF194 
 111      63
 112 0140 41A9D6B8 		.ascii	"A\251\326\270\227\325=\014\215)\327N\363w#7`\276\267"
 112      97D53D0C 
 112      8D29D74E 
 112      F3772337 
 112      60BEB7
 113 0153 BF75B484 		.ascii	"\277u\264\204\317(\336Fi\263\227\234\375\265v\326w\032"
 113      CF28DE46 
 113      69B3979C 
 113      FDB576D6 
 113      771A
 114 0165 937092D2 		.ascii	"\223p\222\322-B\233\016\022\247 >\220\351\036c\006\375"
 114      2D429B0E 
 114      12A7203E 
 114      90E91E63 
 114      06FD
 115 0177 0331F32E 		.ascii	"\0031\363.\355#\261\303\020\014\220\306\255\306#\364"
 115      ED23B1C3 
 115      100C90C6 
 115      ADC623F4 
 116 0187 19932AD9 		.ascii	"\031\223*\331\254\272\013o\276\324\263!w\374\240o\323"
 116      ACBA0B6F 
ARM GAS  /tmp/ccT7YWlu.s 			page 9


 116      BED4B321 
 116      77FCA06F 
 116      D3
 117 0198 FC6EB2EA 		.ascii	"\374n\262\352\376\307v\316\017ID\025\330\012\220dd\201"
 117      FEC776CE 
 117      0F494415 
 117      D80A9064 
 117      6481
 118 01aa 277C2445 		.ascii	"'|$E\205\010\364u\030C\035\373\375 i\332M*\377\236T"
 118      8508F475 
 118      18431DFB 
 118      FD2069DA 
 118      4D2AFF9E 
 119 01bf 84741C34 		.ascii	"\204t\0344*\023\350\250+\245n\034\252\345N\343\222\217"
 119      2A13E8A8 
 119      2BA56E1C 
 119      AAE54EE3 
 119      928F
 120 01d1 65A918C1 		.ascii	"e\251\030\301\000o\301\364|\0007\341\207j\252B\005\023"
 120      006FC1F4 
 120      7C0037E1 
 120      876AAA42 
 120      0513
 121 01e3 E521E5C6 		.ascii	"\345!\345\306\345l\244tI\257\360\203\305@l~\022\236"
 121      E56CA474 
 121      49AFF083 
 121      C5406C7E 
 121      129E
 122 01f5 50C94294 		.ascii	"P\311B\224.4\245O\025\010\264y\213\262\235\365\234\321"
 122      2E34A54F 
 122      1508B479 
 122      8BB29DF5 
 122      9CD1
 123 0207 F210EA42 		.ascii	"\362\020\352B\275\265\235\340\306\307los\033\220.Y\220"
 123      BDB59DE0 
 123      C6C76C6F 
 123      731B902E 
 123      5990
 124 0219 49C9D55D 		.ascii	"I\311\325]\344\356\322\201d\017\352\011\200\213|\343"
 124      E4EED281 
 124      640FEA09 
 124      808B7CE3 
 125 0229 EFA13ED8 		.ascii	"\357\241>\3305\003\316\0236\3054\267\365T\261h\005\277"
 125      3503CE13 
 125      36C534B7 
 125      F554B168 
 125      05BF
 126 023b 2B55EB72 		.ascii	"+U\353ri\316\232\253\314X\325\353\327fKN\325rf\235\341"
 126      69CE9AAB 
 126      CC58D5EB 
 126      D7664B4E 
 126      D572669D 
 127 0250 B45806E9 		.ascii	"\264X\006\351T\257\376\006\200\265Bi"
 127      54AFFE06 
 127      80B54269 
 128              		.text
 129              		.section	.gnu.lto_reads.c0d1d754b27eec5c,"",%progbits
ARM GAS  /tmp/ccT7YWlu.s 			page 10


 130 0000 789C9D93 		.ascii	"x\234\235\223\317k\023Q\020\307g\336\333l~\377\250x"
 130      CF6B1351 
 130      10C767DE 
 130      DB6C7EFF 
 130      A878
 131 0012 D08B941E 		.ascii	"\320\213\224\036\255d\301\177\300\2637\017-\3501\215"
 131      AD64C17F 
 131      C0B3370F 
 131      2DE8318D 
 132 0022 750D7451 		.ascii	"u\015tQ\2147\017yiz\210\265B\360$-\324V\020DDE/=\346"
 132      8C370F79 
 132      697A88B5 
 132      42F0242D 
 132      D4561044 
 133 003b 2092124B 		.ascii	" \222\022K\355E\264\202\311\301\036<Y\361R\177\324\347"
 133      ED45B482 
 133      C9C11E3C 
 133      59F1527F 
 133      D4E7
 134 004d CC6E765D 		.ascii	"\314nv]D\352\232G2\373\336\274\371\314|\337\274]\001"
 134      44EA9A47 
 134      32FBDEBC 
 134      F9CC7CDF 
 134      BC5D01
 135 0060 02FE1C16 		.ascii	"\002\376\034\026\375_\307\000N\362\302\004\244\010\024"
 135      FD5FC700 
 135      4EF2C204 
 135      A40814
 136 006f 42022861 		.ascii	"B\002(a\2201$\322\003\015\244\020\214!R\020BMH#\206"
 136      903124D2 
 136      030DA410 
 136      8C215210 
 136      424D4823 
 137 0084 B573BC82 		.ascii	"\265s\274\202\314\030\254*u\253\277\263|\363\350\374"
 137      CC18AC2A 
 137      75ABBFB3 
 137      7CF3E8FC 
 138 0094 CA6C4BFD 		.ascii	"\312lK\375\324\032+\274UF8K3\034u\037\234.<<L\275\373"
 138      D41A2BBC 
 138      5546384B 
 138      331C751F 
 138      9C2E3C3C 
 139 00ab 70A6A3E6 		.ascii	"p\246\243\346\332Z\237\212\316l\375?\323\376\372\271"
 139      DA5A9F8A 
 139      CE6CFD3F 
 139      D3FEFAB9 
 140 00bb B38AC4D6 		.ascii	"\263\212\304\326w\265\316G/\325\033\242\324\367\217"
 140      77B5CE47 
 140      2FD51BA2 
 140      D4F78F
 141 00ca EBE15232 		.ascii	"\353\341R2b\251gCt\342\351}\225\\Q?\264\226\025\276"
 141      62A96743 
 141      74E2E97D 
 141      955C513F 
 141      B49615BE 
 142 00de A748F2F6 		.ascii	"\247H\362\366\367\207\352D\270T4f\261\2557\026R\255"
 142      F787EA44 
ARM GAS  /tmp/ccT7YWlu.s 			page 11


 142      B8543466 
 142      B1AD3716 
 142      52AD
 143 00f0 7A53695D 		.ascii	"zSi]\253\360\033\024I\337\227{\353!y\246\000\013\377"
 143      ABF01B14 
 143      49DF977B 
 143      EB2179A6 
 143      000BFF
 144 0103 013E16ED 		.ascii	"\001>\026\355\276\326\013\233K/\216\340!\004\007A\240"
 144      BED60B9B 
 144      4B2F8EE0 
 144      21040741 
 144      A0
 145 0114 83D4F812 		.ascii	"\203\324\370\022>\30410\200\024\307\330\230l\342\264"
 145      3EC43130 
 145      8014C7D8 
 145      986CE2B4 
 146 0124 07099E25 		.ascii	"\007\011\236%\331\2448>M3\231\341e\226\214\221\243\020"
 146      D9A4383E 
 146      4D3399E1 
 146      65968C91 
 146      A310
 147 0136 91E76581 		.ascii	"\221\347e\201\315\010\270\352)\307\234R\255Q/\253{\032"
 147      CD08B8EA 
 147      29C79C52 
 147      AD512FAB 
 147      7B1A
 148 0148 1A13AE9D 		.ascii	"\032\023\256\235\344\017Gn\300lw\355\375\341\022>\242"
 148      E40F476E 
 148      C06C77ED 
 148      FDE1123E 
 148      A2
 149 0159 781BA5CD 		.ascii	"x\033\245\315^rn\357-g}\2471\016\307)\335\022,\322I"
 149      5E726EEF 
 149      2D677DA7 
 149      310EC729 
 149      DD122CD2 
 150 016e E214C427 		.ascii	"\342\024\304'2\335sL\241\177\"f\236\244}$v\020\202\001"
 150      32DD734C 
 150      A17F2266 
 150      9EA47D24 
 150      76108201 
 151 0182 D2B8DEB8 		.ascii	"\322\270\336\270\213>cR%\233Uw\340\371N=\033r\307\177"
 151      8B3E6352 
 151      259B5577 
 151      E0F94E3D 
 151      1B72C77F 
 152 0196 376E925F 		.ascii	"7n\222_NV\275}\373N\316\017ID\025\270\033\010LF\026"
 152      4E56BD7D 
 152      FB4ECE0F 
 152      494415B8 
 152      1B084C46 
 153 01ab 78CC4752 		.ascii	"x\314GRT\210@_\2071\320\261\326\013\272\227v\223\312"
 153      5488405F 
 153      8731D0B1 
 153      D60BBA97 
 153      7693CA
ARM GAS  /tmp/ccT7YWlu.s 			page 12


 154 01be BF271521 		.ascii	"\277'\025!\035\257\002\351\231@G])U;P\313\215\306\005"
 154      1DAF02E9 
 154      9940475D 
 154      29553B50 
 154      CB8DC605 
 155 01d2 1FCB5231 		.ascii	"\037\313R1\202\0016\301\364|\000\327\340\233j\252B\005"
 155      820136C1 
 155      F47C00D7 
 155      E09B6AAA 
 155      4205
 156 01e4 13E50165 		.ascii	"\023\345\001ec\316\015\245tI\257\360\233^\336O\221\037"
 156      63CE0DA5 
 156      7449AFF0 
 156      9B5EDE4F 
 156      911F
 157 01f6 870754B2 		.ascii	"\207\007T\262\020\245\013M\351S\005\002m\336\242l\247"
 157      10A50B4D 
 157      E9530502 
 157      6DDEA26C 
 157      A7
 158 0207 3D67B43C 		.ascii	"=g\264<\204\272Pw\257\027\334\370\210\355m\276\005\244"
 158      84BA5077 
 158      AF17DCF8 
 158      88ED6DBE 
 158      05A4
 159 0219 4B166452 		.ascii	"K\026dR\362\345'\344\356\322\201d\027\352\011\200\363"
 159      F2E527E4 
 159      EED28164 
 159      17EA0980 
 159      F3
 160 022a 7CE35B50 		.ascii	"|\343[P\357k3\340<a\023Ls[O\024\213V\360\273T\265.\226"
 160      EF6B33E0 
 160      3C61134C 
 160      735B4F14 
 160      8B56F0BB 
 161 0242 66AC99CA 		.ascii	"f\254\231\312\224U\275ze\272\344T-g\332\031L\213e\220"
 161      9455BD7A 
 161      65BAE454 
 161      2D67DA19 
 161      4C8B6590 
 162 0256 4EF5F22F 		.ascii	"N\365\362/\266:D\007"
 162      B63A4407 
 163              		.text
 164              		.section	.gnu.lto_msObjectInit.c0d1d754b27eec5c,"",%progbits
 165 0000 789C8D8F 		.ascii	"x\234\215\217\261K\0031\024\306\277/\271\033\335\334"
 165      B14B0331 
 165      14C6BF2F 
 165      B91BDDDC 
 166 0010 151C95CB 		.ascii	"\025\034\225\313\037c\205:^K\251\007\015\202\347\326"
 166      1F63853A 
 166      5E4BA907 
 166      0D82E7D6 
 167 0020 A1D10A6E 		.ascii	"\241\321\012n\342x(\016\256\016\325\261\243\2738\270"
 167      E278280E 
 167      AE0ED5B1 
 167      A3BB38B8 
 168 0030 B9D9DD5D 		.ascii	"\271\331\335]K\021\332\227\344t\250\035\372H^^\036\337"
ARM GAS  /tmp/ccT7YWlu.s 			page 13


 168      4B11DA97 
 168      E474A81D 
 168      FA485E5E 
 168      1EDF
 169 0042 EF4B9E82 		.ascii	"\357K\236\202\302rl\312\256\010d\376\242AQPQ\032 \006"
 169      C2726CCA 
 169      AE0864FE 
 169      A2415150 
 169      511A2006 
 170 0056 8A834306 		.ascii	"\212\203C\006\331\243z\236\314\347\243\247\313\321\017"
 170      D9A37A9E 
 170      CCE7A3A7 
 170      CBD10F
 171 0065 EF544A5A 		.ascii	"\357TJZBI\242\226\244\022IZT).\234\273\336\006\332\201"
 171      4249A296 
 171      A412495A 
 171      54292E9C 
 171      BBDE06DA 
 172 007a 6A847CE0 		.ascii	"j\204|\340=\365+\316g\303\317\253\255\234\367L\261\213"
 172      3DF52BCE 
 172      67C3CFAB 
 172      AD9CF74C 
 172      B18B
 173 008c 0727B151 		.ascii	"\007'\261Q\020\267\270aAv\311\246\234\361\203\255\370"
 173      10B7B861 
 173      4176C9A6 
 173      9CF183AD 
 173      F8
 174 009d 28FA98B9 		.ascii	"(\372\230\271\312\271}\221Y&\241%>/\323\257)\227}\364"
 174      CAB97D91 
 174      5926A125 
 174      3E2FD3AF 
 174      29977DF4 
 175 00b1 6A9F68D4 		.ascii	"j\237h\324\365wOV\337\377\311d5\251jRGr\274>\251k2\011"
 175      F5774F56 
 175      DFFFC964 
 175      35A96A52 
 175      4772BC3E 
 176 00c9 E4F87D7D 		.ascii	"\344\370}}2\216\350;\241z\303\331\344c'\262\277\321"
 176      328EE83B 
 176      A17AC3D9 
 176      E46327B2 
 176      BFD1
 177 00db F02379FD 		.ascii	"\360#y\375^\226\231\277u\\\232\243\274gzE\313\224\247"
 177      5E9699BF 
 177      755C9AA3 
 177      BC677A45 
 177      CB94A7
 178 00ee 279DDC96 		.ascii	"'\235\334\226\306vl]fm,\000\300\031f\300"
 178      C6766C5D 
 178      666D2C00 
 178      C01966C0 
 179              		.text
 180              		.section	.gnu.lto_.symbol_nodes.c0d1d754b27eec5c,"",%progbits
 181 0000 789C4DC8 		.ascii	"x\234M\310\271\021\2000\020CQ\255\026\323\006\265\321"
 181      B9118030 
 181      104351AD 
ARM GAS  /tmp/ccT7YWlu.s 			page 14


 181      16D306B5 
 181      D1
 182 0011 020DC811 		.ascii	"\002\015\310\021\003\2319\313\"bh\200\224\"\010\354"
 182      039939CB 
 182      22626880 
 182      942208EC 
 183 0021 C04AFE3C 		.ascii	"\300J\376<\021\304\2002\256\024\220.@\272\347\236\033"
 183      11C48032 
 183      AE14902E 
 183      40BAE79E 
 183      1B
 184 0032 651513C5 		.ascii	"e\025\023\305\212\013\345\025\017\252)|&\013;\321\312"
 184      8A0BE515 
 184      0FAA297C 
 184      260B3BD1 
 184      CA
 185 0043 EDA4427E 		.ascii	"\355\244B~c4g\213w\374:\367\\\374iv$+"
 185      6334678B 
 185      77FC3AF7 
 185      5CFC6976 
 185      242B
 186              		.text
 187              		.section	.gnu.lto_.refs.c0d1d754b27eec5c,"",%progbits
 188 0000 789C6362 		.ascii	"x\234cb`b\340g\200\000F\026&V\026V&&&f&\006&F\006\000"
 188      6062E067 
 188      80004616 
 188      26561656 
 188      26262666 
 189 001a 032B0037 		.ascii	"\003+\0007"
 190              		.text
 191              		.section	.gnu.lto_.decls.c0d1d754b27eec5c,"",%progbits
 192 0000 789CBD58 		.ascii	"x\234\275X]l\024U\024\276w\366\247]\332`\323\010)\017"
 192      5D6C1455 
 192      14BE77F6 
 192      A75DDA60 
 192      D308290F 
 193 0014 CA82E203 		.ascii	"\312\202\342\003J' \011\274\010\222>P\037\252F\305\370"
 193      4A272009 
 193      BC08923E 
 193      501FAA46 
 193      C5F8
 194 0026 629AE976 		.ascii	"b\232\351v\332\256\331\277\354LE\364\301K!@\032\023"
 194      DAAED9BF 
 194      EC4C45F4 
 194      C14B2140 
 194      1A13
 195 0038 2AC42026 		.ascii	"*\304 &\320\226\202F\210\001J\020\222\002]\250`#\242"
 195      D0968246 
 195      88014A10 
 195      92025DA8 
 195      6023A2
 196 004b 4D9B540B 		.ascii	"M\233T\013b\026R\376%\224\237Z\240\324\365\334;wvg\246"
 196      621652FE 
 196      25949F5A 
 196      A0D4F5DC 
 196      3B777667 
 197 0060 33BB5B1F 		.ascii	"3\273[\037\274\3313{g\346\234\357\234{~\356\271\273"
ARM GAS  /tmp/ccT7YWlu.s 			page 15


 197      BCD9337B 
 197      67E69CEF 
 197      9C7B7EEE 
 197      B9BB
 198 0072 0212D062 		.ascii	"\002\022\320b\001\241\024\014\271\024\241\1770B^\204"
 198      01A1140C 
 198      B914A17F 
 198      30425E84 
 199 0082 D0329419 		.ascii	"\3202\224\031\364\276\035\250\013\350$P?\320E \037\360"
 199      F4BE1DA8 
 199      0BE82450 
 199      3FD04520 
 199      1FF0
 200 0094 C207CDC2 		.ascii	"\302\007\315\302\3104(\257\017\310\0034\035\250\030"
 200      C83428AF 
 200      0FC80334 
 200      1DA818
 201 00a3 A8036810 		.ascii	"\250\003h\020(\011\324\003t\011h?\220\013\350\021\320"
 201      2809D403 
 201      7409683F 
 201      900BE811 
 201      D0
 202 00b4 38D018D2 		.ascii	"8\320\030\322\360\332\371\363\357\201\216\002\315\266"
 202      F0DAF9F3 
 202      EF818E02 
 202      CDB6
 203 00c2 E07765C1 		.ascii	"\340we\301\337o\321\341\342\330\023\006|*\017KF\335"
 203      DF6FD1E1 
 203      E2D81306 
 203      7C2A0F4B 
 203      46DD
 204 00d4 407E0B36 		.ascii	"@~\0136]\3374\0136\305]\3161\223\034w\016\310M\303\223"
 204      5DDF340B 
 204      36C55DCE 
 204      31931C77 
 204      0EC84DC3 
 205 00e9 ED173806 		.ascii	"\355\0278\006\365\215\033\276\177\005\372\031\350\034"
 205      F58D1BBE 
 205      7F05FA19 
 205      E81C
 206 00f7 D05C8BAE 		.ascii	"\320\\\213\256~\007]+\262\3502\256E\340\030\272\256"
 206      7E075D2B 
 206      B2E832AE 
 206      45E018BA 
 206      AE
 207 0108 0B404340 		.ascii	"\013@C@\347\201\236\263\350\272\310\365\\\343\230I\256"
 207      E7819EB3 
 207      E8BAC8F5 
 207      5CE39849 
 207      AE
 208 0119 AB873FBF 		.ascii	"\253\207?\277\3121\365\265Lp_\351r.\270\361\320\334"
 208      CA31F5B5 
 208      4C705FE9 
 208      722EB8F1 
 208      D0DC
 209 012b 002AC093 		.ascii	"\000*\300\223c>\033\355$\211\276\344\351\313#x;I\254"
 209      633E1BED 
ARM GAS  /tmp/ccT7YWlu.s 			page 16


 209      2489BEE4 
 209      E9CB2378 
 209      3B49AC
 210 013e 27904E04 		.ascii	"'\220N\004\243\231\350\013\002\243m\003!X\365\241M\374"
 210      A399E80B 
 210      02A36D03 
 210      2158F5A1 
 210      4DFC
 211 0150 A6B21796 		.ascii	"\246\262\027\226\373\036\226\360t\037\362\263I\261\217"
 211      FB1E96F0 
 211      741FF2B3 
 211      49B18F
 212 015f AD601EDA 		.ascii	"\255`\036\332MHK\262{\317g\257\020R(\341\016\354\203"
 212      4D484BB2 
 212      7BCF67AF 
 212      105228E1 
 212      0EEC83
 213 0172 55D66334 		.ascii	"U\326c4\037}\013\242-\204\354ZbQ\314F\336\320mC?\316"
 213      1F7D0BA2 
 213      2D84EC5A 
 213      6251CC46 
 213      DED06D43 
 214 0188 206E097F 		.ascii	" n\011\177\303\200\267`\214$\3745\236?U\230\344\350"
 214      C380B760 
 214      8C24FC35 
 214      9E3F5598 
 214      E4E8
 215 019a 4F479632 		.ascii	"OG\2262\013\3672\240^\013\220\204\275>\243}\354^g\240"
 215      0BF732A0 
 215      5E0B9084 
 215      BD3EA37D 
 215      EC5E67A0 
 216 01ae 68704B35 		.ascii	"hpK5=\244e\207?\345O\350M\001\372\337\345\354\226I!"
 216      3DA46587 
 216      3FE54FE8 
 216      4D01FADF 
 216      E5EC9649 
 217 01c3 76E1996C 		.ascii	"v\341\231l\346b\211\006\017\226\027\351s\346\250&\222"
 217      E6628906 
 217      0F9617E9 
 217      73E6A826 
 217      92
 218 01d4 DC43CABE 		.ascii	"\334C\312\276\3148\252PG\300\031G\015m\374\356E\346"
 218      CC38AA50 
 218      47C01947 
 218      0D6DFCEE 
 218      45E6
 219 01e6 A8FDCC51 		.ascii	"\250\375\314Q\375v\036\317\013h\264y\247\346\361N\006"
 219      FD761ECF 
 219      0B68B479 
 219      A7E6F14E 
 219      06
 220 01f7 747E92C7 		.ascii	"t~\222\307\261\305\343\330\354\001\366\232OR\346\034"
 220      B1C5E3D8 
 220      EC01F69A 
 220      4F52E61C 
 221 0207 CA8757C2 		.ascii	"\312\207W\302\253\\i\001\001\015[\324?\217:\010\331"
ARM GAS  /tmp/ccT7YWlu.s 			page 17


 221      AB5C6901 
 221      010D5BD4 
 221      3F8F3A08 
 221      D9
 222 0218 92FCE172 		.ascii	"\222\374\341r/&\245\314S\002\272\316x\332\361l[\017"
 222      2F26A5CC 
 222      5302BACE 
 222      78DAF16C 
 222      5B0F
 223 022a 33262E47 		.ascii	"3&.G\266\277_\246{\350\226U\312\344\014\215\013\306"
 223      B6BF5FA6 
 223      7BE89655 
 223      CAE40C8D 
 223      0BC6
 224 023c 0B680F0D 		.ascii	"\013h\017\015\350\361\3417+\2652AYt\361\025\034\306"
 224      E8F1E137 
 224      2BB53241 
 224      5974F115 
 224      1CC6
 225 024e 8271D95A 		.ascii	"\202q\331Z\311&\216\236)nY\233L\245Z\375\246j\325P\235"
 225      C9268E9E 
 225      296E599B 
 225      4CA55AFD 
 225      A66AD550 
 226 0263 72E3984D 		.ascii	"r\343\230MnX\\t\333\326E\344nm%\347>\002\346H\270+\253"
 226      6E585C74 
 226      DBD645E4 
 226      6E6D25E7 
 226      3E02E648 
 227 027a 7F1C16EA 		.ascii	"\177\034\026\352$\304\255;a\273\320\343\023\020\234"
 227      24C4AD3B 
 227      61BBD0E3 
 227      13109C
 228 0289 2DE4492A 		.ascii	"-\344I*\265\316m\26335\345S\367\003\233\007\357\343"
 228      B5CE6DB3 
 228      3335E553 
 228      F7039B07 
 228      EFE3
 229 029b 26909170 		.ascii	"&\220\221p\017\013\327n\301\232\207\036K\036z\314\271"
 229      0F0BD76E 
 229      C19A871E 
 229      4B1E7ACC 
 229      B9
 230 02ac E5F16526 		.ascii	"\345\361e&\264\000\237r.\300S\316\005X\204\2323\026"
 230      B4009F72 
 230      2EC053CE 
 230      0558849A 
 230      3316
 231 02be A78B28E1 		.ascii	"\247\213(\341XD\022>\200\347\345Nt'Kzq\221aMi{z\264"
 231      5844123E 
 231      80E7E54E 
 231      74274B7A 
 231      7191614D 
 232 02d6 5CB4047E 		.ascii	"\\\264\004~\237`[\033\247\267\355\234E\332\004S\360"
 232      9F605B1B 
 232      A7B7ED9C 
 232      45DA0453 
ARM GAS  /tmp/ccT7YWlu.s 			page 18


 232      F0
 233 02e7 4FE6531C 		.ascii	"O\346S\034\335r\245f\201\200:\031\264\263\024\263\223"
 233      DD72A566 
 233      81803A19 
 233      B4B314B3 
 233      93
 234 02f8 8B8D5231 		.ascii	"\213\215R1-H\207s\210\365\030j\252\211t\263T\353\341"
 234      2D488773 
 234      88F5186A 
 234      AA8974B3 
 234      54EBE1
 235 030b A9E624C5 		.ascii	"\251\346$\305=s\3266\325F\344^2\222Jm.\261\224TO\226"
 235      3D73D636 
 235      D546E45E 
 235      32924A6D 
 235      2EB19454 
 236 0321 921AC833 		.ascii	"\222\032\3103\332\332\026\340\20428\225H\035\261\215"
 236      DADA16E0 
 236      84323895 
 236      481DB18D 
 237 0331 1419B394 		.ascii	"\024\031\263\224h\177>Q:H\335M\265K\370\227\034R\203"
 237      687F3E51 
 237      3A48DD4D 
 237      B54BF897 
 237      1C5283
 238 0344 8628FDA6 		.ascii	"\206(\375\246GI\302}9\304\262E\311I\212{\345\367\311"
 238      4749C27D 
 238      39C4B245 
 238      C9498A7B 
 238      E5F7C9
 239 0357 516A4B24 		.ascii	"QjK$Z7\236u\330\020$\274l\206\243\213\3774\007\312\024"
 239      5A379E75 
 239      D81024BC 
 239      6C86A38B 
 239      FF3407CA 
 240 036c 9C52F439 		.ascii	"\234R\3649E\361\033\266\2216\254\003<\215\322\373\310"
 240      45F11BB6 
 240      9136AC03 
 240      3C8DD2FB 
 240      C8
 241 037d F8D6730B 		.ascii	"\370\326s\013Y7\273\204K\001\346\246%\0209a\250\035"
 241      5937BB84 
 241      4B01E6A6 
 241      25103961 
 241      A81D
 242 038f C320AA09 		.ascii	"\303 \252\0111P\222\330q\246\230\236m\350sd\2023\215"
 242      315092D8 
 242      71A6989E 
 242      6DE87364 
 242      82338D
 243 03a2 39A80DEC 		.ascii	"9\250\015\354M\034\334\320\012\345x\012\333\231\017"
 243      4D1CDCD0 
 243      0AE5780A 
 243      DB990F
 244 03b1 0CD8A09A 		.ascii	"\014\330\240\232\244U\227\260\264\031\003km,4\263I\370"
 244      A45597B0 
 244      B419036B 
ARM GAS  /tmp/ccT7YWlu.s 			page 19


 244      6D2C34B3 
 244      49F8
 245 03c3 068BE74D 		.ascii	"\006\213\347M\253\225\343\222_{\232\333\306\211s\305"
 245      AB95E392 
 245      5F7B9ADB 
 245      C68973C5 
 246 03d3 2D9225F9 		.ascii	"-\222%\371\351\246\350\024\231\333\231\344\027\320z"
 246      E9A6E814 
 246      99DB99E4 
 246      17D07A
 247 03e2 17E6EAED 		.ascii	"\027\346\352\355\330\371T\033\234\301\244\234t\022\342"
 247      D8F9541B 
 247      9CC1A49C 
 247      7412E2
 248 03f1 F35A940F 		.ascii	"\363Z\224\017dQ>bT\336<e\345\376\234\312weQ~?\243\\"
 248      64513E62 
 248      54DE3C65 
 248      E5FE9CCA 
 248      7765517E 
 249 0408 EBF33995 		.ascii	"\353\3639\225\027Nm\345\307\262(\0375*?1e\345~K\360"
 249      174E6DE5 
 249      C7B2281F 
 249      352A3F31 
 249      65E57E4B 
 250 041d F5AC90F0 		.ascii	"\365\254\220\360_x\016\\\357\260\353=v}\000\327\364"
 250      5F780E5C 
 250      EFB0EB3D 
 250      767D00D7 
 250      F4
 251 042e 70B2E79A 		.ascii	"p\262\347\2321\022\233Y$\206\377k\032$:\341x$i{\226"
 251      31129B59 
 251      2486FF6B 
 251      1A243AE1 
 251      7824697B 
 252 0443 80B64E19 		.ascii	"\200\266N\031\314&\254zW\372*\037\260\\a\322\301Z\247"
 252      CC26AC7A 
 252      57FA2A1F 
 252      B05C61D2 
 252      C15AA7
 253 0456 0C96C5B2 		.ascii	"\014\226\305\262\216|\300Jl,\263\033\306\215J\302W\330"
 253      8E7CC04A 
 253      6C2CB31B 
 253      C68D4AC2 
 253      57D8
 254 0468 31E42A0B 		.ascii	"1\344*\013\346\030\273>b\327qv\235\310'\274\311Lx\323"
 254      E618BB3E 
 254      62D77176 
 254      9DC827BC 
 254      C94C78D3 
 255 047c FD8DB73D 		.ascii	"\375\215\267=k\277\313\321\377\366\272lO*W\356\367\272"
 255      6BBFCBD1 
 255      FFF6BA6C 
 255      4F2A57EE 
 255      F7BA
 256 048e E147AC5B 		.ascii	"\341G\254[S\005m\222\261]tlLIl9\254hm\360!\253\004g"
 256      53056D92 
 256      B15D746C 
ARM GAS  /tmp/ccT7YWlu.s 			page 20


 256      4C496C39 
 256      AC686DF0 
 257 04a6 31431B4C 		.ascii	"1C\033L\034\334\270C;\034i\255\360q\016Q\266\034\256"
 257      1CDCB843 
 257      3B1C69AD 
 257      F0710E51 
 257      B61CAE
 258 04b9 B135D341 		.ascii	"\2615\323A\237\344#\246\037\251\241\375\255k\303\304"
 258      9FE423A6 
 258      1FA9A1FD 
 258      AD6BC3C4 
 259 04c9 CB7A1DE2 		.ascii	"\313z\035\342r\246\2705\011\223\272f\362@r\354\302\266"
 259      72A6B835 
 259      0993BA66 
 259      F24072EC 
 259      C2B6
 260 04db B2EDE414 		.ascii	"\262\355\344\024\373\211_F\022\373\260\245s\302\231"
 260      FB895F46 
 260      12FBB0A5 
 260      73C299
 261 04ea 60B27616 		.ascii	"`\262v\026\010\001\015\321\277\021\364\233Kp\303\003"
 261      08010DD1 
 261      BF11F49B 
 261      4B70C303 
 262 04fa F42CBAE1 		.ascii	"\364,\272\341\332A\012\255\211\323,8\036\211$\274\302"
 262      DA410AAD 
 262      89D32C38 
 262      1E8924BC 
 262      C2
 263 050b 36E29608 		.ascii	"6\342\226\010\3372E\230+\276g\264\342\261\313\356\017"
 263      DF324598 
 263      2BBE67B4 
 263      E2B1CBEE 
 263      0F
 264 051c 85F4988B 		.ascii	"\205\364\230\213\332I__\362\312\255>\367Z\372\277\006"
 264      DA495F5F 
 264      F2CAAD3E 
 264      F75AFABF 
 264      06
 265 052d 3D2D6058 		.ascii	"=-`X\325u\226\323\1773\207Sx\333\036\2108\013\035\213"
 265      D57596D3 
 265      7F338753 
 265      78DB1E88 
 265      380B1D8B 
 266 0541 D121B229 		.ascii	"\321!\262)\361\252.I\267\266O\320c\002'\367CX\353\\"
 266      F1AA2E49 
 266      B7B64FD0 
 266      630227F7 
 266      4358EB5C 
 267 0555 DA599309 		.ascii	"\332Y\223\011\335\311\274\035\300Zk\321\3168\354\355"
 267      DDC9BC1D 
 267      C05A6BD1 
 267      CE38ECED 
 268 0565 BDCCDBBB 		.ascii	"\275\314\333\273X\333\373\265\337~\354\355\203\314\333"
 268      58DBFBB5 
 268      DF7EECED 
 268      83CCDB
ARM GAS  /tmp/ccT7YWlu.s 			page 21


 269 0574 71AC6DCE 		.ascii	"q\254m\316\332\017&6\374\250\225\306\376\360\031\342"
 269      DA0F2636 
 269      FCA895C6 
 269      FEF019E2 
 270 0584 F7A723DF 		.ascii	"\367\247#\337n\214<\3478\277\201\010B\232\243\313\310"
 270      6E8C3CE7 
 270      38BF8108 
 270      429AA3CB 
 270      C8
 271 0595 61690D34 		.ascii	"ai\0154JN\265\332.\024Yp\377X[\202\323\260'm\024\267"
 271      4A4EB5DA 
 271      2E145970 
 271      FF585B82 
 271      D3B0276D 
 272 05ab 9814F79B 		.ascii	"\230\024\367\233\222\362\245\362r1\375\211*b\203\024"
 272      92F2A5F2 
 272      7231FD89 
 272      2A628314 
 273 05bb 1243C11A 		.ascii	"\022C\301\032QQ\343\262\024V\304\260\034\346\323\362"
 273      5151E3B2 
 273      1456C4B0 
 273      1CE6D3F2 
 274 05cb 005A6261 		.ascii	"\000Zba\216\253b,\032W\025q\305[U\025U\037\211\201h"
 274      8EAB622C 
 274      1A571571 
 274      C55B5515 
 274      551F8981 
 275 05e0 38160CC9 		.ascii	"8\026\014\311qE\\YQ!\006\032\32451Y)o@\236\260R_\255"
 275      71455C59 
 275      5121061A 
 275      D4353159 
 275      296F409E 
 276 05f8 7A57BEBE 		.ascii	"zW\276\276\312_\201\236\021\033\225\270\030\214\004"
 276      CA5F819E 
 276      111B95B8 
 276      188C04
 277 0607 428DB5B2 		.ascii	"B\215\265\262\030\221Wk\352j\203\021\025X\013\340\353"
 277      1891576B 
 277      EA6A8311 
 277      15580BE0 
 277      EB
 278 0618 E545D5EA 		.ascii	"\345E\325\352\002;\256\260\024h\010Fd\261\272V\256\223"
 278      023BAEB0 
 278      14680846 
 278      64B1BA56 
 278      AE93
 279 062a 1A436AB5 		.ascii	"\032Cj\265\256\300W]\315\345\012\032a\262\264Z\205'"
 279      AEC0575D 
 279      CDE50A1A 
 279      61B2B45A 
 279      8527
 280 063c 7CE68A35 		.ascii	"|\346\2125\252B0\206k\\\365\262\272\210\301R\254\372"
 280      AA423086 
 280      6B5CF5B2 
 280      BA88C152 
 280      ACFA
 281 064e 404094E2 		.ascii	"@@\224\342\341\005\221hD^ K5Aqq\371\322\362Ei\225`\021"
ARM GAS  /tmp/ccT7YWlu.s 			page 22


 281      E1059168 
 281      445E204B 
 281      35417171 
 281      F9D2F245 
 282 0666 68016CAF 		.ascii	"h\001l\257\022\374X\006\353W\307\203\252\254\01051\034"
 282      12FC5806 
 282      EB57C783 
 282      AAAC0835 
 282      311C
 283 0678 F180436A 		.ascii	"\361\200Cj\225)\270\256\001\025W\311\341h|\315\333\354"
 283      9529B8AE 
 283      011557C9 
 283      E1687CCD 
 283      DBEC
 284 068a 01BDD166 		.ascii	"\001\275\321f\357V\275\343a\300n\012\351\3720\254zk"
 284      EF56BDE3 
 284      61C06E0A 
 284      E9FA30AC 
 284      7A6B
 285 069c 1AEBEAE4 		.ascii	"\032\353\352\344\270\233ju\311Q\305\033\255\253Sd\265"
 285      B89B6A75 
 285      C951C51B 
 285      ADAB5364 
 285      B5
 286 06ad 38ACBC51 		.ascii	"8\254\274Q\363\201\034P_\213\004UWX\2119\2701\036\214"
 286      F3811C50 
 286      5F8B0455 
 286      57588939 
 286      B8311E8C 
 287 06c1 D45337C2 		.ascii	"\324S7\302\262\"\215\241PA]\304\257\304\344\000^\350"
 287      B2228DA1 
 287      50415DC4 
 287      AFC4E400 
 287      5EE8
 288 06d3 057302B1 		.ascii	"\005s\002\2615\360Bm\210GW\273C\262T\367/\006\245SE"
 288      35F0426D 
 288      884757BB 
 288      43B254F7 
 288      2F06A553 
 289              		.text
 290              		.section	.gnu.lto_.symtab.c0d1d754b27eec5c,"",%progbits
 291 0000 6D734F62 		.ascii	"msObjectInit\000\000\000\000\000\000\000\000\000\000"
 291      6A656374 
 291      496E6974 
 291      00000000 
 291      00000000 
 292 0016 0000DD00 		.ascii	"\000\000\335\000\000\000"
 292      0000
 293              		.text
 294              		.section	.gnu.lto_.opts,"",%progbits
 295 0000 272D6D63 		.ascii	"'-mcpu=cortex-m4' '-mno-thumb-interwork' '-mthumb' "
 295      70753D63 
 295      6F727465 
 295      782D6D34 
 295      2720272D 
 296 0033 272D6767 		.ascii	"'-ggdb' '-O0' '-fomit-frame-pointer' '-falign-funct"
 296      64622720 
ARM GAS  /tmp/ccT7YWlu.s 			page 23


 296      272D4F30 
 296      2720272D 
 296      666F6D69 
 297 0066 696F6E73 		.ascii	"ions=16' '-ffunction-sections' '-fdata-sections' '-"
 297      3D313627 
 297      20272D66 
 297      66756E63 
 297      74696F6E 
 298 0099 666E6F2D 		.ascii	"fno-common' '-flto'\000"
 298      636F6D6D 
 298      6F6E2720 
 298      272D666C 
 298      746F2700 
 299              		.text
 300              		.cfi_sections	.debug_frame
 301              		.section	.text.writes,"ax",%progbits
 302              		.align	2
 303              		.p2align 4,,15
 304              		.thumb
 305              		.thumb_func
 306              		.type	writes, %function
 307              	writes:
 308              	.LFB272:
 309              		.file 1 "../../../../os/hal/lib/streams/memstreams.c"
 310              		.loc 1 46 0
 311              		.cfi_startproc
 312              		@ args = 0, pretend = 0, frame = 24
 313              		@ frame_needed = 0, uses_anonymous_args = 0
 314 0000 00B5     		push	{lr}
 315              		.cfi_def_cfa_offset 4
 316              		.cfi_offset 14, -4
 317 0002 87B0     		sub	sp, sp, #28
 318              		.cfi_def_cfa_offset 32
 319 0004 0390     		str	r0, [sp, #12]
 320 0006 0291     		str	r1, [sp, #8]
 321 0008 0192     		str	r2, [sp, #4]
 322              		.loc 1 47 0
 323 000a 039B     		ldr	r3, [sp, #12]
 324 000c 0593     		str	r3, [sp, #20]
 325              		.loc 1 49 0
 326 000e 059B     		ldr	r3, [sp, #20]
 327 0010 9A68     		ldr	r2, [r3, #8]
 328 0012 059B     		ldr	r3, [sp, #20]
 329 0014 DB68     		ldr	r3, [r3, #12]
 330 0016 D21A     		subs	r2, r2, r3
 331 0018 019B     		ldr	r3, [sp, #4]
 332 001a 9A42     		cmp	r2, r3
 333 001c 05D2     		bcs	.L2
 334              		.loc 1 50 0
 335 001e 059B     		ldr	r3, [sp, #20]
 336 0020 9A68     		ldr	r2, [r3, #8]
 337 0022 059B     		ldr	r3, [sp, #20]
 338 0024 DB68     		ldr	r3, [r3, #12]
 339 0026 D31A     		subs	r3, r2, r3
 340 0028 0193     		str	r3, [sp, #4]
 341              	.L2:
 342              		.loc 1 51 0
ARM GAS  /tmp/ccT7YWlu.s 			page 24


 343 002a 059B     		ldr	r3, [sp, #20]
 344 002c 5A68     		ldr	r2, [r3, #4]
 345 002e 059B     		ldr	r3, [sp, #20]
 346 0030 DB68     		ldr	r3, [r3, #12]
 347 0032 1344     		add	r3, r3, r2
 348 0034 1846     		mov	r0, r3
 349 0036 0299     		ldr	r1, [sp, #8]
 350 0038 019A     		ldr	r2, [sp, #4]
 351 003a FFF7FEFF 		bl	memcpy
 352              		.loc 1 52 0
 353 003e 059B     		ldr	r3, [sp, #20]
 354 0040 DA68     		ldr	r2, [r3, #12]
 355 0042 019B     		ldr	r3, [sp, #4]
 356 0044 1A44     		add	r2, r2, r3
 357 0046 059B     		ldr	r3, [sp, #20]
 358 0048 DA60     		str	r2, [r3, #12]
 359              		.loc 1 53 0
 360 004a 019B     		ldr	r3, [sp, #4]
 361              		.loc 1 54 0
 362 004c 1846     		mov	r0, r3
 363 004e 07B0     		add	sp, sp, #28
 364              		@ sp needed
 365 0050 5DF804FB 		ldr	pc, [sp], #4
 366              		.cfi_endproc
 367              	.LFE272:
 368              		.size	writes, .-writes
 369              		.section	.text.reads,"ax",%progbits
 370              		.align	2
 371              		.p2align 4,,15
 372              		.thumb
 373              		.thumb_func
 374              		.type	reads, %function
 375              	reads:
 376              	.LFB273:
 377              		.loc 1 56 0
 378              		.cfi_startproc
 379              		@ args = 0, pretend = 0, frame = 24
 380              		@ frame_needed = 0, uses_anonymous_args = 0
 381 0000 00B5     		push	{lr}
 382              		.cfi_def_cfa_offset 4
 383              		.cfi_offset 14, -4
 384 0002 87B0     		sub	sp, sp, #28
 385              		.cfi_def_cfa_offset 32
 386 0004 0390     		str	r0, [sp, #12]
 387 0006 0291     		str	r1, [sp, #8]
 388 0008 0192     		str	r2, [sp, #4]
 389              		.loc 1 57 0
 390 000a 039B     		ldr	r3, [sp, #12]
 391 000c 0593     		str	r3, [sp, #20]
 392              		.loc 1 59 0
 393 000e 059B     		ldr	r3, [sp, #20]
 394 0010 DA68     		ldr	r2, [r3, #12]
 395 0012 059B     		ldr	r3, [sp, #20]
 396 0014 1B69     		ldr	r3, [r3, #16]
 397 0016 D21A     		subs	r2, r2, r3
 398 0018 019B     		ldr	r3, [sp, #4]
 399 001a 9A42     		cmp	r2, r3
ARM GAS  /tmp/ccT7YWlu.s 			page 25


 400 001c 05D2     		bcs	.L5
 401              		.loc 1 60 0
 402 001e 059B     		ldr	r3, [sp, #20]
 403 0020 DA68     		ldr	r2, [r3, #12]
 404 0022 059B     		ldr	r3, [sp, #20]
 405 0024 1B69     		ldr	r3, [r3, #16]
 406 0026 D31A     		subs	r3, r2, r3
 407 0028 0193     		str	r3, [sp, #4]
 408              	.L5:
 409              		.loc 1 61 0
 410 002a 059B     		ldr	r3, [sp, #20]
 411 002c 5A68     		ldr	r2, [r3, #4]
 412 002e 059B     		ldr	r3, [sp, #20]
 413 0030 1B69     		ldr	r3, [r3, #16]
 414 0032 1344     		add	r3, r3, r2
 415 0034 0298     		ldr	r0, [sp, #8]
 416 0036 1946     		mov	r1, r3
 417 0038 019A     		ldr	r2, [sp, #4]
 418 003a FFF7FEFF 		bl	memcpy
 419              		.loc 1 62 0
 420 003e 059B     		ldr	r3, [sp, #20]
 421 0040 1A69     		ldr	r2, [r3, #16]
 422 0042 019B     		ldr	r3, [sp, #4]
 423 0044 1A44     		add	r2, r2, r3
 424 0046 059B     		ldr	r3, [sp, #20]
 425 0048 1A61     		str	r2, [r3, #16]
 426              		.loc 1 63 0
 427 004a 019B     		ldr	r3, [sp, #4]
 428              		.loc 1 64 0
 429 004c 1846     		mov	r0, r3
 430 004e 07B0     		add	sp, sp, #28
 431              		@ sp needed
 432 0050 5DF804FB 		ldr	pc, [sp], #4
 433              		.cfi_endproc
 434              	.LFE273:
 435              		.size	reads, .-reads
 436 0054 AFF30080 		.section	.text.put,"ax",%progbits
 436      AFF30080 
 436      AFF30080 
 437              		.align	2
 438              		.p2align 4,,15
 439              		.thumb
 440              		.thumb_func
 441              		.type	put, %function
 442              	put:
 443              	.LFB274:
 444              		.loc 1 66 0
 445              		.cfi_startproc
 446              		@ args = 0, pretend = 0, frame = 16
 447              		@ frame_needed = 0, uses_anonymous_args = 0
 448              		@ link register save eliminated.
 449 0000 84B0     		sub	sp, sp, #16
 450              		.cfi_def_cfa_offset 16
 451 0002 0190     		str	r0, [sp, #4]
 452 0004 0B46     		mov	r3, r1
 453 0006 8DF80330 		strb	r3, [sp, #3]
 454              		.loc 1 67 0
ARM GAS  /tmp/ccT7YWlu.s 			page 26


 455 000a 019B     		ldr	r3, [sp, #4]
 456 000c 0393     		str	r3, [sp, #12]
 457              		.loc 1 69 0
 458 000e 039B     		ldr	r3, [sp, #12]
 459 0010 9A68     		ldr	r2, [r3, #8]
 460 0012 039B     		ldr	r3, [sp, #12]
 461 0014 DB68     		ldr	r3, [r3, #12]
 462 0016 9A42     		cmp	r2, r3
 463 0018 02D1     		bne	.L8
 464              		.loc 1 70 0
 465 001a 6FF00103 		mvn	r3, #1
 466 001e 0DE0     		b	.L9
 467              	.L8:
 468              		.loc 1 71 0
 469 0020 039B     		ldr	r3, [sp, #12]
 470 0022 5A68     		ldr	r2, [r3, #4]
 471 0024 039B     		ldr	r3, [sp, #12]
 472 0026 DB68     		ldr	r3, [r3, #12]
 473 0028 1344     		add	r3, r3, r2
 474 002a 9DF80320 		ldrb	r2, [sp, #3]
 475 002e 1A70     		strb	r2, [r3]
 476              		.loc 1 72 0
 477 0030 039B     		ldr	r3, [sp, #12]
 478 0032 DB68     		ldr	r3, [r3, #12]
 479 0034 5A1C     		adds	r2, r3, #1
 480 0036 039B     		ldr	r3, [sp, #12]
 481 0038 DA60     		str	r2, [r3, #12]
 482              		.loc 1 73 0
 483 003a 0023     		movs	r3, #0
 484              	.L9:
 485              		.loc 1 74 0
 486 003c 1846     		mov	r0, r3
 487 003e 04B0     		add	sp, sp, #16
 488              		@ sp needed
 489 0040 7047     		bx	lr
 490              		.cfi_endproc
 491              	.LFE274:
 492              		.size	put, .-put
 493 0042 00BFAFF3 		.section	.text.get,"ax",%progbits
 493      0080AFF3 
 493      0080AFF3 
 493      0080
 494              		.align	2
 495              		.p2align 4,,15
 496              		.thumb
 497              		.thumb_func
 498              		.type	get, %function
 499              	get:
 500              	.LFB275:
 501              		.loc 1 76 0
 502              		.cfi_startproc
 503              		@ args = 0, pretend = 0, frame = 16
 504              		@ frame_needed = 0, uses_anonymous_args = 0
 505              		@ link register save eliminated.
 506 0000 84B0     		sub	sp, sp, #16
 507              		.cfi_def_cfa_offset 16
 508 0002 0190     		str	r0, [sp, #4]
ARM GAS  /tmp/ccT7YWlu.s 			page 27


 509              		.loc 1 78 0
 510 0004 019B     		ldr	r3, [sp, #4]
 511 0006 0393     		str	r3, [sp, #12]
 512              		.loc 1 80 0
 513 0008 039B     		ldr	r3, [sp, #12]
 514 000a DA68     		ldr	r2, [r3, #12]
 515 000c 039B     		ldr	r3, [sp, #12]
 516 000e 1B69     		ldr	r3, [r3, #16]
 517 0010 9A42     		cmp	r2, r3
 518 0012 02D1     		bne	.L11
 519              		.loc 1 81 0
 520 0014 6FF00103 		mvn	r3, #1
 521 0018 0EE0     		b	.L12
 522              	.L11:
 523              		.loc 1 82 0
 524 001a 039B     		ldr	r3, [sp, #12]
 525 001c 5A68     		ldr	r2, [r3, #4]
 526 001e 039B     		ldr	r3, [sp, #12]
 527 0020 1B69     		ldr	r3, [r3, #16]
 528 0022 1344     		add	r3, r3, r2
 529 0024 1B78     		ldrb	r3, [r3]
 530 0026 8DF80B30 		strb	r3, [sp, #11]
 531              		.loc 1 83 0
 532 002a 039B     		ldr	r3, [sp, #12]
 533 002c 1B69     		ldr	r3, [r3, #16]
 534 002e 5A1C     		adds	r2, r3, #1
 535 0030 039B     		ldr	r3, [sp, #12]
 536 0032 1A61     		str	r2, [r3, #16]
 537              		.loc 1 84 0
 538 0034 9DF80B30 		ldrb	r3, [sp, #11]	@ zero_extendqisi2
 539              	.L12:
 540              		.loc 1 85 0
 541 0038 1846     		mov	r0, r3
 542 003a 04B0     		add	sp, sp, #16
 543              		@ sp needed
 544 003c 7047     		bx	lr
 545              		.cfi_endproc
 546              	.LFE275:
 547              		.size	get, .-get
 548 003e 00BF     		.section	.rodata.vmt,"a",%progbits
 549              		.align	2
 550              		.type	vmt, %object
 551              		.size	vmt, 16
 552              	vmt:
 553 0000 00000000 		.word	writes
 554 0004 00000000 		.word	reads
 555 0008 00000000 		.word	put
 556 000c 00000000 		.word	get
 557              		.section	.text.msObjectInit,"ax",%progbits
 558              		.align	2
 559              		.p2align 4,,15
 560              		.global	msObjectInit
 561              		.thumb
 562              		.thumb_func
 563              		.type	msObjectInit, %function
 564              	msObjectInit:
 565              	.LFB276:
ARM GAS  /tmp/ccT7YWlu.s 			page 28


 566              		.loc 1 104 0
 567              		.cfi_startproc
 568              		@ args = 0, pretend = 0, frame = 16
 569              		@ frame_needed = 0, uses_anonymous_args = 0
 570              		@ link register save eliminated.
 571 0000 84B0     		sub	sp, sp, #16
 572              		.cfi_def_cfa_offset 16
 573 0002 0390     		str	r0, [sp, #12]
 574 0004 0291     		str	r1, [sp, #8]
 575 0006 0192     		str	r2, [sp, #4]
 576 0008 0093     		str	r3, [sp]
 577              		.loc 1 106 0
 578 000a 039A     		ldr	r2, [sp, #12]
 579 000c 40F20003 		movw	r3, #:lower16:vmt
 580 0010 C0F20003 		movt	r3, #:upper16:vmt
 581 0014 1360     		str	r3, [r2]
 582              		.loc 1 107 0
 583 0016 039B     		ldr	r3, [sp, #12]
 584 0018 029A     		ldr	r2, [sp, #8]
 585 001a 5A60     		str	r2, [r3, #4]
 586              		.loc 1 108 0
 587 001c 039B     		ldr	r3, [sp, #12]
 588 001e 019A     		ldr	r2, [sp, #4]
 589 0020 9A60     		str	r2, [r3, #8]
 590              		.loc 1 109 0
 591 0022 039B     		ldr	r3, [sp, #12]
 592 0024 009A     		ldr	r2, [sp]
 593 0026 DA60     		str	r2, [r3, #12]
 594              		.loc 1 110 0
 595 0028 039B     		ldr	r3, [sp, #12]
 596 002a 0022     		movs	r2, #0
 597 002c 1A61     		str	r2, [r3, #16]
 598              		.loc 1 111 0
 599 002e 04B0     		add	sp, sp, #16
 600              		@ sp needed
 601 0030 7047     		bx	lr
 602              		.cfi_endproc
 603              	.LFE276:
 604              		.size	msObjectInit, .-msObjectInit
 605 0032 00BFAFF3 		.text
 605      0080AFF3 
 605      0080AFF3 
 605      0080
 606              	.Letext0:
 607              		.file 2 "/usr/lib/gcc/arm-none-eabi/4.8.2/include/stddef.h"
 608              		.file 3 "/usr/include/newlib/machine/_default_types.h"
 609              		.file 4 "/usr/include/newlib/stdint.h"
 610              		.file 5 "../../../../os/rt/ports/ARMCMx/compilers/GCC/chtypes.h"
 611              		.file 6 "../../../../os/rt/include/chsystypes.h"
 612              		.file 7 "../../../../os/rt/include/chschd.h"
 613              		.file 8 "../../../../os/rt/ports/ARMCMx/chcore.h"
 614              		.file 9 "../../../../os/rt/ports/ARMCMx/chcore_v7m.h"
 615              		.file 10 "../../../../os/rt/include/chdebug.h"
 616              		.file 11 "../../../../os/rt/include/chtm.h"
 617              		.file 12 "../../../../os/rt/include/chstats.h"
 618              		.file 13 "../../../../os/rt/include/chsem.h"
 619              		.file 14 "../../../../os/rt/include/chmtx.h"
ARM GAS  /tmp/ccT7YWlu.s 			page 29


 620              		.file 15 "../../../../os/hal/lib/streams/memstreams.h"
 621              		.file 16 "../../../../os/ext/CMSIS/include/core_cm4.h"