ARM GAS  /tmp/ccPTb876.s 			page 1


   1              		.syntax unified
   2              		.cpu cortex-m4
   3              		.fpu softvfp
   4              		.eabi_attribute 20, 1
   5              		.eabi_attribute 21, 1
   6              		.eabi_attribute 23, 3
   7              		.eabi_attribute 24, 1
   8              		.eabi_attribute 25, 1
   9              		.eabi_attribute 26, 1
  10              		.eabi_attribute 30, 6
  11              		.eabi_attribute 34, 1
  12              		.eabi_attribute 18, 4
  13              		.thumb
  14              		.file	"memstreams.c"
  15              		.text
  16              	.Ltext0:
  17              		.section	.gnu.lto_.inline.3e1cffef247e3811,"",%progbits
  18 0000 789C6362 		.ascii	"x\234cb`b\300\006\262\2404+\003\003\037/\003\003\223"
  18      6062C006 
  18      B2A0342B 
  18      03031F2F 
  18      030393
  19 0013 C484D38C 		.ascii	"\304\204\323\214\014,\020\305\214\230BL\014\242\262"
  19      0C2C10C5 
  19      8C98424C 
  19      0CA2B2
  20 0022 4052AEE1 		.ascii	"@R\256\341\027\\\210\005\250\206\201\031\2078\013\003"
  20      175C8805 
  20      A8868119 
  20      87380B03 
  21 0032 073B509C 		.ascii	"\007;P\234gC.L\230\001\000\011~\010\264"
  21      67432E4C 
  21      98010009 
  21      7E08B4
  22              		.text
  23              		.section	.gnu.lto_put.3e1cffef247e3811,"",%progbits
  24 0000 789C9D53 		.ascii	"x\234\235SMh\023A\024~of6\377\261\012\036\354\255\364"
  24      4D681341 
  24      147E6F66 
  24      36FFB10A 
  24      1EECADF4 
  25 0014 2416B214 		.ascii	"$\026\262\024\212\005/\036<yRP\241\036D\222Z\266\013"
  25      8A052F1E 
  25      3C795250 
  25      A11E4492 
  25      5AB60B
  26 0027 0D8AF19E 		.ascii	"\015\212\361\236I\033\212X\221R\012\326\252\330\036"
  26      491B8A58 
  26      91520AD6 
  26      AAD81E
  27 0036 14FFC046 		.ascii	"\024\377\300F/9\364\260\007)\301P\250x\321\202\020\032"
  27      2F39F4B0 
  27      0729C150 
  27      A878D182 
  27      101A
  28 0048 A9170F1E 		.ascii	"\251\027\017\036{\020\32773\331m\020\265k\037\344e\346"
  28      7B10D737 
ARM GAS  /tmp/ccPTb876.s 			page 2


  28      33D96D10 
  28      B56B1FE4 
  28      65E6
  29 005a BDEF7BEF 		.ascii	"\275\357{\357\2337\263\014\030\374n6\375V\005\300\011"
  29      9B37B30C 
  29      18FC6E36 
  29      FD5605C0 
  29      09
  30 006b B5890112 		.ascii	"\265\211\001\022\002\031\343\000\222QT\012\216\026E"
  30      0219E300 
  30      9251540A 
  30      8E1645
  31 007a 84F61622 		.ascii	"\204\366\026\"\201\020\312\214\013\013\313\027\325\016"
  31      8110CA8C 
  31      0B0BCB17 
  31      D50E
  32 0088 92FDB02C 		.ascii	"\222\375\260,\345\\\353q{\003\357\315{\325%\371\303"
  32      E55CEB71 
  32      7B03EFCD 
  32      7BD525F9 
  32      C3
  33 0099 F7115D95 		.ascii	"\367\021]\225\034E\030\241\025\366\351?U\260\333\014"
  33      1C4518A1 
  33      15F6E93F 
  33      55B0DB0C 
  34 00a9 517EFE72 		.ascii	"Q~\376r\266!\253\236\357\237\214\312Y\360\036\256\275"
  34      B621AB9E 
  34      EF9F8CCA 
  34      59F01EAE 
  34      BD
  35 00ba 5B46E256 		.ascii	"[F\342V\276\373~\217\213<Z+\357\321\364\355\336[K\223"
  35      BEFB7E8F 
  35      8B3C5A2B 
  35      EFD1F4ED 
  35      DE5B4B93 
  36 00ce B3F22749 		.ascii	"\263\362'ItQDT\370\341\277\025\316\311\327OeR\217\202"
  36      74514454 
  36      F8E1BF15 
  36      CEC9D74F 
  36      65528F82 
  37 00e2 47EEE3D5 		.ascii	"G\356\343\325\246\357t\313\333O\253\210\034\357\356"
  37      A6EF74CB 
  37      DB4FAB88 
  37      1CEFEE
  38 00f1 DA7CAFDC 		.ascii	"\332|\257\334me1\030\306=\230\257\230\327\362\375\227"
  38      6D653118 
  38      C63D98AF 
  38      98D7F2FD 
  38      97
  39 0102 B5D5AD45 		.ascii	"\265\325\255E<t\000\201\306\316\260\210\300!\217\317"
  39      3C740081 
  39      C6CEB088 
  39      C0218FCF 
  40 0112 B01F0445 		.ascii	"\260\037\004E\300R.\246rqr\"\241\266I\265J\021\024\323"
  40      C0522EA6 
  40      72717222 
  40      A1B649B5 
ARM GAS  /tmp/ccPTb876.s 			page 3


  40      4A1114D3 
  41 0126 6A9B512E 		.ascii	"j\233Q.\013\372\326\010_\225r\266\317T\320\332\311\316"
  41      0BFAD608 
  41      5F9572B6 
  41      CF54D0DA 
  41      C9CE
  42 0138 6B7F41BD 		.ascii	"k\177A\275E\276\016\223\315\235\255\006\313\343\013"
  42      45BE0E93 
  42      CD9DAD06 
  42      CBE30B
  43 0147 7A830E72 		.ascii	"z\203\016rG\205)\272Y\247\007\027D\305\000\034s1v\037"
  43      478529BA 
  43      59A70717 
  43      44C5001C 
  43      7331761F 
  44 015b 1649789C 		.ascii	"\026Ix\234P\352\000\226\226]\300\340\000\212\264\221"
  44      50EA0096 
  44      965DC0E0 
  44      008AB491 
  45 016b 0E28D6BF 		.ascii	"\016(\326\277(\001\247\001o\277V\262a\027\247\003\000"
  45      2801A701 
  45      6FBF56B2 
  45      6117A703 
  45      00
  46 017c A38F1B7D 		.ascii	"\243\217\033}\365\217\355\243\001$\246\252p\032\252"
  46      F58FEDA3 
  46      0124A6AA 
  46      701AAA
  47 018b 312C0758 		.ascii	"1,\007Xa\260\233;m/T\035\327\022\304\237%\260.\325+"
  47      61B09B3B 
  47      6D2F541D 
  47      D712C49F 
  47      25B02ED5 
  48 01a0 A9809208 		.ascii	"\251\200\222\010UW\244\224\227\376\256|\035\246f\246"
  48      5557A494 
  48      97FEAE7C 
  48      1DA666A6 
  49 01b0 9E84AD92 		.ascii	"\236\204\255\222\216B&t\271\346J\217\011w\252\304]L"
  49      8E422674 
  49      B9E64A8F 
  49      0977AAC4 
  49      5D4C
  50 01c2 1062C47C 		.ascii	"\020b\304|\021d\016\246L\337\205\355VX!=\000\317\011"
  50      11640EA6 
  50      4CDF85ED 
  50      5658213D 
  50      00CF09
  51 01d5 7C70CF99 		.ascii	"|p\317\231Q\347\233<`e\210\250@14G9m\022\321j\021]\223"
  51      51E79B3C 
  51      606588A8 
  51      40313447 
  51      396D12D1 
  52 01ed EAF5ED23 		.ascii	"\352\365\355#A\301\254\036\360\356\035\020\2037\241"
  52      41C1AC1E 
  52      F0EE1D10 
  52      8337A1
  53 01fc 4227BBA2 		.ascii	"B'\273\242F\366^/\035S\340\023 \335\010\377V;L<\361"
ARM GAS  /tmp/ccPTb876.s 			page 4


  53      46F65E2F 
  53      1D53E013 
  53      20DD08FF 
  53      563B4C3C 
  54 0211 E04D463D 		.ascii	"\340MF=-\312\250\321\016M\270\005\373\324\270[p\317"
  54      2DCAA8D1 
  54      0E4DB805 
  54      FBD4B85B 
  54      70CF
  55 0223 9CBB3C78 		.ascii	"\234\273<x<7\230\033\262\355\253%{<?a\253T\351\306\365"
  55      3C37981B 
  55      B2EDAB25 
  55      7B3C3F61 
  55      AB54E9C6 
  56 0238 B17CB164 		.ascii	"\261|\261d\027\307\212\235en\024x\261t\355\027\221\263"
  56      17C78A9D 
  56      656E1478 
  56      B174ED17 
  56      91B3
  57 024a 183B     		.ascii	"\030;"
  58              		.text
  59              		.section	.gnu.lto_get.3e1cffef247e3811,"",%progbits
  60 0000 789CB553 		.ascii	"x\234\265SMh\023A\024~of6\377\361\007D\351\255\364$"
  60      4D681341 
  60      147E6F66 
  60      36FFF107 
  60      44E9ADF4 
  61 0015 16B2148A 		.ascii	"\026\262\024\212\"\010\036<yR\320B=IRK\272\320\240\030"
  61      22081E3C 
  61      7952D042 
  61      3D49524B 
  61      BAD0A018 
  62 0029 3D67D2A4 		.ascii	"=g\322\244\"J\265\224\036\352\317\241\275\371CQ,\225"
  62      224AB594 
  62      1EEACFA1 
  62      BDF94351 
  62      2C95
  63 003b A2087B90 		.ascii	"\242\010{\220\020l\013\212\210\265^\"\010\205\034\244"
  63      106C0B8A 
  63      88B55E22 
  63      08851CA4 
  64 004b C71E4AD7 		.ascii	"\307\036J\327\367f\273k\221h\203\340\203\235\235y\357"
  64      F766BB6B 
  64      916883E0 
  64      839D9D79 
  64      EF
  65 005c FBDEFBE6 		.ascii	"\373\336\373\346\315\214\000\001\277\233M\337\246\002"
  65      CD8C0001 
  65      BF9B4DDF 
  65      A602
  66 006a 38C18B08 		.ascii	"8\301\213\010 !P\010\011\240\005y\265\222h\221G\231"
  66      20215008 
  66      09A00579 
  66      B5926891 
  66      4799
  67 007c D1422410 		.ascii	"\321B$\020BIHea\351\002\257 \321\0053ZO4F\233\357\361"
  67      42494865 
ARM GAS  /tmp/ccPTb876.s 			page 5


  67      61E902AF 
  67      20D10533 
  67      5A4F3446 
  68 0093 DEA45B9D 		.ascii	"\336\244[\235\326\233\236\207\350pp\000\241\237f\330"
  68      D69B9E87 
  68      E8707000 
  68      A19F66D8 
  69 00a3 697E9C70 		.ascii	"i~\234p\247\371D\375\365\373\331\272\256\272\236w\262"
  69      A7F944FD 
  69      F5FBD9BA 
  69      AEBA9E77 
  69      B2
  70 00b4 5DCE94FB 		.ascii	"]\316\224\373\261\366n\006\211[^\367\274\275\016\312"
  70      B1F66E06 
  70      895B5EF7 
  70      BCBD0ECA 
  71 00c4 F64AB99F 		.ascii	"\366J\271\237n\334\351\2705=2\256\267H\242\203\352\277"
  71      6EDCE9B8 
  71      353D32AE 
  71      B748A283 
  71      EABF
  72 00d6 299CD02F 		.ascii	")\234\320/\036\351\270i\205l\273\216\373\271vw\247\274"
  72      1EE9B869 
  72      856CBB8E 
  72      FBB97677 
  72      A7BC
  73 00e8 7F29D526 		.ascii	"\177)\325&\307}]\033;\244\033:(e\0118\206!3\3463\261"
  73      C77D5D1B 
  73      3BA41B3A 
  73      28650938 
  73      862133E6 
  74 00fe 25F34D6D 		.ascii	"%\363Mm\262C\377\022\031\021p\034w\251\371L\270\015"
  74      B243FF12 
  74      1911701C 
  74      77A9F94C 
  74      B80D
  75 0110 CF5B9A5B 		.ascii	"\317[\232[\3776\213\373\367 \320\201\011, H\310\342"
  75      FF368BFB 
  75      F720D081 
  75      092C2048 
  75      C8E2
  76 0122 53EC0245 		.ascii	"S\354\002E\036\260x\210p,J\203\212\3612\316\263\004"
  76      1EB07888 
  76      702C4A83 
  76      8AF132CE 
  76      B304
  77 0134 A11E132A 		.ascii	"\241\036\023*\311\236\024\017i0GN\224\252\326\343\235"
  77      C99E140F 
  77      6930474E 
  77      94AAD6E3 
  77      9D
  78 0145 7ED84F65 		.ascii	"~\330Oe\266Ov\336\214}|\235\3452\214,\256\254\325E\026"
  78      B64F76DE 
  78      8C7D7C9D 
  78      E5328C2C 
  78      AEACD545 
  79 015a 67E91AE7 		.ascii	"g\351\032\347Q\346\331M\336\325)\272\263\201Wu\303\021"
ARM GAS  /tmp/ccPTb876.s 			page 6


  79      51E6D94D 
  79      DED529BA 
  79      B3815775 
  79      C311
  80 016c 07A30FE0 		.ascii	"\007\243\017\340>\355 F(\336I\304\350\317\205\235`\322"
  80      3EED2046 
  80      28DE49C4 
  80      E8CF859D 
  80      60D2
  81 017e F36440B1 		.ascii	"\363d@\261\376F\0118ux\273VN\207U\362\374\222\002\353"
  81      FE460938 
  81      7578BB56 
  81      4E8755F2 
  81      FC9202EB 
  82 0192 E36DB0BE 		.ascii	"\343m\260\276\205\205\346\341\000\022\341,\222\272\353"
  82      8585E6E1 
  82      0012E12C 
  82      92BAEB
  83 01a1 1B9602AC 		.ascii	"\033\226\002\254\362\261\253+\315F\250:j$\250\326\022"
  83      F2B1AB2B 
  83      CD46A83A 
  83      6A24A8D6 
  83      12
  84 01b2 444BD5B1 		.ascii	"DK\325\261PuYk}\375\317\312\227\241r\273\3622,\025\247"
  84      5075596B 
  84      7DFDCFCA 
  84      97A172BB 
  84      F2322C15 
  85 01c7 6AC436E9 		.ascii	"j\3046\351^\215\036\014\334\211\355D\364\014-\002\365"
  85      5E8D1E0C 
  85      DC89ED44 
  85      F40C2D02 
  85      F5
  86 01d8 FBEF2AAC 		.ascii	"\373\357*\254\273\321\334\0103$\273\341\011!\367\355"
  86      BBD1DC08 
  86      3324BBE1 
  86      0921F7ED 
  87 01e8 DA33AA7C 		.ascii	"\3323\252|S\006\254\024\021\031\024E?\345i?\320^.\242"
  87      5306AC14 
  87      11191445 
  87      3FE5693F 
  87      D05E2EA2 
  88 01fc 1BD28FCA 		.ascii	"\033\322\217\312\334X\2301M\252\203\246\322i\310E(\323"
  88      DC589831 
  88      4DAA83A6 
  88      D269C845 
  88      28D3
  89 020e B62E31E5 		.ascii	"\266.1\345\203\231\346}\366\027@:\016\371p\376\000q"
  89      8399E67D 
  89      F617403A 
  89      0EF970FE 
  89      0071
  90 0220 D4D27C8A 		.ascii	"\324\322|\212\357\025E\270\257\275\303N\316>5\344\344"
  90      EF1545B8 
  90      AFBDC34E 
  90      CE3E35E4 
  90      E4
ARM GAS  /tmp/ccPTb876.s 			page 7


  91 0231 9C33E72E 		.ascii	"\2343\347.\366\034\315\364dzm\373r\321\036\312\016\333"
  91      F61CCDF4 
  91      647A6DFB 
  91      72D11ECA 
  91      0EDB
  92 0243 1C2A5EBB 		.ascii	"\034*^\273:\230-\024\355\302`a{\232\031\000\314\311"
  92      3A982D14 
  92      EDC26061 
  92      7B9A1900 
  92      CCC9
  93 0255 42F1CA4F 		.ascii	"B\361\312ONj)\374"
  93      4E6A29FC 
  94              		.text
  95              		.section	.gnu.lto_writes.3e1cffef247e3811,"",%progbits
  96 0000 789C9D93 		.ascii	"x\234\235\223Mh\023Q\020\307g\366m6\337\037\025\021"
  96      4D681351 
  96      10C767F6 
  96      6D36DF1F 
  96      1511
  97 0012 BC48E9D1 		.ascii	"\274H\351\321B\226BQ\360\342\301\223'\005[\320\223$"
  97      42964251 
  97      F0E2C193 
  97      27055BD0 
  97      9324
  98 0024 B16E17BA 		.ascii	"\261n\027\272(F\360\340!/M\017\361\013\202'I\017\266"
  98      2846F0E0 
  98      212F4D0F 
  98      F10B8227 
  98      490FB6
  99 0037 878A6851 		.ascii	"\207\212hQ\320K=\231\203\207\224PT\244\324\246\0109"
  99      D04B3D99 
  99      83879450 
  99      54A4D4A6 
  99      0839
 100 0049 E8CD82BD 		.ascii	"\350\315\202\275H\021q\235\331\315n\027\221\272f!\263"
 100      4811719D 
 100      D9CD6E17 
 100      91BA6621 
 100      B3
 101 005a EFCD9BDF 		.ascii	"\357\315\233\337\314\177\346m\024P\340\317G\247\337"
 101      CC7FE66D 
 101      1450E0CF 
 101      47A7DF
 102 0069 7A04E004 		.ascii	"z\004\340\004o4@\212@E\021\000RQ\311\250\002\351\205"
 102      6F34408A 
 102      40451100 
 102      5251C9A8 
 102      02E985
 103 007c 2A520846 		.ascii	"*R\010F\020)\010\241\242\0105\202\225\013\274\203\324"
 103      102908A1 
 103      A2083582 
 103      950BBC83 
 103      D4
 104 008d 082C4A79 		.ascii	"\010,Jy\277\267\324\274w\370\366\302lC\376\262m4\371"
 104      BFB7D4BC 
 104      77F8F6C2 
 104      6C43FEB2 
ARM GAS  /tmp/ccPTb876.s 			page 8


 104      6D34F9
 105 00a0 A884709E 		.ascii	"\250\204p\236V8\354\2748]\360q1\371\351\363\331\266"
 105      5638ECBC 
 105      385DF071 
 105      31F9E9F3 
 105      D9B6
 106 00b2 9C6BD9F6 		.ascii	"\234k\331\366\311\360\314\207\377gZ\353;\355E$\266\372"
 106      C9F0CC87 
 106      FF675AEB 
 106      3BED4524 
 106      B6FA
 107 00c4 CDB6B3E1 		.ascii	"\315\266\263\341K\355\014Pj\343\325j\260\224\010Y\352"
 107      4BED0C50 
 107      6AE3D56A 
 107      B0940859 
 107      EA
 108 00d5 E5009378 		.ascii	"\345\000\223x\361X\306\027\344O\333\026&\337S(y\233"
 108      F158C617 
 108      E44FDB16 
 108      26DF5328 
 108      799B
 109 00e7 834D2258 		.ascii	"\203M\"X*\034\323lm\255\335M4\252ui\333\025\223\277"
 109      2A1CD36C 
 109      6DADDD4D 
 109      34AA7569 
 109      DB1593BF 
 110 00fb A050FA5E 		.ascii	"\240P\372^/\255\006\344i\012\034\307\177\200\317\225"
 110      2FAD06E4 
 110      690A1CC7 
 110      7F80CF95 
 111 010b 56CFB6BF 		.ascii	"V\317\266\277>}\370\375\320\001\004\013AA\013i\356\005"
 111      3E7DF8FD 
 111      D001040B 
 111      41410B69 
 111      EE05
 112 011d 5CC61150 		.ascii	"\\\306\021P\201\004G\330hl\242t\0061^\305\331$8>I+\221"
 112      810447D8 
 112      686CA274 
 112      06315EC5 
 112      D924383E 
 113 0134 E26D9A8C 		.ascii	"\342m\232\214\232\241\020%\313\333\034\233!p\304S\216"
 113      9AA11025 
 113      CBDB1C9B 
 113      2170C453 
 113      8E
 114 0145 39291BC3 		.ascii	"9)\033\303nV\247\031z&\034;\311\377\033\261\006\263"
 114      6E56A719 
 114      7A261C3B 
 114      C9FF1BB1 
 114      06B3
 115 0157 9DDD8D83 		.ascii	"\235\335\215\203\005|F\361\006\012\203\275\344\354\256"
 115      057C46F1 
 115      060A83BD 
 115      E4ECAE
 116 0166 34D39E53 		.ascii	"4\323\236S\035\205\243\224n\036\232\324H\224\202\270"
 116      1D85A394 
 116      6E1E9AD4 
ARM GAS  /tmp/ccPTb876.s 			page 9


 116      489482B8 
 117 0176 21CD69A3 		.ascii	"!\315i\243\210^C\314\274KzHd?\004}\244v\253\366\010"
 117      885E43CC 
 117      BC4B7A48 
 117      643F047D 
 117      A476ABF6 
 118 018b 3D46A34A 		.ascii	"=F\243J\006\253n\303\233/\325t\300\035\335\233\333$"
 118      06AB6EC3 
 118      9B2FD574 
 118      C01DDD9B 
 118      DB24
 119 019d 7F9BACBA 		.ascii	"\177\233\254\272\373\261\231\361Bba\0056|$\036Z\340"
 119      FBB199F1 
 119      42626105 
 119      367C241E 
 119      5AE0
 120 01af 110F4950 		.ascii	"\021\017IP!\002=\035j_\307n\327O\232t\222\212\277'U"
 120      21023D1D 
 120      6A5FC76E 
 120      D74F9A74 
 120      928ABF27 
 121 01c4 023AF606 		.ascii	"\002:\366\006\225\362uT\245\2247\366\325r\247v\331\303"
 121      95F27554 
 121      A59437F6 
 121      D572A776 
 121      D9C3
 122 01d6 D2548C60 		.ascii	"\322T\214`\200\267\240\271>\200\233\360C\326e\316\304"
 122      80B7A0B9 
 122      3E809BF0 
 122      43D665CE 
 122      C4
 123 01e7 58A94F39 		.ascii	"X\251O9q\031\003)]\334-\374`\336\027\233\035\205'T2"
 123      71190329 
 123      5DDC2DFC 
 123      60DE179B 
 123      1D852754 
 124 01fc 17660A75 		.ascii	"\027f\012u\341Q9\002\015>\242l\247]g\270<\204:Pge\313"
 124      E1513902 
 124      0D3EA26C 
 124      A75D67B8 
 124      3C843A50 
 125 0213 BFF121C3 		.ascii	"\277\361!\303=\334\004\244KV\310$\304\3626\362t\251"
 125      3DDC04A4 
 125      4B56C824 
 125      C4F236F2 
 125      74A9
 126 0225 21D1816A 		.ascii	"!\321\201j\014\340\022\337\370{\250\366\2665\237s\205"
 126      0CE012DF 
 126      F87BA8F6 
 126      B6359F73 
 126      85
 127 0236 4D30CD63 		.ascii	"M0\315c\035\2371\213\372\251i\263h\2369wq\354X~,?\256"
 127      1D9F318B 
 127      FAA969B3 
 127      689E3977 
 127      71EC587E 
 128 024d EB57CAFA 		.ascii	"\353W\312\372taF\347\243\362\365kS\005\253\254[SV\177"
ARM GAS  /tmp/ccPTb876.s 			page 10


 128      746146E7 
 128      A3F2F56B 
 128      5305ABAC 
 128      5B53567F 
 129 0261 992F81B0 		.ascii	"\231/\201\260\312W\177\003#\370F!"
 129      CA577F03 
 129      23F84621 
 130              		.text
 131              		.section	.gnu.lto_reads.3e1cffef247e3811,"",%progbits
 132 0000 789C9D93 		.ascii	"x\234\235\223Mh\023Q\020\307g\366m6\337\037\025\017"
 132      4D681351 
 132      10C767F6 
 132      6D36DF1F 
 132      150F
 133 0012 7A91D2A3 		.ascii	"z\221\322\243\205,\205\242\340\305\203'O\012\266\240"
 133      852C85A2 
 133      E0C58327 
 133      4F0AB6A0 
 134 0022 2749624D 		.ascii	"'IbM\027\032\024\343\315C\3366=D\255\020<I\013\265\025"
 134      171A14E3 
 134      CD43DE36 
 134      3D44AD10 
 134      3C490BB5 
 135 0037 041151D1 		.ascii	"\004\021Q\321K\2179\210\244\304R{\021\255`r\260\007"
 135      4B8F3988 
 135      A4C4527B 
 135      11AD6072 
 135      B007
 136 0049 4F56BCD4 		.ascii	"OV\274\324\217\372:\263\233]\203H]\263\220\331\367\346"
 136      8FFA3AB3 
 136      9B5D8348 
 136      5DB390D9 
 136      F7E6
 137 005b CD6FE63F 		.ascii	"\315o\346?\3636\032h\360\347c\322\357M\010\340\030o"
 137      F3361A68 
 137      F0E763D2 
 137      EF4D08E0 
 137      186F
 138 006d 0C408A40 		.ascii	"\014@\212@M\023\000R\323\311\350\002\351\205:R\010\206"
 138      4D130052 
 138      D3C9E802 
 138      E9853A52 
 138      0886
 139 007f 102908A1 		.ascii	"\020)\010\241\242\011=\204\225s\274\203\304\020,Iy\273"
 139      A2093D84 
 139      9573BC83 
 139      C4102C49 
 139      79BB
 140 0091 B3B970EB 		.ascii	"\263\271p\353\340\215\305\351\272\374\245\024Z|T@8K"
 140      E08DC5E9 
 140      BAFCA514 
 140      5A7C5440 
 140      384B
 141 00a3 2B1C745E 		.ascii	"+\034t^\234\256\367q1\371\376\343\351\246\234i(u<8\263"
 141      9CAEF771 
 141      31F9FEE3 
 141      E9A69C69 
ARM GAS  /tmp/ccPTb876.s 			page 11


 141      28753C38 
 142 00b8 FEFF4CE3 		.ascii	"\376\377L\343\333\227\346\022\022ko)\225\016^\252\335"
 142      DB97E612 
 142      126B6F29 
 142      950E5EAA 
 142      DD
 143 00c9 47A91F9F 		.ascii	"G\251\037\237VzK\211\200\245\236\3671\211g\017dtQ\376"
 143      567A4B89 
 143      80A59EF7 
 143      3189670F 
 143      647451FE 
 144 00dd 544A587C 		.ascii	"TJX|O\201\344\355\354\3645\211\336R\301\230\271\206"
 144      4F81E4ED 
 144      ECF43589 
 144      DE52C198 
 144      B986
 145 00ef 5A9D8DD5 		.ascii	"Z\235\215\325\355\232T\252b\361\027\024H\337\327\373"
 145      ED9A54AA 
 145      62F11714 
 145      48DFD7FB 
 146 00ff 2B3DF20C 		.ascii	"+=\362\014\015\216\342?\300'Z\243\243\324\354\332\374"
 146      0D8EE23F 
 146      C0275AA3 
 146      A3D4ECDA 
 146      FC
 147 0110 CB03B80F 		.ascii	"\313\003\270\017\241\204\240a\011i\3609|\204C\240\003"
 147      A184A061 
 147      0969F039 
 147      7C8443A0 
 147      03
 148 0121 290EB131 		.ascii	")\016\2611\330\204\351\014\"\274\212\262\211q|\234V"
 148      D884E90C 
 148      22BC8AB2 
 148      89717C9C 
 148      56
 149 0132 22C1DB24 		.ascii	"\"\301\333$\031=E!Z\232\267\0316\003\340\250\247\034"
 149      193D4521 
 149      5A9AB719 
 149      3603E0A8 
 149      A71C
 150 0144 3352D607 		.ascii	"3R\326\007\335\254N7\364\2149v\234\3778b\025\246[\313"
 150      DDAC4E37 
 150      F48C3976 
 150      9CFF3862 
 150      15A65BCB 
 151 0158 1FF6E7F0 		.ascii	"\037\366\347\3601\305\027Q\024\331K\316\215\355\205"
 151      31C51751 
 151      14D94BCE 
 151      8DED85
 152 0167 A4E7D487 		.ascii	"\244\347\324\207\3410\245\233\2079\352$LA\334\221\341"
 152      E130A59B 
 152      8739EA24 
 152      4C41DC91 
 152      E1
 153 0178 F49147AF 		.ascii	"\364\221G\257#f\236\306=$\264\027\202>R\275^\275\207"
 153      23669EC6 
 153      3D24B417 
ARM GAS  /tmp/ccPTb876.s 			page 12


 153      823E52BD 
 153      5EBD87
 154 018b 1E6350A5 		.ascii	"\036cP\245\"\253n\302\213M;\331\343\016\377\036\334"
 154      22AB6EC2 
 154      8B4D3BD9 
 154      E30EFF1E 
 154      DC
 155 019c 387F9CAC 		.ascii	"8\177\234\254z\343\316\335\224\027\022\011*p\313\027"
 155      7AE3CEDD 
 155      94171209 
 155      2A70CB17 
 156 01ac 180D2CF0 		.ascii	"\030\015,\360\220\207\304\250\020\201\236\016\275\253"
 156      9087C4A8 
 156      10819E0E 
 156      BDAB
 157 01ba 63B9ED4F 		.ascii	"c\271\355O/\356$\025\177O\252\365\350x\355KO\370:l)"
 157      2FEE2415 
 157      7F4FAAF5 
 157      E878ED4B 
 157      4FF83A6C 
 158 01cf 65654F2D 		.ascii	"eeO-7\253\027=,I\305\010\006X\003\303\365\001\\\203"
 158      37AB173D 
 158      2C49C508 
 158      065803C3 
 158      F5015C83 
 159 01e3 EFB22633 		.ascii	"\357\262&3\026F\012]\252\210)'\224\322E\335\302o\333"
 159      16460A5D 
 159      AA882927 
 159      94D245DD 
 159      C26FDB
 160 01f6 692F457A 		.ascii	"i/Ez\030\036R\311L\220)\324\204Ge\010,\362\021e;\351"
 160      181E52C9 
 160      4C9029D4 
 160      84476508 
 160      2CF21165 
 161 020c 3A83E521 		.ascii	":\203\345!\324\201Z\333m\377\306\007\212\356\341;@\272"
 161      D4815ADB 
 161      6DFFC607 
 161      8AEEE13B 
 161      40BA
 162 021e 648D4C4C 		.ascii	"d\215LL\274\372\214<]jH\264\300\216\000\\\340\033_\007"
 162      BCFA8C3C 
 162      5D6A48B4 
 162      C08E005C 
 162      E01B5F07 
 163 0232 BBA30C9F 		.ascii	"\273\243\014\237s\205\2151\315c\035\235\262\362\346"
 163      73858D31 
 163      CD631D9D 
 163      B2F2E6
 164 0241 89492B6F 		.ascii	"\211I+o\235:s~\344Hv$;j\232\227\312\346dn\312\344\243"
 164      9D3A737E 
 164      E4487624 
 164      3B6A9A97 
 164      CAE6646E 
 165 0258 F2D52B13 		.ascii	"\362\325+\023\271R\331,M\224\272\313l\001D\251|y\027"
 165      B952D92C 
 165      4D94BACB 
ARM GAS  /tmp/ccPTb876.s 			page 13


 165      6C0144A9 
 165      7C7917
 166 026b 667D47BF 		.ascii	"f}G\277"
 167              		.text
 168              		.section	.gnu.lto_msObjectInit.3e1cffef247e3811,"",%progbits
 169 0000 789C6362 		.ascii	"x\234cb`b@\007\"@<\203\221\201\301\014\304af`\004\252"
 169      60624007 
 169      22403C83 
 169      9181C10C 
 169      C4616660 
 170 0016 60646204 		.ascii	"`db\004\012002\32431\326G2\202\225\255g:\360\340\377"
 170      0A303032 
 170      D43331D6 
 170      47328295 
 170      AD673AF0 
 171 002c FF751BDA 		.ascii	"\377u\033\332\327\375a\234\313\304\312\310\230\313\310"
 171      D7FD619C 
 171      CBC4CAC8 
 171      98CBC8
 172 003b C0042418 		.ascii	"\300\004$\030\231\201\004\023\013\220`\006\252behih"
 172      99810413 
 172      0B906006 
 172      AA626568 
 172      6968
 173 004d 98A0C0C0 		.ascii	"\230\240\300\300\220\014\326\025\002&CAf2\237eh\372"
 173      900CD615 
 173      02264341 
 173      66329F65 
 173      68FA
 174 005f D5FCBA4F 		.ascii	"\325\374\272O>\221q!#+\2036\303\252\006 \340\315dd\230"
 174      3E917121 
 174      232B8336 
 174      C3AA0620 
 174      E0CD6464 
 175 0074 CD308B31 		.ascii	"\3150\2131\223\2211\235\2211\002HC\034\230\004\261\224"
 175      9391319D 
 175      91310248 
 175      431C9804 
 175      B194
 176 0086 A19AE157 		.ascii	"\241\232\341W\303\214\206\206`\240\262\\F\026\260\020"
 176      C38C8686 
 176      60A0B25C 
 176      4616B010 
 177 0096 D09CD33F 		.ascii	"\320\234\323?\276\375`D7\207\031\2739\020\203\322A|"
 177      BEFD6044 
 177      378719BB 
 177      391083D2 
 177      417C
 178 00a8 90CE19DF 		.ascii	"\220\316\031\3371u\262`\327\311\004\325\311\014\321"
 178      3175B260 
 178      D7C904D5 
 178      C90CD1
 179 00b7 B983789D 		.ascii	"\271\203x\235\314P\235,`\235;n\020\257\023\342E\220"
 179      CC509D2C 
 179      609D3B6E 
 179      10AF13E2 
 179      4590
ARM GAS  /tmp/ccPTb876.s 			page 14


 180 00c9 08987591 		.ascii	"\010\230u\221\241\361\301}e\210^\030\010\001y\011\244"
 180      A1F1C17D 
 180      65885E18 
 180      08017909 
 180      A4
 181 00da DE242733 		.ascii	"\336$'3I\3379#3)\323?8\336\320L\317P\317D_?\277X?#1"
 181      49DF3923 
 181      3329D33F 
 181      38DED04C 
 181      CF50CF44 
 182 00f5 471F2455 		.ascii	"G\037$U\\R\224\232\230[\254\237\233\232\013e\352%3\000"
 182      5C52949A 
 182      985BAC9F 
 182      9B9A0B65 
 182      EA253300 
 183 0109 0042036A 		.ascii	"\000B\003jp"
 183      70
 184              		.text
 185              		.section	.gnu.lto_.symbol_nodes.3e1cffef247e3811,"",%progbits
 186 0000 789C4DC8 		.ascii	"x\234M\310\271\021\2000\020CQ\255\026\323\006\265\321"
 186      B9118030 
 186      104351AD 
 186      16D306B5 
 186      D1
 187 0011 020DC811 		.ascii	"\002\015\310\021\003\2319\313\"bh\200\224\"\010\354"
 187      039939CB 
 187      22626880 
 187      942208EC 
 188 0021 C04AFE3C 		.ascii	"\300J\376<\021\304\2002\256\024\220.@\272\347\236\033"
 188      11C48032 
 188      AE14902E 
 188      40BAE79E 
 188      1B
 189 0032 651513C5 		.ascii	"e\025\023\305\212\013\345\025\017\252)|&\013;\321\312"
 189      8A0BE515 
 189      0FAA297C 
 189      260B3BD1 
 189      CA
 190 0043 EDA4427E 		.ascii	"\355\244B~c4g\213w\374:\367\\\374iv$+"
 190      6334678B 
 190      77FC3AF7 
 190      5CFC6976 
 190      242B
 191              		.text
 192              		.section	.gnu.lto_.refs.3e1cffef247e3811,"",%progbits
 193 0000 789C6362 		.ascii	"x\234cb`b\340g\200\000F\026&V\026V&&&f&\006&F\006\000"
 193      6062E067 
 193      80004616 
 193      26561656 
 193      26262666 
 194 001a 032B0037 		.ascii	"\003+\0007"
 195              		.text
 196              		.section	.gnu.lto_.decls.3e1cffef247e3811,"",%progbits
 197 0000 789CBD58 		.ascii	"x\234\275X[l\024U\030>g\366\322.m\260i\204\224\007e"
 197      5B6C1455 
 197      183E67F6 
 197      D22E6DB0 
ARM GAS  /tmp/ccPTb876.s 			page 15


 197      69849407 
 198 0015 C1CB0386 		.ascii	"\301\313\003\206N\212\215\341E*\351\003\365\241bD\214"
 198      4E8A8DE1 
 198      452AE903 
 198      F5A16244 
 198      8C
 199 0026 2F6633DD 		.ascii	"/f3\335N\3335{\313\356\324\212>xZ\014\220jB\255Ql\""
 199      4EDB357B 
 199      CBEED48A 
 199      3E785A0C 
 199      906A42AD 
 200 003d F4824894 		.ascii	"\364\202H\224\030\240X!)\227\245\025lD\244)IA\024\\"
 200      18A05821 
 200      2997A515 
 200      6C44A429 
 200      4941145C 
 201 0051 0817450D 		.ascii	"\010\027E\015\345&\227\322\254\3779sfwf:\263\273\345"
 201      E52697D2 
 201      ACFF3973 
 201      6677663A 
 201      B3BBE5
 202 0064 C193FED3 		.ascii	"\301\223\376\32333\347\377\276\377\374\377\177\316\177"
 202      3333E7FF 
 202      BEFFFCFF 
 202      7FCE7F
 203 0073 660524A0 		.ascii	"f\005$\240J\001\241\0244\271\024\241\271\320w#\204\226"
 203      4A01A114 
 203      34B914A1 
 203      B9D07723 
 203      8496
 204 0085 A14CA3F7 		.ascii	"\241L\243\367\275 \203 \207A\306@\316\202x0B\360\207"
 204      BD208320 
 204      8741C640 
 204      CE827830 
 204      42F087
 205 0098 E6616468 		.ascii	"\346adht\254\007\304\0052\033\244\030d+\3108H\022d\030"
 205      74AC07C4 
 205      05321BA4 
 205      18642BC8 
 205      38481264 
 206 00ad E43CC84E 		.ascii	"\344<\310N\020\007\310=\220I\220;H\305\353\345\317\277"
 206      1007C83D 
 206      9049903B 
 206      48C5EBE5 
 206      CFBF
 207 00bf 03D90732 		.ascii	"\003\331\0072\337\204?\230\005\177\247\211\303\301\261"
 207      DF843F98 
 207      057FA789 
 207      C3C1B1
 208 00ce A774F854 		.ascii	"\247t\370T\037\246\211\016\201xM\330t~\263L\330\024"
 208      1FA6890E 
 208      81784DD8 
 208      747EB34C 
 208      D814
 209 00e0 B78A6326 		.ascii	"\267\212c&9\356\002\320\233\205\247\333/p\014\352\033"
 209      39EE02D0 
 209      9B85A7DB 
ARM GAS  /tmp/ccPTb876.s 			page 16


 209      2F700CEA 
 209      1B
 210 00f1 27FC3F01 		.ascii	"'\374?\001\362\023\310q\220\205&\2561\033\256\345Y\270"
 210      F213C871 
 210      908526AE 
 210      311BAEE5 
 210      59B8
 211 0103 F4731138 		.ascii	"\364s\0218\206\306\365+\310/ g@\2360q\235\345<W8f\222"
 211      86C6F52B 
 211      C82F2067 
 211      409E3071 
 211      9DE53C57 
 212 011a 730DF3E7 		.ascii	"s\015\363\347\2279\2466\227)\356+M\317\0017.\0207H\001"
 212      9739A636 
 212      9729EE2B 
 212      4DCF0137 
 212      2E103748 
 213 012f 9E1EF3F9 		.ascii	"\236\036\363\371h\013I\214&\217\\\230\300]$\361>\201"
 213      680B498C 
 213      268F5C98 
 213      C05D24F1 
 213      3E81
 214 0141 742218CD 		.ascii	"t\"\030\315E\237\020h=\353\010\301\212\007m\34075#0"
 214      459F1068 
 214      3DEB08C1 
 214      8A076DE0 
 214      37352330 
 215 0155 DDD7B184 		.ascii	"\335\327\261\204g{\220\227u\212=l\006O\241/\010\351"
 215      677B9097 
 215      758A3D6C 
 215      064FA12F 
 215      08E9
 216 0167 48FEBEED 		.ascii	"H\376\276\355\303\347\011)\224\360V\354\201Y\266`\264"
 216      C3E70929 
 216      94F056EC 
 216      8159B660 
 216      B4
 217 0178 087D05AA 		.ascii	"\010}\005\252\035\204\364U\231\210Y\313\033\272\247"
 217      1D84F455 
 217      998859CB 
 217      1BBAA7
 218 0187 EBC739C4 		.ascii	"\353\3079\304)\341\355\014\270\017c$\341/\361\242\231"
 218      29E1ED0C 
 218      B80F6324 
 218      E12FF1A2 
 218      99
 219 0198 C224078E 		.ascii	"\302$\007\216\355]\312,\374\232\001\2356\001I\330\355"
 219      ED5DCA2C 
 219      FC9A019D 
 219      360149D8 
 219      ED
 220 01a9 D1DBC7EE 		.ascii	"\321\333\307\356\265\001\024\015n)\323]\272\354\360"
 220      B501140D 
 220      6E29D35D 
 220      BAECF0
 221 01b8 7BFC09BD 		.ascii	"{\374\011\275)@\377\273\236\3254)D\037\236\313z\016"
 221      2940FFBB 
ARM GAS  /tmp/ccPTb876.s 			page 17


 221      9ED53429 
 221      441F9ECB 
 221      7A0E
 222 01ca 9668F0A0 		.ascii	"\226h\360\240\252H\3533G\265\221\3446R\366Y\306Q\205"
 222      AA48EB33 
 222      47B591E4 
 222      3652F659 
 222      C65185
 223 01dd 1A02CE38 		.ascii	"\032\002\3168\252\253\375\233g\230\243v2G]\260\362x"
 223      AAABFD9B 
 223      6798A376 
 223      32475DB0 
 223      F278
 224 01ef 5E40031F 		.ascii	"^@\003\037lQ=\336\317\200\256N\36386y\034\033=\300^"
 224      6C513DDE 
 224      CF80AE4E 
 224      F3383679 
 224      1C1B3DC0 
 225 0204 F34ECA98 		.ascii	"\363N\312\230C\371\214\225\360jGZA@\267L\364O\242\255"
 225      43F98C95 
 225      F06A475A 
 225      4140B74C 
 225      F44FA2AD 
 226 0218 847426BF 		.ascii	"\204t&\277\2770\202I)\363\224\200\356\2621\275x\276"
 226      BF308249 
 226      29F39480 
 226      EEB231BD 
 226      78BE
 227 022a A587D920 		.ascii	"\245\207\331 \256G\272\336(\323<4i\32628C\035\005\355"
 227      AE47BADE 
 227      28D33C34 
 227      69D63238 
 227      431D05ED 
 228 023e 69B48D06 		.ascii	"i\264\215\006\364\300\305\227k\324e\202\262p\361\031"
 228      F4C0C597 
 228      6BD46582 
 228      B270F119 
 229 024e 0C60413F 		.ascii	"\014`A?mu\311&\366\035-\356hM\246R\335^\303jUQ\355r"
 229      6D75C926 
 229      F61D2DEE 
 229      684DA652 
 229      DD5EC36A 
 230 0266 63BF456E 		.ascii	"c\277En\230\\4e\351\"r\275\276\206\217\336\013\346H"
 230      985C3465 
 230      E92272BD 
 230      BE868FDE 
 230      0BE648
 231 0279 7830AB7F 		.ascii	"x0\253\177l&j\247\304\255;h9\321\003S\020\234N\362 "
 231      6C266AA7 
 231      C4AD3B68 
 231      39D10353 
 231      109C4EF2 
 232 028e 955AEBB4 		.ascii	"\225Z\353\264\330\231\332\362Y\367\037w\216\337\304"
 232      D899DAF2 
 232      59F71F77 
 232      8EDFC4
 233 029d 6DA023E1 		.ascii	"m\240#\341a\026\256o\005s\036\272Ly\3502\346\226\313"
ARM GAS  /tmp/ccPTb876.s 			page 18


 233      6116AE6F 
 233      05731EBA 
 233      4C79E832 
 233      E696CB
 234 02b0 93E9D005 		.ascii	"\223\351\320\005\370\210\375\002\034\262_\200E\250="
 234      F888FD02 
 234      1CB25F80 
 234      45A83D
 235 02bf 63717A11 		.ascii	"cqz\021%l\027\221\204w\341\247r'\272\235%#\270H7\247"
 235      256C1791 
 235      8477E1A7 
 235      7227BA9D 
 235      2523B848 
 236 02d5 B43DC36A 		.ascii	"\264=\303j.\232\002?(X\256\215#\233\266\314#=\202!\370"
 236      2E9A023F 
 236      2858AE8D 
 236      239BB6CC 
 236      233D8221 
 237 02ea 87F3591C 		.ascii	"\207\363Y\034\207\344\032\325\002\001\0151h{-f'W\273"
 237      87E41AD5 
 237      02010D31 
 237      687B2D66 
 237      2757BB
 238 02fd 4DD5D420 		.ascii	"M\325\324 \035\311\2416\254[Sm\344\020K\265a\236jvZ"
 238      1DC9A136 
 238      AC5B536D 
 238      E4104BB5 
 238      619E6A76 
 239 0312 DC33C72C 		.ascii	"\3343\307,SmB\036!\023\251\324\306\022\323\222\032\316"
 239      536D421E 
 239      2113A9D4 
 239      C612D392 
 239      1ACE
 240 0324 B2A44EE6 		.ascii	"\262\244N\346\031mu\013\260C\031\237I\244~\260\214\024"
 240      196D750B 
 240      B043199F 
 240      49A47EB0 
 240      8C14
 241 0336 B9635AA2 		.ascii	"\271cZ\242c\371Di7u7e\227\360\3179\264\306uQ:\245EI"
 241      63F94469 
 241      37753765 
 241      97F0CF39 
 241      B4C67551 
 242 034e C2A339D4 		.ascii	"\302\2439\324\262E\311N\213{\345\364\364(\365$\022\335"
 242      B245C94E 
 242      8B7BE5F4 
 242      F428F524 
 242      12DD
 243 0360 EB8FD96C 		.ascii	"\353\217\331l\010\022^6\307\326\305\347\214\2012\004"
 243      08125E36 
 243      C7D6C5E7 
 243      8C813204 
 244 0370 A7147D44 		.ascii	"\247\024}DQ\274\272m\244\007k\000\217\242\364>2\370"
 244      51BCBA6D 
 244      A4076B00 
 244      8FA2F43E 
 244      32F8
ARM GAS  /tmp/ccPTb876.s 			page 19


 245 0382 E9F10A56 		.ascii	"\351\361\012V\315\316\343R\200is\030\003\221\023\206"
 245      CDCEE352 
 245      80697318 
 245      03911386 
 246 0392 DA711154 		.ascii	"\332q\021TU%\006J\022\233\217\026\323\263\015}\216\014"
 246      5525064A 
 246      129B8F16 
 246      D3B30D7D 
 246      8E0C
 247 03a4 7086B600 		.ascii	"p\206\266\000\365\200\275\211\335\353\272a9\016a+\363"
 247      F580BD89 
 247      DDEBBA61 
 247      390E612B 
 247      F3
 248 03b5 6100D651 		.ascii	"a\000\326Q\2234u\011K\233\215`\255\205\205\306a\022"
 248      93347509 
 248      4B9B8D60 
 248      AD8585C6 
 248      6112
 249 03c7 FE93C5F3 		.ascii	"\376\223\305\363\252\331\312I\311\253>\315m\343\324"
 249      AAD9CA49 
 249      C9AB3ECD 
 249      6DE3D4
 250 03d6 F1E20EC9 		.ascii	"\361\342\016\311\224\374tS\264\213\314?\231\344\027"
 250      94FC7453 
 250      B48BCC3F 
 250      99E417
 251 03e5 D0E7CCA7 		.ascii	"\320\347\314\247\224\310j8\357\252\215\0170\220\223"
 251      94C86A38 
 251      EFAA8D0F 
 251      309093
 252 03f4 7E423C6E 		.ascii	"~B<n\023\371\311,\344\023z\362\276\031\223{s\222\367"
 252      13F9C92C 
 252      E4137AF2 
 252      BE19937B 
 252      7392F7
 253 0407 6521BF99 		.ascii	"e!\277\231!W\353|N\362\302\231\315|\177\026\362\333"
 253      2157EB7C 
 253      4EF2C299 
 253      CD7C7F16 
 253      F2DB
 254 0419 7AF28333 		.ascii	"z\362\2033&\367\232\202\257e\205\204\377\306\013\340"
 254      26F79A82 
 254      AF658584 
 254      FFC60BE0 
 255 0429 7A8D5D6F 		.ascii	"z\215]o\260\353-\270\246\233\235=W\364\221\330\316\""
 255      B0EB2DB8 
 255      A69B9D3D 
 255      57F491D8 
 255      CE22
 256 043b 71F161D3 		.ascii	"q\361a\323 \321\017\307#I\335\263\004\264c\306`\026"
 256      20D10FC7 
 256      2349DDB3 
 256      04B463C6 
 256      6016
 257 044d 61D5AA52 		.ascii	"a\325\252R\177>`\271\302\244\201\355\2351X\026\313\006"
 257      7F3E60B9 
ARM GAS  /tmp/ccPTb876.s 			page 20


 257      C2A481ED 
 257      9D315816 
 257      CB06
 258 045f F3012BB1 		.ascii	"\363\001+\261\260\314\252\3517*\011_b\307\220\313,\230"
 258      B0CCAAE9 
 258      372A095F 
 258      62C790CB 
 258      2C98
 259 0471 77D8F51E 		.ascii	"w\330\365\036\273N\262\353T>\341Mf\302\233\256o\274"
 259      BB4EB2EB 
 259      543EE14D 
 259      66C29BAE 
 259      6FBC
 260 0483 EC99EB5D 		.ascii	"\354\231\353]\216\3727\344\260<\251\\\2729\342\204\217"
 260      8EFA37E4 
 260      B03CA95C 
 260      BA39E284 
 260      8F
 261 0494 58A74A25 		.ascii	"X\247J%\240\023l\330Y\333\302\224\304\246\303\212Z\006"
 261      A0136CD8 
 261      59DBC294 
 261      C4A6C38A 
 261      5A06
 262 04a6 EFB29560 		.ascii	"\357\262\225`\257\246+\203\211\335\3537\253\207#\265"
 262      AFA62B83 
 262      89DDEB37 
 262      AB8723B5 
 263 04b6 14DECFA1 		.ascii	"\024\336\317\241\312\246\303\031\2733\025\364A>j\332"
 263      CAA6C319 
 263      BB3315F4 
 263      413E6ADA 
 264 04c6 911ACADF 		.ascii	"\221\032\312\337\332\036L\334\254\326!\256g\210[\233"
 264      DA1E4CDC 
 264      ACD621AE 
 264      67885B9B 
 265 04d6 30AD6A26 		.ascii	"0\255j&w%O\235\333T\326E\206\330'~\031I\354\300\246"
 265      77254F9D 
 265      DB54D645 
 265      86D8277E 
 265      1949ECC0 
 266 04eb CA096782 		.ascii	"\312\011g\202\351\354,\020\002\272N\177F\320n\356\301"
 266      E9EC2C10 
 266      02BA4E7F 
 266      46D06EEE 
 266      C1
 267 04fc 0D0FD0E3 		.ascii	"\015\017\320\343\250\325\271\231\024\232\023\247]\260"
 267      A8D5B999 
 267      149A13A7 
 267      5DB0
 268 050a 3D124978 		.ascii	"=\022Ix\271e\304M\021^\353\324G\230\023\267;uVt:\255"
 268      B965C44D 
 268      115EEBD4 
 268      479813B7 
 268      3B755674 
 269 0520 7E5048B7 		.ascii	"~PH\267\205\250\227\214\216&/\3755\352l\245\277k\320"
 269      85A8978C 
 269      8E262FFD 
ARM GAS  /tmp/ccPTb876.s 			page 21


 269      35EA6CA5 
 269      BF6BD0
 270 0533 D3028659 		.ascii	"\323\002\206Y\375\301r\372_\346p\012oY\003\021\037B"
 270      FDC172FA 
 270      5FE6700A 
 270      6F590311 
 270      1F42
 271 0545 5B25DA43 		.ascii	"[%\332C6$^\3204\351\326\366.\272O\340\344\276\007\253"
 271      36245ED0 
 271      34E9D6F6 
 271      2EBA4FE0 
 271      E4BE07AB 
 272 0559 954B3D6B 		.ascii	"\225K=k2\245k\231\267'\261ZZ\3243\016{{#\363\366:V\367"
 272      32A56B99 
 272      B727B15A 
 272      5AD4330E 
 272      7B7B23F3 
 273 0571 7EF5DB8F 		.ascii	"~\365\333\217\275\275\225y;\211\325\315Y\375`b\315\213"
 273      BDBD9579 
 273      3B89D5CD 
 273      59FD6062 
 273      CD8B
 274 0583 BA69EC07 		.ascii	"\272i\354\007\216\022\2577\035\371^}\344\371\2103\353"
 274      8E12AF37 
 274      1DF95E7D 
 274      E4F98833 
 274      EB
 275 0594 8820A447 		.ascii	"\210 \244G\014\352G\230J\003\215\222\335Z\355\025\212"
 275      0CEA4798 
 275      4A038D92 
 275      DD5AED15 
 275      8A
 276 05a5 4CB8BFB5 		.ascii	"L\270\277\265\226\3404\354a\013\342\016\003\361\230"
 276      96E034EC 
 276      610BE20E 
 276      03F198
 277 05b4 21292B83 		.ascii	"!)+\203\201:\261\272)P\027X\271\312W\361\\yEy\245(F"
 277      813AB1BA 
 277      29501758 
 277      B9CA57F1 
 277      5C794579 
 278 05cb E2629314 		.ascii	"\342b\223\024\024\351\253\270\022\223\245P\\\014\311"
 278      14E9ABB8 
 278      1293A550 
 278      5C0CC9
 279 05da 21DE2DF7 		.ascii	"!\336-\367\243*\033\245\230\"F#1%..\177\245\266\272"
 279      A32A1BA5 
 279      98224623 
 279      31252E2E 
 279      7FA5B6BA 
 280 05ee F66DD11F 		.ascii	"\366m\321\037\011E\003A9\026\027WTW\213\376&eMT\216"
 280      09450341 
 280      39161757 
 280      54578BFE 
 280      26654D54 
 281 0603 97372157 		.ascii	"\2277!W(\336\350S\334+^Z\355\255F\217\211\315\361\230"
 281      28DEE853 
ARM GAS  /tmp/ccPTb876.s 			page 22


 281      DC2B5E5A 
 281      EDAD468F 
 281      89CDF198 
 282 0617 1808FB83 		.ascii	"\030\010\373\203\315\365\262\030\226[T\332\372@X\201"
 282      CDF5B218 
 282      965B54DA 
 282      FA405881 
 283 0627 A105F0EF 		.ascii	"\241\005\360\357\331%>e\261\325\250\220\344o\012\204"
 283      D9253E65 
 283      B1D5A890 
 283      E46F0A84 
 284 0637 65D1572F 		.ascii	"e\321W/7H\315A\305\247\021x|>\256W\320\014\235\245>"
 284      3748CD41 
 284      C5A71178 
 284      7C3EAE57 
 284      D00C9DA5 
 285 064c 059EF09E 		.ascii	"\005\236\360\236#\332\254\010\201(\256s4\312\312\022"
 285      23DAAC08 
 285      8128AE73 
 285      34CACA12 
 286 065c 064BB11A 		.ascii	"\006K\261\032\375~Q\212\205\026\207#ay\261,\325\005"
 286      FD7E518A 
 286      85168723 
 286      6179B12C 
 286      D505
 287 066e C4CAF2A5 		.ascii	"\304\312\362\245\345K\322\224`\021\260\000\266;\036"
 287      E54BD294 
 287      6011B000 
 287      B63B1E
 288 067d 784706EB 		.ascii	"xG\006\353[b\001E\216\013uQ\034v\201c\352\343\017\341"
 288      5B620145 
 288      8E0B7551 
 288      1C768163 
 288      EAE30FE1 
 289 0691 CA26545C 		.ascii	"\312&T\\+\207\"\2615\253\330\003z\243\366^\253}\325"
 289      2B8722B1 
 289      35ABD803 
 289      7AA3F65E 
 289      AB7DD5
 290 06a4 C5089C14 		.ascii	"\305\010\234\024\332\361VHq\327574\3101'ew\310\221\270"
 290      DAF15648 
 290      71D73537 
 290      34C83127 
 290      6577C891 
 291 06b9 3BD2D010 		.ascii	";\322\320\020\227\225\342P|e\335\233\262_y1\034P\034"
 291      9795E250 
 291      7C65DD9B 
 291      B25F7931 
 291      1C501C
 292 06cc A178D4C6 		.ascii	"\241x\324\306\235\261@\270\221\272\023\246\027n\016"
 292      9DB140B8 
 292      91BA13A6 
 292      176E0E
 293 06db 060B1AC2 		.ascii	"\006\013\032\302\336xT\366\343\0127\230\343\217\256"
 293      DE7854F6 
 293      E30A3798 
 293      E38FAE
ARM GAS  /tmp/ccPTb876.s 			page 23


 294 06ea 81174A53 		.ascii	"\201\027JS,\322\342\014\312R\303\177\244\201[m"
 294      2CD2E20C 
 294      CA52C37F 
 294      A4815B6D 
 295              		.text
 296              		.section	.gnu.lto_.symtab.3e1cffef247e3811,"",%progbits
 297 0000 6D734F62 		.ascii	"msObjectInit\000\000\000\000\000\000\000\000\000\000"
 297      6A656374 
 297      496E6974 
 297      00000000 
 297      00000000 
 298 0016 0000DD00 		.ascii	"\000\000\335\000\000\000"
 298      0000
 299              		.text
 300              		.section	.gnu.lto_.opts,"",%progbits
 301 0000 272D6D63 		.ascii	"'-mcpu=cortex-m4' '-mno-thumb-interwork' '-mthumb' "
 301      70753D63 
 301      6F727465 
 301      782D6D34 
 301      2720272D 
 302 0033 272D6767 		.ascii	"'-ggdb' '-O0' '-fomit-frame-pointer' '-falign-funct"
 302      64622720 
 302      272D4F30 
 302      2720272D 
 302      666F6D69 
 303 0066 696F6E73 		.ascii	"ions=16' '-ffunction-sections' '-fdata-sections' '-"
 303      3D313627 
 303      20272D66 
 303      66756E63 
 303      74696F6E 
 304 0099 666E6F2D 		.ascii	"fno-common' '-flto'\000"
 304      636F6D6D 
 304      6F6E2720 
 304      272D666C 
 304      746F2700 
 305              		.text
 306              		.cfi_sections	.debug_frame
 307              		.section	.text.writes,"ax",%progbits
 308              		.align	2
 309              		.p2align 4,,15
 310              		.thumb
 311              		.thumb_func
 312              		.type	writes, %function
 313              	writes:
 314              	.LFB272:
 315              		.file 1 "lib/ChibiOS_16.1.4//os/hal/lib/streams/memstreams.c"
 316              		.loc 1 46 0
 317              		.cfi_startproc
 318              		@ args = 0, pretend = 0, frame = 24
 319              		@ frame_needed = 0, uses_anonymous_args = 0
 320 0000 00B5     		push	{lr}
 321              		.cfi_def_cfa_offset 4
 322              		.cfi_offset 14, -4
 323 0002 87B0     		sub	sp, sp, #28
 324              		.cfi_def_cfa_offset 32
 325 0004 0390     		str	r0, [sp, #12]
 326 0006 0291     		str	r1, [sp, #8]
ARM GAS  /tmp/ccPTb876.s 			page 24


 327 0008 0192     		str	r2, [sp, #4]
 328              		.loc 1 47 0
 329 000a 039B     		ldr	r3, [sp, #12]
 330 000c 0593     		str	r3, [sp, #20]
 331              		.loc 1 49 0
 332 000e 059B     		ldr	r3, [sp, #20]
 333 0010 9A68     		ldr	r2, [r3, #8]
 334 0012 059B     		ldr	r3, [sp, #20]
 335 0014 DB68     		ldr	r3, [r3, #12]
 336 0016 D21A     		subs	r2, r2, r3
 337 0018 019B     		ldr	r3, [sp, #4]
 338 001a 9A42     		cmp	r2, r3
 339 001c 05D2     		bcs	.L2
 340              		.loc 1 50 0
 341 001e 059B     		ldr	r3, [sp, #20]
 342 0020 9A68     		ldr	r2, [r3, #8]
 343 0022 059B     		ldr	r3, [sp, #20]
 344 0024 DB68     		ldr	r3, [r3, #12]
 345 0026 D31A     		subs	r3, r2, r3
 346 0028 0193     		str	r3, [sp, #4]
 347              	.L2:
 348              		.loc 1 51 0
 349 002a 059B     		ldr	r3, [sp, #20]
 350 002c 5A68     		ldr	r2, [r3, #4]
 351 002e 059B     		ldr	r3, [sp, #20]
 352 0030 DB68     		ldr	r3, [r3, #12]
 353 0032 1344     		add	r3, r3, r2
 354 0034 1846     		mov	r0, r3
 355 0036 0299     		ldr	r1, [sp, #8]
 356 0038 019A     		ldr	r2, [sp, #4]
 357 003a FFF7FEFF 		bl	memcpy
 358              		.loc 1 52 0
 359 003e 059B     		ldr	r3, [sp, #20]
 360 0040 DA68     		ldr	r2, [r3, #12]
 361 0042 019B     		ldr	r3, [sp, #4]
 362 0044 1A44     		add	r2, r2, r3
 363 0046 059B     		ldr	r3, [sp, #20]
 364 0048 DA60     		str	r2, [r3, #12]
 365              		.loc 1 53 0
 366 004a 019B     		ldr	r3, [sp, #4]
 367              		.loc 1 54 0
 368 004c 1846     		mov	r0, r3
 369 004e 07B0     		add	sp, sp, #28
 370              		@ sp needed
 371 0050 5DF804FB 		ldr	pc, [sp], #4
 372              		.cfi_endproc
 373              	.LFE272:
 374              		.size	writes, .-writes
 375              		.section	.text.reads,"ax",%progbits
 376              		.align	2
 377              		.p2align 4,,15
 378              		.thumb
 379              		.thumb_func
 380              		.type	reads, %function
 381              	reads:
 382              	.LFB273:
 383              		.loc 1 56 0
ARM GAS  /tmp/ccPTb876.s 			page 25


 384              		.cfi_startproc
 385              		@ args = 0, pretend = 0, frame = 24
 386              		@ frame_needed = 0, uses_anonymous_args = 0
 387 0000 00B5     		push	{lr}
 388              		.cfi_def_cfa_offset 4
 389              		.cfi_offset 14, -4
 390 0002 87B0     		sub	sp, sp, #28
 391              		.cfi_def_cfa_offset 32
 392 0004 0390     		str	r0, [sp, #12]
 393 0006 0291     		str	r1, [sp, #8]
 394 0008 0192     		str	r2, [sp, #4]
 395              		.loc 1 57 0
 396 000a 039B     		ldr	r3, [sp, #12]
 397 000c 0593     		str	r3, [sp, #20]
 398              		.loc 1 59 0
 399 000e 059B     		ldr	r3, [sp, #20]
 400 0010 DA68     		ldr	r2, [r3, #12]
 401 0012 059B     		ldr	r3, [sp, #20]
 402 0014 1B69     		ldr	r3, [r3, #16]
 403 0016 D21A     		subs	r2, r2, r3
 404 0018 019B     		ldr	r3, [sp, #4]
 405 001a 9A42     		cmp	r2, r3
 406 001c 05D2     		bcs	.L5
 407              		.loc 1 60 0
 408 001e 059B     		ldr	r3, [sp, #20]
 409 0020 DA68     		ldr	r2, [r3, #12]
 410 0022 059B     		ldr	r3, [sp, #20]
 411 0024 1B69     		ldr	r3, [r3, #16]
 412 0026 D31A     		subs	r3, r2, r3
 413 0028 0193     		str	r3, [sp, #4]
 414              	.L5:
 415              		.loc 1 61 0
 416 002a 059B     		ldr	r3, [sp, #20]
 417 002c 5A68     		ldr	r2, [r3, #4]
 418 002e 059B     		ldr	r3, [sp, #20]
 419 0030 1B69     		ldr	r3, [r3, #16]
 420 0032 1344     		add	r3, r3, r2
 421 0034 0298     		ldr	r0, [sp, #8]
 422 0036 1946     		mov	r1, r3
 423 0038 019A     		ldr	r2, [sp, #4]
 424 003a FFF7FEFF 		bl	memcpy
 425              		.loc 1 62 0
 426 003e 059B     		ldr	r3, [sp, #20]
 427 0040 1A69     		ldr	r2, [r3, #16]
 428 0042 019B     		ldr	r3, [sp, #4]
 429 0044 1A44     		add	r2, r2, r3
 430 0046 059B     		ldr	r3, [sp, #20]
 431 0048 1A61     		str	r2, [r3, #16]
 432              		.loc 1 63 0
 433 004a 019B     		ldr	r3, [sp, #4]
 434              		.loc 1 64 0
 435 004c 1846     		mov	r0, r3
 436 004e 07B0     		add	sp, sp, #28
 437              		@ sp needed
 438 0050 5DF804FB 		ldr	pc, [sp], #4
 439              		.cfi_endproc
 440              	.LFE273:
ARM GAS  /tmp/ccPTb876.s 			page 26


 441              		.size	reads, .-reads
 442 0054 AFF30080 		.section	.text.put,"ax",%progbits
 442      AFF30080 
 442      AFF30080 
 443              		.align	2
 444              		.p2align 4,,15
 445              		.thumb
 446              		.thumb_func
 447              		.type	put, %function
 448              	put:
 449              	.LFB274:
 450              		.loc 1 66 0
 451              		.cfi_startproc
 452              		@ args = 0, pretend = 0, frame = 16
 453              		@ frame_needed = 0, uses_anonymous_args = 0
 454              		@ link register save eliminated.
 455 0000 84B0     		sub	sp, sp, #16
 456              		.cfi_def_cfa_offset 16
 457 0002 0190     		str	r0, [sp, #4]
 458 0004 0B46     		mov	r3, r1
 459 0006 8DF80330 		strb	r3, [sp, #3]
 460              		.loc 1 67 0
 461 000a 019B     		ldr	r3, [sp, #4]
 462 000c 0393     		str	r3, [sp, #12]
 463              		.loc 1 69 0
 464 000e 039B     		ldr	r3, [sp, #12]
 465 0010 9A68     		ldr	r2, [r3, #8]
 466 0012 039B     		ldr	r3, [sp, #12]
 467 0014 DB68     		ldr	r3, [r3, #12]
 468 0016 9A42     		cmp	r2, r3
 469 0018 02D1     		bne	.L8
 470              		.loc 1 70 0
 471 001a 6FF00103 		mvn	r3, #1
 472 001e 0DE0     		b	.L9
 473              	.L8:
 474              		.loc 1 71 0
 475 0020 039B     		ldr	r3, [sp, #12]
 476 0022 5A68     		ldr	r2, [r3, #4]
 477 0024 039B     		ldr	r3, [sp, #12]
 478 0026 DB68     		ldr	r3, [r3, #12]
 479 0028 1344     		add	r3, r3, r2
 480 002a 9DF80320 		ldrb	r2, [sp, #3]
 481 002e 1A70     		strb	r2, [r3]
 482              		.loc 1 72 0
 483 0030 039B     		ldr	r3, [sp, #12]
 484 0032 DB68     		ldr	r3, [r3, #12]
 485 0034 5A1C     		adds	r2, r3, #1
 486 0036 039B     		ldr	r3, [sp, #12]
 487 0038 DA60     		str	r2, [r3, #12]
 488              		.loc 1 73 0
 489 003a 0023     		movs	r3, #0
 490              	.L9:
 491              		.loc 1 74 0
 492 003c 1846     		mov	r0, r3
 493 003e 04B0     		add	sp, sp, #16
 494              		@ sp needed
 495 0040 7047     		bx	lr
ARM GAS  /tmp/ccPTb876.s 			page 27


 496              		.cfi_endproc
 497              	.LFE274:
 498              		.size	put, .-put
 499 0042 00BFAFF3 		.section	.text.get,"ax",%progbits
 499      0080AFF3 
 499      0080AFF3 
 499      0080
 500              		.align	2
 501              		.p2align 4,,15
 502              		.thumb
 503              		.thumb_func
 504              		.type	get, %function
 505              	get:
 506              	.LFB275:
 507              		.loc 1 76 0
 508              		.cfi_startproc
 509              		@ args = 0, pretend = 0, frame = 16
 510              		@ frame_needed = 0, uses_anonymous_args = 0
 511              		@ link register save eliminated.
 512 0000 84B0     		sub	sp, sp, #16
 513              		.cfi_def_cfa_offset 16
 514 0002 0190     		str	r0, [sp, #4]
 515              		.loc 1 78 0
 516 0004 019B     		ldr	r3, [sp, #4]
 517 0006 0393     		str	r3, [sp, #12]
 518              		.loc 1 80 0
 519 0008 039B     		ldr	r3, [sp, #12]
 520 000a DA68     		ldr	r2, [r3, #12]
 521 000c 039B     		ldr	r3, [sp, #12]
 522 000e 1B69     		ldr	r3, [r3, #16]
 523 0010 9A42     		cmp	r2, r3
 524 0012 02D1     		bne	.L11
 525              		.loc 1 81 0
 526 0014 6FF00103 		mvn	r3, #1
 527 0018 0EE0     		b	.L12
 528              	.L11:
 529              		.loc 1 82 0
 530 001a 039B     		ldr	r3, [sp, #12]
 531 001c 5A68     		ldr	r2, [r3, #4]
 532 001e 039B     		ldr	r3, [sp, #12]
 533 0020 1B69     		ldr	r3, [r3, #16]
 534 0022 1344     		add	r3, r3, r2
 535 0024 1B78     		ldrb	r3, [r3]
 536 0026 8DF80B30 		strb	r3, [sp, #11]
 537              		.loc 1 83 0
 538 002a 039B     		ldr	r3, [sp, #12]
 539 002c 1B69     		ldr	r3, [r3, #16]
 540 002e 5A1C     		adds	r2, r3, #1
 541 0030 039B     		ldr	r3, [sp, #12]
 542 0032 1A61     		str	r2, [r3, #16]
 543              		.loc 1 84 0
 544 0034 9DF80B30 		ldrb	r3, [sp, #11]	@ zero_extendqisi2
 545              	.L12:
 546              		.loc 1 85 0
 547 0038 1846     		mov	r0, r3
 548 003a 04B0     		add	sp, sp, #16
 549              		@ sp needed
ARM GAS  /tmp/ccPTb876.s 			page 28


 550 003c 7047     		bx	lr
 551              		.cfi_endproc
 552              	.LFE275:
 553              		.size	get, .-get
 554 003e 00BF     		.section	.rodata.vmt,"a",%progbits
 555              		.align	2
 556              		.type	vmt, %object
 557              		.size	vmt, 16
 558              	vmt:
 559 0000 00000000 		.word	writes
 560 0004 00000000 		.word	reads
 561 0008 00000000 		.word	put
 562 000c 00000000 		.word	get
 563              		.section	.text.msObjectInit,"ax",%progbits
 564              		.align	2
 565              		.p2align 4,,15
 566              		.global	msObjectInit
 567              		.thumb
 568              		.thumb_func
 569              		.type	msObjectInit, %function
 570              	msObjectInit:
 571              	.LFB276:
 572              		.loc 1 104 0
 573              		.cfi_startproc
 574              		@ args = 0, pretend = 0, frame = 16
 575              		@ frame_needed = 0, uses_anonymous_args = 0
 576              		@ link register save eliminated.
 577 0000 84B0     		sub	sp, sp, #16
 578              		.cfi_def_cfa_offset 16
 579 0002 0390     		str	r0, [sp, #12]
 580 0004 0291     		str	r1, [sp, #8]
 581 0006 0192     		str	r2, [sp, #4]
 582 0008 0093     		str	r3, [sp]
 583              		.loc 1 106 0
 584 000a 039A     		ldr	r2, [sp, #12]
 585 000c 40F20003 		movw	r3, #:lower16:vmt
 586 0010 C0F20003 		movt	r3, #:upper16:vmt
 587 0014 1360     		str	r3, [r2]
 588              		.loc 1 107 0
 589 0016 039B     		ldr	r3, [sp, #12]
 590 0018 029A     		ldr	r2, [sp, #8]
 591 001a 5A60     		str	r2, [r3, #4]
 592              		.loc 1 108 0
 593 001c 039B     		ldr	r3, [sp, #12]
 594 001e 019A     		ldr	r2, [sp, #4]
 595 0020 9A60     		str	r2, [r3, #8]
 596              		.loc 1 109 0
 597 0022 039B     		ldr	r3, [sp, #12]
 598 0024 009A     		ldr	r2, [sp]
 599 0026 DA60     		str	r2, [r3, #12]
 600              		.loc 1 110 0
 601 0028 039B     		ldr	r3, [sp, #12]
 602 002a 0022     		movs	r2, #0
 603 002c 1A61     		str	r2, [r3, #16]
 604              		.loc 1 111 0
 605 002e 04B0     		add	sp, sp, #16
 606              		@ sp needed
ARM GAS  /tmp/ccPTb876.s 			page 29


 607 0030 7047     		bx	lr
 608              		.cfi_endproc
 609              	.LFE276:
 610              		.size	msObjectInit, .-msObjectInit
 611 0032 00BFAFF3 		.text
 611      0080AFF3 
 611      0080AFF3 
 611      0080
 612              	.Letext0:
 613              		.file 2 "/usr/lib/gcc/arm-none-eabi/4.8.2/include/stddef.h"
 614              		.file 3 "/usr/include/newlib/machine/_default_types.h"
 615              		.file 4 "/usr/include/newlib/stdint.h"
 616              		.file 5 "lib/ChibiOS_16.1.4//os/rt/ports/ARMCMx/compilers/GCC/chtypes.h"
 617              		.file 6 "lib/ChibiOS_16.1.4//os/rt/include/chsystypes.h"
 618              		.file 7 "lib/ChibiOS_16.1.4//os/rt/include/chschd.h"
 619              		.file 8 "lib/ChibiOS_16.1.4//os/rt/ports/ARMCMx/chcore.h"
 620              		.file 9 "lib/ChibiOS_16.1.4//os/rt/ports/ARMCMx/chcore_v7m.h"
 621              		.file 10 "lib/ChibiOS_16.1.4//os/rt/include/chdebug.h"
 622              		.file 11 "lib/ChibiOS_16.1.4//os/rt/include/chtm.h"
 623              		.file 12 "lib/ChibiOS_16.1.4//os/rt/include/chstats.h"
 624              		.file 13 "lib/ChibiOS_16.1.4//os/rt/include/chsem.h"
 625              		.file 14 "lib/ChibiOS_16.1.4//os/rt/include/chmtx.h"
 626              		.file 15 "lib/ChibiOS_16.1.4//os/hal/lib/streams/memstreams.h"
 627              		.file 16 "lib/ChibiOS_16.1.4//os/ext/CMSIS/include/core_cm4.h"
 628              		.section	.debug_info,"",%progbits
 629              	.Ldebug_info0:
 630 0000 6D0A0000 		.4byte	0xa6d
 631 0004 0400     		.2byte	0x4
 632 0006 00000000 		.4byte	.Ldebug_abbrev0
 633 000a 04       		.byte	0x4
 634 000b 01       		.uleb128 0x1
 635 000c AE020000 		.4byte	.LASF139
 636 0010 01       		.byte	0x1
 637 0011 65010000 		.4byte	.LASF140
 638 0015 29010000 		.4byte	.LASF141
 639 0019 00000000 		.4byte	.Ldebug_ranges0+0
 640 001d 00000000 		.4byte	0
 641 0021 00000000 		.4byte	.Ldebug_line0
 642 0025 02       		.uleb128 0x2
 643 0026 04       		.byte	0x4
 644 0027 05       		.byte	0x5
 645 0028 696E7400 		.ascii	"int\000"
 646 002c 03       		.uleb128 0x3
 647 002d 1D000000 		.4byte	.LASF2
 648 0031 02       		.byte	0x2
 649 0032 D4       		.byte	0xd4
 650 0033 37000000 		.4byte	0x37
 651 0037 04       		.uleb128 0x4
 652 0038 04       		.byte	0x4
 653 0039 07       		.byte	0x7
 654 003a 2A020000 		.4byte	.LASF0
 655 003e 04       		.uleb128 0x4
 656 003f 01       		.byte	0x1
 657 0040 06       		.byte	0x6
 658 0041 1D010000 		.4byte	.LASF1
 659 0045 03       		.uleb128 0x3
 660 0046 41000000 		.4byte	.LASF3
ARM GAS  /tmp/ccPTb876.s 			page 30


 661 004a 03       		.byte	0x3
 662 004b 1C       		.byte	0x1c
 663 004c 50000000 		.4byte	0x50
 664 0050 04       		.uleb128 0x4
 665 0051 01       		.byte	0x1
 666 0052 08       		.byte	0x8
 667 0053 AD040000 		.4byte	.LASF4
 668 0057 04       		.uleb128 0x4
 669 0058 02       		.byte	0x2
 670 0059 05       		.byte	0x5
 671 005a CD040000 		.4byte	.LASF5
 672 005e 04       		.uleb128 0x4
 673 005f 02       		.byte	0x2
 674 0060 07       		.byte	0x7
 675 0061 5D020000 		.4byte	.LASF6
 676 0065 03       		.uleb128 0x3
 677 0066 7E030000 		.4byte	.LASF7
 678 006a 03       		.byte	0x3
 679 006b 37       		.byte	0x37
 680 006c 70000000 		.4byte	0x70
 681 0070 04       		.uleb128 0x4
 682 0071 04       		.byte	0x4
 683 0072 05       		.byte	0x5
 684 0073 99010000 		.4byte	.LASF8
 685 0077 03       		.uleb128 0x3
 686 0078 AF050000 		.4byte	.LASF9
 687 007c 03       		.byte	0x3
 688 007d 38       		.byte	0x38
 689 007e 82000000 		.4byte	0x82
 690 0082 04       		.uleb128 0x4
 691 0083 04       		.byte	0x4
 692 0084 07       		.byte	0x7
 693 0085 60050000 		.4byte	.LASF10
 694 0089 04       		.uleb128 0x4
 695 008a 08       		.byte	0x8
 696 008b 05       		.byte	0x5
 697 008c 0F010000 		.4byte	.LASF11
 698 0090 03       		.uleb128 0x3
 699 0091 43040000 		.4byte	.LASF12
 700 0095 03       		.byte	0x3
 701 0096 4E       		.byte	0x4e
 702 0097 9B000000 		.4byte	0x9b
 703 009b 04       		.uleb128 0x4
 704 009c 08       		.byte	0x8
 705 009d 07       		.byte	0x7
 706 009e 90000000 		.4byte	.LASF13
 707 00a2 04       		.uleb128 0x4
 708 00a3 04       		.byte	0x4
 709 00a4 07       		.byte	0x7
 710 00a5 B0030000 		.4byte	.LASF14
 711 00a9 05       		.uleb128 0x5
 712 00aa 04       		.byte	0x4
 713 00ab 04       		.uleb128 0x4
 714 00ac 01       		.byte	0x1
 715 00ad 08       		.byte	0x8
 716 00ae 77050000 		.4byte	.LASF15
 717 00b2 06       		.uleb128 0x6
ARM GAS  /tmp/ccPTb876.s 			page 31


 718 00b3 04       		.byte	0x4
 719 00b4 B8000000 		.4byte	0xb8
 720 00b8 07       		.uleb128 0x7
 721 00b9 AB000000 		.4byte	0xab
 722 00bd 03       		.uleb128 0x3
 723 00be 10060000 		.4byte	.LASF16
 724 00c2 04       		.byte	0x4
 725 00c3 2A       		.byte	0x2a
 726 00c4 45000000 		.4byte	0x45
 727 00c8 03       		.uleb128 0x3
 728 00c9 A5040000 		.4byte	.LASF17
 729 00cd 04       		.byte	0x4
 730 00ce 41       		.byte	0x41
 731 00cf 65000000 		.4byte	0x65
 732 00d3 03       		.uleb128 0x3
 733 00d4 2F050000 		.4byte	.LASF18
 734 00d8 04       		.byte	0x4
 735 00d9 42       		.byte	0x42
 736 00da 77000000 		.4byte	0x77
 737 00de 03       		.uleb128 0x3
 738 00df 2B000000 		.4byte	.LASF19
 739 00e3 04       		.byte	0x4
 740 00e4 4E       		.byte	0x4e
 741 00e5 90000000 		.4byte	0x90
 742 00e9 03       		.uleb128 0x3
 743 00ea D3050000 		.4byte	.LASF20
 744 00ee 05       		.byte	0x5
 745 00ef 39       		.byte	0x39
 746 00f0 D3000000 		.4byte	0xd3
 747 00f4 03       		.uleb128 0x3
 748 00f5 F9000000 		.4byte	.LASF21
 749 00f9 05       		.byte	0x5
 750 00fa 3A       		.byte	0x3a
 751 00fb DE000000 		.4byte	0xde
 752 00ff 03       		.uleb128 0x3
 753 0100 51030000 		.4byte	.LASF22
 754 0104 05       		.byte	0x5
 755 0105 3C       		.byte	0x3c
 756 0106 BD000000 		.4byte	0xbd
 757 010a 03       		.uleb128 0x3
 758 010b A2010000 		.4byte	.LASF23
 759 010f 05       		.byte	0x5
 760 0110 3D       		.byte	0x3d
 761 0111 BD000000 		.4byte	0xbd
 762 0115 03       		.uleb128 0x3
 763 0116 00000000 		.4byte	.LASF24
 764 011a 05       		.byte	0x5
 765 011b 3E       		.byte	0x3e
 766 011c BD000000 		.4byte	0xbd
 767 0120 03       		.uleb128 0x3
 768 0121 7A040000 		.4byte	.LASF25
 769 0125 05       		.byte	0x5
 770 0126 40       		.byte	0x40
 771 0127 D3000000 		.4byte	0xd3
 772 012b 03       		.uleb128 0x3
 773 012c 89020000 		.4byte	.LASF26
 774 0130 05       		.byte	0x5
ARM GAS  /tmp/ccPTb876.s 			page 32


 775 0131 41       		.byte	0x41
 776 0132 C8000000 		.4byte	0xc8
 777 0136 03       		.uleb128 0x3
 778 0137 72030000 		.4byte	.LASF27
 779 013b 05       		.byte	0x5
 780 013c 43       		.byte	0x43
 781 013d D3000000 		.4byte	0xd3
 782 0141 03       		.uleb128 0x3
 783 0142 19020000 		.4byte	.LASF28
 784 0146 05       		.byte	0x5
 785 0147 45       		.byte	0x45
 786 0148 C8000000 		.4byte	0xc8
 787 014c 03       		.uleb128 0x3
 788 014d 94020000 		.4byte	.LASF29
 789 0151 05       		.byte	0x5
 790 0152 46       		.byte	0x46
 791 0153 D3000000 		.4byte	0xd3
 792 0157 03       		.uleb128 0x3
 793 0158 91050000 		.4byte	.LASF30
 794 015c 06       		.byte	0x6
 795 015d 33       		.byte	0x33
 796 015e D3000000 		.4byte	0xd3
 797 0162 03       		.uleb128 0x3
 798 0163 7C050000 		.4byte	.LASF31
 799 0167 06       		.byte	0x6
 800 0168 3F       		.byte	0x3f
 801 0169 6D010000 		.4byte	0x16d
 802 016d 08       		.uleb128 0x8
 803 016e 7F020000 		.4byte	.LASF53
 804 0172 60       		.byte	0x60
 805 0173 07       		.byte	0x7
 806 0174 C2       		.byte	0xc2
 807 0175 73020000 		.4byte	0x273
 808 0179 09       		.uleb128 0x9
 809 017a E5040000 		.4byte	.LASF32
 810 017e 07       		.byte	0x7
 811 017f C3       		.byte	0xc3
 812 0180 7E020000 		.4byte	0x27e
 813 0184 00       		.byte	0
 814 0185 09       		.uleb128 0x9
 815 0186 73040000 		.4byte	.LASF33
 816 018a 07       		.byte	0x7
 817 018b C5       		.byte	0xc5
 818 018c 7E020000 		.4byte	0x27e
 819 0190 04       		.byte	0x4
 820 0191 09       		.uleb128 0x9
 821 0192 02010000 		.4byte	.LASF34
 822 0196 07       		.byte	0x7
 823 0197 C7       		.byte	0xc7
 824 0198 20010000 		.4byte	0x120
 825 019c 08       		.byte	0x8
 826 019d 09       		.uleb128 0x9
 827 019e 63060000 		.4byte	.LASF35
 828 01a2 07       		.byte	0x7
 829 01a3 C8       		.byte	0xc8
 830 01a4 DE040000 		.4byte	0x4de
 831 01a8 0C       		.byte	0xc
ARM GAS  /tmp/ccPTb876.s 			page 33


 832 01a9 09       		.uleb128 0x9
 833 01aa B8010000 		.4byte	.LASF36
 834 01ae 07       		.byte	0x7
 835 01af CA       		.byte	0xca
 836 01b0 7E020000 		.4byte	0x27e
 837 01b4 10       		.byte	0x10
 838 01b5 09       		.uleb128 0x9
 839 01b6 05040000 		.4byte	.LASF37
 840 01ba 07       		.byte	0x7
 841 01bb CB       		.byte	0xcb
 842 01bc 7E020000 		.4byte	0x27e
 843 01c0 14       		.byte	0x14
 844 01c1 09       		.uleb128 0x9
 845 01c2 8F040000 		.4byte	.LASF38
 846 01c6 07       		.byte	0x7
 847 01c7 D2       		.byte	0xd2
 848 01c8 B2000000 		.4byte	0xb2
 849 01cc 18       		.byte	0x18
 850 01cd 09       		.uleb128 0x9
 851 01ce 1F020000 		.4byte	.LASF39
 852 01d2 07       		.byte	0x7
 853 01d3 D8       		.byte	0xd8
 854 01d4 82070000 		.4byte	0x782
 855 01d8 1C       		.byte	0x1c
 856 01d9 09       		.uleb128 0x9
 857 01da BB040000 		.4byte	.LASF40
 858 01de 07       		.byte	0x7
 859 01df DD       		.byte	0xdd
 860 01e0 0A010000 		.4byte	0x10a
 861 01e4 20       		.byte	0x20
 862 01e5 09       		.uleb128 0x9
 863 01e6 EC040000 		.4byte	.LASF41
 864 01ea 07       		.byte	0x7
 865 01eb E1       		.byte	0xe1
 866 01ec FF000000 		.4byte	0xff
 867 01f0 21       		.byte	0x21
 868 01f1 09       		.uleb128 0x9
 869 01f2 FB050000 		.4byte	.LASF42
 870 01f6 07       		.byte	0x7
 871 01f7 E6       		.byte	0xe6
 872 01f8 15010000 		.4byte	0x115
 873 01fc 22       		.byte	0x22
 874 01fd 0A       		.uleb128 0xa
 875 01fe 705F7500 		.ascii	"p_u\000"
 876 0202 07       		.byte	0x7
 877 0203 3101     		.2byte	0x131
 878 0205 BD060000 		.4byte	0x6bd
 879 0209 24       		.byte	0x24
 880 020a 0B       		.uleb128 0xb
 881 020b A6030000 		.4byte	.LASF43
 882 020f 07       		.byte	0x7
 883 0210 3601     		.2byte	0x136
 884 0212 84020000 		.4byte	0x284
 885 0216 28       		.byte	0x28
 886 0217 0B       		.uleb128 0xb
 887 0218 46020000 		.4byte	.LASF44
 888 021c 07       		.byte	0x7
ARM GAS  /tmp/ccPTb876.s 			page 34


 889 021d 3C01     		.2byte	0x13c
 890 021f A8020000 		.4byte	0x2a8
 891 0223 2C       		.byte	0x2c
 892 0224 0B       		.uleb128 0xb
 893 0225 40060000 		.4byte	.LASF45
 894 0229 07       		.byte	0x7
 895 022a 4001     		.2byte	0x140
 896 022c 2B010000 		.4byte	0x12b
 897 0230 34       		.byte	0x34
 898 0231 0B       		.uleb128 0xb
 899 0232 24050000 		.4byte	.LASF46
 900 0236 07       		.byte	0x7
 901 0237 4601     		.2byte	0x146
 902 0239 36010000 		.4byte	0x136
 903 023d 38       		.byte	0x38
 904 023e 0B       		.uleb128 0xb
 905 023f C3040000 		.4byte	.LASF47
 906 0243 07       		.byte	0x7
 907 0244 4D01     		.2byte	0x14d
 908 0246 7C070000 		.4byte	0x77c
 909 024a 3C       		.byte	0x3c
 910 024b 0B       		.uleb128 0xb
 911 024c 9B050000 		.4byte	.LASF48
 912 0250 07       		.byte	0x7
 913 0251 5101     		.2byte	0x151
 914 0253 20010000 		.4byte	0x120
 915 0257 40       		.byte	0x40
 916 0258 0B       		.uleb128 0xb
 917 0259 48010000 		.4byte	.LASF49
 918 025d 07       		.byte	0x7
 919 025e 5801     		.2byte	0x158
 920 0260 A9000000 		.4byte	0xa9
 921 0264 44       		.byte	0x44
 922 0265 0B       		.uleb128 0xb
 923 0266 F4040000 		.4byte	.LASF50
 924 026a 07       		.byte	0x7
 925 026b 5E01     		.2byte	0x15e
 926 026d 6E060000 		.4byte	0x66e
 927 0271 48       		.byte	0x48
 928 0272 00       		.byte	0
 929 0273 03       		.uleb128 0x3
 930 0274 B9030000 		.4byte	.LASF51
 931 0278 06       		.byte	0x6
 932 0279 44       		.byte	0x44
 933 027a 7E020000 		.4byte	0x27e
 934 027e 06       		.uleb128 0x6
 935 027f 04       		.byte	0x4
 936 0280 62010000 		.4byte	0x162
 937 0284 03       		.uleb128 0x3
 938 0285 24060000 		.4byte	.LASF52
 939 0289 06       		.byte	0x6
 940 028a 49       		.byte	0x49
 941 028b 8F020000 		.4byte	0x28f
 942 028f 08       		.uleb128 0x8
 943 0290 50050000 		.4byte	.LASF54
 944 0294 04       		.byte	0x4
 945 0295 07       		.byte	0x7
ARM GAS  /tmp/ccPTb876.s 			page 35


 946 0296 B0       		.byte	0xb0
 947 0297 A8020000 		.4byte	0x2a8
 948 029b 09       		.uleb128 0x9
 949 029c E5040000 		.4byte	.LASF32
 950 02a0 07       		.byte	0x7
 951 02a1 B1       		.byte	0xb1
 952 02a2 7E020000 		.4byte	0x27e
 953 02a6 00       		.byte	0
 954 02a7 00       		.byte	0
 955 02a8 03       		.uleb128 0x3
 956 02a9 E2050000 		.4byte	.LASF55
 957 02ad 06       		.byte	0x6
 958 02ae 50       		.byte	0x50
 959 02af B3020000 		.4byte	0x2b3
 960 02b3 08       		.uleb128 0x8
 961 02b4 57000000 		.4byte	.LASF56
 962 02b8 08       		.byte	0x8
 963 02b9 07       		.byte	0x7
 964 02ba B7       		.byte	0xb7
 965 02bb D8020000 		.4byte	0x2d8
 966 02bf 09       		.uleb128 0x9
 967 02c0 E5040000 		.4byte	.LASF32
 968 02c4 07       		.byte	0x7
 969 02c5 B8       		.byte	0xb8
 970 02c6 7E020000 		.4byte	0x27e
 971 02ca 00       		.byte	0
 972 02cb 09       		.uleb128 0x9
 973 02cc 73040000 		.4byte	.LASF33
 974 02d0 07       		.byte	0x7
 975 02d1 B9       		.byte	0xb9
 976 02d2 7E020000 		.4byte	0x27e
 977 02d6 04       		.byte	0x4
 978 02d7 00       		.byte	0
 979 02d8 03       		.uleb128 0x3
 980 02d9 08000000 		.4byte	.LASF57
 981 02dd 06       		.byte	0x6
 982 02de 57       		.byte	0x57
 983 02df E3020000 		.4byte	0x2e3
 984 02e3 0C       		.uleb128 0xc
 985 02e4 64030000 		.4byte	.LASF58
 986 02e8 1C       		.byte	0x1c
 987 02e9 07       		.byte	0x7
 988 02ea 9001     		.2byte	0x190
 989 02ec 3F030000 		.4byte	0x33f
 990 02f0 0B       		.uleb128 0xb
 991 02f1 3F050000 		.4byte	.LASF59
 992 02f5 07       		.byte	0x7
 993 02f6 9101     		.2byte	0x191
 994 02f8 A8020000 		.4byte	0x2a8
 995 02fc 00       		.byte	0
 996 02fd 0B       		.uleb128 0xb
 997 02fe D7040000 		.4byte	.LASF60
 998 0302 07       		.byte	0x7
 999 0303 9201     		.2byte	0x192
 1000 0305 20010000 		.4byte	0x120
 1001 0309 08       		.byte	0x8
 1002 030a 0B       		.uleb128 0xb
ARM GAS  /tmp/ccPTb876.s 			page 36


 1003 030b 0D040000 		.4byte	.LASF61
 1004 030f 07       		.byte	0x7
 1005 0310 9401     		.2byte	0x194
 1006 0312 DE040000 		.4byte	0x4de
 1007 0316 0C       		.byte	0xc
 1008 0317 0B       		.uleb128 0xb
 1009 0318 D0010000 		.4byte	.LASF62
 1010 031c 07       		.byte	0x7
 1011 031d 9701     		.2byte	0x197
 1012 031f 7E020000 		.4byte	0x27e
 1013 0323 10       		.byte	0x10
 1014 0324 0B       		.uleb128 0xb
 1015 0325 2E040000 		.4byte	.LASF63
 1016 0329 07       		.byte	0x7
 1017 032a 9801     		.2byte	0x198
 1018 032c 7E020000 		.4byte	0x27e
 1019 0330 14       		.byte	0x14
 1020 0331 0B       		.uleb128 0xb
 1021 0332 24040000 		.4byte	.LASF64
 1022 0336 07       		.byte	0x7
 1023 0337 9B01     		.2byte	0x19b
 1024 0339 7E020000 		.4byte	0x27e
 1025 033d 18       		.byte	0x18
 1026 033e 00       		.byte	0
 1027 033f 03       		.uleb128 0x3
 1028 0340 A6050000 		.4byte	.LASF65
 1029 0344 06       		.byte	0x6
 1030 0345 5C       		.byte	0x5c
 1031 0346 4A030000 		.4byte	0x34a
 1032 034a 06       		.uleb128 0x6
 1033 034b 04       		.byte	0x4
 1034 034c 50030000 		.4byte	0x350
 1035 0350 0D       		.uleb128 0xd
 1036 0351 5B030000 		.4byte	0x35b
 1037 0355 0E       		.uleb128 0xe
 1038 0356 A9000000 		.4byte	0xa9
 1039 035a 00       		.byte	0
 1040 035b 03       		.uleb128 0x3
 1041 035c 63040000 		.4byte	.LASF66
 1042 0360 06       		.byte	0x6
 1043 0361 61       		.byte	0x61
 1044 0362 66030000 		.4byte	0x366
 1045 0366 0C       		.uleb128 0xc
 1046 0367 06050000 		.4byte	.LASF67
 1047 036b 14       		.byte	0x14
 1048 036c 07       		.byte	0x7
 1049 036d 6B01     		.2byte	0x16b
 1050 036f B5030000 		.4byte	0x3b5
 1051 0373 0B       		.uleb128 0xb
 1052 0374 37020000 		.4byte	.LASF68
 1053 0378 07       		.byte	0x7
 1054 0379 6C01     		.2byte	0x16c
 1055 037b 88070000 		.4byte	0x788
 1056 037f 00       		.byte	0
 1057 0380 0B       		.uleb128 0xb
 1058 0381 E1010000 		.4byte	.LASF69
 1059 0385 07       		.byte	0x7
ARM GAS  /tmp/ccPTb876.s 			page 37


 1060 0386 6D01     		.2byte	0x16d
 1061 0388 88070000 		.4byte	0x788
 1062 038c 04       		.byte	0x4
 1063 038d 0B       		.uleb128 0xb
 1064 038e 47050000 		.4byte	.LASF70
 1065 0392 07       		.byte	0x7
 1066 0393 6E01     		.2byte	0x16e
 1067 0395 57010000 		.4byte	0x157
 1068 0399 08       		.byte	0x8
 1069 039a 0B       		.uleb128 0xb
 1070 039b 69060000 		.4byte	.LASF71
 1071 039f 07       		.byte	0x7
 1072 03a0 6F01     		.2byte	0x16f
 1073 03a2 3F030000 		.4byte	0x33f
 1074 03a6 0C       		.byte	0xc
 1075 03a7 0B       		.uleb128 0xb
 1076 03a8 DB050000 		.4byte	.LASF72
 1077 03ac 07       		.byte	0x7
 1078 03ad 7101     		.2byte	0x171
 1079 03af A9000000 		.4byte	0xa9
 1080 03b3 10       		.byte	0x10
 1081 03b4 00       		.byte	0
 1082 03b5 03       		.uleb128 0x3
 1083 03b6 D6000000 		.4byte	.LASF73
 1084 03ba 06       		.byte	0x6
 1085 03bb 66       		.byte	0x66
 1086 03bc C0030000 		.4byte	0x3c0
 1087 03c0 0C       		.uleb128 0xc
 1088 03c1 CC030000 		.4byte	.LASF74
 1089 03c5 10       		.byte	0x10
 1090 03c6 07       		.byte	0x7
 1091 03c7 7B01     		.2byte	0x17b
 1092 03c9 02040000 		.4byte	0x402
 1093 03cd 0B       		.uleb128 0xb
 1094 03ce 37020000 		.4byte	.LASF68
 1095 03d2 07       		.byte	0x7
 1096 03d3 7C01     		.2byte	0x17c
 1097 03d5 88070000 		.4byte	0x788
 1098 03d9 00       		.byte	0
 1099 03da 0B       		.uleb128 0xb
 1100 03db E1010000 		.4byte	.LASF69
 1101 03df 07       		.byte	0x7
 1102 03e0 7E01     		.2byte	0x17e
 1103 03e2 88070000 		.4byte	0x788
 1104 03e6 04       		.byte	0x4
 1105 03e7 0B       		.uleb128 0xb
 1106 03e8 47050000 		.4byte	.LASF70
 1107 03ec 07       		.byte	0x7
 1108 03ed 8001     		.2byte	0x180
 1109 03ef 57010000 		.4byte	0x157
 1110 03f3 08       		.byte	0x8
 1111 03f4 0B       		.uleb128 0xb
 1112 03f5 F9030000 		.4byte	.LASF75
 1113 03f9 07       		.byte	0x7
 1114 03fa 8801     		.2byte	0x188
 1115 03fc 57010000 		.4byte	0x157
 1116 0400 0C       		.byte	0xc
ARM GAS  /tmp/ccPTb876.s 			page 38


 1117 0401 00       		.byte	0
 1118 0402 03       		.uleb128 0x3
 1119 0403 68000000 		.4byte	.LASF76
 1120 0407 06       		.byte	0x6
 1121 0408 6B       		.byte	0x6b
 1122 0409 0D040000 		.4byte	0x40d
 1123 040d 0F       		.uleb128 0xf
 1124 040e E9010000 		.4byte	.LASF77
 1125 0412 1404     		.2byte	0x414
 1126 0414 07       		.byte	0x7
 1127 0415 A201     		.2byte	0x1a2
 1128 0417 50040000 		.4byte	0x450
 1129 041b 0B       		.uleb128 0xb
 1130 041c BA050000 		.4byte	.LASF78
 1131 0420 07       		.byte	0x7
 1132 0421 AA01     		.2byte	0x1aa
 1133 0423 8E070000 		.4byte	0x78e
 1134 0427 00       		.byte	0
 1135 0428 0B       		.uleb128 0xb
 1136 0429 02060000 		.4byte	.LASF79
 1137 042d 07       		.byte	0x7
 1138 042e AF01     		.2byte	0x1af
 1139 0430 41010000 		.4byte	0x141
 1140 0434 04       		.byte	0x4
 1141 0435 0B       		.uleb128 0xb
 1142 0436 01020000 		.4byte	.LASF80
 1143 043a 07       		.byte	0x7
 1144 043b B301     		.2byte	0x1b3
 1145 043d 41010000 		.4byte	0x141
 1146 0441 08       		.byte	0x8
 1147 0442 0B       		.uleb128 0xb
 1148 0443 33060000 		.4byte	.LASF81
 1149 0447 07       		.byte	0x7
 1150 0448 B901     		.2byte	0x1b9
 1151 044a 00060000 		.4byte	0x600
 1152 044e 0C       		.byte	0xc
 1153 044f 00       		.byte	0
 1154 0450 03       		.uleb128 0x3
 1155 0451 9B020000 		.4byte	.LASF82
 1156 0455 06       		.byte	0x6
 1157 0456 70       		.byte	0x70
 1158 0457 5B040000 		.4byte	0x45b
 1159 045b 0F       		.uleb128 0xf
 1160 045c FC040000 		.4byte	.LASF83
 1161 0460 D805     		.2byte	0x5d8
 1162 0462 07       		.byte	0x7
 1163 0463 C201     		.2byte	0x1c2
 1164 0465 C8040000 		.4byte	0x4c8
 1165 0469 0B       		.uleb128 0xb
 1166 046a 0A060000 		.4byte	.LASF84
 1167 046e 07       		.byte	0x7
 1168 046f C601     		.2byte	0x1c6
 1169 0471 D8020000 		.4byte	0x2d8
 1170 0475 00       		.byte	0
 1171 0476 0B       		.uleb128 0xb
 1172 0477 58010000 		.4byte	.LASF85
 1173 047b 07       		.byte	0x7
ARM GAS  /tmp/ccPTb876.s 			page 39


 1174 047c CA01     		.2byte	0x1ca
 1175 047e B5030000 		.4byte	0x3b5
 1176 0482 1C       		.byte	0x1c
 1177 0483 0A       		.uleb128 0xa
 1178 0484 64626700 		.ascii	"dbg\000"
 1179 0488 07       		.byte	0x7
 1180 0489 CE01     		.2byte	0x1ce
 1181 048b 02040000 		.4byte	0x402
 1182 048f 2C       		.byte	0x2c
 1183 0490 10       		.uleb128 0x10
 1184 0491 CB000000 		.4byte	.LASF86
 1185 0495 07       		.byte	0x7
 1186 0496 D201     		.2byte	0x1d2
 1187 0498 62010000 		.4byte	0x162
 1188 049c 4004     		.2byte	0x440
 1189 049e 11       		.uleb128 0x11
 1190 049f 746D00   		.ascii	"tm\000"
 1191 04a2 07       		.byte	0x7
 1192 04a3 D701     		.2byte	0x1d7
 1193 04a5 20060000 		.4byte	0x620
 1194 04a9 A004     		.2byte	0x4a0
 1195 04ab 10       		.uleb128 0x10
 1196 04ac 34000000 		.4byte	.LASF87
 1197 04b0 07       		.byte	0x7
 1198 04b1 DD01     		.2byte	0x1dd
 1199 04b3 B2060000 		.4byte	0x6b2
 1200 04b7 A804     		.2byte	0x4a8
 1201 04b9 10       		.uleb128 0x10
 1202 04ba 0A020000 		.4byte	.LASF88
 1203 04be 07       		.byte	0x7
 1204 04bf E301     		.2byte	0x1e3
 1205 04c1 93070000 		.4byte	0x793
 1206 04c5 E004     		.2byte	0x4e0
 1207 04c7 00       		.byte	0
 1208 04c8 03       		.uleb128 0x3
 1209 04c9 D8010000 		.4byte	.LASF89
 1210 04cd 08       		.byte	0x8
 1211 04ce 65       		.byte	0x65
 1212 04cf A9000000 		.4byte	0xa9
 1213 04d3 03       		.uleb128 0x3
 1214 04d4 88030000 		.4byte	.LASF90
 1215 04d8 08       		.byte	0x8
 1216 04d9 6D       		.byte	0x6d
 1217 04da DE000000 		.4byte	0xde
 1218 04de 08       		.uleb128 0x8
 1219 04df CB050000 		.4byte	.LASF91
 1220 04e3 04       		.byte	0x4
 1221 04e4 08       		.byte	0x8
 1222 04e5 89       		.byte	0x89
 1223 04e6 F7040000 		.4byte	0x4f7
 1224 04ea 12       		.uleb128 0x12
 1225 04eb 72313300 		.ascii	"r13\000"
 1226 04ef 08       		.byte	0x8
 1227 04f0 8A       		.byte	0x8a
 1228 04f1 72050000 		.4byte	0x572
 1229 04f5 00       		.byte	0
 1230 04f6 00       		.byte	0
ARM GAS  /tmp/ccPTb876.s 			page 40


 1231 04f7 08       		.uleb128 0x8
 1232 04f8 4B000000 		.4byte	.LASF92
 1233 04fc 24       		.byte	0x24
 1234 04fd 09       		.byte	0x9
 1235 04fe FD       		.byte	0xfd
 1236 04ff 72050000 		.4byte	0x572
 1237 0503 0A       		.uleb128 0xa
 1238 0504 723400   		.ascii	"r4\000"
 1239 0507 09       		.byte	0x9
 1240 0508 1001     		.2byte	0x110
 1241 050a C8040000 		.4byte	0x4c8
 1242 050e 00       		.byte	0
 1243 050f 0A       		.uleb128 0xa
 1244 0510 723500   		.ascii	"r5\000"
 1245 0513 09       		.byte	0x9
 1246 0514 1101     		.2byte	0x111
 1247 0516 C8040000 		.4byte	0x4c8
 1248 051a 04       		.byte	0x4
 1249 051b 0A       		.uleb128 0xa
 1250 051c 723600   		.ascii	"r6\000"
 1251 051f 09       		.byte	0x9
 1252 0520 1201     		.2byte	0x112
 1253 0522 C8040000 		.4byte	0x4c8
 1254 0526 08       		.byte	0x8
 1255 0527 0A       		.uleb128 0xa
 1256 0528 723700   		.ascii	"r7\000"
 1257 052b 09       		.byte	0x9
 1258 052c 1301     		.2byte	0x113
 1259 052e C8040000 		.4byte	0x4c8
 1260 0532 0C       		.byte	0xc
 1261 0533 0A       		.uleb128 0xa
 1262 0534 723800   		.ascii	"r8\000"
 1263 0537 09       		.byte	0x9
 1264 0538 1401     		.2byte	0x114
 1265 053a C8040000 		.4byte	0x4c8
 1266 053e 10       		.byte	0x10
 1267 053f 0A       		.uleb128 0xa
 1268 0540 723900   		.ascii	"r9\000"
 1269 0543 09       		.byte	0x9
 1270 0544 1501     		.2byte	0x115
 1271 0546 C8040000 		.4byte	0x4c8
 1272 054a 14       		.byte	0x14
 1273 054b 0A       		.uleb128 0xa
 1274 054c 72313000 		.ascii	"r10\000"
 1275 0550 09       		.byte	0x9
 1276 0551 1601     		.2byte	0x116
 1277 0553 C8040000 		.4byte	0x4c8
 1278 0557 18       		.byte	0x18
 1279 0558 0A       		.uleb128 0xa
 1280 0559 72313100 		.ascii	"r11\000"
 1281 055d 09       		.byte	0x9
 1282 055e 1701     		.2byte	0x117
 1283 0560 C8040000 		.4byte	0x4c8
 1284 0564 1C       		.byte	0x1c
 1285 0565 0A       		.uleb128 0xa
 1286 0566 6C7200   		.ascii	"lr\000"
 1287 0569 09       		.byte	0x9
ARM GAS  /tmp/ccPTb876.s 			page 41


 1288 056a 1801     		.2byte	0x118
 1289 056c C8040000 		.4byte	0x4c8
 1290 0570 20       		.byte	0x20
 1291 0571 00       		.byte	0
 1292 0572 06       		.uleb128 0x6
 1293 0573 04       		.byte	0x4
 1294 0574 F7040000 		.4byte	0x4f7
 1295 0578 13       		.uleb128 0x13
 1296 0579 10       		.byte	0x10
 1297 057a 0A       		.byte	0xa
 1298 057b 51       		.byte	0x51
 1299 057c B1050000 		.4byte	0x5b1
 1300 0580 09       		.uleb128 0x9
 1301 0581 15000000 		.4byte	.LASF93
 1302 0585 0A       		.byte	0xa
 1303 0586 55       		.byte	0x55
 1304 0587 57010000 		.4byte	0x157
 1305 058b 00       		.byte	0
 1306 058c 09       		.uleb128 0x9
 1307 058d AB010000 		.4byte	.LASF94
 1308 0591 0A       		.byte	0xa
 1309 0592 59       		.byte	0x59
 1310 0593 7E020000 		.4byte	0x27e
 1311 0597 04       		.byte	0x4
 1312 0598 09       		.uleb128 0x9
 1313 0599 59060000 		.4byte	.LASF95
 1314 059d 0A       		.byte	0xa
 1315 059e 5D       		.byte	0x5d
 1316 059f A9000000 		.4byte	0xa9
 1317 05a3 08       		.byte	0x8
 1318 05a4 09       		.uleb128 0x9
 1319 05a5 B9000000 		.4byte	.LASF96
 1320 05a9 0A       		.byte	0xa
 1321 05aa 61       		.byte	0x61
 1322 05ab BD000000 		.4byte	0xbd
 1323 05af 0C       		.byte	0xc
 1324 05b0 00       		.byte	0
 1325 05b1 03       		.uleb128 0x3
 1326 05b2 EA030000 		.4byte	.LASF97
 1327 05b6 0A       		.byte	0xa
 1328 05b7 62       		.byte	0x62
 1329 05b8 78050000 		.4byte	0x578
 1330 05bc 14       		.uleb128 0x14
 1331 05bd 0804     		.2byte	0x408
 1332 05bf 0A       		.byte	0xa
 1333 05c0 67       		.byte	0x67
 1334 05c1 EA050000 		.4byte	0x5ea
 1335 05c5 09       		.uleb128 0x9
 1336 05c6 C8010000 		.4byte	.LASF98
 1337 05ca 0A       		.byte	0xa
 1338 05cb 6B       		.byte	0x6b
 1339 05cc 37000000 		.4byte	0x37
 1340 05d0 00       		.byte	0
 1341 05d1 09       		.uleb128 0x9
 1342 05d2 E3030000 		.4byte	.LASF99
 1343 05d6 0A       		.byte	0xa
 1344 05d7 6F       		.byte	0x6f
ARM GAS  /tmp/ccPTb876.s 			page 42


 1345 05d8 EA050000 		.4byte	0x5ea
 1346 05dc 04       		.byte	0x4
 1347 05dd 09       		.uleb128 0x9
 1348 05de 59040000 		.4byte	.LASF100
 1349 05e2 0A       		.byte	0xa
 1350 05e3 73       		.byte	0x73
 1351 05e4 F0050000 		.4byte	0x5f0
 1352 05e8 08       		.byte	0x8
 1353 05e9 00       		.byte	0
 1354 05ea 06       		.uleb128 0x6
 1355 05eb 04       		.byte	0x4
 1356 05ec B1050000 		.4byte	0x5b1
 1357 05f0 15       		.uleb128 0x15
 1358 05f1 B1050000 		.4byte	0x5b1
 1359 05f5 00060000 		.4byte	0x600
 1360 05f9 16       		.uleb128 0x16
 1361 05fa A2000000 		.4byte	0xa2
 1362 05fe 3F       		.byte	0x3f
 1363 05ff 00       		.byte	0
 1364 0600 03       		.uleb128 0x3
 1365 0601 A7000000 		.4byte	.LASF101
 1366 0605 0A       		.byte	0xa
 1367 0606 74       		.byte	0x74
 1368 0607 BC050000 		.4byte	0x5bc
 1369 060b 13       		.uleb128 0x13
 1370 060c 04       		.byte	0x4
 1371 060d 0B       		.byte	0xb
 1372 060e 38       		.byte	0x38
 1373 060f 20060000 		.4byte	0x620
 1374 0613 09       		.uleb128 0x9
 1375 0614 C4050000 		.4byte	.LASF102
 1376 0618 0B       		.byte	0xb
 1377 0619 3C       		.byte	0x3c
 1378 061a E9000000 		.4byte	0xe9
 1379 061e 00       		.byte	0
 1380 061f 00       		.byte	0
 1381 0620 03       		.uleb128 0x3
 1382 0621 13040000 		.4byte	.LASF103
 1383 0625 0B       		.byte	0xb
 1384 0626 3D       		.byte	0x3d
 1385 0627 0B060000 		.4byte	0x60b
 1386 062b 13       		.uleb128 0x13
 1387 062c 18       		.byte	0x18
 1388 062d 0B       		.byte	0xb
 1389 062e 48       		.byte	0x48
 1390 062f 6E060000 		.4byte	0x66e
 1391 0633 09       		.uleb128 0x9
 1392 0634 85050000 		.4byte	.LASF104
 1393 0638 0B       		.byte	0xb
 1394 0639 49       		.byte	0x49
 1395 063a E9000000 		.4byte	0xe9
 1396 063e 00       		.byte	0
 1397 063f 09       		.uleb128 0x9
 1398 0640 77000000 		.4byte	.LASF105
 1399 0644 0B       		.byte	0xb
 1400 0645 4A       		.byte	0x4a
 1401 0646 E9000000 		.4byte	0xe9
ARM GAS  /tmp/ccPTb876.s 			page 43


 1402 064a 04       		.byte	0x4
 1403 064b 09       		.uleb128 0x9
 1404 064c 8F020000 		.4byte	.LASF106
 1405 0650 0B       		.byte	0xb
 1406 0651 4B       		.byte	0x4b
 1407 0652 E9000000 		.4byte	0xe9
 1408 0656 08       		.byte	0x8
 1409 0657 12       		.uleb128 0x12
 1410 0658 6E00     		.ascii	"n\000"
 1411 065a 0B       		.byte	0xb
 1412 065b 4C       		.byte	0x4c
 1413 065c 4C010000 		.4byte	0x14c
 1414 0660 0C       		.byte	0xc
 1415 0661 09       		.uleb128 0x9
 1416 0662 4E040000 		.4byte	.LASF107
 1417 0666 0B       		.byte	0xb
 1418 0667 4D       		.byte	0x4d
 1419 0668 F4000000 		.4byte	0xf4
 1420 066c 10       		.byte	0x10
 1421 066d 00       		.byte	0
 1422 066e 03       		.uleb128 0x3
 1423 066f 7D000000 		.4byte	.LASF108
 1424 0673 0B       		.byte	0xb
 1425 0674 4E       		.byte	0x4e
 1426 0675 2B060000 		.4byte	0x62b
 1427 0679 13       		.uleb128 0x13
 1428 067a 38       		.byte	0x38
 1429 067b 0C       		.byte	0xc
 1430 067c 38       		.byte	0x38
 1431 067d B2060000 		.4byte	0x6b2
 1432 0681 09       		.uleb128 0x9
 1433 0682 51020000 		.4byte	.LASF109
 1434 0686 0C       		.byte	0xc
 1435 0687 39       		.byte	0x39
 1436 0688 4C010000 		.4byte	0x14c
 1437 068c 00       		.byte	0
 1438 068d 09       		.uleb128 0x9
 1439 068e 96040000 		.4byte	.LASF110
 1440 0692 0C       		.byte	0xc
 1441 0693 3A       		.byte	0x3a
 1442 0694 4C010000 		.4byte	0x14c
 1443 0698 04       		.byte	0x4
 1444 0699 09       		.uleb128 0x9
 1445 069a 46060000 		.4byte	.LASF111
 1446 069e 0C       		.byte	0xc
 1447 069f 3B       		.byte	0x3b
 1448 06a0 6E060000 		.4byte	0x66e
 1449 06a4 08       		.byte	0x8
 1450 06a5 09       		.uleb128 0x9
 1451 06a6 59030000 		.4byte	.LASF112
 1452 06aa 0C       		.byte	0xc
 1453 06ab 3D       		.byte	0x3d
 1454 06ac 6E060000 		.4byte	0x66e
 1455 06b0 20       		.byte	0x20
 1456 06b1 00       		.byte	0
 1457 06b2 03       		.uleb128 0x3
 1458 06b3 70020000 		.4byte	.LASF113
ARM GAS  /tmp/ccPTb876.s 			page 44


 1459 06b7 0C       		.byte	0xc
 1460 06b8 3F       		.byte	0x3f
 1461 06b9 79060000 		.4byte	0x679
 1462 06bd 17       		.uleb128 0x17
 1463 06be 04       		.byte	0x4
 1464 06bf 07       		.byte	0x7
 1465 06c0 FA       		.byte	0xfa
 1466 06c1 1A070000 		.4byte	0x71a
 1467 06c5 18       		.uleb128 0x18
 1468 06c6 24000000 		.4byte	.LASF114
 1469 06ca 07       		.byte	0x7
 1470 06cb 0101     		.2byte	0x101
 1471 06cd 2B010000 		.4byte	0x12b
 1472 06d1 18       		.uleb128 0x18
 1473 06d2 C2000000 		.4byte	.LASF115
 1474 06d6 07       		.byte	0x7
 1475 06d7 0801     		.2byte	0x108
 1476 06d9 2B010000 		.4byte	0x12b
 1477 06dd 18       		.uleb128 0x18
 1478 06de 18060000 		.4byte	.LASF116
 1479 06e2 07       		.byte	0x7
 1480 06e3 0F01     		.2byte	0x10f
 1481 06e5 A9000000 		.4byte	0xa9
 1482 06e9 18       		.uleb128 0x18
 1483 06ea 5F010000 		.4byte	.LASF117
 1484 06ee 07       		.byte	0x7
 1485 06ef 1601     		.2byte	0x116
 1486 06f1 1A070000 		.4byte	0x71a
 1487 06f5 18       		.uleb128 0x18
 1488 06f6 3F020000 		.4byte	.LASF118
 1489 06fa 07       		.byte	0x7
 1490 06fb 1E01     		.2byte	0x11e
 1491 06fd 45070000 		.4byte	0x745
 1492 0701 18       		.uleb128 0x18
 1493 0702 38050000 		.4byte	.LASF119
 1494 0706 07       		.byte	0x7
 1495 0707 2701     		.2byte	0x127
 1496 0709 7C070000 		.4byte	0x77c
 1497 070d 18       		.uleb128 0x18
 1498 070e DE040000 		.4byte	.LASF120
 1499 0712 07       		.byte	0x7
 1500 0713 2F01     		.2byte	0x12f
 1501 0715 36010000 		.4byte	0x136
 1502 0719 00       		.byte	0
 1503 071a 06       		.uleb128 0x6
 1504 071b 04       		.byte	0x4
 1505 071c 73020000 		.4byte	0x273
 1506 0720 08       		.uleb128 0x8
 1507 0721 17050000 		.4byte	.LASF121
 1508 0725 0C       		.byte	0xc
 1509 0726 0D       		.byte	0xd
 1510 0727 34       		.byte	0x34
 1511 0728 45070000 		.4byte	0x745
 1512 072c 09       		.uleb128 0x9
 1513 072d C0010000 		.4byte	.LASF122
 1514 0731 0D       		.byte	0xd
 1515 0732 35       		.byte	0x35
ARM GAS  /tmp/ccPTb876.s 			page 45


 1516 0733 A8020000 		.4byte	0x2a8
 1517 0737 00       		.byte	0
 1518 0738 09       		.uleb128 0x9
 1519 0739 57020000 		.4byte	.LASF123
 1520 073d 0D       		.byte	0xd
 1521 073e 37       		.byte	0x37
 1522 073f 41010000 		.4byte	0x141
 1523 0743 08       		.byte	0x8
 1524 0744 00       		.byte	0
 1525 0745 06       		.uleb128 0x6
 1526 0746 04       		.byte	0x4
 1527 0747 20070000 		.4byte	0x720
 1528 074b 08       		.uleb128 0x8
 1529 074c F2050000 		.4byte	.LASF124
 1530 0750 10       		.byte	0x10
 1531 0751 0E       		.byte	0xe
 1532 0752 39       		.byte	0x39
 1533 0753 7C070000 		.4byte	0x77c
 1534 0757 09       		.uleb128 0x9
 1535 0758 50010000 		.4byte	.LASF125
 1536 075c 0E       		.byte	0xe
 1537 075d 3A       		.byte	0x3a
 1538 075e A8020000 		.4byte	0x2a8
 1539 0762 00       		.byte	0
 1540 0763 09       		.uleb128 0x9
 1541 0764 51060000 		.4byte	.LASF126
 1542 0768 0E       		.byte	0xe
 1543 0769 3C       		.byte	0x3c
 1544 076a 7E020000 		.4byte	0x27e
 1545 076e 08       		.byte	0x8
 1546 076f 09       		.uleb128 0x9
 1547 0770 8A050000 		.4byte	.LASF127
 1548 0774 0E       		.byte	0xe
 1549 0775 3E       		.byte	0x3e
 1550 0776 AE070000 		.4byte	0x7ae
 1551 077a 0C       		.byte	0xc
 1552 077b 00       		.byte	0
 1553 077c 06       		.uleb128 0x6
 1554 077d 04       		.byte	0x4
 1555 077e 4B070000 		.4byte	0x74b
 1556 0782 06       		.uleb128 0x6
 1557 0783 04       		.byte	0x4
 1558 0784 D3040000 		.4byte	0x4d3
 1559 0788 06       		.uleb128 0x6
 1560 0789 04       		.byte	0x4
 1561 078a 5B030000 		.4byte	0x35b
 1562 078e 19       		.uleb128 0x19
 1563 078f B2000000 		.4byte	0xb2
 1564 0793 15       		.uleb128 0x15
 1565 0794 D3040000 		.4byte	0x4d3
 1566 0798 A3070000 		.4byte	0x7a3
 1567 079c 16       		.uleb128 0x16
 1568 079d A2000000 		.4byte	0xa2
 1569 07a1 1E       		.byte	0x1e
 1570 07a2 00       		.byte	0
 1571 07a3 03       		.uleb128 0x3
 1572 07a4 F9010000 		.4byte	.LASF128
ARM GAS  /tmp/ccPTb876.s 			page 46


 1573 07a8 0E       		.byte	0xe
 1574 07a9 34       		.byte	0x34
 1575 07aa 4B070000 		.4byte	0x74b
 1576 07ae 06       		.uleb128 0x6
 1577 07af 04       		.byte	0x4
 1578 07b0 A3070000 		.4byte	0x7a3
 1579 07b4 06       		.uleb128 0x6
 1580 07b5 04       		.byte	0x4
 1581 07b6 BD000000 		.4byte	0xbd
 1582 07ba 1A       		.uleb128 0x1a
 1583 07bb 2C000000 		.4byte	0x2c
 1584 07bf D3070000 		.4byte	0x7d3
 1585 07c3 0E       		.uleb128 0xe
 1586 07c4 A9000000 		.4byte	0xa9
 1587 07c8 0E       		.uleb128 0xe
 1588 07c9 D3070000 		.4byte	0x7d3
 1589 07cd 0E       		.uleb128 0xe
 1590 07ce 2C000000 		.4byte	0x2c
 1591 07d2 00       		.byte	0
 1592 07d3 06       		.uleb128 0x6
 1593 07d4 04       		.byte	0x4
 1594 07d5 D9070000 		.4byte	0x7d9
 1595 07d9 07       		.uleb128 0x7
 1596 07da BD000000 		.4byte	0xbd
 1597 07de 06       		.uleb128 0x6
 1598 07df 04       		.byte	0x4
 1599 07e0 BA070000 		.4byte	0x7ba
 1600 07e4 1A       		.uleb128 0x1a
 1601 07e5 2C000000 		.4byte	0x2c
 1602 07e9 FD070000 		.4byte	0x7fd
 1603 07ed 0E       		.uleb128 0xe
 1604 07ee A9000000 		.4byte	0xa9
 1605 07f2 0E       		.uleb128 0xe
 1606 07f3 B4070000 		.4byte	0x7b4
 1607 07f7 0E       		.uleb128 0xe
 1608 07f8 2C000000 		.4byte	0x2c
 1609 07fc 00       		.byte	0
 1610 07fd 06       		.uleb128 0x6
 1611 07fe 04       		.byte	0x4
 1612 07ff E4070000 		.4byte	0x7e4
 1613 0803 1A       		.uleb128 0x1a
 1614 0804 2B010000 		.4byte	0x12b
 1615 0808 17080000 		.4byte	0x817
 1616 080c 0E       		.uleb128 0xe
 1617 080d A9000000 		.4byte	0xa9
 1618 0811 0E       		.uleb128 0xe
 1619 0812 BD000000 		.4byte	0xbd
 1620 0816 00       		.byte	0
 1621 0817 06       		.uleb128 0x6
 1622 0818 04       		.byte	0x4
 1623 0819 03080000 		.4byte	0x803
 1624 081d 1A       		.uleb128 0x1a
 1625 081e 2B010000 		.4byte	0x12b
 1626 0822 2C080000 		.4byte	0x82c
 1627 0826 0E       		.uleb128 0xe
 1628 0827 A9000000 		.4byte	0xa9
 1629 082b 00       		.byte	0
ARM GAS  /tmp/ccPTb876.s 			page 47


 1630 082c 06       		.uleb128 0x6
 1631 082d 04       		.byte	0x4
 1632 082e 1D080000 		.4byte	0x81d
 1633 0832 04       		.uleb128 0x4
 1634 0833 01       		.byte	0x1
 1635 0834 02       		.byte	0x2
 1636 0835 9F040000 		.4byte	.LASF129
 1637 0839 08       		.uleb128 0x8
 1638 083a 36040000 		.4byte	.LASF130
 1639 083e 10       		.byte	0x10
 1640 083f 0F       		.byte	0xf
 1641 0840 3D       		.byte	0x3d
 1642 0841 76080000 		.4byte	0x876
 1643 0845 09       		.uleb128 0x9
 1644 0846 A0030000 		.4byte	.LASF131
 1645 084a 0F       		.byte	0xf
 1646 084b 3E       		.byte	0x3e
 1647 084c DE070000 		.4byte	0x7de
 1648 0850 00       		.byte	0
 1649 0851 09       		.uleb128 0x9
 1650 0852 72050000 		.4byte	.LASF132
 1651 0856 0F       		.byte	0xf
 1652 0857 3E       		.byte	0x3e
 1653 0858 FD070000 		.4byte	0x7fd
 1654 085c 04       		.byte	0x4
 1655 085d 12       		.uleb128 0x12
 1656 085e 70757400 		.ascii	"put\000"
 1657 0862 0F       		.byte	0xf
 1658 0863 3E       		.byte	0x3e
 1659 0864 17080000 		.4byte	0x817
 1660 0868 08       		.byte	0x8
 1661 0869 12       		.uleb128 0x12
 1662 086a 67657400 		.ascii	"get\000"
 1663 086e 0F       		.byte	0xf
 1664 086f 3E       		.byte	0x3e
 1665 0870 2C080000 		.4byte	0x82c
 1666 0874 0C       		.byte	0xc
 1667 0875 00       		.byte	0
 1668 0876 13       		.uleb128 0x13
 1669 0877 14       		.byte	0x14
 1670 0878 0F       		.byte	0xf
 1671 0879 46       		.byte	0x46
 1672 087a BB080000 		.4byte	0x8bb
 1673 087e 12       		.uleb128 0x12
 1674 087f 766D7400 		.ascii	"vmt\000"
 1675 0883 0F       		.byte	0xf
 1676 0884 48       		.byte	0x48
 1677 0885 BB080000 		.4byte	0x8bb
 1678 0889 00       		.byte	0
 1679 088a 09       		.uleb128 0x9
 1680 088b B1010000 		.4byte	.LASF133
 1681 088f 0F       		.byte	0xf
 1682 0890 49       		.byte	0x49
 1683 0891 B4070000 		.4byte	0x7b4
 1684 0895 04       		.byte	0x4
 1685 0896 09       		.uleb128 0x9
 1686 0897 1F060000 		.4byte	.LASF134
ARM GAS  /tmp/ccPTb876.s 			page 48


 1687 089b 0F       		.byte	0xf
 1688 089c 49       		.byte	0x49
 1689 089d 2C000000 		.4byte	0x2c
 1690 08a1 08       		.byte	0x8
 1691 08a2 12       		.uleb128 0x12
 1692 08a3 656F7300 		.ascii	"eos\000"
 1693 08a7 0F       		.byte	0xf
 1694 08a8 49       		.byte	0x49
 1695 08a9 2C000000 		.4byte	0x2c
 1696 08ad 0C       		.byte	0xc
 1697 08ae 09       		.uleb128 0x9
 1698 08af C4050000 		.4byte	.LASF102
 1699 08b3 0F       		.byte	0xf
 1700 08b4 49       		.byte	0x49
 1701 08b5 2C000000 		.4byte	0x2c
 1702 08b9 10       		.byte	0x10
 1703 08ba 00       		.byte	0
 1704 08bb 06       		.uleb128 0x6
 1705 08bc 04       		.byte	0x4
 1706 08bd C1080000 		.4byte	0x8c1
 1707 08c1 07       		.uleb128 0x7
 1708 08c2 39080000 		.4byte	0x839
 1709 08c6 03       		.uleb128 0x3
 1710 08c7 82040000 		.4byte	.LASF135
 1711 08cb 0F       		.byte	0xf
 1712 08cc 4A       		.byte	0x4a
 1713 08cd 76080000 		.4byte	0x876
 1714 08d1 1B       		.uleb128 0x1b
 1715 08d2 A7020000 		.4byte	.LASF136
 1716 08d6 01       		.byte	0x1
 1717 08d7 2E       		.byte	0x2e
 1718 08d8 2C000000 		.4byte	0x2c
 1719 08dc 00000000 		.4byte	.LFB272
 1720 08e0 54000000 		.4byte	.LFE272-.LFB272
 1721 08e4 01       		.uleb128 0x1
 1722 08e5 9C       		.byte	0x9c
 1723 08e6 1F090000 		.4byte	0x91f
 1724 08ea 1C       		.uleb128 0x1c
 1725 08eb 697000   		.ascii	"ip\000"
 1726 08ee 01       		.byte	0x1
 1727 08ef 2E       		.byte	0x2e
 1728 08f0 A9000000 		.4byte	0xa9
 1729 08f4 02       		.uleb128 0x2
 1730 08f5 91       		.byte	0x91
 1731 08f6 6C       		.sleb128 -20
 1732 08f7 1C       		.uleb128 0x1c
 1733 08f8 627000   		.ascii	"bp\000"
 1734 08fb 01       		.byte	0x1
 1735 08fc 2E       		.byte	0x2e
 1736 08fd D3070000 		.4byte	0x7d3
 1737 0901 02       		.uleb128 0x2
 1738 0902 91       		.byte	0x91
 1739 0903 68       		.sleb128 -24
 1740 0904 1C       		.uleb128 0x1c
 1741 0905 6E00     		.ascii	"n\000"
 1742 0907 01       		.byte	0x1
 1743 0908 2E       		.byte	0x2e
ARM GAS  /tmp/ccPTb876.s 			page 49


 1744 0909 2C000000 		.4byte	0x2c
 1745 090d 02       		.uleb128 0x2
 1746 090e 91       		.byte	0x91
 1747 090f 64       		.sleb128 -28
 1748 0910 1D       		.uleb128 0x1d
 1749 0911 6D737000 		.ascii	"msp\000"
 1750 0915 01       		.byte	0x1
 1751 0916 2F       		.byte	0x2f
 1752 0917 1F090000 		.4byte	0x91f
 1753 091b 02       		.uleb128 0x2
 1754 091c 91       		.byte	0x91
 1755 091d 74       		.sleb128 -12
 1756 091e 00       		.byte	0
 1757 091f 06       		.uleb128 0x6
 1758 0920 04       		.byte	0x4
 1759 0921 C6080000 		.4byte	0x8c6
 1760 0925 1B       		.uleb128 0x1b
 1761 0926 09010000 		.4byte	.LASF137
 1762 092a 01       		.byte	0x1
 1763 092b 38       		.byte	0x38
 1764 092c 2C000000 		.4byte	0x2c
 1765 0930 00000000 		.4byte	.LFB273
 1766 0934 54000000 		.4byte	.LFE273-.LFB273
 1767 0938 01       		.uleb128 0x1
 1768 0939 9C       		.byte	0x9c
 1769 093a 73090000 		.4byte	0x973
 1770 093e 1C       		.uleb128 0x1c
 1771 093f 697000   		.ascii	"ip\000"
 1772 0942 01       		.byte	0x1
 1773 0943 38       		.byte	0x38
 1774 0944 A9000000 		.4byte	0xa9
 1775 0948 02       		.uleb128 0x2
 1776 0949 91       		.byte	0x91
 1777 094a 6C       		.sleb128 -20
 1778 094b 1C       		.uleb128 0x1c
 1779 094c 627000   		.ascii	"bp\000"
 1780 094f 01       		.byte	0x1
 1781 0950 38       		.byte	0x38
 1782 0951 B4070000 		.4byte	0x7b4
 1783 0955 02       		.uleb128 0x2
 1784 0956 91       		.byte	0x91
 1785 0957 68       		.sleb128 -24
 1786 0958 1C       		.uleb128 0x1c
 1787 0959 6E00     		.ascii	"n\000"
 1788 095b 01       		.byte	0x1
 1789 095c 38       		.byte	0x38
 1790 095d 2C000000 		.4byte	0x2c
 1791 0961 02       		.uleb128 0x2
 1792 0962 91       		.byte	0x91
 1793 0963 64       		.sleb128 -28
 1794 0964 1D       		.uleb128 0x1d
 1795 0965 6D737000 		.ascii	"msp\000"
 1796 0969 01       		.byte	0x1
 1797 096a 39       		.byte	0x39
 1798 096b 1F090000 		.4byte	0x91f
 1799 096f 02       		.uleb128 0x2
 1800 0970 91       		.byte	0x91
ARM GAS  /tmp/ccPTb876.s 			page 50


 1801 0971 74       		.sleb128 -12
 1802 0972 00       		.byte	0
 1803 0973 1E       		.uleb128 0x1e
 1804 0974 70757400 		.ascii	"put\000"
 1805 0978 01       		.byte	0x1
 1806 0979 42       		.byte	0x42
 1807 097a 2B010000 		.4byte	0x12b
 1808 097e 00000000 		.4byte	.LFB274
 1809 0982 42000000 		.4byte	.LFE274-.LFB274
 1810 0986 01       		.uleb128 0x1
 1811 0987 9C       		.byte	0x9c
 1812 0988 B4090000 		.4byte	0x9b4
 1813 098c 1C       		.uleb128 0x1c
 1814 098d 697000   		.ascii	"ip\000"
 1815 0990 01       		.byte	0x1
 1816 0991 42       		.byte	0x42
 1817 0992 A9000000 		.4byte	0xa9
 1818 0996 02       		.uleb128 0x2
 1819 0997 91       		.byte	0x91
 1820 0998 74       		.sleb128 -12
 1821 0999 1C       		.uleb128 0x1c
 1822 099a 6200     		.ascii	"b\000"
 1823 099c 01       		.byte	0x1
 1824 099d 42       		.byte	0x42
 1825 099e BD000000 		.4byte	0xbd
 1826 09a2 02       		.uleb128 0x2
 1827 09a3 91       		.byte	0x91
 1828 09a4 73       		.sleb128 -13
 1829 09a5 1D       		.uleb128 0x1d
 1830 09a6 6D737000 		.ascii	"msp\000"
 1831 09aa 01       		.byte	0x1
 1832 09ab 43       		.byte	0x43
 1833 09ac 1F090000 		.4byte	0x91f
 1834 09b0 02       		.uleb128 0x2
 1835 09b1 91       		.byte	0x91
 1836 09b2 7C       		.sleb128 -4
 1837 09b3 00       		.byte	0
 1838 09b4 1E       		.uleb128 0x1e
 1839 09b5 67657400 		.ascii	"get\000"
 1840 09b9 01       		.byte	0x1
 1841 09ba 4C       		.byte	0x4c
 1842 09bb 2B010000 		.4byte	0x12b
 1843 09bf 00000000 		.4byte	.LFB275
 1844 09c3 3E000000 		.4byte	.LFE275-.LFB275
 1845 09c7 01       		.uleb128 0x1
 1846 09c8 9C       		.byte	0x9c
 1847 09c9 F5090000 		.4byte	0x9f5
 1848 09cd 1C       		.uleb128 0x1c
 1849 09ce 697000   		.ascii	"ip\000"
 1850 09d1 01       		.byte	0x1
 1851 09d2 4C       		.byte	0x4c
 1852 09d3 A9000000 		.4byte	0xa9
 1853 09d7 02       		.uleb128 0x2
 1854 09d8 91       		.byte	0x91
 1855 09d9 74       		.sleb128 -12
 1856 09da 1D       		.uleb128 0x1d
 1857 09db 6200     		.ascii	"b\000"
ARM GAS  /tmp/ccPTb876.s 			page 51


 1858 09dd 01       		.byte	0x1
 1859 09de 4D       		.byte	0x4d
 1860 09df BD000000 		.4byte	0xbd
 1861 09e3 02       		.uleb128 0x2
 1862 09e4 91       		.byte	0x91
 1863 09e5 7B       		.sleb128 -5
 1864 09e6 1D       		.uleb128 0x1d
 1865 09e7 6D737000 		.ascii	"msp\000"
 1866 09eb 01       		.byte	0x1
 1867 09ec 4E       		.byte	0x4e
 1868 09ed 1F090000 		.4byte	0x91f
 1869 09f1 02       		.uleb128 0x2
 1870 09f2 91       		.byte	0x91
 1871 09f3 7C       		.sleb128 -4
 1872 09f4 00       		.byte	0
 1873 09f5 1F       		.uleb128 0x1f
 1874 09f6 93030000 		.4byte	.LASF142
 1875 09fa 01       		.byte	0x1
 1876 09fb 67       		.byte	0x67
 1877 09fc 00000000 		.4byte	.LFB276
 1878 0a00 32000000 		.4byte	.LFE276-.LFB276
 1879 0a04 01       		.uleb128 0x1
 1880 0a05 9C       		.byte	0x9c
 1881 0a06 430A0000 		.4byte	0xa43
 1882 0a0a 1C       		.uleb128 0x1c
 1883 0a0b 6D737000 		.ascii	"msp\000"
 1884 0a0f 01       		.byte	0x1
 1885 0a10 67       		.byte	0x67
 1886 0a11 1F090000 		.4byte	0x91f
 1887 0a15 02       		.uleb128 0x2
 1888 0a16 91       		.byte	0x91
 1889 0a17 7C       		.sleb128 -4
 1890 0a18 20       		.uleb128 0x20
 1891 0a19 B1010000 		.4byte	.LASF133
 1892 0a1d 01       		.byte	0x1
 1893 0a1e 67       		.byte	0x67
 1894 0a1f B4070000 		.4byte	0x7b4
 1895 0a23 02       		.uleb128 0x2
 1896 0a24 91       		.byte	0x91
 1897 0a25 78       		.sleb128 -8
 1898 0a26 20       		.uleb128 0x20
 1899 0a27 1F060000 		.4byte	.LASF134
 1900 0a2b 01       		.byte	0x1
 1901 0a2c 68       		.byte	0x68
 1902 0a2d 2C000000 		.4byte	0x2c
 1903 0a31 02       		.uleb128 0x2
 1904 0a32 91       		.byte	0x91
 1905 0a33 74       		.sleb128 -12
 1906 0a34 1C       		.uleb128 0x1c
 1907 0a35 656F7300 		.ascii	"eos\000"
 1908 0a39 01       		.byte	0x1
 1909 0a3a 68       		.byte	0x68
 1910 0a3b 2C000000 		.4byte	0x2c
 1911 0a3f 02       		.uleb128 0x2
 1912 0a40 91       		.byte	0x91
 1913 0a41 70       		.sleb128 -16
 1914 0a42 00       		.byte	0
ARM GAS  /tmp/ccPTb876.s 			page 52


 1915 0a43 1D       		.uleb128 0x1d
 1916 0a44 766D7400 		.ascii	"vmt\000"
 1917 0a48 01       		.byte	0x1
 1918 0a49 57       		.byte	0x57
 1919 0a4a C1080000 		.4byte	0x8c1
 1920 0a4e 05       		.uleb128 0x5
 1921 0a4f 03       		.byte	0x3
 1922 0a50 00000000 		.4byte	vmt
 1923 0a54 21       		.uleb128 0x21
 1924 0a55 EC000000 		.4byte	.LASF138
 1925 0a59 10       		.byte	0x10
 1926 0a5a FA06     		.2byte	0x6fa
 1927 0a5c 600A0000 		.4byte	0xa60
 1928 0a60 19       		.uleb128 0x19
 1929 0a61 C8000000 		.4byte	0xc8
 1930 0a65 22       		.uleb128 0x22
 1931 0a66 636800   		.ascii	"ch\000"
 1932 0a69 07       		.byte	0x7
 1933 0a6a 0902     		.2byte	0x209
 1934 0a6c 50040000 		.4byte	0x450
 1935 0a70 00       		.byte	0
 1936              		.section	.debug_abbrev,"",%progbits
 1937              	.Ldebug_abbrev0:
 1938 0000 01       		.uleb128 0x1
 1939 0001 11       		.uleb128 0x11
 1940 0002 01       		.byte	0x1
 1941 0003 25       		.uleb128 0x25
 1942 0004 0E       		.uleb128 0xe
 1943 0005 13       		.uleb128 0x13
 1944 0006 0B       		.uleb128 0xb
 1945 0007 03       		.uleb128 0x3
 1946 0008 0E       		.uleb128 0xe
 1947 0009 1B       		.uleb128 0x1b
 1948 000a 0E       		.uleb128 0xe
 1949 000b 55       		.uleb128 0x55
 1950 000c 17       		.uleb128 0x17
 1951 000d 11       		.uleb128 0x11
 1952 000e 01       		.uleb128 0x1
 1953 000f 10       		.uleb128 0x10
 1954 0010 17       		.uleb128 0x17
 1955 0011 00       		.byte	0
 1956 0012 00       		.byte	0
 1957 0013 02       		.uleb128 0x2
 1958 0014 24       		.uleb128 0x24
 1959 0015 00       		.byte	0
 1960 0016 0B       		.uleb128 0xb
 1961 0017 0B       		.uleb128 0xb
 1962 0018 3E       		.uleb128 0x3e
 1963 0019 0B       		.uleb128 0xb
 1964 001a 03       		.uleb128 0x3
 1965 001b 08       		.uleb128 0x8
 1966 001c 00       		.byte	0
 1967 001d 00       		.byte	0
 1968 001e 03       		.uleb128 0x3
 1969 001f 16       		.uleb128 0x16
 1970 0020 00       		.byte	0
 1971 0021 03       		.uleb128 0x3
ARM GAS  /tmp/ccPTb876.s 			page 53


 1972 0022 0E       		.uleb128 0xe
 1973 0023 3A       		.uleb128 0x3a
 1974 0024 0B       		.uleb128 0xb
 1975 0025 3B       		.uleb128 0x3b
 1976 0026 0B       		.uleb128 0xb
 1977 0027 49       		.uleb128 0x49
 1978 0028 13       		.uleb128 0x13
 1979 0029 00       		.byte	0
 1980 002a 00       		.byte	0
 1981 002b 04       		.uleb128 0x4
 1982 002c 24       		.uleb128 0x24
 1983 002d 00       		.byte	0
 1984 002e 0B       		.uleb128 0xb
 1985 002f 0B       		.uleb128 0xb
 1986 0030 3E       		.uleb128 0x3e
 1987 0031 0B       		.uleb128 0xb
 1988 0032 03       		.uleb128 0x3
 1989 0033 0E       		.uleb128 0xe
 1990 0034 00       		.byte	0
 1991 0035 00       		.byte	0
 1992 0036 05       		.uleb128 0x5
 1993 0037 0F       		.uleb128 0xf
 1994 0038 00       		.byte	0
 1995 0039 0B       		.uleb128 0xb
 1996 003a 0B       		.uleb128 0xb
 1997 003b 00       		.byte	0
 1998 003c 00       		.byte	0
 1999 003d 06       		.uleb128 0x6
 2000 003e 0F       		.uleb128 0xf
 2001 003f 00       		.byte	0
 2002 0040 0B       		.uleb128 0xb
 2003 0041 0B       		.uleb128 0xb
 2004 0042 49       		.uleb128 0x49
 2005 0043 13       		.uleb128 0x13
 2006 0044 00       		.byte	0
 2007 0045 00       		.byte	0
 2008 0046 07       		.uleb128 0x7
 2009 0047 26       		.uleb128 0x26
 2010 0048 00       		.byte	0
 2011 0049 49       		.uleb128 0x49
 2012 004a 13       		.uleb128 0x13
 2013 004b 00       		.byte	0
 2014 004c 00       		.byte	0
 2015 004d 08       		.uleb128 0x8
 2016 004e 13       		.uleb128 0x13
 2017 004f 01       		.byte	0x1
 2018 0050 03       		.uleb128 0x3
 2019 0051 0E       		.uleb128 0xe
 2020 0052 0B       		.uleb128 0xb
 2021 0053 0B       		.uleb128 0xb
 2022 0054 3A       		.uleb128 0x3a
 2023 0055 0B       		.uleb128 0xb
 2024 0056 3B       		.uleb128 0x3b
 2025 0057 0B       		.uleb128 0xb
 2026 0058 01       		.uleb128 0x1
 2027 0059 13       		.uleb128 0x13
 2028 005a 00       		.byte	0
ARM GAS  /tmp/ccPTb876.s 			page 54


 2029 005b 00       		.byte	0
 2030 005c 09       		.uleb128 0x9
 2031 005d 0D       		.uleb128 0xd
 2032 005e 00       		.byte	0
 2033 005f 03       		.uleb128 0x3
 2034 0060 0E       		.uleb128 0xe
 2035 0061 3A       		.uleb128 0x3a
 2036 0062 0B       		.uleb128 0xb
 2037 0063 3B       		.uleb128 0x3b
 2038 0064 0B       		.uleb128 0xb
 2039 0065 49       		.uleb128 0x49
 2040 0066 13       		.uleb128 0x13
 2041 0067 38       		.uleb128 0x38
 2042 0068 0B       		.uleb128 0xb
 2043 0069 00       		.byte	0
 2044 006a 00       		.byte	0
 2045 006b 0A       		.uleb128 0xa
 2046 006c 0D       		.uleb128 0xd
 2047 006d 00       		.byte	0
 2048 006e 03       		.uleb128 0x3
 2049 006f 08       		.uleb128 0x8
 2050 0070 3A       		.uleb128 0x3a
 2051 0071 0B       		.uleb128 0xb
 2052 0072 3B       		.uleb128 0x3b
 2053 0073 05       		.uleb128 0x5
 2054 0074 49       		.uleb128 0x49
 2055 0075 13       		.uleb128 0x13
 2056 0076 38       		.uleb128 0x38
 2057 0077 0B       		.uleb128 0xb
 2058 0078 00       		.byte	0
 2059 0079 00       		.byte	0
 2060 007a 0B       		.uleb128 0xb
 2061 007b 0D       		.uleb128 0xd
 2062 007c 00       		.byte	0
 2063 007d 03       		.uleb128 0x3
 2064 007e 0E       		.uleb128 0xe
 2065 007f 3A       		.uleb128 0x3a
 2066 0080 0B       		.uleb128 0xb
 2067 0081 3B       		.uleb128 0x3b
 2068 0082 05       		.uleb128 0x5
 2069 0083 49       		.uleb128 0x49
 2070 0084 13       		.uleb128 0x13
 2071 0085 38       		.uleb128 0x38
 2072 0086 0B       		.uleb128 0xb
 2073 0087 00       		.byte	0
 2074 0088 00       		.byte	0
 2075 0089 0C       		.uleb128 0xc
 2076 008a 13       		.uleb128 0x13
 2077 008b 01       		.byte	0x1
 2078 008c 03       		.uleb128 0x3
 2079 008d 0E       		.uleb128 0xe
 2080 008e 0B       		.uleb128 0xb
 2081 008f 0B       		.uleb128 0xb
 2082 0090 3A       		.uleb128 0x3a
 2083 0091 0B       		.uleb128 0xb
 2084 0092 3B       		.uleb128 0x3b
 2085 0093 05       		.uleb128 0x5
ARM GAS  /tmp/ccPTb876.s 			page 55


 2086 0094 01       		.uleb128 0x1
 2087 0095 13       		.uleb128 0x13
 2088 0096 00       		.byte	0
 2089 0097 00       		.byte	0
 2090 0098 0D       		.uleb128 0xd
 2091 0099 15       		.uleb128 0x15
 2092 009a 01       		.byte	0x1
 2093 009b 27       		.uleb128 0x27
 2094 009c 19       		.uleb128 0x19
 2095 009d 01       		.uleb128 0x1
 2096 009e 13       		.uleb128 0x13
 2097 009f 00       		.byte	0
 2098 00a0 00       		.byte	0
 2099 00a1 0E       		.uleb128 0xe
 2100 00a2 05       		.uleb128 0x5
 2101 00a3 00       		.byte	0
 2102 00a4 49       		.uleb128 0x49
 2103 00a5 13       		.uleb128 0x13
 2104 00a6 00       		.byte	0
 2105 00a7 00       		.byte	0
 2106 00a8 0F       		.uleb128 0xf
 2107 00a9 13       		.uleb128 0x13
 2108 00aa 01       		.byte	0x1
 2109 00ab 03       		.uleb128 0x3
 2110 00ac 0E       		.uleb128 0xe
 2111 00ad 0B       		.uleb128 0xb
 2112 00ae 05       		.uleb128 0x5
 2113 00af 3A       		.uleb128 0x3a
 2114 00b0 0B       		.uleb128 0xb
 2115 00b1 3B       		.uleb128 0x3b
 2116 00b2 05       		.uleb128 0x5
 2117 00b3 01       		.uleb128 0x1
 2118 00b4 13       		.uleb128 0x13
 2119 00b5 00       		.byte	0
 2120 00b6 00       		.byte	0
 2121 00b7 10       		.uleb128 0x10
 2122 00b8 0D       		.uleb128 0xd
 2123 00b9 00       		.byte	0
 2124 00ba 03       		.uleb128 0x3
 2125 00bb 0E       		.uleb128 0xe
 2126 00bc 3A       		.uleb128 0x3a
 2127 00bd 0B       		.uleb128 0xb
 2128 00be 3B       		.uleb128 0x3b
 2129 00bf 05       		.uleb128 0x5
 2130 00c0 49       		.uleb128 0x49
 2131 00c1 13       		.uleb128 0x13
 2132 00c2 38       		.uleb128 0x38
 2133 00c3 05       		.uleb128 0x5
 2134 00c4 00       		.byte	0
 2135 00c5 00       		.byte	0
 2136 00c6 11       		.uleb128 0x11
 2137 00c7 0D       		.uleb128 0xd
 2138 00c8 00       		.byte	0
 2139 00c9 03       		.uleb128 0x3
 2140 00ca 08       		.uleb128 0x8
 2141 00cb 3A       		.uleb128 0x3a
 2142 00cc 0B       		.uleb128 0xb
ARM GAS  /tmp/ccPTb876.s 			page 56


 2143 00cd 3B       		.uleb128 0x3b
 2144 00ce 05       		.uleb128 0x5
 2145 00cf 49       		.uleb128 0x49
 2146 00d0 13       		.uleb128 0x13
 2147 00d1 38       		.uleb128 0x38
 2148 00d2 05       		.uleb128 0x5
 2149 00d3 00       		.byte	0
 2150 00d4 00       		.byte	0
 2151 00d5 12       		.uleb128 0x12
 2152 00d6 0D       		.uleb128 0xd
 2153 00d7 00       		.byte	0
 2154 00d8 03       		.uleb128 0x3
 2155 00d9 08       		.uleb128 0x8
 2156 00da 3A       		.uleb128 0x3a
 2157 00db 0B       		.uleb128 0xb
 2158 00dc 3B       		.uleb128 0x3b
 2159 00dd 0B       		.uleb128 0xb
 2160 00de 49       		.uleb128 0x49
 2161 00df 13       		.uleb128 0x13
 2162 00e0 38       		.uleb128 0x38
 2163 00e1 0B       		.uleb128 0xb
 2164 00e2 00       		.byte	0
 2165 00e3 00       		.byte	0
 2166 00e4 13       		.uleb128 0x13
 2167 00e5 13       		.uleb128 0x13
 2168 00e6 01       		.byte	0x1
 2169 00e7 0B       		.uleb128 0xb
 2170 00e8 0B       		.uleb128 0xb
 2171 00e9 3A       		.uleb128 0x3a
 2172 00ea 0B       		.uleb128 0xb
 2173 00eb 3B       		.uleb128 0x3b
 2174 00ec 0B       		.uleb128 0xb
 2175 00ed 01       		.uleb128 0x1
 2176 00ee 13       		.uleb128 0x13
 2177 00ef 00       		.byte	0
 2178 00f0 00       		.byte	0
 2179 00f1 14       		.uleb128 0x14
 2180 00f2 13       		.uleb128 0x13
 2181 00f3 01       		.byte	0x1
 2182 00f4 0B       		.uleb128 0xb
 2183 00f5 05       		.uleb128 0x5
 2184 00f6 3A       		.uleb128 0x3a
 2185 00f7 0B       		.uleb128 0xb
 2186 00f8 3B       		.uleb128 0x3b
 2187 00f9 0B       		.uleb128 0xb
 2188 00fa 01       		.uleb128 0x1
 2189 00fb 13       		.uleb128 0x13
 2190 00fc 00       		.byte	0
 2191 00fd 00       		.byte	0
 2192 00fe 15       		.uleb128 0x15
 2193 00ff 01       		.uleb128 0x1
 2194 0100 01       		.byte	0x1
 2195 0101 49       		.uleb128 0x49
 2196 0102 13       		.uleb128 0x13
 2197 0103 01       		.uleb128 0x1
 2198 0104 13       		.uleb128 0x13
 2199 0105 00       		.byte	0
ARM GAS  /tmp/ccPTb876.s 			page 57


 2200 0106 00       		.byte	0
 2201 0107 16       		.uleb128 0x16
 2202 0108 21       		.uleb128 0x21
 2203 0109 00       		.byte	0
 2204 010a 49       		.uleb128 0x49
 2205 010b 13       		.uleb128 0x13
 2206 010c 2F       		.uleb128 0x2f
 2207 010d 0B       		.uleb128 0xb
 2208 010e 00       		.byte	0
 2209 010f 00       		.byte	0
 2210 0110 17       		.uleb128 0x17
 2211 0111 17       		.uleb128 0x17
 2212 0112 01       		.byte	0x1
 2213 0113 0B       		.uleb128 0xb
 2214 0114 0B       		.uleb128 0xb
 2215 0115 3A       		.uleb128 0x3a
 2216 0116 0B       		.uleb128 0xb
 2217 0117 3B       		.uleb128 0x3b
 2218 0118 0B       		.uleb128 0xb
 2219 0119 01       		.uleb128 0x1
 2220 011a 13       		.uleb128 0x13
 2221 011b 00       		.byte	0
 2222 011c 00       		.byte	0
 2223 011d 18       		.uleb128 0x18
 2224 011e 0D       		.uleb128 0xd
 2225 011f 00       		.byte	0
 2226 0120 03       		.uleb128 0x3
 2227 0121 0E       		.uleb128 0xe
 2228 0122 3A       		.uleb128 0x3a
 2229 0123 0B       		.uleb128 0xb
 2230 0124 3B       		.uleb128 0x3b
 2231 0125 05       		.uleb128 0x5
 2232 0126 49       		.uleb128 0x49
 2233 0127 13       		.uleb128 0x13
 2234 0128 00       		.byte	0
 2235 0129 00       		.byte	0
 2236 012a 19       		.uleb128 0x19
 2237 012b 35       		.uleb128 0x35
 2238 012c 00       		.byte	0
 2239 012d 49       		.uleb128 0x49
 2240 012e 13       		.uleb128 0x13
 2241 012f 00       		.byte	0
 2242 0130 00       		.byte	0
 2243 0131 1A       		.uleb128 0x1a
 2244 0132 15       		.uleb128 0x15
 2245 0133 01       		.byte	0x1
 2246 0134 27       		.uleb128 0x27
 2247 0135 19       		.uleb128 0x19
 2248 0136 49       		.uleb128 0x49
 2249 0137 13       		.uleb128 0x13
 2250 0138 01       		.uleb128 0x1
 2251 0139 13       		.uleb128 0x13
 2252 013a 00       		.byte	0
 2253 013b 00       		.byte	0
 2254 013c 1B       		.uleb128 0x1b
 2255 013d 2E       		.uleb128 0x2e
 2256 013e 01       		.byte	0x1
ARM GAS  /tmp/ccPTb876.s 			page 58


 2257 013f 03       		.uleb128 0x3
 2258 0140 0E       		.uleb128 0xe
 2259 0141 3A       		.uleb128 0x3a
 2260 0142 0B       		.uleb128 0xb
 2261 0143 3B       		.uleb128 0x3b
 2262 0144 0B       		.uleb128 0xb
 2263 0145 27       		.uleb128 0x27
 2264 0146 19       		.uleb128 0x19
 2265 0147 49       		.uleb128 0x49
 2266 0148 13       		.uleb128 0x13
 2267 0149 11       		.uleb128 0x11
 2268 014a 01       		.uleb128 0x1
 2269 014b 12       		.uleb128 0x12
 2270 014c 06       		.uleb128 0x6
 2271 014d 40       		.uleb128 0x40
 2272 014e 18       		.uleb128 0x18
 2273 014f 9642     		.uleb128 0x2116
 2274 0151 19       		.uleb128 0x19
 2275 0152 01       		.uleb128 0x1
 2276 0153 13       		.uleb128 0x13
 2277 0154 00       		.byte	0
 2278 0155 00       		.byte	0
 2279 0156 1C       		.uleb128 0x1c
 2280 0157 05       		.uleb128 0x5
 2281 0158 00       		.byte	0
 2282 0159 03       		.uleb128 0x3
 2283 015a 08       		.uleb128 0x8
 2284 015b 3A       		.uleb128 0x3a
 2285 015c 0B       		.uleb128 0xb
 2286 015d 3B       		.uleb128 0x3b
 2287 015e 0B       		.uleb128 0xb
 2288 015f 49       		.uleb128 0x49
 2289 0160 13       		.uleb128 0x13
 2290 0161 02       		.uleb128 0x2
 2291 0162 18       		.uleb128 0x18
 2292 0163 00       		.byte	0
 2293 0164 00       		.byte	0
 2294 0165 1D       		.uleb128 0x1d
 2295 0166 34       		.uleb128 0x34
 2296 0167 00       		.byte	0
 2297 0168 03       		.uleb128 0x3
 2298 0169 08       		.uleb128 0x8
 2299 016a 3A       		.uleb128 0x3a
 2300 016b 0B       		.uleb128 0xb
 2301 016c 3B       		.uleb128 0x3b
 2302 016d 0B       		.uleb128 0xb
 2303 016e 49       		.uleb128 0x49
 2304 016f 13       		.uleb128 0x13
 2305 0170 02       		.uleb128 0x2
 2306 0171 18       		.uleb128 0x18
 2307 0172 00       		.byte	0
 2308 0173 00       		.byte	0
 2309 0174 1E       		.uleb128 0x1e
 2310 0175 2E       		.uleb128 0x2e
 2311 0176 01       		.byte	0x1
 2312 0177 03       		.uleb128 0x3
 2313 0178 08       		.uleb128 0x8
ARM GAS  /tmp/ccPTb876.s 			page 59


 2314 0179 3A       		.uleb128 0x3a
 2315 017a 0B       		.uleb128 0xb
 2316 017b 3B       		.uleb128 0x3b
 2317 017c 0B       		.uleb128 0xb
 2318 017d 27       		.uleb128 0x27
 2319 017e 19       		.uleb128 0x19
 2320 017f 49       		.uleb128 0x49
 2321 0180 13       		.uleb128 0x13
 2322 0181 11       		.uleb128 0x11
 2323 0182 01       		.uleb128 0x1
 2324 0183 12       		.uleb128 0x12
 2325 0184 06       		.uleb128 0x6
 2326 0185 40       		.uleb128 0x40
 2327 0186 18       		.uleb128 0x18
 2328 0187 9742     		.uleb128 0x2117
 2329 0189 19       		.uleb128 0x19
 2330 018a 01       		.uleb128 0x1
 2331 018b 13       		.uleb128 0x13
 2332 018c 00       		.byte	0
 2333 018d 00       		.byte	0
 2334 018e 1F       		.uleb128 0x1f
 2335 018f 2E       		.uleb128 0x2e
 2336 0190 01       		.byte	0x1
 2337 0191 3F       		.uleb128 0x3f
 2338 0192 19       		.uleb128 0x19
 2339 0193 03       		.uleb128 0x3
 2340 0194 0E       		.uleb128 0xe
 2341 0195 3A       		.uleb128 0x3a
 2342 0196 0B       		.uleb128 0xb
 2343 0197 3B       		.uleb128 0x3b
 2344 0198 0B       		.uleb128 0xb
 2345 0199 27       		.uleb128 0x27
 2346 019a 19       		.uleb128 0x19
 2347 019b 11       		.uleb128 0x11
 2348 019c 01       		.uleb128 0x1
 2349 019d 12       		.uleb128 0x12
 2350 019e 06       		.uleb128 0x6
 2351 019f 40       		.uleb128 0x40
 2352 01a0 18       		.uleb128 0x18
 2353 01a1 9742     		.uleb128 0x2117
 2354 01a3 19       		.uleb128 0x19
 2355 01a4 01       		.uleb128 0x1
 2356 01a5 13       		.uleb128 0x13
 2357 01a6 00       		.byte	0
 2358 01a7 00       		.byte	0
 2359 01a8 20       		.uleb128 0x20
 2360 01a9 05       		.uleb128 0x5
 2361 01aa 00       		.byte	0
 2362 01ab 03       		.uleb128 0x3
 2363 01ac 0E       		.uleb128 0xe
 2364 01ad 3A       		.uleb128 0x3a
 2365 01ae 0B       		.uleb128 0xb
 2366 01af 3B       		.uleb128 0x3b
 2367 01b0 0B       		.uleb128 0xb
 2368 01b1 49       		.uleb128 0x49
 2369 01b2 13       		.uleb128 0x13
 2370 01b3 02       		.uleb128 0x2
ARM GAS  /tmp/ccPTb876.s 			page 60


 2371 01b4 18       		.uleb128 0x18
 2372 01b5 00       		.byte	0
 2373 01b6 00       		.byte	0
 2374 01b7 21       		.uleb128 0x21
 2375 01b8 34       		.uleb128 0x34
 2376 01b9 00       		.byte	0
 2377 01ba 03       		.uleb128 0x3
 2378 01bb 0E       		.uleb128 0xe
 2379 01bc 3A       		.uleb128 0x3a
 2380 01bd 0B       		.uleb128 0xb
 2381 01be 3B       		.uleb128 0x3b
 2382 01bf 05       		.uleb128 0x5
 2383 01c0 49       		.uleb128 0x49
 2384 01c1 13       		.uleb128 0x13
 2385 01c2 3F       		.uleb128 0x3f
 2386 01c3 19       		.uleb128 0x19
 2387 01c4 3C       		.uleb128 0x3c
 2388 01c5 19       		.uleb128 0x19
 2389 01c6 00       		.byte	0
 2390 01c7 00       		.byte	0
 2391 01c8 22       		.uleb128 0x22
 2392 01c9 34       		.uleb128 0x34
 2393 01ca 00       		.byte	0
 2394 01cb 03       		.uleb128 0x3
 2395 01cc 08       		.uleb128 0x8
 2396 01cd 3A       		.uleb128 0x3a
 2397 01ce 0B       		.uleb128 0xb
 2398 01cf 3B       		.uleb128 0x3b
 2399 01d0 05       		.uleb128 0x5
 2400 01d1 49       		.uleb128 0x49
 2401 01d2 13       		.uleb128 0x13
 2402 01d3 3F       		.uleb128 0x3f
 2403 01d4 19       		.uleb128 0x19
 2404 01d5 3C       		.uleb128 0x3c
 2405 01d6 19       		.uleb128 0x19
 2406 01d7 00       		.byte	0
 2407 01d8 00       		.byte	0
 2408 01d9 00       		.byte	0
 2409              		.section	.debug_aranges,"",%progbits
 2410 0000 3C000000 		.4byte	0x3c
 2411 0004 0200     		.2byte	0x2
 2412 0006 00000000 		.4byte	.Ldebug_info0
 2413 000a 04       		.byte	0x4
 2414 000b 00       		.byte	0
 2415 000c 0000     		.2byte	0
 2416 000e 0000     		.2byte	0
 2417 0010 00000000 		.4byte	.LFB272
 2418 0014 54000000 		.4byte	.LFE272-.LFB272
 2419 0018 00000000 		.4byte	.LFB273
 2420 001c 54000000 		.4byte	.LFE273-.LFB273
 2421 0020 00000000 		.4byte	.LFB274
 2422 0024 42000000 		.4byte	.LFE274-.LFB274
 2423 0028 00000000 		.4byte	.LFB275
 2424 002c 3E000000 		.4byte	.LFE275-.LFB275
 2425 0030 00000000 		.4byte	.LFB276
 2426 0034 32000000 		.4byte	.LFE276-.LFB276
 2427 0038 00000000 		.4byte	0
ARM GAS  /tmp/ccPTb876.s 			page 61


 2428 003c 00000000 		.4byte	0
 2429              		.section	.debug_ranges,"",%progbits
 2430              	.Ldebug_ranges0:
 2431 0000 00000000 		.4byte	.LFB272
 2432 0004 54000000 		.4byte	.LFE272
 2433 0008 00000000 		.4byte	.LFB273
 2434 000c 54000000 		.4byte	.LFE273
 2435 0010 00000000 		.4byte	.LFB274
 2436 0014 42000000 		.4byte	.LFE274
 2437 0018 00000000 		.4byte	.LFB275
 2438 001c 3E000000 		.4byte	.LFE275
 2439 0020 00000000 		.4byte	.LFB276
 2440 0024 32000000 		.4byte	.LFE276
 2441 0028 00000000 		.4byte	0
 2442 002c 00000000 		.4byte	0
 2443              		.section	.debug_line,"",%progbits
 2444              	.Ldebug_line0:
 2445 0000 89020000 		.section	.debug_str,"MS",%progbits,1
 2445      02001302 
 2445      00000201 
 2445      FB0E0D00 
 2445      01010101 
 2446              	.LASF24:
 2447 0000 74726566 		.ascii	"trefs_t\000"
 2447      735F7400 
 2448              	.LASF57:
 2449 0008 72656164 		.ascii	"ready_list_t\000"
 2449      795F6C69 
 2449      73745F74 
 2449      00
 2450              	.LASF93:
 2451 0015 73655F74 		.ascii	"se_time\000"
 2451      696D6500 
 2452              	.LASF2:
 2453 001d 73697A65 		.ascii	"size_t\000"
 2453      5F7400
 2454              	.LASF114:
 2455 0024 7264796D 		.ascii	"rdymsg\000"
 2455      736700
 2456              	.LASF19:
 2457 002b 75696E74 		.ascii	"uint64_t\000"
 2457      36345F74 
 2457      00
 2458              	.LASF87:
 2459 0034 6B65726E 		.ascii	"kernel_stats\000"
 2459      656C5F73 
 2459      74617473 
 2459      00
 2460              	.LASF3:
 2461 0041 5F5F7569 		.ascii	"__uint8_t\000"
 2461      6E74385F 
 2461      7400
 2462              	.LASF92:
 2463 004b 706F7274 		.ascii	"port_intctx\000"
 2463      5F696E74 
 2463      63747800 
 2464              	.LASF56:
ARM GAS  /tmp/ccPTb876.s 			page 62


 2465 0057 63685F74 		.ascii	"ch_threads_queue\000"
 2465      68726561 
 2465      64735F71 
 2465      75657565 
 2465      00
 2466              	.LASF76:
 2467 0068 73797374 		.ascii	"system_debug_t\000"
 2467      656D5F64 
 2467      65627567 
 2467      5F7400
 2468              	.LASF105:
 2469 0077 776F7273 		.ascii	"worst\000"
 2469      7400
 2470              	.LASF108:
 2471 007d 74696D65 		.ascii	"time_measurement_t\000"
 2471      5F6D6561 
 2471      73757265 
 2471      6D656E74 
 2471      5F7400
 2472              	.LASF13:
 2473 0090 6C6F6E67 		.ascii	"long long unsigned int\000"
 2473      206C6F6E 
 2473      6720756E 
 2473      7369676E 
 2473      65642069 
 2474              	.LASF101:
 2475 00a7 63685F74 		.ascii	"ch_trace_buffer_t\000"
 2475      72616365 
 2475      5F627566 
 2475      6665725F 
 2475      7400
 2476              	.LASF96:
 2477 00b9 73655F73 		.ascii	"se_state\000"
 2477      74617465 
 2477      00
 2478              	.LASF115:
 2479 00c2 65786974 		.ascii	"exitcode\000"
 2479      636F6465 
 2479      00
 2480              	.LASF86:
 2481 00cb 6D61696E 		.ascii	"mainthread\000"
 2481      74687265 
 2481      616400
 2482              	.LASF73:
 2483 00d6 76697274 		.ascii	"virtual_timers_list_t\000"
 2483      75616C5F 
 2483      74696D65 
 2483      72735F6C 
 2483      6973745F 
 2484              	.LASF138:
 2485 00ec 49544D5F 		.ascii	"ITM_RxBuffer\000"
 2485      52784275 
 2485      66666572 
 2485      00
 2486              	.LASF21:
 2487 00f9 72747469 		.ascii	"rttime_t\000"
 2487      6D655F74 
ARM GAS  /tmp/ccPTb876.s 			page 63


 2487      00
 2488              	.LASF34:
 2489 0102 705F7072 		.ascii	"p_prio\000"
 2489      696F00
 2490              	.LASF137:
 2491 0109 72656164 		.ascii	"reads\000"
 2491      7300
 2492              	.LASF11:
 2493 010f 6C6F6E67 		.ascii	"long long int\000"
 2493      206C6F6E 
 2493      6720696E 
 2493      7400
 2494              	.LASF1:
 2495 011d 7369676E 		.ascii	"signed char\000"
 2495      65642063 
 2495      68617200 
 2496              	.LASF141:
 2497 0129 2F686F6D 		.ascii	"/home/jerker/git/AutoTux/stm32\000"
 2497      652F6A65 
 2497      726B6572 
 2497      2F676974 
 2497      2F417574 
 2498              	.LASF49:
 2499 0148 705F6D70 		.ascii	"p_mpool\000"
 2499      6F6F6C00 
 2500              	.LASF125:
 2501 0150 6D5F7175 		.ascii	"m_queue\000"
 2501      65756500 
 2502              	.LASF85:
 2503 0158 76746C69 		.ascii	"vtlist\000"
 2503      737400
 2504              	.LASF117:
 2505 015f 77747472 		.ascii	"wttrp\000"
 2505      7000
 2506              	.LASF140:
 2507 0165 6C69622F 		.ascii	"lib/ChibiOS_16.1.4//os/hal/lib/streams/memstreams.c"
 2507      43686962 
 2507      694F535F 
 2507      31362E31 
 2507      2E342F2F 
 2508 0198 00       		.ascii	"\000"
 2509              	.LASF8:
 2510 0199 6C6F6E67 		.ascii	"long int\000"
 2510      20696E74 
 2510      00
 2511              	.LASF23:
 2512 01a2 74737461 		.ascii	"tstate_t\000"
 2512      74655F74 
 2512      00
 2513              	.LASF94:
 2514 01ab 73655F74 		.ascii	"se_tp\000"
 2514      7000
 2515              	.LASF133:
 2516 01b1 62756666 		.ascii	"buffer\000"
 2516      657200
 2517              	.LASF36:
 2518 01b8 705F6E65 		.ascii	"p_newer\000"
ARM GAS  /tmp/ccPTb876.s 			page 64


 2518      77657200 
 2519              	.LASF122:
 2520 01c0 735F7175 		.ascii	"s_queue\000"
 2520      65756500 
 2521              	.LASF98:
 2522 01c8 74625F73 		.ascii	"tb_size\000"
 2522      697A6500 
 2523              	.LASF62:
 2524 01d0 725F6E65 		.ascii	"r_newer\000"
 2524      77657200 
 2525              	.LASF89:
 2526 01d8 72656761 		.ascii	"regarm_t\000"
 2526      726D5F74 
 2526      00
 2527              	.LASF69:
 2528 01e1 76745F70 		.ascii	"vt_prev\000"
 2528      72657600 
 2529              	.LASF77:
 2530 01e9 63685F73 		.ascii	"ch_system_debug\000"
 2530      79737465 
 2530      6D5F6465 
 2530      62756700 
 2531              	.LASF128:
 2532 01f9 6D757465 		.ascii	"mutex_t\000"
 2532      785F7400 
 2533              	.LASF80:
 2534 0201 6C6F636B 		.ascii	"lock_cnt\000"
 2534      5F636E74 
 2534      00
 2535              	.LASF88:
 2536 020a 69646C65 		.ascii	"idle_thread_wa\000"
 2536      5F746872 
 2536      6561645F 
 2536      776100
 2537              	.LASF28:
 2538 0219 636E745F 		.ascii	"cnt_t\000"
 2538      7400
 2539              	.LASF39:
 2540 021f 705F7374 		.ascii	"p_stklimit\000"
 2540      6B6C696D 
 2540      697400
 2541              	.LASF0:
 2542 022a 756E7369 		.ascii	"unsigned int\000"
 2542      676E6564 
 2542      20696E74 
 2542      00
 2543              	.LASF68:
 2544 0237 76745F6E 		.ascii	"vt_next\000"
 2544      65787400 
 2545              	.LASF118:
 2546 023f 77747365 		.ascii	"wtsemp\000"
 2546      6D7000
 2547              	.LASF44:
 2548 0246 705F6D73 		.ascii	"p_msgqueue\000"
 2548      67717565 
 2548      756500
 2549              	.LASF109:
ARM GAS  /tmp/ccPTb876.s 			page 65


 2550 0251 6E5F6972 		.ascii	"n_irq\000"
 2550      7100
 2551              	.LASF123:
 2552 0257 735F636E 		.ascii	"s_cnt\000"
 2552      7400
 2553              	.LASF6:
 2554 025d 73686F72 		.ascii	"short unsigned int\000"
 2554      7420756E 
 2554      7369676E 
 2554      65642069 
 2554      6E7400
 2555              	.LASF113:
 2556 0270 6B65726E 		.ascii	"kernel_stats_t\000"
 2556      656C5F73 
 2556      74617473 
 2556      5F7400
 2557              	.LASF53:
 2558 027f 63685F74 		.ascii	"ch_thread\000"
 2558      68726561 
 2558      6400
 2559              	.LASF26:
 2560 0289 6D73675F 		.ascii	"msg_t\000"
 2560      7400
 2561              	.LASF106:
 2562 028f 6C617374 		.ascii	"last\000"
 2562      00
 2563              	.LASF29:
 2564 0294 75636E74 		.ascii	"ucnt_t\000"
 2564      5F7400
 2565              	.LASF82:
 2566 029b 63685F73 		.ascii	"ch_system_t\000"
 2566      79737465 
 2566      6D5F7400 
 2567              	.LASF136:
 2568 02a7 77726974 		.ascii	"writes\000"
 2568      657300
 2569              	.LASF139:
 2570 02ae 474E5520 		.ascii	"GNU C 4.8.2 -mcpu=cortex-m4 -mno-thumb-interwork -m"
 2570      4320342E 
 2570      382E3220 
 2570      2D6D6370 
 2570      753D636F 
 2571 02e1 7468756D 		.ascii	"thumb -ggdb -O0 -fomit-frame-pointer -falign-functi"
 2571      62202D67 
 2571      67646220 
 2571      2D4F3020 
 2571      2D666F6D 
 2572 0314 6F6E733D 		.ascii	"ons=16 -ffunction-sections -fdata-sections -fno-com"
 2572      3136202D 
 2572      6666756E 
 2572      6374696F 
 2572      6E2D7365 
 2573 0347 6D6F6E20 		.ascii	"mon -flto\000"
 2573      2D666C74 
 2573      6F00
 2574              	.LASF22:
 2575 0351 746D6F64 		.ascii	"tmode_t\000"
ARM GAS  /tmp/ccPTb876.s 			page 66


 2575      655F7400 
 2576              	.LASF112:
 2577 0359 6D5F6372 		.ascii	"m_crit_isr\000"
 2577      69745F69 
 2577      737200
 2578              	.LASF58:
 2579 0364 63685F72 		.ascii	"ch_ready_list\000"
 2579      65616479 
 2579      5F6C6973 
 2579      7400
 2580              	.LASF27:
 2581 0372 6576656E 		.ascii	"eventmask_t\000"
 2581      746D6173 
 2581      6B5F7400 
 2582              	.LASF7:
 2583 037e 5F5F696E 		.ascii	"__int32_t\000"
 2583      7433325F 
 2583      7400
 2584              	.LASF90:
 2585 0388 73746B61 		.ascii	"stkalign_t\000"
 2585      6C69676E 
 2585      5F7400
 2586              	.LASF142:
 2587 0393 6D734F62 		.ascii	"msObjectInit\000"
 2587      6A656374 
 2587      496E6974 
 2587      00
 2588              	.LASF131:
 2589 03a0 77726974 		.ascii	"write\000"
 2589      6500
 2590              	.LASF43:
 2591 03a6 705F7761 		.ascii	"p_waiting\000"
 2591      6974696E 
 2591      6700
 2592              	.LASF14:
 2593 03b0 73697A65 		.ascii	"sizetype\000"
 2593      74797065 
 2593      00
 2594              	.LASF51:
 2595 03b9 74687265 		.ascii	"thread_reference_t\000"
 2595      61645F72 
 2595      65666572 
 2595      656E6365 
 2595      5F7400
 2596              	.LASF74:
 2597 03cc 63685F76 		.ascii	"ch_virtual_timers_list\000"
 2597      69727475 
 2597      616C5F74 
 2597      696D6572 
 2597      735F6C69 
 2598              	.LASF99:
 2599 03e3 74625F70 		.ascii	"tb_ptr\000"
 2599      747200
 2600              	.LASF97:
 2601 03ea 63685F73 		.ascii	"ch_swc_event_t\000"
 2601      77635F65 
 2601      76656E74 
ARM GAS  /tmp/ccPTb876.s 			page 67


 2601      5F7400
 2602              	.LASF75:
 2603 03f9 76745F6C 		.ascii	"vt_lasttime\000"
 2603      61737474 
 2603      696D6500 
 2604              	.LASF37:
 2605 0405 705F6F6C 		.ascii	"p_older\000"
 2605      64657200 
 2606              	.LASF61:
 2607 040d 725F6374 		.ascii	"r_ctx\000"
 2607      7800
 2608              	.LASF103:
 2609 0413 746D5F63 		.ascii	"tm_calibration_t\000"
 2609      616C6962 
 2609      72617469 
 2609      6F6E5F74 
 2609      00
 2610              	.LASF64:
 2611 0424 725F6375 		.ascii	"r_current\000"
 2611      7272656E 
 2611      7400
 2612              	.LASF63:
 2613 042e 725F6F6C 		.ascii	"r_older\000"
 2613      64657200 
 2614              	.LASF130:
 2615 0436 4D656D53 		.ascii	"MemStreamVMT\000"
 2615      74726561 
 2615      6D564D54 
 2615      00
 2616              	.LASF12:
 2617 0443 5F5F7569 		.ascii	"__uint64_t\000"
 2617      6E743634 
 2617      5F7400
 2618              	.LASF107:
 2619 044e 63756D75 		.ascii	"cumulative\000"
 2619      6C617469 
 2619      766500
 2620              	.LASF100:
 2621 0459 74625F62 		.ascii	"tb_buffer\000"
 2621      75666665 
 2621      7200
 2622              	.LASF66:
 2623 0463 76697274 		.ascii	"virtual_timer_t\000"
 2623      75616C5F 
 2623      74696D65 
 2623      725F7400 
 2624              	.LASF33:
 2625 0473 705F7072 		.ascii	"p_prev\000"
 2625      657600
 2626              	.LASF25:
 2627 047a 74707269 		.ascii	"tprio_t\000"
 2627      6F5F7400 
 2628              	.LASF135:
 2629 0482 4D656D6F 		.ascii	"MemoryStream\000"
 2629      72795374 
 2629      7265616D 
 2629      00
ARM GAS  /tmp/ccPTb876.s 			page 68


 2630              	.LASF38:
 2631 048f 705F6E61 		.ascii	"p_name\000"
 2631      6D6500
 2632              	.LASF110:
 2633 0496 6E5F6374 		.ascii	"n_ctxswc\000"
 2633      78737763 
 2633      00
 2634              	.LASF129:
 2635 049f 5F426F6F 		.ascii	"_Bool\000"
 2635      6C00
 2636              	.LASF17:
 2637 04a5 696E7433 		.ascii	"int32_t\000"
 2637      325F7400 
 2638              	.LASF4:
 2639 04ad 756E7369 		.ascii	"unsigned char\000"
 2639      676E6564 
 2639      20636861 
 2639      7200
 2640              	.LASF40:
 2641 04bb 705F7374 		.ascii	"p_state\000"
 2641      61746500 
 2642              	.LASF47:
 2643 04c3 705F6D74 		.ascii	"p_mtxlist\000"
 2643      786C6973 
 2643      7400
 2644              	.LASF5:
 2645 04cd 73686F72 		.ascii	"short int\000"
 2645      7420696E 
 2645      7400
 2646              	.LASF60:
 2647 04d7 725F7072 		.ascii	"r_prio\000"
 2647      696F00
 2648              	.LASF120:
 2649 04de 65776D61 		.ascii	"ewmask\000"
 2649      736B00
 2650              	.LASF32:
 2651 04e5 705F6E65 		.ascii	"p_next\000"
 2651      787400
 2652              	.LASF41:
 2653 04ec 705F666C 		.ascii	"p_flags\000"
 2653      61677300 
 2654              	.LASF50:
 2655 04f4 705F7374 		.ascii	"p_stats\000"
 2655      61747300 
 2656              	.LASF83:
 2657 04fc 63685F73 		.ascii	"ch_system\000"
 2657      79737465 
 2657      6D00
 2658              	.LASF67:
 2659 0506 63685F76 		.ascii	"ch_virtual_timer\000"
 2659      69727475 
 2659      616C5F74 
 2659      696D6572 
 2659      00
 2660              	.LASF121:
 2661 0517 63685F73 		.ascii	"ch_semaphore\000"
 2661      656D6170 
ARM GAS  /tmp/ccPTb876.s 			page 69


 2661      686F7265 
 2661      00
 2662              	.LASF46:
 2663 0524 705F6570 		.ascii	"p_epending\000"
 2663      656E6469 
 2663      6E6700
 2664              	.LASF18:
 2665 052f 75696E74 		.ascii	"uint32_t\000"
 2665      33325F74 
 2665      00
 2666              	.LASF119:
 2667 0538 77746D74 		.ascii	"wtmtxp\000"
 2667      787000
 2668              	.LASF59:
 2669 053f 725F7175 		.ascii	"r_queue\000"
 2669      65756500 
 2670              	.LASF70:
 2671 0547 76745F64 		.ascii	"vt_delta\000"
 2671      656C7461 
 2671      00
 2672              	.LASF54:
 2673 0550 63685F74 		.ascii	"ch_threads_list\000"
 2673      68726561 
 2673      64735F6C 
 2673      69737400 
 2674              	.LASF10:
 2675 0560 6C6F6E67 		.ascii	"long unsigned int\000"
 2675      20756E73 
 2675      69676E65 
 2675      6420696E 
 2675      7400
 2676              	.LASF132:
 2677 0572 72656164 		.ascii	"read\000"
 2677      00
 2678              	.LASF15:
 2679 0577 63686172 		.ascii	"char\000"
 2679      00
 2680              	.LASF31:
 2681 057c 74687265 		.ascii	"thread_t\000"
 2681      61645F74 
 2681      00
 2682              	.LASF104:
 2683 0585 62657374 		.ascii	"best\000"
 2683      00
 2684              	.LASF127:
 2685 058a 6D5F6E65 		.ascii	"m_next\000"
 2685      787400
 2686              	.LASF30:
 2687 0591 73797374 		.ascii	"systime_t\000"
 2687      696D655F 
 2687      7400
 2688              	.LASF48:
 2689 059b 705F7265 		.ascii	"p_realprio\000"
 2689      616C7072 
 2689      696F00
 2690              	.LASF65:
 2691 05a6 76746675 		.ascii	"vtfunc_t\000"
ARM GAS  /tmp/ccPTb876.s 			page 70


 2691      6E635F74 
 2691      00
 2692              	.LASF9:
 2693 05af 5F5F7569 		.ascii	"__uint32_t\000"
 2693      6E743332 
 2693      5F7400
 2694              	.LASF78:
 2695 05ba 70616E69 		.ascii	"panic_msg\000"
 2695      635F6D73 
 2695      6700
 2696              	.LASF102:
 2697 05c4 6F666673 		.ascii	"offset\000"
 2697      657400
 2698              	.LASF91:
 2699 05cb 636F6E74 		.ascii	"context\000"
 2699      65787400 
 2700              	.LASF20:
 2701 05d3 7274636E 		.ascii	"rtcnt_t\000"
 2701      745F7400 
 2702              	.LASF72:
 2703 05db 76745F70 		.ascii	"vt_par\000"
 2703      617200
 2704              	.LASF55:
 2705 05e2 74687265 		.ascii	"threads_queue_t\000"
 2705      6164735F 
 2705      71756575 
 2705      655F7400 
 2706              	.LASF124:
 2707 05f2 63685F6D 		.ascii	"ch_mutex\000"
 2707      75746578 
 2707      00
 2708              	.LASF42:
 2709 05fb 705F7265 		.ascii	"p_refs\000"
 2709      667300
 2710              	.LASF79:
 2711 0602 6973725F 		.ascii	"isr_cnt\000"
 2711      636E7400 
 2712              	.LASF84:
 2713 060a 726C6973 		.ascii	"rlist\000"
 2713      7400
 2714              	.LASF16:
 2715 0610 75696E74 		.ascii	"uint8_t\000"
 2715      385F7400 
 2716              	.LASF116:
 2717 0618 77746F62 		.ascii	"wtobjp\000"
 2717      6A7000
 2718              	.LASF134:
 2719 061f 73697A65 		.ascii	"size\000"
 2719      00
 2720              	.LASF52:
 2721 0624 74687265 		.ascii	"threads_list_t\000"
 2721      6164735F 
 2721      6C697374 
 2721      5F7400
 2722              	.LASF81:
 2723 0633 74726163 		.ascii	"trace_buffer\000"
 2723      655F6275 
ARM GAS  /tmp/ccPTb876.s 			page 71


 2723      66666572 
 2723      00
 2724              	.LASF45:
 2725 0640 705F6D73 		.ascii	"p_msg\000"
 2725      6700
 2726              	.LASF111:
 2727 0646 6D5F6372 		.ascii	"m_crit_thd\000"
 2727      69745F74 
 2727      686400
 2728              	.LASF126:
 2729 0651 6D5F6F77 		.ascii	"m_owner\000"
 2729      6E657200 
 2730              	.LASF95:
 2731 0659 73655F77 		.ascii	"se_wtobjp\000"
 2731      746F626A 
 2731      7000
 2732              	.LASF35:
 2733 0663 705F6374 		.ascii	"p_ctx\000"
 2733      7800
 2734              	.LASF71:
 2735 0669 76745F66 		.ascii	"vt_func\000"
 2735      756E6300 
 2736              		.comm	__gnu_lto_v1,1,1
 2737              		.ident	"GCC: (4.8.2-14ubuntu1+6) 4.8.2"
ARM GAS  /tmp/ccPTb876.s 			page 72


DEFINED SYMBOLS
                            *ABS*:0000000000000000 memstreams.c
     /tmp/ccPTb876.s:308    .text.writes:0000000000000000 $t
     /tmp/ccPTb876.s:313    .text.writes:0000000000000000 writes
     /tmp/ccPTb876.s:376    .text.reads:0000000000000000 $t
     /tmp/ccPTb876.s:381    .text.reads:0000000000000000 reads
     /tmp/ccPTb876.s:443    .text.put:0000000000000000 $t
     /tmp/ccPTb876.s:448    .text.put:0000000000000000 put
     /tmp/ccPTb876.s:500    .text.get:0000000000000000 $t
     /tmp/ccPTb876.s:505    .text.get:0000000000000000 get
     /tmp/ccPTb876.s:555    .rodata.vmt:0000000000000000 $d
     /tmp/ccPTb876.s:558    .rodata.vmt:0000000000000000 vmt
     /tmp/ccPTb876.s:564    .text.msObjectInit:0000000000000000 $t
     /tmp/ccPTb876.s:570    .text.msObjectInit:0000000000000000 msObjectInit
                            *COM*:0000000000000001 __gnu_lto_v1
                     .debug_frame:0000000000000010 $d

UNDEFINED SYMBOLS
memcpy
