ARM GAS  /tmp/cceuxfWV.s 			page 1


   1              		.syntax unified
   2              		.cpu cortex-m4
   3              		.fpu softvfp
   4              		.eabi_attribute 20, 1
   5              		.eabi_attribute 21, 1
   6              		.eabi_attribute 23, 3
   7              		.eabi_attribute 24, 1
   8              		.eabi_attribute 25, 1
   9              		.eabi_attribute 26, 1
  10              		.eabi_attribute 30, 6
  11              		.eabi_attribute 34, 1
  12              		.eabi_attribute 18, 4
  13              		.thumb
  14              		.file	"nvic.c"
  15              		.text
  16              	.Ltext0:
  17              		.section	.gnu.lto_.inline.4e0f9dd9bcd9e2e9,"",%progbits
  18 0000 789C6362 		.ascii	"x\234cb`b\300\006\002\2404\013\003\003/\017\003\003"
  18      6062C006 
  18      02A0340B 
  18      03032F0F 
  18      0303
  19 0012 93D881DD 		.ascii	"\223\330\201\335\214@\016X1#\003\007;P\210gC.L\204\211"
  19      8C400E58 
  19      31230307 
  19      3B508867 
  19      432E4C84 
  20 0027 81531048 		.ascii	"\201S\020Hr=\210\205\213p\2035\263\263\241\0123\000"
  20      723D8885 
  20      8B708335 
  20      B3B3A10A 
  20      3300
  21 0039 00194306 		.ascii	"\000\031C\006%"
  21      25
  22              		.text
  23              		.section	.gnu.lto_nvicEnableVector.4e0f9dd9bcd9e2e9,"",%progbits
  24 0000 789CCD93 		.ascii	"x\234\315\223=h\024Q\020\307g\366\353\366n\357\303\302"
  24      3D681451 
  24      10C767F6 
  24      EBF66EEF 
  24      C3C2
  25 0012 C2CE104B 		.ascii	"\302\316\020K\361\326\003\211\210\210\206T\026\301\240"
  25      F1D60389 
  25      88888654 
  25      16C1A0
  26 0021 11B492BB 		.ascii	"\021\264\222\273+.\013\271;1\"V\346\235{E M\210\010"
  26      2B2E0BB9 
  26      3B312256 
  26      E69D7B45 
  26      204D8808 
  27 0035 122D8C85 		.ascii	"\022-\214\205\034\222D\261\012\010z\244\220\210\004"
  27      1C9244B1 
  27      0A087AA4 
  27      908804
  28 0044 492FDE15 		.ascii	"I/\336\025Z\011\022\254,\204u\346\355\355\313%jXm\364"
  28      5A0912AC 
  28      2C8475E6 
ARM GAS  /tmp/cceuxfWV.s 			page 2


  28      EDEDCB25 
  28      6A586DF4 
  29 0058 C1BE7D6F 		.ascii	"\301\276}o\377\363\237\231\337\333]\0154\330=\366\323"
  29      FFF39F99 
  29      DFDB5D0D 
  29      34D83DF6 
  29      D3
  30 0069 3563029C 		.ascii	"5c\002\234\341\215\016H\021\250!\322\006aZ\303\351\313"
  30      E18D0E48 
  30      11A821D2 
  30      06615AC3 
  30      E9CB
  31 007b BC84CC20 		.ascii	"\274\204\314 ,\0121\337\375\324y\273\210b^4\266\202"
  31      2C0A31DF 
  31      FDD479BB 
  31      88625E34 
  31      B682
  32 008d 20E7B154 		.ascii	" \347\261TF\270\204\036\342\200\274i\306\316\354\241"
  32      46B8841E 
  32      E280BC69 
  32      C6CEECA1 
  33 009d 4DBC7A3F 		.ascii	"M\274z?vO4\333Ap\332C}\333c\207\036\374\245g\245%\364"
  33      764F34DB 
  33      4170DA43 
  33      7DDB6387 
  33      1EFCA567 
  34 00b4 87E27B10 		.ascii	"\207\342{\020\350\261=\355;\257\377\252\275\315\217"
  34      E8B13DED 
  34      3BAFFFAA 
  34      BDCD8F
  35 00c3 63EB517B 		.ascii	"c\353Q{F,\317\234\350\364yL\015N`<\333\363\226HFTf\314"
  35      462CCF9C 
  35      E8F4794C 
  35      0D4E603C 
  35      DBF39648 
  36 00db F6FA3D56 		.ascii	"\366\372=V<O\373\356?;\211S\377\313I<\325\332\335 x"
  36      3C4FFBEE 
  36      3F3B8953 
  36      FFCB493C 
  36      D5DADD20 
  37 00f0 F06EE1C3 		.ascii	"\360n\341\303\001\334\207@\207\240a\025\351\033\247"
  37      01DC8740 
  37      87A06115 
  37      E91BA7
  38 00ff EFC9E0C9 		.ascii	"\357\311\340\311\244-\245!!A\223aC\021\037\343 $ic\246"
  38      A42DA521 
  38      21419361 
  38      43111FE3 
  38      20246963 
  39 0114 68B21CD6 		.ascii	"h\262\034\326\322\254eH[\"-\313Z\016du0\241I \003\262"
  39      D2AC6548 
  39      5B222DCB 
  39      5A0E6475 
  39      30A14920 
  40 012a 0F1AE372 		.ascii	"\017\032\343r\276\310\177\220\276\001\267W\277u\364"
  40      BEC87F90 
  40      BE01B757 
ARM GAS  /tmp/cceuxfWV.s 			page 3


  40      BF75F4
  41 0139 223E23B6 		.ascii	"\">#\266\012\"\367\007b\315\027Y\012!\361\263\177+\322"
  41      0A22F707 
  41      62CD1759 
  41      0A21F1B3 
  41      7F2BD2
  42 014c F40A3B36 		.ascii	"\364\012;6\300_V\341\006=eG\302\220\321kgC\341\010,"
  42      C05F56E1 
  42      063D6547 
  42      C290D16B 
  42      6743E108 
  43 0161 8966431C 		.ascii	"\211fC\034'\3410<\341%\275Y\373>,Ph2*\"G\251w\257\360"
  43      27E1303C 
  43      E125BD59 
  43      FB3E2C50 
  43      68322A22 
  44 017a C9F65686 		.ascii	"\311\366V\206,\274\332*EU\254]M\371+\376#\214\304\004"
  44      2CBCDA2A 
  44      4555AC5D 
  44      4DF92BFE 
  44      238CC404 
  45 018e 595937CD 		.ascii	"YY7\315\260\341/\376K\245\3312-\031^\250\216\251\274"
  45      B0E12FFE 
  45      4BA5D932 
  45      2D195EA8 
  45      8EA9BC
  46 01a1 2DC30F86 		.ascii	"-\303\017\206\251\226\375\257*<\305\202\205\034%i\336"
  46      A996FDAF 
  46      2A3CC582 
  46      851C2569 
  46      DE
  47 01b2 6C393B78 		.ascii	"l9;xNz\230\332\346q\024\217\325\317\203=\212\204\342"
  47      4E7A98DA 
  47      E671148F 
  47      D5CF833D 
  47      8A84E2
  48 01c5 49853CEB 		.ascii	"I\205<\353\212\307\331\213'\275\007O\346g\236,=\375"
  48      8AC7D98B 
  48      27BD074F 
  48      E6679E2C 
  48      3DFD
  49 01d7 1D4F4EF1 		.ascii	"\035ON\361d\377\210\307\351\347\321z\024i\305\223\003"
  49      64FF88C7 
  49      E9E7D17A 
  49      1469C593 
  49      03
  50 01e8 D8844677 		.ascii	"\330\204Fw\366P\230,\032\343\214\316\321C\223^\311\035"
  50      F650982C 
  50      1AE38CCE 
  50      D143935E 
  50      C91D
  51 01fa 99F04ADE 		.ascii	"\231\360J\336\271\013W\012C\371B\376\230\353\326\247"
  51      B90B570A 
  51      43F942FE 
  51      98EBD6A7 
  52 020a DC89E2A4 		.ascii	"\334\211\342\244{\265~\355\372\224[\256W\253\365\232"
  52      7BB57EED 
ARM GAS  /tmp/cceuxfWV.s 			page 4


  52      FA945BAE 
  52      57ABF59A 
  53 021a 3B7C7E74 		.ascii	";|~td\364\246[\273\341\225\363e\320k\371\243t\025~\000"
  53      64F4A65B 
  53      BBE195F3 
  53      65D06BF9 
  53      A374157E 
  54 022f 8B534740 		.ascii	"\213SG@"
  55              		.text
  56              		.section	.gnu.lto_nvicDisableVector.4e0f9dd9bcd9e2e9,"",%progbits
  57 0000 789C8D52 		.ascii	"x\234\215R;K\003A\020\236\331{\031\005E\260\261R\264"
  57      3B4B0341 
  57      109ED97B 
  57      190545B0 
  57      B152B4
  58 0013 147328E2 		.ascii	"\024s(\342\003\005\021kQ|\200V\222\244\210'&\021\025"
  58      0305116B 
  58      517C8056 
  58      92A48827 
  58      261115
  59 0026 B173938B 		.ascii	"\261s\223\213 Vb%\332\370h$\370B\233\200 !\205(b\221"
  59      20566225 
  59      DAF86824 
  59      F8429B80 
  59      20218528 
  60 003c 5F6010C1 		.ascii	"_`\020\301N\202X\212\353\354%\027\243\325\015\334\356"
  60      4E82588A 
  60      EBEC2517 
  60      A3D50DDC 
  60      EE
  61 004d EC7CDF37 		.ascii	"\354|\33773;\267\014\030\374\267\006\372>)< \017\012"
  61      333BB70C 
  61      18FCB706 
  61      FA3E293C 
  61      200F0A
  62 0060 20B9C810 		.ascii	" \271\310\020\351\200\260\316p}F\272\240\267\300!\347"
  62      E980B0CE 
  62      707D46BA 
  62      A0B7C021 
  62      E7
  63 0071 3BF98DB7 		.ascii	";\371\215\267t\343\326Ab\233\177\013\201\226\204B\010"
  63      74E3D641 
  63      629B7F0B 
  63      81968442 
  63      08
  64 0082 D3E461B3 		.ascii	"\323\344a\263\2631\365o\366\242\214\347^\307\356y2#"
  64      B331F56F 
  64      F6A28CE7 
  64      5EC7EE79 
  64      3223
  65 0094 C4A0858A 		.ascii	"\304\240\205\212'\3156\177\256\320\250\014\372\320\233"
  65      27CD367F 
  65      AED0A80C 
  65      FAD09B
  66 00a3 ECEA84FB 		.ascii	"\354\352\204\373\016\370\227\020\012\311<\266W\251\321"
  66      0EF89710 
  66      0AC93CB6 
ARM GAS  /tmp/cceuxfWV.s 			page 5


  66      57A9D1
  67 00b2 BC6932B9 		.ascii	"\274i2\271\273\307C$m\274 D\235\207I\\\260L^\210\323"
  67      BBC74324 
  67      6DBC2044 
  67      9D87495C 
  67      B04C5E88 
  68 00c7 EBCB9714 		.ascii	"\353\313\227\024\326W!\220\204a\004i\3444\022\025\002"
  68      D6572190 
  68      84610469 
  68      E4341215 
  68      02
  69 00d8 788C2DA0 		.ascii	"x\214-\240\321A\325i\321\014prR$I\267jv\262\223M:\353"
  69      D141D569 
  69      D10C7072 
  69      522449B7 
  69      6A76B293 
  70 00ef 94FC4BCA 		.ascii	"\224\374K\312\023$\322\273o\275\001<\241\246\303\210"
  70      1324D2BB 
  70      6FBD013C 
  70      A1A6C388 
  71 00ff B22AF0AC 		.ascii	"\262*\360\254\315k\211\362\004\366\271}\204.\250\204"
  71      CD6B89F2 
  71      04F6B97D 
  71      842EA884 
  72 010f 91495CD5 		.ascii	"\221I\\\325\034,\361n\337\22615,\323\221\340FqC\032"
  72      1C2CF16E 
  72      DF963135 
  72      2CD391E0 
  72      4671431A 
  73 0123 451D7A53 		.ascii	"E\035zS1\325\231\375Q\246\353\022\320P\262$\226}(\324"
  73      31D599FD 
  73      51A6EB12 
  73      D050B224 
  73      967D28D4 
  74 0137 14A17638 		.ascii	"\024\241v8\345\3118\357\267Po\203\224ti.\306>\354\021"
  74      E5C938EF 
  74      B7506F83 
  74      9474692E 
  74      C63EEC11 
  75 014b BFCAEDCF 		.ascii	"\277\312\355\317\261`i\017\313\307P\362t\247\257\364"
  75      B160690F 
  75      CBC750F2 
  75      74A7AFF4 
  76 015b E6BC5BC7 		.ascii	"\346\274[\307\370w\237l\272`\374)\324c\241\357\267P"
  76      F8779F6C 
  76      BA60FC29 
  76      D463A1EF 
  76      B750
  77 016d 75B99051 		.ascii	"u\271\220QY\010K\351\335\207/1\237tr\020\317\247Z\213"
  77      59084BE9 
  77      DD872F31 
  77      9F747210 
  77      CFA75A8B 
  78 0181 095D9B94 		.ascii	"\011]\233\224t\311\354^\260\202\346\360\234\025\264"
  78      74C9EC5E 
  78      B082E6F0 
  78      9C15B4
ARM GAS  /tmp/cceuxfWV.s 			page 6


  79 0190 4627663B 		.ascii	"F'f;\272\375\035\376.\323\214-\233s\201\005s1\266\264"
  79      BAFD1DFE 
  79      2ED38C2D 
  79      9B738105 
  79      7331B6B4 
  80 01a4 B26C8662 		.ascii	"\262l\206b\221H,j\016\215\217\014\217\254\231\321U+"
  80      91482C6A 
  80      0E8D8F0C 
  80      8FAC99D1 
  80      552B
  81 01b6 E40F8112 		.ascii	"\344\017\201\022\365w\376\000\320\253\270\222"
  81      F577FE00 
  81      D0ABB892 
  82              		.text
  83              		.section	.gnu.lto_nvicSetSystemHandlerPriority.4e0f9dd9bcd9e2e9,"",%progbits
  84 0000 789C8D52 		.ascii	"x\234\215R=,\004A\024~of\366\374\205\320\321](\305\215"
  84      3D2C0441 
  84      147E6F66 
  84      F6FC85D0 
  84      D15D28C5 
  85 0015 4BE4E844 		.ascii	"K\344\350DT\012!~\022*q[\334Mr\353\304\211H\024\206"
  85      540A217E 
  85      122A715B 
  85      DC4D72EB 
  85      C4894814 
  86 002a 3B898842 		.ascii	";\211\210BT\202\342$\012\021\177\025JDD\203hQ\\\245"
  86      5482E224 
  86      0A117F15 
  86      4A444483 
  86      68515CA5 
  87 003e A15311B1 		.ascii	"\241S\021\261\336\334\336\312E\024^\262\363\336\274"
  87      DEDCDECA 
  87      45145EB2 
  87      F3DEBC
  88 004d F77DF37D 		.ascii	"\367}\363}3Y\006\014~\207\244\257\206\332mf\023\000"
  88      3359060C 
  88      7E87A4AF 
  88      86DA6D66 
  88      1300
  89 005f A4121972 		.ascii	"\244\022\031rZ9\023\000\232Y\264\010\201\224\320B$\020"
  89      5A391300 
  89      9A59B408 
  89      8194D042 
  89      2410
  90 0071 C22CE3C2 		.ascii	"\302,\343\302\302\331a\263\003Q\017[Z\257\346\026\336"
  90      C2D961B3 
  90      03510F5B 
  90      5AAFE616 
  90      DE
  91 0082 8EEA96B2 		.ascii	"\216\352\226\262\363+\372\313uQ\231\221\2150D\025\006"
  91      F32BFACB 
  91      75519991 
  91      8D304415 
  91      06
  92 0093 F3C99C56 		.ascii	"\363\311\234V\034\036M?>\365\256\351\314\231\353\266"
  92      1C1E4D3F 
  92      3EF5AEE9 
ARM GAS  /tmp/cceuxfWV.s 			page 7


  92      CC99EBB6 
  93 00a3 2BA3EA73 		.ascii	"+\243\352sJ=\016\376\3119\330\321<\253?]\227\377\203"
  93      4A3D0EFE 
  93      C939D8D1 
  93      3CAB3F5D 
  93      97FF83
  94 00b6 E3201CB2 		.ascii	"\343 \034\262\263\234\353\356\235\034-\277\342&\013"
  94      B39CEBEE 
  94      9D1C2DBF 
  94      E2260B
  95 00c5 203A48F7 		.ascii	" :H\367$\217\234*\362E\247X\220?\012,\310h\275\022t"
  95      248F9C2A 
  95      F245A758 
  95      903F0A2C 
  95      C868BD12 
  96 00da 0AFE2906 		.ascii	"\012\376)\006\012+=\014\0374\030~\015\227\317\347\357"
  96      0A2B3D0C 
  96      1F34187E 
  96      0D97CFE7 
  96      EF
  97 00eb 57388ADB 		.ascii	"W8\212\333\364,1D#+*\2124\007\221.\313\357@x\020\200"
  97      F42C3144 
  97      232B2A8A 
  97      3407912E 
  97      CBEF4078 
  98 0101 19F8D08B 		.ascii	"\031\370\320\213\272Z\241e\243\347\317tj\025\006H\251"
  98      BA5AA165 
  98      A3E7CF74 
  98      6A150648 
  98      A9
  99 0112 005258E2 		.ascii	"\000RX\342\263i\307o`\376t\355\255\331\027aF\004\364"
  99      B369C76F 
  99      60FE74ED 
  99      ADD91761 
  99      4604F4
 100 0125 435A5711 		.ascii	"CZW\021\204\206/\351\343\037\007\"f\214\335@z\237\373"
 100      84862FE9 
 100      E31F0722 
 100      668CDD40 
 100      7A9FFB
 101 0138 2D8BBA86 		.ascii	"-\213\272\206R*\362\360\213.o\320\004{:3\247[i\320\010"
 101      522AF2F0 
 101      8B2E6FD0 
 101      047B3A33 
 101      A75B69D0 
 102 014d BBA6AC54 		.ascii	"\273\246\254TX\266\001\353\004-\367U\362\021-\344\030"
 102      58B601EB 
 102      042DF755 
 102      F2112DE4 
 102      18
 103 015e FA0F1A33 		.ascii	"\372\017\0323\276\356a.w\333\340\337\313\213\001\003"
 103      BEEE612E 
 103      77DBE0DF 
 103      CB8B0103 
 104 016e 31BF5624 		.ascii	"1\277V$\241\242\2623\256\242\252\247\177$\034\011\205"
 104      A1A2B233 
 104      AEA2AAA7 
ARM GAS  /tmp/cceuxfWV.s 			page 8


 104      7F241C09 
 104      85
 105 017f 432D5226 		.ascii	"C-R&S2>\232\220\343\311\211\311\224\264\223\216\223"
 105      53323E9A 
 105      90E3C989 
 105      C994B493 
 105      8E93
 106 0191 1C931D7D 		.ascii	"\034\223\035}\335\235\335\323rlJ\331!\033\276\001\033"
 106      DD9DDDD3 
 106      726C4AD9 
 106      211BBE01 
 106      1B
 107 01a2 F87FE1   		.ascii	"\370\177\341"
 108              		.text
 109              		.section	.gnu.lto_nvicClearPending.4e0f9dd9bcd9e2e9,"",%progbits
 110 0000 789C9552 		.ascii	"x\234\225R;H\003A\020\235\331\273\313i\243\0106V\206"
 110      3B480341 
 110      109DD9BB 
 110      CB69A308 
 110      365686
 111 0013 588A7704 		.ascii	"X\212w\004E\024\005\021+\213\240h\004\255$I\221\034"
 111      45140511 
 111      2B8BA068 
 111      04AD2449 
 111      911C
 112 0025 989C1811 		.ascii	"\230\234\030\021\273l>\225\225\004l\264\211\332\004"
 112      BB6C3E95 
 112      95046CB4 
 112      89DA04
 113 0034 890A56C1 		.ascii	"\211\012V\3014beca\257\020D!X\330I,\304sv/\011j\225"
 113      34626563 
 113      61AF1044 
 113      2158D849 
 113      2CC47376 
 114 004c 0CDCEECC 		.ascii	"\014\334\356\314{\363\336~n\0310\370\037\375\364\035"
 114      7BF3DE7E 
 114      6E1930F8 
 114      1FFDF41D 
 115 005c 103C2D0A 		.ascii	"\020<-\012\005\220Rd\210T \244\030\246\326D\012\036"
 115      05905264 
 115      885420A4 
 115      18A6D644 
 115      0A1E
 116 006e 1F1C739E 		.ascii	"\037\034s\236\257\276\326\313\003{\205\314>\377v\034"
 116      AFBED6CB 
 116      037B85CC 
 116      3EFF761C 
 117 007e B4041541 		.ascii	"\264\004\025AX\245\014\275rb\352_wW\306\037^\026\357"
 117      58A50CBD 
 117      7262EA5F 
 117      7757C61F 
 117      5E16EF
 118 0091 78EEC671 		.ascii	"x\356\306qf,T\332\322\354\363\217_\032\225\301$\266"
 118      662C54DA 
 118      D2ECF38F 
 118      5F1A95C1 
 118      24B6
ARM GAS  /tmp/cceuxfWV.s 			page 9


 119 00a3 27BB2AF2 		.ascii	"'\273*\362\356\002\377r\034\205dm.\325\271&\317\237"
 119      EE02FF72 
 119      1C85646D 
 119      2ED5B926 
 119      CF9F
 120 00b5 3A39D225 		.ascii	":9\322%\273\251:\316c\245\364\\\303\276.\004\2729\206"
 120      BBA93ACE 
 120      63A5F45C 
 120      C3BE2E04 
 120      BA3986
 121 00c8 71A4FB26 		.ascii	"q\244\373&\261\012!<E\037hT\250\0361\350 =\011\311\321"
 121      B10A213C 
 121      451F6854 
 121      A81E31E8 
 121      203D09C9 
 122 00dd F6BCD29D 		.ascii	"\366\274\322\235\"(\307\025\361\213\224{\310\224?\353"
 122      2228C715 
 122      F18B947B 
 122      C8943FEB 
 123 00ed 13212CA2 		.ascii	"\023!,\242\006QD\261*\360\333,\357\241\226{\310^dO\260"
 123      065144B1 
 123      2AF0DB2C 
 123      EFA1967B 
 123      C85E644F 
 124 0102 492A5164 		.ascii	"I*Qd\202W5\311e\336\263o-N\215\012;\022T\224&\244\021"
 124      825735C9 
 124      65DEB36F 
 124      2D4E8D0A 
 124      3B125494 
 125 0119 2ADB075D 		.ascii	"*\333\007]\253\363\026\343\2210\212\236\206\321u\313"
 125      ABF316E3 
 125      91308A9E 
 125      86D175CB 
 126 0129 48275A80 		.ascii	"H'Z\200\267\363.2\002%\236K\363)\013\265a8\023i\257"
 126      B7F32E32 
 126      02259E4B 
 126      F3290BB5 
 126      61381369 
 127 013e 859E2338 		.ascii	"\205\236#8$\013\275\271a\031\341\306\034\225gv3\035"
 127      240BBDB9 
 127      6119E1C6 
 127      1C956776 
 127      331D
 128 0150 E001D2D5 		.ascii	"\340\001\322\325\332\220k\326\214\240x\230\342\015\217"
 128      DA906BD6 
 128      8CA07898 
 128      E20D8F
 129 015f 6F586173 		.ascii	"oXas.f\205\255\205\345u\377\270\3417\306L\323N\232\261"
 129      2E6685AD 
 129      85E575FF 
 129      B8E137C6 
 129      4CD34E9A 
 130 0174 D086B969 		.ascii	"\320\206\271iom'\315\210\035\217\333\011sv)0\027\330"
 130      6F6D27CD 
 130      881D8FDB 
 130      09737629 
 130      3017D8
ARM GAS  /tmp/cceuxfWV.s 			page 10


 131 0187 35133B56 		.ascii	"5\023;V\304\210\200\2220F\177\000\341i\243\320"
 131      C4888092 
 131      30467F00 
 131      E169A3D0 
 132              		.text
 133              		.section	.gnu.lto_.symbol_nodes.4e0f9dd9bcd9e2e9,"",%progbits
 134 0000 789C4DC8 		.ascii	"x\234M\310\271\015\2000\024\004\321\375c\273J\212Y\207"
 134      B90D8030 
 134      1404D1FD 
 134      63BB4A8A 
 134      5987
 135 0012 84E6AA80 		.ascii	"\204\346\252\200~\010\211\251\004\021\200d&{\203\320"
 135      7E0889A9 
 135      04118064 
 135      267B83D0 
 136 0022 A02F1A96 		.ascii	"\240/\032\226\332!\331\347\030L8~\2341\235eC\331\211"
 136      DA21D9E7 
 136      184C387E 
 136      9C319D65 
 136      43D989
 137 0035 05A77E63 		.ascii	"\005\247~c\305\371e\255\221(\332\257;\364\000\366\305"
 137      C5F965AD 
 137      9128DAAF 
 137      3BF400F6 
 137      C5
 138 0046 1B4A     		.ascii	"\033J"
 139              		.text
 140              		.section	.gnu.lto_.refs.4e0f9dd9bcd9e2e9,"",%progbits
 141 0000 789C6362 		.ascii	"x\234cb`b`e\200\000F&&f\006\000\000\253\000\022"
 141      60626065 
 141      80004626 
 141      26660600 
 141      00AB0012 
 142              		.text
 143              		.section	.gnu.lto_.decls.4e0f9dd9bcd9e2e9,"",%progbits
 144 0000 789CAD58 		.ascii	"x\234\255X}l\024\307\025\237\331;c_q\035\022\245)\264"
 144      7D6C14C7 
 144      159FD93B 
 144      635F711D 
 144      12A529B4 
 145 0014 D0385553 		.ascii	"\3208USU\250\365\361\341&\364\237\010s6\365\375\341"
 145      55A8F5F1 
 145      E126F49F 
 145      087336F5 
 145      FDE1
 146 0026 C4BA035A 		.ascii	"\304\272\003Z)\022\307r\\\352\223\3543:\237\333\360"
 146      2912C772 
 146      5CEA93EC 
 146      333A9FDB 
 146      F0
 147 0037 DF1A9340 		.ascii	"\337\032\223@)\2506\301\304M\250s\244v\2334)86\320\213"
 147      29A836C1 
 147      C44DA873 
 147      A4769B34 
 147      293836D0 
 148 004c 6BE0046A 		.ascii	"k\340\004j\260BSQ\250\0021\310\\Q\325|(\002\332\322"
 148      B0425351 
ARM GAS  /tmp/cceuxfWV.s 			page 11


 148      A80231C8 
 148      5C51D57C 
 148      2802DAD2 
 149 0060 34AA0AEE 		.ascii	"4\252\012\356\233\267_3\353\035{7\352J\363n\366\366"
 149      9BB75F33 
 149      EB1D7B37 
 149      EA4AF36E 
 149      F6F6
 150 0072 BDDFFC7E 		.ascii	"\275\337\374~o\336\316\314\235B\0242L\011\231\206\353"
 150      6FDECECC 
 150      9D421432 
 150      4C099986 
 150      EB
 151 0083 C75F2664 		.ascii	"\307_&d\247BH\031!\3441b_\354\376\020\264\021h\005h"
 151      A7424819 
 151      21E43162 
 151      5FECFE10 
 151      B4116805 
 152 0098 27A19D86 		.ascii	"'\241\235\206\006a\344\034\021/\346W\011\355\002\264"
 152      0661E41C 
 152      112FE657 
 152      09ED02B4 
 153 00a8 2AA3CFFC 		.ascii	"*\243\317\374\312\241\005\015\254O\240\375\013\332E"
 153      CAA1050D 
 153      AC4FA0FD 
 153      0BDA45
 154 00b7 6893D0DE 		.ascii	"h\223\320\336\203\026\200v\033\332G\320.\0331\014\013"
 154      83168076 
 154      1BDA47D0 
 154      2E1B310C 
 154      0B
 155 00c8 E89023D0 		.ascii	"\350\220#\320~\343\030\207q\231\357\030\207\037\303"
 155      7EE31887 
 155      7199EF18 
 155      871FC3
 156 00d7 C4BDC88D 		.ascii	"\304\275\310\215\307\260\256\033\343P\003\203}\036w"
 156      C7B0AE1B 
 156      E3500383 
 156      7D1E77
 157 00e6 60170CEC 		.ascii	"`\027\014\354yT\3240\010m\015t\"\320\316\030\270_\202"
 157      7954D430 
 157      086D0D74 
 157      22D0CE18 
 157      B85F82
 158 00f9 7E39D59F 		.ascii	"~9\325\237/\242\372\030\005#?\001#?c\320\306\035c\260"
 158      2FA2FA18 
 158      05233F01 
 158      233F63D0 
 158      C61D63B0 
 159 010d 1C5648F8 		.ascii	"\034VH\370\363\334\251\221\023j\304\260\317\242\003"
 159      F3DCA991 
 159      136AC4B0 
 159      CFA203
 160 011c EB4132A0 		.ascii	"\353A2\240\345\213\245\241\201sT\333\247\375wz\272;"
 160      E58BA5A1 
 160      817354DB 
 160      A7FD777A 
ARM GAS  /tmp/cceuxfWV.s 			page 12


 160      BA3B
 161 012e 481E207D 		.ascii	"H\036 }\032\\\371g5\215\346T\372\330\027\310\367\251"
 161      1A5CF967 
 161      358DE654 
 161      FAD817C8 
 161      F7A9
 162 0140 4AAB42A4 		.ascii	"J\253B\244\032;\225!\034\211\020\225\276L\037\300^\000"
 162      1A3B9521 
 162      1C891095 
 162      BE4C1FC0 
 162      5E00
 163 0152 B99310D9 		.ascii	"\271\223\020\331\245i\333Y`\343\004\020s\213z\230\014"
 163      A569DB59 
 163      60E30410 
 163      738B7A98 
 163      0C
 164 0163 6A5A4FE9 		.ascii	"jZO\351\237\257\356\371\246\246U\250t\220\206 \366{"
 164      9FAFEEF9 
 164      A6A655A8 
 164      74908620 
 164      F67B
 165 0175 942C25AF 		.ascii	"\224,%\257\302\230=\020\277\202\222\231\227w\350\227"
 165      C2983D10 
 165      BF829299 
 165      9777E897 
 166 0185 768E7F07 		.ascii	"v\216\177\007\241_A\350>J\201\350\257\350R\003H\245"
 166      A15F41E8 
 166      3E4A81E8 
 166      AFE85203 
 166      48A5
 167 0197 E5211E18 		.ascii	"\345!\036\030\357M\007\206\206\217\215\016\253\354{"
 167      EF4D0786 
 167      868F8D0E 
 167      ABEC7B
 168 01a6 885F7723 		.ascii	"\210_w#\033\2728\354\254\017X\000\012\311;\030}\215"
 168      1BBA38EC 
 168      AC0F5800 
 168      0AC93B18 
 168      7D8D
 169 01b8 FC42D3F6 		.ascii	"\374B\323\366\301\024\014.\322\362\212\231\2227\320"
 169      C1140C2E 
 169      D2F28A99 
 169      9237D0
 170 01c7 EB107DD0 		.ascii	"\353\020}\320U\253\201\255\207jo\246\032\315\260Q/a"
 170      55AB81AD 
 170      876A6FA6 
 170      1ACDB051 
 170      2F61
 171 01d9 847C9D0C 		.ascii	"\204|\235\014\261)\336\253=\263\200\342\014\023#J\220"
 171      B129DEAB 
 171      3DB380E2 
 171      0C13234A 
 171      90
 172 01ea FA3A5566 		.ascii	"\372:Uf\326J\361\350[\225=]\245\351\351\227\252\275"
 172      D64AF1E8 
 172      5B953D5D 
 172      A5E9E997 
ARM GAS  /tmp/cceuxfWV.s 			page 13


 172      AABD
 173 01fc 17CAA858 		.ascii	"\027\312\250X(:\017G^\012\256y\321\2363\305\251\364"
 173      283A0F47 
 173      5E0AAE79 
 173      D19E33C5 
 173      A9F4
 174 020e 30F051E9 		.ascii	"0\360Q\351\310g\0227\342\024w\314U\334mK\234^\335\012"
 174      C8671237 
 174      E21477CC 
 174      55DC6D4B 
 174      9C5EDD0A 
 175 0222 79DB9D16 		.ascii	"y\333\235\026\227\363\367\321\243\340i\252\356\330j"
 175      97F3F7D1 
 175      A3E069AA 
 175      EED86A
 176 0231 8651CD1C 		.ascii	"\206Q\315\034a\0225\005\247\2327]\325\214\235\265\325"
 176      61123505 
 176      A79A375D 
 176      D58C9DB5 
 176      D5
 177 0242 8CA29A9B 		.ascii	"\214\242\232\233\356jz\235I>\371\231h\235t\322:5\223"
 177      EE6A7A9D 
 177      493EF999 
 177      689D74D2 
 177      3A3593
 178 0255 56A9A7D4 		.ascii	"V\251\247\324\273\357\322\016\332\333\235\237\320n\261"
 178      BBEFD20E 
 178      DADB9D9F 
 178      D06EB1
 179 0264 17C67B19 		.ascii	"\027\306{\031\235\021\313h>\331m/\012\306\012Q\032*"
 179      9D11CB68 
 179      3ED96D2F 
 179      0AC60A51 
 179      1A2A
 180 0276 2EECB757 		.ascii	".\354\267W\210\012\023\202-*\270B\2605F\261\234\265"
 180      880A1382 
 180      2D2AB842 
 180      B03546B1 
 180      9CB5
 181 0288 850BDD7D 		.ascii	"\205\013\335}Uz\226>\014vB\227\213\217\364\276\331\233"
 181      557A963E 
 181      0C764297 
 181      8B8FF4BE 
 181      D99B
 182 029a C625FB35 		.ascii	"\306%\3735\305m\271B\200\331Ce\032\177O\347\333\020"
 182      C56DB942 
 182      80D94365 
 182      1A7F4FE7 
 182      DB10
 183 02ac C20B32AC 		.ascii	"\302\0132\254\210sg:\275-&\371\253\344\220v\376|\351"
 183      8873673A 
 183      BD2D26F9 
 183      ABE49076 
 183      FE7CE9
 184 02bf 999BFD74 		.ascii	"\231\233\375tW~{\217vwz\232\336KzX\212\253\373\253T"
 184      577E7B8F 
 184      76777A9A 
ARM GAS  /tmp/cceuxfWV.s 			page 14


 184      DE4B7A58 
 184      8AABFBAB 
 185 02d4 FA161030 		.ascii	"\372\026\0200\006\377\200\232\243/\301P\336mB\356\246"
 185      06FF809A 
 185      A32FC150 
 185      DE6D42EE 
 185      A6
 186 02e5 D2770091 		.ascii	"\322w\000\221]\230G\315\230\001\364\220\311\372#\227"
 186      5D9847CD 
 186      9801F490 
 186      C9FA2397 
 187 02f5 8CCA90DD 		.ascii	"\214\312\220\335Y,H1\275@\355\230\342x\253\234,\024"
 187      592C4831 
 187      BD40ED98 
 187      E278AB9C 
 187      2C14
 188 0307 72C6C8FD 		.ascii	"r\306\310\375W\310\237\224\237\263%\377\017HK(\213\373"
 188      57C89F94 
 188      9FB325FF 
 188      0F484B28 
 188      8BFB
 189 0319 482F4AE2 		.ascii	"H/J\342v\215|\311B\332\261\230X\033\307\251K7\327\342"
 189      768D7CC9 
 189      42DAB198 
 189      581BC7A9 
 189      4B37D7E2 
 190 032d C67191DE 		.ascii	"\306q\221\336\007\340\203\0011\333\036\200\230\202w"
 190      07E08301 
 190      31DB1E80 
 190      988277
 191 033c 21580FD3 		.ascii	"!X\017\323\253\255\330{\245R\013\352\337\023\227\351"
 191      ABADD87B 
 191      A5520BEA 
 191      DF1397E9 
 192 034c 33AE8748 		.ascii	"3\256\207H^\333\321U\354\273\262\237j\371\323\326|\031"
 192      5EDBD155 
 192      ECBBB29F 
 192      6AF9D3D6 
 192      7C19
 193 035e 65DD3DEB 		.ascii	"e\335=\353\306\247\322!,\325\271w&#ZS\314\360ja\332"
 193      C6A7D221 
 193      2CD5B977 
 193      26235A53 
 193      CCF06A61 
 194 0373 D9140EDA 		.ascii	"\331\024\016\332\323\356tS\351\025\337\323~U2\355\345"
 194      D3EE7453 
 194      E915DFD3 
 194      7E5532ED 
 194      E5
 195 0384 C2B45FB5 		.ascii	"\302\264_\265\247\3750\246\235e\313\225\205\205c\202"
 195      A7FD30A6 
 195      9D65CB95 
 195      85856382 
 196 0394 5659BB39 		.ascii	"VY\2739K!\344\373\300\223=\252L\320<3~\2231\3605\337"
 196      4B21E4FB 
 196      C0933DAA 
 196      4CD03C33 
ARM GAS  /tmp/cceuxfWV.s 			page 15


 196      7E9331F0 
 197 03aa 824A1241 		.ascii	"\202J\022A_$\246\202\321\031\012\204a\205\224\316T\000"
 197      5F24A682 
 197      D1190A84 
 197      618594CE 
 197      5400
 198 03bc 45D00F0A 		.ascii	"E\320\017\012T\372\036PS\310\011O\351\320\250<\037/"
 198      54FA1E50 
 198      53C8094F 
 198      E9D0A83C 
 198      1F2F
 199 03ce 20DA3544 		.ascii	" \3325D;\355\211Z^\206\006\334\016r\334\316y\343\246"
 199      3BED895A 
 199      5E8606DC 
 199      0E72DCCE 
 199      79E3A6
 200 03e1 C8B90D70 		.ascii	"\310\271\015p\334\316{\343&C\003n\303\034\267Io\334"
 200      DCCE7BE3 
 200      2643036E 
 200      C31CB749 
 200      6FDC
 201 03f3 02726E23 		.ascii	"\002rn#\034\267k\336\270\311\320\200\333Q\216\333\207"
 201      1CB76BDE 
 201      B8C9D080 
 201      DB518EDB 
 201      87
 202 0404 DEB805E5 		.ascii	"\336\270\005\345\334\216\317R\343U&@\211\032%\373w\337"
 202      DC8ECF52 
 202      E3552640 
 202      891A25FB 
 202      77DF
 203 0416 45FE0F49 		.ascii	"E\376\017I\221?j\025\371\215\031\032\304q\315\224\310"
 203      913F6A15 
 203      F98D191A 
 203      C471CD94 
 203      C8
 204 0427 44404A0A 		.ascii	"D@J\012O\016o\2627\034c\235c;\362\254\3337\374v\370"
 204      4F0E6FB2 
 204      371C639D 
 204      633BF2AC 
 204      DB37FC76 
 205 043c 70528175 		.ascii	"pR\201u\232\333\302e\001*\3757.\214T\\\030\255\255\330"
 205      9ADBC265 
 205      012AFD37 
 205      2E8C545C 
 205      18ADADD8 
 206 0450 DAC43F75 		.ascii	"\332\304?u\254\365\036\260\255_\033\003\253p\323\370"
 206      ACF51EB0 
 206      AD5F1B03 
 206      AB70D3F8 
 207 0460 0F1E05B5 		.ascii	"\017\036\005\265\240\363\327\006\265d[\367\263q\361"
 207      A0F3D706 
 207      B5645BF7 
 207      B371F1
 208 046f E36B66FE 		.ascii	"\343kf\376\036\223\327-\035\200\337\305?\345*\303\351"
 208      1E93D72D 
 208      1D80DFC5 
ARM GAS  /tmp/cceuxfWV.s 			page 16


 208      3FE52AC3 
 208      E9
 209 0480 A7D23BBE 		.ascii	"\247\322;\276+\343\256\2442nR\201\371]{A\337\035tV\212"
 209      2BE3AEA4 
 209      326E5281 
 209      F95D7B41 
 209      DF1D7456 
 210 0495 C8C32CF7 		.ascii	"\310\303,\367y\322r\207\235\371\306\001\272O\323&\226"
 210      79D27287 
 210      9DF9C601 
 210      BA4FD326 
 210      96
 211 04a6 C98AFE90 		.ascii	"\311\212\376\220\265\021\367\334oP\350R\374j\333\256"
 211      B511F7DC 
 211      6F50E852 
 211      FC6ADBAE 
 212 04b6 B86BEB2E 		.ascii	"\270k\353.\263\312~\357\0141\216\221Me\345\262\272\357"
 212      B3CA7EEF 
 212      0C318E91 
 212      4D65E5B2 
 212      BAEF
 213 04c8 2E8E5FA9 		.ascii	".\216_\251dk\301$\026\314\363N@\201\225\231\233\305"
 213      646BC124 
 213      16CCF34E 
 213      40819599 
 213      9BC5
 214 04da 2E686E17 		.ascii	".hn\027\177\374P\351%,\376\313\364!\260Sh\257\243\375"
 214      7FFC50E9 
 214      252CFECB 
 214      F421B053 
 214      68AFA3FD 
 215 04ee 2BDABFA1 		.ascii	"+\332\277\241\375\000\355Gh?F{\003\355-\264\267\321"
 215      FD00ED47 
 215      683F467B 
 215      03ED2DB4 
 215      B7D1
 216 0500 6A0AB33B 		.ascii	"j\012\263;\300Z\227,\205\027\354\303\353\\\247\260\222"
 216      C05A972C 
 216      8517ECC3 
 216      EB5CA7B0 
 216      92
 217 0511 F53AEDB1 		.ascii	"\365:\355\261\337\247\342\265)\012\277Uv*\354\004v0"
 217      DFA7E2B5 
 217      290ABF55 
 217      762AEC04 
 217      7630
 218 0523 38E709CC 		.ascii	"8\347\011\314\001\302(\354V\234\007\260)<\200\261\357"
 218      01C228EC 
 218      569C07B0 
 218      293C80B1 
 218      EF
 219 0534 E73880ED 		.ascii	"\3478\200\355\357.\366M\355_\304\016`\326\261\253\370"
 219      EF2EF64D 
 219      ED5FC40E 
 219      60D6B1AB 
 219      F8
 220 0545 7F387629 		.ascii	"\1778v)d\010\2450\012\263L\263\220Z\261f\016Lq5\363"
ARM GAS  /tmp/cceuxfWV.s 			page 17


 220      6408A530 
 220      0AB34CB3 
 220      905AB166 
 220      0E4C7135 
 221 055a 9A6FB06A 		.ascii	"\232o\260j\001\254\237\007\033\366\002V!g\366\002\017"
 221      01AC9F07 
 221      1BF60256 
 221      2167F602 
 221      0F
 222 056b 76CC3798 		.ascii	"v\3147\230\310\354 \017\366;/`\013\344\314\006x\260"
 222      C8EC200F 
 222      F63B2F60 
 222      0BE4CC06 
 222      78B0
 223 057d 53BEC178 		.ascii	"S\276\301xfp\266\330\310oV*\375\304^|6\231\341\225\030"
 223      6670B6D8 
 223      C86F562A 
 223      FDC45E7C 
 223      3699E195 
 224 0592 20597D1D 		.ascii	" Y}\035^*}\321\367\372tP\262>Y\257\234\340\305~\037"
 224      5E2A7DD1 
 224      F7FA7450 
 224      B23E59AF 
 224      9CE0C57E 
 225 05a7 39450B24 		.ascii	"9E\013$\214\356By\006G\370\014\236\365\222\301j\371"
 225      8CEE4279 
 225      0647F80C 
 225      9EF592C1 
 225      6AF9
 226 05b9 DC1EE5C1 		.ascii	"\334\036\345\301\336\361\002\366\0159\263\343<\330\005"
 226      DEF102F6 
 226      0D39B3E3 
 226      3CD805
 227 05c8 DF6022B3 		.ascii	"\337`\"\263\002\017v\311\013\33029\2631\036\354\252"
 227      020F76C9 
 227      0BD83239 
 227      B3311EEC 
 227      AA
 228 05d9 6F3091D9 		.ascii	"o0\221\3318\017v\335\013\330*9\263\223<\330\373\276"
 228      380F76DD 
 228      0BD82A39 
 228      B3933CD8 
 228      FBBE
 229 05eb C13866FB 		.ascii	"\3018f\373\273\212\3477Z'\320\374jV\267{\025\253pW\213"
 229      BB8AE737 
 229      5A27D0FC 
 229      6A56B77B 
 229      15AB7057 
 230 0600 6FBAE0C6 		.ascii	"o\272\340\306m\332\0167\225\036\366\375F\034\221\274"
 230      6DDA0E37 
 230      951EF6FD 
 230      461C91BC 
 231 0610 11E261E4 		.ascii	"\021\342a\344\210\375F|\354\224-\2200\272\253%9\204"
 231      88FD467C 
 231      EC942D90 
 231      30BAAB25 
 231      3984
ARM GAS  /tmp/cceuxfWV.s 			page 18


 232 0622 EDE1829E 		.ascii	"\355\341\202\236C&V!\267\274\344\260Q\016\366g\036\354"
 232      43265621 
 232      B7BCE4B0 
 232      510EF667 
 232      1EEC
 233 0634 B66F3071 		.ascii	"\266o0qB\336\335(\376$\340\346C\263\216(\013\370\011"
 233      42DEDD28 
 233      FE24E0E6 
 233      43B38E28 
 233      0BF809
 234 0647 99718872 		.ascii	"\231q\210r\270\251\364\267\276'\244 \231\020\373o,\336"
 234      B8A9F4B7 
 234      BE27A420 
 234      9910FB6F 
 234      2CDE
 235 0659 8B9DBC9D 		.ascii	"\213\235\274\235\262E\026F\267Y\226\304\256\342e\271"
 235      B2451646 
 235      B75996C4 
 235      AEE265B9 
 236 0669 EEBC0575 		.ascii	"\356\274\005u\377l\272\235n*\035\367\255\373\204DwP"
 236      FF6CBA9D 
 236      6E2A1DF7 
 236      ADFB8444 
 236      7750
 237 067b D07DC2D6 		.ascii	"\320}\302\326}\307\251[dat7It\303\251fr#\253\035\306"
 237      7DC7A95B 
 237      64617437 
 237      4974C3A9 
 237      667223AB 
 238 0691 54A57FC1 		.ascii	"T\245\177\301\277l\347\002\333*)\036X\032\256\362K\303"
 238      BF6CE702 
 238      DB2A291E 
 238      581AAEF2 
 238      4BC3
 239 06a3 F6320F95 		.ascii	"\3662\017\225\270\313\355?\002\267\213?\220\251\364"
 239      B8CBED3F 
 239      02B78B3F 
 239      90A9F4
 240 06b2 270A3B31 		.ascii	"'\012;1\355\301\003\345O\321\366\242}\016m\037\332\347"
 240      EDC103E5 
 240      4FD1F6A2 
 240      7D0E6D1F 
 240      DAE7
 241 06c4 D1FE0CED 		.ascii	"\321\376\014\355\000\332<\332\227\321\016\242\375%\332"
 241      00DA3CDA 
 241      97D10EA2 
 241      FD25DA
 242 06d3 57D0FE1A 		.ascii	"W\320\376\032\355\353h\337@;\212\366\030\3321\264\247"
 242      EDEB68DF 
 242      403B8AF6 
 242      18DA31B4 
 242      A7
 243 06e4 D016BD1C 		.ascii	"\320\026\275\034a\237U\334\217\260\372\277\317\262\250"
 243      619F55DC 
 243      8FB0FABF 
 243      CFB2A8
 244 06f3 D3D228F6 		.ascii	"\323\322(\366\237\244,\352\214\035E\036iMo\016GZ\322"
ARM GAS  /tmp/cceuxfWV.s 			page 19


 244      9FA42CEA 
 244      8C1D451E 
 244      694D6F0E 
 244      475AD2
 245 0706 9BD34FC4 		.ascii	"\233\323O\304\023\313\037\251Y^S\033\016\267w\204[\324"
 245      13CB1FA9 
 245      595E531B 
 245      0EB77784 
 245      5BD4
 246 0718 D6F0D6F6 		.ascii	"\326\360\326\366l\256#\234lokk\317\204\353bM\221\246"
 246      6CAE239C 
 246      6C6F6B6B 
 246      CF84EB62 
 246      4D91A6
 247 072b A7C3991F 		.ascii	"\247\303\231\037\246\2235I\262$\334\331\221\015\247"
 247      A6933549 
 247      B224DCD9 
 247      910DA7
 248 073a 33C9D6CE 		.ascii	"3\311\326\316-\251p&\365#\006\323\221\333\222\316\344"
 248      2DA97026 
 248      F52306D3 
 248      91DB92CE 
 248      E4
 249 074b 6A5A4845 		.ascii	"jZHE'|\256\\\221\310\315\373\356\343\353\253#\344[n"
 249      277CAE5C 
 249      91C8CDFB 
 249      EEE3EBAB 
 249      23E45B6E 
 250 075f DE6D6AB2 		.ascii	"\336mj\262%\235I\205\023[RO\251\235\255\271Dn\333\326"
 250      259D4985 
 250      135B524F 
 250      A99DADB9 
 250      446EDBD6 
 251 0773 5407447F 		.ascii	"T\007D\177.\2210\343\027\260\341\0322\352\346\326\324"
 251      2E9130E3 
 251      17B0E11A 
 251      32EAE6D6 
 251      D4
 252 0784 865432D7 		.ascii	"\206T2\327\236\245\231\340\326l\272\375^\366}}\272\303"
 252      9EA599E0 
 252      D66CBAFD 
 252      5EF67D7D 
 252      BAC3
 253 0796 7EB0987D 		.ascii	"~\260\230}\023O\345\342\333:r\251\266F5\263\2455\225"
 253      134FE5E2 
 253      DB3A72A9 
 253      B64635B3 
 253      A53595
 254 07a9 6D06D76C 		.ascii	"m\006\327l:\267\255\274E\277G\270HkJ\3156\2472\300\365"
 254      3AB7ADBC 
 254      45BF47B8 
 254      486B4ACD 
 254      36A732C0 
 255 07be 074B25EA 		.ascii	"\007K%\352\2639\213m\262\245c\033c\025L\266\250\331"
 255      B3398B6D 
 255      B2A5631B 
 255      63154CB6 
ARM GAS  /tmp/cceuxfWV.s 			page 20


 255      A8D9
 256 07d0 50B20506 		.ascii	"P\262\005\006hT[s\025\211\304S\235\231d\"\361y\263S"
 256      68545B73 
 256      1589C453 
 256      9D996422 
 256      F179B353 
 257 07e4 F368EDCA 		.ascii	"\363h\355\312\025Kf\243Aj%\303\245\236\316\205#M\361"
 257      154B66A3 
 257      416A25C3 
 257      A59ECE85 
 257      234DF1
 258 07f7 68DC1EB5 		.ascii	"h\334\036\265=\233J$\333ja\340\320\343\033\242\221\304"
 258      3D9B4A24 
 258      DB6A61E0 
 258      D0E31BA2 
 258      91C4
 259 0809 3A484E30 		.ascii	":HN0\032o\210\205b\015`74\324/\013F#\015\261\212\230"
 259      1A6F8885 
 259      620D6037 
 259      34D42F0B 
 259      46230DB1 
 260 081f 7EB71C1E 		.ascii	"~\267\034\0366\333\017W\300C\356ve0Z\267\306\276\255"
 260      36DB0F57 
 260      C043EE76 
 260      65305AB7 
 260      C6BEAD
 261 0832 2D67095E 		.ascii	"-g\011^\225\310\205\364TCO\2116[\217\277\035\214\257"
 261      95C885F4 
 261      54434F89 
 261      365B8FBF 
 261      1D8CAF
 262 0845 8BC62AE2 		.ascii	"\213\306*\342\22158lY\244y}\264\036\000\343\261\340"
 262      9135386C 
 262      59A4797D 
 262      B41E00E3 
 262      B1E0
 263 0857 86754FC4 		.ascii	"\206uO\304\312\352\242\261H,\020\207\026a\237\215\315"
 263      CAEAA2B1 
 263      482C1087 
 263      16619F8D 
 263      CD
 264 0868 65F146F6 		.ascii	"e\361F\3660\262\026L#3\365`\312\232\232\326\326\305"
 264      30B2164C 
 264      2333F560 
 264      CA9A9AD6 
 264      D6C5
 265 087a 826B98A9 		.ascii	"\202k\230\251\203\373@\363\332X\240\036Z]},\010\317"
 265      83FB40F3 
 265      DA58A01E 
 265      5A5D7D2C 
 265      08CF
 266 088c 62C0B82E 		.ascii	"b\300\270.\006\340u\221\330\377\000\243\037\257\334"
 266      06E07591 
 266      D8FF00A3 
 266      1FAFDC
 267              		.text
 268              		.section	.gnu.lto_.symtab.4e0f9dd9bcd9e2e9,"",%progbits
ARM GAS  /tmp/cceuxfWV.s 			page 21


 269 0000 6E766963 		.ascii	"nvicEnableVector\000\000\000\000\000\000\000\000\000"
 269      456E6162 
 269      6C655665 
 269      63746F72 
 269      00000000 
 270 0019 000000A1 		.ascii	"\000\000\000\241\000\000\000nvicDisableVector\000\000"
 270      0000006E 
 270      76696344 
 270      69736162 
 270      6C655665 
 271 0033 00000000 		.ascii	"\000\000\000\000\000\000\000\000\000\000\262\000\000"
 271      00000000 
 271      0000B200 
 271      00
 272 0040 006E7669 		.ascii	"\000nvicSetSystemHandlerPriority\000\000\000\000\000"
 272      63536574 
 272      53797374 
 272      656D4861 
 272      6E646C65 
 273 0062 00000000 		.ascii	"\000\000\000\000\000\000\000\270\000\000\000nvicCle"
 273      000000B8 
 273      0000006E 
 273      76696343 
 273      6C65
 274 0074 61725065 		.ascii	"arPending\000\000\000\000\000\000\000\000\000\000\000"
 274      6E64696E 
 274      67000000 
 274      00000000 
 274      00000000 
 275 0088 00BE0000 		.ascii	"\000\276\000\000\000chSysHalt\000\000\002\000\000\000"
 275      00636853 
 275      79734861 
 275      6C740000 
 275      02000000 
 276 009c 00000000 		.ascii	"\000\000\000\000\000\000\302\000\000\000"
 276      0000C200 
 276      0000
 277              		.text
 278              		.section	.gnu.lto_.opts,"",%progbits
 279 0000 272D6D63 		.ascii	"'-mcpu=cortex-m4' '-mno-thumb-interwork' '-mthumb' "
 279      70753D63 
 279      6F727465 
 279      782D6D34 
 279      2720272D 
 280 0033 272D6767 		.ascii	"'-ggdb' '-O0' '-fomit-frame-pointer' '-falign-funct"
 280      64622720 
 280      272D4F30 
 280      2720272D 
 280      666F6D69 
 281 0066 696F6E73 		.ascii	"ions=16' '-ffunction-sections' '-fdata-sections' '-"
 281      3D313627 
 281      20272D66 
 281      66756E63 
 281      74696F6E 
 282 0099 666E6F2D 		.ascii	"fno-common' '-flto'\000"
 282      636F6D6D 
 282      6F6E2720 
ARM GAS  /tmp/cceuxfWV.s 			page 22


 282      272D666C 
 282      746F2700 
 283              		.text
 284              		.cfi_sections	.debug_frame
 285              		.section	.text.nvicEnableVector,"ax",%progbits
 286              		.align	2
 287              		.p2align 4,,15
 288              		.global	nvicEnableVector
 289              		.thumb
 290              		.thumb_func
 291              		.type	nvicEnableVector, %function
 292              	nvicEnableVector:
 293              	.LFB272:
 294              		.file 1 "lib/ChibiOS_16.1.4//os/hal/ports/common/ARMCMx/nvic.c"
 295              		.loc 1 57 0
 296              		.cfi_startproc
 297              		@ args = 0, pretend = 0, frame = 8
 298              		@ frame_needed = 0, uses_anonymous_args = 0
 299              		@ link register save eliminated.
 300 0000 82B0     		sub	sp, sp, #8
 301              		.cfi_def_cfa_offset 8
 302 0002 0190     		str	r0, [sp, #4]
 303 0004 0091     		str	r1, [sp]
 304              		.loc 1 63 0
 305 0006 4FF46143 		mov	r3, #57600
 306 000a CEF20003 		movt	r3, 57344
 307 000e 009A     		ldr	r2, [sp]
 308 0010 D2B2     		uxtb	r2, r2
 309 0012 1201     		lsls	r2, r2, #4
 310 0014 D2B2     		uxtb	r2, r2
 311 0016 0199     		ldr	r1, [sp, #4]
 312 0018 0B44     		add	r3, r3, r1
 313 001a 03F54073 		add	r3, r3, #768
 314 001e 1A70     		strb	r2, [r3]
 315              		.loc 1 65 0
 316 0020 4FF46143 		mov	r3, #57600
 317 0024 CEF20003 		movt	r3, 57344
 318 0028 019A     		ldr	r2, [sp, #4]
 319 002a 5209     		lsrs	r2, r2, #5
 320 002c 0199     		ldr	r1, [sp, #4]
 321 002e 01F01F01 		and	r1, r1, #31
 322 0032 0120     		movs	r0, #1
 323 0034 00FA01F1 		lsl	r1, r0, r1
 324 0038 6032     		adds	r2, r2, #96
 325 003a 43F82210 		str	r1, [r3, r2, lsl #2]
 326              		.loc 1 66 0
 327 003e 4FF46143 		mov	r3, #57600
 328 0042 CEF20003 		movt	r3, 57344
 329 0046 019A     		ldr	r2, [sp, #4]
 330 0048 5209     		lsrs	r2, r2, #5
 331 004a 0199     		ldr	r1, [sp, #4]
 332 004c 01F01F01 		and	r1, r1, #31
 333 0050 0120     		movs	r0, #1
 334 0052 00FA01F1 		lsl	r1, r0, r1
 335 0056 43F82210 		str	r1, [r3, r2, lsl #2]
 336              		.loc 1 67 0
 337 005a 02B0     		add	sp, sp, #8
ARM GAS  /tmp/cceuxfWV.s 			page 23


 338              		@ sp needed
 339 005c 7047     		bx	lr
 340              		.cfi_endproc
 341              	.LFE272:
 342              		.size	nvicEnableVector, .-nvicEnableVector
 343 005e 00BF     		.section	.text.nvicDisableVector,"ax",%progbits
 344              		.align	2
 345              		.p2align 4,,15
 346              		.global	nvicDisableVector
 347              		.thumb
 348              		.thumb_func
 349              		.type	nvicDisableVector, %function
 350              	nvicDisableVector:
 351              	.LFB273:
 352              		.loc 1 74 0
 353              		.cfi_startproc
 354              		@ args = 0, pretend = 0, frame = 8
 355              		@ frame_needed = 0, uses_anonymous_args = 0
 356              		@ link register save eliminated.
 357 0000 82B0     		sub	sp, sp, #8
 358              		.cfi_def_cfa_offset 8
 359 0002 0190     		str	r0, [sp, #4]
 360              		.loc 1 76 0
 361 0004 4FF46143 		mov	r3, #57600
 362 0008 CEF20003 		movt	r3, 57344
 363 000c 019A     		ldr	r2, [sp, #4]
 364 000e 5209     		lsrs	r2, r2, #5
 365 0010 0199     		ldr	r1, [sp, #4]
 366 0012 01F01F01 		and	r1, r1, #31
 367 0016 0120     		movs	r0, #1
 368 0018 00FA01F1 		lsl	r1, r0, r1
 369 001c 2032     		adds	r2, r2, #32
 370 001e 43F82210 		str	r1, [r3, r2, lsl #2]
 371              		.loc 1 80 0
 372 0022 4FF46143 		mov	r3, #57600
 373 0026 CEF20003 		movt	r3, 57344
 374 002a 019A     		ldr	r2, [sp, #4]
 375 002c 1344     		add	r3, r3, r2
 376 002e 03F54073 		add	r3, r3, #768
 377 0032 0022     		movs	r2, #0
 378 0034 1A70     		strb	r2, [r3]
 379              		.loc 1 82 0
 380 0036 02B0     		add	sp, sp, #8
 381              		@ sp needed
 382 0038 7047     		bx	lr
 383              		.cfi_endproc
 384              	.LFE273:
 385              		.size	nvicDisableVector, .-nvicDisableVector
 386 003a 00BFAFF3 		.section	.text.nvicSetSystemHandlerPriority,"ax",%progbits
 386      0080
 387              		.align	2
 388              		.p2align 4,,15
 389              		.global	nvicSetSystemHandlerPriority
 390              		.thumb
 391              		.thumb_func
 392              		.type	nvicSetSystemHandlerPriority, %function
 393              	nvicSetSystemHandlerPriority:
ARM GAS  /tmp/cceuxfWV.s 			page 24


 394              	.LFB274:
 395              		.loc 1 90 0
 396              		.cfi_startproc
 397              		@ args = 0, pretend = 0, frame = 8
 398              		@ frame_needed = 0, uses_anonymous_args = 0
 399 0000 00B5     		push	{lr}
 400              		.cfi_def_cfa_offset 4
 401              		.cfi_offset 14, -4
 402 0002 83B0     		sub	sp, sp, #12
 403              		.cfi_def_cfa_offset 16
 404 0004 0190     		str	r0, [sp, #4]
 405 0006 0091     		str	r1, [sp]
 406              		.loc 1 92 0
 407 0008 019B     		ldr	r3, [sp, #4]
 408 000a 0B2B     		cmp	r3, #11
 409 000c 05D9     		bls	.L4
 410              		.loc 1 92 0 is_stmt 0 discriminator 1
 411 000e 40F20000 		movw	r0, #:lower16:__func__.7432
 412 0012 C0F20000 		movt	r0, #:upper16:__func__.7432
 413 0016 FFF7FEFF 		bl	chSysHalt
 414              	.L4:
 415              		.loc 1 100 0 is_stmt 1
 416 001a 4FF46D43 		mov	r3, #60672
 417 001e CEF20003 		movt	r3, 57344
 418 0022 009A     		ldr	r2, [sp]
 419 0024 D2B2     		uxtb	r2, r2
 420 0026 1201     		lsls	r2, r2, #4
 421 0028 D2B2     		uxtb	r2, r2
 422 002a 0199     		ldr	r1, [sp, #4]
 423 002c 0B44     		add	r3, r3, r1
 424 002e 1833     		adds	r3, r3, #24
 425 0030 1A70     		strb	r2, [r3]
 426              		.loc 1 102 0
 427 0032 03B0     		add	sp, sp, #12
 428              		@ sp needed
 429 0034 5DF804FB 		ldr	pc, [sp], #4
 430              		.cfi_endproc
 431              	.LFE274:
 432              		.size	nvicSetSystemHandlerPriority, .-nvicSetSystemHandlerPriority
 433 0038 AFF30080 		.section	.text.nvicClearPending,"ax",%progbits
 433      AFF30080 
 434              		.align	2
 435              		.p2align 4,,15
 436              		.global	nvicClearPending
 437              		.thumb
 438              		.thumb_func
 439              		.type	nvicClearPending, %function
 440              	nvicClearPending:
 441              	.LFB275:
 442              		.loc 1 109 0
 443              		.cfi_startproc
 444              		@ args = 0, pretend = 0, frame = 8
 445              		@ frame_needed = 0, uses_anonymous_args = 0
 446              		@ link register save eliminated.
 447 0000 82B0     		sub	sp, sp, #8
 448              		.cfi_def_cfa_offset 8
 449 0002 0190     		str	r0, [sp, #4]
ARM GAS  /tmp/cceuxfWV.s 			page 25


 450              		.loc 1 111 0
 451 0004 4FF46143 		mov	r3, #57600
 452 0008 CEF20003 		movt	r3, 57344
 453 000c 019A     		ldr	r2, [sp, #4]
 454 000e 5209     		lsrs	r2, r2, #5
 455 0010 0199     		ldr	r1, [sp, #4]
 456 0012 01F01F01 		and	r1, r1, #31
 457 0016 0120     		movs	r0, #1
 458 0018 00FA01F1 		lsl	r1, r0, r1
 459 001c 6032     		adds	r2, r2, #96
 460 001e 43F82210 		str	r1, [r3, r2, lsl #2]
 461              		.loc 1 112 0
 462 0022 02B0     		add	sp, sp, #8
 463              		@ sp needed
 464 0024 7047     		bx	lr
 465              		.cfi_endproc
 466              	.LFE275:
 467              		.size	nvicClearPending, .-nvicClearPending
 468 0026 00BFAFF3 		.section	.rodata.__func__.7432,"a",%progbits
 468      0080AFF3 
 468      0080
 469              		.align	2
 470              		.type	__func__.7432, %object
 471              		.size	__func__.7432, 29
 472              	__func__.7432:
 473 0000 6E766963 		.ascii	"nvicSetSystemHandlerPriority\000"
 473      53657453 
 473      79737465 
 473      6D48616E 
 473      646C6572 
 474 001d 000000   		.text
 475              	.Letext0:
 476              		.file 2 "/usr/include/newlib/machine/_default_types.h"
 477              		.file 3 "/usr/include/newlib/stdint.h"
 478              		.file 4 "lib/ChibiOS_16.1.4//os/rt/ports/ARMCMx/compilers/GCC/chtypes.h"
 479              		.file 5 "lib/ChibiOS_16.1.4//os/rt/include/chsystypes.h"
 480              		.file 6 "lib/ChibiOS_16.1.4//os/rt/include/chschd.h"
 481              		.file 7 "lib/ChibiOS_16.1.4//os/ext/CMSIS/include/core_cm4.h"
 482              		.file 8 "lib/ChibiOS_16.1.4//os/rt/ports/ARMCMx/chcore.h"
 483              		.file 9 "lib/ChibiOS_16.1.4//os/rt/ports/ARMCMx/chcore_v7m.h"
 484              		.file 10 "lib/ChibiOS_16.1.4//os/rt/include/chdebug.h"
 485              		.file 11 "lib/ChibiOS_16.1.4//os/rt/include/chtm.h"
 486              		.file 12 "lib/ChibiOS_16.1.4//os/rt/include/chstats.h"
 487              		.file 13 "lib/ChibiOS_16.1.4//os/rt/include/chsem.h"
 488              		.file 14 "lib/ChibiOS_16.1.4//os/rt/include/chmtx.h"
 489              		.section	.debug_info,"",%progbits
 490              	.Ldebug_info0:
 491 0000 5E0B0000 		.4byte	0xb5e
 492 0004 0400     		.2byte	0x4
 493 0006 00000000 		.4byte	.Ldebug_abbrev0
 494 000a 04       		.byte	0x4
 495 000b 01       		.uleb128 0x1
 496 000c C2020000 		.4byte	.LASF164
 497 0010 01       		.byte	0x1
 498 0011 45050000 		.4byte	.LASF165
 499 0015 42010000 		.4byte	.LASF166
 500 0019 00000000 		.4byte	.Ldebug_ranges0+0
ARM GAS  /tmp/cceuxfWV.s 			page 26


 501 001d 00000000 		.4byte	0
 502 0021 00000000 		.4byte	.Ldebug_line0
 503 0025 02       		.uleb128 0x2
 504 0026 04       		.byte	0x4
 505 0027 05       		.byte	0x5
 506 0028 696E7400 		.ascii	"int\000"
 507 002c 03       		.uleb128 0x3
 508 002d 04       		.byte	0x4
 509 002e 07       		.byte	0x7
 510 002f 30020000 		.4byte	.LASF0
 511 0033 03       		.uleb128 0x3
 512 0034 01       		.byte	0x1
 513 0035 06       		.byte	0x6
 514 0036 36010000 		.4byte	.LASF1
 515 003a 04       		.uleb128 0x4
 516 003b 4C000000 		.4byte	.LASF5
 517 003f 02       		.byte	0x2
 518 0040 1C       		.byte	0x1c
 519 0041 45000000 		.4byte	0x45
 520 0045 03       		.uleb128 0x3
 521 0046 01       		.byte	0x1
 522 0047 08       		.byte	0x8
 523 0048 D5040000 		.4byte	.LASF2
 524 004c 03       		.uleb128 0x3
 525 004d 02       		.byte	0x2
 526 004e 05       		.byte	0x5
 527 004f 08050000 		.4byte	.LASF3
 528 0053 03       		.uleb128 0x3
 529 0054 02       		.byte	0x2
 530 0055 07       		.byte	0x7
 531 0056 A1050000 		.4byte	.LASF4
 532 005a 04       		.uleb128 0x4
 533 005b 94030000 		.4byte	.LASF6
 534 005f 02       		.byte	0x2
 535 0060 37       		.byte	0x37
 536 0061 65000000 		.4byte	0x65
 537 0065 03       		.uleb128 0x3
 538 0066 04       		.byte	0x4
 539 0067 05       		.byte	0x5
 540 0068 93010000 		.4byte	.LASF7
 541 006c 04       		.uleb128 0x4
 542 006d 6C060000 		.4byte	.LASF8
 543 0071 02       		.byte	0x2
 544 0072 38       		.byte	0x38
 545 0073 77000000 		.4byte	0x77
 546 0077 03       		.uleb128 0x3
 547 0078 04       		.byte	0x4
 548 0079 07       		.byte	0x7
 549 007a 18060000 		.4byte	.LASF9
 550 007e 03       		.uleb128 0x3
 551 007f 08       		.byte	0x8
 552 0080 05       		.byte	0x5
 553 0081 28010000 		.4byte	.LASF10
 554 0085 04       		.uleb128 0x4
 555 0086 69040000 		.4byte	.LASF11
 556 008a 02       		.byte	0x2
 557 008b 4E       		.byte	0x4e
ARM GAS  /tmp/cceuxfWV.s 			page 27


 558 008c 90000000 		.4byte	0x90
 559 0090 03       		.uleb128 0x3
 560 0091 08       		.byte	0x8
 561 0092 07       		.byte	0x7
 562 0093 9B000000 		.4byte	.LASF12
 563 0097 04       		.uleb128 0x4
 564 0098 D7060000 		.4byte	.LASF13
 565 009c 03       		.byte	0x3
 566 009d 2A       		.byte	0x2a
 567 009e 3A000000 		.4byte	0x3a
 568 00a2 04       		.uleb128 0x4
 569 00a3 CD040000 		.4byte	.LASF14
 570 00a7 03       		.byte	0x3
 571 00a8 41       		.byte	0x41
 572 00a9 5A000000 		.4byte	0x5a
 573 00ad 04       		.uleb128 0x4
 574 00ae E7050000 		.4byte	.LASF15
 575 00b2 03       		.byte	0x3
 576 00b3 42       		.byte	0x42
 577 00b4 6C000000 		.4byte	0x6c
 578 00b8 04       		.uleb128 0x4
 579 00b9 36000000 		.4byte	.LASF16
 580 00bd 03       		.byte	0x3
 581 00be 4E       		.byte	0x4e
 582 00bf 85000000 		.4byte	0x85
 583 00c3 04       		.uleb128 0x4
 584 00c4 95060000 		.4byte	.LASF17
 585 00c8 04       		.byte	0x4
 586 00c9 39       		.byte	0x39
 587 00ca AD000000 		.4byte	0xad
 588 00ce 04       		.uleb128 0x4
 589 00cf FD000000 		.4byte	.LASF18
 590 00d3 04       		.byte	0x4
 591 00d4 3A       		.byte	0x3a
 592 00d5 B8000000 		.4byte	0xb8
 593 00d9 04       		.uleb128 0x4
 594 00da 89050000 		.4byte	.LASF19
 595 00de 04       		.byte	0x4
 596 00df 3C       		.byte	0x3c
 597 00e0 97000000 		.4byte	0x97
 598 00e4 04       		.uleb128 0x4
 599 00e5 9C010000 		.4byte	.LASF20
 600 00e9 04       		.byte	0x4
 601 00ea 3D       		.byte	0x3d
 602 00eb 97000000 		.4byte	0x97
 603 00ef 04       		.uleb128 0x4
 604 00f0 7F040000 		.4byte	.LASF21
 605 00f4 04       		.byte	0x4
 606 00f5 3E       		.byte	0x3e
 607 00f6 97000000 		.4byte	0x97
 608 00fa 04       		.uleb128 0x4
 609 00fb B6040000 		.4byte	.LASF22
 610 00ff 04       		.byte	0x4
 611 0100 40       		.byte	0x40
 612 0101 AD000000 		.4byte	0xad
 613 0105 04       		.uleb128 0x4
 614 0106 98020000 		.4byte	.LASF23
ARM GAS  /tmp/cceuxfWV.s 			page 28


 615 010a 04       		.byte	0x4
 616 010b 41       		.byte	0x41
 617 010c A2000000 		.4byte	0xa2
 618 0110 04       		.uleb128 0x4
 619 0111 88030000 		.4byte	.LASF24
 620 0115 04       		.byte	0x4
 621 0116 43       		.byte	0x43
 622 0117 AD000000 		.4byte	0xad
 623 011b 04       		.uleb128 0x4
 624 011c 1F020000 		.4byte	.LASF25
 625 0120 04       		.byte	0x4
 626 0121 45       		.byte	0x45
 627 0122 A2000000 		.4byte	0xa2
 628 0126 04       		.uleb128 0x4
 629 0127 A9020000 		.4byte	.LASF26
 630 012b 04       		.byte	0x4
 631 012c 46       		.byte	0x46
 632 012d AD000000 		.4byte	0xad
 633 0131 04       		.uleb128 0x4
 634 0132 4E060000 		.4byte	.LASF27
 635 0136 05       		.byte	0x5
 636 0137 33       		.byte	0x33
 637 0138 AD000000 		.4byte	0xad
 638 013c 04       		.uleb128 0x4
 639 013d 39060000 		.4byte	.LASF28
 640 0141 05       		.byte	0x5
 641 0142 3F       		.byte	0x3f
 642 0143 47010000 		.4byte	0x147
 643 0147 05       		.uleb128 0x5
 644 0148 89020000 		.4byte	.LASF50
 645 014c 60       		.byte	0x60
 646 014d 06       		.byte	0x6
 647 014e C2       		.byte	0xc2
 648 014f 4D020000 		.4byte	0x24d
 649 0153 06       		.uleb128 0x6
 650 0154 82050000 		.4byte	.LASF29
 651 0158 06       		.byte	0x6
 652 0159 C3       		.byte	0xc3
 653 015a 58020000 		.4byte	0x258
 654 015e 00       		.byte	0
 655 015f 06       		.uleb128 0x6
 656 0160 AF040000 		.4byte	.LASF30
 657 0164 06       		.byte	0x6
 658 0165 C5       		.byte	0xc5
 659 0166 58020000 		.4byte	0x258
 660 016a 04       		.byte	0x4
 661 016b 06       		.uleb128 0x6
 662 016c 0B010000 		.4byte	.LASF31
 663 0170 06       		.byte	0x6
 664 0171 C7       		.byte	0xc7
 665 0172 FA000000 		.4byte	0xfa
 666 0176 08       		.byte	0x8
 667 0177 06       		.uleb128 0x6
 668 0178 36070000 		.4byte	.LASF32
 669 017c 06       		.byte	0x6
 670 017d C8       		.byte	0xc8
 671 017e 8C070000 		.4byte	0x78c
ARM GAS  /tmp/cceuxfWV.s 			page 29


 672 0182 0C       		.byte	0xc
 673 0183 06       		.uleb128 0x6
 674 0184 AB010000 		.4byte	.LASF33
 675 0188 06       		.byte	0x6
 676 0189 CA       		.byte	0xca
 677 018a 58020000 		.4byte	0x258
 678 018e 10       		.byte	0x10
 679 018f 06       		.uleb128 0x6
 680 0190 2A040000 		.4byte	.LASF34
 681 0194 06       		.byte	0x6
 682 0195 CB       		.byte	0xcb
 683 0196 58020000 		.4byte	0x258
 684 019a 14       		.byte	0x14
 685 019b 06       		.uleb128 0x6
 686 019c F4060000 		.4byte	.LASF35
 687 01a0 06       		.byte	0x6
 688 01a1 D2       		.byte	0xd2
 689 01a2 300A0000 		.4byte	0xa30
 690 01a6 18       		.byte	0x18
 691 01a7 06       		.uleb128 0x6
 692 01a8 25020000 		.4byte	.LASF36
 693 01ac 06       		.byte	0x6
 694 01ad D8       		.byte	0xd8
 695 01ae 420A0000 		.4byte	0xa42
 696 01b2 1C       		.byte	0x1c
 697 01b3 06       		.uleb128 0x6
 698 01b4 F6040000 		.4byte	.LASF37
 699 01b8 06       		.byte	0x6
 700 01b9 DD       		.byte	0xdd
 701 01ba E4000000 		.4byte	0xe4
 702 01be 20       		.byte	0x20
 703 01bf 06       		.uleb128 0x6
 704 01c0 91050000 		.4byte	.LASF38
 705 01c4 06       		.byte	0x6
 706 01c5 E1       		.byte	0xe1
 707 01c6 D9000000 		.4byte	0xd9
 708 01ca 21       		.byte	0x21
 709 01cb 06       		.uleb128 0x6
 710 01cc BD060000 		.4byte	.LASF39
 711 01d0 06       		.byte	0x6
 712 01d1 E6       		.byte	0xe6
 713 01d2 EF000000 		.4byte	0xef
 714 01d6 22       		.byte	0x22
 715 01d7 07       		.uleb128 0x7
 716 01d8 705F7500 		.ascii	"p_u\000"
 717 01dc 06       		.byte	0x6
 718 01dd 3101     		.2byte	0x131
 719 01df 6B090000 		.4byte	0x96b
 720 01e3 24       		.byte	0x24
 721 01e4 08       		.uleb128 0x8
 722 01e5 C1030000 		.4byte	.LASF40
 723 01e9 06       		.byte	0x6
 724 01ea 3601     		.2byte	0x136
 725 01ec 5E020000 		.4byte	0x25e
 726 01f0 28       		.byte	0x28
 727 01f1 08       		.uleb128 0x8
 728 01f2 5E020000 		.4byte	.LASF41
ARM GAS  /tmp/cceuxfWV.s 			page 30


 729 01f6 06       		.byte	0x6
 730 01f7 3C01     		.2byte	0x13c
 731 01f9 82020000 		.4byte	0x282
 732 01fd 2C       		.byte	0x2c
 733 01fe 08       		.uleb128 0x8
 734 01ff 08070000 		.4byte	.LASF42
 735 0203 06       		.byte	0x6
 736 0204 4001     		.2byte	0x140
 737 0206 05010000 		.4byte	0x105
 738 020a 34       		.byte	0x34
 739 020b 08       		.uleb128 0x8
 740 020c D2050000 		.4byte	.LASF43
 741 0210 06       		.byte	0x6
 742 0211 4601     		.2byte	0x146
 743 0213 10010000 		.4byte	0x110
 744 0217 38       		.byte	0x38
 745 0218 08       		.uleb128 0x8
 746 0219 FE040000 		.4byte	.LASF44
 747 021d 06       		.byte	0x6
 748 021e 4D01     		.2byte	0x14d
 749 0220 2A0A0000 		.4byte	0xa2a
 750 0224 3C       		.byte	0x3c
 751 0225 08       		.uleb128 0x8
 752 0226 58060000 		.4byte	.LASF45
 753 022a 06       		.byte	0x6
 754 022b 5101     		.2byte	0x151
 755 022d FA000000 		.4byte	0xfa
 756 0231 40       		.byte	0x40
 757 0232 08       		.uleb128 0x8
 758 0233 61010000 		.4byte	.LASF46
 759 0237 06       		.byte	0x6
 760 0238 5801     		.2byte	0x158
 761 023a 35030000 		.4byte	0x335
 762 023e 44       		.byte	0x44
 763 023f 08       		.uleb128 0x8
 764 0240 99050000 		.4byte	.LASF47
 765 0244 06       		.byte	0x6
 766 0245 5E01     		.2byte	0x15e
 767 0247 1C090000 		.4byte	0x91c
 768 024b 48       		.byte	0x48
 769 024c 00       		.byte	0
 770 024d 04       		.uleb128 0x4
 771 024e D4030000 		.4byte	.LASF48
 772 0252 05       		.byte	0x5
 773 0253 44       		.byte	0x44
 774 0254 58020000 		.4byte	0x258
 775 0258 09       		.uleb128 0x9
 776 0259 04       		.byte	0x4
 777 025a 3C010000 		.4byte	0x13c
 778 025e 04       		.uleb128 0x4
 779 025f 00000000 		.4byte	.LASF49
 780 0263 05       		.byte	0x5
 781 0264 49       		.byte	0x49
 782 0265 69020000 		.4byte	0x269
 783 0269 05       		.uleb128 0x5
 784 026a 08060000 		.4byte	.LASF51
 785 026e 04       		.byte	0x4
ARM GAS  /tmp/cceuxfWV.s 			page 31


 786 026f 06       		.byte	0x6
 787 0270 B0       		.byte	0xb0
 788 0271 82020000 		.4byte	0x282
 789 0275 06       		.uleb128 0x6
 790 0276 82050000 		.4byte	.LASF29
 791 027a 06       		.byte	0x6
 792 027b B1       		.byte	0xb1
 793 027c 58020000 		.4byte	0x258
 794 0280 00       		.byte	0
 795 0281 00       		.byte	0
 796 0282 04       		.uleb128 0x4
 797 0283 A4060000 		.4byte	.LASF52
 798 0287 05       		.byte	0x5
 799 0288 50       		.byte	0x50
 800 0289 8D020000 		.4byte	0x28d
 801 028d 05       		.uleb128 0x5
 802 028e 62000000 		.4byte	.LASF53
 803 0292 08       		.byte	0x8
 804 0293 06       		.byte	0x6
 805 0294 B7       		.byte	0xb7
 806 0295 B2020000 		.4byte	0x2b2
 807 0299 06       		.uleb128 0x6
 808 029a 82050000 		.4byte	.LASF29
 809 029e 06       		.byte	0x6
 810 029f B8       		.byte	0xb8
 811 02a0 58020000 		.4byte	0x258
 812 02a4 00       		.byte	0
 813 02a5 06       		.uleb128 0x6
 814 02a6 AF040000 		.4byte	.LASF30
 815 02aa 06       		.byte	0x6
 816 02ab B9       		.byte	0xb9
 817 02ac 58020000 		.4byte	0x258
 818 02b0 04       		.byte	0x4
 819 02b1 00       		.byte	0
 820 02b2 04       		.uleb128 0x4
 821 02b3 14000000 		.4byte	.LASF54
 822 02b7 05       		.byte	0x5
 823 02b8 57       		.byte	0x57
 824 02b9 BD020000 		.4byte	0x2bd
 825 02bd 0A       		.uleb128 0xa
 826 02be 7A030000 		.4byte	.LASF55
 827 02c2 1C       		.byte	0x1c
 828 02c3 06       		.byte	0x6
 829 02c4 9001     		.2byte	0x190
 830 02c6 19030000 		.4byte	0x319
 831 02ca 08       		.uleb128 0x8
 832 02cb F7050000 		.4byte	.LASF56
 833 02cf 06       		.byte	0x6
 834 02d0 9101     		.2byte	0x191
 835 02d2 82020000 		.4byte	0x282
 836 02d6 00       		.byte	0
 837 02d7 08       		.uleb128 0x8
 838 02d8 3E050000 		.4byte	.LASF57
 839 02dc 06       		.byte	0x6
 840 02dd 9201     		.2byte	0x192
 841 02df FA000000 		.4byte	0xfa
 842 02e3 08       		.byte	0x8
ARM GAS  /tmp/cceuxfWV.s 			page 32


 843 02e4 08       		.uleb128 0x8
 844 02e5 40040000 		.4byte	.LASF58
 845 02e9 06       		.byte	0x6
 846 02ea 9401     		.2byte	0x194
 847 02ec 8C070000 		.4byte	0x78c
 848 02f0 0C       		.byte	0xc
 849 02f1 08       		.uleb128 0x8
 850 02f2 CD010000 		.4byte	.LASF59
 851 02f6 06       		.byte	0x6
 852 02f7 9701     		.2byte	0x197
 853 02f9 58020000 		.4byte	0x258
 854 02fd 10       		.byte	0x10
 855 02fe 08       		.uleb128 0x8
 856 02ff 61040000 		.4byte	.LASF60
 857 0303 06       		.byte	0x6
 858 0304 9801     		.2byte	0x198
 859 0306 58020000 		.4byte	0x258
 860 030a 14       		.byte	0x14
 861 030b 08       		.uleb128 0x8
 862 030c 2A060000 		.4byte	.LASF61
 863 0310 06       		.byte	0x6
 864 0311 9B01     		.2byte	0x19b
 865 0313 58020000 		.4byte	0x258
 866 0317 18       		.byte	0x18
 867 0318 00       		.byte	0
 868 0319 04       		.uleb128 0x4
 869 031a 63060000 		.4byte	.LASF62
 870 031e 05       		.byte	0x5
 871 031f 5C       		.byte	0x5c
 872 0320 24030000 		.4byte	0x324
 873 0324 09       		.uleb128 0x9
 874 0325 04       		.byte	0x4
 875 0326 2A030000 		.4byte	0x32a
 876 032a 0B       		.uleb128 0xb
 877 032b 35030000 		.4byte	0x335
 878 032f 0C       		.uleb128 0xc
 879 0330 35030000 		.4byte	0x335
 880 0334 00       		.byte	0
 881 0335 0D       		.uleb128 0xd
 882 0336 04       		.byte	0x4
 883 0337 04       		.uleb128 0x4
 884 0338 B1030000 		.4byte	.LASF63
 885 033c 05       		.byte	0x5
 886 033d 61       		.byte	0x61
 887 033e 42030000 		.4byte	0x342
 888 0342 0A       		.uleb128 0xa
 889 0343 B4050000 		.4byte	.LASF64
 890 0347 14       		.byte	0x14
 891 0348 06       		.byte	0x6
 892 0349 6B01     		.2byte	0x16b
 893 034b 91030000 		.4byte	0x391
 894 034f 08       		.uleb128 0x8
 895 0350 3D020000 		.4byte	.LASF65
 896 0354 06       		.byte	0x6
 897 0355 6C01     		.2byte	0x16c
 898 0357 480A0000 		.4byte	0xa48
 899 035b 00       		.byte	0
ARM GAS  /tmp/cceuxfWV.s 			page 33


 900 035c 08       		.uleb128 0x8
 901 035d DE010000 		.4byte	.LASF66
 902 0361 06       		.byte	0x6
 903 0362 6D01     		.2byte	0x16d
 904 0364 480A0000 		.4byte	0xa48
 905 0368 04       		.byte	0x4
 906 0369 08       		.uleb128 0x8
 907 036a FF050000 		.4byte	.LASF67
 908 036e 06       		.byte	0x6
 909 036f 6E01     		.2byte	0x16e
 910 0371 31010000 		.4byte	0x131
 911 0375 08       		.byte	0x8
 912 0376 08       		.uleb128 0x8
 913 0377 3C070000 		.4byte	.LASF68
 914 037b 06       		.byte	0x6
 915 037c 6F01     		.2byte	0x16f
 916 037e 19030000 		.4byte	0x319
 917 0382 0C       		.byte	0xc
 918 0383 08       		.uleb128 0x8
 919 0384 9D060000 		.4byte	.LASF69
 920 0388 06       		.byte	0x6
 921 0389 7101     		.2byte	0x171
 922 038b 35030000 		.4byte	0x335
 923 038f 10       		.byte	0x10
 924 0390 00       		.byte	0
 925 0391 04       		.uleb128 0x4
 926 0392 E1000000 		.4byte	.LASF70
 927 0396 05       		.byte	0x5
 928 0397 66       		.byte	0x66
 929 0398 9C030000 		.4byte	0x39c
 930 039c 0A       		.uleb128 0xa
 931 039d E7030000 		.4byte	.LASF71
 932 03a1 10       		.byte	0x10
 933 03a2 06       		.byte	0x6
 934 03a3 7B01     		.2byte	0x17b
 935 03a5 DE030000 		.4byte	0x3de
 936 03a9 08       		.uleb128 0x8
 937 03aa 3D020000 		.4byte	.LASF65
 938 03ae 06       		.byte	0x6
 939 03af 7C01     		.2byte	0x17c
 940 03b1 480A0000 		.4byte	0xa48
 941 03b5 00       		.byte	0
 942 03b6 08       		.uleb128 0x8
 943 03b7 DE010000 		.4byte	.LASF66
 944 03bb 06       		.byte	0x6
 945 03bc 7E01     		.2byte	0x17e
 946 03be 480A0000 		.4byte	0xa48
 947 03c2 04       		.byte	0x4
 948 03c3 08       		.uleb128 0x8
 949 03c4 FF050000 		.4byte	.LASF67
 950 03c8 06       		.byte	0x6
 951 03c9 8001     		.2byte	0x180
 952 03cb 31010000 		.4byte	0x131
 953 03cf 08       		.byte	0x8
 954 03d0 08       		.uleb128 0x8
 955 03d1 1E040000 		.4byte	.LASF72
 956 03d5 06       		.byte	0x6
ARM GAS  /tmp/cceuxfWV.s 			page 34


 957 03d6 8801     		.2byte	0x188
 958 03d8 31010000 		.4byte	0x131
 959 03dc 0C       		.byte	0xc
 960 03dd 00       		.byte	0
 961 03de 04       		.uleb128 0x4
 962 03df 73000000 		.4byte	.LASF73
 963 03e3 05       		.byte	0x5
 964 03e4 6B       		.byte	0x6b
 965 03e5 E9030000 		.4byte	0x3e9
 966 03e9 0E       		.uleb128 0xe
 967 03ea EF010000 		.4byte	.LASF74
 968 03ee 1404     		.2byte	0x414
 969 03f0 06       		.byte	0x6
 970 03f1 A201     		.2byte	0x1a2
 971 03f3 2C040000 		.4byte	0x42c
 972 03f7 08       		.uleb128 0x8
 973 03f8 7C060000 		.4byte	.LASF75
 974 03fc 06       		.byte	0x6
 975 03fd AA01     		.2byte	0x1aa
 976 03ff 4E0A0000 		.4byte	0xa4e
 977 0403 00       		.byte	0
 978 0404 08       		.uleb128 0x8
 979 0405 C4060000 		.4byte	.LASF76
 980 0409 06       		.byte	0x6
 981 040a AF01     		.2byte	0x1af
 982 040c 1B010000 		.4byte	0x11b
 983 0410 04       		.byte	0x4
 984 0411 08       		.uleb128 0x8
 985 0412 07020000 		.4byte	.LASF77
 986 0416 06       		.byte	0x6
 987 0417 B301     		.2byte	0x1b3
 988 0419 1B010000 		.4byte	0x11b
 989 041d 08       		.byte	0x8
 990 041e 08       		.uleb128 0x8
 991 041f FB060000 		.4byte	.LASF78
 992 0423 06       		.byte	0x6
 993 0424 B901     		.2byte	0x1b9
 994 0426 AE080000 		.4byte	0x8ae
 995 042a 0C       		.byte	0xc
 996 042b 00       		.byte	0
 997 042c 04       		.uleb128 0x4
 998 042d B6020000 		.4byte	.LASF79
 999 0431 05       		.byte	0x5
 1000 0432 70       		.byte	0x70
 1001 0433 37040000 		.4byte	0x437
 1002 0437 0E       		.uleb128 0xe
 1003 0438 89010000 		.4byte	.LASF80
 1004 043c D805     		.2byte	0x5d8
 1005 043e 06       		.byte	0x6
 1006 043f C201     		.2byte	0x1c2
 1007 0441 A4040000 		.4byte	0x4a4
 1008 0445 08       		.uleb128 0x8
 1009 0446 D1060000 		.4byte	.LASF81
 1010 044a 06       		.byte	0x6
 1011 044b C601     		.2byte	0x1c6
 1012 044d B2020000 		.4byte	0x2b2
 1013 0451 00       		.byte	0
ARM GAS  /tmp/cceuxfWV.s 			page 35


 1014 0452 08       		.uleb128 0x8
 1015 0453 82010000 		.4byte	.LASF82
 1016 0457 06       		.byte	0x6
 1017 0458 CA01     		.2byte	0x1ca
 1018 045a 91030000 		.4byte	0x391
 1019 045e 1C       		.byte	0x1c
 1020 045f 07       		.uleb128 0x7
 1021 0460 64626700 		.ascii	"dbg\000"
 1022 0464 06       		.byte	0x6
 1023 0465 CE01     		.2byte	0x1ce
 1024 0467 DE030000 		.4byte	0x3de
 1025 046b 2C       		.byte	0x2c
 1026 046c 0F       		.uleb128 0xf
 1027 046d D6000000 		.4byte	.LASF83
 1028 0471 06       		.byte	0x6
 1029 0472 D201     		.2byte	0x1d2
 1030 0474 3C010000 		.4byte	0x13c
 1031 0478 4004     		.2byte	0x440
 1032 047a 10       		.uleb128 0x10
 1033 047b 746D00   		.ascii	"tm\000"
 1034 047e 06       		.byte	0x6
 1035 047f D701     		.2byte	0x1d7
 1036 0481 CE080000 		.4byte	0x8ce
 1037 0485 A004     		.2byte	0x4a0
 1038 0487 0F       		.uleb128 0xf
 1039 0488 3F000000 		.4byte	.LASF84
 1040 048c 06       		.byte	0x6
 1041 048d DD01     		.2byte	0x1dd
 1042 048f 60090000 		.4byte	0x960
 1043 0493 A804     		.2byte	0x4a8
 1044 0495 0F       		.uleb128 0xf
 1045 0496 10020000 		.4byte	.LASF85
 1046 049a 06       		.byte	0x6
 1047 049b E301     		.2byte	0x1e3
 1048 049d 530A0000 		.4byte	0xa53
 1049 04a1 E004     		.2byte	0x4e0
 1050 04a3 00       		.byte	0
 1051 04a4 11       		.uleb128 0x11
 1052 04a5 040E     		.2byte	0xe04
 1053 04a7 07       		.byte	0x7
 1054 04a8 A001     		.2byte	0x1a0
 1055 04aa 60050000 		.4byte	0x560
 1056 04ae 08       		.uleb128 0x8
 1057 04af 12050000 		.4byte	.LASF86
 1058 04b3 07       		.byte	0x7
 1059 04b4 A201     		.2byte	0x1a2
 1060 04b6 77050000 		.4byte	0x577
 1061 04ba 00       		.byte	0
 1062 04bb 08       		.uleb128 0x8
 1063 04bc 87040000 		.4byte	.LASF87
 1064 04c0 07       		.byte	0x7
 1065 04c1 A301     		.2byte	0x1a3
 1066 04c3 7C050000 		.4byte	0x57c
 1067 04c7 20       		.byte	0x20
 1068 04c8 08       		.uleb128 0x8
 1069 04c9 57040000 		.4byte	.LASF88
 1070 04cd 07       		.byte	0x7
ARM GAS  /tmp/cceuxfWV.s 			page 36


 1071 04ce A401     		.2byte	0x1a4
 1072 04d0 8C050000 		.4byte	0x58c
 1073 04d4 80       		.byte	0x80
 1074 04d5 08       		.uleb128 0x8
 1075 04d6 DF060000 		.4byte	.LASF89
 1076 04da 07       		.byte	0x7
 1077 04db A501     		.2byte	0x1a5
 1078 04dd 7C050000 		.4byte	0x57c
 1079 04e1 A0       		.byte	0xa0
 1080 04e2 0F       		.uleb128 0xf
 1081 04e3 06010000 		.4byte	.LASF90
 1082 04e7 07       		.byte	0x7
 1083 04e8 A601     		.2byte	0x1a6
 1084 04ea 91050000 		.4byte	0x591
 1085 04ee 0001     		.2byte	0x100
 1086 04f0 0F       		.uleb128 0xf
 1087 04f1 91040000 		.4byte	.LASF91
 1088 04f5 07       		.byte	0x7
 1089 04f6 A701     		.2byte	0x1a7
 1090 04f8 7C050000 		.4byte	0x57c
 1091 04fc 2001     		.2byte	0x120
 1092 04fe 0F       		.uleb128 0xf
 1093 04ff 0F000000 		.4byte	.LASF92
 1094 0503 07       		.byte	0x7
 1095 0504 A801     		.2byte	0x1a8
 1096 0506 96050000 		.4byte	0x596
 1097 050a 8001     		.2byte	0x180
 1098 050c 0F       		.uleb128 0xf
 1099 050d 9B040000 		.4byte	.LASF93
 1100 0511 07       		.byte	0x7
 1101 0512 A901     		.2byte	0x1a9
 1102 0514 7C050000 		.4byte	0x57c
 1103 0518 A001     		.2byte	0x1a0
 1104 051a 0F       		.uleb128 0xf
 1105 051b 0A040000 		.4byte	.LASF94
 1106 051f 07       		.byte	0x7
 1107 0520 AA01     		.2byte	0x1aa
 1108 0522 9B050000 		.4byte	0x59b
 1109 0526 0002     		.2byte	0x200
 1110 0528 0F       		.uleb128 0xf
 1111 0529 A5040000 		.4byte	.LASF95
 1112 052d 07       		.byte	0x7
 1113 052e AB01     		.2byte	0x1ab
 1114 0530 A0050000 		.4byte	0x5a0
 1115 0534 2002     		.2byte	0x220
 1116 0536 10       		.uleb128 0x10
 1117 0537 495000   		.ascii	"IP\000"
 1118 053a 07       		.byte	0x7
 1119 053b AC01     		.2byte	0x1ac
 1120 053d C0050000 		.4byte	0x5c0
 1121 0541 0003     		.2byte	0x300
 1122 0543 0F       		.uleb128 0xf
 1123 0544 DD050000 		.4byte	.LASF96
 1124 0548 07       		.byte	0x7
 1125 0549 AD01     		.2byte	0x1ad
 1126 054b C5050000 		.4byte	0x5c5
 1127 054f F003     		.2byte	0x3f0
ARM GAS  /tmp/cceuxfWV.s 			page 37


 1128 0551 0F       		.uleb128 0xf
 1129 0552 E8060000 		.4byte	.LASF97
 1130 0556 07       		.byte	0x7
 1131 0557 AE01     		.2byte	0x1ae
 1132 0559 D6050000 		.4byte	0x5d6
 1133 055d 000E     		.2byte	0xe00
 1134 055f 00       		.byte	0
 1135 0560 12       		.uleb128 0x12
 1136 0561 AD000000 		.4byte	0xad
 1137 0565 70050000 		.4byte	0x570
 1138 0569 13       		.uleb128 0x13
 1139 056a 70050000 		.4byte	0x570
 1140 056e 07       		.byte	0x7
 1141 056f 00       		.byte	0
 1142 0570 03       		.uleb128 0x3
 1143 0571 04       		.byte	0x4
 1144 0572 07       		.byte	0x7
 1145 0573 CB030000 		.4byte	.LASF98
 1146 0577 14       		.uleb128 0x14
 1147 0578 60050000 		.4byte	0x560
 1148 057c 12       		.uleb128 0x12
 1149 057d AD000000 		.4byte	0xad
 1150 0581 8C050000 		.4byte	0x58c
 1151 0585 13       		.uleb128 0x13
 1152 0586 70050000 		.4byte	0x570
 1153 058a 17       		.byte	0x17
 1154 058b 00       		.byte	0
 1155 058c 14       		.uleb128 0x14
 1156 058d 60050000 		.4byte	0x560
 1157 0591 14       		.uleb128 0x14
 1158 0592 60050000 		.4byte	0x560
 1159 0596 14       		.uleb128 0x14
 1160 0597 60050000 		.4byte	0x560
 1161 059b 14       		.uleb128 0x14
 1162 059c 60050000 		.4byte	0x560
 1163 05a0 12       		.uleb128 0x12
 1164 05a1 AD000000 		.4byte	0xad
 1165 05a5 B0050000 		.4byte	0x5b0
 1166 05a9 13       		.uleb128 0x13
 1167 05aa 70050000 		.4byte	0x570
 1168 05ae 37       		.byte	0x37
 1169 05af 00       		.byte	0
 1170 05b0 12       		.uleb128 0x12
 1171 05b1 97000000 		.4byte	0x97
 1172 05b5 C0050000 		.4byte	0x5c0
 1173 05b9 13       		.uleb128 0x13
 1174 05ba 70050000 		.4byte	0x570
 1175 05be EF       		.byte	0xef
 1176 05bf 00       		.byte	0
 1177 05c0 14       		.uleb128 0x14
 1178 05c1 B0050000 		.4byte	0x5b0
 1179 05c5 12       		.uleb128 0x12
 1180 05c6 AD000000 		.4byte	0xad
 1181 05ca D6050000 		.4byte	0x5d6
 1182 05ce 15       		.uleb128 0x15
 1183 05cf 70050000 		.4byte	0x570
 1184 05d3 8302     		.2byte	0x283
ARM GAS  /tmp/cceuxfWV.s 			page 38


 1185 05d5 00       		.byte	0
 1186 05d6 14       		.uleb128 0x14
 1187 05d7 AD000000 		.4byte	0xad
 1188 05db 16       		.uleb128 0x16
 1189 05dc 17050000 		.4byte	.LASF99
 1190 05e0 07       		.byte	0x7
 1191 05e1 AF01     		.2byte	0x1af
 1192 05e3 A4040000 		.4byte	0x4a4
 1193 05e7 17       		.uleb128 0x17
 1194 05e8 8C       		.byte	0x8c
 1195 05e9 07       		.byte	0x7
 1196 05ea C001     		.2byte	0x1c0
 1197 05ec 02070000 		.4byte	0x702
 1198 05f0 08       		.uleb128 0x8
 1199 05f1 F7000000 		.4byte	.LASF100
 1200 05f5 07       		.byte	0x7
 1201 05f6 C201     		.2byte	0x1c2
 1202 05f8 02070000 		.4byte	0x702
 1203 05fc 00       		.byte	0
 1204 05fd 08       		.uleb128 0x8
 1205 05fe 93020000 		.4byte	.LASF101
 1206 0602 07       		.byte	0x7
 1207 0603 C301     		.2byte	0x1c3
 1208 0605 D6050000 		.4byte	0x5d6
 1209 0609 04       		.byte	0x4
 1210 060a 08       		.uleb128 0x8
 1211 060b 6F020000 		.4byte	.LASF102
 1212 060f 07       		.byte	0x7
 1213 0610 C401     		.2byte	0x1c4
 1214 0612 D6050000 		.4byte	0x5d6
 1215 0616 08       		.byte	0x8
 1216 0617 08       		.uleb128 0x8
 1217 0618 9E020000 		.4byte	.LASF103
 1218 061c 07       		.byte	0x7
 1219 061d C501     		.2byte	0x1c5
 1220 061f D6050000 		.4byte	0x5d6
 1221 0623 0C       		.byte	0xc
 1222 0624 07       		.uleb128 0x7
 1223 0625 53435200 		.ascii	"SCR\000"
 1224 0629 07       		.byte	0x7
 1225 062a C601     		.2byte	0x1c6
 1226 062c D6050000 		.4byte	0x5d6
 1227 0630 10       		.byte	0x10
 1228 0631 07       		.uleb128 0x7
 1229 0632 43435200 		.ascii	"CCR\000"
 1230 0636 07       		.byte	0x7
 1231 0637 C701     		.2byte	0x1c7
 1232 0639 D6050000 		.4byte	0x5d6
 1233 063d 14       		.byte	0x14
 1234 063e 07       		.uleb128 0x7
 1235 063f 53485000 		.ascii	"SHP\000"
 1236 0643 07       		.byte	0x7
 1237 0644 C801     		.2byte	0x1c8
 1238 0646 17070000 		.4byte	0x717
 1239 064a 18       		.byte	0x18
 1240 064b 08       		.uleb128 0x8
 1241 064c E3040000 		.4byte	.LASF104
ARM GAS  /tmp/cceuxfWV.s 			page 39


 1242 0650 07       		.byte	0x7
 1243 0651 C901     		.2byte	0x1c9
 1244 0653 D6050000 		.4byte	0x5d6
 1245 0657 24       		.byte	0x24
 1246 0658 08       		.uleb128 0x8
 1247 0659 FE030000 		.4byte	.LASF105
 1248 065d 07       		.byte	0x7
 1249 065e CA01     		.2byte	0x1ca
 1250 0660 D6050000 		.4byte	0x5d6
 1251 0664 28       		.byte	0x28
 1252 0665 08       		.uleb128 0x8
 1253 0666 14070000 		.4byte	.LASF106
 1254 066a 07       		.byte	0x7
 1255 066b CB01     		.2byte	0x1cb
 1256 066d D6050000 		.4byte	0x5d6
 1257 0671 2C       		.byte	0x2c
 1258 0672 08       		.uleb128 0x8
 1259 0673 A4020000 		.4byte	.LASF107
 1260 0677 07       		.byte	0x7
 1261 0678 CC01     		.2byte	0x1cc
 1262 067a D6050000 		.4byte	0x5d6
 1263 067e 30       		.byte	0x30
 1264 067f 08       		.uleb128 0x8
 1265 0680 B0020000 		.4byte	.LASF108
 1266 0684 07       		.byte	0x7
 1267 0685 CD01     		.2byte	0x1cd
 1268 0687 D6050000 		.4byte	0x5d6
 1269 068b 34       		.byte	0x34
 1270 068c 08       		.uleb128 0x8
 1271 068d BB010000 		.4byte	.LASF109
 1272 0691 07       		.byte	0x7
 1273 0692 CE01     		.2byte	0x1ce
 1274 0694 D6050000 		.4byte	0x5d6
 1275 0698 38       		.byte	0x38
 1276 0699 08       		.uleb128 0x8
 1277 069a C8010000 		.4byte	.LASF110
 1278 069e 07       		.byte	0x7
 1279 069f CF01     		.2byte	0x1cf
 1280 06a1 D6050000 		.4byte	0x5d6
 1281 06a5 3C       		.byte	0x3c
 1282 06a6 07       		.uleb128 0x7
 1283 06a7 50465200 		.ascii	"PFR\000"
 1284 06ab 07       		.byte	0x7
 1285 06ac D001     		.2byte	0x1d0
 1286 06ae 2C070000 		.4byte	0x72c
 1287 06b2 40       		.byte	0x40
 1288 06b3 07       		.uleb128 0x7
 1289 06b4 44465200 		.ascii	"DFR\000"
 1290 06b8 07       		.byte	0x7
 1291 06b9 D101     		.2byte	0x1d1
 1292 06bb 02070000 		.4byte	0x702
 1293 06bf 48       		.byte	0x48
 1294 06c0 07       		.uleb128 0x7
 1295 06c1 41445200 		.ascii	"ADR\000"
 1296 06c5 07       		.byte	0x7
 1297 06c6 D201     		.2byte	0x1d2
 1298 06c8 02070000 		.4byte	0x702
ARM GAS  /tmp/cceuxfWV.s 			page 40


 1299 06cc 4C       		.byte	0x4c
 1300 06cd 08       		.uleb128 0x8
 1301 06ce CC060000 		.4byte	.LASF111
 1302 06d2 07       		.byte	0x7
 1303 06d3 D301     		.2byte	0x1d3
 1304 06d5 46070000 		.4byte	0x746
 1305 06d9 50       		.byte	0x50
 1306 06da 08       		.uleb128 0x8
 1307 06db 23010000 		.4byte	.LASF112
 1308 06df 07       		.byte	0x7
 1309 06e0 D401     		.2byte	0x1d4
 1310 06e2 60070000 		.4byte	0x760
 1311 06e6 60       		.byte	0x60
 1312 06e7 08       		.uleb128 0x8
 1313 06e8 87040000 		.4byte	.LASF87
 1314 06ec 07       		.byte	0x7
 1315 06ed D501     		.2byte	0x1d5
 1316 06ef 50070000 		.4byte	0x750
 1317 06f3 74       		.byte	0x74
 1318 06f4 08       		.uleb128 0x8
 1319 06f5 0E070000 		.4byte	.LASF113
 1320 06f9 07       		.byte	0x7
 1321 06fa D601     		.2byte	0x1d6
 1322 06fc D6050000 		.4byte	0x5d6
 1323 0700 88       		.byte	0x88
 1324 0701 00       		.byte	0
 1325 0702 18       		.uleb128 0x18
 1326 0703 D6050000 		.4byte	0x5d6
 1327 0707 12       		.uleb128 0x12
 1328 0708 97000000 		.4byte	0x97
 1329 070c 17070000 		.4byte	0x717
 1330 0710 13       		.uleb128 0x13
 1331 0711 70050000 		.4byte	0x570
 1332 0715 0B       		.byte	0xb
 1333 0716 00       		.byte	0
 1334 0717 14       		.uleb128 0x14
 1335 0718 07070000 		.4byte	0x707
 1336 071c 12       		.uleb128 0x12
 1337 071d AD000000 		.4byte	0xad
 1338 0721 2C070000 		.4byte	0x72c
 1339 0725 13       		.uleb128 0x13
 1340 0726 70050000 		.4byte	0x570
 1341 072a 01       		.byte	0x1
 1342 072b 00       		.byte	0
 1343 072c 18       		.uleb128 0x18
 1344 072d 31070000 		.4byte	0x731
 1345 0731 14       		.uleb128 0x14
 1346 0732 1C070000 		.4byte	0x71c
 1347 0736 12       		.uleb128 0x12
 1348 0737 AD000000 		.4byte	0xad
 1349 073b 46070000 		.4byte	0x746
 1350 073f 13       		.uleb128 0x13
 1351 0740 70050000 		.4byte	0x570
 1352 0744 03       		.byte	0x3
 1353 0745 00       		.byte	0
 1354 0746 18       		.uleb128 0x18
 1355 0747 4B070000 		.4byte	0x74b
ARM GAS  /tmp/cceuxfWV.s 			page 41


 1356 074b 14       		.uleb128 0x14
 1357 074c 36070000 		.4byte	0x736
 1358 0750 12       		.uleb128 0x12
 1359 0751 AD000000 		.4byte	0xad
 1360 0755 60070000 		.4byte	0x760
 1361 0759 13       		.uleb128 0x13
 1362 075a 70050000 		.4byte	0x570
 1363 075e 04       		.byte	0x4
 1364 075f 00       		.byte	0
 1365 0760 18       		.uleb128 0x18
 1366 0761 65070000 		.4byte	0x765
 1367 0765 14       		.uleb128 0x14
 1368 0766 50070000 		.4byte	0x750
 1369 076a 16       		.uleb128 0x16
 1370 076b E6010000 		.4byte	.LASF114
 1371 076f 07       		.byte	0x7
 1372 0770 D701     		.2byte	0x1d7
 1373 0772 E7050000 		.4byte	0x5e7
 1374 0776 04       		.uleb128 0x4
 1375 0777 D5010000 		.4byte	.LASF115
 1376 077b 08       		.byte	0x8
 1377 077c 65       		.byte	0x65
 1378 077d 35030000 		.4byte	0x335
 1379 0781 04       		.uleb128 0x4
 1380 0782 9E030000 		.4byte	.LASF116
 1381 0786 08       		.byte	0x8
 1382 0787 6D       		.byte	0x6d
 1383 0788 B8000000 		.4byte	0xb8
 1384 078c 05       		.uleb128 0x5
 1385 078d 8D060000 		.4byte	.LASF117
 1386 0791 04       		.byte	0x4
 1387 0792 08       		.byte	0x8
 1388 0793 89       		.byte	0x89
 1389 0794 A5070000 		.4byte	0x7a5
 1390 0798 19       		.uleb128 0x19
 1391 0799 72313300 		.ascii	"r13\000"
 1392 079d 08       		.byte	0x8
 1393 079e 8A       		.byte	0x8a
 1394 079f 20080000 		.4byte	0x820
 1395 07a3 00       		.byte	0
 1396 07a4 00       		.byte	0
 1397 07a5 05       		.uleb128 0x5
 1398 07a6 56000000 		.4byte	.LASF118
 1399 07aa 24       		.byte	0x24
 1400 07ab 09       		.byte	0x9
 1401 07ac FD       		.byte	0xfd
 1402 07ad 20080000 		.4byte	0x820
 1403 07b1 07       		.uleb128 0x7
 1404 07b2 723400   		.ascii	"r4\000"
 1405 07b5 09       		.byte	0x9
 1406 07b6 1001     		.2byte	0x110
 1407 07b8 76070000 		.4byte	0x776
 1408 07bc 00       		.byte	0
 1409 07bd 07       		.uleb128 0x7
 1410 07be 723500   		.ascii	"r5\000"
 1411 07c1 09       		.byte	0x9
 1412 07c2 1101     		.2byte	0x111
ARM GAS  /tmp/cceuxfWV.s 			page 42


 1413 07c4 76070000 		.4byte	0x776
 1414 07c8 04       		.byte	0x4
 1415 07c9 07       		.uleb128 0x7
 1416 07ca 723600   		.ascii	"r6\000"
 1417 07cd 09       		.byte	0x9
 1418 07ce 1201     		.2byte	0x112
 1419 07d0 76070000 		.4byte	0x776
 1420 07d4 08       		.byte	0x8
 1421 07d5 07       		.uleb128 0x7
 1422 07d6 723700   		.ascii	"r7\000"
 1423 07d9 09       		.byte	0x9
 1424 07da 1301     		.2byte	0x113
 1425 07dc 76070000 		.4byte	0x776
 1426 07e0 0C       		.byte	0xc
 1427 07e1 07       		.uleb128 0x7
 1428 07e2 723800   		.ascii	"r8\000"
 1429 07e5 09       		.byte	0x9
 1430 07e6 1401     		.2byte	0x114
 1431 07e8 76070000 		.4byte	0x776
 1432 07ec 10       		.byte	0x10
 1433 07ed 07       		.uleb128 0x7
 1434 07ee 723900   		.ascii	"r9\000"
 1435 07f1 09       		.byte	0x9
 1436 07f2 1501     		.2byte	0x115
 1437 07f4 76070000 		.4byte	0x776
 1438 07f8 14       		.byte	0x14
 1439 07f9 07       		.uleb128 0x7
 1440 07fa 72313000 		.ascii	"r10\000"
 1441 07fe 09       		.byte	0x9
 1442 07ff 1601     		.2byte	0x116
 1443 0801 76070000 		.4byte	0x776
 1444 0805 18       		.byte	0x18
 1445 0806 07       		.uleb128 0x7
 1446 0807 72313100 		.ascii	"r11\000"
 1447 080b 09       		.byte	0x9
 1448 080c 1701     		.2byte	0x117
 1449 080e 76070000 		.4byte	0x776
 1450 0812 1C       		.byte	0x1c
 1451 0813 07       		.uleb128 0x7
 1452 0814 6C7200   		.ascii	"lr\000"
 1453 0817 09       		.byte	0x9
 1454 0818 1801     		.2byte	0x118
 1455 081a 76070000 		.4byte	0x776
 1456 081e 20       		.byte	0x20
 1457 081f 00       		.byte	0
 1458 0820 09       		.uleb128 0x9
 1459 0821 04       		.byte	0x4
 1460 0822 A5070000 		.4byte	0x7a5
 1461 0826 1A       		.uleb128 0x1a
 1462 0827 10       		.byte	0x10
 1463 0828 0A       		.byte	0xa
 1464 0829 51       		.byte	0x51
 1465 082a 5F080000 		.4byte	0x85f
 1466 082e 06       		.uleb128 0x6
 1467 082f 21000000 		.4byte	.LASF119
 1468 0833 0A       		.byte	0xa
 1469 0834 55       		.byte	0x55
ARM GAS  /tmp/cceuxfWV.s 			page 43


 1470 0835 31010000 		.4byte	0x131
 1471 0839 00       		.byte	0
 1472 083a 06       		.uleb128 0x6
 1473 083b A5010000 		.4byte	.LASF120
 1474 083f 0A       		.byte	0xa
 1475 0840 59       		.byte	0x59
 1476 0841 58020000 		.4byte	0x258
 1477 0845 04       		.byte	0x4
 1478 0846 06       		.uleb128 0x6
 1479 0847 2C070000 		.4byte	.LASF121
 1480 084b 0A       		.byte	0xa
 1481 084c 5D       		.byte	0x5d
 1482 084d 35030000 		.4byte	0x335
 1483 0851 08       		.byte	0x8
 1484 0852 06       		.uleb128 0x6
 1485 0853 C4000000 		.4byte	.LASF122
 1486 0857 0A       		.byte	0xa
 1487 0858 61       		.byte	0x61
 1488 0859 97000000 		.4byte	0x97
 1489 085d 0C       		.byte	0xc
 1490 085e 00       		.byte	0
 1491 085f 04       		.uleb128 0x4
 1492 0860 0F040000 		.4byte	.LASF123
 1493 0864 0A       		.byte	0xa
 1494 0865 62       		.byte	0x62
 1495 0866 26080000 		.4byte	0x826
 1496 086a 1B       		.uleb128 0x1b
 1497 086b 0804     		.2byte	0x408
 1498 086d 0A       		.byte	0xa
 1499 086e 67       		.byte	0x67
 1500 086f 98080000 		.4byte	0x898
 1501 0873 06       		.uleb128 0x6
 1502 0874 C0010000 		.4byte	.LASF124
 1503 0878 0A       		.byte	0xa
 1504 0879 6B       		.byte	0x6b
 1505 087a 2C000000 		.4byte	0x2c
 1506 087e 00       		.byte	0
 1507 087f 06       		.uleb128 0x6
 1508 0880 03040000 		.4byte	.LASF125
 1509 0884 0A       		.byte	0xa
 1510 0885 6F       		.byte	0x6f
 1511 0886 98080000 		.4byte	0x898
 1512 088a 04       		.byte	0x4
 1513 088b 06       		.uleb128 0x6
 1514 088c 65030000 		.4byte	.LASF126
 1515 0890 0A       		.byte	0xa
 1516 0891 73       		.byte	0x73
 1517 0892 9E080000 		.4byte	0x89e
 1518 0896 08       		.byte	0x8
 1519 0897 00       		.byte	0
 1520 0898 09       		.uleb128 0x9
 1521 0899 04       		.byte	0x4
 1522 089a 5F080000 		.4byte	0x85f
 1523 089e 12       		.uleb128 0x12
 1524 089f 5F080000 		.4byte	0x85f
 1525 08a3 AE080000 		.4byte	0x8ae
 1526 08a7 13       		.uleb128 0x13
ARM GAS  /tmp/cceuxfWV.s 			page 44


 1527 08a8 70050000 		.4byte	0x570
 1528 08ac 3F       		.byte	0x3f
 1529 08ad 00       		.byte	0
 1530 08ae 04       		.uleb128 0x4
 1531 08af B2000000 		.4byte	.LASF127
 1532 08b3 0A       		.byte	0xa
 1533 08b4 74       		.byte	0x74
 1534 08b5 6A080000 		.4byte	0x86a
 1535 08b9 1A       		.uleb128 0x1a
 1536 08ba 04       		.byte	0x4
 1537 08bb 0B       		.byte	0xb
 1538 08bc 38       		.byte	0x38
 1539 08bd CE080000 		.4byte	0x8ce
 1540 08c1 06       		.uleb128 0x6
 1541 08c2 86060000 		.4byte	.LASF128
 1542 08c6 0B       		.byte	0xb
 1543 08c7 3C       		.byte	0x3c
 1544 08c8 C3000000 		.4byte	0xc3
 1545 08cc 00       		.byte	0
 1546 08cd 00       		.byte	0
 1547 08ce 04       		.uleb128 0x4
 1548 08cf 46040000 		.4byte	.LASF129
 1549 08d3 0B       		.byte	0xb
 1550 08d4 3D       		.byte	0x3d
 1551 08d5 B9080000 		.4byte	0x8b9
 1552 08d9 1A       		.uleb128 0x1a
 1553 08da 18       		.byte	0x18
 1554 08db 0B       		.byte	0xb
 1555 08dc 48       		.byte	0x48
 1556 08dd 1C090000 		.4byte	0x91c
 1557 08e1 06       		.uleb128 0x6
 1558 08e2 42060000 		.4byte	.LASF130
 1559 08e6 0B       		.byte	0xb
 1560 08e7 49       		.byte	0x49
 1561 08e8 C3000000 		.4byte	0xc3
 1562 08ec 00       		.byte	0
 1563 08ed 06       		.uleb128 0x6
 1564 08ee 82000000 		.4byte	.LASF131
 1565 08f2 0B       		.byte	0xb
 1566 08f3 4A       		.byte	0x4a
 1567 08f4 C3000000 		.4byte	0xc3
 1568 08f8 04       		.byte	0x4
 1569 08f9 06       		.uleb128 0x6
 1570 08fa 77060000 		.4byte	.LASF132
 1571 08fe 0B       		.byte	0xb
 1572 08ff 4B       		.byte	0x4b
 1573 0900 C3000000 		.4byte	0xc3
 1574 0904 08       		.byte	0x8
 1575 0905 19       		.uleb128 0x19
 1576 0906 6E00     		.ascii	"n\000"
 1577 0908 0B       		.byte	0xb
 1578 0909 4C       		.byte	0x4c
 1579 090a 26010000 		.4byte	0x126
 1580 090e 0C       		.byte	0xc
 1581 090f 06       		.uleb128 0x6
 1582 0910 74040000 		.4byte	.LASF133
 1583 0914 0B       		.byte	0xb
ARM GAS  /tmp/cceuxfWV.s 			page 45


 1584 0915 4D       		.byte	0x4d
 1585 0916 CE000000 		.4byte	0xce
 1586 091a 10       		.byte	0x10
 1587 091b 00       		.byte	0
 1588 091c 04       		.uleb128 0x4
 1589 091d 88000000 		.4byte	.LASF134
 1590 0921 0B       		.byte	0xb
 1591 0922 4E       		.byte	0x4e
 1592 0923 D9080000 		.4byte	0x8d9
 1593 0927 1A       		.uleb128 0x1a
 1594 0928 38       		.byte	0x38
 1595 0929 0C       		.byte	0xc
 1596 092a 38       		.byte	0x38
 1597 092b 60090000 		.4byte	0x960
 1598 092f 06       		.uleb128 0x6
 1599 0930 69020000 		.4byte	.LASF135
 1600 0934 0C       		.byte	0xc
 1601 0935 39       		.byte	0x39
 1602 0936 26010000 		.4byte	0x126
 1603 093a 00       		.byte	0
 1604 093b 06       		.uleb128 0x6
 1605 093c BE040000 		.4byte	.LASF136
 1606 0940 0C       		.byte	0xc
 1607 0941 3A       		.byte	0x3a
 1608 0942 26010000 		.4byte	0x126
 1609 0946 04       		.byte	0x4
 1610 0947 06       		.uleb128 0x6
 1611 0948 19070000 		.4byte	.LASF137
 1612 094c 0C       		.byte	0xc
 1613 094d 3B       		.byte	0x3b
 1614 094e 1C090000 		.4byte	0x91c
 1615 0952 08       		.byte	0x8
 1616 0953 06       		.uleb128 0x6
 1617 0954 6F030000 		.4byte	.LASF138
 1618 0958 0C       		.byte	0xc
 1619 0959 3D       		.byte	0x3d
 1620 095a 1C090000 		.4byte	0x91c
 1621 095e 20       		.byte	0x20
 1622 095f 00       		.byte	0
 1623 0960 04       		.uleb128 0x4
 1624 0961 7A020000 		.4byte	.LASF139
 1625 0965 0C       		.byte	0xc
 1626 0966 3F       		.byte	0x3f
 1627 0967 27090000 		.4byte	0x927
 1628 096b 1C       		.uleb128 0x1c
 1629 096c 04       		.byte	0x4
 1630 096d 06       		.byte	0x6
 1631 096e FA       		.byte	0xfa
 1632 096f C8090000 		.4byte	0x9c8
 1633 0973 1D       		.uleb128 0x1d
 1634 0974 2F000000 		.4byte	.LASF140
 1635 0978 06       		.byte	0x6
 1636 0979 0101     		.2byte	0x101
 1637 097b 05010000 		.4byte	0x105
 1638 097f 1D       		.uleb128 0x1d
 1639 0980 CD000000 		.4byte	.LASF141
 1640 0984 06       		.byte	0x6
ARM GAS  /tmp/cceuxfWV.s 			page 46


 1641 0985 0801     		.2byte	0x108
 1642 0987 05010000 		.4byte	0x105
 1643 098b 1D       		.uleb128 0x1d
 1644 098c ED060000 		.4byte	.LASF142
 1645 0990 06       		.byte	0x6
 1646 0991 0F01     		.2byte	0x10f
 1647 0993 35030000 		.4byte	0x335
 1648 0997 1D       		.uleb128 0x1d
 1649 0998 29000000 		.4byte	.LASF143
 1650 099c 06       		.byte	0x6
 1651 099d 1601     		.2byte	0x116
 1652 099f C8090000 		.4byte	0x9c8
 1653 09a3 1D       		.uleb128 0x1d
 1654 09a4 57020000 		.4byte	.LASF144
 1655 09a8 06       		.byte	0x6
 1656 09a9 1E01     		.2byte	0x11e
 1657 09ab F3090000 		.4byte	0x9f3
 1658 09af 1D       		.uleb128 0x1d
 1659 09b0 F0050000 		.4byte	.LASF145
 1660 09b4 06       		.byte	0x6
 1661 09b5 2701     		.2byte	0x127
 1662 09b7 2A0A0000 		.4byte	0xa2a
 1663 09bb 1D       		.uleb128 0x1d
 1664 09bc 7B050000 		.4byte	.LASF146
 1665 09c0 06       		.byte	0x6
 1666 09c1 2F01     		.2byte	0x12f
 1667 09c3 10010000 		.4byte	0x110
 1668 09c7 00       		.byte	0
 1669 09c8 09       		.uleb128 0x9
 1670 09c9 04       		.byte	0x4
 1671 09ca 4D020000 		.4byte	0x24d
 1672 09ce 05       		.uleb128 0x5
 1673 09cf C5050000 		.4byte	.LASF147
 1674 09d3 0C       		.byte	0xc
 1675 09d4 0D       		.byte	0xd
 1676 09d5 34       		.byte	0x34
 1677 09d6 F3090000 		.4byte	0x9f3
 1678 09da 06       		.uleb128 0x6
 1679 09db B3010000 		.4byte	.LASF148
 1680 09df 0D       		.byte	0xd
 1681 09e0 35       		.byte	0x35
 1682 09e1 82020000 		.4byte	0x282
 1683 09e5 00       		.byte	0
 1684 09e6 06       		.uleb128 0x6
 1685 09e7 74020000 		.4byte	.LASF149
 1686 09eb 0D       		.byte	0xd
 1687 09ec 37       		.byte	0x37
 1688 09ed 1B010000 		.4byte	0x11b
 1689 09f1 08       		.byte	0x8
 1690 09f2 00       		.byte	0
 1691 09f3 09       		.uleb128 0x9
 1692 09f4 04       		.byte	0x4
 1693 09f5 CE090000 		.4byte	0x9ce
 1694 09f9 05       		.uleb128 0x5
 1695 09fa B4060000 		.4byte	.LASF150
 1696 09fe 10       		.byte	0x10
 1697 09ff 0E       		.byte	0xe
ARM GAS  /tmp/cceuxfWV.s 			page 47


 1698 0a00 39       		.byte	0x39
 1699 0a01 2A0A0000 		.4byte	0xa2a
 1700 0a05 06       		.uleb128 0x6
 1701 0a06 69010000 		.4byte	.LASF151
 1702 0a0a 0E       		.byte	0xe
 1703 0a0b 3A       		.byte	0x3a
 1704 0a0c 82020000 		.4byte	0x282
 1705 0a10 00       		.byte	0
 1706 0a11 06       		.uleb128 0x6
 1707 0a12 24070000 		.4byte	.LASF152
 1708 0a16 0E       		.byte	0xe
 1709 0a17 3C       		.byte	0x3c
 1710 0a18 58020000 		.4byte	0x258
 1711 0a1c 08       		.byte	0x8
 1712 0a1d 06       		.uleb128 0x6
 1713 0a1e 47060000 		.4byte	.LASF153
 1714 0a22 0E       		.byte	0xe
 1715 0a23 3E       		.byte	0x3e
 1716 0a24 6E0A0000 		.4byte	0xa6e
 1717 0a28 0C       		.byte	0xc
 1718 0a29 00       		.byte	0
 1719 0a2a 09       		.uleb128 0x9
 1720 0a2b 04       		.byte	0x4
 1721 0a2c F9090000 		.4byte	0x9f9
 1722 0a30 09       		.uleb128 0x9
 1723 0a31 04       		.byte	0x4
 1724 0a32 360A0000 		.4byte	0xa36
 1725 0a36 18       		.uleb128 0x18
 1726 0a37 3B0A0000 		.4byte	0xa3b
 1727 0a3b 03       		.uleb128 0x3
 1728 0a3c 01       		.byte	0x1
 1729 0a3d 08       		.byte	0x8
 1730 0a3e 34060000 		.4byte	.LASF154
 1731 0a42 09       		.uleb128 0x9
 1732 0a43 04       		.byte	0x4
 1733 0a44 81070000 		.4byte	0x781
 1734 0a48 09       		.uleb128 0x9
 1735 0a49 04       		.byte	0x4
 1736 0a4a 37030000 		.4byte	0x337
 1737 0a4e 14       		.uleb128 0x14
 1738 0a4f 300A0000 		.4byte	0xa30
 1739 0a53 12       		.uleb128 0x12
 1740 0a54 81070000 		.4byte	0x781
 1741 0a58 630A0000 		.4byte	0xa63
 1742 0a5c 13       		.uleb128 0x13
 1743 0a5d 70050000 		.4byte	0x570
 1744 0a61 1E       		.byte	0x1e
 1745 0a62 00       		.byte	0
 1746 0a63 04       		.uleb128 0x4
 1747 0a64 FF010000 		.4byte	.LASF155
 1748 0a68 0E       		.byte	0xe
 1749 0a69 34       		.byte	0x34
 1750 0a6a F9090000 		.4byte	0x9f9
 1751 0a6e 09       		.uleb128 0x9
 1752 0a6f 04       		.byte	0x4
 1753 0a70 630A0000 		.4byte	0xa63
 1754 0a74 03       		.uleb128 0x3
ARM GAS  /tmp/cceuxfWV.s 			page 48


 1755 0a75 01       		.byte	0x1
 1756 0a76 02       		.byte	0x2
 1757 0a77 C7040000 		.4byte	.LASF156
 1758 0a7b 1E       		.uleb128 0x1e
 1759 0a7c 12010000 		.4byte	.LASF158
 1760 0a80 01       		.byte	0x1
 1761 0a81 39       		.byte	0x39
 1762 0a82 00000000 		.4byte	.LFB272
 1763 0a86 5E000000 		.4byte	.LFE272-.LFB272
 1764 0a8a 01       		.uleb128 0x1
 1765 0a8b 9C       		.byte	0x9c
 1766 0a8c AB0A0000 		.4byte	0xaab
 1767 0a90 1F       		.uleb128 0x1f
 1768 0a91 6E00     		.ascii	"n\000"
 1769 0a93 01       		.byte	0x1
 1770 0a94 39       		.byte	0x39
 1771 0a95 AD000000 		.4byte	0xad
 1772 0a99 02       		.uleb128 0x2
 1773 0a9a 91       		.byte	0x91
 1774 0a9b 7C       		.sleb128 -4
 1775 0a9c 20       		.uleb128 0x20
 1776 0a9d 5C040000 		.4byte	.LASF157
 1777 0aa1 01       		.byte	0x1
 1778 0aa2 39       		.byte	0x39
 1779 0aa3 AD000000 		.4byte	0xad
 1780 0aa7 02       		.uleb128 0x2
 1781 0aa8 91       		.byte	0x91
 1782 0aa9 78       		.sleb128 -8
 1783 0aaa 00       		.byte	0
 1784 0aab 1E       		.uleb128 0x1e
 1785 0aac 45020000 		.4byte	.LASF159
 1786 0ab0 01       		.byte	0x1
 1787 0ab1 4A       		.byte	0x4a
 1788 0ab2 00000000 		.4byte	.LFB273
 1789 0ab6 3A000000 		.4byte	.LFE273-.LFB273
 1790 0aba 01       		.uleb128 0x1
 1791 0abb 9C       		.byte	0x9c
 1792 0abc CD0A0000 		.4byte	0xacd
 1793 0ac0 1F       		.uleb128 0x1f
 1794 0ac1 6E00     		.ascii	"n\000"
 1795 0ac3 01       		.byte	0x1
 1796 0ac4 4A       		.byte	0x4a
 1797 0ac5 AD000000 		.4byte	0xad
 1798 0ac9 02       		.uleb128 0x2
 1799 0aca 91       		.byte	0x91
 1800 0acb 7C       		.sleb128 -4
 1801 0acc 00       		.byte	0
 1802 0acd 21       		.uleb128 0x21
 1803 0ace 21050000 		.4byte	.LASF160
 1804 0ad2 01       		.byte	0x1
 1805 0ad3 5A       		.byte	0x5a
 1806 0ad4 00000000 		.4byte	.LFB274
 1807 0ad8 38000000 		.4byte	.LFE274-.LFB274
 1808 0adc 01       		.uleb128 0x1
 1809 0add 9C       		.byte	0x9c
 1810 0ade 0E0B0000 		.4byte	0xb0e
 1811 0ae2 20       		.uleb128 0x20
ARM GAS  /tmp/cceuxfWV.s 			page 49


 1812 0ae3 A9030000 		.4byte	.LASF161
 1813 0ae7 01       		.byte	0x1
 1814 0ae8 5A       		.byte	0x5a
 1815 0ae9 AD000000 		.4byte	0xad
 1816 0aed 02       		.uleb128 0x2
 1817 0aee 91       		.byte	0x91
 1818 0aef 74       		.sleb128 -12
 1819 0af0 20       		.uleb128 0x20
 1820 0af1 5C040000 		.4byte	.LASF157
 1821 0af5 01       		.byte	0x1
 1822 0af6 5A       		.byte	0x5a
 1823 0af7 AD000000 		.4byte	0xad
 1824 0afb 02       		.uleb128 0x2
 1825 0afc 91       		.byte	0x91
 1826 0afd 70       		.sleb128 -16
 1827 0afe 22       		.uleb128 0x22
 1828 0aff 32040000 		.4byte	.LASF167
 1829 0b03 1E0B0000 		.4byte	0xb1e
 1830 0b07 05       		.uleb128 0x5
 1831 0b08 03       		.byte	0x3
 1832 0b09 00000000 		.4byte	__func__.7432
 1833 0b0d 00       		.byte	0
 1834 0b0e 12       		.uleb128 0x12
 1835 0b0f 3B0A0000 		.4byte	0xa3b
 1836 0b13 1E0B0000 		.4byte	0xb1e
 1837 0b17 13       		.uleb128 0x13
 1838 0b18 70050000 		.4byte	0x570
 1839 0b1c 1C       		.byte	0x1c
 1840 0b1d 00       		.byte	0
 1841 0b1e 18       		.uleb128 0x18
 1842 0b1f 0E0B0000 		.4byte	0xb0e
 1843 0b23 1E       		.uleb128 0x1e
 1844 0b24 71010000 		.4byte	.LASF162
 1845 0b28 01       		.byte	0x1
 1846 0b29 6D       		.byte	0x6d
 1847 0b2a 00000000 		.4byte	.LFB275
 1848 0b2e 26000000 		.4byte	.LFE275-.LFB275
 1849 0b32 01       		.uleb128 0x1
 1850 0b33 9C       		.byte	0x9c
 1851 0b34 450B0000 		.4byte	0xb45
 1852 0b38 1F       		.uleb128 0x1f
 1853 0b39 6E00     		.ascii	"n\000"
 1854 0b3b 01       		.byte	0x1
 1855 0b3c 6D       		.byte	0x6d
 1856 0b3d AD000000 		.4byte	0xad
 1857 0b41 02       		.uleb128 0x2
 1858 0b42 91       		.byte	0x91
 1859 0b43 7C       		.sleb128 -4
 1860 0b44 00       		.byte	0
 1861 0b45 23       		.uleb128 0x23
 1862 0b46 E9040000 		.4byte	.LASF163
 1863 0b4a 07       		.byte	0x7
 1864 0b4b FA06     		.2byte	0x6fa
 1865 0b4d 510B0000 		.4byte	0xb51
 1866 0b51 14       		.uleb128 0x14
 1867 0b52 A2000000 		.4byte	0xa2
 1868 0b56 24       		.uleb128 0x24
ARM GAS  /tmp/cceuxfWV.s 			page 50


 1869 0b57 636800   		.ascii	"ch\000"
 1870 0b5a 06       		.byte	0x6
 1871 0b5b 0902     		.2byte	0x209
 1872 0b5d 2C040000 		.4byte	0x42c
 1873 0b61 00       		.byte	0
 1874              		.section	.debug_abbrev,"",%progbits
 1875              	.Ldebug_abbrev0:
 1876 0000 01       		.uleb128 0x1
 1877 0001 11       		.uleb128 0x11
 1878 0002 01       		.byte	0x1
 1879 0003 25       		.uleb128 0x25
 1880 0004 0E       		.uleb128 0xe
 1881 0005 13       		.uleb128 0x13
 1882 0006 0B       		.uleb128 0xb
 1883 0007 03       		.uleb128 0x3
 1884 0008 0E       		.uleb128 0xe
 1885 0009 1B       		.uleb128 0x1b
 1886 000a 0E       		.uleb128 0xe
 1887 000b 55       		.uleb128 0x55
 1888 000c 17       		.uleb128 0x17
 1889 000d 11       		.uleb128 0x11
 1890 000e 01       		.uleb128 0x1
 1891 000f 10       		.uleb128 0x10
 1892 0010 17       		.uleb128 0x17
 1893 0011 00       		.byte	0
 1894 0012 00       		.byte	0
 1895 0013 02       		.uleb128 0x2
 1896 0014 24       		.uleb128 0x24
 1897 0015 00       		.byte	0
 1898 0016 0B       		.uleb128 0xb
 1899 0017 0B       		.uleb128 0xb
 1900 0018 3E       		.uleb128 0x3e
 1901 0019 0B       		.uleb128 0xb
 1902 001a 03       		.uleb128 0x3
 1903 001b 08       		.uleb128 0x8
 1904 001c 00       		.byte	0
 1905 001d 00       		.byte	0
 1906 001e 03       		.uleb128 0x3
 1907 001f 24       		.uleb128 0x24
 1908 0020 00       		.byte	0
 1909 0021 0B       		.uleb128 0xb
 1910 0022 0B       		.uleb128 0xb
 1911 0023 3E       		.uleb128 0x3e
 1912 0024 0B       		.uleb128 0xb
 1913 0025 03       		.uleb128 0x3
 1914 0026 0E       		.uleb128 0xe
 1915 0027 00       		.byte	0
 1916 0028 00       		.byte	0
 1917 0029 04       		.uleb128 0x4
 1918 002a 16       		.uleb128 0x16
 1919 002b 00       		.byte	0
 1920 002c 03       		.uleb128 0x3
 1921 002d 0E       		.uleb128 0xe
 1922 002e 3A       		.uleb128 0x3a
 1923 002f 0B       		.uleb128 0xb
 1924 0030 3B       		.uleb128 0x3b
 1925 0031 0B       		.uleb128 0xb
ARM GAS  /tmp/cceuxfWV.s 			page 51


 1926 0032 49       		.uleb128 0x49
 1927 0033 13       		.uleb128 0x13
 1928 0034 00       		.byte	0
 1929 0035 00       		.byte	0
 1930 0036 05       		.uleb128 0x5
 1931 0037 13       		.uleb128 0x13
 1932 0038 01       		.byte	0x1
 1933 0039 03       		.uleb128 0x3
 1934 003a 0E       		.uleb128 0xe
 1935 003b 0B       		.uleb128 0xb
 1936 003c 0B       		.uleb128 0xb
 1937 003d 3A       		.uleb128 0x3a
 1938 003e 0B       		.uleb128 0xb
 1939 003f 3B       		.uleb128 0x3b
 1940 0040 0B       		.uleb128 0xb
 1941 0041 01       		.uleb128 0x1
 1942 0042 13       		.uleb128 0x13
 1943 0043 00       		.byte	0
 1944 0044 00       		.byte	0
 1945 0045 06       		.uleb128 0x6
 1946 0046 0D       		.uleb128 0xd
 1947 0047 00       		.byte	0
 1948 0048 03       		.uleb128 0x3
 1949 0049 0E       		.uleb128 0xe
 1950 004a 3A       		.uleb128 0x3a
 1951 004b 0B       		.uleb128 0xb
 1952 004c 3B       		.uleb128 0x3b
 1953 004d 0B       		.uleb128 0xb
 1954 004e 49       		.uleb128 0x49
 1955 004f 13       		.uleb128 0x13
 1956 0050 38       		.uleb128 0x38
 1957 0051 0B       		.uleb128 0xb
 1958 0052 00       		.byte	0
 1959 0053 00       		.byte	0
 1960 0054 07       		.uleb128 0x7
 1961 0055 0D       		.uleb128 0xd
 1962 0056 00       		.byte	0
 1963 0057 03       		.uleb128 0x3
 1964 0058 08       		.uleb128 0x8
 1965 0059 3A       		.uleb128 0x3a
 1966 005a 0B       		.uleb128 0xb
 1967 005b 3B       		.uleb128 0x3b
 1968 005c 05       		.uleb128 0x5
 1969 005d 49       		.uleb128 0x49
 1970 005e 13       		.uleb128 0x13
 1971 005f 38       		.uleb128 0x38
 1972 0060 0B       		.uleb128 0xb
 1973 0061 00       		.byte	0
 1974 0062 00       		.byte	0
 1975 0063 08       		.uleb128 0x8
 1976 0064 0D       		.uleb128 0xd
 1977 0065 00       		.byte	0
 1978 0066 03       		.uleb128 0x3
 1979 0067 0E       		.uleb128 0xe
 1980 0068 3A       		.uleb128 0x3a
 1981 0069 0B       		.uleb128 0xb
 1982 006a 3B       		.uleb128 0x3b
ARM GAS  /tmp/cceuxfWV.s 			page 52


 1983 006b 05       		.uleb128 0x5
 1984 006c 49       		.uleb128 0x49
 1985 006d 13       		.uleb128 0x13
 1986 006e 38       		.uleb128 0x38
 1987 006f 0B       		.uleb128 0xb
 1988 0070 00       		.byte	0
 1989 0071 00       		.byte	0
 1990 0072 09       		.uleb128 0x9
 1991 0073 0F       		.uleb128 0xf
 1992 0074 00       		.byte	0
 1993 0075 0B       		.uleb128 0xb
 1994 0076 0B       		.uleb128 0xb
 1995 0077 49       		.uleb128 0x49
 1996 0078 13       		.uleb128 0x13
 1997 0079 00       		.byte	0
 1998 007a 00       		.byte	0
 1999 007b 0A       		.uleb128 0xa
 2000 007c 13       		.uleb128 0x13
 2001 007d 01       		.byte	0x1
 2002 007e 03       		.uleb128 0x3
 2003 007f 0E       		.uleb128 0xe
 2004 0080 0B       		.uleb128 0xb
 2005 0081 0B       		.uleb128 0xb
 2006 0082 3A       		.uleb128 0x3a
 2007 0083 0B       		.uleb128 0xb
 2008 0084 3B       		.uleb128 0x3b
 2009 0085 05       		.uleb128 0x5
 2010 0086 01       		.uleb128 0x1
 2011 0087 13       		.uleb128 0x13
 2012 0088 00       		.byte	0
 2013 0089 00       		.byte	0
 2014 008a 0B       		.uleb128 0xb
 2015 008b 15       		.uleb128 0x15
 2016 008c 01       		.byte	0x1
 2017 008d 27       		.uleb128 0x27
 2018 008e 19       		.uleb128 0x19
 2019 008f 01       		.uleb128 0x1
 2020 0090 13       		.uleb128 0x13
 2021 0091 00       		.byte	0
 2022 0092 00       		.byte	0
 2023 0093 0C       		.uleb128 0xc
 2024 0094 05       		.uleb128 0x5
 2025 0095 00       		.byte	0
 2026 0096 49       		.uleb128 0x49
 2027 0097 13       		.uleb128 0x13
 2028 0098 00       		.byte	0
 2029 0099 00       		.byte	0
 2030 009a 0D       		.uleb128 0xd
 2031 009b 0F       		.uleb128 0xf
 2032 009c 00       		.byte	0
 2033 009d 0B       		.uleb128 0xb
 2034 009e 0B       		.uleb128 0xb
 2035 009f 00       		.byte	0
 2036 00a0 00       		.byte	0
 2037 00a1 0E       		.uleb128 0xe
 2038 00a2 13       		.uleb128 0x13
 2039 00a3 01       		.byte	0x1
ARM GAS  /tmp/cceuxfWV.s 			page 53


 2040 00a4 03       		.uleb128 0x3
 2041 00a5 0E       		.uleb128 0xe
 2042 00a6 0B       		.uleb128 0xb
 2043 00a7 05       		.uleb128 0x5
 2044 00a8 3A       		.uleb128 0x3a
 2045 00a9 0B       		.uleb128 0xb
 2046 00aa 3B       		.uleb128 0x3b
 2047 00ab 05       		.uleb128 0x5
 2048 00ac 01       		.uleb128 0x1
 2049 00ad 13       		.uleb128 0x13
 2050 00ae 00       		.byte	0
 2051 00af 00       		.byte	0
 2052 00b0 0F       		.uleb128 0xf
 2053 00b1 0D       		.uleb128 0xd
 2054 00b2 00       		.byte	0
 2055 00b3 03       		.uleb128 0x3
 2056 00b4 0E       		.uleb128 0xe
 2057 00b5 3A       		.uleb128 0x3a
 2058 00b6 0B       		.uleb128 0xb
 2059 00b7 3B       		.uleb128 0x3b
 2060 00b8 05       		.uleb128 0x5
 2061 00b9 49       		.uleb128 0x49
 2062 00ba 13       		.uleb128 0x13
 2063 00bb 38       		.uleb128 0x38
 2064 00bc 05       		.uleb128 0x5
 2065 00bd 00       		.byte	0
 2066 00be 00       		.byte	0
 2067 00bf 10       		.uleb128 0x10
 2068 00c0 0D       		.uleb128 0xd
 2069 00c1 00       		.byte	0
 2070 00c2 03       		.uleb128 0x3
 2071 00c3 08       		.uleb128 0x8
 2072 00c4 3A       		.uleb128 0x3a
 2073 00c5 0B       		.uleb128 0xb
 2074 00c6 3B       		.uleb128 0x3b
 2075 00c7 05       		.uleb128 0x5
 2076 00c8 49       		.uleb128 0x49
 2077 00c9 13       		.uleb128 0x13
 2078 00ca 38       		.uleb128 0x38
 2079 00cb 05       		.uleb128 0x5
 2080 00cc 00       		.byte	0
 2081 00cd 00       		.byte	0
 2082 00ce 11       		.uleb128 0x11
 2083 00cf 13       		.uleb128 0x13
 2084 00d0 01       		.byte	0x1
 2085 00d1 0B       		.uleb128 0xb
 2086 00d2 05       		.uleb128 0x5
 2087 00d3 3A       		.uleb128 0x3a
 2088 00d4 0B       		.uleb128 0xb
 2089 00d5 3B       		.uleb128 0x3b
 2090 00d6 05       		.uleb128 0x5
 2091 00d7 01       		.uleb128 0x1
 2092 00d8 13       		.uleb128 0x13
 2093 00d9 00       		.byte	0
 2094 00da 00       		.byte	0
 2095 00db 12       		.uleb128 0x12
 2096 00dc 01       		.uleb128 0x1
ARM GAS  /tmp/cceuxfWV.s 			page 54


 2097 00dd 01       		.byte	0x1
 2098 00de 49       		.uleb128 0x49
 2099 00df 13       		.uleb128 0x13
 2100 00e0 01       		.uleb128 0x1
 2101 00e1 13       		.uleb128 0x13
 2102 00e2 00       		.byte	0
 2103 00e3 00       		.byte	0
 2104 00e4 13       		.uleb128 0x13
 2105 00e5 21       		.uleb128 0x21
 2106 00e6 00       		.byte	0
 2107 00e7 49       		.uleb128 0x49
 2108 00e8 13       		.uleb128 0x13
 2109 00e9 2F       		.uleb128 0x2f
 2110 00ea 0B       		.uleb128 0xb
 2111 00eb 00       		.byte	0
 2112 00ec 00       		.byte	0
 2113 00ed 14       		.uleb128 0x14
 2114 00ee 35       		.uleb128 0x35
 2115 00ef 00       		.byte	0
 2116 00f0 49       		.uleb128 0x49
 2117 00f1 13       		.uleb128 0x13
 2118 00f2 00       		.byte	0
 2119 00f3 00       		.byte	0
 2120 00f4 15       		.uleb128 0x15
 2121 00f5 21       		.uleb128 0x21
 2122 00f6 00       		.byte	0
 2123 00f7 49       		.uleb128 0x49
 2124 00f8 13       		.uleb128 0x13
 2125 00f9 2F       		.uleb128 0x2f
 2126 00fa 05       		.uleb128 0x5
 2127 00fb 00       		.byte	0
 2128 00fc 00       		.byte	0
 2129 00fd 16       		.uleb128 0x16
 2130 00fe 16       		.uleb128 0x16
 2131 00ff 00       		.byte	0
 2132 0100 03       		.uleb128 0x3
 2133 0101 0E       		.uleb128 0xe
 2134 0102 3A       		.uleb128 0x3a
 2135 0103 0B       		.uleb128 0xb
 2136 0104 3B       		.uleb128 0x3b
 2137 0105 05       		.uleb128 0x5
 2138 0106 49       		.uleb128 0x49
 2139 0107 13       		.uleb128 0x13
 2140 0108 00       		.byte	0
 2141 0109 00       		.byte	0
 2142 010a 17       		.uleb128 0x17
 2143 010b 13       		.uleb128 0x13
 2144 010c 01       		.byte	0x1
 2145 010d 0B       		.uleb128 0xb
 2146 010e 0B       		.uleb128 0xb
 2147 010f 3A       		.uleb128 0x3a
 2148 0110 0B       		.uleb128 0xb
 2149 0111 3B       		.uleb128 0x3b
 2150 0112 05       		.uleb128 0x5
 2151 0113 01       		.uleb128 0x1
 2152 0114 13       		.uleb128 0x13
 2153 0115 00       		.byte	0
ARM GAS  /tmp/cceuxfWV.s 			page 55


 2154 0116 00       		.byte	0
 2155 0117 18       		.uleb128 0x18
 2156 0118 26       		.uleb128 0x26
 2157 0119 00       		.byte	0
 2158 011a 49       		.uleb128 0x49
 2159 011b 13       		.uleb128 0x13
 2160 011c 00       		.byte	0
 2161 011d 00       		.byte	0
 2162 011e 19       		.uleb128 0x19
 2163 011f 0D       		.uleb128 0xd
 2164 0120 00       		.byte	0
 2165 0121 03       		.uleb128 0x3
 2166 0122 08       		.uleb128 0x8
 2167 0123 3A       		.uleb128 0x3a
 2168 0124 0B       		.uleb128 0xb
 2169 0125 3B       		.uleb128 0x3b
 2170 0126 0B       		.uleb128 0xb
 2171 0127 49       		.uleb128 0x49
 2172 0128 13       		.uleb128 0x13
 2173 0129 38       		.uleb128 0x38
 2174 012a 0B       		.uleb128 0xb
 2175 012b 00       		.byte	0
 2176 012c 00       		.byte	0
 2177 012d 1A       		.uleb128 0x1a
 2178 012e 13       		.uleb128 0x13
 2179 012f 01       		.byte	0x1
 2180 0130 0B       		.uleb128 0xb
 2181 0131 0B       		.uleb128 0xb
 2182 0132 3A       		.uleb128 0x3a
 2183 0133 0B       		.uleb128 0xb
 2184 0134 3B       		.uleb128 0x3b
 2185 0135 0B       		.uleb128 0xb
 2186 0136 01       		.uleb128 0x1
 2187 0137 13       		.uleb128 0x13
 2188 0138 00       		.byte	0
 2189 0139 00       		.byte	0
 2190 013a 1B       		.uleb128 0x1b
 2191 013b 13       		.uleb128 0x13
 2192 013c 01       		.byte	0x1
 2193 013d 0B       		.uleb128 0xb
 2194 013e 05       		.uleb128 0x5
 2195 013f 3A       		.uleb128 0x3a
 2196 0140 0B       		.uleb128 0xb
 2197 0141 3B       		.uleb128 0x3b
 2198 0142 0B       		.uleb128 0xb
 2199 0143 01       		.uleb128 0x1
 2200 0144 13       		.uleb128 0x13
 2201 0145 00       		.byte	0
 2202 0146 00       		.byte	0
 2203 0147 1C       		.uleb128 0x1c
 2204 0148 17       		.uleb128 0x17
 2205 0149 01       		.byte	0x1
 2206 014a 0B       		.uleb128 0xb
 2207 014b 0B       		.uleb128 0xb
 2208 014c 3A       		.uleb128 0x3a
 2209 014d 0B       		.uleb128 0xb
 2210 014e 3B       		.uleb128 0x3b
ARM GAS  /tmp/cceuxfWV.s 			page 56


 2211 014f 0B       		.uleb128 0xb
 2212 0150 01       		.uleb128 0x1
 2213 0151 13       		.uleb128 0x13
 2214 0152 00       		.byte	0
 2215 0153 00       		.byte	0
 2216 0154 1D       		.uleb128 0x1d
 2217 0155 0D       		.uleb128 0xd
 2218 0156 00       		.byte	0
 2219 0157 03       		.uleb128 0x3
 2220 0158 0E       		.uleb128 0xe
 2221 0159 3A       		.uleb128 0x3a
 2222 015a 0B       		.uleb128 0xb
 2223 015b 3B       		.uleb128 0x3b
 2224 015c 05       		.uleb128 0x5
 2225 015d 49       		.uleb128 0x49
 2226 015e 13       		.uleb128 0x13
 2227 015f 00       		.byte	0
 2228 0160 00       		.byte	0
 2229 0161 1E       		.uleb128 0x1e
 2230 0162 2E       		.uleb128 0x2e
 2231 0163 01       		.byte	0x1
 2232 0164 3F       		.uleb128 0x3f
 2233 0165 19       		.uleb128 0x19
 2234 0166 03       		.uleb128 0x3
 2235 0167 0E       		.uleb128 0xe
 2236 0168 3A       		.uleb128 0x3a
 2237 0169 0B       		.uleb128 0xb
 2238 016a 3B       		.uleb128 0x3b
 2239 016b 0B       		.uleb128 0xb
 2240 016c 27       		.uleb128 0x27
 2241 016d 19       		.uleb128 0x19
 2242 016e 11       		.uleb128 0x11
 2243 016f 01       		.uleb128 0x1
 2244 0170 12       		.uleb128 0x12
 2245 0171 06       		.uleb128 0x6
 2246 0172 40       		.uleb128 0x40
 2247 0173 18       		.uleb128 0x18
 2248 0174 9742     		.uleb128 0x2117
 2249 0176 19       		.uleb128 0x19
 2250 0177 01       		.uleb128 0x1
 2251 0178 13       		.uleb128 0x13
 2252 0179 00       		.byte	0
 2253 017a 00       		.byte	0
 2254 017b 1F       		.uleb128 0x1f
 2255 017c 05       		.uleb128 0x5
 2256 017d 00       		.byte	0
 2257 017e 03       		.uleb128 0x3
 2258 017f 08       		.uleb128 0x8
 2259 0180 3A       		.uleb128 0x3a
 2260 0181 0B       		.uleb128 0xb
 2261 0182 3B       		.uleb128 0x3b
 2262 0183 0B       		.uleb128 0xb
 2263 0184 49       		.uleb128 0x49
 2264 0185 13       		.uleb128 0x13
 2265 0186 02       		.uleb128 0x2
 2266 0187 18       		.uleb128 0x18
 2267 0188 00       		.byte	0
ARM GAS  /tmp/cceuxfWV.s 			page 57


 2268 0189 00       		.byte	0
 2269 018a 20       		.uleb128 0x20
 2270 018b 05       		.uleb128 0x5
 2271 018c 00       		.byte	0
 2272 018d 03       		.uleb128 0x3
 2273 018e 0E       		.uleb128 0xe
 2274 018f 3A       		.uleb128 0x3a
 2275 0190 0B       		.uleb128 0xb
 2276 0191 3B       		.uleb128 0x3b
 2277 0192 0B       		.uleb128 0xb
 2278 0193 49       		.uleb128 0x49
 2279 0194 13       		.uleb128 0x13
 2280 0195 02       		.uleb128 0x2
 2281 0196 18       		.uleb128 0x18
 2282 0197 00       		.byte	0
 2283 0198 00       		.byte	0
 2284 0199 21       		.uleb128 0x21
 2285 019a 2E       		.uleb128 0x2e
 2286 019b 01       		.byte	0x1
 2287 019c 3F       		.uleb128 0x3f
 2288 019d 19       		.uleb128 0x19
 2289 019e 03       		.uleb128 0x3
 2290 019f 0E       		.uleb128 0xe
 2291 01a0 3A       		.uleb128 0x3a
 2292 01a1 0B       		.uleb128 0xb
 2293 01a2 3B       		.uleb128 0x3b
 2294 01a3 0B       		.uleb128 0xb
 2295 01a4 27       		.uleb128 0x27
 2296 01a5 19       		.uleb128 0x19
 2297 01a6 11       		.uleb128 0x11
 2298 01a7 01       		.uleb128 0x1
 2299 01a8 12       		.uleb128 0x12
 2300 01a9 06       		.uleb128 0x6
 2301 01aa 40       		.uleb128 0x40
 2302 01ab 18       		.uleb128 0x18
 2303 01ac 9642     		.uleb128 0x2116
 2304 01ae 19       		.uleb128 0x19
 2305 01af 01       		.uleb128 0x1
 2306 01b0 13       		.uleb128 0x13
 2307 01b1 00       		.byte	0
 2308 01b2 00       		.byte	0
 2309 01b3 22       		.uleb128 0x22
 2310 01b4 34       		.uleb128 0x34
 2311 01b5 00       		.byte	0
 2312 01b6 03       		.uleb128 0x3
 2313 01b7 0E       		.uleb128 0xe
 2314 01b8 49       		.uleb128 0x49
 2315 01b9 13       		.uleb128 0x13
 2316 01ba 34       		.uleb128 0x34
 2317 01bb 19       		.uleb128 0x19
 2318 01bc 02       		.uleb128 0x2
 2319 01bd 18       		.uleb128 0x18
 2320 01be 00       		.byte	0
 2321 01bf 00       		.byte	0
 2322 01c0 23       		.uleb128 0x23
 2323 01c1 34       		.uleb128 0x34
 2324 01c2 00       		.byte	0
ARM GAS  /tmp/cceuxfWV.s 			page 58


 2325 01c3 03       		.uleb128 0x3
 2326 01c4 0E       		.uleb128 0xe
 2327 01c5 3A       		.uleb128 0x3a
 2328 01c6 0B       		.uleb128 0xb
 2329 01c7 3B       		.uleb128 0x3b
 2330 01c8 05       		.uleb128 0x5
 2331 01c9 49       		.uleb128 0x49
 2332 01ca 13       		.uleb128 0x13
 2333 01cb 3F       		.uleb128 0x3f
 2334 01cc 19       		.uleb128 0x19
 2335 01cd 3C       		.uleb128 0x3c
 2336 01ce 19       		.uleb128 0x19
 2337 01cf 00       		.byte	0
 2338 01d0 00       		.byte	0
 2339 01d1 24       		.uleb128 0x24
 2340 01d2 34       		.uleb128 0x34
 2341 01d3 00       		.byte	0
 2342 01d4 03       		.uleb128 0x3
 2343 01d5 08       		.uleb128 0x8
 2344 01d6 3A       		.uleb128 0x3a
 2345 01d7 0B       		.uleb128 0xb
 2346 01d8 3B       		.uleb128 0x3b
 2347 01d9 05       		.uleb128 0x5
 2348 01da 49       		.uleb128 0x49
 2349 01db 13       		.uleb128 0x13
 2350 01dc 3F       		.uleb128 0x3f
 2351 01dd 19       		.uleb128 0x19
 2352 01de 3C       		.uleb128 0x3c
 2353 01df 19       		.uleb128 0x19
 2354 01e0 00       		.byte	0
 2355 01e1 00       		.byte	0
 2356 01e2 00       		.byte	0
 2357              		.section	.debug_aranges,"",%progbits
 2358 0000 34000000 		.4byte	0x34
 2359 0004 0200     		.2byte	0x2
 2360 0006 00000000 		.4byte	.Ldebug_info0
 2361 000a 04       		.byte	0x4
 2362 000b 00       		.byte	0
 2363 000c 0000     		.2byte	0
 2364 000e 0000     		.2byte	0
 2365 0010 00000000 		.4byte	.LFB272
 2366 0014 5E000000 		.4byte	.LFE272-.LFB272
 2367 0018 00000000 		.4byte	.LFB273
 2368 001c 3A000000 		.4byte	.LFE273-.LFB273
 2369 0020 00000000 		.4byte	.LFB274
 2370 0024 38000000 		.4byte	.LFE274-.LFB274
 2371 0028 00000000 		.4byte	.LFB275
 2372 002c 26000000 		.4byte	.LFE275-.LFB275
 2373 0030 00000000 		.4byte	0
 2374 0034 00000000 		.4byte	0
 2375              		.section	.debug_ranges,"",%progbits
 2376              	.Ldebug_ranges0:
 2377 0000 00000000 		.4byte	.LFB272
 2378 0004 5E000000 		.4byte	.LFE272
 2379 0008 00000000 		.4byte	.LFB273
 2380 000c 3A000000 		.4byte	.LFE273
 2381 0010 00000000 		.4byte	.LFB274
ARM GAS  /tmp/cceuxfWV.s 			page 59


 2382 0014 38000000 		.4byte	.LFE274
 2383 0018 00000000 		.4byte	.LFB275
 2384 001c 26000000 		.4byte	.LFE275
 2385 0020 00000000 		.4byte	0
 2386 0024 00000000 		.4byte	0
 2387              		.section	.debug_line,"",%progbits
 2388              	.Ldebug_line0:
 2389 0000 28020000 		.section	.debug_str,"MS",%progbits,1
 2389      0200D001 
 2389      00000201 
 2389      FB0E0D00 
 2389      01010101 
 2390              	.LASF49:
 2391 0000 74687265 		.ascii	"threads_list_t\000"
 2391      6164735F 
 2391      6C697374 
 2391      5F7400
 2392              	.LASF92:
 2393 000f 49435052 		.ascii	"ICPR\000"
 2393      00
 2394              	.LASF54:
 2395 0014 72656164 		.ascii	"ready_list_t\000"
 2395      795F6C69 
 2395      73745F74 
 2395      00
 2396              	.LASF119:
 2397 0021 73655F74 		.ascii	"se_time\000"
 2397      696D6500 
 2398              	.LASF143:
 2399 0029 77747472 		.ascii	"wttrp\000"
 2399      7000
 2400              	.LASF140:
 2401 002f 7264796D 		.ascii	"rdymsg\000"
 2401      736700
 2402              	.LASF16:
 2403 0036 75696E74 		.ascii	"uint64_t\000"
 2403      36345F74 
 2403      00
 2404              	.LASF84:
 2405 003f 6B65726E 		.ascii	"kernel_stats\000"
 2405      656C5F73 
 2405      74617473 
 2405      00
 2406              	.LASF5:
 2407 004c 5F5F7569 		.ascii	"__uint8_t\000"
 2407      6E74385F 
 2407      7400
 2408              	.LASF118:
 2409 0056 706F7274 		.ascii	"port_intctx\000"
 2409      5F696E74 
 2409      63747800 
 2410              	.LASF53:
 2411 0062 63685F74 		.ascii	"ch_threads_queue\000"
 2411      68726561 
 2411      64735F71 
 2411      75657565 
 2411      00
ARM GAS  /tmp/cceuxfWV.s 			page 60


 2412              	.LASF73:
 2413 0073 73797374 		.ascii	"system_debug_t\000"
 2413      656D5F64 
 2413      65627567 
 2413      5F7400
 2414              	.LASF131:
 2415 0082 776F7273 		.ascii	"worst\000"
 2415      7400
 2416              	.LASF134:
 2417 0088 74696D65 		.ascii	"time_measurement_t\000"
 2417      5F6D6561 
 2417      73757265 
 2417      6D656E74 
 2417      5F7400
 2418              	.LASF12:
 2419 009b 6C6F6E67 		.ascii	"long long unsigned int\000"
 2419      206C6F6E 
 2419      6720756E 
 2419      7369676E 
 2419      65642069 
 2420              	.LASF127:
 2421 00b2 63685F74 		.ascii	"ch_trace_buffer_t\000"
 2421      72616365 
 2421      5F627566 
 2421      6665725F 
 2421      7400
 2422              	.LASF122:
 2423 00c4 73655F73 		.ascii	"se_state\000"
 2423      74617465 
 2423      00
 2424              	.LASF141:
 2425 00cd 65786974 		.ascii	"exitcode\000"
 2425      636F6465 
 2425      00
 2426              	.LASF83:
 2427 00d6 6D61696E 		.ascii	"mainthread\000"
 2427      74687265 
 2427      616400
 2428              	.LASF70:
 2429 00e1 76697274 		.ascii	"virtual_timers_list_t\000"
 2429      75616C5F 
 2429      74696D65 
 2429      72735F6C 
 2429      6973745F 
 2430              	.LASF100:
 2431 00f7 43505549 		.ascii	"CPUID\000"
 2431      4400
 2432              	.LASF18:
 2433 00fd 72747469 		.ascii	"rttime_t\000"
 2433      6D655F74 
 2433      00
 2434              	.LASF90:
 2435 0106 49535052 		.ascii	"ISPR\000"
 2435      00
 2436              	.LASF31:
 2437 010b 705F7072 		.ascii	"p_prio\000"
 2437      696F00
ARM GAS  /tmp/cceuxfWV.s 			page 61


 2438              	.LASF158:
 2439 0112 6E766963 		.ascii	"nvicEnableVector\000"
 2439      456E6162 
 2439      6C655665 
 2439      63746F72 
 2439      00
 2440              	.LASF112:
 2441 0123 49534152 		.ascii	"ISAR\000"
 2441      00
 2442              	.LASF10:
 2443 0128 6C6F6E67 		.ascii	"long long int\000"
 2443      206C6F6E 
 2443      6720696E 
 2443      7400
 2444              	.LASF1:
 2445 0136 7369676E 		.ascii	"signed char\000"
 2445      65642063 
 2445      68617200 
 2446              	.LASF166:
 2447 0142 2F686F6D 		.ascii	"/home/jerker/git/AutoTux/stm32\000"
 2447      652F6A65 
 2447      726B6572 
 2447      2F676974 
 2447      2F417574 
 2448              	.LASF46:
 2449 0161 705F6D70 		.ascii	"p_mpool\000"
 2449      6F6F6C00 
 2450              	.LASF151:
 2451 0169 6D5F7175 		.ascii	"m_queue\000"
 2451      65756500 
 2452              	.LASF162:
 2453 0171 6E766963 		.ascii	"nvicClearPending\000"
 2453      436C6561 
 2453      7250656E 
 2453      64696E67 
 2453      00
 2454              	.LASF82:
 2455 0182 76746C69 		.ascii	"vtlist\000"
 2455      737400
 2456              	.LASF80:
 2457 0189 63685F73 		.ascii	"ch_system\000"
 2457      79737465 
 2457      6D00
 2458              	.LASF7:
 2459 0193 6C6F6E67 		.ascii	"long int\000"
 2459      20696E74 
 2459      00
 2460              	.LASF20:
 2461 019c 74737461 		.ascii	"tstate_t\000"
 2461      74655F74 
 2461      00
 2462              	.LASF120:
 2463 01a5 73655F74 		.ascii	"se_tp\000"
 2463      7000
 2464              	.LASF33:
 2465 01ab 705F6E65 		.ascii	"p_newer\000"
 2465      77657200 
ARM GAS  /tmp/cceuxfWV.s 			page 62


 2466              	.LASF148:
 2467 01b3 735F7175 		.ascii	"s_queue\000"
 2467      65756500 
 2468              	.LASF109:
 2469 01bb 42464152 		.ascii	"BFAR\000"
 2469      00
 2470              	.LASF124:
 2471 01c0 74625F73 		.ascii	"tb_size\000"
 2471      697A6500 
 2472              	.LASF110:
 2473 01c8 41465352 		.ascii	"AFSR\000"
 2473      00
 2474              	.LASF59:
 2475 01cd 725F6E65 		.ascii	"r_newer\000"
 2475      77657200 
 2476              	.LASF115:
 2477 01d5 72656761 		.ascii	"regarm_t\000"
 2477      726D5F74 
 2477      00
 2478              	.LASF66:
 2479 01de 76745F70 		.ascii	"vt_prev\000"
 2479      72657600 
 2480              	.LASF114:
 2481 01e6 5343425F 		.ascii	"SCB_Type\000"
 2481      54797065 
 2481      00
 2482              	.LASF74:
 2483 01ef 63685F73 		.ascii	"ch_system_debug\000"
 2483      79737465 
 2483      6D5F6465 
 2483      62756700 
 2484              	.LASF155:
 2485 01ff 6D757465 		.ascii	"mutex_t\000"
 2485      785F7400 
 2486              	.LASF77:
 2487 0207 6C6F636B 		.ascii	"lock_cnt\000"
 2487      5F636E74 
 2487      00
 2488              	.LASF85:
 2489 0210 69646C65 		.ascii	"idle_thread_wa\000"
 2489      5F746872 
 2489      6561645F 
 2489      776100
 2490              	.LASF25:
 2491 021f 636E745F 		.ascii	"cnt_t\000"
 2491      7400
 2492              	.LASF36:
 2493 0225 705F7374 		.ascii	"p_stklimit\000"
 2493      6B6C696D 
 2493      697400
 2494              	.LASF0:
 2495 0230 756E7369 		.ascii	"unsigned int\000"
 2495      676E6564 
 2495      20696E74 
 2495      00
 2496              	.LASF65:
 2497 023d 76745F6E 		.ascii	"vt_next\000"
ARM GAS  /tmp/cceuxfWV.s 			page 63


 2497      65787400 
 2498              	.LASF159:
 2499 0245 6E766963 		.ascii	"nvicDisableVector\000"
 2499      44697361 
 2499      626C6556 
 2499      6563746F 
 2499      7200
 2500              	.LASF144:
 2501 0257 77747365 		.ascii	"wtsemp\000"
 2501      6D7000
 2502              	.LASF41:
 2503 025e 705F6D73 		.ascii	"p_msgqueue\000"
 2503      67717565 
 2503      756500
 2504              	.LASF135:
 2505 0269 6E5F6972 		.ascii	"n_irq\000"
 2505      7100
 2506              	.LASF102:
 2507 026f 56544F52 		.ascii	"VTOR\000"
 2507      00
 2508              	.LASF149:
 2509 0274 735F636E 		.ascii	"s_cnt\000"
 2509      7400
 2510              	.LASF139:
 2511 027a 6B65726E 		.ascii	"kernel_stats_t\000"
 2511      656C5F73 
 2511      74617473 
 2511      5F7400
 2512              	.LASF50:
 2513 0289 63685F74 		.ascii	"ch_thread\000"
 2513      68726561 
 2513      6400
 2514              	.LASF101:
 2515 0293 49435352 		.ascii	"ICSR\000"
 2515      00
 2516              	.LASF23:
 2517 0298 6D73675F 		.ascii	"msg_t\000"
 2517      7400
 2518              	.LASF103:
 2519 029e 41495243 		.ascii	"AIRCR\000"
 2519      5200
 2520              	.LASF107:
 2521 02a4 44465352 		.ascii	"DFSR\000"
 2521      00
 2522              	.LASF26:
 2523 02a9 75636E74 		.ascii	"ucnt_t\000"
 2523      5F7400
 2524              	.LASF108:
 2525 02b0 4D4D4641 		.ascii	"MMFAR\000"
 2525      5200
 2526              	.LASF79:
 2527 02b6 63685F73 		.ascii	"ch_system_t\000"
 2527      79737465 
 2527      6D5F7400 
 2528              	.LASF164:
 2529 02c2 474E5520 		.ascii	"GNU C 4.8.2 -mcpu=cortex-m4 -mno-thumb-interwork -m"
 2529      4320342E 
ARM GAS  /tmp/cceuxfWV.s 			page 64


 2529      382E3220 
 2529      2D6D6370 
 2529      753D636F 
 2530 02f5 7468756D 		.ascii	"thumb -ggdb -O0 -fomit-frame-pointer -falign-functi"
 2530      62202D67 
 2530      67646220 
 2530      2D4F3020 
 2530      2D666F6D 
 2531 0328 6F6E733D 		.ascii	"ons=16 -ffunction-sections -fdata-sections -fno-com"
 2531      3136202D 
 2531      6666756E 
 2531      6374696F 
 2531      6E2D7365 
 2532 035b 6D6F6E20 		.ascii	"mon -flto\000"
 2532      2D666C74 
 2532      6F00
 2533              	.LASF126:
 2534 0365 74625F62 		.ascii	"tb_buffer\000"
 2534      75666665 
 2534      7200
 2535              	.LASF138:
 2536 036f 6D5F6372 		.ascii	"m_crit_isr\000"
 2536      69745F69 
 2536      737200
 2537              	.LASF55:
 2538 037a 63685F72 		.ascii	"ch_ready_list\000"
 2538      65616479 
 2538      5F6C6973 
 2538      7400
 2539              	.LASF24:
 2540 0388 6576656E 		.ascii	"eventmask_t\000"
 2540      746D6173 
 2540      6B5F7400 
 2541              	.LASF6:
 2542 0394 5F5F696E 		.ascii	"__int32_t\000"
 2542      7433325F 
 2542      7400
 2543              	.LASF116:
 2544 039e 73746B61 		.ascii	"stkalign_t\000"
 2544      6C69676E 
 2544      5F7400
 2545              	.LASF161:
 2546 03a9 68616E64 		.ascii	"handler\000"
 2546      6C657200 
 2547              	.LASF63:
 2548 03b1 76697274 		.ascii	"virtual_timer_t\000"
 2548      75616C5F 
 2548      74696D65 
 2548      725F7400 
 2549              	.LASF40:
 2550 03c1 705F7761 		.ascii	"p_waiting\000"
 2550      6974696E 
 2550      6700
 2551              	.LASF98:
 2552 03cb 73697A65 		.ascii	"sizetype\000"
 2552      74797065 
 2552      00
ARM GAS  /tmp/cceuxfWV.s 			page 65


 2553              	.LASF48:
 2554 03d4 74687265 		.ascii	"thread_reference_t\000"
 2554      61645F72 
 2554      65666572 
 2554      656E6365 
 2554      5F7400
 2555              	.LASF71:
 2556 03e7 63685F76 		.ascii	"ch_virtual_timers_list\000"
 2556      69727475 
 2556      616C5F74 
 2556      696D6572 
 2556      735F6C69 
 2557              	.LASF105:
 2558 03fe 43465352 		.ascii	"CFSR\000"
 2558      00
 2559              	.LASF125:
 2560 0403 74625F70 		.ascii	"tb_ptr\000"
 2560      747200
 2561              	.LASF94:
 2562 040a 49414252 		.ascii	"IABR\000"
 2562      00
 2563              	.LASF123:
 2564 040f 63685F73 		.ascii	"ch_swc_event_t\000"
 2564      77635F65 
 2564      76656E74 
 2564      5F7400
 2565              	.LASF72:
 2566 041e 76745F6C 		.ascii	"vt_lasttime\000"
 2566      61737474 
 2566      696D6500 
 2567              	.LASF34:
 2568 042a 705F6F6C 		.ascii	"p_older\000"
 2568      64657200 
 2569              	.LASF167:
 2570 0432 5F5F6675 		.ascii	"__func__.7432\000"
 2570      6E635F5F 
 2570      2E373433 
 2570      3200
 2571              	.LASF58:
 2572 0440 725F6374 		.ascii	"r_ctx\000"
 2572      7800
 2573              	.LASF129:
 2574 0446 746D5F63 		.ascii	"tm_calibration_t\000"
 2574      616C6962 
 2574      72617469 
 2574      6F6E5F74 
 2574      00
 2575              	.LASF88:
 2576 0457 49434552 		.ascii	"ICER\000"
 2576      00
 2577              	.LASF157:
 2578 045c 7072696F 		.ascii	"prio\000"
 2578      00
 2579              	.LASF60:
 2580 0461 725F6F6C 		.ascii	"r_older\000"
 2580      64657200 
 2581              	.LASF11:
ARM GAS  /tmp/cceuxfWV.s 			page 66


 2582 0469 5F5F7569 		.ascii	"__uint64_t\000"
 2582      6E743634 
 2582      5F7400
 2583              	.LASF133:
 2584 0474 63756D75 		.ascii	"cumulative\000"
 2584      6C617469 
 2584      766500
 2585              	.LASF21:
 2586 047f 74726566 		.ascii	"trefs_t\000"
 2586      735F7400 
 2587              	.LASF87:
 2588 0487 52455345 		.ascii	"RESERVED0\000"
 2588      52564544 
 2588      3000
 2589              	.LASF91:
 2590 0491 52455345 		.ascii	"RESERVED2\000"
 2590      52564544 
 2590      3200
 2591              	.LASF93:
 2592 049b 52455345 		.ascii	"RESERVED3\000"
 2592      52564544 
 2592      3300
 2593              	.LASF95:
 2594 04a5 52455345 		.ascii	"RESERVED4\000"
 2594      52564544 
 2594      3400
 2595              	.LASF30:
 2596 04af 705F7072 		.ascii	"p_prev\000"
 2596      657600
 2597              	.LASF22:
 2598 04b6 74707269 		.ascii	"tprio_t\000"
 2598      6F5F7400 
 2599              	.LASF136:
 2600 04be 6E5F6374 		.ascii	"n_ctxswc\000"
 2600      78737763 
 2600      00
 2601              	.LASF156:
 2602 04c7 5F426F6F 		.ascii	"_Bool\000"
 2602      6C00
 2603              	.LASF14:
 2604 04cd 696E7433 		.ascii	"int32_t\000"
 2604      325F7400 
 2605              	.LASF2:
 2606 04d5 756E7369 		.ascii	"unsigned char\000"
 2606      676E6564 
 2606      20636861 
 2606      7200
 2607              	.LASF104:
 2608 04e3 53484353 		.ascii	"SHCSR\000"
 2608      5200
 2609              	.LASF163:
 2610 04e9 49544D5F 		.ascii	"ITM_RxBuffer\000"
 2610      52784275 
 2610      66666572 
 2610      00
 2611              	.LASF37:
 2612 04f6 705F7374 		.ascii	"p_state\000"
ARM GAS  /tmp/cceuxfWV.s 			page 67


 2612      61746500 
 2613              	.LASF44:
 2614 04fe 705F6D74 		.ascii	"p_mtxlist\000"
 2614      786C6973 
 2614      7400
 2615              	.LASF3:
 2616 0508 73686F72 		.ascii	"short int\000"
 2616      7420696E 
 2616      7400
 2617              	.LASF86:
 2618 0512 49534552 		.ascii	"ISER\000"
 2618      00
 2619              	.LASF99:
 2620 0517 4E564943 		.ascii	"NVIC_Type\000"
 2620      5F547970 
 2620      6500
 2621              	.LASF160:
 2622 0521 6E766963 		.ascii	"nvicSetSystemHandlerPriority\000"
 2622      53657453 
 2622      79737465 
 2622      6D48616E 
 2622      646C6572 
 2623              	.LASF57:
 2624 053e 725F7072 		.ascii	"r_prio\000"
 2624      696F00
 2625              	.LASF165:
 2626 0545 6C69622F 		.ascii	"lib/ChibiOS_16.1.4//os/hal/ports/common/ARMCMx/nvic"
 2626      43686962 
 2626      694F535F 
 2626      31362E31 
 2626      2E342F2F 
 2627 0578 2E6300   		.ascii	".c\000"
 2628              	.LASF146:
 2629 057b 65776D61 		.ascii	"ewmask\000"
 2629      736B00
 2630              	.LASF29:
 2631 0582 705F6E65 		.ascii	"p_next\000"
 2631      787400
 2632              	.LASF19:
 2633 0589 746D6F64 		.ascii	"tmode_t\000"
 2633      655F7400 
 2634              	.LASF38:
 2635 0591 705F666C 		.ascii	"p_flags\000"
 2635      61677300 
 2636              	.LASF47:
 2637 0599 705F7374 		.ascii	"p_stats\000"
 2637      61747300 
 2638              	.LASF4:
 2639 05a1 73686F72 		.ascii	"short unsigned int\000"
 2639      7420756E 
 2639      7369676E 
 2639      65642069 
 2639      6E7400
 2640              	.LASF64:
 2641 05b4 63685F76 		.ascii	"ch_virtual_timer\000"
 2641      69727475 
 2641      616C5F74 
ARM GAS  /tmp/cceuxfWV.s 			page 68


 2641      696D6572 
 2641      00
 2642              	.LASF147:
 2643 05c5 63685F73 		.ascii	"ch_semaphore\000"
 2643      656D6170 
 2643      686F7265 
 2643      00
 2644              	.LASF43:
 2645 05d2 705F6570 		.ascii	"p_epending\000"
 2645      656E6469 
 2645      6E6700
 2646              	.LASF96:
 2647 05dd 52455345 		.ascii	"RESERVED5\000"
 2647      52564544 
 2647      3500
 2648              	.LASF15:
 2649 05e7 75696E74 		.ascii	"uint32_t\000"
 2649      33325F74 
 2649      00
 2650              	.LASF145:
 2651 05f0 77746D74 		.ascii	"wtmtxp\000"
 2651      787000
 2652              	.LASF56:
 2653 05f7 725F7175 		.ascii	"r_queue\000"
 2653      65756500 
 2654              	.LASF67:
 2655 05ff 76745F64 		.ascii	"vt_delta\000"
 2655      656C7461 
 2655      00
 2656              	.LASF51:
 2657 0608 63685F74 		.ascii	"ch_threads_list\000"
 2657      68726561 
 2657      64735F6C 
 2657      69737400 
 2658              	.LASF9:
 2659 0618 6C6F6E67 		.ascii	"long unsigned int\000"
 2659      20756E73 
 2659      69676E65 
 2659      6420696E 
 2659      7400
 2660              	.LASF61:
 2661 062a 725F6375 		.ascii	"r_current\000"
 2661      7272656E 
 2661      7400
 2662              	.LASF154:
 2663 0634 63686172 		.ascii	"char\000"
 2663      00
 2664              	.LASF28:
 2665 0639 74687265 		.ascii	"thread_t\000"
 2665      61645F74 
 2665      00
 2666              	.LASF130:
 2667 0642 62657374 		.ascii	"best\000"
 2667      00
 2668              	.LASF153:
 2669 0647 6D5F6E65 		.ascii	"m_next\000"
 2669      787400
ARM GAS  /tmp/cceuxfWV.s 			page 69


 2670              	.LASF27:
 2671 064e 73797374 		.ascii	"systime_t\000"
 2671      696D655F 
 2671      7400
 2672              	.LASF45:
 2673 0658 705F7265 		.ascii	"p_realprio\000"
 2673      616C7072 
 2673      696F00
 2674              	.LASF62:
 2675 0663 76746675 		.ascii	"vtfunc_t\000"
 2675      6E635F74 
 2675      00
 2676              	.LASF8:
 2677 066c 5F5F7569 		.ascii	"__uint32_t\000"
 2677      6E743332 
 2677      5F7400
 2678              	.LASF132:
 2679 0677 6C617374 		.ascii	"last\000"
 2679      00
 2680              	.LASF75:
 2681 067c 70616E69 		.ascii	"panic_msg\000"
 2681      635F6D73 
 2681      6700
 2682              	.LASF128:
 2683 0686 6F666673 		.ascii	"offset\000"
 2683      657400
 2684              	.LASF117:
 2685 068d 636F6E74 		.ascii	"context\000"
 2685      65787400 
 2686              	.LASF17:
 2687 0695 7274636E 		.ascii	"rtcnt_t\000"
 2687      745F7400 
 2688              	.LASF69:
 2689 069d 76745F70 		.ascii	"vt_par\000"
 2689      617200
 2690              	.LASF52:
 2691 06a4 74687265 		.ascii	"threads_queue_t\000"
 2691      6164735F 
 2691      71756575 
 2691      655F7400 
 2692              	.LASF150:
 2693 06b4 63685F6D 		.ascii	"ch_mutex\000"
 2693      75746578 
 2693      00
 2694              	.LASF39:
 2695 06bd 705F7265 		.ascii	"p_refs\000"
 2695      667300
 2696              	.LASF76:
 2697 06c4 6973725F 		.ascii	"isr_cnt\000"
 2697      636E7400 
 2698              	.LASF111:
 2699 06cc 4D4D4652 		.ascii	"MMFR\000"
 2699      00
 2700              	.LASF81:
 2701 06d1 726C6973 		.ascii	"rlist\000"
 2701      7400
 2702              	.LASF13:
ARM GAS  /tmp/cceuxfWV.s 			page 70


 2703 06d7 75696E74 		.ascii	"uint8_t\000"
 2703      385F7400 
 2704              	.LASF89:
 2705 06df 52534552 		.ascii	"RSERVED1\000"
 2705      56454431 
 2705      00
 2706              	.LASF97:
 2707 06e8 53544952 		.ascii	"STIR\000"
 2707      00
 2708              	.LASF142:
 2709 06ed 77746F62 		.ascii	"wtobjp\000"
 2709      6A7000
 2710              	.LASF35:
 2711 06f4 705F6E61 		.ascii	"p_name\000"
 2711      6D6500
 2712              	.LASF78:
 2713 06fb 74726163 		.ascii	"trace_buffer\000"
 2713      655F6275 
 2713      66666572 
 2713      00
 2714              	.LASF42:
 2715 0708 705F6D73 		.ascii	"p_msg\000"
 2715      6700
 2716              	.LASF113:
 2717 070e 43504143 		.ascii	"CPACR\000"
 2717      5200
 2718              	.LASF106:
 2719 0714 48465352 		.ascii	"HFSR\000"
 2719      00
 2720              	.LASF137:
 2721 0719 6D5F6372 		.ascii	"m_crit_thd\000"
 2721      69745F74 
 2721      686400
 2722              	.LASF152:
 2723 0724 6D5F6F77 		.ascii	"m_owner\000"
 2723      6E657200 
 2724              	.LASF121:
 2725 072c 73655F77 		.ascii	"se_wtobjp\000"
 2725      746F626A 
 2725      7000
 2726              	.LASF32:
 2727 0736 705F6374 		.ascii	"p_ctx\000"
 2727      7800
 2728              	.LASF68:
 2729 073c 76745F66 		.ascii	"vt_func\000"
 2729      756E6300 
 2730              		.comm	__gnu_lto_v1,1,1
 2731              		.ident	"GCC: (4.8.2-14ubuntu1+6) 4.8.2"
ARM GAS  /tmp/cceuxfWV.s 			page 71


DEFINED SYMBOLS
                            *ABS*:0000000000000000 nvic.c
     /tmp/cceuxfWV.s:286    .text.nvicEnableVector:0000000000000000 $t
     /tmp/cceuxfWV.s:292    .text.nvicEnableVector:0000000000000000 nvicEnableVector
     /tmp/cceuxfWV.s:344    .text.nvicDisableVector:0000000000000000 $t
     /tmp/cceuxfWV.s:350    .text.nvicDisableVector:0000000000000000 nvicDisableVector
     /tmp/cceuxfWV.s:387    .text.nvicSetSystemHandlerPriority:0000000000000000 $t
     /tmp/cceuxfWV.s:393    .text.nvicSetSystemHandlerPriority:0000000000000000 nvicSetSystemHandlerPriority
     /tmp/cceuxfWV.s:472    .rodata.__func__.7432:0000000000000000 __func__.7432
     /tmp/cceuxfWV.s:434    .text.nvicClearPending:0000000000000000 $t
     /tmp/cceuxfWV.s:440    .text.nvicClearPending:0000000000000000 nvicClearPending
     /tmp/cceuxfWV.s:469    .rodata.__func__.7432:0000000000000000 $d
                            *COM*:0000000000000001 __gnu_lto_v1
                     .debug_frame:0000000000000010 $d

UNDEFINED SYMBOLS
chSysHalt
