ARM GAS  /tmp/ccoh7056.s 			page 1


   1              		.syntax unified
   2              		.cpu cortex-m4
   3              		.fpu softvfp
   4              		.eabi_attribute 20, 1
   5              		.eabi_attribute 21, 1
   6              		.eabi_attribute 23, 3
   7              		.eabi_attribute 24, 1
   8              		.eabi_attribute 25, 1
   9              		.eabi_attribute 26, 1
  10              		.eabi_attribute 30, 6
  11              		.eabi_attribute 34, 1
  12              		.eabi_attribute 18, 4
  13              		.thumb
  14              		.file	"nvic.c"
  15              		.text
  16              	.Ltext0:
  17              		.section	.gnu.lto_.inline.3357dcdb7950e9a3,"",%progbits
  18 0000 789C6362 		.ascii	"x\234cb`b\300\006\002\2404\013\003\003/\017\003\003"
  18      6062C006 
  18      02A0340B 
  18      03032F0F 
  18      0303
  19 0012 93D881DD 		.ascii	"\223\330\201\335\214@\016X1#\003\007;P\210gC.L\204\211"
  19      8C400E58 
  19      31230307 
  19      3B508867 
  19      432E4C84 
  20 0027 81531048 		.ascii	"\201S\020Hr=\210\205\213p\2035\263\263\241\0123\000"
  20      723D8885 
  20      8B708335 
  20      B3B3A10A 
  20      3300
  21 0039 00194306 		.ascii	"\000\031C\006%"
  21      25
  22              		.text
  23              		.section	.gnu.lto_nvicEnableVector.3357dcdb7950e9a3,"",%progbits
  24 0000 789CCD93 		.ascii	"x\234\315\223=h\024A\024\307\337\233\375\270\275\333"
  24      3D681441 
  24      14C7DF9B 
  24      FDB8BDDB 
  25 0010 FB486161 		.ascii	"\373Haag\210\245\270k\012QH!be\021\010\022A\313\313"
  25      6788A5B8 
  25      6B0A5148 
  25      21626511 
  25      081241CB 
  26 0025 15E78277 		.ascii	"\025\347\202w'F\304\312\314\271W\004l$A\220\230\"\261"
  26      2746C4CA 
  26      CCB95704 
  26      6C244190 
  26      9822B1
  27 0038 90439228 		.ascii	"\220C\222(V\001A\217\024\022\221 \351\305\273B+A\202"
  27      5601418F 
  27      14129120 
  27      E9C5BB42 
  27      2B4182
  28 004b 9585B0BE 		.ascii	"\225\205\260\2767{;\271D\015\253\215\016\267\2633\373"
  28      377B3BB9 
ARM GAS  /tmp/ccoh7056.s 			page 2


  28      440DAB8D 
  28      0EB7B333 
  28      FB
  29 005c 7FFFF7DE 		.ascii	"\177\377\367\336ovO\200\200\375\343\020]\263\026\300"
  29      6F764F80 
  29      80FDE310 
  29      5DB316C0 
  30 006c 69DE1880 		.ascii	"i\336\030\200\024\201\002\2216\0103\002g.\363\022\012"
  30      14810291 
  30      36083302 
  30      672EF312 
  30      0A
  31 007d 23B02CE5 		.ascii	"#\260,\345\\\357S\367\3552\3129\331\334\211\242R\300"
  31      5CEF53F7 
  31      ED32CA39 
  31      D9DC89A2 
  31      52C0
  32 008f 5205E112 		.ascii	"R\005\341\022\006\210\303\352&\314\275\331c\233|\365"
  32      0688C3EA 
  32      26CCBDD9 
  32      639B7CF5 
  33 009f 7EE2816C 		.ascii	"~\342\201lu\242\350L\200\306\256\307\211=\370K\317Z"
  33      75A2E84C 
  33      80C6AEC7 
  33      893DF84B 
  33      CF5A
  34 00b1 5B1A4BF2 		.ascii	"[\032K\362{\024\031\251=\235\371\327\177\325\336\366"
  34      7B1419A9 
  34      3D9DF9D7 
  34      7FD5DEF6 
  35 00c1 C789CDA4 		.ascii	"\307\211\315\244=3\225\347\236\354\016x,\001\243\230"
  35      3D3395E7 
  35      9EEC0E78 
  35      2C01A398 
  36 00d1 CEF6BC2D 		.ascii	"\316\366\274-\263\011\225\225\262\275A\217\235\316\323"
  36      B3099595 
  36      B2BD418F 
  36      9DCED3
  37 00e0 B9FFCF4E 		.ascii	"\271\377\317N\342\344\377r\022OE\247\027E\213\357\026"
  37      E2E4FF72 
  37      124F45A7 
  37      17458BEF 
  37      16
  38 00f1 3E1CC621 		.ascii	">\034\306!\004:\004\2015\244o\234\276'\223'\213\266"
  38      043A0481 
  38      35A46F9C 
  38      BE279327 
  38      8BB6
  39 0103 9486840C 		.ascii	"\224\206\204\014M\246\003e|\214#\220\245\215\225\243"
  39      4DA60365 
  39      7C8C2390 
  39      A58D95A3 
  40 0113 C97659CB 		.ascii	"\311vY\313\263V m\205\264\"k%P\325\301\202\026\201\014"
  40      B356206D 
  40      85B4226B 
  40      2550D5C1 
  40      8216810C 
ARM GAS  /tmp/ccoh7056.s 			page 3


  41 0127 AB3E684C 		.ascii	"\253>hL\252\371\"\377\203\214-\270\263\376\255k\224"
  41      AAF922FF 
  41      838C2DB8 
  41      B3FEAD6B 
  41      94
  42 0138 F119B155 		.ascii	"\361\031\261U\021\271?\220\033\241,R\010\211\237\303"
  42      11B93F90 
  42      1BA12C52 
  42      08899FC3 
  43 0148 DB896654 		.ascii	"\333\211fT\331\261\005\341\252\0167\351);2\246\212\336"
  43      D9B105E1 
  43      AA0E37E9 
  43      293B32A6 
  43      8ADE
  44 015a 381F0BC7 		.ascii	"8\037\013\307aE\266\232\362\024\011\307\340\011/\351"
  44      6145B69A 
  44      F21409C7 
  44      E0092FE9 
  45 016a CD3A0F61 		.ascii	"\315:\017a\201B\263I\0215\246\372\367*\237l\177e\252"
  45      8142B349 
  45      1135A6FA 
  45      F72A9F6C 
  45      7F65AA
  46 017d C2EBEDA9 		.ascii	"\302\353\355\251\244\212\275\257\251p-|\204\211\230"
  46      A48ABDAF 
  46      A9702D7C 
  46      848998
  47 018c 212BEB96 		.ascii	"!+\353\226\0257\374%|\2515G\245%\303\013\3351\225wT"
  47      1537FC25 
  47      7CA93547 
  47      A525C30B 
  47      DD319577 
  48 01a1 F89138D5 		.ascii	"\370\2218\325j\370U\207\347X\260\221\243\024\315\233"
  48      6AF85587 
  48      E758B091 
  48      A314CD9B 
  49 01b1 1D770FCF 		.ascii	"\035w\017\317X\200\271]\036W\363\330\203<\330\247\310"
  49      5880B95D 
  49      1E57F3D8 
  49      833CD8A7 
  49      C8
  50 01c2 689E5CCC 		.ascii	"h\236\\\314\263\251y\334\203x\362\007\360\024~\346)"
  50      B3A979DC 
  50      8378F207 
  50      F0147EE6 
  50      29
  51 01d3 D2D3DFF1 		.ascii	"\322\323\337\361\2244O\361\217x\334A\036\321\247\310"
  51      94344FF1 
  51      8F78DC41 
  51      1ED1A7C8 
  52 01e3 6B9E12C0 		.ascii	"k\236\022\30064{w\217\306\311\2221\311\350\034\355y"
  52      36347B77 
  52      8FC6C992 
  52      31C9E81C 
  52      ED79
  53 01f5 9EAF7F8D 		.ascii	"\236\257\177\215i\377J\371\252\177\255q\375\306\264"
  53      69FF4AF9 
ARM GAS  /tmp/ccoh7056.s 			page 4


  53      AA7FAD71 
  53      FDC6B4
  54 0204 5F69D46A 		.ascii	"_i\324j\215\272\177\366\302\370\271\361[~\375fP\361"
  54      8DBA7FF6 
  54      C2F8B9F1 
  54      5B7EFD66 
  54      50F1
  55 0216 2A60D4BD 		.ascii	"*`\324\275\023t\215\376\000\252\360C\200"
  55      13748DFE 
  55      00AAF043 
  55      80
  56              		.text
  57              		.section	.gnu.lto_nvicDisableVector.3357dcdb7950e9a3,"",%progbits
  58 0000 789C8D52 		.ascii	"x\234\215R=K\003A\020\235\331\3732\012\212`c\245h)\336"
  58      3D4B0341 
  58      109DD9FB 
  58      320A8A60 
  58      63A56829 
  59 0015 A1080A16 		.ascii	"\241\010\012\026\"\326\001\021\005-c\212xb\0221\"vn"
  59      22D60111 
  59      052D638A 
  59      78621231 
  59      22766E
  60 0028 7211C42A 		.ascii	"r\021\304*X\2116Q\033\011~\241M@\220\220B\024\261\310"
  60      58893651 
  60      1B097EA1 
  60      4D409090 
  60      4214B1C8 
  61 003c 2F308890 		.ascii	"/0\210\220N\202X\212\353\354%\027\243\325\015w\273\263"
  61      4E82588A 
  61      EBEC2517 
  61      A3D50D77 
  61      BBB3
  62 004e F3DE9B99 		.ascii	"\363\336\233\231\233[\006\014\376[\027\275\237\024\036"
  62      9B5B060C 
  62      FE5B17BD 
  62      9F141E
  63 005d 91070590 		.ascii	"\221\007\005\220\\d\210t@\330b\270\265 ]\320\373\340"
  63      5C648874 
  63      40D862B8 
  63      B5205DD0 
  63      FBE0
  64 006f 88F3BDF2 		.ascii	"\210\363\275\362v%\337\275\233Me\370\267\020hK(\214"
  64      7625DFBD 
  64      9B4D65F8 
  64      B710684B 
  64      288C
  65 0081 304F1EF6 		.ascii	"0O\036\366\272\033S\377f\257\311x\351m\372\201\247\013"
  65      BA1B53FF 
  65      66AFC978 
  65      E96DFA81 
  65      A70B
  66 0093 424CD8A8 		.ascii	"BL\330\250\370\322d\370K\223Fe0\204\376d\327\247<\220"
  66      F8D264F8 
  66      4B934665 
  66      3084FE64 
  66      D7A73C90 
ARM GAS  /tmp/ccoh7056.s 			page 5


  67 00a7 E55F4228 		.ascii	"\345_B($\363\331^\263F\363\247)\224\356\237\216\220"
  67      24F3D95E 
  67      B346F3A7 
  67      2994EE9F 
  67      8E90
  68 00b9 B4C9AA10 		.ascii	"\264\311\252\020\035>&q\311\012e!\316n\256^s\330\331"
  68      1D3E2671 
  68      C90A6521 
  68      CE6EAE5E 
  68      73D8D9
  69 00cc 82401286 		.ascii	"\202@\022\206Q\244\221\323HT\010\341\011\366\201F\007"
  69      51A491D3 
  69      485408E1 
  69      09F68146 
  69      07
  70 00dd 55A74533 		.ascii	"U\247E3\300\315I\2214}U\257\233\235l\326]\347\344_R"
  70      C0CD4991 
  70      347D55AF 
  70      9B9D6CD6 
  70      5DE7E45F 
  71 00f2 9E2195DF 		.ascii	"\236!\225\337\257\214\205\360\224\232\216 \312\252\300"
  71      AF8C85F0 
  71      949A8E20 
  71      CAAAC0
  72 0101 8B0E6F27 		.ascii	"\213\016o'\31238\027\3161z\240\022A&qUs\261\324\273"
  72      CA333817 
  72      CE317AA0 
  72      12412671 
  72      5573B1D4 
  73 0116 73D7C0D4 		.ascii	"s\327\300\324\210LG\202[\305\013i\024u\351=\265T\347"
  73      884C4782 
  73      5BC50B69 
  73      1475E93D 
  73      B554E7
  74 0129 CE4783AE 		.ascii	"\316G\203\256K@C\311\222X\361\261\332V\203\006\341\214"
  74      4B4043C9 
  74      9258F1B1 
  74      DA568306 
  74      E18C
  75 013b A7937CDC 		.ascii	"\247\223|\334F}\000r\322\245\271\030\207p@\374\026\257"
  75      467D0072 
  75      D2A5B918 
  75      877040FC 
  75      16AF
  76 014d 3FD716EB 		.ascii	"?\327\026\353{D^\206\272\247\273}\345w\226\275:\306"
  76      7B445E86 
  76      BAA7BB7D 
  76      E57796BD 
  76      3AC6
  77 015f BFEF29E6 		.ascii	"\277\357)\346\253\306\237B\2436\006~\013\2656\012\031"
  77      ABC69F42 
  77      A336067E 
  77      0BB5360A 
  77      19
  78 0170 CD85B09E 		.ascii	"\315\205\260\236\336\273\370\022\013H\247\004\311r\256"
  78      DEBBF812 
  78      0B48A704 
ARM GAS  /tmp/ccoh7056.s 			page 6


  78      C972AE
  79 017f BF96D0B3 		.ascii	"\277\226\320\263YI\227L\3234\255\306\023OXK\241\025"
  79      5949974C 
  79      D334ADC6 
  79      134F584B 
  79      A115
  80 0191 6B35BEB6 		.ascii	"k5\276\266\236\260\302\361h4\036\263&g\202S\301M+\266"
  80      9EB0C2F1 
  80      68341EB3 
  80      26678253 
  80      C14D2BB6 
  81 01a5 6187CD30 		.ascii	"a\207\3150(1s\370\007\256\273\264\332"
  81      283173F8 
  81      07AEBBB4 
  81      DA
  82              		.text
  83              		.section	.gnu.lto_nvicSetSystemHandlerPriority.3357dcdb7950e9a3,"",%progbits
  84 0000 789C8D52 		.ascii	"x\234\215R;H\003A\020\235\331\335\213QQ\264\323.h)\336"
  84      3B480341 
  84      109DD9DD 
  84      8B5151B4 
  84      D32E6829 
  85 0015 A5B314B1 		.ascii	"\245\263\024\261\262\010\210$\240e\274\"\036x\211\030"
  85      B2088824 
  85      A065BC22 
  85      1E788918 
  86 0025 11C1229B 		.ascii	"\021\301\"\233\217 b\021\254\202ZD\260\020\211\232J"
  86      8F206211 
  86      AC825A44 
  86      B010899A 
  86      4A
  87 0036 2DA388D8 		.ascii	"-\243\210\330D\261U\213T6\332\245R\304s6\227\013A,\034"
  87      44B1558B 
  87      5436DAA5 
  87      52C47336 
  87      970B412C 
  88 004b EE766767 		.ascii	"\356vgg\336\333\367vY\006\014~\207A\177?\225\203j\341"
  88      DEDBF776 
  88      59060C7E 
  88      87417F3F 
  88      95836AE1 
  89 005f 03A41419 		.ascii	"\003\244\024\031r\0329\023\000\222i4\010\2014\241\206"
  89      721A3913 
  89      00926934 
  89      088134A1 
  89      86
  90 0070 48208414 		.ascii	"H \204\024\343B\303\324\234Z\201\030\202\003)wj\033"
  90      E342C3D4 
  90      9C5A8118 
  90      82032977 
  90      6A1B
  91 0082 F5F2E056 		.ascii	"\365\362\340V1\223\227\337\216\203\226j\231\010\263"
  91      319397DF 
  91      8E83966A 
  91      9908B3
  92 0091 9461A031 		.ascii	"\224a\2401\251\335\332\303\245\311\347\227\351\202\314"
  92      A9DDDAC3 
ARM GAS  /tmp/ccoh7056.s 			page 7


  92      A5C9E797 
  92      E982CC
  93 00a0 551C67DC 		.ascii	"U\034g\334R\252\036\307\357r\360O\316\351\221\344E\371"
  93      52AA1EC7 
  93      EF72F04F 
  93      CEE991E4 
  93      45F9
  94 00b2 E538FC1F 		.ascii	"\3458\374\037\034\033\341\214Uj\216S\272(o\277\343>"
  94      1C1BE18C 
  94      556A8E53 
  94      BA286FBF 
  94      E33E
  95 00c4 F321DA48 		.ascii	"\363!\332H\347$\217\2342\362E\273h\320\330\0124\310"
  95      E7248F9C 
  95      32F245BB 
  95      68D0D80A 
  95      34C8
  96 00d6 49990FD8 		.ascii	"I\231\017\330M\377\024\341\346H\027\303#\012\303\357"
  96      4DFF14E1 
  96      E64817C3 
  96      230AC3EF 
  97 00e6 E0E6F5EA 		.ascii	"\340\346\365\352\343\026\243xH\327\022CT\262\242\273"
  97      E316A378 
  97      48D71243 
  97      54B2A2BB 
  98 00f6 4D338274 		.ascii	"M3\202tX\376\000\302\205\000\254\303\247\334\224}\026"
  98      58FE00C2 
  98      8500ACC3 
  98      A7DC947D 
  98      16
  99 0107 6A26BAFE 		.ascii	"j&\272\376Te\300B\037)5A\026vxlZ\361*d.\013\365\240"
  99      5465C042 
  99      1F293541 
  99      1676786C 
  99      5AF12A64 
 100 011f 27C29408 		.ascii	"'\302\224\010\310\247\254\354%\0105\337\262\347-\007"
 100      C8A7ACEC 
 100      250835DF 
 100      B2E72D07 
 101 012f 22A68C55 		.ascii	"\"\246\214U!{\302\275\222FUE\361\213\006\374z\312m\214"
 101      217BC2BD 
 101      92465545 
 101      F18B06FC 
 101      7ACA6D8C 
 102 0143 4249E6D2 		.ascii	"BI\346\322r\214\032#p\254\322\036\013;\367`\227\240"
 102      728C1A23 
 102      70ACD21E 
 102      0B3BF760 
 102      97A0
 103 0155 5D9E4A23 		.ascii	"]\236J#\346\233s\014\275\013\215)_\217\220\256\335\017"
 103      E69B730C 
 103      BD0B8D29 
 103      5F8F90AE 
 103      DD0F
 104 0167 7BE77223 		.ascii	"{\347r#\254 \352i\351\272n\264\276D\322X\210.\032K\211"
 104      AC20EA69 
 104      E9BA6EB4 
ARM GAS  /tmp/ccoh7056.s 			page 8


 104      BE44D258 
 104      882E1A4B 
 105 017c E595A461 		.ascii	"\345\225\244a&l;\0217&fB\223\2415#\276j\231\272\011"
 105      266C3B11 
 105      37266642 
 105      93A13523 
 105      BE6A99BA 
 106 0191 3FE3177C 		.ascii	"?\343\027|1"
 106      31
 107              		.text
 108              		.section	.gnu.lto_nvicClearPending.3357dcdb7950e9a3,"",%progbits
 109 0000 789C9552 		.ascii	"x\234\225R=H\303@\024~\357\2224\272(\202\213\223\245"
 109      3D48C340 
 109      147EEF92 
 109      34BA2882 
 109      8B93A5
 110 0013 8E6282E8 		.ascii	"\216b\202\350 8\21089\024D*\350X3\324\200m\305\212\270"
 110      20388838 
 110      3914442A 
 110      E85833D4 
 110      806DC58A 
 111 0028 F5FA3339 		.ascii	"\365\37239\225\202\213.U\227\"U\301\251\330\245tr\351"
 111      95828B2E 
 111      55972255 
 111      C1A9D8A5 
 111      7472E9
 112 003b D05DA188 		.ascii	"\320]\241\210Bqp\223:\210\361\335\245\011\352\324>\222"
 112      42717093 
 112      3A88F1DD 
 112      A509EAD4 
 112      3E92
 113 004d BB77DFF7 		.ascii	"\273w\337\367\276\357~\0310\370\037\343\364\237\020"
 113      BEEF7E19 
 113      30F81FE3 
 113      F49F10
 114 005c 3C2F060A 		.ascii	"</\006\012 \245\310\020i\200\220f\230\336\022)\004B"
 114      20A5C810 
 114      69809066 
 114      98DE1229 
 114      0442
 115 006e 70CE79B1 		.ascii	"p\316y\261\375\332\255N\034\227\262\005\376\3558h\013"
 115      FDDAAD4E 
 115      1C97B205 
 115      FEED3868 
 115      0B
 116 007f CA42D8A4 		.ascii	"\312B\330\244\014\203\262c\352_wW\306[/k\017<_w\234"
 116      0C83B263 
 116      EA5F7757 
 116      C65B2F6B 
 116      0F3C5F77 
 117 0094 251B95BE 		.ascii	"%\033\225\2764\005\376\361K\2432\230\305\376dwe>\\\342"
 117      3405FEF1 
 117      4BA33298 
 117      C5FE6477 
 117      653E5CE2 
 118 00a8 5F8EA390 		.ascii	"_\216\243\220\254\317\251\006\327\024\371\323 [\272"
 118      ACCFA906 
ARM GAS  /tmp/ccoh7056.s 			page 9


 118      D714F9D3 
 118      205BBA
 119 00b7 65F5B6E3 		.ascii	"e\365\266\343<\326*\317\035\034\033B\240\223c\030G:"
 119      3CD62ACF 
 119      1D1C1B42 
 119      A0936318 
 119      473A
 120 00c9 6F12AB10 		.ascii	"o\022\253\020\305K\014\201F\0035 \032\035\244'!yZ^P"
 120      C54B0C81 
 120      46033520 
 120      1A1DA427 
 120      21795A5E 
 121 00de BA534464 		.ascii	"\272SDd\273!\256HiB\266\372\331]\210b\0315\210!\212"
 121      BB21AE48 
 121      6942B6FA 
 121      D95D8862 
 121      19358821 
 122 00f3 59813772 		.ascii	"Y\2017r|\204J\232\220\273\311]\240G*1d\202W5\311e\337"
 122      7C844A9A 
 122      90BBC95D 
 122      A0472A31 
 122      64825735 
 123 010a 736F3EA7 		.ascii	"so>\247\306\204\035\011j\212\007i\204\312\362I\327\352"
 123      C6841D09 
 123      6A8A0769 
 123      84CAF249 
 123      D7EA
 124 011c DA670212 		.ascii	"\332g\002\022FQ\3233\272\367\215t\242\005\330Xu\221"
 124      4651D333 
 124      BAF78D74 
 124      A205D858 
 124      7591
 125 012e 19A8F07C 		.ascii	"\031\250\360|\206/\332\250M\303\225HGm\014\234\301)"
 125      862FDAA8 
 125      4DC39548 
 125      476D0C9C 
 125      C129
 126 0140 59E8DE82 		.ascii	"Y\350\336\202el\367\372\230\334\263\233\351\000-\310"
 126      656CF7FA 
 126      98DCB39B 
 126      E9002DC8 
 127 0150 B43B53AE 		.ascii	"\264;S\256\231\027\021\3610\305\0336\014\303\364\277"
 127      991711F1 
 127      30C51B36 
 127      0CC3F4BF 
 128 0160 64CADC89 		.ascii	"d\312\334\211\356\232{\311\375\203\224i%\343\361d\302"
 128      EE9A7BC9 
 128      FD839469 
 128      25E3F164 
 128      C2
 129 0171 5C5E0FAF 		.ascii	"\\^\017\257\204\217\314\304\241m\031\026(\011c\356\007"
 129      848FCCC4 
 129      A16D1916 
 129      280963EE 
 129      07
 130 0182 6B90A018 		.ascii	"k\220\240\030"
 131              		.text
ARM GAS  /tmp/ccoh7056.s 			page 10


 132              		.section	.gnu.lto_.symbol_nodes.3357dcdb7950e9a3,"",%progbits
 133 0000 789C4DC8 		.ascii	"x\234M\310\271\015\2000\024\004\321\375c\273J\212Y\207"
 133      B90D8030 
 133      1404D1FD 
 133      63BB4A8A 
 133      5987
 134 0012 84E6AA80 		.ascii	"\204\346\252\200~\010\211\251\004\021\200d&{\203\320"
 134      7E0889A9 
 134      04118064 
 134      267B83D0 
 135 0022 A02F1A96 		.ascii	"\240/\032\226\332!\331\347\030L8~\2341\235eC\331\211"
 135      DA21D9E7 
 135      184C387E 
 135      9C319D65 
 135      43D989
 136 0035 05A77E63 		.ascii	"\005\247~c\305\371e\255\221(\332\257;\364\000\366\305"
 136      C5F965AD 
 136      9128DAAF 
 136      3BF400F6 
 136      C5
 137 0046 1B4A     		.ascii	"\033J"
 138              		.text
 139              		.section	.gnu.lto_.refs.3357dcdb7950e9a3,"",%progbits
 140 0000 789C6362 		.ascii	"x\234cb`b`e\200\000F&&f\006\000\000\253\000\022"
 140      60626065 
 140      80004626 
 140      26660600 
 140      00AB0012 
 141              		.text
 142              		.section	.gnu.lto_.decls.3357dcdb7950e9a3,"",%progbits
 143 0000 789CAD58 		.ascii	"x\234\255X}l\024\307\025\237\331;c_q\035\022\245)\264"
 143      7D6C14C7 
 143      159FD93B 
 143      635F711D 
 143      12A529B4 
 144 0014 D0385113 		.ascii	"\3208Q\023UQ\352\243@\025\372O\2049\233\372\376pb\335"
 144      5551EAA3 
 144      4015FA4F 
 144      84399BFA 
 144      FE7062DD 
 145 0028 01AA1489 		.ascii	"\001\252\024\211cs\\jK\366\031\235\317m\370o\215\035"
 145      63735C6A 
 145      4BF6199D 
 145      CF6DF86F 
 145      8D1D
 146 003a 4A53506C 		.ascii	"JSPl\276\352\006\342\034\211\335\004\232\006\327\006"
 146      BEEA06E2 
 146      1C89DD04 
 146      9A06D706 
 147 004a 72B11CB8 		.ascii	"r\261\034\270\232$XI?(D\204\0002\327\250\037\024U\201"
 147      9A245849 
 147      3F284484 
 147      0032D7A8 
 147      1F145581 
 148 005e 4424ADAA 		.ascii	"D$\255\252\206\353\233\267_3{;\366n\324\225\347y\366"
 148      86EB9BB7 
 148      5F337B3B 
ARM GAS  /tmp/ccoh7056.s 			page 11


 148      F66ED495 
 148      E779F6
 149 0071 F6BDDFFC 		.ascii	"\366\275\337\374~o\336\316\314\235B\0242J\011)\301\365"
 149      7E6FDECE 
 149      CC9D4214 
 149      324A0929 
 149      C1F5
 150 0083 D3AF13D2 		.ascii	"\323\257\023\322\251\020RA\010y\230\330\027\273?\010"
 150      A9105241 
 150      087998D8 
 150      17BB3F08 
 151 0093 6D0C5A1E 		.ascii	"m\014Z\036\332\011hS\320 \214\274K\304\213\371UC;\013"
 151      DA096853 
 151      D0208CBC 
 151      4BC48BF9 
 151      55433B0B 
 152 00a7 ADC6E833 		.ascii	"\255\306\3503\277JhA\003\3533h\237B;\007\355\"\264\017"
 152      BF4A6841 
 152      03EB3368 
 152      9F423B07 
 152      ED22B40F 
 153 00bb A005A0DD 		.ascii	"\240\005\240\335\204v\015\332\005#\206a\001\035r\004"
 153      84760DDA 
 153      05238661 
 153      011D7204 
 154 00cb DAAF1DE3 		.ascii	"\332\257\035\3430.\363\035\343\360c\230\270\347\270"
 154      302EF31D 
 154      E3F06398 
 154      B8E7B8
 155 00da F118D687 		.ascii	"\361\030\326\207\3068\324\300`\377\217;\260\363\006"
 155      C638D4C0 
 155      60FF8F3B 
 155      B0F306
 156 00e9 F63C2A6A 		.ascii	"\366<*j\030\206\266\032:\021h\247\014\334\257A\277\222"
 156      1886B61A 
 156      3A1168A7 
 156      0CDCAF41 
 156      BF92
 157 00fb EACF1751 		.ascii	"\352\317\027Q}\214\274\221\237\200\221\237\011h\223"
 157      7D8CBC91 
 157      9F80919F 
 157      096893
 158 010a 8E31580E 		.ascii	"\2161X\016\253$\374y\356\324\310\0115b\330\377\202\003"
 158      AB24FC79 
 158      EED4C809 
 158      3562D8FF 
 158      8203
 159 011c EB6E32A4 		.ascii	"\353n2\244\345\012\305\221\241w\251\266K\373o\251\324"
 159      E50AC591 
 159      A177A9B6 
 159      4BFB6FA9 
 159      D4
 160 012d 1B247791 		.ascii	"\033$w\221\275\032\\\271m\232F\263*}\370+\344\007T\245"
 160      BD1A5CB9 
 160      6D9A46B3 
 160      2A7DF82B 
 160      E40754A5 
ARM GAS  /tmp/ccoh7056.s 			page 12


 161 0141 3521528B 		.ascii	"5!R\213\235\352\020\216D\210J_\240wa/\200\334I\210l"
 161      9DEA108E 
 161      44884A5F 
 161      A077612F 
 161      80DC4988 
 162 0156 D7B4AD2C 		.ascii	"\327\264\255,\260i\032\210\271E\335G\2065\255\277x\356"
 162      B0691A88 
 162      B945DD47 
 162      8635ADBF 
 162      78EE
 163 0168 D08E0735 		.ascii	"\320\216\0075\255J\245\3034\004\261\217R\362\0009\004"
 163      AD4AA5C3 
 163      3404B18F 
 163      52F20039 
 163      04
 164 0179 63F6437C 		.ascii	"c\366C|\035%\345\227w\350\322\266\311\357!\364\313\010"
 164      1D25E597 
 164      77E8D2B6 
 164      C9EF21F4 
 164      CB08
 165 018b BD935220 		.ascii	"\275\223R \372\022}\300\000Rie\210\007\306{\323\201"
 165      FA127DC0 
 165      00526965 
 165      8807C67B 
 165      D381
 166 019d A1E163A3 		.ascii	"\241\341c\243\303*\3736\342\327\335\310\206.\016;\353"
 166      C32AFB36 
 166      E2D7DDC8 
 166      862E0E3B 
 166      EB
 167 01ae 02168042 		.ascii	"\002\026\200B\006\035\214\276I^\324\264]0\005\303\213"
 167      061D8CBE 
 167      495ED4B4 
 167      5D3005C3 
 167      8B
 168 01bf B49C62A6 		.ascii	"\264\234b\246\344\020z\035\244w\273j5\260\365P\355\365"
 168      E4107A1D 
 168      A477BB6A 
 168      35B0F550 
 168      EDF5
 169 01d1 549319F6 		.ascii	"T\223\031\366+/a\204\334OF\330\024\357\324\236Z@q\206"
 169      2B2F6184 
 169      DC4F46D8 
 169      14EFD49E 
 169      5A407186 
 170 01e5 89112548 		.ascii	"\211\021%H}\205*\345\265R8\372vu\177O\261Tz\276\326"
 170      7D852AE5 
 170      B55238FA 
 170      76757F4F 
 170      B1547ABE 
 171 01fa 7BA18C8B 		.ascii	"{\241\214\213\205\242\363p\344e\3245/\332nS\234J_\005"
 171      85A2F370 
 171      E465D435 
 171      2FDA6E53 
 171      9C4A5F05 
 172 020e 3E2A1DFB 		.ascii	">*\035\373B\342\306\234\342\216\271\212\273i\211\323"
 172      42E2C69C 
ARM GAS  /tmp/ccoh7056.s 			page 13


 172      E28EB98A 
 172      BB6989D3 
 173 021e AB5B2153 		.ascii	"\253[!S\356\264\270\234_A\217\274\247\251\372\334V3"
 173      EEB4B89C 
 173      5F418FBC 
 173      A7A9FADC 
 173      5633
 174 0230 8A6AE608 		.ascii	"\212j\346\010\223\250\311;\325\274\356\252f\342\264"
 174      93A8C93B 
 174      D5BCEEAA 
 174      66E2B4
 175 023f AD661CD5 		.ascii	"\255f\034\325\374\335]\315\2003\311'\276\020\255\023"
 175      FCDD5DCD 
 175      8033C927 
 175      BE10AD13 
 176 024f 4E5A27CB 		.ascii	"NZ'\313i\025\373\213\037?\363~\037\035\350\315Mk7\330"
 176      6915FB8B 
 176      1F3FF37E 
 176      1F1DE8CD 
 176      4D6B37D8 
 177 0263 0BE3BD8C 		.ascii	"\013\343\275\214N\211e4\237<m/\012\306\012Q\034),\034"
 177      4E896534 
 177      9F3C6D2F 
 177      0AC60A51 
 177      1C292C1C 
 178 0277 B457882A 		.ascii	"\264W\210*\023\202-*\270B\2605F\261\234\265\205\013"
 178      13822D2A 
 178      B842B035 
 178      46B19CB5 
 178      850B
 179 0289 DD7D557A 		.ascii	"\335}Uz\232\336\007vZ\227\213\217\364\276\331+\341\222"
 179      9ADE0776 
 179      5A978B8F 
 179      F4BED92B 
 179      E192
 180 029b BD5F715B 		.ascii	"\275_q[\256\020`\366P\231\306\267\350|\033BxAr\2128"
 180      AE1060F6 
 180      5099C6B7 
 180      E87C1B42 
 180      7841728A 
 181 02b0 77A6D33B 		.ascii	"w\246\323;b\222\357%\007\2653g\212O]\037\244\333s[\373"
 181      6292EF25 
 181      07B53367 
 181      8A4F5D1F 
 181      A4DB735B 
 182 02c5 B55BA512 		.ascii	"\265[\245\022\275\235\364\263\024\327\016\326\250\364"
 182      BD9DF4B3 
 182      14D70ED6 
 182      A8F4
 183 02d3 6D20600C 		.ascii	"m `\014~\225\232\243/\301P\336mZ\356\246\322\337\003"
 183      7E959AA3 
 183      2FC150DE 
 183      6D5AEEA6 
 183      D2DF03
 184 02e6 22BB308F 		.ascii	"\"\2730\217\2321\003\350!\223\365\007.\031\325!\273"
 184      9A3103E8 
 184      2193F507 
ARM GAS  /tmp/ccoh7056.s 			page 14


 184      2E19D521 
 184      BB
 185 02f7 B3589062 		.ascii	"\263X\220bz\201\332\303\212\343\255r\262P\310\270\221"
 185      7A81DAC3 
 185      8AE3AD72 
 185      B250C8B8 
 185      91
 186 0308 FB6F90DF 		.ascii	"\373o\220\337*\317\261%\377wHK(\213;\310\000J\342v\215"
 186      2ACFB125 
 186      FF77484B 
 186      288B3BC8 
 186      004AE276 
 187 031d 5CD142EA 		.ascii	"\\\321B\352[L\354\215\343\374\3655\270q\234\243w\000"
 187      5B4CEC8D 
 187      E3FCF535 
 187      B8719CA3 
 187      7700
 188 032f F88E8098 		.ascii	"\370\216\200\230m\017@L\301y\010\326\303\364j+\014\\"
 188      6D0F404C 
 188      C17908D6 
 188      C3F46A2B 
 188      0C5C
 189 0341 AAD682FA 		.ascii	"\252\326\202\372\347\304e\372\214\353\036\222\323\372"
 189      E7C465FA 
 189      8CEB1E92 
 189      D3FA
 190 034f 7A0A7B2F 		.ascii	"z\012{/\355\241Zn\312\232/\243\254{g\335\370T:\202\245"
 190      EDA15A6E 
 190      CA9A2FA3 
 190      AC7B67DD 
 190      F8543A82 
 191 0364 3AF7CE64 		.ascii	":\367\316dDk\212\031^+L;\233\302a{\332\235n*\275\344"
 191      446B8A19 
 191      5E2B4C3B 
 191      9BC2617B 
 191      DA9D6E2A 
 192 037a 7BDA2F4B 		.ascii	"{\332/K\246\275R\230\366\313\366\264\357\303\264\263"
 192      A6BD5298 
 192      F6CBF6B4 
 192      EFC3B4B3 
 193 038a 6CB9B2B0 		.ascii	"l\271\262\260pL\320\032k7g)\204|\357{\254_\225\011\232"
 193      704CD01A 
 193      6B376729 
 193      847CEF7B 
 193      AC5F9509 
 194 039f 67C66F34 		.ascii	"g\306o4\006\276\342[PQ\"\350\253\304T\260\277L\2010"
 194      06BEE25B 
 194      505122E8 
 194      ABC454B0 
 194      BF4C8130 
 195 03b3 AC90D272 		.ascii	"\254\220\322r\005P\004\203\240@\245\037\0005\205\214"
 195      05500483 
 195      A040A51F 
 195      0035858C 
 196 03c3 784A8746 		.ascii	"xJ\207F\345\371x\026\321\256 \332aO\324r24\340v\200"
 196      E5F97816 
 196      D1AE20DA 
ARM GAS  /tmp/ccoh7056.s 			page 15


 196      614FD472 
 196      3234E076 
 197 03d8 E336EE8D 		.ascii	"\3436\356\215\233\"\3476\304q\313{\343&C\003n\243\034"
 197      9B22E736 
 197      C471CB7B 
 197      E3264303 
 197      6EA31C
 198 03eb B7296FDC 		.ascii	"\267)o\334\002rnc\034\267\323\336\270\311\320\200\333"
 198      02726E63 
 198      1CB7D3DE 
 198      B8C9D080 
 198      DB
 199 03fc 518EDB9F 		.ascii	"Q\216\333\237\274q\013\312\271\035\237\245\306kL\200"
 199      BC710BCA 
 199      B91D9FA5 
 199      C66B4C80 
 200 040c 22354AF6 		.ascii	"\"5J\366c\337E\376\211\244\310\037\262\212\374|\231"
 200      63DF45FE 
 200      89A4C81F 
 200      B28AFC7C 
 200      99
 201 041d 06715C33 		.ascii	"\006q\\3%2\021\220\222\374c\243\033\355\015\307X\347"
 201      25321190 
 201      92FC63A3 
 201      1BED0DC7 
 201      58E7
 202 042f D88E3CEB 		.ascii	"\330\216<\353\366\015\337\035\376qQ\201u\232\333\302"
 202      F60DDF1D 
 202      FE715181 
 202      759ADBC2 
 203 043f 65012AFD 		.ascii	"e\001*\375\027.\214T\\\030\255\255\330\332\304\213\216"
 203      172E8C54 
 203      5C18ADAD 
 203      D8DAC48B 
 203      8E
 204 0450 B5DE03B6 		.ascii	"\265\336\003\266\365mch%n\032\377\301\243\340\325\200"
 204      F56D6368 
 204      256E1AFF 
 204      C1A3E0D5 
 204      80
 205 0461 F3DB06B5 		.ascii	"\363\333\006\265d[\367\263q\361\343kf\3766\223\327\015"
 205      645BF7B3 
 205      71F1E36B 
 205      66FE3693 
 205      D70D
 206 0473 1D80DFC5 		.ascii	"\035\200\337\305\377\315U\206\323O\245\237\373\256\214"
 206      FFCD5586 
 206      D34FA59F 
 206      FBAE8C
 207 0482 5B92CAB8 		.ascii	"[\222\312\270N\005\346\267\354\005\375\223\262J\021"
 207      4E05E6B7 
 207      EC05FD93 
 207      B24A11
 208 0491 7998E53E 		.ascii	"y\230\345>OZ\356\2603\177\264\217\356\322\264\351\245"
 208      4F5AEEB0 
 208      337FB48F 
 208      EED2B4E9 
ARM GAS  /tmp/ccoh7056.s 			page 16


 208      A5
 209 04a2 B2A23F68 		.ascii	"\262\242?hm\304\375w\032\024z\024\277\332\266*\356\332"
 209      6DC4FD77 
 209      1A147A14 
 209      BFDAB62A 
 209      EEDA
 210 04b4 7A2BACB2 		.ascii	"z+\254\262\377\264L\214cdSY\245\254\356{\013\223\227"
 210      FFB44C8C 
 210      63645359 
 210      A5ACEE7B 
 210      0B9397
 211 04c7 AAD95A70 		.ascii	"\252\331Zp\021\013\246\344\004\024X\231\271Y\354\202"
 211      110BA6E4 
 211      04145899 
 211      B959EC82 
 212 04d7 E676F1C7 		.ascii	"\346v\361\307\017\225\276\217\305\177\201\336\003v\006"
 212      0F95BE8F 
 212      C57F81DE 
 212      037606
 213 04e6 ED8768FF 		.ascii	"\355\207h\377\202\366oh\257\242\275\206\366\237h?B{"
 213      82F66F68 
 213      AFA2BD86 
 213      F69F683F 
 213      427B
 214 04f8 03ED4DB4 		.ascii	"\003\355M\264\232\302l\037X\353\222\245\360\254}x\235"
 214      9AC26C1F 
 214      58EB92A5 
 214      F0AC7D78 
 214      9D
 215 0509 EB1456B4 		.ascii	"\353\024V\264^\247\035\366\373T\2702C\341\273\312O\024"
 215      5EA71DF6 
 215      FB54B832 
 215      43E1BBCA 
 215      4F14
 216 051b 7602EB0B 		.ascii	"v\002\353\013\316y\002s\2000\012O+\316\003\330\014\036"
 216      CE790273 
 216      80300A4F 
 216      2BCE03D8 
 216      0C1E
 217 052d C0D8E773 		.ascii	"\300\330\347s\034\300\366\364\026\366\316\354Y\304\016"
 217      1CC0F6F4 
 217      16F6CEEC 
 217      59C40E
 218 053c 60D6B1AB 		.ascii	"`\326\261\253\360\1778v)d'Ja\024f\231f!\265b\315\354"
 218      F07F3876 
 218      2964274A 
 218      61146699 
 218      6621B562 
 219 0552 9BE16A66 		.ascii	"\233\341jf\267o\260Z\001l\220\007\033\364\002V%g\366"
 219      B76FB05A 
 219      016C9007 
 219      1BF40256 
 219      2567F6
 220 0565 2C0FF69C 		.ascii	",\017\366\234o0\221\331\001\036\354E/`\013\344\314\206"
 220      6F3091D9 
 220      011EEC45 
 220      2F600BE4 
ARM GAS  /tmp/ccoh7056.s 			page 17


 220      CC86
 221 0577 78B0977C 		.ascii	"x\260\227|\203\361\314\340l\261\201\337\254T\372\231"
 221      83F1CCE0 
 221      6CB181DF 
 221      AC54FA99 
 222 0587 BDF86C34 		.ascii	"\275\370l4\303\2531@\262\372:\274T\272\337\367\372t"
 222      C3AB3140 
 222      B2FA3ABC 
 222      54BADFF7 
 222      FA74
 223 0599 40B23E59 		.ascii	"@\262>Y\257\234\340\305~\014r\212\026H\030\335\205\362"
 223      AF9CE0C5 
 223      7E0C728A 
 223      164818DD 
 223      85F2
 224 05ab 0C8EF119 		.ascii	"\014\216\361\031<\342%\203\265\362\271=\312\203\035"
 224      3CE22583 
 224      B5F2B93D 
 224      CA831D
 225 05ba F302F62D 		.ascii	"\363\002\366-9\263\343<\330\204o0\221Y\236\007;\351"
 225      39B3E33C 
 225      D8846F30 
 225      91599E07 
 225      3BE9
 226 05cc 056CA99C 		.ascii	"\005l\251\234\331\004\017\366\246o0\221\331$\017\366"
 226      D9040FF6 
 226      A66F3091 
 226      D9240FF6 
 227 05dc 8E17B095 		.ascii	"\216\027\260\225rf'x\260?\372\006\343\230\355\351)\234"
 227      72662778 
 227      B03FFA06 
 227      E398EDE9 
 227      299C
 228 05ee D9609D40 		.ascii	"\331`\235@s\253X\335\356T\254\302]%\276\351\202\033"
 228      73AB58DD 
 228      EE54ACC2 
 228      5D25BEE9 
 228      821B
 229 0600 B7693BDC 		.ascii	"\267i;\334T\372\252\3577\342\210\344\215\020\017#G\354"
 229      54FAAAEF 
 229      37E288E4 
 229      8D100F23 
 229      47EC
 230 0612 37E23DA7 		.ascii	"7\342=\247l\201\204\321]%\311!l\017g\365\0342\261\012"
 230      6C8184D1 
 230      5D25C921 
 230      6C0F67F5 
 230      1C32B10A 
 231 0626 B9E02587 		.ascii	"\271\340%\207Mr\260\367x\260\313\276\301\304\0119\277"
 231      4D72B0F7 
 231      78B0CBBE 
 231      C1C40939 
 231      BF
 232 0637 41FC4AC0 		.ascii	"A\374J\300\315\207f\035Q\026\360\023Rv\210r\270\251"
 232      CD87661D 
 232      5116F013 
 232      52768872 
ARM GAS  /tmp/ccoh7056.s 			page 18


 232      B8A9
 233 0649 F435DF13 		.ascii	"\3645\337\023\222\227L\210\3753\026\357\305N\336N\331"
 233      92974C88 
 233      FD3316EF 
 233      C54EDE4E 
 233      D9
 234 065a 220BA3DB 		.ascii	"\"\013\243\333\"KbO\341\202\\w\316\202\272s6\335N7\225"
 234      224B624F 
 234      E1825C77 
 234      CE82BA73 
 234      36DD4E37 
 235 066f 4EFAD6FD 		.ascii	"N\372\326\375\206DwP\320\375\206\255\373\257N\335\""
 235      86447750 
 235      D0FD86AD 
 235      FBAF4EDD 
 235      22
 236 0680 0BA3BB51 		.ascii	"\013\243\273Q\242\033N5\0277\260\332aLU\372g\374\311"
 236      A21B4E35 
 236      1737B0DA 
 236      614C55FA 
 236      67FCC9
 237 0693 762EB0CD 		.ascii	"v.\260\315\222\342\201\245\3412\2774\\\363R\211\333"
 237      92E281A5 
 237      E132BF34 
 237      5CF35289 
 237      DB
 238 06a4 DD7E2370 		.ascii	"\335~#p\273\370\003\231J\177\246\260\023\323\016<P>"
 238      BBF80399 
 238      4A7FA6B0 
 238      13D30E3C 
 238      503E
 239 06b6 837600ED 		.ascii	"\203v\000\355n\264{\321\376\034\355/\320\016\241\315"
 239      6EB47BD1 
 239      FE1CED2F 
 239      D00EA1CD 
 240 06c6 A17D01ED 		.ascii	"\241}\001\3550\332_\242}\031\355a\264\257\240\375\015"
 240      30DA5FA2 
 240      7D19ED61 
 240      B4AFA0FD 
 240      0D
 241 06d7 DA71B4C7 		.ascii	"\332q\264\307\320N\240=\211\266\340\345\010\273Mq?\302"
 241      D04EA03D 
 241      89B6E0E5 
 241      08BB4D71 
 241      3FC2
 242 06e9 EABF3ECB 		.ascii	"\352\277>\313\242\246\244Q\3547IY\324);\212\324\325"
 242      A2A6A451 
 242      EC374959 
 242      D4293B8A 
 242      D4D5
 243 06fb D585ADBF 		.ascii	"\325\205\255\277\316\256p\253\332\036\336\334\231\311"
 243      CEAE70AB 
 243      DA1EDEDC 
 243      99C9
 244 0709 7685939D 		.ascii	"v\205\223\235\035\035\235\351p}\2549\322\374d8\375\243"
 244      1D1D9DE9 
 244      707DAC39 
ARM GAS  /tmp/ccoh7056.s 			page 19


 244      D2FC6438 
 244      FDA3
 245 071b B6645D92 		.ascii	"\266d]\222,\011wwe\302m\351d{\367\246T8\235\372q{\333"
 245      2C097777 
 245      65C26DE9 
 245      647BF7A6 
 245      54389DFA 
 246 0732 E3E1AEEC 		.ascii	"\343\341\256\354\246\266t\266\256\225Tu\303\377\345"
 246      A6B674B6 
 246      AE955475 
 246      C3FFE5
 247 0741 CB12D979 		.ascii	"\313\022\331y\337\177d]m\204|\333\315\273CM\266\266"
 247      DF7F645D 
 247      6D847CDB 
 247      CDBB434D 
 247      B6B6
 248 0753 A553E1C4 		.ascii	"\245S\341\304\246\324\023jw{6\221\335\2629\325\005\321"
 248      A6D4136A 
 248      777B3691 
 248      DDB239D5 
 248      05D1
 249 0765 5F4A24CC 		.ascii	"_J$\314\370\005l\270\306\264\372x{j}*\231\355\314\320"
 249      F8056CB8 
 249      C6B4FA78 
 249      7B6A7D2A 
 249      99EDCCD0 
 250 0779 747073A6 		.ascii	"tps\246\255\363v\366yC[\227\375`1\373$\236\312\306\267"
 250      ADF376F6 
 250      79435B97 
 250      FD6031FB 
 250      249ECAC6 
 251 078e 7465531D 		.ascii	"teS\035MjzS{*\323\002\256\231\266\354\226\312V\375\036"
 251      4D6A7A53 
 251      7B2AD302 
 251      AE99B6EC 
 251      96CA56FD 
 252 07a3 E122ED29 		.ascii	"\341\"\355)5\323\222J\003\327\037\336\353P\235\311Z"
 252      35D3924A 
 252      03D71FDE 
 252      EB509DC9 
 252      5A
 253 07b4 2C93AD5D 		.ascii	",\223\255][\030\233`\262U\315\204\222\255\000\334\244"
 253      5B189B60 
 253      B255CD84 
 253      92AD00DC 
 253      A4
 254 07c5 B667AB12 		.ascii	"\266g\253\022\211'\272\323\311D\342"
 254      8927BAD3 
 254      C944E2
 255 07d0 CB66A7EE 		.ascii	"\313f\247\356\241\025\313\227-\231mx\362\240c\230\324"
 255      A115CB97 
 255      2D996D78 
 255      F2A06398 
 255      D4
 256 07e1 93D970A4 		.ascii	"\223\331p\2449\036\215\333\243ufR\211d\307\012\0300"
 256      391E8DDB 
 256      A3756652 
ARM GAS  /tmp/ccoh7056.s 			page 20


 256      8964C70A 
 256      1830
 257 07f3 F4C8FA68 		.ascii	"\364\310\372h$\261\026\222\021\214\306\033c\241X#\330"
 257      24B11692 
 257      118CC61B 
 257      63A15823 
 257      D8
 258 0804 F58D0D4B 		.ascii	"\365\215\015K\203\321Hc\254*\246\337}\007\036\266\330"
 258      83D14863 
 258      AC2AA6DF 
 258      7D071EB6 
 258      D8
 259 0815 0F97C143 		.ascii	"\017\227\301C\356vy0Z\277\332\276]Q\311\022\2722\221"
 259      EE767930 
 259      5ABFDABE 
 259      5D51C912 
 259      BA3291
 260 0828 0DE9A985 		.ascii	"\015\351\251\205\236\022m\261\036\1777\030_\033\215"
 260      9E126DB1 
 260      1E7F3718 
 260      5F1B8D
 261 0837 55C523AB 		.ascii	"U\305#\253q\330\212H\313\272h\003\000\306c\301\365k"
 261      71D88A48 
 261      CBBA6803 
 261      00C663C1 
 261      F56B
 262 0849 1F8D55D4 		.ascii	"\037\215U\324Gc\221X \016-\302\3767\265T\304\233\330"
 262      47639158 
 262      200E2DC2 
 262      FE37B554 
 262      C49BD8
 263 085c C3C81A30 		.ascii	"\303\310\0320M\3144\200\251hn^S\037\013\256f\246\036"
 263      4DCC3480 
 263      A9686E5E 
 263      531F0BAE 
 263      66A61E
 264 086f EE032D6B 		.ascii	"\356\003-kb\201\006h\365\015\261 <\213\001\343\372\030"
 264      62810668 
 264      F50DB120 
 264      3C8B01E3 
 264      FA18
 265 0881 80D74762 		.ascii	"\200\327Gb\377\003\035!\244\214"
 265      FF031D21 
 265      A48C
 266              		.text
 267              		.section	.gnu.lto_.symtab.3357dcdb7950e9a3,"",%progbits
 268 0000 6E766963 		.ascii	"nvicEnableVector\000\000\000\000\000\000\000\000\000"
 268      456E6162 
 268      6C655665 
 268      63746F72 
 268      00000000 
 269 0019 000000A1 		.ascii	"\000\000\000\241\000\000\000nvicDisableVector\000\000"
 269      0000006E 
 269      76696344 
 269      69736162 
 269      6C655665 
 270 0033 00000000 		.ascii	"\000\000\000\000\000\000\000\000\000\000\262\000\000"
ARM GAS  /tmp/ccoh7056.s 			page 21


 270      00000000 
 270      0000B200 
 270      00
 271 0040 006E7669 		.ascii	"\000nvicSetSystemHandlerPriority\000\000\000\000\000"
 271      63536574 
 271      53797374 
 271      656D4861 
 271      6E646C65 
 272 0062 00000000 		.ascii	"\000\000\000\000\000\000\000\270\000\000\000nvicCle"
 272      000000B8 
 272      0000006E 
 272      76696343 
 272      6C65
 273 0074 61725065 		.ascii	"arPending\000\000\000\000\000\000\000\000\000\000\000"
 273      6E64696E 
 273      67000000 
 273      00000000 
 273      00000000 
 274 0088 00BE0000 		.ascii	"\000\276\000\000\000chSysHalt\000\000\002\000\000\000"
 274      00636853 
 274      79734861 
 274      6C740000 
 274      02000000 
 275 009c 00000000 		.ascii	"\000\000\000\000\000\000\302\000\000\000"
 275      0000C200 
 275      0000
 276              		.text
 277              		.section	.gnu.lto_.opts,"",%progbits
 278 0000 272D6D63 		.ascii	"'-mcpu=cortex-m4' '-mno-thumb-interwork' '-mthumb' "
 278      70753D63 
 278      6F727465 
 278      782D6D34 
 278      2720272D 
 279 0033 272D6767 		.ascii	"'-ggdb' '-O0' '-fomit-frame-pointer' '-falign-funct"
 279      64622720 
 279      272D4F30 
 279      2720272D 
 279      666F6D69 
 280 0066 696F6E73 		.ascii	"ions=16' '-ffunction-sections' '-fdata-sections' '-"
 280      3D313627 
 280      20272D66 
 280      66756E63 
 280      74696F6E 
 281 0099 666E6F2D 		.ascii	"fno-common' '-flto'\000"
 281      636F6D6D 
 281      6F6E2720 
 281      272D666C 
 281      746F2700 
 282              		.text
 283              		.cfi_sections	.debug_frame
 284              		.section	.text.nvicEnableVector,"ax",%progbits
 285              		.align	2
 286              		.p2align 4,,15
 287              		.global	nvicEnableVector
 288              		.thumb
 289              		.thumb_func
 290              		.type	nvicEnableVector, %function
ARM GAS  /tmp/ccoh7056.s 			page 22


 291              	nvicEnableVector:
 292              	.LFB272:
 293              		.file 1 "../../../../os/hal/ports/common/ARMCMx/nvic.c"
 294              		.loc 1 57 0
 295              		.cfi_startproc
 296              		@ args = 0, pretend = 0, frame = 8
 297              		@ frame_needed = 0, uses_anonymous_args = 0
 298              		@ link register save eliminated.
 299 0000 82B0     		sub	sp, sp, #8
 300              		.cfi_def_cfa_offset 8
 301 0002 0190     		str	r0, [sp, #4]
 302 0004 0091     		str	r1, [sp]
 303              		.loc 1 63 0
 304 0006 4FF46143 		mov	r3, #57600
 305 000a CEF20003 		movt	r3, 57344
 306 000e 009A     		ldr	r2, [sp]
 307 0010 D2B2     		uxtb	r2, r2
 308 0012 1201     		lsls	r2, r2, #4
 309 0014 D2B2     		uxtb	r2, r2
 310 0016 0199     		ldr	r1, [sp, #4]
 311 0018 0B44     		add	r3, r3, r1
 312 001a 03F54073 		add	r3, r3, #768
 313 001e 1A70     		strb	r2, [r3]
 314              		.loc 1 65 0
 315 0020 4FF46143 		mov	r3, #57600
 316 0024 CEF20003 		movt	r3, 57344
 317 0028 019A     		ldr	r2, [sp, #4]
 318 002a 5209     		lsrs	r2, r2, #5
 319 002c 0199     		ldr	r1, [sp, #4]
 320 002e 01F01F01 		and	r1, r1, #31
 321 0032 0120     		movs	r0, #1
 322 0034 00FA01F1 		lsl	r1, r0, r1
 323 0038 6032     		adds	r2, r2, #96
 324 003a 43F82210 		str	r1, [r3, r2, lsl #2]
 325              		.loc 1 66 0
 326 003e 4FF46143 		mov	r3, #57600
 327 0042 CEF20003 		movt	r3, 57344
 328 0046 019A     		ldr	r2, [sp, #4]
 329 0048 5209     		lsrs	r2, r2, #5
 330 004a 0199     		ldr	r1, [sp, #4]
 331 004c 01F01F01 		and	r1, r1, #31
 332 0050 0120     		movs	r0, #1
 333 0052 00FA01F1 		lsl	r1, r0, r1
 334 0056 43F82210 		str	r1, [r3, r2, lsl #2]
 335              		.loc 1 67 0
 336 005a 02B0     		add	sp, sp, #8
 337              		@ sp needed
 338 005c 7047     		bx	lr
 339              		.cfi_endproc
 340              	.LFE272:
 341              		.size	nvicEnableVector, .-nvicEnableVector
 342 005e 00BF     		.section	.text.nvicDisableVector,"ax",%progbits
 343              		.align	2
 344              		.p2align 4,,15
 345              		.global	nvicDisableVector
 346              		.thumb
 347              		.thumb_func
ARM GAS  /tmp/ccoh7056.s 			page 23


 348              		.type	nvicDisableVector, %function
 349              	nvicDisableVector:
 350              	.LFB273:
 351              		.loc 1 74 0
 352              		.cfi_startproc
 353              		@ args = 0, pretend = 0, frame = 8
 354              		@ frame_needed = 0, uses_anonymous_args = 0
 355              		@ link register save eliminated.
 356 0000 82B0     		sub	sp, sp, #8
 357              		.cfi_def_cfa_offset 8
 358 0002 0190     		str	r0, [sp, #4]
 359              		.loc 1 76 0
 360 0004 4FF46143 		mov	r3, #57600
 361 0008 CEF20003 		movt	r3, 57344
 362 000c 019A     		ldr	r2, [sp, #4]
 363 000e 5209     		lsrs	r2, r2, #5
 364 0010 0199     		ldr	r1, [sp, #4]
 365 0012 01F01F01 		and	r1, r1, #31
 366 0016 0120     		movs	r0, #1
 367 0018 00FA01F1 		lsl	r1, r0, r1
 368 001c 2032     		adds	r2, r2, #32
 369 001e 43F82210 		str	r1, [r3, r2, lsl #2]
 370              		.loc 1 80 0
 371 0022 4FF46143 		mov	r3, #57600
 372 0026 CEF20003 		movt	r3, 57344
 373 002a 019A     		ldr	r2, [sp, #4]
 374 002c 1344     		add	r3, r3, r2
 375 002e 03F54073 		add	r3, r3, #768
 376 0032 0022     		movs	r2, #0
 377 0034 1A70     		strb	r2, [r3]
 378              		.loc 1 82 0
 379 0036 02B0     		add	sp, sp, #8
 380              		@ sp needed
 381 0038 7047     		bx	lr
 382              		.cfi_endproc
 383              	.LFE273:
 384              		.size	nvicDisableVector, .-nvicDisableVector
 385 003a 00BFAFF3 		.section	.text.nvicSetSystemHandlerPriority,"ax",%progbits
 385      0080
 386              		.align	2
 387              		.p2align 4,,15
 388              		.global	nvicSetSystemHandlerPriority
 389              		.thumb
 390              		.thumb_func
 391              		.type	nvicSetSystemHandlerPriority, %function
 392              	nvicSetSystemHandlerPriority:
 393              	.LFB274:
 394              		.loc 1 90 0
 395              		.cfi_startproc
 396              		@ args = 0, pretend = 0, frame = 8
 397              		@ frame_needed = 0, uses_anonymous_args = 0
 398 0000 00B5     		push	{lr}
 399              		.cfi_def_cfa_offset 4
 400              		.cfi_offset 14, -4
 401 0002 83B0     		sub	sp, sp, #12
 402              		.cfi_def_cfa_offset 16
 403 0004 0190     		str	r0, [sp, #4]
ARM GAS  /tmp/ccoh7056.s 			page 24


 404 0006 0091     		str	r1, [sp]
 405              		.loc 1 92 0
 406 0008 019B     		ldr	r3, [sp, #4]
 407 000a 0B2B     		cmp	r3, #11
 408 000c 05D9     		bls	.L4
 409              		.loc 1 92 0 is_stmt 0 discriminator 1
 410 000e 40F20000 		movw	r0, #:lower16:__func__.7432
 411 0012 C0F20000 		movt	r0, #:upper16:__func__.7432
 412 0016 FFF7FEFF 		bl	chSysHalt
 413              	.L4:
 414              		.loc 1 100 0 is_stmt 1
 415 001a 4FF46D43 		mov	r3, #60672
 416 001e CEF20003 		movt	r3, 57344
 417 0022 009A     		ldr	r2, [sp]
 418 0024 D2B2     		uxtb	r2, r2
 419 0026 1201     		lsls	r2, r2, #4
 420 0028 D2B2     		uxtb	r2, r2
 421 002a 0199     		ldr	r1, [sp, #4]
 422 002c 0B44     		add	r3, r3, r1
 423 002e 1833     		adds	r3, r3, #24
 424 0030 1A70     		strb	r2, [r3]
 425              		.loc 1 102 0
 426 0032 03B0     		add	sp, sp, #12
 427              		@ sp needed
 428 0034 5DF804FB 		ldr	pc, [sp], #4
 429              		.cfi_endproc
 430              	.LFE274:
 431              		.size	nvicSetSystemHandlerPriority, .-nvicSetSystemHandlerPriority
 432 0038 AFF30080 		.section	.text.nvicClearPending,"ax",%progbits
 432      AFF30080 
 433              		.align	2
 434              		.p2align 4,,15
 435              		.global	nvicClearPending
 436              		.thumb
 437              		.thumb_func
 438              		.type	nvicClearPending, %function
 439              	nvicClearPending:
 440              	.LFB275:
 441              		.loc 1 109 0
 442              		.cfi_startproc
 443              		@ args = 0, pretend = 0, frame = 8
 444              		@ frame_needed = 0, uses_anonymous_args = 0
 445              		@ link register save eliminated.
 446 0000 82B0     		sub	sp, sp, #8
 447              		.cfi_def_cfa_offset 8
 448 0002 0190     		str	r0, [sp, #4]
 449              		.loc 1 111 0
 450 0004 4FF46143 		mov	r3, #57600
 451 0008 CEF20003 		movt	r3, 57344
 452 000c 019A     		ldr	r2, [sp, #4]
 453 000e 5209     		lsrs	r2, r2, #5
 454 0010 0199     		ldr	r1, [sp, #4]
 455 0012 01F01F01 		and	r1, r1, #31
 456 0016 0120     		movs	r0, #1
 457 0018 00FA01F1 		lsl	r1, r0, r1
 458 001c 6032     		adds	r2, r2, #96
 459 001e 43F82210 		str	r1, [r3, r2, lsl #2]
ARM GAS  /tmp/ccoh7056.s 			page 25


 460              		.loc 1 112 0
 461 0022 02B0     		add	sp, sp, #8
 462              		@ sp needed
 463 0024 7047     		bx	lr
 464              		.cfi_endproc
 465              	.LFE275:
 466              		.size	nvicClearPending, .-nvicClearPending
 467 0026 00BFAFF3 		.section	.rodata.__func__.7432,"a",%progbits
 467      0080AFF3 
 467      0080
 468              		.align	2
 469              		.type	__func__.7432, %object
 470              		.size	__func__.7432, 29
 471              	__func__.7432:
 472 0000 6E766963 		.ascii	"nvicSetSystemHandlerPriority\000"
 472      53657453 
 472      79737465 
 472      6D48616E 
 472      646C6572 
 473 001d 000000   		.text
 474              	.Letext0:
 475              		.file 2 "/usr/include/newlib/machine/_default_types.h"
 476              		.file 3 "/usr/include/newlib/stdint.h"
 477              		.file 4 "../../../../os/rt/ports/ARMCMx/compilers/GCC/chtypes.h"
 478              		.file 5 "../../../../os/rt/include/chsystypes.h"
 479              		.file 6 "../../../../os/rt/include/chschd.h"
 480              		.file 7 "../../../../os/ext/CMSIS/include/core_cm4.h"
 481              		.file 8 "../../../../os/rt/ports/ARMCMx/chcore.h"
 482              		.file 9 "../../../../os/rt/ports/ARMCMx/chcore_v7m.h"
 483              		.file 10 "../../../../os/rt/include/chdebug.h"
 484              		.file 11 "../../../../os/rt/include/chtm.h"
 485              		.file 12 "../../../../os/rt/include/chstats.h"
 486              		.file 13 "../../../../os/rt/include/chsem.h"
 487              		.file 14 "../../../../os/rt/include/chmtx.h"