ARM GAS  /tmp/ccoh7056.s 			page 1


   1              		.syntax unified
   2              		.cpu cortex-m4
   3              		.fpu softvfp
   4              		.eabi_attribute 20, 1
   5              		.eabi_attribute 21, 1
   6              		.eabi_attribute 23, 3
   7              		.eabi_attribute 24, 1
   8              		.eabi_attribute 25, 1
   9              		.eabi_attribute 26, 1
  10              		.eabi_attribute 30, 6
  11              		.eabi_attribute 34, 1
  12              		.eabi_attribute 18, 4
  13              		.thumb
  14              		.file	"nvic.c"
  15              		.text
  16              	.Ltext0:
  17              		.section	.gnu.lto_.inline.3357dcdb7950e9a3,"",%progbits
  18 0000 789C6362 		.ascii	"x\234cb`b\300\006\002\2404\013\003\003/\017\003\003"
  18      6062C006 
  18      02A0340B 
  18      03032F0F 
  18      0303
  19 0012 93D881DD 		.ascii	"\223\330\201\335\214@\016X1#\003\007;P\210gC.L\204\211"
  19      8C400E58 
  19      31230307 
  19      3B508867 
  19      432E4C84 
  20 0027 81531048 		.ascii	"\201S\020Hr=\210\205\213p\2035\263\263\241\0123\000"
  20      723D8885 
  20      8B708335 
  20      B3B3A10A 
  20      3300
  21 0039 00194306 		.ascii	"\000\031C\006%"
  21      25
  22              		.text
  23              		.section	.gnu.lto_nvicEnableVector.3357dcdb7950e9a3,"",%progbits
  24 0000 789CCD93 		.ascii	"x\234\315\223=h\024A\024\307\337\233\375\270\275\333"
  24      3D681441 
  24      14C7DF9B 
  24      FDB8BDDB 
  25 0010 FB486161 		.ascii	"\373Haag\210\245\270k\012QH!be\021\010\022A\313\313"
  25      6788A5B8 
  25      6B0A5148 
  25      21626511 
  25      081241CB 
  26 0025 15E78277 		.ascii	"\025\347\202w'F\304\312\314\271W\004l$A\220\230\"\261"
  26      2746C4CA 
  26      CCB95704 
  26      6C244190 
  26      9822B1
  27 0038 90439228 		.ascii	"\220C\222(V\001A\217\024\022\221 \351\305\273B+A\202"
  27      5601418F 
  27      14129120 
  27      E9C5BB42 
  27      2B4182
  28 004b 9585B0BE 		.ascii	"\225\205\260\2767{;\271D\015\253\215\016\267\2633\373"
  28      377B3BB9 
ARM GAS  /tmp/ccoh7056.s 			page 2


  28      440DAB8D 
  28      0EB7B333 
  28      FB
  29 005c 7FFFF7DE 		.ascii	"\177\377\367\336ovO\200\200\375\343\020]\263\026\300"
  29      6F764F80 
  29      80FDE310 
  29      5DB316C0 
  30 006c 69DE1880 		.ascii	"i\336\030\200\024\201\002\2216\0103\002g.\363\022\012"
  30      14810291 
  30      36083302 
  30      672EF312 
  30      0A
  31 007d 23B02CE5 		.ascii	"#\260,\345\\\357S\367\3552\3129\331\334\211\242R\300"
  31      5CEF53F7 
  31      ED32CA39 
  31      D9DC89A2 
  31      52C0
  32 008f 5205E112 		.ascii	"R\005\341\022\006\210\303\352&\314\275\331c\233|\365"
  32      0688C3EA 
  32      26CCBDD9 
  32      639B7CF5 
  33 009f 7EE2816C 		.ascii	"~\342\201lu\242\350L\200\306\256\307\211=\370K\317Z"
  33      75A2E84C 
  33      80C6AEC7 
  33      893DF84B 
  33      CF5A
  34 00b1 5B1A4BF2 		.ascii	"[\032K\362{\024\031\251=\235\371\327\177\325\336\366"
  34      7B1419A9 
  34      3D9DF9D7 
  34      7FD5DEF6 
  35 00c1 C789CDA4 		.ascii	"\307\211\315\244=3\225\347\236\354\016x,\001\243\230"
  35      3D3395E7 
  35      9EEC0E78 
  35      2C01A398 
  36 00d1 CEF6BC2D 		.ascii	"\316\366\274-\263\011\225\225\262\275A\217\235\316\323"
  36      B3099595 
  36      B2BD418F 
  36      9DCED3
  37 00e0 B9FFCF4E 		.ascii	"\271\377\317N\342\344\377r\022OE\247\027E\213\357\026"
  37      E2E4FF72 
  37      124F45A7 
  37      17458BEF 
  37      16
  38 00f1 3E1CC621 		.ascii	">\034\306!\004:\004\2015\244o\234\276'\223'\213\266"
  38      043A0481 
  38      35A46F9C 
  38      BE279327 
  38      8BB6
  39 0103 9486840C 		.ascii	"\224\206\204\014M\246\003e|\214#\220\245\215\225\243"
  39      4DA60365 
  39      7C8C2390 
  39      A58D95A3 
  40 0113 C97659CB 		.ascii	"\311vY\313\263V m\205\264\"k%P\325\301\202\026\201\014"
  40      B356206D 
  40      85B4226B 
  40      2550D5C1 
  40      8216810C 
ARM GAS  /tmp/ccoh7056.s 			page 3


  41 0127 AB3E684C 		.ascii	"\253>hL\252\371\"\377\203\214-\270\263\376\255k\224"
  41      AAF922FF 
  41      838C2DB8 
  41      B3FEAD6B 
  41      94
  42 0138 F119B155 		.ascii	"\361\031\261U\021\271?\220\033\241,R\010\211\237\303"
  42      11B93F90 
  42      1BA12C52 
  42      08899FC3 
  43 0148 DB896654 		.ascii	"\333\211fT\331\261\005\341\252\0167\351);2\246\212\336"
  43      D9B105E1 
  43      AA0E37E9 
  43      293B32A6 
  43      8ADE
  44 015a 381F0BC7 		.ascii	"8\037\013\307aE\266\232\362\024\011\307\340\011/\351"
  44      6145B69A 
  44      F21409C7 
  44      E0092FE9 
  45 016a CD3A0F61 		.ascii	"\315:\017a\201B\263I\0215\246\372\367*\237l\177e\252"
  45      8142B349 
  45      1135A6FA 
  45      F72A9F6C 
  45      7F65AA
  46 017d C2EBEDA9 		.ascii	"\302\353\355\251\244\212\275\257\251p-|\204\211\230"
  46      A48ABDAF 
  46      A9702D7C 
  46      848998
  47 018c 212BEB96 		.ascii	"!+\353\226\0257\374%|\2515G\245%\303\013\3351\225wT"
  47      1537FC25 
  47      7CA93547 
  47      A525C30B 
  47      DD319577 
  48 01a1 F89138D5 		.ascii	"\370\2218\325j\370U\207\347X\260\221\243\024\315\233"
  48      6AF85587 
  48      E758B091 
  48      A314CD9B 
  49 01b1 1D770FCF 		.ascii	"\035w\017\317X\200\271]\036W\363\330\203<\330\247\310"
  49      5880B95D 
  49      1E57F3D8 
  49      833CD8A7 
  49      C8
  50 01c2 689E5CCC 		.ascii	"h\236\\\314\263\251y\334\203x\362\007\360\024~\346)"
  50      B3A979DC 
  50      8378F207 
  50      F0147EE6 
  50      29
  51 01d3 D2D3DFF1 		.ascii	"\322\323\337\361\2244O\361\217x\334A\036\321\247\310"
  51      94344FF1 
  51      8F78DC41 
  51      1ED1A7C8 
  52 01e3 6B9E12C0 		.ascii	"k\236\022\30064{w\217\306\311\2221\311\350\034\355y"
  52      36347B77 
  52      8FC6C992 
  52      31C9E81C 
  52      ED79
  53 01f5 9EAF7F8D 		.ascii	"\236\257\177\215i\377J\371\252\177\255q\375\306\264"
  53      69FF4AF9 
ARM GAS  /tmp/ccoh7056.s 			page 4


  53      AA7FAD71 
  53      FDC6B4
  54 0204 5F69D46A 		.ascii	"_i\324j\215\272\177\366\302\370\271\361[~\375fP\361"
  54      8DBA7FF6 
  54      C2F8B9F1 
  54      5B7EFD66 
  54      50F1
  55 0216 2A60D4BD 		.ascii	"*`\324\275\023t\215\376\000\252\360C\200"
  55      13748DFE 
  55      00AAF043 
  55      80
  56              		.text
  57              		.section	.gnu.lto_nvicDisableVector.3357dcdb7950e9a3,"",%progbits
  58 0000 789C8D52 		.ascii	"x\234\215R=K\003A\020\235\331\3732\012\212`c\245h)\336"
  58      3D4B0341 
  58      109DD9FB 
  58      320A8A60 
  58      63A56829 
  59 0015 A1080A16 		.ascii	"\241\010\012\026\"\326\001\021\005-c\212xb\0221\"vn"
  59      22D60111 
  59      052D638A 
  59      78621231 
  59      22766E
  60 0028 7211C42A 		.ascii	"r\021\304*X\2116Q\033\011~\241M@\220\220B\024\261\310"
  60      58893651 
  60      1B097EA1 
  60      4D409090 
  60      4214B1C8 
  61 003c 2F308890 		.ascii	"/0\210\220N\202X\212\353\354%\027\243\325\015w\273\263"
  61      4E82588A 
  61      EBEC2517 
  61      A3D50D77 
  61      BBB3
  62 004e F3DE9B99 		.ascii	"\363\336\233\231\233[\006\014\376[\027\275\237\024\036"
  62      9B5B060C 
  62      FE5B17BD 
  62      9F141E
  63 005d 91070590 		.ascii	"\221\007\005\220\\d\210t@\330b\270\265 ]\320\373\340"
  63      5C648874 
  63      40D862B8 
  63      B5205DD0 
  63      FBE0
  64 006f 88F3BDF2 		.ascii	"\210\363\275\362v%\337\275\233Me\370\267\020hK(\214"
  64      7625DFBD 
  64      9B4D65F8 
  64      B710684B 
  64      288C
  65 0081 304F1EF6 		.ascii	"0O\036\366\272\033S\377f\257\311x\351m\372\201\247\013"
  65      BA1B53FF 
  65      66AFC978 
  65      E96DFA81 
  65      A70B
  66 0093 424CD8A8 		.ascii	"BL\330\250\370\322d\370K\223Fe0\204\376d\327\247<\220"
  66      F8D264F8 
  66      4B934665 
  66      3084FE64 
  66      D7A73C90 
ARM GAS  /tmp/ccoh7056.s 			page 5


  67 00a7 E55F4228 		.ascii	"\345_B($\363\331^\263F\363\247)\224\356\237\216\220"
  67      24F3D95E 
  67      B346F3A7 
  67      2994EE9F 
  67      8E90
  68 00b9 B4C9AA10 		.ascii	"\264\311\252\020\035>&q\311\012e!\316n\256^s\330\331"
  68      1D3E2671 
  68      C90A6521 
  68      CE6EAE5E 
  68      73D8D9
  69 00cc 82401286 		.ascii	"\202@\022\206Q\244\221\323HT\010\341\011\366\201F\007"
  69      51A491D3 
  69      485408E1 
  69      09F68146 
  69      07
  70 00dd 55A74533 		.ascii	"U\247E3\300\315I\2214}U\257\233\235l\326]\347\344_R"
  70      C0CD4991 
  70      347D55AF 
  70      9B9D6CD6 
  70      5DE7E45F 
  71 00f2 9E2195DF 		.ascii	"\236!\225\337\257\214\205\360\224\232\216 \312\252\300"
  71      AF8C85F0 
  71      949A8E20 
  71      CAAAC0
  72 0101 8B0E6F27 		.ascii	"\213\016o'\31238\027\3161z\240\022A&qUs\261\324\273"
  72      CA333817 
  72      CE317AA0 
  72      12412671 
  72      5573B1D4 
  73 0116 73D7C0D4 		.ascii	"s\327\300\324\210LG\202[\305\013i\024u\351=\265T\347"
  73      884C4782 
  73      5BC50B69 
  73      1475E93D 
  73      B554E7
  74 0129 CE4783AE 		.ascii	"\316G\203\256K@C\311\222X\361\261\332V\203\006\341\214"
  74      4B4043C9 
  74      9258F1B1 
  74      DA568306 
  74      E18C
  75 013b A7937CDC 		.ascii	"\247\223|\334F}\000r\322\245\271\030\207p@\374\026\257"
  75      467D0072 
  75      D2A5B918 
  75      877040FC 
  75      16AF
  76 014d 3FD716EB 		.ascii	"?\327\026\353{D^\206\272\247\273}\345w\226\275:\306"
  76      7B445E86 
  76      BAA7BB7D 
  76      E57796BD 
  76      3AC6
  77 015f BFEF29E6 		.ascii	"\277\357)\346\253\306\237B\2436\006~\013\2656\012\031"
  77      ABC69F42 
  77      A336067E 
  77      0BB5360A 
  77      19
  78 0170 CD85B09E 		.ascii	"\315\205\260\236\336\273\370\022\013H\247\004\311r\256"
  78      DEBBF812 
  78      0B48A704 
ARM GAS  /tmp/ccoh7056.s 			page 6


  78      C972AE
  79 017f BF96D0B3 		.ascii	"\277\226\320\263YI\227L\3234\255\306\023OXK\241\025"
  79      5949974C 
  79      D334ADC6 
  79      134F584B 
  79      A115
  80 0191 6B35BEB6 		.ascii	"k5\276\266\236\260\302\361h4\036\263&g\202S\301M+\266"
  80      9EB0C2F1 
  80      68341EB3 
  80      26678253 
  80      C14D2BB6 
  81 01a5 6187CD30 		.ascii	"a\207\3150(1s\370\007\256\273\264\332"
  81      283173F8 
  81      07AEBBB4 
  81      DA
  82              		.text
  83              		.section	.gnu.lto_nvicSetSystemHandlerPriority.3357dcdb7950e9a3,"",%progbits
  84 0000 789C8D52 		.ascii	"x\234\215R;H\003A\020\235\331\335\213QQ\264\323.h)\336"
  84      3B480341 
  84      109DD9DD 
  84      8B5151B4 
  84      D32E6829 
  85 0015 A5B314B1 		.ascii	"\245\263\024\261\262\010\210$\240e\274\"\036x\211\030"
  85      B2088824 
  85      A065BC22 
  85      1E788918 
  86 0025 11C1229B 		.ascii	"\021\301\"\233\217 b\021\254\202ZD\260\020\211\232J"
  86      8F206211 
  86      AC825A44 
  86      B010899A 
  86      4A
  87 0036 2DA388D8 		.ascii	"-\243\210\330D\261U\213T6\332\245R\304s6\227\013A,\034"
  87      44B1558B 
  87      5436DAA5 
  87      52C47336 
  87      970B412C 
  88 004b EE766767 		.ascii	"\356vgg\336\333\367vY\006\014~\207A\177?\225\203j\341"
  88      DEDBF776 
  88      59060C7E 
  88      87417F3F 
  88      95836AE1 
  89 005f 03A41419 		.ascii	"\003\244\024\031r\0329\023\000\222i4\010\2014\241\206"
  89      721A3913 
  89      00926934 
  89      088134A1 
  89      86
  90 0070 48208414 		.ascii	"H \204\024\343B\303\324\234Z\201\030\202\003)wj\033"
  90      E342C3D4 
  90      9C5A8118 
  90      82032977 
  90      6A1B
  91 0082 F5F2E056 		.ascii	"\365\362\340V1\223\227\337\216\203\226j\231\010\263"
  91      319397DF 
  91      8E83966A 
  91      9908B3
  92 0091 9461A031 		.ascii	"\224a\2401\251\335\332\303\245\311\347\227\351\202\314"
  92      A9DDDAC3 
ARM GAS  /tmp/ccoh7056.s 			page 7


  92      A5C9E797 
  92      E982CC
  93 00a0 551C67DC 		.ascii	"U\034g\334R\252\036\307\357r\360O\316\351\221\344E\371"
  93      52AA1EC7 
  93      EF72F04F 
  93      CEE991E4 
  93      45F9
  94 00b2 E538FC1F 		.ascii	"\3458\374\037\034\033\341\214Uj\216S\272(o\277\343>"
  94      1C1BE18C 
  94      556A8E53 
  94      BA286FBF 
  94      E33E
  95 00c4 F321DA48 		.ascii	"\363!\332H\347$\217\2342\362E\273h\320\330\0124\310"
  95      E7248F9C 
  95      32F245BB 
  95      68D0D80A 
  95      34C8
  96 00d6 49990FD8 		.ascii	"I\231\017\330M\377\024\341\346H\027\303#\012\303\357"
  96      4DFF14E1 
  96      E64817C3 
  96      230AC3EF 
  97 00e6 E0E6F5EA 		.ascii	"\340\346\365\352\343\026\243xH\327\022CT\262\242\273"
  97      E316A378 
  97      48D71243 
  97      54B2A2BB 
  98 00f6 4D338274 		.ascii	"M3\202tX\376\000\302\205\000\254\303\247\334\224}\026"
  98      58FE00C2 
  98      8500ACC3 
  98      A7DC947D 
  98      16
  99 0107 6A26BAFE 		.ascii	"j&\272\376Te\300B\037)5A\026vxlZ\361*d.\013\365\240"
  99      5465C042 
  99      1F293541 
  99      1676786C 
  99      5AF12A64 
 100 011f 27C29408 		.ascii	"'\302\224\010\310\247\254\354%\0105\337\262\347-\007"
 100      C8A7ACEC 
 100      250835DF 
 100      B2E72D07 
 101 012f 22A68C55 		.ascii	"\"\246\214U!{\302\275\222FUE\361\213\006\374z\312m\214"
 101      217BC2BD 
 101      92465545 
 101      F18B06FC 
 101      7ACA6D8C 
 102 0143 4249E6D2 		.ascii	"BI\346\322r\214\032#p\254\322\036\013;\367`\227\240"
 102      728C1A23 
 102      70ACD21E 
 102      0B3BF760 
 102      97A0
 103 0155 5D9E4A23 		.ascii	"]\236J#\346\233s\014\275\013\215)_\217\220\256\335\017"
 103      E69B730C 
 103      BD0B8D29 
 103      5F8F90AE 
 103      DD0F
 104 0167 7BE77223 		.ascii	"{\347r#\254 \352i\351\272n\264\276D\322X\210.\032K\211"
 104      AC20EA69 
 104      E9BA6EB4 
ARM GAS  /tmp/ccoh7056.s 			page 8


 104      BE44D258 
 104      882E1A4B 
 105 017c E595A461 		.ascii	"\345\225\244a&l;\0217&fB\223\2415#\276j\231\272\011"
 105      266C3B11 
 105      37266642 
 105      93A13523 
 105      BE6A99BA 
 106 0191 3FE3177C 		.ascii	"?\343\027|1"
 106      31
 107              		.text
 108              		.section	.gnu.lto_nvicClearPending.3357dcdb7950e9a3,"",%progbits
 109 0000 789C9552 		.ascii	"x\234\225R=H\303@\024~\357\2224\272(\202\213\223\245"
 109      3D48C340 
 109      147EEF92 
 109      34BA2882 
 109      8B93A5
 110 0013 8E6282E8 		.ascii	"\216b\202\350 8\21089\024D*\350X3\324\200m\305\212\270"
 110      20388838 
 110      3914442A 
 110      E85833D4 
 110      806DC58A 
 111 0028 F5FA3339 		.ascii	"\365\37239\225\202\213.U\227\"U\301\251\330\245tr\351"
 111      95828B2E 
 111      55972255 
 111      C1A9D8A5 
 111      7472E9
 112 003b D05DA188 		.ascii	"\320]\241\210Bqp\223:\210\361\335\245\011\352\324>\222"
 112      42717093 
 112      3A88F1DD 
 112      A509EAD4 
 112      3E92
 113 004d BB77DFF7 		.ascii	"\273w\337\367\276\357~\0310\370\037\343\364\237\020"
 113      BEEF7E19 
 113      30F81FE3 
 113      F49F10
 114 005c 3C2F060A 		.ascii	"</\006\012 \245\310\020i\200\220f\230\336\022)\004B"
 114      20A5C810 
 114      69809066 
 114      98DE1229 
 114      0442
 115 006e 70CE79B1 		.ascii	"p\316y\261\375\332\255N\034\227\262\005\376\3558h\013"
 115      FDDAAD4E 
 115      1C97B205 
 115      FEED3868 
 115      0B
 116 007f CA42D8A4 		.ascii	"\312B\330\244\014\203\262c\352_wW\306[/k\017<_w\234"
 116      0C83B263 
 116      EA5F7757 
 116      C65B2F6B 
 116      0F3C5F77 
 117 0094 251B95BE 		.ascii	"%\033\225\2764\005\376\361K\2432\230\305\376dwe>\\\342"
 117      3405FEF1 
 117      4BA33298 
 117      C5FE6477 
 117      653E5CE2 
 118 00a8 5F8EA390 		.ascii	"_\216\243\220\254\317\251\006\327\024\371\323 [\272"
 118      ACCFA906 
ARM GAS  /tmp/ccoh7056.s 			page 9


 118      D714F9D3 
 118      205BBA
 119 00b7 65F5B6E3 		.ascii	"e\365\266\343<\326*\317\035\034\033B\240\223c\030G:"
 119      3CD62ACF 
 119      1D1C1B42 
 119      A0936318 
 119      473A
 120 00c9 6F12AB10 		.ascii	"o\022\253\020\305K\014\201F\0035 \032\035\244'!yZ^P"
 120      C54B0C81 
 120      46033520 
 120      1A1DA427 
 120      21795A5E 
 121 00de BA534464 		.ascii	"\272SDd\273!\256HiB\266\372\331]\210b\0315\210!\212"
 121      BB21AE48 
 121      6942B6FA 
 121      D95D8862 
 121      19358821 
 122 00f3 59813772 		.ascii	"Y\2017r|\204J\232\220\273\311]\240G*1d\202W5\311e\337"
 122      7C844A9A 
 122      90BBC95D 
 122      A0472A31 
 122      64825735 
 123 010a 736F3EA7 		.ascii	"so>\247\306\204\035\011j\212\007i\204\312\362I\327\352"
 123      C6841D09 
 123      6A8A0769 
 123      84CAF249 
 123      D7EA
 124 011c DA670212 		.ascii	"\332g\002\022FQ\3233\272\367\215t\242\005\330Xu\221"
 124      4651D333 
 124      BAF78D74 
 124      A205D858 
 124      7591
 125 012e 19A8F07C 		.ascii	"\031\250\360|\206/\332\250M\303\225HGm\014\234\301)"
 125      862FDAA8 
 125      4DC39548 
 125      476D0C9C 
 125      C129
 126 0140 59E8DE82 		.ascii	"Y\350\336\202el\367\372\230\334\263\233\351\000-\310"
 126      656CF7FA 
 126      98DCB39B 
 126      E9002DC8 
 127 0150 B43B53AE 		.ascii	"\264;S\256\231\027\021\3610\305\0336\014\303\364\277"
 127      991711F1 
 127      30C51B36 
 127      0CC3F4BF 
 128 0160 64CADC89 		.ascii	"d\312\334\211\356\232{\311\375\203\224i%\343\361d\302"
 128      EE9A7BC9 
 128      FD839469 
 128      25E3F164 
 128      C2
 129 0171 5C5E0FAF 		.ascii	"\\^\017\257\204\217\314\304\241m\031\026(\011c\356\007"
 129      848FCCC4 
 129      A16D1916 
 129      280963EE 
 129      07
 130 0182 6B90A018 		.ascii	"k\220\240\030"
 131              		.text
ARM GAS  /tmp/ccoh7056.s 			page 10


 132              		.section	.gnu.lto_.symbol_nodes.3357dcdb7950e9a3,"",%progbits
 133 0000 789C4DC8 		.ascii	"x\234M\310\271\015\2000\024\004\321\375c\273J\212Y\207"
 133      B90D8030 
 133      1404D1FD 
 133      63BB4A8A 
 133      5987
 134 0012 84E6AA80 		.ascii	"\204\346\252\200~\010\211\251\004\021\200d&{\203\320"
 134      7E0889A9 
 134      04118064 
 134      267B83D0 
 135 0022 A02F1A96 		.ascii	"\240/\032\226\332!\331\347\030L8~\2341\235eC\331\211"
 135      DA21D9E7 
 135      184C387E 
 135      9C319D65 
 135      43D989
 136 0035 05A77E63 		.ascii	"\005\247~c\305\371e\255\221(\332\257;\364\000\366\305"
 136      C5F965AD 
 136      9128DAAF 
 136      3BF400F6 
 136      C5
 137 0046 1B4A     		.ascii	"\033J"
 138              		.text
 139              		.section	.gnu.lto_.refs.3357dcdb7950e9a3,"",%progbits
 140 0000 789C6362 		.ascii	"x\234cb`b`e\200\000F&&f\006\000\000\253\000\022"
 140      60626065 
 140      80004626 
 140      26660600 
 140      00AB0012 
 141              		.text
 142              		.section	.gnu.lto_.decls.3357dcdb7950e9a3,"",%progbits
 143 0000 789CAD58 		.ascii	"x\234\255X}l\024\307\025\237\331;c_q\035\022\245)\264"
 143      7D6C14C7 
 143      159FD93B 
 143      635F711D 
 143      12A529B4 
 144 0014 D0385113 		.ascii	"\3208Q\023UQ\352\243@\025\372O\2049\233\372\376pb\335"
 144      5551EAA3 
 144      4015FA4F 
 144      84399BFA 
 144      FE7062DD 
 145 0028 01AA1489 		.ascii	"\001\252\024\211cs\\jK\366\031\235\317m\370o\215\035"
 145      63735C6A 
 145      4BF6199D 
 145      CF6DF86F 
 145      8D1D
 146 003a 4A53506C 		.ascii	"JSPl\276\352\006\342\034\211\335\004\232\006\327\006"
 146      BEEA06E2 
 146      1C89DD04 
 146      9A06D706 
 147 004a 72B11CB8 		.ascii	"r\261\034\270\232$XI?(D\204\0002\327\250\037\024U\201"
 147      9A245849 
 147      3F284484 
 147      0032D7A8 
 147      1F145581 
 148 005e 4424ADAA 		.ascii	"D$\255\252\206\353\233\267_3{;\366n\324\225\347y\366"
 148      86EB9BB7 
 148      5F337B3B 
ARM GAS  /tmp/ccoh7056.s 			page 11


 148      F66ED495 
 148      E779F6
 149 0071 F6BDDFFC 		.ascii	"\366\275\337\374~o\336\316\314\235B\0242J\011)\301\365"
 149      7E6FDECE 
 149      CC9D4214 
 149      324A0929 
 149      C1F5
 150 0083 D3AF13D2 		.ascii	"\323\257\023\322\251\020RA\010y\230\330\027\273?\010"
 150      A9105241 
 150      087998D8 
 150      17BB3F08 
 151 0093 6D0C5A1E 		.ascii	"m\014Z\036\332\011hS\320 \214\274K\304\213\371UC;\013"
 151      DA096853 
 151      D0208CBC 
 151      4BC48BF9 
 151      55433B0B 
 152 00a7 ADC6E833 		.ascii	"\255\306\3503\277JhA\003\3533h\237B;\007\355\"\264\017"
 152      BF4A6841 
 152      03EB3368 
 152      9F423B07 
 152      ED22B40F 
 153 00bb A005A0DD 		.ascii	"\240\005\240\335\204v\015\332\005#\206a\001\035r\004"
 153      84760DDA 
 153      05238661 
 153      011D7204 
 154 00cb DAAF1DE3 		.ascii	"\332\257\035\3430.\363\035\343\360c\230\270\347\270"
 154      302EF31D 
 154      E3F06398 
 154      B8E7B8
 155 00da F118D687 		.ascii	"\361\030\326\207\3068\324\300`\377\217;\260\363\006"
 155      C638D4C0 
 155      60FF8F3B 
 155      B0F306
 156 00e9 F63C2A6A 		.ascii	"\366<*j\030\206\266\032:\021h\247\014\334\257A\277\222"
 156      1886B61A 
 156      3A1168A7 
 156      0CDCAF41 
 156      BF92
 157 00fb EACF1751 		.ascii	"\352\317\027Q}\214\274\221\237\200\221\237\011h\223"
 157      7D8CBC91 
 157      9F80919F 
 157      096893
 158 010a 8E31580E 		.ascii	"\2161X\016\253$\374y\356\324\310\0115b\330\377\202\003"
 158      AB24FC79 
 158      EED4C809 
 158      3562D8FF 
 158      8203
 159 011c EB6E32A4 		.ascii	"\353n2\244\345\012\305\221\241w\251\266K\373o\251\324"
 159      E50AC591 
 159      A177A9B6 
 159      4BFB6FA9 
 159      D4
 160 012d 1B247791 		.ascii	"\033$w\221\275\032\\\271m\232F\263*}\370+\344\007T\245"
 160      BD1A5CB9 
 160      6D9A46B3 
 160      2A7DF82B 
 160      E40754A5 
ARM GAS  /tmp/ccoh7056.s 			page 12


 161 0141 3521528B 		.ascii	"5!R\213\235\352\020\216D\210J_\240wa/\200\334I\210l"
 161      9DEA108E 
 161      44884A5F 
 161      A077612F 
 161      80DC4988 
 162 0156 D7B4AD2C 		.ascii	"\327\264\255,\260i\032\210\271E\335G\2065\255\277x\356"
 162      B0691A88 
 162      B945DD47 
 162      8635ADBF 
 162      78EE
 163 0168 D08E0735 		.ascii	"\320\216\0075\255J\245\3034\004\261\217R\362\0009\004"
 163      AD4AA5C3 
 163      3404B18F 
 163      52F20039 
 163      04
 164 0179 63F6437C 		.ascii	"c\366C|\035%\345\227w\350\322\266\311\357!\364\313\010"
 164      1D25E597 
 164      77E8D2B6 
 164      C9EF21F4 
 164      CB08
 165 018b BD935220 		.ascii	"\275\223R \372\022}\300\000Rie\210\007\306{\323\201"
 165      FA127DC0 
 165      00526965 
 165      8807C67B 
 165      D381
 166 019d A1E163A3 		.ascii	"\241\341c\243\303*\3736\342\327\335\310\206.\016;\353"
 166      C32AFB36 
 166      E2D7DDC8 
 166      862E0E3B 
 166      EB
 167 01ae 02168042 		.ascii	"\002\026\200B\006\035\214\276I^\324\264]0\005\303\213"
 167      061D8CBE 
 167      495ED4B4 
 167      5D3005C3 
 167      8B
 168 01bf B49C62A6 		.ascii	"\264\234b\246\344\020z\035\244w\273j5\260\365P\355\365"
 168      E4107A1D 
 168      A477BB6A 
 168      35B0F550 
 168      EDF5
 169 01d1 549319F6 		.ascii	"T\223\031\366+/a\204\334OF\330\024\357\324\236Z@q\206"
 169      2B2F6184 
 169      DC4F46D8 
 169      14EFD49E 
 169      5A407186 
 170 01e5 89112548 		.ascii	"\211\021%H}\205*\345\265R8\372vu\177O\261Tz\276\326"
 170      7D852AE5 
 170      B55238FA 
 170      76757F4F 
 170      B1547ABE 
 171 01fa 7BA18C8B 		.ascii	"{\241\214\213\205\242\363p\344e\3245/\332nS\234J_\005"
 171      85A2F370 
 171      E465D435 
 171      2FDA6E53 
 171      9C4A5F05 
 172 020e 3E2A1DFB 		.ascii	">*\035\373B\342\306\234\342\216\271\212\273i\211\323"
 172      42E2C69C 
ARM GAS  /tmp/ccoh7056.s 			page 13


 172      E28EB98A 
 172      BB6989D3 
 173 021e AB5B2153 		.ascii	"\253[!S\356\264\270\234_A\217\274\247\251\372\334V3"
 173      EEB4B89C 
 173      5F418FBC 
 173      A7A9FADC 
 173      5633
 174 0230 8A6AE608 		.ascii	"\212j\346\010\223\250\311;\325\274\356\252f\342\264"
 174      93A8C93B 
 174      D5BCEEAA 
 174      66E2B4
 175 023f AD661CD5 		.ascii	"\255f\034\325\374\335]\315\2003\311'\276\020\255\023"
 175      FCDD5DCD 
 175      8033C927 
 175      BE10AD13 
 176 024f 4E5A27CB 		.ascii	"NZ'\313i\025\373\213\037?\363~\037\035\350\315Mk7\330"
 176      6915FB8B 
 176      1F3FF37E 
 176      1F1DE8CD 
 176      4D6B37D8 
 177 0263 0BE3BD8C 		.ascii	"\013\343\275\214N\211e4\237<m/\012\306\012Q\034),\034"
 177      4E896534 
 177      9F3C6D2F 
 177      0AC60A51 
 177      1C292C1C 
 178 0277 B457882A 		.ascii	"\264W\210*\023\202-*\270B\2605F\261\234\265\205\013"
 178      13822D2A 
 178      B842B035 
 178      46B19CB5 
 178      850B
 179 0289 DD7D557A 		.ascii	"\335}Uz\232\336\007vZ\227\213\217\364\276\331+\341\222"
 179      9ADE0776 
 179      5A978B8F 
 179      F4BED92B 
 179      E192
 180 029b BD5F715B 		.ascii	"\275_q[\256\020`\366P\231\306\267\350|\033BxAr\2128"
 180      AE1060F6 
 180      5099C6B7 
 180      E87C1B42 
 180      7841728A 
 181 02b0 77A6D33B 		.ascii	"w\246\323;b\222\357%\007\2653g\212O]\037\244\333s[\373"
 181      6292EF25 
 181      07B53367 
 181      8A4F5D1F 
 181      A4DB735B 
 182 02c5 B55BA512 		.ascii	"\265[\245\022\275\235\364\263\024\327\016\326\250\364"
 182      BD9DF4B3 
 182      14D70ED6 
 182      A8F4
 183 02d3 6D20600C 		.ascii	"m `\014~\225\232\243/\301P\336mZ\356\246\322\337\003"
 183      7E959AA3 
 183      2FC150DE 
 183      6D5AEEA6 
 183      D2DF03
 184 02e6 22BB308F 		.ascii	"\"\2730\217\2321\003\350!\223\365\007.\031\325!\273"
 184      9A3103E8 
 184      2193F507 
ARM GAS  /tmp/ccoh7056.s 			page 14


 184      2E19D521 
 184      BB
 185 02f7 B3589062 		.ascii	"\263X\220bz\201\332\303\212\343\255r\262P\310\270\221"
 185      7A81DAC3 
 185      8AE3AD72 
 185      B250C8B8 
 185      91
 186 0308 FB6F90DF 		.ascii	"\373o\220\337*\317\261%\377wHK(\213;\310\000J\342v\215"
 186      2ACFB125 
 186      FF77484B 
 186      288B3BC8 
 186      004AE276 
 187 031d 5CD142EA 		.ascii	"\\\321B\352[L\354\215\343\374\3655\270q\234\243w\000"
 187      5B4CEC8D 
 187      E3FCF535 
 187      B8719CA3 
 187      7700
 188 032f F88E8098 		.ascii	"\370\216\200\230m\017@L\301y\010\326\303\364j+\014\\"
 188      6D0F404C 
 188      C17908D6 
 188      C3F46A2B 
 188      0C5C
 189 0341 AAD682FA 		.ascii	"\252\326\202\372\347\304e\372\214\353\036\222\323\372"
 189      E7C465FA 
 189      8CEB1E92 
 189      D3FA
 190 034f 7A0A7B2F 		.ascii	"z\012{/\355\241Zn\312\232/\243\254{g\335\370T:\202\245"
 190      EDA15A6E 
 190      CA9A2FA3 
 190      AC7B67DD 
 190      F8543A82 
 191 0364 3AF7CE64 		.ascii	":\367\316dDk\212\031^+L;\233\302a{\332\235n*\275\344"
 191      446B8A19 
 191      5E2B4C3B 
 191      9BC2617B 
 191      DA9D6E2A 
 192 037a 7BDA2F4B 		.ascii	"{\332/K\246\275R\230\366\313\366\264\357\303\264\263"
 192      A6BD5298 
 192      F6CBF6B4 
 192      EFC3B4B3 
 193 038a 6CB9B2B0 		.ascii	"l\271\262\260pL\320\032k7g)\204|\357{\254_\225\011\232"
 193      704CD01A 
 193      6B376729 
 193      847CEF7B 
 193      AC5F9509 
 194 039f 67C66F34 		.ascii	"g\306o4\006\276\342[PQ\"\350\253\304T\260\277L\2010"
 194      06BEE25B 
 194      505122E8 
 194      ABC454B0 
 194      BF4C8130 
 195 03b3 AC90D272 		.ascii	"\254\220\322r\005P\004\203\240@\245\037\0005\205\214"
 195      05500483 
 195      A040A51F 
 195      0035858C 
 196 03c3 784A8746 		.ascii	"xJ\207F\345\371x\026\321\256 \332aO\324r24\340v\200"
 196      E5F97816 
 196      D1AE20DA 
ARM GAS  /tmp/ccoh7056.s 			page 15


 196      614FD472 
 196      3234E076 
 197 03d8 E336EE8D 		.ascii	"\3436\356\215\233\"\3476\304q\313{\343&C\003n\243\034"
 197      9B22E736 
 197      C471CB7B 
 197      E3264303 
 197      6EA31C
 198 03eb B7296FDC 		.ascii	"\267)o\334\002rnc\034\267\323\336\270\311\320\200\333"
 198      02726E63 
 198      1CB7D3DE 
 198      B8C9D080 
 198      DB
 199 03fc 518EDB9F 		.ascii	"Q\216\333\237\274q\013\312\271\035\237\245\306kL\200"
 199      BC710BCA 
 199      B91D9FA5 
 199      C66B4C80 
 200 040c 22354AF6 		.ascii	"\"5J\366c\337E\376\211\244\310\037\262\212\374|\231"
 200      63DF45FE 
 200      89A4C81F 
 200      B28AFC7C 
 200      99
 201 041d 06715C33 		.ascii	"\006q\\3%2\021\220\222\374c\243\033\355\015\307X\347"
 201      25321190 
 201      92FC63A3 
 201      1BED0DC7 
 201      58E7
 202 042f D88E3CEB 		.ascii	"\330\216<\353\366\015\337\035\376qQ\201u\232\333\302"
 202      F60DDF1D 
 202      FE715181 
 202      759ADBC2 
 203 043f 65012AFD 		.ascii	"e\001*\375\027.\214T\\\030\255\255\330\332\304\213\216"
 203      172E8C54 
 203      5C18ADAD 
 203      D8DAC48B 
 203      8E
 204 0450 B5DE03B6 		.ascii	"\265\336\003\266\365mch%n\032\377\301\243\340\325\200"
 204      F56D6368 
 204      256E1AFF 
 204      C1A3E0D5 
 204      80
 205 0461 F3DB06B5 		.ascii	"\363\333\006\265d[\367\263q\361\343kf\3766\223\327\015"
 205      645BF7B3 
 205      71F1E36B 
 205      66FE3693 
 205      D70D
 206 0473 1D80DFC5 		.ascii	"\035\200\337\305\377\315U\206\323O\245\237\373\256\214"
 206      FFCD5586 
 206      D34FA59F 
 206      FBAE8C
 207 0482 5B92CAB8 		.ascii	"[\222\312\270N\005\346\267\354\005\375\223\262J\021"
 207      4E05E6B7 
 207      EC05FD93 
 207      B24A11
 208 0491 7998E53E 		.ascii	"y\230\345>OZ\356\2603\177\264\217\356\322\264\351\245"
 208      4F5AEEB0 
 208      337FB48F 
 208      EED2B4E9 
ARM GAS  /tmp/ccoh7056.s 			page 16


 208      A5
 209 04a2 B2A23F68 		.ascii	"\262\242?hm\304\375w\032\024z\024\277\332\266*\356\332"
 209      6DC4FD77 
 209      1A147A14 
 209      BFDAB62A 
 209      EEDA
 210 04b4 7A2BACB2 		.ascii	"z+\254\262\377\264L\214cdSY\245\254\356{\013\223\227"
 210      FFB44C8C 
 210      63645359 
 210      A5ACEE7B 
 210      0B9397
 211 04c7 AAD95A70 		.ascii	"\252\331Zp\021\013\246\344\004\024X\231\271Y\354\202"
 211      110BA6E4 
 211      04145899 
 211      B959EC82 
 212 04d7 E676F1C7 		.ascii	"\346v\361\307\017\225\276\217\305\177\201\336\003v\006"
 212      0F95BE8F 
 212      C57F81DE 
 212      037606
 213 04e6 ED8768FF 		.ascii	"\355\207h\377\202\366oh\257\242\275\206\366\237h?B{"
 213      82F66F68 
 213      AFA2BD86 
 213      F69F683F 
 213      427B
 214 04f8 03ED4DB4 		.ascii	"\003\355M\264\232\302l\037X\353\222\245\360\254}x\235"
 214      9AC26C1F 
 214      58EB92A5 
 214      F0AC7D78 
 214      9D
 215 0509 EB1456B4 		.ascii	"\353\024V\264^\247\035\366\373T\2702C\341\273\312O\024"
 215      5EA71DF6 
 215      FB54B832 
 215      43E1BBCA 
 215      4F14
 216 051b 7602EB0B 		.ascii	"v\002\353\013\316y\002s\2000\012O+\316\003\330\014\036"
 216      CE790273 
 216      80300A4F 
 216      2BCE03D8 
 216      0C1E
 217 052d C0D8E773 		.ascii	"\300\330\347s\034\300\366\364\026\366\316\354Y\304\016"
 217      1CC0F6F4 
 217      16F6CEEC 
 217      59C40E
 218 053c 60D6B1AB 		.ascii	"`\326\261\253\360\1778v)d'Ja\024f\231f!\265b\315\354"
 218      F07F3876 
 218      2964274A 
 218      61146699 
 218      6621B562 
 219 0552 9BE16A66 		.ascii	"\233\341jf\267o\260Z\001l\220\007\033\364\002V%g\366"
 219      B76FB05A 
 219      016C9007 
 219      1BF40256 
 219      2567F6
 220 0565 2C0FF69C 		.ascii	",\017\366\234o0\221\331\001\036\354E/`\013\344\314\206"
 220      6F3091D9 
 220      011EEC45 
 220      2F600BE4 
ARM GAS  /tmp/ccoh7056.s 			page 17


 220      CC86
 221 0577 78B0977C 		.ascii	"x\260\227|\203\361\314\340l\261\201\337\254T\372\231"
 221      83F1CCE0 
 221      6CB181DF 
 221      AC54FA99 
 222 0587 BDF86C34 		.ascii	"\275\370l4\303\2531@\262\372:\274T\272\337\367\372t"
 222      C3AB3140 
 222      B2FA3ABC 
 222      54BADFF7 
 222      FA74
 223 0599 40B23E59 		.ascii	"@\262>Y\257\234\340\305~\014r\212\026H\030\335\205\362"
 223      AF9CE0C5 
 223      7E0C728A 
 223      164818DD 
 223      85F2
 224 05ab 0C8EF119 		.ascii	"\014\216\361\031<\342%\203\265\362\271=\312\203\035"
 224      3CE22583 
 224      B5F2B93D 
 224      CA831D
 225 05ba F302F62D 		.ascii	"\363\002\366-9\263\343<\330\204o0\221Y\236\007;\351"
 225      39B3E33C 
 225      D8846F30 
 225      91599E07 
 225      3BE9
 226 05cc 056CA99C 		.ascii	"\005l\251\234\331\004\017\366\246o0\221\331$\017\366"
 226      D9040FF6 
 226      A66F3091 
 226      D9240FF6 
 227 05dc 8E17B095 		.ascii	"\216\027\260\225rf'x\260?\372\006\343\230\355\351)\234"
 227      72662778 
 227      B03FFA06 
 227      E398EDE9 
 227      299C
 228 05ee D9609D40 		.ascii	"\331`\235@s\253X\335\356T\254\302]%\276\351\202\033"
 228      73AB58DD 
 228      EE54ACC2 
 228      5D25BEE9 
 228      821B
 229 0600 B7693BDC 		.ascii	"\267i;\334T\372\252\3577\342\210\344\215\020\017#G\354"
 229      54FAAAEF 
 229      37E288E4 
 229      8D100F23 
 229      47EC
 230 0612 37E23DA7 		.ascii	"7\342=\247l\201\204\321]%\311!l\017g\365\0342\261\012"
 230      6C8184D1 
 230      5D25C921 
 230      6C0F67F5 
 230      1C32B10A 
 231 0626 B9E02587 		.ascii	"\271\340%\207Mr\260\367x\260\313\276\301\304\0119\277"
 231      4D72B0F7 
 231      78B0CBBE 
 231      C1C40939 
 231      BF
 232 0637 41FC4AC0 		.ascii	"A\374J\300\315\207f\035Q\026\360\023Rv\210r\270\251"
 232      CD87661D 
 232      5116F013 
 232      52768872 
ARM GAS  /tmp/ccoh7056.s 			page 18


 232      B8A9
 233 0649 F435DF13 		.ascii	"\3645\337\023\222\227L\210\3753\026\357\305N\336N\331"
 233      92974C88 
 233      FD3316EF 
 233      C54EDE4E 
 233      D9
 234 065a 220BA3DB 		.ascii	"\"\013\243\333\"KbO\341\202\\w\316\202\272s6\335N7\225"
 234      224B624F 
 234      E1825C77 
 234      CE82BA73 
 234      36DD4E37 
 235 066f 4EFAD6FD 		.ascii	"N\372\326\375\206DwP\320\375\206\255\373\257N\335\""
 235      86447750 
 235      D0FD86AD 
 235      FBAF4EDD 
 235      22
 236 0680 0BA3BB51 		.ascii	"\013\243\273Q\242\033N5\0277\260\332aLU\372g\374\311"
 236      A21B4E35 
 236      1737B0DA 
 236      614C55FA 
 236      67FCC9
 237 0693 762EB0CD 		.ascii	"v.\260\315\222\342\201\245\3412\2774\\\363R\211\333"
 237      92E281A5 
 237      E132BF34 
 237      5CF35289 
 237      DB
 238 06a4 DD7E2370 		.ascii	"\335~#p\273\370\003\231J\177\246\260\023\323\016<P>"
 238      BBF80399 
 238      4A7FA6B0 
 238      13D30E3C 
 238      503E
 239 06b6 837600ED 		.ascii	"\203v\000\355n\264{\321\376\034\355/\320\016\241\315"
 239      6EB47BD1 
 239      FE1CED2F 
 239      D00EA1CD 
 240 06c6 A17D01ED 		.ascii	"\241}\001\3550\332_\242}\031\355a\264\257\240\375\015"
 240      30DA5FA2 
 240      7D19ED61 
 240      B4AFA0FD 
 240      0D
 241 06d7 DA71B4C7 		.ascii	"\332q\264\307\320N\240=\211\266\340\345\010\273Mq?\302"
 241      D04EA03D 
 241      89B6E0E5 
 241      08BB4D71 
 241      3FC2
 242 06e9 EABF3ECB 		.ascii	"\352\277>\313\242\246\244Q\3547IY\324);\212\324\325"
 242      A2A6A451 
 242      EC374959 
 242      D4293B8A 
 242      D4D5
 243 06fb D585ADBF 		.ascii	"\325\205\255\277\316\256p\253\332\036\336\334\231\311"
 243      CEAE70AB 
 243      DA1EDEDC 
 243      99C9
 244 0709 7685939D 		.ascii	"v\205\223\235\035\035\235\351p}\2549\322\374d8\375\243"
 244      1D1D9DE9 
 244      707DAC39 
ARM GAS  /tmp/ccoh7056.s 			page 19


 244      D2FC6438 
 244      FDA3
 245 071b B6645D92 		.ascii	"\266d]\222,\011wwe\302m\351d{\367\246T8\235\372q{\333"
 245      2C097777 
 245      65C26DE9 
 245      647BF7A6 
 245      54389DFA 
 246 0732 E3E1AEEC 		.ascii	"\343\341\256\354\246\266t\266\256\225Tu\303\377\345"
 246      A6B674B6 
 246      AE955475 
 246      C3FFE5
 247 0741 CB12D979 		.ascii	"\313\022\331y\337\177d]m\204|\333\315\273CM\266\266"
 247      DF7F645D 
 247      6D847CDB 
 247      CDBB434D 
 247      B6B6
 248 0753 A553E1C4 		.ascii	"\245S\341\304\246\324\023jw{6\221\335\2629\325\005\321"
 248      A6D4136A 
 248      777B3691 
 248      DDB239D5 
 248      05D1
 249 0765 5F4A24CC 		.ascii	"_J$\314\370\005l\270\306\264\372x{j}*\231\355\314\320"
 249      F8056CB8 
 249      C6B4FA78 
 249      7B6A7D2A 
 249      99EDCCD0 
 250 0779 747073A6 		.ascii	"tps\246\255\363v\366yC[\227\375`1\373$\236\312\306\267"
 250      ADF376F6 
 250      79435B97 
 250      FD6031FB 
 250      249ECAC6 
 251 078e 7465531D 		.ascii	"teS\035MjzS{*\323\002\256\231\266\354\226\312V\375\036"
 251      4D6A7A53 
 251      7B2AD302 
 251      AE99B6EC 
 251      96CA56FD 
 252 07a3 E122ED29 		.ascii	"\341\"\355)5\323\222J\003\327\037\336\353P\235\311Z"
 252      35D3924A 
 252      03D71FDE 
 252      EB509DC9 
 252      5A
 253 07b4 2C93AD5D 		.ascii	",\223\255][\030\233`\262U\315\204\222\255\000\334\244"
 253      5B189B60 
 253      B255CD84 
 253      92AD00DC 
 253      A4
 254 07c5 B667AB12 		.ascii	"\266g\253\022\211'\272\323\311D\342"
 254      8927BAD3 
 254      C944E2
 255 07d0 CB66A7EE 		.ascii	"\313f\247\356\241\025\313\227-\231mx\362\240c\230\324"
 255      A115CB97 
 255      2D996D78 
 255      F2A06398 
 255      D4
 256 07e1 93D970A4 		.ascii	"\223\331p\2449\036\215\333\243ufR\211d\307\012\0300"
 256      391E8DDB 
 256      A3756652 
ARM GAS  /tmp/ccoh7056.s 			page 20


 256      8964C70A 
 256      1830
 257 07f3 F4C8FA68 		.ascii	"\364\310\372h$\261\026\222\021\214\306\033c\241X#\330"
 257      24B11692 
 257      118CC61B 
 257      63A15823 
 257      D8
 258 0804 F58D0D4B 		.ascii	"\365\215\015K\203\321Hc\254*\246\337}\007\036\266\330"
 258      83D14863 
 258      AC2AA6DF 
 258      7D071EB6 
 258      D8
 259 0815 0F97C143 		.ascii	"\017\227\301C\356vy0Z\277\332\276]Q\311\022\2722\221"
 259      EE767930 
 259      5ABFDABE 
 259      5D51C912 
 259      BA3291
 260 0828 0DE9A985 		.ascii	"\015\351\251\205\236\022m\261\036\1777\030_\033\215"
 260      9E126DB1 
 260      1E7F3718 
 260      5F1B8D
 261 0837 55C523AB 		.ascii	"U\305#\253q\330\212H\313\272h\003\000\306c\301\365k"
 261      71D88A48 
 261      CBBA6803 
 261      00C663C1 
 261      F56B
 262 0849 1F8D55D4 		.ascii	"\037\215U\324Gc\221X \016-\302\3767\265T\304\233\330"
 262      47639158 
 262      200E2DC2 
 262      FE37B554 
 262      C49BD8
 263 085c C3C81A30 		.ascii	"\303\310\0320M\3144\200\251hn^S\037\013\256f\246\036"
 263      4DCC3480 
 263      A9686E5E 
 263      531F0BAE 
 263      66A61E
 264 086f EE032D6B 		.ascii	"\356\003-kb\201\006h\365\015\261 <\213\001\343\372\030"
 264      62810668 
 264      F50DB120 
 264      3C8B01E3 
 264      FA18
 265 0881 80D74762 		.ascii	"\200\327Gb\377\003\035!\244\214"
 265      FF031D21 
 265      A48C
 266              		.text
 267              		.section	.gnu.lto_.symtab.3357dcdb7950e9a3,"",%progbits
 268 0000 6E766963 		.ascii	"nvicEnableVector\000\000\000\000\000\000\000\000\000"
 268      456E6162 
 268      6C655665 
 268      63746F72 
 268      00000000 
 269 0019 000000A1 		.ascii	"\000\000\000\241\000\000\000nvicDisableVector\000\000"
 269      0000006E 
 269      76696344 
 269      69736162 
 269      6C655665 
 270 0033 00000000 		.ascii	"\000\000\000\000\000\000\000\000\000\000\262\000\000"
ARM GAS  /tmp/ccoh7056.s 			page 21


 270      00000000 
 270      0000B200 
 270      00
 271 0040 006E7669 		.ascii	"\000nvicSetSystemHandlerPriority\000\000\000\000\000"
 271      63536574 
 271      53797374 
 271      656D4861 
 271      6E646C65 
 272 0062 00000000 		.ascii	"\000\000\000\000\000\000\000\270\000\000\000nvicCle"
 272      000000B8 
 272      0000006E 
 272      76696343 
 272      6C65
 273 0074 61725065 		.ascii	"arPending\000\000\000\000\000\000\000\000\000\000\000"
 273      6E64696E 
 273      67000000 
 273      00000000 
 273      00000000 
 274 0088 00BE0000 		.ascii	"\000\276\000\000\000chSysHalt\000\000\002\000\000\000"
 274      00636853 
 274      79734861 
 274      6C740000 
 274      02000000 
 275 009c 00000000 		.ascii	"\000\000\000\000\000\000\302\000\000\000"
 275      0000C200 
 275      0000
 276              		.text
 277              		.section	.gnu.lto_.opts,"",%progbits
 278 0000 272D6D63 		.ascii	"'-mcpu=cortex-m4' '-mno-thumb-interwork' '-mthumb' "
 278      70753D63 
 278      6F727465 
 278      782D6D34 
 278      2720272D 
 279 0033 272D6767 		.ascii	"'-ggdb' '-O0' '-fomit-frame-pointer' '-falign-funct"
 279      64622720 
 279      272D4F30 
 279      2720272D 
 279      666F6D69 
 280 0066 696F6E73 		.ascii	"ions=16' '-ffunction-sections' '-fdata-sections' '-"
 280      3D313627 
 280      20272D66 
 280      66756E63 
 280      74696F6E 
 281 0099 666E6F2D 		.ascii	"fno-common' '-flto'\000"
 281      636F6D6D 
 281      6F6E2720 
 281      272D666C 
 281      746F2700 
 282              		.text
 283              		.cfi_sections	.debug_frame
 284              		.section	.text.nvicEnableVector,"ax",%progbits
 285              		.align	2
 286              		.p2align 4,,15
 287              		.global	nvicEnableVector
 288              		.thumb
 289              		.thumb_func
 290              		.type	nvicEnableVector, %function
ARM GAS  /tmp/ccoh7056.s 			page 22


 291              	nvicEnableVector:
 292              	.LFB272:
 293              		.file 1 "../../../../os/hal/ports/common/ARMCMx/nvic.c"
 294              		.loc 1 57 0
 295              		.cfi_startproc
 296              		@ args = 0, pretend = 0, frame = 8
 297              		@ frame_needed = 0, uses_anonymous_args = 0
 298              		@ link register save eliminated.
 299 0000 82B0     		sub	sp, sp, #8
 300              		.cfi_def_cfa_offset 8
 301 0002 0190     		str	r0, [sp, #4]
 302 0004 0091     		str	r1, [sp]
 303              		.loc 1 63 0
 304 0006 4FF46143 		mov	r3, #57600
 305 000a CEF20003 		movt	r3, 57344
 306 000e 009A     		ldr	r2, [sp]
 307 0010 D2B2     		uxtb	r2, r2
 308 0012 1201     		lsls	r2, r2, #4
 309 0014 D2B2     		uxtb	r2, r2
 310 0016 0199     		ldr	r1, [sp, #4]
 311 0018 0B44     		add	r3, r3, r1
 312 001a 03F54073 		add	r3, r3, #768
 313 001e 1A70     		strb	r2, [r3]
 314              		.loc 1 65 0
 315 0020 4FF46143 		mov	r3, #57600
 316 0024 CEF20003 		movt	r3, 57344
 317 0028 019A     		ldr	r2, [sp, #4]
 318 002a 5209     		lsrs	r2, r2, #5
 319 002c 0199     		ldr	r1, [sp, #4]
 320 002e 01F01F01 		and	r1, r1, #31
 321 0032 0120     		movs	r0, #1
 322 0034 00FA01F1 		lsl	r1, r0, r1
 323 0038 6032     		adds	r2, r2, #96
 324 003a 43F82210 		str	r1, [r3, r2, lsl #2]
 325              		.loc 1 66 0
 326 003e 4FF46143 		mov	r3, #57600
 327 0042 CEF20003 		movt	r3, 57344
 328 0046 019A     		ldr	r2, [sp, #4]
 329 0048 5209     		lsrs	r2, r2, #5
 330 004a 0199     		ldr	r1, [sp, #4]
 331 004c 01F01F01 		and	r1, r1, #31
 332 0050 0120     		movs	r0, #1
 333 0052 00FA01F1 		lsl	r1, r0, r1
 334 0056 43F82210 		str	r1, [r3, r2, lsl #2]
 335              		.loc 1 67 0
 336 005a 02B0     		add	sp, sp, #8
 337              		@ sp needed
 338 005c 7047     		bx	lr
 339              		.cfi_endproc
 340              	.LFE272:
 341              		.size	nvicEnableVector, .-nvicEnableVector
 342 005e 00BF     		.section	.text.nvicDisableVector,"ax",%progbits
 343              		.align	2
 344              		.p2align 4,,15
 345              		.global	nvicDisableVector
 346              		.thumb
 347              		.thumb_func
ARM GAS  /tmp/ccoh7056.s 			page 23


 348              		.type	nvicDisableVector, %function
 349              	nvicDisableVector:
 350              	.LFB273:
 351              		.loc 1 74 0
 352              		.cfi_startproc
 353              		@ args = 0, pretend = 0, frame = 8
 354              		@ frame_needed = 0, uses_anonymous_args = 0
 355              		@ link register save eliminated.
 356 0000 82B0     		sub	sp, sp, #8
 357              		.cfi_def_cfa_offset 8
 358 0002 0190     		str	r0, [sp, #4]
 359              		.loc 1 76 0
 360 0004 4FF46143 		mov	r3, #57600
 361 0008 CEF20003 		movt	r3, 57344
 362 000c 019A     		ldr	r2, [sp, #4]
 363 000e 5209     		lsrs	r2, r2, #5
 364 0010 0199     		ldr	r1, [sp, #4]
 365 0012 01F01F01 		and	r1, r1, #31
 366 0016 0120     		movs	r0, #1
 367 0018 00FA01F1 		lsl	r1, r0, r1
 368 001c 2032     		adds	r2, r2, #32
 369 001e 43F82210 		str	r1, [r3, r2, lsl #2]
 370              		.loc 1 80 0
 371 0022 4FF46143 		mov	r3, #57600
 372 0026 CEF20003 		movt	r3, 57344
 373 002a 019A     		ldr	r2, [sp, #4]
 374 002c 1344     		add	r3, r3, r2
 375 002e 03F54073 		add	r3, r3, #768
 376 0032 0022     		movs	r2, #0
 377 0034 1A70     		strb	r2, [r3]
 378              		.loc 1 82 0
 379 0036 02B0     		add	sp, sp, #8
 380              		@ sp needed
 381 0038 7047     		bx	lr
 382              		.cfi_endproc
 383              	.LFE273:
 384              		.size	nvicDisableVector, .-nvicDisableVector
 385 003a 00BFAFF3 		.section	.text.nvicSetSystemHandlerPriority,"ax",%progbits
 385      0080
 386              		.align	2
 387              		.p2align 4,,15
 388              		.global	nvicSetSystemHandlerPriority
 389              		.thumb
 390              		.thumb_func
 391              		.type	nvicSetSystemHandlerPriority, %function
 392              	nvicSetSystemHandlerPriority:
 393              	.LFB274:
 394              		.loc 1 90 0
 395              		.cfi_startproc
 396              		@ args = 0, pretend = 0, frame = 8
 397              		@ frame_needed = 0, uses_anonymous_args = 0
 398 0000 00B5     		push	{lr}
 399              		.cfi_def_cfa_offset 4
 400              		.cfi_offset 14, -4
 401 0002 83B0     		sub	sp, sp, #12
 402              		.cfi_def_cfa_offset 16
 403 0004 0190     		str	r0, [sp, #4]
ARM GAS  /tmp/ccoh7056.s 			page 24


 404 0006 0091     		str	r1, [sp]
 405              		.loc 1 92 0
 406 0008 019B     		ldr	r3, [sp, #4]
 407 000a 0B2B     		cmp	r3, #11
 408 000c 05D9     		bls	.L4
 409              		.loc 1 92 0 is_stmt 0 discriminator 1
 410 000e 40F20000 		movw	r0, #:lower16:__func__.7432
 411 0012 C0F20000 		movt	r0, #:upper16:__func__.7432
 412 0016 FFF7FEFF 		bl	chSysHalt
 413              	.L4:
 414              		.loc 1 100 0 is_stmt 1
 415 001a 4FF46D43 		mov	r3, #60672
 416 001e CEF20003 		movt	r3, 57344
 417 0022 009A     		ldr	r2, [sp]
 418 0024 D2B2     		uxtb	r2, r2
 419 0026 1201     		lsls	r2, r2, #4
 420 0028 D2B2     		uxtb	r2, r2
 421 002a 0199     		ldr	r1, [sp, #4]
 422 002c 0B44     		add	r3, r3, r1
 423 002e 1833     		adds	r3, r3, #24
 424 0030 1A70     		strb	r2, [r3]
 425              		.loc 1 102 0
 426 0032 03B0     		add	sp, sp, #12
 427              		@ sp needed
 428 0034 5DF804FB 		ldr	pc, [sp], #4
 429              		.cfi_endproc
 430              	.LFE274:
 431              		.size	nvicSetSystemHandlerPriority, .-nvicSetSystemHandlerPriority
 432 0038 AFF30080 		.section	.text.nvicClearPending,"ax",%progbits
 432      AFF30080 
 433              		.align	2
 434              		.p2align 4,,15
 435              		.global	nvicClearPending
 436              		.thumb
 437              		.thumb_func
 438              		.type	nvicClearPending, %function
 439              	nvicClearPending:
 440              	.LFB275:
 441              		.loc 1 109 0
 442              		.cfi_startproc
 443              		@ args = 0, pretend = 0, frame = 8
 444              		@ frame_needed = 0, uses_anonymous_args = 0
 445              		@ link register save eliminated.
 446 0000 82B0     		sub	sp, sp, #8
 447              		.cfi_def_cfa_offset 8
 448 0002 0190     		str	r0, [sp, #4]
 449              		.loc 1 111 0
 450 0004 4FF46143 		mov	r3, #57600
 451 0008 CEF20003 		movt	r3, 57344
 452 000c 019A     		ldr	r2, [sp, #4]
 453 000e 5209     		lsrs	r2, r2, #5
 454 0010 0199     		ldr	r1, [sp, #4]
 455 0012 01F01F01 		and	r1, r1, #31
 456 0016 0120     		movs	r0, #1
 457 0018 00FA01F1 		lsl	r1, r0, r1
 458 001c 6032     		adds	r2, r2, #96
 459 001e 43F82210 		str	r1, [r3, r2, lsl #2]
ARM GAS  /tmp/ccoh7056.s 			page 25


 460              		.loc 1 112 0
 461 0022 02B0     		add	sp, sp, #8
 462              		@ sp needed
 463 0024 7047     		bx	lr
 464              		.cfi_endproc
 465              	.LFE275:
 466              		.size	nvicClearPending, .-nvicClearPending
 467 0026 00BFAFF3 		.section	.rodata.__func__.7432,"a",%progbits
 467      0080AFF3 
 467      0080
 468              		.align	2
 469              		.type	__func__.7432, %object
 470              		.size	__func__.7432, 29
 471              	__func__.7432:
 472 0000 6E766963 		.ascii	"nvicSetSystemHandlerPriority\000"
 472      53657453 
 472      79737465 
 472      6D48616E 
 472      646C6572 
 473 001d 000000   		.text
 474              	.Letext0:
 475              		.file 2 "/usr/include/newlib/machine/_default_types.h"
 476              		.file 3 "/usr/include/newlib/stdint.h"
 477              		.file 4 "../../../../os/rt/ports/ARMCMx/compilers/GCC/chtypes.h"
 478              		.file 5 "../../../../os/rt/include/chsystypes.h"
 479              		.file 6 "../../../../os/rt/include/chschd.h"
 480              		.file 7 "../../../../os/ext/CMSIS/include/core_cm4.h"
 481              		.file 8 "../../../../os/rt/ports/ARMCMx/chcore.h"
 482              		.file 9 "../../../../os/rt/ports/ARMCMx/chcore_v7m.h"
 483              		.file 10 "../../../../os/rt/include/chdebug.h"
 484              		.file 11 "../../../../os/rt/include/chtm.h"
 485              		.file 12 "../../../../os/rt/include/chstats.h"
 486              		.file 13 "../../../../os/rt/include/chsem.h"
 487              		.file 14 "../../../../os/rt/include/chmtx.h"
 488              		.section	.debug_info,"",%progbits
 489              	.Ldebug_info0:
 490 0000 5E0B0000 		.4byte	0xb5e
 491 0004 0400     		.2byte	0x4
 492 0006 00000000 		.4byte	.Ldebug_abbrev0
 493 000a 04       		.byte	0x4
 494 000b 01       		.uleb128 0x1
 495 000c E7020000 		.4byte	.LASF164
 496 0010 01       		.byte	0x1
 497 0011 28060000 		.4byte	.LASF165
 498 0015 5B020000 		.4byte	.LASF166
 499 0019 00000000 		.4byte	.Ldebug_ranges0+0
 500 001d 00000000 		.4byte	0
 501 0021 00000000 		.4byte	.Ldebug_line0
 502 0025 02       		.uleb128 0x2
 503 0026 04       		.byte	0x4
 504 0027 05       		.byte	0x5
 505 0028 696E7400 		.ascii	"int\000"
 506 002c 03       		.uleb128 0x3
 507 002d 04       		.byte	0x4
 508 002e 07       		.byte	0x7
 509 002f 11020000 		.4byte	.LASF0
 510 0033 03       		.uleb128 0x3
ARM GAS  /tmp/ccoh7056.s 			page 26


 511 0034 01       		.byte	0x1
 512 0035 06       		.byte	0x6
 513 0036 36010000 		.4byte	.LASF1
 514 003a 04       		.uleb128 0x4
 515 003b 4C000000 		.4byte	.LASF5
 516 003f 02       		.byte	0x2
 517 0040 1C       		.byte	0x1c
 518 0041 45000000 		.4byte	0x45
 519 0045 03       		.uleb128 0x3
 520 0046 01       		.byte	0x1
 521 0047 08       		.byte	0x8
 522 0048 FA040000 		.4byte	.LASF2
 523 004c 03       		.uleb128 0x3
 524 004d 02       		.byte	0x2
 525 004e 05       		.byte	0x5
 526 004f 2D050000 		.4byte	.LASF3
 527 0053 03       		.uleb128 0x3
 528 0054 02       		.byte	0x2
 529 0055 07       		.byte	0x7
 530 0056 90050000 		.4byte	.LASF4
 531 005a 04       		.uleb128 0x4
 532 005b B9030000 		.4byte	.LASF6
 533 005f 02       		.byte	0x2
 534 0060 37       		.byte	0x37
 535 0061 65000000 		.4byte	0x65
 536 0065 03       		.uleb128 0x3
 537 0066 04       		.byte	0x4
 538 0067 05       		.byte	0x5
 539 0068 74010000 		.4byte	.LASF7
 540 006c 04       		.uleb128 0x4
 541 006d 89060000 		.4byte	.LASF8
 542 0071 02       		.byte	0x2
 543 0072 38       		.byte	0x38
 544 0073 77000000 		.4byte	0x77
 545 0077 03       		.uleb128 0x3
 546 0078 04       		.byte	0x4
 547 0079 07       		.byte	0x7
 548 007a 07060000 		.4byte	.LASF9
 549 007e 03       		.uleb128 0x3
 550 007f 08       		.byte	0x8
 551 0080 05       		.byte	0x5
 552 0081 28010000 		.4byte	.LASF10
 553 0085 04       		.uleb128 0x4
 554 0086 8E040000 		.4byte	.LASF11
 555 008a 02       		.byte	0x2
 556 008b 4E       		.byte	0x4e
 557 008c 90000000 		.4byte	0x90
 558 0090 03       		.uleb128 0x3
 559 0091 08       		.byte	0x8
 560 0092 07       		.byte	0x7
 561 0093 9B000000 		.4byte	.LASF12
 562 0097 04       		.uleb128 0x4
 563 0098 F4060000 		.4byte	.LASF13
 564 009c 03       		.byte	0x3
 565 009d 2A       		.byte	0x2a
 566 009e 3A000000 		.4byte	0x3a
 567 00a2 04       		.uleb128 0x4
ARM GAS  /tmp/ccoh7056.s 			page 27


 568 00a3 F2040000 		.4byte	.LASF14
 569 00a7 03       		.byte	0x3
 570 00a8 41       		.byte	0x41
 571 00a9 5A000000 		.4byte	0x5a
 572 00ad 04       		.uleb128 0x4
 573 00ae D6050000 		.4byte	.LASF15
 574 00b2 03       		.byte	0x3
 575 00b3 42       		.byte	0x42
 576 00b4 6C000000 		.4byte	0x6c
 577 00b8 04       		.uleb128 0x4
 578 00b9 36000000 		.4byte	.LASF16
 579 00bd 03       		.byte	0x3
 580 00be 4E       		.byte	0x4e
 581 00bf 85000000 		.4byte	0x85
 582 00c3 04       		.uleb128 0x4
 583 00c4 B2060000 		.4byte	.LASF17
 584 00c8 04       		.byte	0x4
 585 00c9 39       		.byte	0x39
 586 00ca AD000000 		.4byte	0xad
 587 00ce 04       		.uleb128 0x4
 588 00cf FD000000 		.4byte	.LASF18
 589 00d3 04       		.byte	0x4
 590 00d4 3A       		.byte	0x3a
 591 00d5 B8000000 		.4byte	0xb8
 592 00d9 04       		.uleb128 0x4
 593 00da 78050000 		.4byte	.LASF19
 594 00de 04       		.byte	0x4
 595 00df 3C       		.byte	0x3c
 596 00e0 97000000 		.4byte	0x97
 597 00e4 04       		.uleb128 0x4
 598 00e5 7D010000 		.4byte	.LASF20
 599 00e9 04       		.byte	0x4
 600 00ea 3D       		.byte	0x3d
 601 00eb 97000000 		.4byte	0x97
 602 00ef 04       		.uleb128 0x4
 603 00f0 A4040000 		.4byte	.LASF21
 604 00f4 04       		.byte	0x4
 605 00f5 3E       		.byte	0x3e
 606 00f6 97000000 		.4byte	0x97
 607 00fa 04       		.uleb128 0x4
 608 00fb DB040000 		.4byte	.LASF22
 609 00ff 04       		.byte	0x4
 610 0100 40       		.byte	0x40
 611 0101 AD000000 		.4byte	0xad
 612 0105 04       		.uleb128 0x4
 613 0106 BD020000 		.4byte	.LASF23
 614 010a 04       		.byte	0x4
 615 010b 41       		.byte	0x41
 616 010c A2000000 		.4byte	0xa2
 617 0110 04       		.uleb128 0x4
 618 0111 AD030000 		.4byte	.LASF24
 619 0115 04       		.byte	0x4
 620 0116 43       		.byte	0x43
 621 0117 AD000000 		.4byte	0xad
 622 011b 04       		.uleb128 0x4
 623 011c 00020000 		.4byte	.LASF25
 624 0120 04       		.byte	0x4
ARM GAS  /tmp/ccoh7056.s 			page 28


 625 0121 45       		.byte	0x45
 626 0122 A2000000 		.4byte	0xa2
 627 0126 04       		.uleb128 0x4
 628 0127 CE020000 		.4byte	.LASF26
 629 012b 04       		.byte	0x4
 630 012c 46       		.byte	0x46
 631 012d AD000000 		.4byte	0xad
 632 0131 04       		.uleb128 0x4
 633 0132 6B060000 		.4byte	.LASF27
 634 0136 05       		.byte	0x5
 635 0137 33       		.byte	0x33
 636 0138 AD000000 		.4byte	0xad
 637 013c 04       		.uleb128 0x4
 638 013d 56060000 		.4byte	.LASF28
 639 0141 05       		.byte	0x5
 640 0142 3F       		.byte	0x3f
 641 0143 47010000 		.4byte	0x147
 642 0147 05       		.uleb128 0x5
 643 0148 AE020000 		.4byte	.LASF50
 644 014c 60       		.byte	0x60
 645 014d 06       		.byte	0x6
 646 014e C2       		.byte	0xc2
 647 014f 4D020000 		.4byte	0x24d
 648 0153 06       		.uleb128 0x6
 649 0154 71050000 		.4byte	.LASF29
 650 0158 06       		.byte	0x6
 651 0159 C3       		.byte	0xc3
 652 015a 58020000 		.4byte	0x258
 653 015e 00       		.byte	0
 654 015f 06       		.uleb128 0x6
 655 0160 D4040000 		.4byte	.LASF30
 656 0164 06       		.byte	0x6
 657 0165 C5       		.byte	0xc5
 658 0166 58020000 		.4byte	0x258
 659 016a 04       		.byte	0x4
 660 016b 06       		.uleb128 0x6
 661 016c 0B010000 		.4byte	.LASF31
 662 0170 06       		.byte	0x6
 663 0171 C7       		.byte	0xc7
 664 0172 FA000000 		.4byte	0xfa
 665 0176 08       		.byte	0x8
 666 0177 06       		.uleb128 0x6
 667 0178 53070000 		.4byte	.LASF32
 668 017c 06       		.byte	0x6
 669 017d C8       		.byte	0xc8
 670 017e 8C070000 		.4byte	0x78c
 671 0182 0C       		.byte	0xc
 672 0183 06       		.uleb128 0x6
 673 0184 8C010000 		.4byte	.LASF33
 674 0188 06       		.byte	0x6
 675 0189 CA       		.byte	0xca
 676 018a 58020000 		.4byte	0x258
 677 018e 10       		.byte	0x10
 678 018f 06       		.uleb128 0x6
 679 0190 4F040000 		.4byte	.LASF34
 680 0194 06       		.byte	0x6
 681 0195 CB       		.byte	0xcb
ARM GAS  /tmp/ccoh7056.s 			page 29


 682 0196 58020000 		.4byte	0x258
 683 019a 14       		.byte	0x14
 684 019b 06       		.uleb128 0x6
 685 019c 11070000 		.4byte	.LASF35
 686 01a0 06       		.byte	0x6
 687 01a1 D2       		.byte	0xd2
 688 01a2 300A0000 		.4byte	0xa30
 689 01a6 18       		.byte	0x18
 690 01a7 06       		.uleb128 0x6
 691 01a8 06020000 		.4byte	.LASF36
 692 01ac 06       		.byte	0x6
 693 01ad D8       		.byte	0xd8
 694 01ae 420A0000 		.4byte	0xa42
 695 01b2 1C       		.byte	0x1c
 696 01b3 06       		.uleb128 0x6
 697 01b4 1B050000 		.4byte	.LASF37
 698 01b8 06       		.byte	0x6
 699 01b9 DD       		.byte	0xdd
 700 01ba E4000000 		.4byte	0xe4
 701 01be 20       		.byte	0x20
 702 01bf 06       		.uleb128 0x6
 703 01c0 80050000 		.4byte	.LASF38
 704 01c4 06       		.byte	0x6
 705 01c5 E1       		.byte	0xe1
 706 01c6 D9000000 		.4byte	0xd9
 707 01ca 21       		.byte	0x21
 708 01cb 06       		.uleb128 0x6
 709 01cc DA060000 		.4byte	.LASF39
 710 01d0 06       		.byte	0x6
 711 01d1 E6       		.byte	0xe6
 712 01d2 EF000000 		.4byte	0xef
 713 01d6 22       		.byte	0x22
 714 01d7 07       		.uleb128 0x7
 715 01d8 705F7500 		.ascii	"p_u\000"
 716 01dc 06       		.byte	0x6
 717 01dd 3101     		.2byte	0x131
 718 01df 6B090000 		.4byte	0x96b
 719 01e3 24       		.byte	0x24
 720 01e4 08       		.uleb128 0x8
 721 01e5 E6030000 		.4byte	.LASF40
 722 01e9 06       		.byte	0x6
 723 01ea 3601     		.2byte	0x136
 724 01ec 5E020000 		.4byte	0x25e
 725 01f0 28       		.byte	0x28
 726 01f1 08       		.uleb128 0x8
 727 01f2 3F020000 		.4byte	.LASF41
 728 01f6 06       		.byte	0x6
 729 01f7 3C01     		.2byte	0x13c
 730 01f9 82020000 		.4byte	0x282
 731 01fd 2C       		.byte	0x2c
 732 01fe 08       		.uleb128 0x8
 733 01ff 25070000 		.4byte	.LASF42
 734 0203 06       		.byte	0x6
 735 0204 4001     		.2byte	0x140
 736 0206 05010000 		.4byte	0x105
 737 020a 34       		.byte	0x34
 738 020b 08       		.uleb128 0x8
ARM GAS  /tmp/ccoh7056.s 			page 30


 739 020c C1050000 		.4byte	.LASF43
 740 0210 06       		.byte	0x6
 741 0211 4601     		.2byte	0x146
 742 0213 10010000 		.4byte	0x110
 743 0217 38       		.byte	0x38
 744 0218 08       		.uleb128 0x8
 745 0219 23050000 		.4byte	.LASF44
 746 021d 06       		.byte	0x6
 747 021e 4D01     		.2byte	0x14d
 748 0220 2A0A0000 		.4byte	0xa2a
 749 0224 3C       		.byte	0x3c
 750 0225 08       		.uleb128 0x8
 751 0226 75060000 		.4byte	.LASF45
 752 022a 06       		.byte	0x6
 753 022b 5101     		.2byte	0x151
 754 022d FA000000 		.4byte	0xfa
 755 0231 40       		.byte	0x40
 756 0232 08       		.uleb128 0x8
 757 0233 42010000 		.4byte	.LASF46
 758 0237 06       		.byte	0x6
 759 0238 5801     		.2byte	0x158
 760 023a 35030000 		.4byte	0x335
 761 023e 44       		.byte	0x44
 762 023f 08       		.uleb128 0x8
 763 0240 88050000 		.4byte	.LASF47
 764 0244 06       		.byte	0x6
 765 0245 5E01     		.2byte	0x15e
 766 0247 1C090000 		.4byte	0x91c
 767 024b 48       		.byte	0x48
 768 024c 00       		.byte	0
 769 024d 04       		.uleb128 0x4
 770 024e F9030000 		.4byte	.LASF48
 771 0252 05       		.byte	0x5
 772 0253 44       		.byte	0x44
 773 0254 58020000 		.4byte	0x258
 774 0258 09       		.uleb128 0x9
 775 0259 04       		.byte	0x4
 776 025a 3C010000 		.4byte	0x13c
 777 025e 04       		.uleb128 0x4
 778 025f 00000000 		.4byte	.LASF49
 779 0263 05       		.byte	0x5
 780 0264 49       		.byte	0x49
 781 0265 69020000 		.4byte	0x269
 782 0269 05       		.uleb128 0x5
 783 026a F7050000 		.4byte	.LASF51
 784 026e 04       		.byte	0x4
 785 026f 06       		.byte	0x6
 786 0270 B0       		.byte	0xb0
 787 0271 82020000 		.4byte	0x282
 788 0275 06       		.uleb128 0x6
 789 0276 71050000 		.4byte	.LASF29
 790 027a 06       		.byte	0x6
 791 027b B1       		.byte	0xb1
 792 027c 58020000 		.4byte	0x258
 793 0280 00       		.byte	0
 794 0281 00       		.byte	0
 795 0282 04       		.uleb128 0x4
ARM GAS  /tmp/ccoh7056.s 			page 31


 796 0283 C1060000 		.4byte	.LASF52
 797 0287 05       		.byte	0x5
 798 0288 50       		.byte	0x50
 799 0289 8D020000 		.4byte	0x28d
 800 028d 05       		.uleb128 0x5
 801 028e 62000000 		.4byte	.LASF53
 802 0292 08       		.byte	0x8
 803 0293 06       		.byte	0x6
 804 0294 B7       		.byte	0xb7
 805 0295 B2020000 		.4byte	0x2b2
 806 0299 06       		.uleb128 0x6
 807 029a 71050000 		.4byte	.LASF29
 808 029e 06       		.byte	0x6
 809 029f B8       		.byte	0xb8
 810 02a0 58020000 		.4byte	0x258
 811 02a4 00       		.byte	0
 812 02a5 06       		.uleb128 0x6
 813 02a6 D4040000 		.4byte	.LASF30
 814 02aa 06       		.byte	0x6
 815 02ab B9       		.byte	0xb9
 816 02ac 58020000 		.4byte	0x258
 817 02b0 04       		.byte	0x4
 818 02b1 00       		.byte	0
 819 02b2 04       		.uleb128 0x4
 820 02b3 14000000 		.4byte	.LASF54
 821 02b7 05       		.byte	0x5
 822 02b8 57       		.byte	0x57
 823 02b9 BD020000 		.4byte	0x2bd
 824 02bd 0A       		.uleb128 0xa
 825 02be 9F030000 		.4byte	.LASF55
 826 02c2 1C       		.byte	0x1c
 827 02c3 06       		.byte	0x6
 828 02c4 9001     		.2byte	0x190
 829 02c6 19030000 		.4byte	0x319
 830 02ca 08       		.uleb128 0x8
 831 02cb E6050000 		.4byte	.LASF56
 832 02cf 06       		.byte	0x6
 833 02d0 9101     		.2byte	0x191
 834 02d2 82020000 		.4byte	0x282
 835 02d6 00       		.byte	0
 836 02d7 08       		.uleb128 0x8
 837 02d8 63050000 		.4byte	.LASF57
 838 02dc 06       		.byte	0x6
 839 02dd 9201     		.2byte	0x192
 840 02df FA000000 		.4byte	0xfa
 841 02e3 08       		.byte	0x8
 842 02e4 08       		.uleb128 0x8
 843 02e5 65040000 		.4byte	.LASF58
 844 02e9 06       		.byte	0x6
 845 02ea 9401     		.2byte	0x194
 846 02ec 8C070000 		.4byte	0x78c
 847 02f0 0C       		.byte	0xc
 848 02f1 08       		.uleb128 0x8
 849 02f2 AE010000 		.4byte	.LASF59
 850 02f6 06       		.byte	0x6
 851 02f7 9701     		.2byte	0x197
 852 02f9 58020000 		.4byte	0x258
ARM GAS  /tmp/ccoh7056.s 			page 32


 853 02fd 10       		.byte	0x10
 854 02fe 08       		.uleb128 0x8
 855 02ff 86040000 		.4byte	.LASF60
 856 0303 06       		.byte	0x6
 857 0304 9801     		.2byte	0x198
 858 0306 58020000 		.4byte	0x258
 859 030a 14       		.byte	0x14
 860 030b 08       		.uleb128 0x8
 861 030c 19060000 		.4byte	.LASF61
 862 0310 06       		.byte	0x6
 863 0311 9B01     		.2byte	0x19b
 864 0313 58020000 		.4byte	0x258
 865 0317 18       		.byte	0x18
 866 0318 00       		.byte	0
 867 0319 04       		.uleb128 0x4
 868 031a 80060000 		.4byte	.LASF62
 869 031e 05       		.byte	0x5
 870 031f 5C       		.byte	0x5c
 871 0320 24030000 		.4byte	0x324
 872 0324 09       		.uleb128 0x9
 873 0325 04       		.byte	0x4
 874 0326 2A030000 		.4byte	0x32a
 875 032a 0B       		.uleb128 0xb
 876 032b 35030000 		.4byte	0x335
 877 032f 0C       		.uleb128 0xc
 878 0330 35030000 		.4byte	0x335
 879 0334 00       		.byte	0
 880 0335 0D       		.uleb128 0xd
 881 0336 04       		.byte	0x4
 882 0337 04       		.uleb128 0x4
 883 0338 D6030000 		.4byte	.LASF63
 884 033c 05       		.byte	0x5
 885 033d 61       		.byte	0x61
 886 033e 42030000 		.4byte	0x342
 887 0342 0A       		.uleb128 0xa
 888 0343 A3050000 		.4byte	.LASF64
 889 0347 14       		.byte	0x14
 890 0348 06       		.byte	0x6
 891 0349 6B01     		.2byte	0x16b
 892 034b 91030000 		.4byte	0x391
 893 034f 08       		.uleb128 0x8
 894 0350 1E020000 		.4byte	.LASF65
 895 0354 06       		.byte	0x6
 896 0355 6C01     		.2byte	0x16c
 897 0357 480A0000 		.4byte	0xa48
 898 035b 00       		.byte	0
 899 035c 08       		.uleb128 0x8
 900 035d BF010000 		.4byte	.LASF66
 901 0361 06       		.byte	0x6
 902 0362 6D01     		.2byte	0x16d
 903 0364 480A0000 		.4byte	0xa48
 904 0368 04       		.byte	0x4
 905 0369 08       		.uleb128 0x8
 906 036a EE050000 		.4byte	.LASF67
 907 036e 06       		.byte	0x6
 908 036f 6E01     		.2byte	0x16e
 909 0371 31010000 		.4byte	0x131
ARM GAS  /tmp/ccoh7056.s 			page 33


 910 0375 08       		.byte	0x8
 911 0376 08       		.uleb128 0x8
 912 0377 59070000 		.4byte	.LASF68
 913 037b 06       		.byte	0x6
 914 037c 6F01     		.2byte	0x16f
 915 037e 19030000 		.4byte	0x319
 916 0382 0C       		.byte	0xc
 917 0383 08       		.uleb128 0x8
 918 0384 BA060000 		.4byte	.LASF69
 919 0388 06       		.byte	0x6
 920 0389 7101     		.2byte	0x171
 921 038b 35030000 		.4byte	0x335
 922 038f 10       		.byte	0x10
 923 0390 00       		.byte	0
 924 0391 04       		.uleb128 0x4
 925 0392 E1000000 		.4byte	.LASF70
 926 0396 05       		.byte	0x5
 927 0397 66       		.byte	0x66
 928 0398 9C030000 		.4byte	0x39c
 929 039c 0A       		.uleb128 0xa
 930 039d 0C040000 		.4byte	.LASF71
 931 03a1 10       		.byte	0x10
 932 03a2 06       		.byte	0x6
 933 03a3 7B01     		.2byte	0x17b
 934 03a5 DE030000 		.4byte	0x3de
 935 03a9 08       		.uleb128 0x8
 936 03aa 1E020000 		.4byte	.LASF65
 937 03ae 06       		.byte	0x6
 938 03af 7C01     		.2byte	0x17c
 939 03b1 480A0000 		.4byte	0xa48
 940 03b5 00       		.byte	0
 941 03b6 08       		.uleb128 0x8
 942 03b7 BF010000 		.4byte	.LASF66
 943 03bb 06       		.byte	0x6
 944 03bc 7E01     		.2byte	0x17e
 945 03be 480A0000 		.4byte	0xa48
 946 03c2 04       		.byte	0x4
 947 03c3 08       		.uleb128 0x8
 948 03c4 EE050000 		.4byte	.LASF67
 949 03c8 06       		.byte	0x6
 950 03c9 8001     		.2byte	0x180
 951 03cb 31010000 		.4byte	0x131
 952 03cf 08       		.byte	0x8
 953 03d0 08       		.uleb128 0x8
 954 03d1 43040000 		.4byte	.LASF72
 955 03d5 06       		.byte	0x6
 956 03d6 8801     		.2byte	0x188
 957 03d8 31010000 		.4byte	0x131
 958 03dc 0C       		.byte	0xc
 959 03dd 00       		.byte	0
 960 03de 04       		.uleb128 0x4
 961 03df 73000000 		.4byte	.LASF73
 962 03e3 05       		.byte	0x5
 963 03e4 6B       		.byte	0x6b
 964 03e5 E9030000 		.4byte	0x3e9
 965 03e9 0E       		.uleb128 0xe
 966 03ea D0010000 		.4byte	.LASF74
ARM GAS  /tmp/ccoh7056.s 			page 34


 967 03ee 1404     		.2byte	0x414
 968 03f0 06       		.byte	0x6
 969 03f1 A201     		.2byte	0x1a2
 970 03f3 2C040000 		.4byte	0x42c
 971 03f7 08       		.uleb128 0x8
 972 03f8 99060000 		.4byte	.LASF75
 973 03fc 06       		.byte	0x6
 974 03fd AA01     		.2byte	0x1aa
 975 03ff 4E0A0000 		.4byte	0xa4e
 976 0403 00       		.byte	0
 977 0404 08       		.uleb128 0x8
 978 0405 E1060000 		.4byte	.LASF76
 979 0409 06       		.byte	0x6
 980 040a AF01     		.2byte	0x1af
 981 040c 1B010000 		.4byte	0x11b
 982 0410 04       		.byte	0x4
 983 0411 08       		.uleb128 0x8
 984 0412 E8010000 		.4byte	.LASF77
 985 0416 06       		.byte	0x6
 986 0417 B301     		.2byte	0x1b3
 987 0419 1B010000 		.4byte	0x11b
 988 041d 08       		.byte	0x8
 989 041e 08       		.uleb128 0x8
 990 041f 18070000 		.4byte	.LASF78
 991 0423 06       		.byte	0x6
 992 0424 B901     		.2byte	0x1b9
 993 0426 AE080000 		.4byte	0x8ae
 994 042a 0C       		.byte	0xc
 995 042b 00       		.byte	0
 996 042c 04       		.uleb128 0x4
 997 042d DB020000 		.4byte	.LASF79
 998 0431 05       		.byte	0x5
 999 0432 70       		.byte	0x70
 1000 0433 37040000 		.4byte	0x437
 1001 0437 0E       		.uleb128 0xe
 1002 0438 6A010000 		.4byte	.LASF80
 1003 043c D805     		.2byte	0x5d8
 1004 043e 06       		.byte	0x6
 1005 043f C201     		.2byte	0x1c2
 1006 0441 A4040000 		.4byte	0x4a4
 1007 0445 08       		.uleb128 0x8
 1008 0446 EE060000 		.4byte	.LASF81
 1009 044a 06       		.byte	0x6
 1010 044b C601     		.2byte	0x1c6
 1011 044d B2020000 		.4byte	0x2b2
 1012 0451 00       		.byte	0
 1013 0452 08       		.uleb128 0x8
 1014 0453 63010000 		.4byte	.LASF82
 1015 0457 06       		.byte	0x6
 1016 0458 CA01     		.2byte	0x1ca
 1017 045a 91030000 		.4byte	0x391
 1018 045e 1C       		.byte	0x1c
 1019 045f 07       		.uleb128 0x7
 1020 0460 64626700 		.ascii	"dbg\000"
 1021 0464 06       		.byte	0x6
 1022 0465 CE01     		.2byte	0x1ce
 1023 0467 DE030000 		.4byte	0x3de
ARM GAS  /tmp/ccoh7056.s 			page 35


 1024 046b 2C       		.byte	0x2c
 1025 046c 0F       		.uleb128 0xf
 1026 046d D6000000 		.4byte	.LASF83
 1027 0471 06       		.byte	0x6
 1028 0472 D201     		.2byte	0x1d2
 1029 0474 3C010000 		.4byte	0x13c
 1030 0478 4004     		.2byte	0x440
 1031 047a 10       		.uleb128 0x10
 1032 047b 746D00   		.ascii	"tm\000"
 1033 047e 06       		.byte	0x6
 1034 047f D701     		.2byte	0x1d7
 1035 0481 CE080000 		.4byte	0x8ce
 1036 0485 A004     		.2byte	0x4a0
 1037 0487 0F       		.uleb128 0xf
 1038 0488 3F000000 		.4byte	.LASF84
 1039 048c 06       		.byte	0x6
 1040 048d DD01     		.2byte	0x1dd
 1041 048f 60090000 		.4byte	0x960
 1042 0493 A804     		.2byte	0x4a8
 1043 0495 0F       		.uleb128 0xf
 1044 0496 F1010000 		.4byte	.LASF85
 1045 049a 06       		.byte	0x6
 1046 049b E301     		.2byte	0x1e3
 1047 049d 530A0000 		.4byte	0xa53
 1048 04a1 E004     		.2byte	0x4e0
 1049 04a3 00       		.byte	0
 1050 04a4 11       		.uleb128 0x11
 1051 04a5 040E     		.2byte	0xe04
 1052 04a7 07       		.byte	0x7
 1053 04a8 A001     		.2byte	0x1a0
 1054 04aa 60050000 		.4byte	0x560
 1055 04ae 08       		.uleb128 0x8
 1056 04af 37050000 		.4byte	.LASF86
 1057 04b3 07       		.byte	0x7
 1058 04b4 A201     		.2byte	0x1a2
 1059 04b6 77050000 		.4byte	0x577
 1060 04ba 00       		.byte	0
 1061 04bb 08       		.uleb128 0x8
 1062 04bc AC040000 		.4byte	.LASF87
 1063 04c0 07       		.byte	0x7
 1064 04c1 A301     		.2byte	0x1a3
 1065 04c3 7C050000 		.4byte	0x57c
 1066 04c7 20       		.byte	0x20
 1067 04c8 08       		.uleb128 0x8
 1068 04c9 7C040000 		.4byte	.LASF88
 1069 04cd 07       		.byte	0x7
 1070 04ce A401     		.2byte	0x1a4
 1071 04d0 8C050000 		.4byte	0x58c
 1072 04d4 80       		.byte	0x80
 1073 04d5 08       		.uleb128 0x8
 1074 04d6 FC060000 		.4byte	.LASF89
 1075 04da 07       		.byte	0x7
 1076 04db A501     		.2byte	0x1a5
 1077 04dd 7C050000 		.4byte	0x57c
 1078 04e1 A0       		.byte	0xa0
 1079 04e2 0F       		.uleb128 0xf
 1080 04e3 06010000 		.4byte	.LASF90
ARM GAS  /tmp/ccoh7056.s 			page 36


 1081 04e7 07       		.byte	0x7
 1082 04e8 A601     		.2byte	0x1a6
 1083 04ea 91050000 		.4byte	0x591
 1084 04ee 0001     		.2byte	0x100
 1085 04f0 0F       		.uleb128 0xf
 1086 04f1 B6040000 		.4byte	.LASF91
 1087 04f5 07       		.byte	0x7
 1088 04f6 A701     		.2byte	0x1a7
 1089 04f8 7C050000 		.4byte	0x57c
 1090 04fc 2001     		.2byte	0x120
 1091 04fe 0F       		.uleb128 0xf
 1092 04ff 0F000000 		.4byte	.LASF92
 1093 0503 07       		.byte	0x7
 1094 0504 A801     		.2byte	0x1a8
 1095 0506 96050000 		.4byte	0x596
 1096 050a 8001     		.2byte	0x180
 1097 050c 0F       		.uleb128 0xf
 1098 050d C0040000 		.4byte	.LASF93
 1099 0511 07       		.byte	0x7
 1100 0512 A901     		.2byte	0x1a9
 1101 0514 7C050000 		.4byte	0x57c
 1102 0518 A001     		.2byte	0x1a0
 1103 051a 0F       		.uleb128 0xf
 1104 051b 2F040000 		.4byte	.LASF94
 1105 051f 07       		.byte	0x7
 1106 0520 AA01     		.2byte	0x1aa
 1107 0522 9B050000 		.4byte	0x59b
 1108 0526 0002     		.2byte	0x200
 1109 0528 0F       		.uleb128 0xf
 1110 0529 CA040000 		.4byte	.LASF95
 1111 052d 07       		.byte	0x7
 1112 052e AB01     		.2byte	0x1ab
 1113 0530 A0050000 		.4byte	0x5a0
 1114 0534 2002     		.2byte	0x220
 1115 0536 10       		.uleb128 0x10
 1116 0537 495000   		.ascii	"IP\000"
 1117 053a 07       		.byte	0x7
 1118 053b AC01     		.2byte	0x1ac
 1119 053d C0050000 		.4byte	0x5c0
 1120 0541 0003     		.2byte	0x300
 1121 0543 0F       		.uleb128 0xf
 1122 0544 CC050000 		.4byte	.LASF96
 1123 0548 07       		.byte	0x7
 1124 0549 AD01     		.2byte	0x1ad
 1125 054b C5050000 		.4byte	0x5c5
 1126 054f F003     		.2byte	0x3f0
 1127 0551 0F       		.uleb128 0xf
 1128 0552 05070000 		.4byte	.LASF97
 1129 0556 07       		.byte	0x7
 1130 0557 AE01     		.2byte	0x1ae
 1131 0559 D6050000 		.4byte	0x5d6
 1132 055d 000E     		.2byte	0xe00
 1133 055f 00       		.byte	0
 1134 0560 12       		.uleb128 0x12
 1135 0561 AD000000 		.4byte	0xad
 1136 0565 70050000 		.4byte	0x570
 1137 0569 13       		.uleb128 0x13
ARM GAS  /tmp/ccoh7056.s 			page 37


 1138 056a 70050000 		.4byte	0x570
 1139 056e 07       		.byte	0x7
 1140 056f 00       		.byte	0
 1141 0570 03       		.uleb128 0x3
 1142 0571 04       		.byte	0x4
 1143 0572 07       		.byte	0x7
 1144 0573 F0030000 		.4byte	.LASF98
 1145 0577 14       		.uleb128 0x14
 1146 0578 60050000 		.4byte	0x560
 1147 057c 12       		.uleb128 0x12
 1148 057d AD000000 		.4byte	0xad
 1149 0581 8C050000 		.4byte	0x58c
 1150 0585 13       		.uleb128 0x13
 1151 0586 70050000 		.4byte	0x570
 1152 058a 17       		.byte	0x17
 1153 058b 00       		.byte	0
 1154 058c 14       		.uleb128 0x14
 1155 058d 60050000 		.4byte	0x560
 1156 0591 14       		.uleb128 0x14
 1157 0592 60050000 		.4byte	0x560
 1158 0596 14       		.uleb128 0x14
 1159 0597 60050000 		.4byte	0x560
 1160 059b 14       		.uleb128 0x14
 1161 059c 60050000 		.4byte	0x560
 1162 05a0 12       		.uleb128 0x12
 1163 05a1 AD000000 		.4byte	0xad
 1164 05a5 B0050000 		.4byte	0x5b0
 1165 05a9 13       		.uleb128 0x13
 1166 05aa 70050000 		.4byte	0x570
 1167 05ae 37       		.byte	0x37
 1168 05af 00       		.byte	0
 1169 05b0 12       		.uleb128 0x12
 1170 05b1 97000000 		.4byte	0x97
 1171 05b5 C0050000 		.4byte	0x5c0
 1172 05b9 13       		.uleb128 0x13
 1173 05ba 70050000 		.4byte	0x570
 1174 05be EF       		.byte	0xef
 1175 05bf 00       		.byte	0
 1176 05c0 14       		.uleb128 0x14
 1177 05c1 B0050000 		.4byte	0x5b0
 1178 05c5 12       		.uleb128 0x12
 1179 05c6 AD000000 		.4byte	0xad
 1180 05ca D6050000 		.4byte	0x5d6
 1181 05ce 15       		.uleb128 0x15
 1182 05cf 70050000 		.4byte	0x570
 1183 05d3 8302     		.2byte	0x283
 1184 05d5 00       		.byte	0
 1185 05d6 14       		.uleb128 0x14
 1186 05d7 AD000000 		.4byte	0xad
 1187 05db 16       		.uleb128 0x16
 1188 05dc 3C050000 		.4byte	.LASF99
 1189 05e0 07       		.byte	0x7
 1190 05e1 AF01     		.2byte	0x1af
 1191 05e3 A4040000 		.4byte	0x4a4
 1192 05e7 17       		.uleb128 0x17
 1193 05e8 8C       		.byte	0x8c
 1194 05e9 07       		.byte	0x7
ARM GAS  /tmp/ccoh7056.s 			page 38


 1195 05ea C001     		.2byte	0x1c0
 1196 05ec 02070000 		.4byte	0x702
 1197 05f0 08       		.uleb128 0x8
 1198 05f1 F7000000 		.4byte	.LASF100
 1199 05f5 07       		.byte	0x7
 1200 05f6 C201     		.2byte	0x1c2
 1201 05f8 02070000 		.4byte	0x702
 1202 05fc 00       		.byte	0
 1203 05fd 08       		.uleb128 0x8
 1204 05fe B8020000 		.4byte	.LASF101
 1205 0602 07       		.byte	0x7
 1206 0603 C301     		.2byte	0x1c3
 1207 0605 D6050000 		.4byte	0x5d6
 1208 0609 04       		.byte	0x4
 1209 060a 08       		.uleb128 0x8
 1210 060b 50020000 		.4byte	.LASF102
 1211 060f 07       		.byte	0x7
 1212 0610 C401     		.2byte	0x1c4
 1213 0612 D6050000 		.4byte	0x5d6
 1214 0616 08       		.byte	0x8
 1215 0617 08       		.uleb128 0x8
 1216 0618 C3020000 		.4byte	.LASF103
 1217 061c 07       		.byte	0x7
 1218 061d C501     		.2byte	0x1c5
 1219 061f D6050000 		.4byte	0x5d6
 1220 0623 0C       		.byte	0xc
 1221 0624 07       		.uleb128 0x7
 1222 0625 53435200 		.ascii	"SCR\000"
 1223 0629 07       		.byte	0x7
 1224 062a C601     		.2byte	0x1c6
 1225 062c D6050000 		.4byte	0x5d6
 1226 0630 10       		.byte	0x10
 1227 0631 07       		.uleb128 0x7
 1228 0632 43435200 		.ascii	"CCR\000"
 1229 0636 07       		.byte	0x7
 1230 0637 C701     		.2byte	0x1c7
 1231 0639 D6050000 		.4byte	0x5d6
 1232 063d 14       		.byte	0x14
 1233 063e 07       		.uleb128 0x7
 1234 063f 53485000 		.ascii	"SHP\000"
 1235 0643 07       		.byte	0x7
 1236 0644 C801     		.2byte	0x1c8
 1237 0646 17070000 		.4byte	0x717
 1238 064a 18       		.byte	0x18
 1239 064b 08       		.uleb128 0x8
 1240 064c 08050000 		.4byte	.LASF104
 1241 0650 07       		.byte	0x7
 1242 0651 C901     		.2byte	0x1c9
 1243 0653 D6050000 		.4byte	0x5d6
 1244 0657 24       		.byte	0x24
 1245 0658 08       		.uleb128 0x8
 1246 0659 23040000 		.4byte	.LASF105
 1247 065d 07       		.byte	0x7
 1248 065e CA01     		.2byte	0x1ca
 1249 0660 D6050000 		.4byte	0x5d6
 1250 0664 28       		.byte	0x28
 1251 0665 08       		.uleb128 0x8
ARM GAS  /tmp/ccoh7056.s 			page 39


 1252 0666 31070000 		.4byte	.LASF106
 1253 066a 07       		.byte	0x7
 1254 066b CB01     		.2byte	0x1cb
 1255 066d D6050000 		.4byte	0x5d6
 1256 0671 2C       		.byte	0x2c
 1257 0672 08       		.uleb128 0x8
 1258 0673 C9020000 		.4byte	.LASF107
 1259 0677 07       		.byte	0x7
 1260 0678 CC01     		.2byte	0x1cc
 1261 067a D6050000 		.4byte	0x5d6
 1262 067e 30       		.byte	0x30
 1263 067f 08       		.uleb128 0x8
 1264 0680 D5020000 		.4byte	.LASF108
 1265 0684 07       		.byte	0x7
 1266 0685 CD01     		.2byte	0x1cd
 1267 0687 D6050000 		.4byte	0x5d6
 1268 068b 34       		.byte	0x34
 1269 068c 08       		.uleb128 0x8
 1270 068d 9C010000 		.4byte	.LASF109
 1271 0691 07       		.byte	0x7
 1272 0692 CE01     		.2byte	0x1ce
 1273 0694 D6050000 		.4byte	0x5d6
 1274 0698 38       		.byte	0x38
 1275 0699 08       		.uleb128 0x8
 1276 069a A9010000 		.4byte	.LASF110
 1277 069e 07       		.byte	0x7
 1278 069f CF01     		.2byte	0x1cf
 1279 06a1 D6050000 		.4byte	0x5d6
 1280 06a5 3C       		.byte	0x3c
 1281 06a6 07       		.uleb128 0x7
 1282 06a7 50465200 		.ascii	"PFR\000"
 1283 06ab 07       		.byte	0x7
 1284 06ac D001     		.2byte	0x1d0
 1285 06ae 2C070000 		.4byte	0x72c
 1286 06b2 40       		.byte	0x40
 1287 06b3 07       		.uleb128 0x7
 1288 06b4 44465200 		.ascii	"DFR\000"
 1289 06b8 07       		.byte	0x7
 1290 06b9 D101     		.2byte	0x1d1
 1291 06bb 02070000 		.4byte	0x702
 1292 06bf 48       		.byte	0x48
 1293 06c0 07       		.uleb128 0x7
 1294 06c1 41445200 		.ascii	"ADR\000"
 1295 06c5 07       		.byte	0x7
 1296 06c6 D201     		.2byte	0x1d2
 1297 06c8 02070000 		.4byte	0x702
 1298 06cc 4C       		.byte	0x4c
 1299 06cd 08       		.uleb128 0x8
 1300 06ce E9060000 		.4byte	.LASF111
 1301 06d2 07       		.byte	0x7
 1302 06d3 D301     		.2byte	0x1d3
 1303 06d5 46070000 		.4byte	0x746
 1304 06d9 50       		.byte	0x50
 1305 06da 08       		.uleb128 0x8
 1306 06db 23010000 		.4byte	.LASF112
 1307 06df 07       		.byte	0x7
 1308 06e0 D401     		.2byte	0x1d4
ARM GAS  /tmp/ccoh7056.s 			page 40


 1309 06e2 60070000 		.4byte	0x760
 1310 06e6 60       		.byte	0x60
 1311 06e7 08       		.uleb128 0x8
 1312 06e8 AC040000 		.4byte	.LASF87
 1313 06ec 07       		.byte	0x7
 1314 06ed D501     		.2byte	0x1d5
 1315 06ef 50070000 		.4byte	0x750
 1316 06f3 74       		.byte	0x74
 1317 06f4 08       		.uleb128 0x8
 1318 06f5 2B070000 		.4byte	.LASF113
 1319 06f9 07       		.byte	0x7
 1320 06fa D601     		.2byte	0x1d6
 1321 06fc D6050000 		.4byte	0x5d6
 1322 0700 88       		.byte	0x88
 1323 0701 00       		.byte	0
 1324 0702 18       		.uleb128 0x18
 1325 0703 D6050000 		.4byte	0x5d6
 1326 0707 12       		.uleb128 0x12
 1327 0708 97000000 		.4byte	0x97
 1328 070c 17070000 		.4byte	0x717
 1329 0710 13       		.uleb128 0x13
 1330 0711 70050000 		.4byte	0x570
 1331 0715 0B       		.byte	0xb
 1332 0716 00       		.byte	0
 1333 0717 14       		.uleb128 0x14
 1334 0718 07070000 		.4byte	0x707
 1335 071c 12       		.uleb128 0x12
 1336 071d AD000000 		.4byte	0xad
 1337 0721 2C070000 		.4byte	0x72c
 1338 0725 13       		.uleb128 0x13
 1339 0726 70050000 		.4byte	0x570
 1340 072a 01       		.byte	0x1
 1341 072b 00       		.byte	0
 1342 072c 18       		.uleb128 0x18
 1343 072d 31070000 		.4byte	0x731
 1344 0731 14       		.uleb128 0x14
 1345 0732 1C070000 		.4byte	0x71c
 1346 0736 12       		.uleb128 0x12
 1347 0737 AD000000 		.4byte	0xad
 1348 073b 46070000 		.4byte	0x746
 1349 073f 13       		.uleb128 0x13
 1350 0740 70050000 		.4byte	0x570
 1351 0744 03       		.byte	0x3
 1352 0745 00       		.byte	0
 1353 0746 18       		.uleb128 0x18
 1354 0747 4B070000 		.4byte	0x74b
 1355 074b 14       		.uleb128 0x14
 1356 074c 36070000 		.4byte	0x736
 1357 0750 12       		.uleb128 0x12
 1358 0751 AD000000 		.4byte	0xad
 1359 0755 60070000 		.4byte	0x760
 1360 0759 13       		.uleb128 0x13
 1361 075a 70050000 		.4byte	0x570
 1362 075e 04       		.byte	0x4
 1363 075f 00       		.byte	0
 1364 0760 18       		.uleb128 0x18
 1365 0761 65070000 		.4byte	0x765
ARM GAS  /tmp/ccoh7056.s 			page 41


 1366 0765 14       		.uleb128 0x14
 1367 0766 50070000 		.4byte	0x750
 1368 076a 16       		.uleb128 0x16
 1369 076b C7010000 		.4byte	.LASF114
 1370 076f 07       		.byte	0x7
 1371 0770 D701     		.2byte	0x1d7
 1372 0772 E7050000 		.4byte	0x5e7
 1373 0776 04       		.uleb128 0x4
 1374 0777 B6010000 		.4byte	.LASF115
 1375 077b 08       		.byte	0x8
 1376 077c 65       		.byte	0x65
 1377 077d 35030000 		.4byte	0x335
 1378 0781 04       		.uleb128 0x4
 1379 0782 C3030000 		.4byte	.LASF116
 1380 0786 08       		.byte	0x8
 1381 0787 6D       		.byte	0x6d
 1382 0788 B8000000 		.4byte	0xb8
 1383 078c 05       		.uleb128 0x5
 1384 078d AA060000 		.4byte	.LASF117
 1385 0791 04       		.byte	0x4
 1386 0792 08       		.byte	0x8
 1387 0793 89       		.byte	0x89
 1388 0794 A5070000 		.4byte	0x7a5
 1389 0798 19       		.uleb128 0x19
 1390 0799 72313300 		.ascii	"r13\000"
 1391 079d 08       		.byte	0x8
 1392 079e 8A       		.byte	0x8a
 1393 079f 20080000 		.4byte	0x820
 1394 07a3 00       		.byte	0
 1395 07a4 00       		.byte	0
 1396 07a5 05       		.uleb128 0x5
 1397 07a6 56000000 		.4byte	.LASF118
 1398 07aa 24       		.byte	0x24
 1399 07ab 09       		.byte	0x9
 1400 07ac FD       		.byte	0xfd
 1401 07ad 20080000 		.4byte	0x820
 1402 07b1 07       		.uleb128 0x7
 1403 07b2 723400   		.ascii	"r4\000"
 1404 07b5 09       		.byte	0x9
 1405 07b6 1001     		.2byte	0x110
 1406 07b8 76070000 		.4byte	0x776
 1407 07bc 00       		.byte	0
 1408 07bd 07       		.uleb128 0x7
 1409 07be 723500   		.ascii	"r5\000"
 1410 07c1 09       		.byte	0x9
 1411 07c2 1101     		.2byte	0x111
 1412 07c4 76070000 		.4byte	0x776
 1413 07c8 04       		.byte	0x4
 1414 07c9 07       		.uleb128 0x7
 1415 07ca 723600   		.ascii	"r6\000"
 1416 07cd 09       		.byte	0x9
 1417 07ce 1201     		.2byte	0x112
 1418 07d0 76070000 		.4byte	0x776
 1419 07d4 08       		.byte	0x8
 1420 07d5 07       		.uleb128 0x7
 1421 07d6 723700   		.ascii	"r7\000"
 1422 07d9 09       		.byte	0x9
ARM GAS  /tmp/ccoh7056.s 			page 42


 1423 07da 1301     		.2byte	0x113
 1424 07dc 76070000 		.4byte	0x776
 1425 07e0 0C       		.byte	0xc
 1426 07e1 07       		.uleb128 0x7
 1427 07e2 723800   		.ascii	"r8\000"
 1428 07e5 09       		.byte	0x9
 1429 07e6 1401     		.2byte	0x114
 1430 07e8 76070000 		.4byte	0x776
 1431 07ec 10       		.byte	0x10
 1432 07ed 07       		.uleb128 0x7
 1433 07ee 723900   		.ascii	"r9\000"
 1434 07f1 09       		.byte	0x9
 1435 07f2 1501     		.2byte	0x115
 1436 07f4 76070000 		.4byte	0x776
 1437 07f8 14       		.byte	0x14
 1438 07f9 07       		.uleb128 0x7
 1439 07fa 72313000 		.ascii	"r10\000"
 1440 07fe 09       		.byte	0x9
 1441 07ff 1601     		.2byte	0x116
 1442 0801 76070000 		.4byte	0x776
 1443 0805 18       		.byte	0x18
 1444 0806 07       		.uleb128 0x7
 1445 0807 72313100 		.ascii	"r11\000"
 1446 080b 09       		.byte	0x9
 1447 080c 1701     		.2byte	0x117
 1448 080e 76070000 		.4byte	0x776
 1449 0812 1C       		.byte	0x1c
 1450 0813 07       		.uleb128 0x7
 1451 0814 6C7200   		.ascii	"lr\000"
 1452 0817 09       		.byte	0x9
 1453 0818 1801     		.2byte	0x118
 1454 081a 76070000 		.4byte	0x776
 1455 081e 20       		.byte	0x20
 1456 081f 00       		.byte	0
 1457 0820 09       		.uleb128 0x9
 1458 0821 04       		.byte	0x4
 1459 0822 A5070000 		.4byte	0x7a5
 1460 0826 1A       		.uleb128 0x1a
 1461 0827 10       		.byte	0x10
 1462 0828 0A       		.byte	0xa
 1463 0829 51       		.byte	0x51
 1464 082a 5F080000 		.4byte	0x85f
 1465 082e 06       		.uleb128 0x6
 1466 082f 21000000 		.4byte	.LASF119
 1467 0833 0A       		.byte	0xa
 1468 0834 55       		.byte	0x55
 1469 0835 31010000 		.4byte	0x131
 1470 0839 00       		.byte	0
 1471 083a 06       		.uleb128 0x6
 1472 083b 86010000 		.4byte	.LASF120
 1473 083f 0A       		.byte	0xa
 1474 0840 59       		.byte	0x59
 1475 0841 58020000 		.4byte	0x258
 1476 0845 04       		.byte	0x4
 1477 0846 06       		.uleb128 0x6
 1478 0847 49070000 		.4byte	.LASF121
 1479 084b 0A       		.byte	0xa
ARM GAS  /tmp/ccoh7056.s 			page 43


 1480 084c 5D       		.byte	0x5d
 1481 084d 35030000 		.4byte	0x335
 1482 0851 08       		.byte	0x8
 1483 0852 06       		.uleb128 0x6
 1484 0853 C4000000 		.4byte	.LASF122
 1485 0857 0A       		.byte	0xa
 1486 0858 61       		.byte	0x61
 1487 0859 97000000 		.4byte	0x97
 1488 085d 0C       		.byte	0xc
 1489 085e 00       		.byte	0
 1490 085f 04       		.uleb128 0x4
 1491 0860 34040000 		.4byte	.LASF123
 1492 0864 0A       		.byte	0xa
 1493 0865 62       		.byte	0x62
 1494 0866 26080000 		.4byte	0x826
 1495 086a 1B       		.uleb128 0x1b
 1496 086b 0804     		.2byte	0x408
 1497 086d 0A       		.byte	0xa
 1498 086e 67       		.byte	0x67
 1499 086f 98080000 		.4byte	0x898
 1500 0873 06       		.uleb128 0x6
 1501 0874 A1010000 		.4byte	.LASF124
 1502 0878 0A       		.byte	0xa
 1503 0879 6B       		.byte	0x6b
 1504 087a 2C000000 		.4byte	0x2c
 1505 087e 00       		.byte	0
 1506 087f 06       		.uleb128 0x6
 1507 0880 28040000 		.4byte	.LASF125
 1508 0884 0A       		.byte	0xa
 1509 0885 6F       		.byte	0x6f
 1510 0886 98080000 		.4byte	0x898
 1511 088a 04       		.byte	0x4
 1512 088b 06       		.uleb128 0x6
 1513 088c 8A030000 		.4byte	.LASF126
 1514 0890 0A       		.byte	0xa
 1515 0891 73       		.byte	0x73
 1516 0892 9E080000 		.4byte	0x89e
 1517 0896 08       		.byte	0x8
 1518 0897 00       		.byte	0
 1519 0898 09       		.uleb128 0x9
 1520 0899 04       		.byte	0x4
 1521 089a 5F080000 		.4byte	0x85f
 1522 089e 12       		.uleb128 0x12
 1523 089f 5F080000 		.4byte	0x85f
 1524 08a3 AE080000 		.4byte	0x8ae
 1525 08a7 13       		.uleb128 0x13
 1526 08a8 70050000 		.4byte	0x570
 1527 08ac 3F       		.byte	0x3f
 1528 08ad 00       		.byte	0
 1529 08ae 04       		.uleb128 0x4
 1530 08af B2000000 		.4byte	.LASF127
 1531 08b3 0A       		.byte	0xa
 1532 08b4 74       		.byte	0x74
 1533 08b5 6A080000 		.4byte	0x86a
 1534 08b9 1A       		.uleb128 0x1a
 1535 08ba 04       		.byte	0x4
 1536 08bb 0B       		.byte	0xb
ARM GAS  /tmp/ccoh7056.s 			page 44


 1537 08bc 38       		.byte	0x38
 1538 08bd CE080000 		.4byte	0x8ce
 1539 08c1 06       		.uleb128 0x6
 1540 08c2 A3060000 		.4byte	.LASF128
 1541 08c6 0B       		.byte	0xb
 1542 08c7 3C       		.byte	0x3c
 1543 08c8 C3000000 		.4byte	0xc3
 1544 08cc 00       		.byte	0
 1545 08cd 00       		.byte	0
 1546 08ce 04       		.uleb128 0x4
 1547 08cf 6B040000 		.4byte	.LASF129
 1548 08d3 0B       		.byte	0xb
 1549 08d4 3D       		.byte	0x3d
 1550 08d5 B9080000 		.4byte	0x8b9
 1551 08d9 1A       		.uleb128 0x1a
 1552 08da 18       		.byte	0x18
 1553 08db 0B       		.byte	0xb
 1554 08dc 48       		.byte	0x48
 1555 08dd 1C090000 		.4byte	0x91c
 1556 08e1 06       		.uleb128 0x6
 1557 08e2 5F060000 		.4byte	.LASF130
 1558 08e6 0B       		.byte	0xb
 1559 08e7 49       		.byte	0x49
 1560 08e8 C3000000 		.4byte	0xc3
 1561 08ec 00       		.byte	0
 1562 08ed 06       		.uleb128 0x6
 1563 08ee 82000000 		.4byte	.LASF131
 1564 08f2 0B       		.byte	0xb
 1565 08f3 4A       		.byte	0x4a
 1566 08f4 C3000000 		.4byte	0xc3
 1567 08f8 04       		.byte	0x4
 1568 08f9 06       		.uleb128 0x6
 1569 08fa 94060000 		.4byte	.LASF132
 1570 08fe 0B       		.byte	0xb
 1571 08ff 4B       		.byte	0x4b
 1572 0900 C3000000 		.4byte	0xc3
 1573 0904 08       		.byte	0x8
 1574 0905 19       		.uleb128 0x19
 1575 0906 6E00     		.ascii	"n\000"
 1576 0908 0B       		.byte	0xb
 1577 0909 4C       		.byte	0x4c
 1578 090a 26010000 		.4byte	0x126
 1579 090e 0C       		.byte	0xc
 1580 090f 06       		.uleb128 0x6
 1581 0910 99040000 		.4byte	.LASF133
 1582 0914 0B       		.byte	0xb
 1583 0915 4D       		.byte	0x4d
 1584 0916 CE000000 		.4byte	0xce
 1585 091a 10       		.byte	0x10
 1586 091b 00       		.byte	0
 1587 091c 04       		.uleb128 0x4
 1588 091d 88000000 		.4byte	.LASF134
 1589 0921 0B       		.byte	0xb
 1590 0922 4E       		.byte	0x4e
 1591 0923 D9080000 		.4byte	0x8d9
 1592 0927 1A       		.uleb128 0x1a
 1593 0928 38       		.byte	0x38
ARM GAS  /tmp/ccoh7056.s 			page 45


 1594 0929 0C       		.byte	0xc
 1595 092a 38       		.byte	0x38
 1596 092b 60090000 		.4byte	0x960
 1597 092f 06       		.uleb128 0x6
 1598 0930 4A020000 		.4byte	.LASF135
 1599 0934 0C       		.byte	0xc
 1600 0935 39       		.byte	0x39
 1601 0936 26010000 		.4byte	0x126
 1602 093a 00       		.byte	0
 1603 093b 06       		.uleb128 0x6
 1604 093c E3040000 		.4byte	.LASF136
 1605 0940 0C       		.byte	0xc
 1606 0941 3A       		.byte	0x3a
 1607 0942 26010000 		.4byte	0x126
 1608 0946 04       		.byte	0x4
 1609 0947 06       		.uleb128 0x6
 1610 0948 36070000 		.4byte	.LASF137
 1611 094c 0C       		.byte	0xc
 1612 094d 3B       		.byte	0x3b
 1613 094e 1C090000 		.4byte	0x91c
 1614 0952 08       		.byte	0x8
 1615 0953 06       		.uleb128 0x6
 1616 0954 94030000 		.4byte	.LASF138
 1617 0958 0C       		.byte	0xc
 1618 0959 3D       		.byte	0x3d
 1619 095a 1C090000 		.4byte	0x91c
 1620 095e 20       		.byte	0x20
 1621 095f 00       		.byte	0
 1622 0960 04       		.uleb128 0x4
 1623 0961 9F020000 		.4byte	.LASF139
 1624 0965 0C       		.byte	0xc
 1625 0966 3F       		.byte	0x3f
 1626 0967 27090000 		.4byte	0x927
 1627 096b 1C       		.uleb128 0x1c
 1628 096c 04       		.byte	0x4
 1629 096d 06       		.byte	0x6
 1630 096e FA       		.byte	0xfa
 1631 096f C8090000 		.4byte	0x9c8
 1632 0973 1D       		.uleb128 0x1d
 1633 0974 2F000000 		.4byte	.LASF140
 1634 0978 06       		.byte	0x6
 1635 0979 0101     		.2byte	0x101
 1636 097b 05010000 		.4byte	0x105
 1637 097f 1D       		.uleb128 0x1d
 1638 0980 CD000000 		.4byte	.LASF141
 1639 0984 06       		.byte	0x6
 1640 0985 0801     		.2byte	0x108
 1641 0987 05010000 		.4byte	0x105
 1642 098b 1D       		.uleb128 0x1d
 1643 098c 0A070000 		.4byte	.LASF142
 1644 0990 06       		.byte	0x6
 1645 0991 0F01     		.2byte	0x10f
 1646 0993 35030000 		.4byte	0x335
 1647 0997 1D       		.uleb128 0x1d
 1648 0998 29000000 		.4byte	.LASF143
 1649 099c 06       		.byte	0x6
 1650 099d 1601     		.2byte	0x116
ARM GAS  /tmp/ccoh7056.s 			page 46


 1651 099f C8090000 		.4byte	0x9c8
 1652 09a3 1D       		.uleb128 0x1d
 1653 09a4 38020000 		.4byte	.LASF144
 1654 09a8 06       		.byte	0x6
 1655 09a9 1E01     		.2byte	0x11e
 1656 09ab F3090000 		.4byte	0x9f3
 1657 09af 1D       		.uleb128 0x1d
 1658 09b0 DF050000 		.4byte	.LASF145
 1659 09b4 06       		.byte	0x6
 1660 09b5 2701     		.2byte	0x127
 1661 09b7 2A0A0000 		.4byte	0xa2a
 1662 09bb 1D       		.uleb128 0x1d
 1663 09bc 6A050000 		.4byte	.LASF146
 1664 09c0 06       		.byte	0x6
 1665 09c1 2F01     		.2byte	0x12f
 1666 09c3 10010000 		.4byte	0x110
 1667 09c7 00       		.byte	0
 1668 09c8 09       		.uleb128 0x9
 1669 09c9 04       		.byte	0x4
 1670 09ca 4D020000 		.4byte	0x24d
 1671 09ce 05       		.uleb128 0x5
 1672 09cf B4050000 		.4byte	.LASF147
 1673 09d3 0C       		.byte	0xc
 1674 09d4 0D       		.byte	0xd
 1675 09d5 34       		.byte	0x34
 1676 09d6 F3090000 		.4byte	0x9f3
 1677 09da 06       		.uleb128 0x6
 1678 09db 94010000 		.4byte	.LASF148
 1679 09df 0D       		.byte	0xd
 1680 09e0 35       		.byte	0x35
 1681 09e1 82020000 		.4byte	0x282
 1682 09e5 00       		.byte	0
 1683 09e6 06       		.uleb128 0x6
 1684 09e7 55020000 		.4byte	.LASF149
 1685 09eb 0D       		.byte	0xd
 1686 09ec 37       		.byte	0x37
 1687 09ed 1B010000 		.4byte	0x11b
 1688 09f1 08       		.byte	0x8
 1689 09f2 00       		.byte	0
 1690 09f3 09       		.uleb128 0x9
 1691 09f4 04       		.byte	0x4
 1692 09f5 CE090000 		.4byte	0x9ce
 1693 09f9 05       		.uleb128 0x5
 1694 09fa D1060000 		.4byte	.LASF150
 1695 09fe 10       		.byte	0x10
 1696 09ff 0E       		.byte	0xe
 1697 0a00 39       		.byte	0x39
 1698 0a01 2A0A0000 		.4byte	0xa2a
 1699 0a05 06       		.uleb128 0x6
 1700 0a06 4A010000 		.4byte	.LASF151
 1701 0a0a 0E       		.byte	0xe
 1702 0a0b 3A       		.byte	0x3a
 1703 0a0c 82020000 		.4byte	0x282
 1704 0a10 00       		.byte	0
 1705 0a11 06       		.uleb128 0x6
 1706 0a12 41070000 		.4byte	.LASF152
 1707 0a16 0E       		.byte	0xe
ARM GAS  /tmp/ccoh7056.s 			page 47


 1708 0a17 3C       		.byte	0x3c
 1709 0a18 58020000 		.4byte	0x258
 1710 0a1c 08       		.byte	0x8
 1711 0a1d 06       		.uleb128 0x6
 1712 0a1e 64060000 		.4byte	.LASF153
 1713 0a22 0E       		.byte	0xe
 1714 0a23 3E       		.byte	0x3e
 1715 0a24 6E0A0000 		.4byte	0xa6e
 1716 0a28 0C       		.byte	0xc
 1717 0a29 00       		.byte	0
 1718 0a2a 09       		.uleb128 0x9
 1719 0a2b 04       		.byte	0x4
 1720 0a2c F9090000 		.4byte	0x9f9
 1721 0a30 09       		.uleb128 0x9
 1722 0a31 04       		.byte	0x4
 1723 0a32 360A0000 		.4byte	0xa36
 1724 0a36 18       		.uleb128 0x18
 1725 0a37 3B0A0000 		.4byte	0xa3b
 1726 0a3b 03       		.uleb128 0x3
 1727 0a3c 01       		.byte	0x1
 1728 0a3d 08       		.byte	0x8
 1729 0a3e 23060000 		.4byte	.LASF154
 1730 0a42 09       		.uleb128 0x9
 1731 0a43 04       		.byte	0x4
 1732 0a44 81070000 		.4byte	0x781
 1733 0a48 09       		.uleb128 0x9
 1734 0a49 04       		.byte	0x4
 1735 0a4a 37030000 		.4byte	0x337
 1736 0a4e 14       		.uleb128 0x14
 1737 0a4f 300A0000 		.4byte	0xa30
 1738 0a53 12       		.uleb128 0x12
 1739 0a54 81070000 		.4byte	0x781
 1740 0a58 630A0000 		.4byte	0xa63
 1741 0a5c 13       		.uleb128 0x13
 1742 0a5d 70050000 		.4byte	0x570
 1743 0a61 1E       		.byte	0x1e
 1744 0a62 00       		.byte	0
 1745 0a63 04       		.uleb128 0x4
 1746 0a64 E0010000 		.4byte	.LASF155
 1747 0a68 0E       		.byte	0xe
 1748 0a69 34       		.byte	0x34
 1749 0a6a F9090000 		.4byte	0x9f9
 1750 0a6e 09       		.uleb128 0x9
 1751 0a6f 04       		.byte	0x4
 1752 0a70 630A0000 		.4byte	0xa63
 1753 0a74 03       		.uleb128 0x3
 1754 0a75 01       		.byte	0x1
 1755 0a76 02       		.byte	0x2
 1756 0a77 EC040000 		.4byte	.LASF156
 1757 0a7b 1E       		.uleb128 0x1e
 1758 0a7c 12010000 		.4byte	.LASF158
 1759 0a80 01       		.byte	0x1
 1760 0a81 39       		.byte	0x39
 1761 0a82 00000000 		.4byte	.LFB272
 1762 0a86 5E000000 		.4byte	.LFE272-.LFB272
 1763 0a8a 01       		.uleb128 0x1
 1764 0a8b 9C       		.byte	0x9c
ARM GAS  /tmp/ccoh7056.s 			page 48


 1765 0a8c AB0A0000 		.4byte	0xaab
 1766 0a90 1F       		.uleb128 0x1f
 1767 0a91 6E00     		.ascii	"n\000"
 1768 0a93 01       		.byte	0x1
 1769 0a94 39       		.byte	0x39
 1770 0a95 AD000000 		.4byte	0xad
 1771 0a99 02       		.uleb128 0x2
 1772 0a9a 91       		.byte	0x91
 1773 0a9b 7C       		.sleb128 -4
 1774 0a9c 20       		.uleb128 0x20
 1775 0a9d 81040000 		.4byte	.LASF157
 1776 0aa1 01       		.byte	0x1
 1777 0aa2 39       		.byte	0x39
 1778 0aa3 AD000000 		.4byte	0xad
 1779 0aa7 02       		.uleb128 0x2
 1780 0aa8 91       		.byte	0x91
 1781 0aa9 78       		.sleb128 -8
 1782 0aaa 00       		.byte	0
 1783 0aab 1E       		.uleb128 0x1e
 1784 0aac 26020000 		.4byte	.LASF159
 1785 0ab0 01       		.byte	0x1
 1786 0ab1 4A       		.byte	0x4a
 1787 0ab2 00000000 		.4byte	.LFB273
 1788 0ab6 3A000000 		.4byte	.LFE273-.LFB273
 1789 0aba 01       		.uleb128 0x1
 1790 0abb 9C       		.byte	0x9c
 1791 0abc CD0A0000 		.4byte	0xacd
 1792 0ac0 1F       		.uleb128 0x1f
 1793 0ac1 6E00     		.ascii	"n\000"
 1794 0ac3 01       		.byte	0x1
 1795 0ac4 4A       		.byte	0x4a
 1796 0ac5 AD000000 		.4byte	0xad
 1797 0ac9 02       		.uleb128 0x2
 1798 0aca 91       		.byte	0x91
 1799 0acb 7C       		.sleb128 -4
 1800 0acc 00       		.byte	0
 1801 0acd 21       		.uleb128 0x21
 1802 0ace 46050000 		.4byte	.LASF160
 1803 0ad2 01       		.byte	0x1
 1804 0ad3 5A       		.byte	0x5a
 1805 0ad4 00000000 		.4byte	.LFB274
 1806 0ad8 38000000 		.4byte	.LFE274-.LFB274
 1807 0adc 01       		.uleb128 0x1
 1808 0add 9C       		.byte	0x9c
 1809 0ade 0E0B0000 		.4byte	0xb0e
 1810 0ae2 20       		.uleb128 0x20
 1811 0ae3 CE030000 		.4byte	.LASF161
 1812 0ae7 01       		.byte	0x1
 1813 0ae8 5A       		.byte	0x5a
 1814 0ae9 AD000000 		.4byte	0xad
 1815 0aed 02       		.uleb128 0x2
 1816 0aee 91       		.byte	0x91
 1817 0aef 74       		.sleb128 -12
 1818 0af0 20       		.uleb128 0x20
 1819 0af1 81040000 		.4byte	.LASF157
 1820 0af5 01       		.byte	0x1
 1821 0af6 5A       		.byte	0x5a
ARM GAS  /tmp/ccoh7056.s 			page 49


 1822 0af7 AD000000 		.4byte	0xad
 1823 0afb 02       		.uleb128 0x2
 1824 0afc 91       		.byte	0x91
 1825 0afd 70       		.sleb128 -16
 1826 0afe 22       		.uleb128 0x22
 1827 0aff 57040000 		.4byte	.LASF167
 1828 0b03 1E0B0000 		.4byte	0xb1e
 1829 0b07 05       		.uleb128 0x5
 1830 0b08 03       		.byte	0x3
 1831 0b09 00000000 		.4byte	__func__.7432
 1832 0b0d 00       		.byte	0
 1833 0b0e 12       		.uleb128 0x12
 1834 0b0f 3B0A0000 		.4byte	0xa3b
 1835 0b13 1E0B0000 		.4byte	0xb1e
 1836 0b17 13       		.uleb128 0x13
 1837 0b18 70050000 		.4byte	0x570
 1838 0b1c 1C       		.byte	0x1c
 1839 0b1d 00       		.byte	0
 1840 0b1e 18       		.uleb128 0x18
 1841 0b1f 0E0B0000 		.4byte	0xb0e
 1842 0b23 1E       		.uleb128 0x1e
 1843 0b24 52010000 		.4byte	.LASF162
 1844 0b28 01       		.byte	0x1
 1845 0b29 6D       		.byte	0x6d
 1846 0b2a 00000000 		.4byte	.LFB275
 1847 0b2e 26000000 		.4byte	.LFE275-.LFB275
 1848 0b32 01       		.uleb128 0x1
 1849 0b33 9C       		.byte	0x9c
 1850 0b34 450B0000 		.4byte	0xb45
 1851 0b38 1F       		.uleb128 0x1f
 1852 0b39 6E00     		.ascii	"n\000"
 1853 0b3b 01       		.byte	0x1
 1854 0b3c 6D       		.byte	0x6d
 1855 0b3d AD000000 		.4byte	0xad
 1856 0b41 02       		.uleb128 0x2
 1857 0b42 91       		.byte	0x91
 1858 0b43 7C       		.sleb128 -4
 1859 0b44 00       		.byte	0
 1860 0b45 23       		.uleb128 0x23
 1861 0b46 0E050000 		.4byte	.LASF163
 1862 0b4a 07       		.byte	0x7
 1863 0b4b FA06     		.2byte	0x6fa
 1864 0b4d 510B0000 		.4byte	0xb51
 1865 0b51 14       		.uleb128 0x14
 1866 0b52 A2000000 		.4byte	0xa2
 1867 0b56 24       		.uleb128 0x24
 1868 0b57 636800   		.ascii	"ch\000"
 1869 0b5a 06       		.byte	0x6
 1870 0b5b 0902     		.2byte	0x209
 1871 0b5d 2C040000 		.4byte	0x42c
 1872 0b61 00       		.byte	0
 1873              		.section	.debug_abbrev,"",%progbits
 1874              	.Ldebug_abbrev0:
 1875 0000 01       		.uleb128 0x1
 1876 0001 11       		.uleb128 0x11
 1877 0002 01       		.byte	0x1
 1878 0003 25       		.uleb128 0x25
ARM GAS  /tmp/ccoh7056.s 			page 50


 1879 0004 0E       		.uleb128 0xe
 1880 0005 13       		.uleb128 0x13
 1881 0006 0B       		.uleb128 0xb
 1882 0007 03       		.uleb128 0x3
 1883 0008 0E       		.uleb128 0xe
 1884 0009 1B       		.uleb128 0x1b
 1885 000a 0E       		.uleb128 0xe
 1886 000b 55       		.uleb128 0x55
 1887 000c 17       		.uleb128 0x17
 1888 000d 11       		.uleb128 0x11
 1889 000e 01       		.uleb128 0x1
 1890 000f 10       		.uleb128 0x10
 1891 0010 17       		.uleb128 0x17
 1892 0011 00       		.byte	0
 1893 0012 00       		.byte	0
 1894 0013 02       		.uleb128 0x2
 1895 0014 24       		.uleb128 0x24
 1896 0015 00       		.byte	0
 1897 0016 0B       		.uleb128 0xb
 1898 0017 0B       		.uleb128 0xb
 1899 0018 3E       		.uleb128 0x3e
 1900 0019 0B       		.uleb128 0xb
 1901 001a 03       		.uleb128 0x3
 1902 001b 08       		.uleb128 0x8
 1903 001c 00       		.byte	0
 1904 001d 00       		.byte	0
 1905 001e 03       		.uleb128 0x3
 1906 001f 24       		.uleb128 0x24
 1907 0020 00       		.byte	0
 1908 0021 0B       		.uleb128 0xb
 1909 0022 0B       		.uleb128 0xb
 1910 0023 3E       		.uleb128 0x3e
 1911 0024 0B       		.uleb128 0xb
 1912 0025 03       		.uleb128 0x3
 1913 0026 0E       		.uleb128 0xe
 1914 0027 00       		.byte	0
 1915 0028 00       		.byte	0
 1916 0029 04       		.uleb128 0x4
 1917 002a 16       		.uleb128 0x16
 1918 002b 00       		.byte	0
 1919 002c 03       		.uleb128 0x3
 1920 002d 0E       		.uleb128 0xe
 1921 002e 3A       		.uleb128 0x3a
 1922 002f 0B       		.uleb128 0xb
 1923 0030 3B       		.uleb128 0x3b
 1924 0031 0B       		.uleb128 0xb
 1925 0032 49       		.uleb128 0x49
 1926 0033 13       		.uleb128 0x13
 1927 0034 00       		.byte	0
 1928 0035 00       		.byte	0
 1929 0036 05       		.uleb128 0x5
 1930 0037 13       		.uleb128 0x13
 1931 0038 01       		.byte	0x1
 1932 0039 03       		.uleb128 0x3
 1933 003a 0E       		.uleb128 0xe
 1934 003b 0B       		.uleb128 0xb
 1935 003c 0B       		.uleb128 0xb
ARM GAS  /tmp/ccoh7056.s 			page 51


 1936 003d 3A       		.uleb128 0x3a
 1937 003e 0B       		.uleb128 0xb
 1938 003f 3B       		.uleb128 0x3b
 1939 0040 0B       		.uleb128 0xb
 1940 0041 01       		.uleb128 0x1
 1941 0042 13       		.uleb128 0x13
 1942 0043 00       		.byte	0
 1943 0044 00       		.byte	0
 1944 0045 06       		.uleb128 0x6
 1945 0046 0D       		.uleb128 0xd
 1946 0047 00       		.byte	0
 1947 0048 03       		.uleb128 0x3
 1948 0049 0E       		.uleb128 0xe
 1949 004a 3A       		.uleb128 0x3a
 1950 004b 0B       		.uleb128 0xb
 1951 004c 3B       		.uleb128 0x3b
 1952 004d 0B       		.uleb128 0xb
 1953 004e 49       		.uleb128 0x49
 1954 004f 13       		.uleb128 0x13
 1955 0050 38       		.uleb128 0x38
 1956 0051 0B       		.uleb128 0xb
 1957 0052 00       		.byte	0
 1958 0053 00       		.byte	0
 1959 0054 07       		.uleb128 0x7
 1960 0055 0D       		.uleb128 0xd
 1961 0056 00       		.byte	0
 1962 0057 03       		.uleb128 0x3
 1963 0058 08       		.uleb128 0x8
 1964 0059 3A       		.uleb128 0x3a
 1965 005a 0B       		.uleb128 0xb
 1966 005b 3B       		.uleb128 0x3b
 1967 005c 05       		.uleb128 0x5
 1968 005d 49       		.uleb128 0x49
 1969 005e 13       		.uleb128 0x13
 1970 005f 38       		.uleb128 0x38
 1971 0060 0B       		.uleb128 0xb
 1972 0061 00       		.byte	0
 1973 0062 00       		.byte	0
 1974 0063 08       		.uleb128 0x8
 1975 0064 0D       		.uleb128 0xd
 1976 0065 00       		.byte	0
 1977 0066 03       		.uleb128 0x3
 1978 0067 0E       		.uleb128 0xe
 1979 0068 3A       		.uleb128 0x3a
 1980 0069 0B       		.uleb128 0xb
 1981 006a 3B       		.uleb128 0x3b
 1982 006b 05       		.uleb128 0x5
 1983 006c 49       		.uleb128 0x49
 1984 006d 13       		.uleb128 0x13
 1985 006e 38       		.uleb128 0x38
 1986 006f 0B       		.uleb128 0xb
 1987 0070 00       		.byte	0
 1988 0071 00       		.byte	0
 1989 0072 09       		.uleb128 0x9
 1990 0073 0F       		.uleb128 0xf
 1991 0074 00       		.byte	0
 1992 0075 0B       		.uleb128 0xb
ARM GAS  /tmp/ccoh7056.s 			page 52


 1993 0076 0B       		.uleb128 0xb
 1994 0077 49       		.uleb128 0x49
 1995 0078 13       		.uleb128 0x13
 1996 0079 00       		.byte	0
 1997 007a 00       		.byte	0
 1998 007b 0A       		.uleb128 0xa
 1999 007c 13       		.uleb128 0x13
 2000 007d 01       		.byte	0x1
 2001 007e 03       		.uleb128 0x3
 2002 007f 0E       		.uleb128 0xe
 2003 0080 0B       		.uleb128 0xb
 2004 0081 0B       		.uleb128 0xb
 2005 0082 3A       		.uleb128 0x3a
 2006 0083 0B       		.uleb128 0xb
 2007 0084 3B       		.uleb128 0x3b
 2008 0085 05       		.uleb128 0x5
 2009 0086 01       		.uleb128 0x1
 2010 0087 13       		.uleb128 0x13
 2011 0088 00       		.byte	0
 2012 0089 00       		.byte	0
 2013 008a 0B       		.uleb128 0xb
 2014 008b 15       		.uleb128 0x15
 2015 008c 01       		.byte	0x1
 2016 008d 27       		.uleb128 0x27
 2017 008e 19       		.uleb128 0x19
 2018 008f 01       		.uleb128 0x1
 2019 0090 13       		.uleb128 0x13
 2020 0091 00       		.byte	0
 2021 0092 00       		.byte	0
 2022 0093 0C       		.uleb128 0xc
 2023 0094 05       		.uleb128 0x5
 2024 0095 00       		.byte	0
 2025 0096 49       		.uleb128 0x49
 2026 0097 13       		.uleb128 0x13
 2027 0098 00       		.byte	0
 2028 0099 00       		.byte	0
 2029 009a 0D       		.uleb128 0xd
 2030 009b 0F       		.uleb128 0xf
 2031 009c 00       		.byte	0
 2032 009d 0B       		.uleb128 0xb
 2033 009e 0B       		.uleb128 0xb
 2034 009f 00       		.byte	0
 2035 00a0 00       		.byte	0
 2036 00a1 0E       		.uleb128 0xe
 2037 00a2 13       		.uleb128 0x13
 2038 00a3 01       		.byte	0x1
 2039 00a4 03       		.uleb128 0x3
 2040 00a5 0E       		.uleb128 0xe
 2041 00a6 0B       		.uleb128 0xb
 2042 00a7 05       		.uleb128 0x5
 2043 00a8 3A       		.uleb128 0x3a
 2044 00a9 0B       		.uleb128 0xb
 2045 00aa 3B       		.uleb128 0x3b
 2046 00ab 05       		.uleb128 0x5
 2047 00ac 01       		.uleb128 0x1
 2048 00ad 13       		.uleb128 0x13
 2049 00ae 00       		.byte	0
ARM GAS  /tmp/ccoh7056.s 			page 53


 2050 00af 00       		.byte	0
 2051 00b0 0F       		.uleb128 0xf
 2052 00b1 0D       		.uleb128 0xd
 2053 00b2 00       		.byte	0
 2054 00b3 03       		.uleb128 0x3
 2055 00b4 0E       		.uleb128 0xe
 2056 00b5 3A       		.uleb128 0x3a
 2057 00b6 0B       		.uleb128 0xb
 2058 00b7 3B       		.uleb128 0x3b
 2059 00b8 05       		.uleb128 0x5
 2060 00b9 49       		.uleb128 0x49
 2061 00ba 13       		.uleb128 0x13
 2062 00bb 38       		.uleb128 0x38
 2063 00bc 05       		.uleb128 0x5
 2064 00bd 00       		.byte	0
 2065 00be 00       		.byte	0
 2066 00bf 10       		.uleb128 0x10
 2067 00c0 0D       		.uleb128 0xd
 2068 00c1 00       		.byte	0
 2069 00c2 03       		.uleb128 0x3
 2070 00c3 08       		.uleb128 0x8
 2071 00c4 3A       		.uleb128 0x3a
 2072 00c5 0B       		.uleb128 0xb
 2073 00c6 3B       		.uleb128 0x3b
 2074 00c7 05       		.uleb128 0x5
 2075 00c8 49       		.uleb128 0x49
 2076 00c9 13       		.uleb128 0x13
 2077 00ca 38       		.uleb128 0x38
 2078 00cb 05       		.uleb128 0x5
 2079 00cc 00       		.byte	0
 2080 00cd 00       		.byte	0
 2081 00ce 11       		.uleb128 0x11
 2082 00cf 13       		.uleb128 0x13
 2083 00d0 01       		.byte	0x1
 2084 00d1 0B       		.uleb128 0xb
 2085 00d2 05       		.uleb128 0x5
 2086 00d3 3A       		.uleb128 0x3a
 2087 00d4 0B       		.uleb128 0xb
 2088 00d5 3B       		.uleb128 0x3b
 2089 00d6 05       		.uleb128 0x5
 2090 00d7 01       		.uleb128 0x1
 2091 00d8 13       		.uleb128 0x13
 2092 00d9 00       		.byte	0
 2093 00da 00       		.byte	0
 2094 00db 12       		.uleb128 0x12
 2095 00dc 01       		.uleb128 0x1
 2096 00dd 01       		.byte	0x1
 2097 00de 49       		.uleb128 0x49
 2098 00df 13       		.uleb128 0x13
 2099 00e0 01       		.uleb128 0x1
 2100 00e1 13       		.uleb128 0x13
 2101 00e2 00       		.byte	0
 2102 00e3 00       		.byte	0
 2103 00e4 13       		.uleb128 0x13
 2104 00e5 21       		.uleb128 0x21
 2105 00e6 00       		.byte	0
 2106 00e7 49       		.uleb128 0x49
ARM GAS  /tmp/ccoh7056.s 			page 54


 2107 00e8 13       		.uleb128 0x13
 2108 00e9 2F       		.uleb128 0x2f
 2109 00ea 0B       		.uleb128 0xb
 2110 00eb 00       		.byte	0
 2111 00ec 00       		.byte	0
 2112 00ed 14       		.uleb128 0x14
 2113 00ee 35       		.uleb128 0x35
 2114 00ef 00       		.byte	0
 2115 00f0 49       		.uleb128 0x49
 2116 00f1 13       		.uleb128 0x13
 2117 00f2 00       		.byte	0
 2118 00f3 00       		.byte	0
 2119 00f4 15       		.uleb128 0x15
 2120 00f5 21       		.uleb128 0x21
 2121 00f6 00       		.byte	0
 2122 00f7 49       		.uleb128 0x49
 2123 00f8 13       		.uleb128 0x13
 2124 00f9 2F       		.uleb128 0x2f
 2125 00fa 05       		.uleb128 0x5
 2126 00fb 00       		.byte	0
 2127 00fc 00       		.byte	0
 2128 00fd 16       		.uleb128 0x16
 2129 00fe 16       		.uleb128 0x16
 2130 00ff 00       		.byte	0
 2131 0100 03       		.uleb128 0x3
 2132 0101 0E       		.uleb128 0xe
 2133 0102 3A       		.uleb128 0x3a
 2134 0103 0B       		.uleb128 0xb
 2135 0104 3B       		.uleb128 0x3b
 2136 0105 05       		.uleb128 0x5
 2137 0106 49       		.uleb128 0x49
 2138 0107 13       		.uleb128 0x13
 2139 0108 00       		.byte	0
 2140 0109 00       		.byte	0
 2141 010a 17       		.uleb128 0x17
 2142 010b 13       		.uleb128 0x13
 2143 010c 01       		.byte	0x1
 2144 010d 0B       		.uleb128 0xb
 2145 010e 0B       		.uleb128 0xb
 2146 010f 3A       		.uleb128 0x3a
 2147 0110 0B       		.uleb128 0xb
 2148 0111 3B       		.uleb128 0x3b
 2149 0112 05       		.uleb128 0x5
 2150 0113 01       		.uleb128 0x1
 2151 0114 13       		.uleb128 0x13
 2152 0115 00       		.byte	0
 2153 0116 00       		.byte	0
 2154 0117 18       		.uleb128 0x18
 2155 0118 26       		.uleb128 0x26
 2156 0119 00       		.byte	0
 2157 011a 49       		.uleb128 0x49
 2158 011b 13       		.uleb128 0x13
 2159 011c 00       		.byte	0
 2160 011d 00       		.byte	0
 2161 011e 19       		.uleb128 0x19
 2162 011f 0D       		.uleb128 0xd
 2163 0120 00       		.byte	0
ARM GAS  /tmp/ccoh7056.s 			page 55


 2164 0121 03       		.uleb128 0x3
 2165 0122 08       		.uleb128 0x8
 2166 0123 3A       		.uleb128 0x3a
 2167 0124 0B       		.uleb128 0xb
 2168 0125 3B       		.uleb128 0x3b
 2169 0126 0B       		.uleb128 0xb
 2170 0127 49       		.uleb128 0x49
 2171 0128 13       		.uleb128 0x13
 2172 0129 38       		.uleb128 0x38
 2173 012a 0B       		.uleb128 0xb
 2174 012b 00       		.byte	0
 2175 012c 00       		.byte	0
 2176 012d 1A       		.uleb128 0x1a
 2177 012e 13       		.uleb128 0x13
 2178 012f 01       		.byte	0x1
 2179 0130 0B       		.uleb128 0xb
 2180 0131 0B       		.uleb128 0xb
 2181 0132 3A       		.uleb128 0x3a
 2182 0133 0B       		.uleb128 0xb
 2183 0134 3B       		.uleb128 0x3b
 2184 0135 0B       		.uleb128 0xb
 2185 0136 01       		.uleb128 0x1
 2186 0137 13       		.uleb128 0x13
 2187 0138 00       		.byte	0
 2188 0139 00       		.byte	0
 2189 013a 1B       		.uleb128 0x1b
 2190 013b 13       		.uleb128 0x13
 2191 013c 01       		.byte	0x1
 2192 013d 0B       		.uleb128 0xb
 2193 013e 05       		.uleb128 0x5
 2194 013f 3A       		.uleb128 0x3a
 2195 0140 0B       		.uleb128 0xb
 2196 0141 3B       		.uleb128 0x3b
 2197 0142 0B       		.uleb128 0xb
 2198 0143 01       		.uleb128 0x1
 2199 0144 13       		.uleb128 0x13
 2200 0145 00       		.byte	0
 2201 0146 00       		.byte	0
 2202 0147 1C       		.uleb128 0x1c
 2203 0148 17       		.uleb128 0x17
 2204 0149 01       		.byte	0x1
 2205 014a 0B       		.uleb128 0xb
 2206 014b 0B       		.uleb128 0xb
 2207 014c 3A       		.uleb128 0x3a
 2208 014d 0B       		.uleb128 0xb
 2209 014e 3B       		.uleb128 0x3b
 2210 014f 0B       		.uleb128 0xb
 2211 0150 01       		.uleb128 0x1
 2212 0151 13       		.uleb128 0x13
 2213 0152 00       		.byte	0
 2214 0153 00       		.byte	0
 2215 0154 1D       		.uleb128 0x1d
 2216 0155 0D       		.uleb128 0xd
 2217 0156 00       		.byte	0
 2218 0157 03       		.uleb128 0x3
 2219 0158 0E       		.uleb128 0xe
 2220 0159 3A       		.uleb128 0x3a
ARM GAS  /tmp/ccoh7056.s 			page 56


 2221 015a 0B       		.uleb128 0xb
 2222 015b 3B       		.uleb128 0x3b
 2223 015c 05       		.uleb128 0x5
 2224 015d 49       		.uleb128 0x49
 2225 015e 13       		.uleb128 0x13
 2226 015f 00       		.byte	0
 2227 0160 00       		.byte	0
 2228 0161 1E       		.uleb128 0x1e
 2229 0162 2E       		.uleb128 0x2e
 2230 0163 01       		.byte	0x1
 2231 0164 3F       		.uleb128 0x3f
 2232 0165 19       		.uleb128 0x19
 2233 0166 03       		.uleb128 0x3
 2234 0167 0E       		.uleb128 0xe
 2235 0168 3A       		.uleb128 0x3a
 2236 0169 0B       		.uleb128 0xb
 2237 016a 3B       		.uleb128 0x3b
 2238 016b 0B       		.uleb128 0xb
 2239 016c 27       		.uleb128 0x27
 2240 016d 19       		.uleb128 0x19
 2241 016e 11       		.uleb128 0x11
 2242 016f 01       		.uleb128 0x1
 2243 0170 12       		.uleb128 0x12
 2244 0171 06       		.uleb128 0x6
 2245 0172 40       		.uleb128 0x40
 2246 0173 18       		.uleb128 0x18
 2247 0174 9742     		.uleb128 0x2117
 2248 0176 19       		.uleb128 0x19
 2249 0177 01       		.uleb128 0x1
 2250 0178 13       		.uleb128 0x13
 2251 0179 00       		.byte	0
 2252 017a 00       		.byte	0
 2253 017b 1F       		.uleb128 0x1f
 2254 017c 05       		.uleb128 0x5
 2255 017d 00       		.byte	0
 2256 017e 03       		.uleb128 0x3
 2257 017f 08       		.uleb128 0x8
 2258 0180 3A       		.uleb128 0x3a
 2259 0181 0B       		.uleb128 0xb
 2260 0182 3B       		.uleb128 0x3b
 2261 0183 0B       		.uleb128 0xb
 2262 0184 49       		.uleb128 0x49
 2263 0185 13       		.uleb128 0x13
 2264 0186 02       		.uleb128 0x2
 2265 0187 18       		.uleb128 0x18
 2266 0188 00       		.byte	0
 2267 0189 00       		.byte	0
 2268 018a 20       		.uleb128 0x20
 2269 018b 05       		.uleb128 0x5
 2270 018c 00       		.byte	0
 2271 018d 03       		.uleb128 0x3
 2272 018e 0E       		.uleb128 0xe
 2273 018f 3A       		.uleb128 0x3a
 2274 0190 0B       		.uleb128 0xb
 2275 0191 3B       		.uleb128 0x3b
 2276 0192 0B       		.uleb128 0xb
 2277 0193 49       		.uleb128 0x49
ARM GAS  /tmp/ccoh7056.s 			page 57


 2278 0194 13       		.uleb128 0x13
 2279 0195 02       		.uleb128 0x2
 2280 0196 18       		.uleb128 0x18
 2281 0197 00       		.byte	0
 2282 0198 00       		.byte	0
 2283 0199 21       		.uleb128 0x21
 2284 019a 2E       		.uleb128 0x2e
 2285 019b 01       		.byte	0x1
 2286 019c 3F       		.uleb128 0x3f
 2287 019d 19       		.uleb128 0x19
 2288 019e 03       		.uleb128 0x3
 2289 019f 0E       		.uleb128 0xe
 2290 01a0 3A       		.uleb128 0x3a
 2291 01a1 0B       		.uleb128 0xb
 2292 01a2 3B       		.uleb128 0x3b
 2293 01a3 0B       		.uleb128 0xb
 2294 01a4 27       		.uleb128 0x27
 2295 01a5 19       		.uleb128 0x19
 2296 01a6 11       		.uleb128 0x11
 2297 01a7 01       		.uleb128 0x1
 2298 01a8 12       		.uleb128 0x12
 2299 01a9 06       		.uleb128 0x6
 2300 01aa 40       		.uleb128 0x40
 2301 01ab 18       		.uleb128 0x18
 2302 01ac 9642     		.uleb128 0x2116
 2303 01ae 19       		.uleb128 0x19
 2304 01af 01       		.uleb128 0x1
 2305 01b0 13       		.uleb128 0x13
 2306 01b1 00       		.byte	0
 2307 01b2 00       		.byte	0
 2308 01b3 22       		.uleb128 0x22
 2309 01b4 34       		.uleb128 0x34
 2310 01b5 00       		.byte	0
 2311 01b6 03       		.uleb128 0x3
 2312 01b7 0E       		.uleb128 0xe
 2313 01b8 49       		.uleb128 0x49
 2314 01b9 13       		.uleb128 0x13
 2315 01ba 34       		.uleb128 0x34
 2316 01bb 19       		.uleb128 0x19
 2317 01bc 02       		.uleb128 0x2
 2318 01bd 18       		.uleb128 0x18
 2319 01be 00       		.byte	0
 2320 01bf 00       		.byte	0
 2321 01c0 23       		.uleb128 0x23
 2322 01c1 34       		.uleb128 0x34
 2323 01c2 00       		.byte	0
 2324 01c3 03       		.uleb128 0x3
 2325 01c4 0E       		.uleb128 0xe
 2326 01c5 3A       		.uleb128 0x3a
 2327 01c6 0B       		.uleb128 0xb
 2328 01c7 3B       		.uleb128 0x3b
 2329 01c8 05       		.uleb128 0x5
 2330 01c9 49       		.uleb128 0x49
 2331 01ca 13       		.uleb128 0x13
 2332 01cb 3F       		.uleb128 0x3f
 2333 01cc 19       		.uleb128 0x19
 2334 01cd 3C       		.uleb128 0x3c
ARM GAS  /tmp/ccoh7056.s 			page 58


 2335 01ce 19       		.uleb128 0x19
 2336 01cf 00       		.byte	0
 2337 01d0 00       		.byte	0
 2338 01d1 24       		.uleb128 0x24
 2339 01d2 34       		.uleb128 0x34
 2340 01d3 00       		.byte	0
 2341 01d4 03       		.uleb128 0x3
 2342 01d5 08       		.uleb128 0x8
 2343 01d6 3A       		.uleb128 0x3a
 2344 01d7 0B       		.uleb128 0xb
 2345 01d8 3B       		.uleb128 0x3b
 2346 01d9 05       		.uleb128 0x5
 2347 01da 49       		.uleb128 0x49
 2348 01db 13       		.uleb128 0x13
 2349 01dc 3F       		.uleb128 0x3f
 2350 01dd 19       		.uleb128 0x19
 2351 01de 3C       		.uleb128 0x3c
 2352 01df 19       		.uleb128 0x19
 2353 01e0 00       		.byte	0
 2354 01e1 00       		.byte	0
 2355 01e2 00       		.byte	0
 2356              		.section	.debug_aranges,"",%progbits
 2357 0000 34000000 		.4byte	0x34
 2358 0004 0200     		.2byte	0x2
 2359 0006 00000000 		.4byte	.Ldebug_info0
 2360 000a 04       		.byte	0x4
 2361 000b 00       		.byte	0
 2362 000c 0000     		.2byte	0
 2363 000e 0000     		.2byte	0
 2364 0010 00000000 		.4byte	.LFB272
 2365 0014 5E000000 		.4byte	.LFE272-.LFB272
 2366 0018 00000000 		.4byte	.LFB273
 2367 001c 3A000000 		.4byte	.LFE273-.LFB273
 2368 0020 00000000 		.4byte	.LFB274
 2369 0024 38000000 		.4byte	.LFE274-.LFB274
 2370 0028 00000000 		.4byte	.LFB275
 2371 002c 26000000 		.4byte	.LFE275-.LFB275
 2372 0030 00000000 		.4byte	0
 2373 0034 00000000 		.4byte	0
 2374              		.section	.debug_ranges,"",%progbits
 2375              	.Ldebug_ranges0:
 2376 0000 00000000 		.4byte	.LFB272
 2377 0004 5E000000 		.4byte	.LFE272
 2378 0008 00000000 		.4byte	.LFB273
 2379 000c 3A000000 		.4byte	.LFE273
 2380 0010 00000000 		.4byte	.LFB274
 2381 0014 38000000 		.4byte	.LFE274
 2382 0018 00000000 		.4byte	.LFB275
 2383 001c 26000000 		.4byte	.LFE275
 2384 0020 00000000 		.4byte	0
 2385 0024 00000000 		.4byte	0
 2386              		.section	.debug_line,"",%progbits
 2387              	.Ldebug_line0:
 2388 0000 00020000 		.section	.debug_str,"MS",%progbits,1
 2388      0200A801 
 2388      00000201 
 2388      FB0E0D00 
ARM GAS  /tmp/ccoh7056.s 			page 59


 2388      01010101 
 2389              	.LASF49:
 2390 0000 74687265 		.ascii	"threads_list_t\000"
 2390      6164735F 
 2390      6C697374 
 2390      5F7400
 2391              	.LASF92:
 2392 000f 49435052 		.ascii	"ICPR\000"
 2392      00
 2393              	.LASF54:
 2394 0014 72656164 		.ascii	"ready_list_t\000"
 2394      795F6C69 
 2394      73745F74 
 2394      00
 2395              	.LASF119:
 2396 0021 73655F74 		.ascii	"se_time\000"
 2396      696D6500 
 2397              	.LASF143:
 2398 0029 77747472 		.ascii	"wttrp\000"
 2398      7000
 2399              	.LASF140:
 2400 002f 7264796D 		.ascii	"rdymsg\000"
 2400      736700
 2401              	.LASF16:
 2402 0036 75696E74 		.ascii	"uint64_t\000"
 2402      36345F74 
 2402      00
 2403              	.LASF84:
 2404 003f 6B65726E 		.ascii	"kernel_stats\000"
 2404      656C5F73 
 2404      74617473 
 2404      00
 2405              	.LASF5:
 2406 004c 5F5F7569 		.ascii	"__uint8_t\000"
 2406      6E74385F 
 2406      7400
 2407              	.LASF118:
 2408 0056 706F7274 		.ascii	"port_intctx\000"
 2408      5F696E74 
 2408      63747800 
 2409              	.LASF53:
 2410 0062 63685F74 		.ascii	"ch_threads_queue\000"
 2410      68726561 
 2410      64735F71 
 2410      75657565 
 2410      00
 2411              	.LASF73:
 2412 0073 73797374 		.ascii	"system_debug_t\000"
 2412      656D5F64 
 2412      65627567 
 2412      5F7400
 2413              	.LASF131:
 2414 0082 776F7273 		.ascii	"worst\000"
 2414      7400
 2415              	.LASF134:
 2416 0088 74696D65 		.ascii	"time_measurement_t\000"
 2416      5F6D6561 
ARM GAS  /tmp/ccoh7056.s 			page 60


 2416      73757265 
 2416      6D656E74 
 2416      5F7400
 2417              	.LASF12:
 2418 009b 6C6F6E67 		.ascii	"long long unsigned int\000"
 2418      206C6F6E 
 2418      6720756E 
 2418      7369676E 
 2418      65642069 
 2419              	.LASF127:
 2420 00b2 63685F74 		.ascii	"ch_trace_buffer_t\000"
 2420      72616365 
 2420      5F627566 
 2420      6665725F 
 2420      7400
 2421              	.LASF122:
 2422 00c4 73655F73 		.ascii	"se_state\000"
 2422      74617465 
 2422      00
 2423              	.LASF141:
 2424 00cd 65786974 		.ascii	"exitcode\000"
 2424      636F6465 
 2424      00
 2425              	.LASF83:
 2426 00d6 6D61696E 		.ascii	"mainthread\000"
 2426      74687265 
 2426      616400
 2427              	.LASF70:
 2428 00e1 76697274 		.ascii	"virtual_timers_list_t\000"
 2428      75616C5F 
 2428      74696D65 
 2428      72735F6C 
 2428      6973745F 
 2429              	.LASF100:
 2430 00f7 43505549 		.ascii	"CPUID\000"
 2430      4400
 2431              	.LASF18:
 2432 00fd 72747469 		.ascii	"rttime_t\000"
 2432      6D655F74 
 2432      00
 2433              	.LASF90:
 2434 0106 49535052 		.ascii	"ISPR\000"
 2434      00
 2435              	.LASF31:
 2436 010b 705F7072 		.ascii	"p_prio\000"
 2436      696F00
 2437              	.LASF158:
 2438 0112 6E766963 		.ascii	"nvicEnableVector\000"
 2438      456E6162 
 2438      6C655665 
 2438      63746F72 
 2438      00
 2439              	.LASF112:
 2440 0123 49534152 		.ascii	"ISAR\000"
 2440      00
 2441              	.LASF10:
 2442 0128 6C6F6E67 		.ascii	"long long int\000"
ARM GAS  /tmp/ccoh7056.s 			page 61


 2442      206C6F6E 
 2442      6720696E 
 2442      7400
 2443              	.LASF1:
 2444 0136 7369676E 		.ascii	"signed char\000"
 2444      65642063 
 2444      68617200 
 2445              	.LASF46:
 2446 0142 705F6D70 		.ascii	"p_mpool\000"
 2446      6F6F6C00 
 2447              	.LASF151:
 2448 014a 6D5F7175 		.ascii	"m_queue\000"
 2448      65756500 
 2449              	.LASF162:
 2450 0152 6E766963 		.ascii	"nvicClearPending\000"
 2450      436C6561 
 2450      7250656E 
 2450      64696E67 
 2450      00
 2451              	.LASF82:
 2452 0163 76746C69 		.ascii	"vtlist\000"
 2452      737400
 2453              	.LASF80:
 2454 016a 63685F73 		.ascii	"ch_system\000"
 2454      79737465 
 2454      6D00
 2455              	.LASF7:
 2456 0174 6C6F6E67 		.ascii	"long int\000"
 2456      20696E74 
 2456      00
 2457              	.LASF20:
 2458 017d 74737461 		.ascii	"tstate_t\000"
 2458      74655F74 
 2458      00
 2459              	.LASF120:
 2460 0186 73655F74 		.ascii	"se_tp\000"
 2460      7000
 2461              	.LASF33:
 2462 018c 705F6E65 		.ascii	"p_newer\000"
 2462      77657200 
 2463              	.LASF148:
 2464 0194 735F7175 		.ascii	"s_queue\000"
 2464      65756500 
 2465              	.LASF109:
 2466 019c 42464152 		.ascii	"BFAR\000"
 2466      00
 2467              	.LASF124:
 2468 01a1 74625F73 		.ascii	"tb_size\000"
 2468      697A6500 
 2469              	.LASF110:
 2470 01a9 41465352 		.ascii	"AFSR\000"
 2470      00
 2471              	.LASF59:
 2472 01ae 725F6E65 		.ascii	"r_newer\000"
 2472      77657200 
 2473              	.LASF115:
 2474 01b6 72656761 		.ascii	"regarm_t\000"
ARM GAS  /tmp/ccoh7056.s 			page 62


 2474      726D5F74 
 2474      00
 2475              	.LASF66:
 2476 01bf 76745F70 		.ascii	"vt_prev\000"
 2476      72657600 
 2477              	.LASF114:
 2478 01c7 5343425F 		.ascii	"SCB_Type\000"
 2478      54797065 
 2478      00
 2479              	.LASF74:
 2480 01d0 63685F73 		.ascii	"ch_system_debug\000"
 2480      79737465 
 2480      6D5F6465 
 2480      62756700 
 2481              	.LASF155:
 2482 01e0 6D757465 		.ascii	"mutex_t\000"
 2482      785F7400 
 2483              	.LASF77:
 2484 01e8 6C6F636B 		.ascii	"lock_cnt\000"
 2484      5F636E74 
 2484      00
 2485              	.LASF85:
 2486 01f1 69646C65 		.ascii	"idle_thread_wa\000"
 2486      5F746872 
 2486      6561645F 
 2486      776100
 2487              	.LASF25:
 2488 0200 636E745F 		.ascii	"cnt_t\000"
 2488      7400
 2489              	.LASF36:
 2490 0206 705F7374 		.ascii	"p_stklimit\000"
 2490      6B6C696D 
 2490      697400
 2491              	.LASF0:
 2492 0211 756E7369 		.ascii	"unsigned int\000"
 2492      676E6564 
 2492      20696E74 
 2492      00
 2493              	.LASF65:
 2494 021e 76745F6E 		.ascii	"vt_next\000"
 2494      65787400 
 2495              	.LASF159:
 2496 0226 6E766963 		.ascii	"nvicDisableVector\000"
 2496      44697361 
 2496      626C6556 
 2496      6563746F 
 2496      7200
 2497              	.LASF144:
 2498 0238 77747365 		.ascii	"wtsemp\000"
 2498      6D7000
 2499              	.LASF41:
 2500 023f 705F6D73 		.ascii	"p_msgqueue\000"
 2500      67717565 
 2500      756500
 2501              	.LASF135:
 2502 024a 6E5F6972 		.ascii	"n_irq\000"
 2502      7100
ARM GAS  /tmp/ccoh7056.s 			page 63


 2503              	.LASF102:
 2504 0250 56544F52 		.ascii	"VTOR\000"
 2504      00
 2505              	.LASF149:
 2506 0255 735F636E 		.ascii	"s_cnt\000"
 2506      7400
 2507              	.LASF166:
 2508 025b 2F686F6D 		.ascii	"/home/jerker/chibios/ChibiOS_16.1.4/testhal/STM32/S"
 2508      652F6A65 
 2508      726B6572 
 2508      2F636869 
 2508      62696F73 
 2509 028e 544D3332 		.ascii	"TM32F4xx/USB_CDC\000"
 2509      46347878 
 2509      2F555342 
 2509      5F434443 
 2509      00
 2510              	.LASF139:
 2511 029f 6B65726E 		.ascii	"kernel_stats_t\000"
 2511      656C5F73 
 2511      74617473 
 2511      5F7400
 2512              	.LASF50:
 2513 02ae 63685F74 		.ascii	"ch_thread\000"
 2513      68726561 
 2513      6400
 2514              	.LASF101:
 2515 02b8 49435352 		.ascii	"ICSR\000"
 2515      00
 2516              	.LASF23:
 2517 02bd 6D73675F 		.ascii	"msg_t\000"
 2517      7400
 2518              	.LASF103:
 2519 02c3 41495243 		.ascii	"AIRCR\000"
 2519      5200
 2520              	.LASF107:
 2521 02c9 44465352 		.ascii	"DFSR\000"
 2521      00
 2522              	.LASF26:
 2523 02ce 75636E74 		.ascii	"ucnt_t\000"
 2523      5F7400
 2524              	.LASF108:
 2525 02d5 4D4D4641 		.ascii	"MMFAR\000"
 2525      5200
 2526              	.LASF79:
 2527 02db 63685F73 		.ascii	"ch_system_t\000"
 2527      79737465 
 2527      6D5F7400 
 2528              	.LASF164:
 2529 02e7 474E5520 		.ascii	"GNU C 4.8.2 -mcpu=cortex-m4 -mno-thumb-interwork -m"
 2529      4320342E 
 2529      382E3220 
 2529      2D6D6370 
 2529      753D636F 
 2530 031a 7468756D 		.ascii	"thumb -ggdb -O0 -fomit-frame-pointer -falign-functi"
 2530      62202D67 
 2530      67646220 
ARM GAS  /tmp/ccoh7056.s 			page 64


 2530      2D4F3020 
 2530      2D666F6D 
 2531 034d 6F6E733D 		.ascii	"ons=16 -ffunction-sections -fdata-sections -fno-com"
 2531      3136202D 
 2531      6666756E 
 2531      6374696F 
 2531      6E2D7365 
 2532 0380 6D6F6E20 		.ascii	"mon -flto\000"
 2532      2D666C74 
 2532      6F00
 2533              	.LASF126:
 2534 038a 74625F62 		.ascii	"tb_buffer\000"
 2534      75666665 
 2534      7200
 2535              	.LASF138:
 2536 0394 6D5F6372 		.ascii	"m_crit_isr\000"
 2536      69745F69 
 2536      737200
 2537              	.LASF55:
 2538 039f 63685F72 		.ascii	"ch_ready_list\000"
 2538      65616479 
 2538      5F6C6973 
 2538      7400
 2539              	.LASF24:
 2540 03ad 6576656E 		.ascii	"eventmask_t\000"
 2540      746D6173 
 2540      6B5F7400 
 2541              	.LASF6:
 2542 03b9 5F5F696E 		.ascii	"__int32_t\000"
 2542      7433325F 
 2542      7400
 2543              	.LASF116:
 2544 03c3 73746B61 		.ascii	"stkalign_t\000"
 2544      6C69676E 
 2544      5F7400
 2545              	.LASF161:
 2546 03ce 68616E64 		.ascii	"handler\000"
 2546      6C657200 
 2547              	.LASF63:
 2548 03d6 76697274 		.ascii	"virtual_timer_t\000"
 2548      75616C5F 
 2548      74696D65 
 2548      725F7400 
 2549              	.LASF40:
 2550 03e6 705F7761 		.ascii	"p_waiting\000"
 2550      6974696E 
 2550      6700
 2551              	.LASF98:
 2552 03f0 73697A65 		.ascii	"sizetype\000"
 2552      74797065 
 2552      00
 2553              	.LASF48:
 2554 03f9 74687265 		.ascii	"thread_reference_t\000"
 2554      61645F72 
 2554      65666572 
 2554      656E6365 
 2554      5F7400
ARM GAS  /tmp/ccoh7056.s 			page 65


 2555              	.LASF71:
 2556 040c 63685F76 		.ascii	"ch_virtual_timers_list\000"
 2556      69727475 
 2556      616C5F74 
 2556      696D6572 
 2556      735F6C69 
 2557              	.LASF105:
 2558 0423 43465352 		.ascii	"CFSR\000"
 2558      00
 2559              	.LASF125:
 2560 0428 74625F70 		.ascii	"tb_ptr\000"
 2560      747200
 2561              	.LASF94:
 2562 042f 49414252 		.ascii	"IABR\000"
 2562      00
 2563              	.LASF123:
 2564 0434 63685F73 		.ascii	"ch_swc_event_t\000"
 2564      77635F65 
 2564      76656E74 
 2564      5F7400
 2565              	.LASF72:
 2566 0443 76745F6C 		.ascii	"vt_lasttime\000"
 2566      61737474 
 2566      696D6500 
 2567              	.LASF34:
 2568 044f 705F6F6C 		.ascii	"p_older\000"
 2568      64657200 
 2569              	.LASF167:
 2570 0457 5F5F6675 		.ascii	"__func__.7432\000"
 2570      6E635F5F 
 2570      2E373433 
 2570      3200
 2571              	.LASF58:
 2572 0465 725F6374 		.ascii	"r_ctx\000"
 2572      7800
 2573              	.LASF129:
 2574 046b 746D5F63 		.ascii	"tm_calibration_t\000"
 2574      616C6962 
 2574      72617469 
 2574      6F6E5F74 
 2574      00
 2575              	.LASF88:
 2576 047c 49434552 		.ascii	"ICER\000"
 2576      00
 2577              	.LASF157:
 2578 0481 7072696F 		.ascii	"prio\000"
 2578      00
 2579              	.LASF60:
 2580 0486 725F6F6C 		.ascii	"r_older\000"
 2580      64657200 
 2581              	.LASF11:
 2582 048e 5F5F7569 		.ascii	"__uint64_t\000"
 2582      6E743634 
 2582      5F7400
 2583              	.LASF133:
 2584 0499 63756D75 		.ascii	"cumulative\000"
 2584      6C617469 
ARM GAS  /tmp/ccoh7056.s 			page 66


 2584      766500
 2585              	.LASF21:
 2586 04a4 74726566 		.ascii	"trefs_t\000"
 2586      735F7400 
 2587              	.LASF87:
 2588 04ac 52455345 		.ascii	"RESERVED0\000"
 2588      52564544 
 2588      3000
 2589              	.LASF91:
 2590 04b6 52455345 		.ascii	"RESERVED2\000"
 2590      52564544 
 2590      3200
 2591              	.LASF93:
 2592 04c0 52455345 		.ascii	"RESERVED3\000"
 2592      52564544 
 2592      3300
 2593              	.LASF95:
 2594 04ca 52455345 		.ascii	"RESERVED4\000"
 2594      52564544 
 2594      3400
 2595              	.LASF30:
 2596 04d4 705F7072 		.ascii	"p_prev\000"
 2596      657600
 2597              	.LASF22:
 2598 04db 74707269 		.ascii	"tprio_t\000"
 2598      6F5F7400 
 2599              	.LASF136:
 2600 04e3 6E5F6374 		.ascii	"n_ctxswc\000"
 2600      78737763 
 2600      00
 2601              	.LASF156:
 2602 04ec 5F426F6F 		.ascii	"_Bool\000"
 2602      6C00
 2603              	.LASF14:
 2604 04f2 696E7433 		.ascii	"int32_t\000"
 2604      325F7400 
 2605              	.LASF2:
 2606 04fa 756E7369 		.ascii	"unsigned char\000"
 2606      676E6564 
 2606      20636861 
 2606      7200
 2607              	.LASF104:
 2608 0508 53484353 		.ascii	"SHCSR\000"
 2608      5200
 2609              	.LASF163:
 2610 050e 49544D5F 		.ascii	"ITM_RxBuffer\000"
 2610      52784275 
 2610      66666572 
 2610      00
 2611              	.LASF37:
 2612 051b 705F7374 		.ascii	"p_state\000"
 2612      61746500 
 2613              	.LASF44:
 2614 0523 705F6D74 		.ascii	"p_mtxlist\000"
 2614      786C6973 
 2614      7400
 2615              	.LASF3:
ARM GAS  /tmp/ccoh7056.s 			page 67


 2616 052d 73686F72 		.ascii	"short int\000"
 2616      7420696E 
 2616      7400
 2617              	.LASF86:
 2618 0537 49534552 		.ascii	"ISER\000"
 2618      00
 2619              	.LASF99:
 2620 053c 4E564943 		.ascii	"NVIC_Type\000"
 2620      5F547970 
 2620      6500
 2621              	.LASF160:
 2622 0546 6E766963 		.ascii	"nvicSetSystemHandlerPriority\000"
 2622      53657453 
 2622      79737465 
 2622      6D48616E 
 2622      646C6572 
 2623              	.LASF57:
 2624 0563 725F7072 		.ascii	"r_prio\000"
 2624      696F00
 2625              	.LASF146:
 2626 056a 65776D61 		.ascii	"ewmask\000"
 2626      736B00
 2627              	.LASF29:
 2628 0571 705F6E65 		.ascii	"p_next\000"
 2628      787400
 2629              	.LASF19:
 2630 0578 746D6F64 		.ascii	"tmode_t\000"
 2630      655F7400 
 2631              	.LASF38:
 2632 0580 705F666C 		.ascii	"p_flags\000"
 2632      61677300 
 2633              	.LASF47:
 2634 0588 705F7374 		.ascii	"p_stats\000"
 2634      61747300 
 2635              	.LASF4:
 2636 0590 73686F72 		.ascii	"short unsigned int\000"
 2636      7420756E 
 2636      7369676E 
 2636      65642069 
 2636      6E7400
 2637              	.LASF64:
 2638 05a3 63685F76 		.ascii	"ch_virtual_timer\000"
 2638      69727475 
 2638      616C5F74 
 2638      696D6572 
 2638      00
 2639              	.LASF147:
 2640 05b4 63685F73 		.ascii	"ch_semaphore\000"
 2640      656D6170 
 2640      686F7265 
 2640      00
 2641              	.LASF43:
 2642 05c1 705F6570 		.ascii	"p_epending\000"
 2642      656E6469 
 2642      6E6700
 2643              	.LASF96:
 2644 05cc 52455345 		.ascii	"RESERVED5\000"
ARM GAS  /tmp/ccoh7056.s 			page 68


 2644      52564544 
 2644      3500
 2645              	.LASF15:
 2646 05d6 75696E74 		.ascii	"uint32_t\000"
 2646      33325F74 
 2646      00
 2647              	.LASF145:
 2648 05df 77746D74 		.ascii	"wtmtxp\000"
 2648      787000
 2649              	.LASF56:
 2650 05e6 725F7175 		.ascii	"r_queue\000"
 2650      65756500 
 2651              	.LASF67:
 2652 05ee 76745F64 		.ascii	"vt_delta\000"
 2652      656C7461 
 2652      00
 2653              	.LASF51:
 2654 05f7 63685F74 		.ascii	"ch_threads_list\000"
 2654      68726561 
 2654      64735F6C 
 2654      69737400 
 2655              	.LASF9:
 2656 0607 6C6F6E67 		.ascii	"long unsigned int\000"
 2656      20756E73 
 2656      69676E65 
 2656      6420696E 
 2656      7400
 2657              	.LASF61:
 2658 0619 725F6375 		.ascii	"r_current\000"
 2658      7272656E 
 2658      7400
 2659              	.LASF154:
 2660 0623 63686172 		.ascii	"char\000"
 2660      00
 2661              	.LASF165:
 2662 0628 2E2E2F2E 		.ascii	"../../../../os/hal/ports/common/ARMCMx/nvic.c\000"
 2662      2E2F2E2E 
 2662      2F2E2E2F 
 2662      6F732F68 
 2662      616C2F70 
 2663              	.LASF28:
 2664 0656 74687265 		.ascii	"thread_t\000"
 2664      61645F74 
 2664      00
 2665              	.LASF130:
 2666 065f 62657374 		.ascii	"best\000"
 2666      00
 2667              	.LASF153:
 2668 0664 6D5F6E65 		.ascii	"m_next\000"
 2668      787400
 2669              	.LASF27:
 2670 066b 73797374 		.ascii	"systime_t\000"
 2670      696D655F 
 2670      7400
 2671              	.LASF45:
 2672 0675 705F7265 		.ascii	"p_realprio\000"
 2672      616C7072 
ARM GAS  /tmp/ccoh7056.s 			page 69


 2672      696F00
 2673              	.LASF62:
 2674 0680 76746675 		.ascii	"vtfunc_t\000"
 2674      6E635F74 
 2674      00
 2675              	.LASF8:
 2676 0689 5F5F7569 		.ascii	"__uint32_t\000"
 2676      6E743332 
 2676      5F7400
 2677              	.LASF132:
 2678 0694 6C617374 		.ascii	"last\000"
 2678      00
 2679              	.LASF75:
 2680 0699 70616E69 		.ascii	"panic_msg\000"
 2680      635F6D73 
 2680      6700
 2681              	.LASF128:
 2682 06a3 6F666673 		.ascii	"offset\000"
 2682      657400
 2683              	.LASF117:
 2684 06aa 636F6E74 		.ascii	"context\000"
 2684      65787400 
 2685              	.LASF17:
 2686 06b2 7274636E 		.ascii	"rtcnt_t\000"
 2686      745F7400 
 2687              	.LASF69:
 2688 06ba 76745F70 		.ascii	"vt_par\000"
 2688      617200
 2689              	.LASF52:
 2690 06c1 74687265 		.ascii	"threads_queue_t\000"
 2690      6164735F 
 2690      71756575 
 2690      655F7400 
 2691              	.LASF150:
 2692 06d1 63685F6D 		.ascii	"ch_mutex\000"
 2692      75746578 
 2692      00
 2693              	.LASF39:
 2694 06da 705F7265 		.ascii	"p_refs\000"
 2694      667300
 2695              	.LASF76:
 2696 06e1 6973725F 		.ascii	"isr_cnt\000"
 2696      636E7400 
 2697              	.LASF111:
 2698 06e9 4D4D4652 		.ascii	"MMFR\000"
 2698      00
 2699              	.LASF81:
 2700 06ee 726C6973 		.ascii	"rlist\000"
 2700      7400
 2701              	.LASF13:
 2702 06f4 75696E74 		.ascii	"uint8_t\000"
 2702      385F7400 
 2703              	.LASF89:
 2704 06fc 52534552 		.ascii	"RSERVED1\000"
 2704      56454431 
 2704      00
 2705              	.LASF97:
ARM GAS  /tmp/ccoh7056.s 			page 70


 2706 0705 53544952 		.ascii	"STIR\000"
 2706      00
 2707              	.LASF142:
 2708 070a 77746F62 		.ascii	"wtobjp\000"
 2708      6A7000
 2709              	.LASF35:
 2710 0711 705F6E61 		.ascii	"p_name\000"
 2710      6D6500
 2711              	.LASF78:
 2712 0718 74726163 		.ascii	"trace_buffer\000"
 2712      655F6275 
 2712      66666572 
 2712      00
 2713              	.LASF42:
 2714 0725 705F6D73 		.ascii	"p_msg\000"
 2714      6700
 2715              	.LASF113:
 2716 072b 43504143 		.ascii	"CPACR\000"
 2716      5200
 2717              	.LASF106:
 2718 0731 48465352 		.ascii	"HFSR\000"
 2718      00
 2719              	.LASF137:
 2720 0736 6D5F6372 		.ascii	"m_crit_thd\000"
 2720      69745F74 
 2720      686400
 2721              	.LASF152:
 2722 0741 6D5F6F77 		.ascii	"m_owner\000"
 2722      6E657200 
 2723              	.LASF121:
 2724 0749 73655F77 		.ascii	"se_wtobjp\000"
 2724      746F626A 
 2724      7000
 2725              	.LASF32:
 2726 0753 705F6374 		.ascii	"p_ctx\000"
 2726      7800
 2727              	.LASF68:
 2728 0759 76745F66 		.ascii	"vt_func\000"
 2728      756E6300 
 2729              		.comm	__gnu_lto_v1,1,1
 2730              		.ident	"GCC: (4.8.2-14ubuntu1+6) 4.8.2"
ARM GAS  /tmp/ccoh7056.s 			page 71


DEFINED SYMBOLS
                            *ABS*:0000000000000000 nvic.c
     /tmp/ccoh7056.s:285    .text.nvicEnableVector:0000000000000000 $t
     /tmp/ccoh7056.s:291    .text.nvicEnableVector:0000000000000000 nvicEnableVector
     /tmp/ccoh7056.s:343    .text.nvicDisableVector:0000000000000000 $t
     /tmp/ccoh7056.s:349    .text.nvicDisableVector:0000000000000000 nvicDisableVector
     /tmp/ccoh7056.s:386    .text.nvicSetSystemHandlerPriority:0000000000000000 $t
     /tmp/ccoh7056.s:392    .text.nvicSetSystemHandlerPriority:0000000000000000 nvicSetSystemHandlerPriority
     /tmp/ccoh7056.s:471    .rodata.__func__.7432:0000000000000000 __func__.7432
     /tmp/ccoh7056.s:433    .text.nvicClearPending:0000000000000000 $t
     /tmp/ccoh7056.s:439    .text.nvicClearPending:0000000000000000 nvicClearPending
     /tmp/ccoh7056.s:468    .rodata.__func__.7432:0000000000000000 $d
                            *COM*:0000000000000001 __gnu_lto_v1
                     .debug_frame:0000000000000010 $d

UNDEFINED SYMBOLS
chSysHalt
