ARM GAS  /tmp/ccPllA0j.s 			page 1


   1              		.syntax unified
   2              		.cpu cortex-m4
   3              		.fpu softvfp
   4              		.eabi_attribute 20, 1
   5              		.eabi_attribute 21, 1
   6              		.eabi_attribute 23, 3
   7              		.eabi_attribute 24, 1
   8              		.eabi_attribute 25, 1
   9              		.eabi_attribute 26, 1
  10              		.eabi_attribute 30, 6
  11              		.eabi_attribute 34, 1
  12              		.eabi_attribute 18, 4
  13              		.thumb
  14              		.file	"pal.c"
  15              		.text
  16              	.Ltext0:
  17              		.section	.gnu.lto_.inline.6672b8367368ebb9,"",%progbits
  18 0000 789C6362 		.ascii	"x\234cb`b\300\006\374\24143\003\203\200\004\003\003"
  18      6062C006 
  18      FCA13433 
  18      03838004 
  18      0303
  19 0012 93C484D3 		.ascii	"\223\304\204\323\214\014,\020\305L\334 \202A\\\036H"
  19      8C0C2C10 
  19      C54CDC20 
  19      82415C1E 
  19      48
  20 0023 AA1DD8C1 		.ascii	"\252\035\330\301\204\"\316\302 \244\014d\212|X\015W"
  20      8422CEC2 
  20      20A40C64 
  20      8A7C580D 
  20      57
  21 0034 CFC20B93 		.ascii	"\317\302\013\223d\000\000\030\207\006\004"
  21      64000018 
  21      870604
  22              		.text
  23              		.section	.gnu.lto_palReadBus.6672b8367368ebb9,"",%progbits
  24 0000 789CBD52 		.ascii	"x\234\275R\317k\023A\024~ofvv7\332\037\336\364V\204"
  24      CF6B1341 
  24      147E6F66 
  24      767637DA 
  24      1FDEF456 
  25 0015 22B490A5 		.ascii	"\"\264\220\245 ^=\364\017h\301\026\324\213$\021\322"
  25      205E3DF4 
  25      0F68C116 
  25      D48B2411 
  25      D2
  26 0026 8104C51E 		.ascii	"\201\004\305\036=d\332\344P\212\224\320KK\364Po\266"
  26      3D64DAE4 
  26      508A94D0 
  26      4B4BF450 
  26      6FB6
  27 0038 07C55241 		.ascii	"\007\305RA\360\022EJAB\365\352\251T\2537\377\000\021"
  27      F012454A 
  27      4142F5EA 
  27      A954AB37 
  27      FF0011
ARM GAS  /tmp/ccPllA0j.s 			page 2


  28 004b C7F776B3 		.ascii	"\307\367v\263k\"\005\203\007\007\366\355\274\331\357"
  28      6B220583 
  28      0707F6ED 
  28      BCD9EF
  29 005a FBE6FB66 		.ascii	"\373\346\373fV\200\200?\3074=Z\001\\\342&\000$\004\012"
  29      5680803F 
  29      C7343D5A 
  29      015CE226 
  29      0024040A 
  30 006e 9454A5F0 		.ascii	"\224T\245\360\000\254\240oV\251d\256y\356!\275P\243"
  30      00ACA06F 
  30      56A964AE 
  30      79EE21BD 
  30      50A3
  31 0080 4FD54724 		.ascii	"O\325G$\032BMH\345i\037k7\270\207\360\"<\266v\375\350"
  31      1A424D48 
  31      E5691F6B 
  31      37B887F0 
  31      223CB676 
  32 0096 E478F3C2 		.ascii	"\344x\363\302\352\326r\323\376t\016\015\177*!\\\247"
  32      EAD672D3 
  32      FE740E0D 
  32      7F2A215C 
  32      A7
  33 00a7 198EC52F 		.ascii	"\031\216\305/\026\357\0351\255\325n\355?\3105\227V\254"
  33      16EF1D31 
  33      ADD56EED 
  33      3FC83597 
  33      56AC
  34 00b9 7335C356 		.ascii	"s5\303V\006 \255\333\027\237g\017l\243\355\334U\203"
  34      0620ADDB 
  34      179F670F 
  34      6CA3EDDC 
  34      5583
  35 00cb 6A40CEEE 		.ascii	"j@\316\356\023\033n\331\037\316I\203\336?p\006\013\324"
  35      131B6ED9 
  35      1FCE4983 
  35      DE3F7006 
  35      0BD4
  36 00dd ECE3E8FF 		.ascii	"\354\343\350\377\344\355\257\234*\3023\321>r\356\321"
  36      E4EDAF9C 
  36      2AC233D1 
  36      3E72EED1 
  37 00ed F3BDE335 		.ascii	"\363\275\3435<\227C\254\"\335?\305\222T\224\242\342"
  37      3C9743AC 
  37      22DD3FC5 
  37      925494A2 
  37      E2
  38 00fe 79DC6A2A 		.ascii	"y\334j*\332\3476\340\022B|+\340A\203\302\215U\273\307"
  38      DAE736E0 
  38      12427C2B 
  38      E04183C2 
  38      8D55BBC7 
  39 0112 4063AE5B 		.ascii	"@c\256[\351'\222\363\214\221\007\360\366\353\353\215"
  39      E92792F3 
  39      8C9107F0 
  39      F6EBEB8D 
ARM GAS  /tmp/ccPllA0j.s 			page 3


  40 0122 7D2CE036 		.ascii	"},\34069*#\262\023\277\327\306<\337\226\354\300\362"
  40      392A23B2 
  40      13BFD7C6 
  40      3CDF96EC 
  40      C0F2
  41 0134 CD142326 		.ascii	"\315\024#&a\302`\360\020Z\204\015\3738ELi$\374%S\025"
  41      61C260F0 
  41      105A840D 
  41      FB38454C 
  41      6924FC25 
  42 014a 8C0846FA 		.ascii	"\214\010F\372T)\277<\004\225@\000\356\303w\273bG\015"
  42      5429BF3C 
  42      04954000 
  42      EEC377BB 
  42      62470D
  43 015d E64A9888 		.ascii	"\346J\230\210\360\312y\203g\310\177\027d\360l\312\326"
  43      F0CA7983 
  43      67C87F17 
  43      64F06CCA 
  43      D6
  44 016e 89A78F2F 		.ascii	"\211\247\217/?\275\317v\221\261\257\241\323}\245\306"
  44      3FBDCF76 
  44      91B1AFA1 
  44      D37DA5C6 
  45 017e 3AF0260B 		.ascii	":\360&\013\242&a\3076\0104\234pFH\2039C]\216\3108\277"
  45      A22661C7 
  45      3608349C 
  45      70464883 
  45      39435D8E 
  46 0195 C37B8384 		.ascii	"\303{\203\204'\3027\2312t\231\275w\240\3764[\362i\357"
  46      27C23799 
  46      327499BD 
  46      77A0FE34 
  46      5BF269EF 
  47 01a9 3267E855 		.ascii	"2g\350U\016bey\272\262\314\224\353\257\352\303)%\214"
  47      0E626579 
  47      BAB2CC94 
  47      EBAFEAC3 
  47      29258C
  48 01bc A582F450 		.ascii	"\245\202\364P\010,\337\301\022\365\267\331\373\007\310"
  48      082CDFC1 
  48      12F5B7D9 
  48      FB07C8
  49 01cb 8E264C20 		.ascii	"\216&L s|\014\234j\274b\212\321\364\202)\232\231k\267"
  49      737C0C9C 
  49      6ABC628A 
  49      D1F48229 
  49      9A996BB7 
  50 01df A6AEE4A7 		.ascii	"\246\256\344\247\362\227\243\350\316b\264P\250D\213"
  50      F297A3E8 
  50      CE62B450 
  50      A8448B
  51 01ee F74AD1DD 		.ascii	"\367J\321\335B%_\202_\275\032\321\014"
  51      42255F82 
  51      5FBD1AD1 
  51      0C
  52              		.text
ARM GAS  /tmp/ccPllA0j.s 			page 4


  53              		.section	.gnu.lto_palWriteBus.6672b8367368ebb9,"",%progbits
  54 0000 789CCD53 		.ascii	"x\234\315S=h\024A\024~of\177\356\366~v\317J\273\240"
  54      3D681441 
  54      147E6F66 
  54      7FEEF67E 
  54      76CF4ABB 
  55 0015 8860E096 		.ascii	"\210`\340\226\200X\331YYY\230\200\332\310\335\025\311"
  55      8058D959 
  55      59599880 
  55      DAC8DD15 
  55      C9
  56 0026 C01D1153 		.ascii	"\300\035\021S\211\305Mb\204C,\016+\321&\202\205\210"
  56      89C54D62 
  56      84432C0E 
  56      2BD12682 
  56      8588
  57 0038 A2D88828 		.ascii	"\242\330\210($\212\2044\"\266V\007\202vZ+\301\365\275"
  57      248A8434 
  57      22B65607 
  57      82765A2B 
  57      C1F5BD
  58 004b 99DDE536 		.ascii	"\231\335\3456\2468\005\341\006\356\315\314{\357\373"
  58      A63805E1 
  58      06EECDCC 
  58      7BEFFB
  59 005a DE376FEF 		.ascii	"\3367o\357\011\020\260w\235\242\337U\017\340\030_|@"
  59      0910B077 
  59      9DA2DF55 
  59      0FE0185F 
  59      7C40
  60 006c CA408192 		.ascii	"\312@\201\222\254\024.\200\026\016\031\307\261g\217"
  60      AC142E80 
  60      160E19C7 
  60      B1678F
  61 007b CF2ED286 		.ascii	"\317.\322\206\036\"\001\020\372B:\256\207\375\013|\205"
  61      1E220110 
  61      FA423AAE 
  61      87FD0B7C 
  61      85
  62 008c E830DCD7 		.ascii	"\3500\334\327\372\366\350\306\367;\207nn\254\015\365"
  62      FAF6E8C6 
  62      F73B876E 
  62      6EAC0DF5 
  63 009c AF2441C5 		.ascii	"\257$A\305\241\016\302y:\341\214\331\230u|Y\330\326"
  63      A10EC279 
  63      3AE18CD9 
  63      98757C59 
  63      D8D6
  64 00ae EEF6AD60 		.ascii	"\356\366\255`\270:\320I\322W\254a\022\220~\376P\227"
  64      B83AD049 
  64      D257AC61 
  64      12907EFE 
  64      5097
  65 00c0 37F46E92 		.ascii	"7\364n\222H\205\316\024c&l\302?`\206\005\214;\305=\370"
  65      4885CE14 
  65      63266CC2 
  65      3F608605 
ARM GAS  /tmp/ccPllA0j.s 			page 5


  65      8C3BC53D 
  66 00d5 7F7D9BD2 		.ascii	"\177}\233\322\036\364\020\236\212\255Q\222<~\361\340"
  66      1EF4109E 
  66      8AAD5192 
  66      3C7EF1E0 
  67 00e5 F326360E 		.ascii	"\363&6\016 \366\220\206\214\236%\311H\207\2564[\304"
  67      20F69086 
  67      8C9E25C9 
  67      4887AE34 
  67      5BC4
  68 00f7 E4B1F1D9 		.ascii	"\344\261\361\331\2248Zf\023\220q+\354\253\262\251\261"
  68      94385A66 
  68      1390712B 
  68      ECABB2A9 
  68      B1
  69 0108 A97320E4 		.ascii	"\251s \344@\304\327\006\030\025\340\302:5a\246\227\266"
  69      40C4D706 
  69      1815E0C2 
  69      3A3561A6 
  69      97B6
  70 011a 8BD67C6A 		.ascii	"\213\326|ji\242\345\002O\223\334\201w_\337\374\330\306"
  70      69A2E502 
  70      4F93DC81 
  70      775FDFFC 
  70      D8C6
  71 012c 163EA30E 		.ascii	"\026>\243\016-\"\262bo\\\356\002s\311\367\260v1\313"
  71      2D22B262 
  71      6F5CEE02 
  71      73C9F7B0 
  71      7631CB
  72 013f 11B3705C 		.ascii	"\021\263p\\\241\177\017\356Rn\251\200ic\006#\342/9\253"
  72      A17F0FEE 
  72      526EA980 
  72      69630623 
  72      E22F39AB 
  73 0153 E00C3F2C 		.ascii	"\340\014?,\260\322\367\220\037\300\261)\000\327\340"
  73      B0D2F790 
  73      1FC0B129 
  73      00D7E0
  74 0162 A71EE848 		.ascii	"\247\036\350Ha\271\203\226\204=\007\025\006\244?MRX"
  74      61B98396 
  74      843D0715 
  74      06A43F4D 
  74      5258
  75 0174 C9D09ED5 		.ascii	"\311\320\236\325\364ig9\253!\215\252\352\376\2522Y\004"
  75      F4696739 
  75      AB218DAA 
  75      EAFEAA32 
  75      5904
  76 0186 792D3384 		.ascii	"y-3\204\273\310O\033\177\231g8j\373s\210\234\343\372"
  76      BBC84F1B 
  76      7F996738 
  76      6AFB7388 
  76      9CE3FA
  77 0199 AB9CC337 		.ascii	"\253\234\30374^\221\2464I\203\210f\220\323\224\011\304"
  77      345E91A6 
  77      34498388 
ARM GAS  /tmp/ccPllA0j.s 			page 6


  77      6690D394 
  77      09C4
  78 01ab 49105991 		.ascii	"I\020Y\221\337\362H@A\223\374$wUL\331\240X\263\372\327"
  78      DFF24840 
  78      4193FC24 
  78      77554CD9 
  78      A058B3FA 
  79 01c0 D26B04FA 		.ascii	"\322k\004\372\243\003\365\311\244\217\011\014\011\264"
  79      A303F5C9 
  79      A48F090C 
  79      09B4
  80 01ce 476064C8 		.ascii	"G`d\310C\343}\231{\033Fy\304\336\267g\254s\026\036\351"
  80      43E37D99 
  80      7B1B4679 
  80      C4DEB767 
  80      AC73161E 
  81 01e3 752A50CF 		.ascii	"u*P\317\016\241-L\004\222\013W\323\3022\335\355$\021"
  81      0EA12D4C 
  81      04920B57 
  81      D3C232DD 
  81      ED2411
  82 01f6 15C04758 		.ascii	"\025\300GX\035m\036\311\376=v\315\363w\346\267\036\355"
  82      1D6D1EC9 
  82      FE3D76CD 
  82      F377E6B7 
  82      1EED
  83 0208 AA767C7A 		.ascii	"\252v|zI\265\325\331s\227\346N6\347\232'\342xy%^ju\343"
  83      49B5D5D9 
  83      7397E64E 
  83      36E79A27 
  83      E2787925 
  84 0220 952B9DF8 		.ascii	"\225+\235\370r\253\333\354\300o\326\226Nq"
  84      72ABDBEC 
  84      C06FD696 
  84      4E71
  85              		.text
  86              		.section	.gnu.lto_palSetBusMode.6672b8367368ebb9,"",%progbits
  87 0000 789CB591 		.ascii	"x\234\265\221=K\003A\020\206gv\367\356\022\277\355\264"
  87      3D4B0341 
  87      10866776 
  87      F7EE12BF 
  87      EDB4
  88 0012 13450485 		.ascii	"\023E\004\205\034\202X\331\371\003,TP\033IN\210\013"
  88      1C8258D9 
  88      F9032C54 
  88      501B494E 
  88      880B
  89 0024 098A9616 		.ascii	"\011\212\226\026Y?\012\021\213`%j\241\2256\"\330\013"
  89      593F0A11 
  89      8B60256A 
  89      A1953622 
  89      D80B
  90 0036 1184D888 		.ascii	"\021\204\330\210X\011VAP\273\374\000\021\317\231\273"
  90      58095641 
  90      50BBFC00 
  90      11CF99BB 
  91 0046 9C249A22 		.ascii	"\234$\232\"\010\016\334\334~\274\357\3543\273\002\004"
ARM GAS  /tmp/ccPllA0j.s 			page 7


  91      080EDCDC 
  91      7EBCEFEC 
  91      33BB0204 
  92 0056 FC8C31FA 		.ascii	"\374\2141\372\026$\300\000O\034@R\240@Z@),\000#\024"
  92      1624C000 
  92      4F1C4052 
  92      A0405A40 
  92      292C0023 
  93 006b 25A5C2B1 		.ascii	"%\245\302\261\315c\013\351\2076\"\031\020rB*\313\306"
  93      CD630BE9 
  93      87362219 
  93      1072422A 
  93      CBC6
  94 007d DC2C0605 		.ascii	"\334,\006\005z\341\304\230\275\322\313\373~\367\316"
  94      7AE1C498 
  94      BDD2CBFB 
  94      7EF7CE
  95 008c F146DE7C 		.ascii	"\361F\336|\372>j\336\362\020fh\204=\301\217\253VGh+"
  95      FA3E6ADE 
  95      F2106668 
  95      843DC18F 
  95      AB564768 
  96 00a1 3C15779B 		.ascii	"<\025w\233\362\353\333\306\367s\232\031\0321\231\313"
  96      F2EBDBC6 
  96      F7739A19 
  96      1A3199CB 
  97 00b1 33133F36 		.ascii	"3\023?6\037\276/5\252?x\032\203\313\327x\254\377`\313"
  97      1FBE2F35 
  97      AA3F781A 
  97      83CBD778 
  97      ACFF60CB 
  98 00c5 225C8842 		.ascii	"\"\\\210B\311\367\217\256>\236\313\330\031G\314\"=\010"
  98      C9F78FAE 
  98      3E9ECBD8 
  98      1947CC22 
  98      3D08
  99 00d7 214A4A52 		.ascii	"!JJRQR\026OmJ\226\303\323\030I\370Q-\330\"\306\236l"
  99      5152164F 
  99      6D4A96C3 
  99      D31849F8 
  99      512DD822 
 100 00ee A51B8AA9 		.ascii	"\245\033\212\251J\246]9\315\227)o\341\346\355\372\261"
 100      4AA65D39 
 100      CD97296F 
 100      E1E6EDFA 
 100      B1
 101 00ff 88493CA5 		.ascii	"\210I<\245\006\322\210\014aW\023L3\244\274\203\215\271"
 101      06D2880C 
 101      6157134C 
 101      33A4BC83 
 101      8DB9
 102 0111 48238660 		.ascii	"H#\206`P\243s\010\007\244\215\325xR\030\331\250\360"
 102      50A37308 
 102      07A48DD5 
 102      785218D9 
 102      A8F0
 103 0123 EB7755C1 		.ascii	"\353wU\301\012\247\275\246*]\227\274\007\025J\000\326"
ARM GAS  /tmp/ccPllA0j.s 			page 8


 103      0AA7BDA6 
 103      2A5D97BC 
 103      07154A00 
 103      D6
 104 0134 E0DD6C9B 		.ascii	"\340\335l\233\016\215q\017\303\"\274\322\245\261\211"
 104      0E8D710F 
 104      C322BCD2 
 104      A5B189
 105 0143 F82B228D 		.ascii	"\370+\"\215\315\221\333\016\231\236\316\326\2423d@\325"
 105      CD91DB0E 
 105      999ECED6 
 105      A2336440 
 105      D5
 106 0154 529F2AC2 		.ascii	"R\237*\302\252nC\005\206\326\372\006Q\307`5\3227\031"
 106      AA6E4305 
 106      86D6FA06 
 106      51C76035 
 106      D23719
 107 0167 CA3272D8 		.ascii	"\3122r\330i\306\276\203\315\363\357%\207\016N\263\353"
 107      69C6BE83 
 107      CDF3EF25 
 107      870E4EB3 
 107      EB
 108 0178 1EEC5FBD 		.ascii	"\036\354_\275\267y\225\203\251\235@\032\323H\267\366"
 108      B7799583 
 108      A99D401A 
 108      D348B7F6 
 109 0188 00EBA572 		.ascii	"\000\353\245r_\244\016c\212{bq\177F\247\334\361E\235"
 109      5FA40E63 
 109      8A7B6271 
 109      7F46A7DC 
 109      F1459D
 110 019b D21393F3 		.ascii	"\322\023\223\363\303\243\211\341\304\210\353.\255\272"
 110      C3A389E1 
 110      C488EB2E 
 110      ADBA
 111 01a9 8BC98CBB 		.ascii	"\213\311\214\273\272\342\271\313\311L\302\203/O\271"
 111      BAE2B9CB 
 111      C94CC283 
 111      2F4FB9
 112 01b8 B2BF     		.ascii	"\262\277"
 113              		.text
 114              		.section	.gnu.lto_.symbol_nodes.6672b8367368ebb9,"",%progbits
 115 0000 789C4DC8 		.ascii	"x\234M\310\273\015\2000\020\203a\237/\300\030\214z\251"
 115      BB0D8030 
 115      1083619F 
 115      2FC0188C 
 115      7AA9
 116 0012 1065780F 		.ascii	"\020ex\017\300>\224\324H\264\314\200\000\021P\334\374"
 116      C03E94D4 
 116      48B4CC80 
 116      001150DC 
 116      FC
 117 0023 F247101E 		.ascii	"\362G\020\036q\0144 ,\200\331ZK\326\023\316\224\015"
 117      710C3420 
 117      2C80D95A 
 117      4BD613CE 
ARM GAS  /tmp/ccPllA0j.s 			page 9


 117      940D
 118 0035 4D121D28 		.ascii	"M\022\035(\217\2664&:\222\267JG\323W\275\027\231h\356"
 118      8FB63426 
 118      3A92B74A 
 118      47D357BD 
 118      179968EE 
 119 0049 7F8A1CFB 		.ascii	"\177\212\034\373v\2122\326}-0WG\211\013\016a$\370"
 119      768A32D6 
 119      7D2D3057 
 119      47890B0E 
 119      6124F8
 120              		.text
 121              		.section	.gnu.lto_.refs.6672b8367368ebb9,"",%progbits
 122 0000 789C6362 		.ascii	"x\234cb`b\340e\200\000F\006&FF&&fF\026&V\006\000\002"
 122      6062E065 
 122      80004606 
 122      26464626 
 122      26664616 
 123 0019 15002A   		.ascii	"\025\000*"
 124              		.text
 125              		.section	.gnu.lto_.decls.6672b8367368ebb9,"",%progbits
 126 0000 789CB558 		.ascii	"x\234\265X{l\024E\030\237\331\273\203^9j\201@j\242r"
 126      7B6C1445 
 126      189FD9BB 
 126      835E396A 
 126      81406AA2 
 127 0015 183158A1 		.ascii	"\0301X\241\007\205\240\030C\024\212\224\000\266\271"
 127      0785A018 
 127      43148A94 
 127      00B6B9
 128 0024 42C0BFD6 		.ascii	"B\300\277\326\345z\245\027\217\266\351m5\374\345\224"
 128      E57AA517 
 128      8FB6E96D 
 128      35FCE594 
 129 0034 16C42270 		.ascii	"\026\304\"p-\310C\012\\\251\274\021Z\240 \017\311A\260"
 129      2DC8430A 
 129      5CA9BC11 
 129      5AA0200F 
 129      C941B0
 130 0047 AD883D02 		.ascii	"\255\210=\002A1\304x\"\004\021\022A\300 Z\316ofw\357"
 130      4131C478 
 130      22041112 
 130      41C0205A 
 130      CE6F6677 
 131 005c 7697DB7B 		.ascii	"v\227\333{\220\270\31177{;\337o~\337c\276\231]\016q"
 131      90B8C937 
 131      377B3BDF 
 131      6F7EDF63 
 131      BE995D0E 
 132 0071 E8124628 		.ascii	"\350\022F(\002\327\364!\010\325s\010\231\021B\023Q\354"
 132      02D7F421 
 132      08D57308 
 132      99114213 
 132      51EC
 133 0083 B280B480 		.ascii	"\262\200\264\200\334\003\351\005\261\302\370\201 &\350"
 133      DC03E905 
 133      B1C2F881 
ARM GAS  /tmp/ccPllA0j.s 			page 10


 133      2026E8
 134 0092 E7C0EF50 		.ascii	"\347\300\357P\220\341\030i.:>[\326\315\002\261\201\264"
 134      90E11869 
 134      2E3A3E5B 
 134      D6CD02B1 
 134      81B4
 135 00a4 825C07E9 		.ascii	"\202\\\007\351\213\2449\366\202\334\002\331\007\362"
 135      8BA439F6 
 135      82DC02D9 
 135      07F2
 136 00b2 32E88F04 		.ascii	"2\350\217\004\311\004\351\200\373\343 \207\344q7A\016"
 136      C904E980 
 136      FBE32087 
 136      E4713741 
 136      0E
 137 00c3 829C06B9 		.ascii	"\202\234\006\271\001\302\311\370V\025\207;\360;J\307"
 137      01C2C9F8 
 137      5615873B 
 137      F03B4AC7 
 138 00d3 81F21DA0 		.ascii	"\201\362\035\240\343\220h\376<\325\374\2552\207od\036"
 138      E39068FE 
 138      3CD5FCAD 
 138      32876F64 
 138      1E
 139 00e4 16150FCA 		.ascii	"\026\025\017\312\241\033\344\254\314\345\236\212\013"
 139      A11BE4AC 
 139      CCE59E8A 
 139      0B
 140 00f1 F5C5DFF0 		.ascii	"\365\305\337\360\373PK\205\371M\357\217D\\\034:.\243"
 140      FB504B85 
 140      F94DEF8F 
 140      445C1C3A 
 140      2EA3
 141 0103 A13F489E 		.ascii	"\241?H\236C\315\303\024'&4\026\026\220>:\177\014E\233"
 141      43CDC314 
 141      27263416 
 141      16903E3A 
 141      7F0C459B 
 142 0117 482018DE 		.ascii	"H \030\336z\3456^O\202\365\004BN0\032\202>%p\005\226"
 142      7AE5365E 
 142      4F82F504 
 142      424E301A 
 142      823E2570 
 143 012d 1082452B 		.ascii	"\020\202E+ZJ\310\"zS\330\0154\347b\001gY\221\235ulV"
 143      5A4AC822 
 143      7A53D80D 
 143      34E76201 
 143      6759919D 
 144 0144 C67438FA 		.ascii	"\306t8\372\234\020\177\270\275w{.!\031\002n\305V\360"
 144      9C107FB8 
 144      BD777B2E 
 144      2119026E 
 144      C556F0
 145 0157 821BA35C 		.ascii	"\202\033\243\\\264\023p\374\204\234zM71\273R\207\276"
 145      B41370FC 
 145      849C7A4D 
 145      3731BB52 
ARM GAS  /tmp/ccPllA0j.s 			page 11


 145      87BE
 146 0169 FBD1D727 		.ascii	"\373\321\327'\361\"\240#\340\355\014|-\306H\300\333"
 146      F122A023 
 146      E0ED0C7C 
 146      2DC648C0 
 146      DB
 147 017a 706EDA50 		.ascii	"pn\332P\215\313\216O`,w1\240\036\035\220\200\373Z\325"
 147      8DCB8E4F 
 147      602C7731 
 147      A01E1D90 
 147      80FB5AD5 
 148 018e 1CD9BD32 		.ascii	"\034\331\2752\200\242\261\307r\207.\221\247\320\377"
 148      80A2B1C7 
 148      72872E91 
 148      A7D0FF
 149 019d 3C3C9E2D 		.ascii	"<<\236-Ts\013\036\302z&\226q\250\037j\210y` j\244\021"
 149      54730B1E 
 149      C27A2696 
 149      71A81F6A 
 149      88796020 
 150 01b4 B4AB7CF1 		.ascii	"\264\253|\361\256\242oS\271\265\347l>\363\305><\020"
 150      AEA26F53 
 150      B9B5E76C 
 150      3EF3C53E 
 150      3C10
 151 01c6 50EA38AD 		.ascii	"P\3528\255/\222\241P\026\373AS\322a\230$x\277\313F\314"
 151      2F92A150 
 151      16FB4153 
 151      D2619824 
 151      78BFCB46 
 152 01db D2FF4883 		.ascii	"\322\377H\203\246\271\206\241\000\260\015\366v5?M\002"
 152      A6B986A1 
 152      00B00DF6 
 152      76353F4D 
 152      02
 153 01ec A77032F2 		.ascii	"\247p2\362aN\231w\244*\337Z6\233\030\373C\214\375\307"
 153      614E9977 
 153      A42ADF5A 
 153      369B18FB 
 153      438CFDC7 
 154 0200 C9D96B61 		.ascii	"\311\331ka(\275#z\372\377\3640\372G\222\323\257\257"
 154      28BD237A 
 154      FAFFF430 
 154      FA4792D3 
 154      AFAF
 155 0212 0B467A24 		.ascii	"\013Fz$\372,\373\352\022f\237\200w\340\341)\305\233"
 155      FA2CFBEA 
 155      12669F80 
 155      77E0E129 
 155      C59B
 156 0224 436B9825 		.ascii	"Ck\230%\224B<$\271+]\362\000--\177\310\346\027\004|"
 156      94423C24 
 156      B92B5DF2 
 156      002D2D7F 
 156      C8E61704 
 157 0239 9C257873 		.ascii	"\234%xs\332`v\015X\223\032\2545\025\260\014cf\253\325"
 157      DA60760D 
ARM GAS  /tmp/ccPllA0j.s 			page 12


 157      58931AAC 
 157      3515B00C 
 157      6366ABD5 
 158 024d 60BBD306 		.ascii	"`\273\323\006\3232[\243\006kO\005,\333\230\331:5XG\332"
 158      D3325BA3 
 158      066B4F05 
 158      2CDB98D9 
 158      3A355847 
 159 0262 606A66B5 		.ascii	"`jf\265\301\303\2413\2304\331\006\241&BjI\240\217QR"
 159      C1C3A133 
 159      9834D906 
 159      A126426A 
 159      49A08F51 
 160 0277 4001A743 		.ascii	"@\001\247CH\302!\002>\203\007i\223t\303\312,\232\244"
 160      48C22102 
 160      3E830769 
 160      9374C3CA 
 160      2C9AA4
 161 028a F4FFE46B 		.ascii	"\364\377\344klcHJR\245t\036a\306Q\335'\310.\230\274"
 161      6C63484A 
 161      52A5741E 
 161      61C651DD 
 161      27C82E98 
 162 029f 23D48F34 		.ascii	"#\324\2174\330\344\325\025xcG\002\342!\375\352\332\034"
 162      D8E4D515 
 162      78634702 
 162      E221FDEA 
 162      DA1C
 163 02b1 E2ECD2DF 		.ascii	"\342\354\322\337\311y\267\207\232sH\340$\226K;YBF\250"
 163      C979B787 
 163      9A7348E0 
 163      24964B3B 
 163      594246A8 
 164 02c5 E6CA56E6 		.ascii	"\346\312V\346\242\305/\272K\034\036\311\012\302yf\350"
 164      A2C52FBA 
 164      4B1C1EC9 
 164      0AC27966 
 164      E8
 165 02d6 312EEE1E 		.ascii	"1.\356\036\221\002P\343\262\355\322\036q\221\001\235"
 165      910250E3 
 165      B2EDD21E 
 165      7191019D 
 166 02e6 E6F47B84 		.ascii	"\346\364{\204I\267G\230\264\253\332d\215u\"\021\023"
 166      49B74798 
 166      B4ABDA64 
 166      8D752211 
 166      13
 167 02f7 4A6F3087 		.ascii	"Jo0\207Bl\302P,\3774$\223\205hQ\270\355\332&\346:\305"
 167      426CC250 
 167      2CFF3424 
 167      93856851 
 167      B8EDDA26 
 168 030e 1317D2C6 		.ascii	"\023\027\322\306\313\326\305\204C?>i\332\250,\227\214"
 168      CBD6C584 
 168      433F3E69 
 168      DAA82C97 
 168      8C
ARM GAS  /tmp/ccPllA0j.s 			page 13


 169 031f 16F0593C 		.ascii	"\026\360Y<\014\332\036hU\023\\Ne\321\345\030\030\015"
 169      0CDA1E68 
 169      55135C4E 
 169      65D1E518 
 169      180D
 170 0331 2BF84BF5 		.ascii	"+\370K\365\012\016\247\015f\327\200\035U\203]K\005\314"
 170      0A0EA70D 
 170      66D7801D 
 170      55835D4B 
 170      05CC
 171 0343 6ECCECB8 		.ascii	"n\314\354\270\032\354\367\264\301\264\314N\250\301\376"
 171      1AECF7B4 
 171      C1B4CC4E 
 171      A8C1FE
 172 0352 48056C44 		.ascii	"H\005lD\242\240h\342\023\333\015\005|\224mW\307X\244"
 172      A2A068E2 
 172      13DB0D05 
 172      7C946D57 
 172      C758A4
 173 0365 4EB036C8 		.ascii	"N\2606\310\332S\254=\315\332N\326v\263\366'\326\376"
 173      DA53AC3D 
 173      CDDA4ED6 
 173      76B3F627 
 173      D6FE
 174 0377 CCDA5F58 		.ascii	"\314\332_X\373\253:\276\306'\262\340\2055\317\320j\326"
 174      FBAB3ABE 
 174      C627B2E0 
 174      8535CFD0 
 174      6AD6
 175 0389 01A7000E 		.ascii	"\001\247\000\016\335\325\2555\315\311@\332\352\215\252"
 175      DDD5AD35 
 175      CDC940DA 
 175      EA8DAA
 176 0398 CD750088 		.ascii	"\315u\000\210_T\036{\306\241Gl\236\375O\266\307\302"
 176      5F541E7B 
 176      C6A1476C 
 176      9EFD4FB6 
 176      C7C2
 177 03aa 12BBBBA2 		.ascii	"\022\273\273\242\263\011\257\252#\335\243\225\363\356"
 177      B309AFAA 
 177      23DDA395 
 177      F3EE
 178 03b8 6253BA88 		.ascii	"bS\272\210v5b\260\355\014\0046\235#\361\325;\270\216"
 178      763562B0 
 178      ED0C0436 
 178      9D23F1D5 
 178      3BB88E
 179 03cb 1D896FB1 		.ascii	"\035\211o\261\371\033L\372*e\321U)\213\266\360X\254"
 179      F91B4CFA 
 179      2A65D155 
 179      298BB6F0 
 179      58AC
 180 03dd B14EF4EC 		.ascii	"\261N\364\354\2616\025+\342\355\360\3613j\277*\243\016"
 180      B136152B 
 180      E2EDF0F1 
 180      336ABF2A 
 180      A30E
ARM GAS  /tmp/ccPllA0j.s 			page 14


 181 03ef B08C3AC8 		.ascii	"\260\214:\310r\343\006ko&\313\020\012\261\027B\027\305"
 181      72E3066B 
 181      6F26CB10 
 181      0AB11742 
 181      17C5
 182 0401 9B1D2BA6 		.ascii	"\233\035+\246\034\332\244\263\370\005\324JH\023\274"
 182      1CDAA4B3 
 182      F805D44A 
 182      4813BC
 183 0410 CD04CDF0 		.ascii	"\315\004\315\3606c\226T9\264\223\015k\301C\015\016f"
 183      36639654 
 183      39B4930D 
 183      6BC1430D 
 183      0E66
 184 0422 F2042FA2 		.ascii	"\362\004/\242\255\324\365_]-.\224B\212\022h\311tncN"
 184      ADD4F55F 
 184      5D2D2E94 
 184      428A1268 
 184      C9746E63 
 185 0437 6DAFF43A 		.ascii	"m\257\364:\025\274\277\344[\330\376\311\277\221H\235"
 185      15BCBFE4 
 185      5BD8FEC9 
 185      BF91489D 
 186 0447 59FB3225 		.ascii	"Y\3732%\340\211\203\015\015\275\257=\320K\304\2427\022"
 186      E089830D 
 186      0DBDAF3D 
 186      D04BC4A2 
 186      3712
 187 0459 23BD0BBE 		.ascii	"#\275\013\276\210\353\002r\267\264PR\027\360\237@Q\300"
 187      88EB0272 
 187      B7B45052 
 187      17F09F40 
 187      51C0
 188 046b F7125B2F 		.ascii	"\367\022[/\253\035v\027*\331|\204\001\033\253\311t\230"
 188      AB1D7617 
 188      2AD97C84 
 188      011BABC9 
 188      7498
 189 047d D308594E 		.ascii	"\323\010YN\026gcf\034\222\2654Y\360 \256\233\316w\331"
 189      16676366 
 189      1C92B534 
 189      59F020AE 
 189      9BCE77D9 
 190 0491 FCB5E148 		.ascii	"\374\265\341Hd\263=u\037=J\340\2434\336T\333\367Ho\252"
 190      64B33D75 
 190      1F3D4AE0 
 190      A334DE54 
 190      DBF7486F 
 191 04a6 B51CB5F5 		.ascii	"\265\034\265\365\304c+g;~\222\227@]l\272\014\322\363"
 191      C4632B67 
 191      3B7E9297 
 191      405D6CBA 
 191      0CD2F3
 192 04b9 E125532C 		.ascii	"\341%S,=\225\000\365\246\024\240\0034@\022\351\213\014"
 192      3D9500F5 
 192      A614A003 
 192      344012E9 
ARM GAS  /tmp/ccPllA0j.s 			page 15


 192      8B0C
 193 04cb DD588D8E 		.ascii	"\335X\215\2162\012P\257>@\365\334c\001\012\373\303\367"
 193      320A50AF 
 193      3E40F5DC 
 193      63010AFB 
 193      C3F7
 194 04dd 37FD508F 		.ascii	"7\375P\217\033\353\002\335\344651\365(5p\306\257\246"
 194      1BEB02DD 
 194      E4363531 
 194      F5283570 
 194      C6AFA6
 195 04f0 7294C25B 		.ascii	"r\224\302[\2039\353bQ\312P \260\022%\372\331\200\213"
 195      8339EB62 
 195      51CA5020 
 195      B01225FA 
 195      D9808B
 196 0503 0E263939 		.ascii	"\016&99\361\307\012x\005G\313\312J\311\\\366H\352+\275"
 196      F1C70A78 
 196      0547CBCA 
 196      4AC95CF6 
 196      48EA2BBD 
 197 0517 08A6C158 		.ascii	"\010\246\301Xl\216\367\005\202\001$V5\262\361\023\316"
 197      6C8EF705 
 197      82012456 
 197      35B2F113 
 197      CE
 198 0528 A82C3598 		.ascii	"\250,5\230\265qW\0065\306ur[{'^ON\321o/\037\246\341"
 198      B5715706 
 198      35C67572 
 198      5B7B275E 
 198      4F4ED16F 
 199 0540 E2559C6E 		.ascii	"\342U\234n!t\304)\026\321{9\031tDW\033\020]\253%\372"
 199      2174C429 
 199      16D17B39 
 199      19744457 
 199      1B105DAB 
 200 0556 3C6A21E7 		.ascii	"<j!\347\316\205\257]Y\207\227\006\026\371\311\243H\004"
 200      CE85AF5D 
 200      59879706 
 200      16F9C9A3 
 200      4804
 201 0568 0F407EF6 		.ascii	"\017@~\366r\275\016\366\344\345\000.\323\234\253\320"
 201      72BD0EF6 
 201      E4E5002E 
 201      D39CABD0 
 202 0578 947CA31E 		.ascii	"\224|\243\036\265\322p\224\200?\343\006\260\036\013"
 202      B5D27094 
 202      803FE306 
 202      B01E0B
 203 0587 37896EF6 		.ascii	"7\211n\3666\253\241\371\033T1\263Yc\235L\215!\312(\260"
 203      36ABA1F9 
 203      1B5431B3 
 203      59639D4C 
 203      8D21CA28 
 204 059c 759759B7 		.ascii	"u\227Y\267\011\350Hp\350\200\234!\317\241\223\346\215"
 204      09E84870 
 204      E8809C21 
ARM GAS  /tmp/ccPllA0j.s 			page 16


 204      CFA193E6 
 204      8D
 205 05ad B438AC67 		.ascii	"\2648\254g\254$\353\203\017:I\206\277v)\215\222\201"
 205      AC24EB83 
 205      0F3A4986 
 205      BF76298D 
 205      9281
 206 05bf EDBA4F23 		.ascii	"\355\272O#\006\266?\366\001\245%m\333\267\030\330\036"
 206      06B63FF6 
 206      01A5256D 
 206      DBB718D8 
 206      1E
 207 05d0 CD47CD28 		.ascii	"\315G\315(\3506s\272-@G\202C\337Em\277,\331\036P\333"
 207      E83673BA 
 207      2D404782 
 207      43DF456D 
 207      BF2CD91E 
 208 05e6 FE7D5732 		.ascii	"\376}W2\333\253\024\300\254D\266\353FA\231M\333\366"
 208      DBAB14C0 
 208      AC44B6EB 
 208      4641994D 
 208      DBF6
 209 05f8 1D06B6F7 		.ascii	"\035\006\266\367\327\330\276Co\273\252L\352Hp\350\267"
 209      D7D8BE43 
 209      6FBBAA4C 
 209      EA4870E8 
 209      B7
 210 0609 A8ED7F49 		.ascii	"\250\355\177I\266oc\254t\007OZ\322\214H\355\216\225"
 210      B66F63AC 
 210      74074F5A 
 210      D28C48ED 
 210      8E95
 211 061b 029D164D 		.ascii	"\002\235\026M!#\255=1-;\332L\337\2167v\022\273=Z\244"
 211      2123AD3D 
 211      312D3BDA 
 211      4CDF8E37 
 211      7612BB3D 
 212 0631 5BD4455A 		.ascii	"[\324EZ\207\033H\200\273\327\220\315\266\004Z\373\014"
 212      871B4880 
 212      BBD790CD 
 212      B6045AFB 
 212      0C
 213 0642 B55625B0 		.ascii	"\265V%\260\274-\246\205\206{=\363\034\223\313=\363<"
 213      BC2DA685 
 213      867B3DF3 
 213      1C93CB3D 
 213      F33C
 214 0654 4525FC98 		.ascii	"E%\374\230\361yc\362\3069\034\225>G\271\340u\370\252"
 214      F17963F2 
 214      C6391C95 
 214      3E47B9E0 
 214      75F8AA
 215 0667 5D8E2AC1 		.ascii	"]\216*\301\233\347B\257'\030UUY-\372\034%\263f\216\315"
 215      9BE742AF 
 215      27185555 
 215      592DFA1C 
 215      25B3668E 
ARM GAS  /tmp/ccPllA0j.s 			page 17


 216 067c 77CC9851 		.ascii	"w\314\230Q\340\230Z<\255\350\375|\252\310{\275\245y"
 216      E0985A3C 
 216      ADE8FD7C 
 216      AAC87BBD 
 216      A579
 217 068e E5C8E6A9 		.ascii	"\345\310\346\251\244c\026\010\276\367x\261\317\324\267"
 217      A4631608 
 217      BEF778B1 
 217      CFD4B7
 218 069d 67DB27A3 		.ascii	"g\333'\243g\0355\276j\207\247\302\345\255)u;*\334\037"
 218      671D35BE 
 218      6A87A7C2 
 218      E5AD2975 
 218      3B2ADC1F 
 219 06b1 D0097C62 		.ascii	"\320\011|b\251\247B\004\215\214\032\370\035\233\317"
 219      A9A74204 
 219      8D8C1AF8 
 219      1D9BCF
 220 06c0 8BA3E20D 		.ascii	"\213\243\342\015[ \270\312=\025n\007_\352.\023j\274"
 220      5B20B8CA 
 220      3D156E07 
 220      5FEA2E13 
 220      6ABC
 221 06d2 222F2EAC 		.ascii	"\"/.\254r\373@-\223\347\025\305\227\022\020V\340\250"
 221      72FB402D 
 221      93E715C5 
 221      97121056 
 221      E0A8
 222 06e4 69E5C832 		.ascii	"i\345\3102\255hR\215\317\346\023\027\200\336\374*O%"
 222      AD68528D 
 222      CFE61317 
 222      80DEFC2A 
 222      4F25
 223 06f6 2F5A6616 		.ascii	"/Zf\026\025Lq\366)\232\365N\361\024g\337\242\222\342"
 223      154C71F6 
 223      299AF54E 
 223      F11467DF 
 223      A292E2
 224 0709 29530A9C 		.ascii	")S\012\234\226\342\331\305\005N\3234\220\242\002'\236"
 224      96E2D9C5 
 224      054ED334 
 224      90A20227 
 224      9E
 225 071a C3388E19 		.ascii	"\3038\216\031\317\213\362\254\264k\362\271E\213\313"
 225      CF8BF2AC 
 225      B46BF2B9 
 225      458BCB
 226 0729 EB16AA71 		.ascii	"\353\026\252q\241yR\211\323i\2361y\272\323\374\346["
 226      A1795289 
 226      D3699E31 
 226      79BAD3FC 
 226      E65B
 227 073b CE19B429 		.ascii	"\316\031\264)4Mr:3%oxJ\301\027R\307L=c\243\030|\231"
 227      344D723A 
 227      33256F78 
 227      4AC11752 
 227      C74C3D63 
ARM GAS  /tmp/ccPllA0j.s 			page 18


 228 0753 E0135F85 		.ascii	"\340\023_\205\007\225ee\000\225\011\014\235n\241\024"
 228      07956565 
 228      0095090C 
 228      9D6EA114 
 229 0763 F899E6D5 		.ascii	"\370\231\346\325\370\372\301\355\234j\217\350\206{\363"
 229      F8FAC1ED 
 229      9C6A8FE8 
 229      867BF3
 230 0772 3C8FE8CB 		.ascii	"<\217\350\313\360T.\250,u\363b\177xR\342\026\341\377"
 230      F0542EA8 
 230      2C75F362 
 230      7F7852E2 
 230      16E1FF
 231 0785 99706FA6 		.ascii	"\231po\246\177\346\0328\240Z\214\332\357*\367-\244n"
 231      7FE61A38 
 231      A05A8CDA 
 231      EF2AF72D 
 231      A46E
 232 0797 33BBCA85 		.ascii	"3\273\312\205j\253\253\274d\241\257P\360\212\203y9t"
 232      6AABABBC 
 232      64A1AF50 
 232      F08A8379 
 232      3974
 233 07a9 3C50985F 		.ascii	"<P\230_]YSE\3612x\276\254\246\302\305\363\375\225N\336"
 233      5D595345 
 233      F13278BE 
 233      ACA6C2C5 
 233      F3FD954E 
 234 07be 2BE3F2C7 		.ascii	"+\343\362\307\365\213QD\232'\023l*\266\232Gc\307"
 234      F58B5144 
 234      9A27136C 
 234      2AB69A47 
 234      63C7
 235 07d0 6569E8A2 		.ascii	"ei\350\242\377\000\223E\363A"
 235      FF009345 
 235      F341
 236              		.text
 237              		.section	.gnu.lto_.symtab.6672b8367368ebb9,"",%progbits
 238 0000 70616C52 		.ascii	"palReadBus\000\000\000\000\000\000\000\000\000\000\000"
 238      65616442 
 238      75730000 
 238      00000000 
 238      00000000 
 239 0015 00A10000 		.ascii	"\000\241\000\000\000palWriteBus\000\000\000\000\000"
 239      0070616C 
 239      57726974 
 239      65427573 
 239      00000000 
 240 002a 00000000 		.ascii	"\000\000\000\000\000\000\000\364\000\000\000palSetB"
 240      000000F4 
 240      00000070 
 240      616C5365 
 240      7442
 241 003c 75734D6F 		.ascii	"usMode\000\000\000\000\000\000\000\000\000\000\000\000"
 241      64650000 
 241      00000000 
 241      00000000 
ARM GAS  /tmp/ccPllA0j.s 			page 19


 241      0000
 242 004e FD000000 		.ascii	"\375\000\000\000chSysHalt\000\000\002\000\000\000\000"
 242      63685379 
 242      7348616C 
 242      74000002 
 242      00000000 
 243 0062 00000000 		.ascii	"\000\000\000\000\000\011\001\000\000_pal_lld_setgro"
 243      00090100 
 243      005F7061 
 243      6C5F6C6C 
 243      645F7365 
 244 007a 75706D6F 		.ascii	"upmode\000\000\002\000\000\000\000\000\000\000\000\000"
 244      64650000 
 244      02000000 
 244      00000000 
 244      0000
 245 008c 12010000 		.ascii	"\022\001\000\000"
 246              		.text
 247              		.section	.gnu.lto_.opts,"",%progbits
 248 0000 272D6D63 		.ascii	"'-mcpu=cortex-m4' '-mno-thumb-interwork' '-mthumb' "
 248      70753D63 
 248      6F727465 
 248      782D6D34 
 248      2720272D 
 249 0033 272D6767 		.ascii	"'-ggdb' '-O0' '-fomit-frame-pointer' '-falign-funct"
 249      64622720 
 249      272D4F30 
 249      2720272D 
 249      666F6D69 
 250 0066 696F6E73 		.ascii	"ions=16' '-ffunction-sections' '-fdata-sections' '-"
 250      3D313627 
 250      20272D66 
 250      66756E63 
 250      74696F6E 
 251 0099 666E6F2D 		.ascii	"fno-common' '-flto'\000"
 251      636F6D6D 
 251      6F6E2720 
 251      272D666C 
 251      746F2700 
 252              		.text
 253              		.cfi_sections	.debug_frame
 254              		.section	.text.palReadBus,"ax",%progbits
 255              		.align	2
 256              		.p2align 4,,15
 257              		.global	palReadBus
 258              		.thumb
 259              		.thumb_func
 260              		.type	palReadBus, %function
 261              	palReadBus:
 262              	.LFB272:
 263              		.file 1 "lib/ChibiOS_16.1.4//os/hal/src/pal.c"
 264              		.loc 1 65 0
 265              		.cfi_startproc
 266              		@ args = 0, pretend = 0, frame = 8
 267              		@ frame_needed = 0, uses_anonymous_args = 0
 268 0000 00B5     		push	{lr}
 269              		.cfi_def_cfa_offset 4
ARM GAS  /tmp/ccPllA0j.s 			page 20


 270              		.cfi_offset 14, -4
 271 0002 83B0     		sub	sp, sp, #12
 272              		.cfi_def_cfa_offset 16
 273 0004 0190     		str	r0, [sp, #4]
 274              		.loc 1 67 0
 275 0006 019B     		ldr	r3, [sp, #4]
 276 0008 002B     		cmp	r3, #0
 277 000a 03D0     		beq	.L2
 278              		.loc 1 67 0 is_stmt 0 discriminator 2
 279 000c 019B     		ldr	r3, [sp, #4]
 280 000e 9B68     		ldr	r3, [r3, #8]
 281 0010 0F2B     		cmp	r3, #15
 282 0012 05D9     		bls	.L3
 283              	.L2:
 284              		.loc 1 67 0 discriminator 1
 285 0014 40F20000 		movw	r0, #:lower16:__func__.7424
 286 0018 C0F20000 		movt	r0, #:upper16:__func__.7424
 287 001c FFF7FEFF 		bl	chSysHalt
 288              	.L3:
 289              		.loc 1 69 0 is_stmt 1
 290 0020 019B     		ldr	r3, [sp, #4]
 291 0022 1B68     		ldr	r3, [r3]
 292 0024 1A69     		ldr	r2, [r3, #16]
 293 0026 019B     		ldr	r3, [sp, #4]
 294 0028 9B68     		ldr	r3, [r3, #8]
 295 002a DA40     		lsrs	r2, r2, r3
 296 002c 019B     		ldr	r3, [sp, #4]
 297 002e 5B68     		ldr	r3, [r3, #4]
 298 0030 1340     		ands	r3, r3, r2
 299              		.loc 1 70 0
 300 0032 1846     		mov	r0, r3
 301 0034 03B0     		add	sp, sp, #12
 302              		@ sp needed
 303 0036 5DF804FB 		ldr	pc, [sp], #4
 304              		.cfi_endproc
 305              	.LFE272:
 306              		.size	palReadBus, .-palReadBus
 307 003a 00BFAFF3 		.section	.text.palWriteBus,"ax",%progbits
 307      0080
 308              		.align	2
 309              		.p2align 4,,15
 310              		.global	palWriteBus
 311              		.thumb
 312              		.thumb_func
 313              		.type	palWriteBus, %function
 314              	palWriteBus:
 315              	.LFB273:
 316              		.loc 1 90 0
 317              		.cfi_startproc
 318              		@ args = 0, pretend = 0, frame = 8
 319              		@ frame_needed = 0, uses_anonymous_args = 0
 320 0000 00B5     		push	{lr}
 321              		.cfi_def_cfa_offset 4
 322              		.cfi_offset 14, -4
 323 0002 83B0     		sub	sp, sp, #12
 324              		.cfi_def_cfa_offset 16
 325 0004 0190     		str	r0, [sp, #4]
ARM GAS  /tmp/ccPllA0j.s 			page 21


 326 0006 0091     		str	r1, [sp]
 327              		.loc 1 92 0
 328 0008 019B     		ldr	r3, [sp, #4]
 329 000a 002B     		cmp	r3, #0
 330 000c 03D0     		beq	.L6
 331              		.loc 1 92 0 is_stmt 0 discriminator 2
 332 000e 019B     		ldr	r3, [sp, #4]
 333 0010 9B68     		ldr	r3, [r3, #8]
 334 0012 0F2B     		cmp	r3, #15
 335 0014 05D9     		bls	.L7
 336              	.L6:
 337              		.loc 1 92 0 discriminator 1
 338 0016 40F20000 		movw	r0, #:lower16:__func__.7429
 339 001a C0F20000 		movt	r0, #:upper16:__func__.7429
 340 001e FFF7FEFF 		bl	chSysHalt
 341              	.L7:
 342              		.loc 1 94 0 is_stmt 1
 343 0022 019B     		ldr	r3, [sp, #4]
 344 0024 1B68     		ldr	r3, [r3]
 345 0026 009A     		ldr	r2, [sp]
 346 0028 D143     		mvns	r1, r2
 347 002a 019A     		ldr	r2, [sp, #4]
 348 002c 5268     		ldr	r2, [r2, #4]
 349 002e 1140     		ands	r1, r1, r2
 350 0030 019A     		ldr	r2, [sp, #4]
 351 0032 9268     		ldr	r2, [r2, #8]
 352 0034 1032     		adds	r2, r2, #16
 353 0036 9140     		lsls	r1, r1, r2
 354 0038 019A     		ldr	r2, [sp, #4]
 355 003a 5068     		ldr	r0, [r2, #4]
 356 003c 009A     		ldr	r2, [sp]
 357 003e 1040     		ands	r0, r0, r2
 358 0040 019A     		ldr	r2, [sp, #4]
 359 0042 9268     		ldr	r2, [r2, #8]
 360 0044 00FA02F2 		lsl	r2, r0, r2
 361 0048 0A43     		orrs	r2, r2, r1
 362 004a 9A61     		str	r2, [r3, #24]
 363              		.loc 1 95 0
 364 004c 03B0     		add	sp, sp, #12
 365              		@ sp needed
 366 004e 5DF804FB 		ldr	pc, [sp], #4
 367              		.cfi_endproc
 368              	.LFE273:
 369              		.size	palWriteBus, .-palWriteBus
 370 0052 00BFAFF3 		.section	.text.palSetBusMode,"ax",%progbits
 370      0080AFF3 
 370      0080AFF3 
 370      0080
 371              		.align	2
 372              		.p2align 4,,15
 373              		.global	palSetBusMode
 374              		.thumb
 375              		.thumb_func
 376              		.type	palSetBusMode, %function
 377              	palSetBusMode:
 378              	.LFB274:
 379              		.loc 1 113 0
ARM GAS  /tmp/ccPllA0j.s 			page 22


 380              		.cfi_startproc
 381              		@ args = 0, pretend = 0, frame = 8
 382              		@ frame_needed = 0, uses_anonymous_args = 0
 383 0000 00B5     		push	{lr}
 384              		.cfi_def_cfa_offset 4
 385              		.cfi_offset 14, -4
 386 0002 83B0     		sub	sp, sp, #12
 387              		.cfi_def_cfa_offset 16
 388 0004 0190     		str	r0, [sp, #4]
 389 0006 0091     		str	r1, [sp]
 390              		.loc 1 115 0
 391 0008 019B     		ldr	r3, [sp, #4]
 392 000a 002B     		cmp	r3, #0
 393 000c 03D0     		beq	.L9
 394              		.loc 1 115 0 is_stmt 0 discriminator 2
 395 000e 019B     		ldr	r3, [sp, #4]
 396 0010 9B68     		ldr	r3, [r3, #8]
 397 0012 0F2B     		cmp	r3, #15
 398 0014 05D9     		bls	.L10
 399              	.L9:
 400              		.loc 1 115 0 discriminator 1
 401 0016 40F20000 		movw	r0, #:lower16:__func__.7434
 402 001a C0F20000 		movt	r0, #:upper16:__func__.7434
 403 001e FFF7FEFF 		bl	chSysHalt
 404              	.L10:
 405              		.loc 1 117 0 is_stmt 1
 406 0022 019B     		ldr	r3, [sp, #4]
 407 0024 1A68     		ldr	r2, [r3]
 408 0026 019B     		ldr	r3, [sp, #4]
 409 0028 5968     		ldr	r1, [r3, #4]
 410 002a 019B     		ldr	r3, [sp, #4]
 411 002c 9B68     		ldr	r3, [r3, #8]
 412 002e 01FA03F3 		lsl	r3, r1, r3
 413 0032 1046     		mov	r0, r2
 414 0034 1946     		mov	r1, r3
 415 0036 009A     		ldr	r2, [sp]
 416 0038 FFF7FEFF 		bl	_pal_lld_setgroupmode
 417              		.loc 1 118 0
 418 003c 03B0     		add	sp, sp, #12
 419              		@ sp needed
 420 003e 5DF804FB 		ldr	pc, [sp], #4
 421              		.cfi_endproc
 422              	.LFE274:
 423              		.size	palSetBusMode, .-palSetBusMode
 424 0042 00BFAFF3 		.section	.rodata.__func__.7424,"a",%progbits
 424      0080AFF3 
 424      0080AFF3 
 424      0080
 425              		.align	2
 426              		.type	__func__.7424, %object
 427              		.size	__func__.7424, 11
 428              	__func__.7424:
 429 0000 70616C52 		.ascii	"palReadBus\000"
 429      65616442 
 429      757300
 430 000b 00       		.section	.rodata.__func__.7429,"a",%progbits
 431              		.align	2
ARM GAS  /tmp/ccPllA0j.s 			page 23


 432              		.type	__func__.7429, %object
 433              		.size	__func__.7429, 12
 434              	__func__.7429:
 435 0000 70616C57 		.ascii	"palWriteBus\000"
 435      72697465 
 435      42757300 
 436              		.section	.rodata.__func__.7434,"a",%progbits
 437              		.align	2
 438              		.type	__func__.7434, %object
 439              		.size	__func__.7434, 14
 440              	__func__.7434:
 441 0000 70616C53 		.ascii	"palSetBusMode\000"
 441      65744275 
 441      734D6F64 
 441      6500
 442 000e 0000     		.text
 443              	.Letext0:
 444              		.file 2 "/usr/include/newlib/machine/_default_types.h"
 445              		.file 3 "/usr/include/newlib/stdint.h"
 446              		.file 4 "lib/ChibiOS_16.1.4//os/rt/ports/ARMCMx/compilers/GCC/chtypes.h"
 447              		.file 5 "lib/ChibiOS_16.1.4//os/rt/include/chsystypes.h"
 448              		.file 6 "lib/ChibiOS_16.1.4//os/rt/include/chschd.h"
 449              		.file 7 "lib/ChibiOS_16.1.4//os/rt/ports/ARMCMx/chcore.h"
 450              		.file 8 "lib/ChibiOS_16.1.4//os/rt/ports/ARMCMx/chcore_v7m.h"
 451              		.file 9 "lib/ChibiOS_16.1.4//os/rt/include/chdebug.h"
 452              		.file 10 "lib/ChibiOS_16.1.4//os/rt/include/chtm.h"
 453              		.file 11 "lib/ChibiOS_16.1.4//os/rt/include/chstats.h"
 454              		.file 12 "lib/ChibiOS_16.1.4//os/rt/include/chsem.h"
 455              		.file 13 "lib/ChibiOS_16.1.4//os/rt/include/chmtx.h"
 456              		.file 14 "lib/ChibiOS_16.1.4//os/hal/ports/STM32/LLD/GPIOv2/pal_lld.h"
 457              		.file 15 "lib/ChibiOS_16.1.4//os/hal/include/pal.h"
 458              		.file 16 "lib/ChibiOS_16.1.4//os/ext/CMSIS/include/core_cm4.h"
 459              		.section	.debug_info,"",%progbits
 460              	.Ldebug_info0:
 461 0000 280A0000 		.4byte	0xa28
 462 0004 0400     		.2byte	0x4
 463 0006 00000000 		.4byte	.Ldebug_abbrev0
 464 000a 04       		.byte	0x4
 465 000b 01       		.uleb128 0x1
 466 000c 3E040000 		.4byte	.LASF156
 467 0010 01       		.byte	0x1
 468 0011 14000000 		.4byte	.LASF157
 469 0015 5E010000 		.4byte	.LASF158
 470 0019 00000000 		.4byte	.Ldebug_ranges0+0
 471 001d 00000000 		.4byte	0
 472 0021 00000000 		.4byte	.Ldebug_line0
 473 0025 02       		.uleb128 0x2
 474 0026 04       		.byte	0x4
 475 0027 05       		.byte	0x5
 476 0028 696E7400 		.ascii	"int\000"
 477 002c 03       		.uleb128 0x3
 478 002d 04       		.byte	0x4
 479 002e 07       		.byte	0x7
 480 002f 5A020000 		.4byte	.LASF0
 481 0033 03       		.uleb128 0x3
 482 0034 01       		.byte	0x1
 483 0035 06       		.byte	0x6
ARM GAS  /tmp/ccPllA0j.s 			page 24


 484 0036 52010000 		.4byte	.LASF1
 485 003a 04       		.uleb128 0x4
 486 003b 5C000000 		.4byte	.LASF4
 487 003f 02       		.byte	0x2
 488 0040 1C       		.byte	0x1c
 489 0041 45000000 		.4byte	0x45
 490 0045 03       		.uleb128 0x3
 491 0046 01       		.byte	0x1
 492 0047 08       		.byte	0x8
 493 0048 F8040000 		.4byte	.LASF2
 494 004c 03       		.uleb128 0x3
 495 004d 02       		.byte	0x2
 496 004e 05       		.byte	0x5
 497 004f 10050000 		.4byte	.LASF3
 498 0053 04       		.uleb128 0x4
 499 0054 DF050000 		.4byte	.LASF5
 500 0058 02       		.byte	0x2
 501 0059 26       		.byte	0x26
 502 005a 5E000000 		.4byte	0x5e
 503 005e 03       		.uleb128 0x3
 504 005f 02       		.byte	0x2
 505 0060 07       		.byte	0x7
 506 0061 92020000 		.4byte	.LASF6
 507 0065 04       		.uleb128 0x4
 508 0066 25030000 		.4byte	.LASF7
 509 006a 02       		.byte	0x2
 510 006b 37       		.byte	0x37
 511 006c 70000000 		.4byte	0x70
 512 0070 03       		.uleb128 0x3
 513 0071 04       		.byte	0x4
 514 0072 05       		.byte	0x5
 515 0073 A6010000 		.4byte	.LASF8
 516 0077 04       		.uleb128 0x4
 517 0078 1D060000 		.4byte	.LASF9
 518 007c 02       		.byte	0x2
 519 007d 38       		.byte	0x38
 520 007e 82000000 		.4byte	0x82
 521 0082 03       		.uleb128 0x3
 522 0083 04       		.byte	0x4
 523 0084 07       		.byte	0x7
 524 0085 B8050000 		.4byte	.LASF10
 525 0089 03       		.uleb128 0x3
 526 008a 08       		.byte	0x8
 527 008b 05       		.byte	0x5
 528 008c 44010000 		.4byte	.LASF11
 529 0090 04       		.uleb128 0x4
 530 0091 49030000 		.4byte	.LASF12
 531 0095 02       		.byte	0x2
 532 0096 4E       		.byte	0x4e
 533 0097 9B000000 		.4byte	0x9b
 534 009b 03       		.uleb128 0x3
 535 009c 08       		.byte	0x8
 536 009d 07       		.byte	0x7
 537 009e C5000000 		.4byte	.LASF13
 538 00a2 04       		.uleb128 0x4
 539 00a3 93060000 		.4byte	.LASF14
 540 00a7 03       		.byte	0x3
ARM GAS  /tmp/ccPllA0j.s 			page 25


 541 00a8 2A       		.byte	0x2a
 542 00a9 3A000000 		.4byte	0x3a
 543 00ad 04       		.uleb128 0x4
 544 00ae C5010000 		.4byte	.LASF15
 545 00b2 03       		.byte	0x3
 546 00b3 36       		.byte	0x36
 547 00b4 53000000 		.4byte	0x53
 548 00b8 04       		.uleb128 0x4
 549 00b9 F0040000 		.4byte	.LASF16
 550 00bd 03       		.byte	0x3
 551 00be 41       		.byte	0x41
 552 00bf 65000000 		.4byte	0x65
 553 00c3 04       		.uleb128 0x4
 554 00c4 87050000 		.4byte	.LASF17
 555 00c8 03       		.byte	0x3
 556 00c9 42       		.byte	0x42
 557 00ca 77000000 		.4byte	0x77
 558 00ce 04       		.uleb128 0x4
 559 00cf 46000000 		.4byte	.LASF18
 560 00d3 03       		.byte	0x3
 561 00d4 4E       		.byte	0x4e
 562 00d5 90000000 		.4byte	0x90
 563 00d9 04       		.uleb128 0x4
 564 00da 37050000 		.4byte	.LASF19
 565 00de 03       		.byte	0x3
 566 00df 60       		.byte	0x60
 567 00e0 2C000000 		.4byte	0x2c
 568 00e4 04       		.uleb128 0x4
 569 00e5 4C060000 		.4byte	.LASF20
 570 00e9 04       		.byte	0x4
 571 00ea 39       		.byte	0x39
 572 00eb C3000000 		.4byte	0xc3
 573 00ef 04       		.uleb128 0x4
 574 00f0 34010000 		.4byte	.LASF21
 575 00f4 04       		.byte	0x4
 576 00f5 3A       		.byte	0x3a
 577 00f6 CE000000 		.4byte	0xce
 578 00fa 04       		.uleb128 0x4
 579 00fb F8020000 		.4byte	.LASF22
 580 00ff 04       		.byte	0x4
 581 0100 3C       		.byte	0x3c
 582 0101 A2000000 		.4byte	0xa2
 583 0105 04       		.uleb128 0x4
 584 0106 AF010000 		.4byte	.LASF23
 585 010a 04       		.byte	0x4
 586 010b 3D       		.byte	0x3d
 587 010c A2000000 		.4byte	0xa2
 588 0110 04       		.uleb128 0x4
 589 0111 0D040000 		.4byte	.LASF24
 590 0115 04       		.byte	0x4
 591 0116 3E       		.byte	0x3e
 592 0117 A2000000 		.4byte	0xa2
 593 011b 04       		.uleb128 0x4
 594 011c 36040000 		.4byte	.LASF25
 595 0120 04       		.byte	0x4
 596 0121 40       		.byte	0x40
 597 0122 C3000000 		.4byte	0xc3
ARM GAS  /tmp/ccPllA0j.s 			page 26


 598 0126 04       		.uleb128 0x4
 599 0127 BE020000 		.4byte	.LASF26
 600 012b 04       		.byte	0x4
 601 012c 41       		.byte	0x41
 602 012d B8000000 		.4byte	0xb8
 603 0131 04       		.uleb128 0x4
 604 0132 19030000 		.4byte	.LASF27
 605 0136 04       		.byte	0x4
 606 0137 43       		.byte	0x43
 607 0138 C3000000 		.4byte	0xc3
 608 013c 04       		.uleb128 0x4
 609 013d 49020000 		.4byte	.LASF28
 610 0141 04       		.byte	0x4
 611 0142 45       		.byte	0x45
 612 0143 B8000000 		.4byte	0xb8
 613 0147 04       		.uleb128 0x4
 614 0148 C9020000 		.4byte	.LASF29
 615 014c 04       		.byte	0x4
 616 014d 46       		.byte	0x46
 617 014e C3000000 		.4byte	0xc3
 618 0152 04       		.uleb128 0x4
 619 0153 FF050000 		.4byte	.LASF30
 620 0157 05       		.byte	0x5
 621 0158 33       		.byte	0x33
 622 0159 C3000000 		.4byte	0xc3
 623 015d 04       		.uleb128 0x4
 624 015e EA050000 		.4byte	.LASF31
 625 0162 05       		.byte	0x5
 626 0163 3F       		.byte	0x3f
 627 0164 68010000 		.4byte	0x168
 628 0168 05       		.uleb128 0x5
 629 0169 B4020000 		.4byte	.LASF53
 630 016d 60       		.byte	0x60
 631 016e 06       		.byte	0x6
 632 016f C2       		.byte	0xc2
 633 0170 6E020000 		.4byte	0x26e
 634 0174 06       		.uleb128 0x6
 635 0175 30050000 		.4byte	.LASF32
 636 0179 06       		.byte	0x6
 637 017a C3       		.byte	0xc3
 638 017b 79020000 		.4byte	0x279
 639 017f 00       		.byte	0
 640 0180 06       		.uleb128 0x6
 641 0181 2F040000 		.4byte	.LASF33
 642 0185 06       		.byte	0x6
 643 0186 C5       		.byte	0xc5
 644 0187 79020000 		.4byte	0x279
 645 018b 04       		.byte	0x4
 646 018c 06       		.uleb128 0x6
 647 018d 3D010000 		.4byte	.LASF34
 648 0191 06       		.byte	0x6
 649 0192 C7       		.byte	0xc7
 650 0193 1B010000 		.4byte	0x11b
 651 0197 08       		.byte	0x8
 652 0198 06       		.uleb128 0x6
 653 0199 F1060000 		.4byte	.LASF35
 654 019d 06       		.byte	0x6
ARM GAS  /tmp/ccPllA0j.s 			page 27


 655 019e C8       		.byte	0xc8
 656 019f E7040000 		.4byte	0x4e7
 657 01a3 0C       		.byte	0xc
 658 01a4 06       		.uleb128 0x6
 659 01a5 CE010000 		.4byte	.LASF36
 660 01a9 06       		.byte	0x6
 661 01aa CA       		.byte	0xca
 662 01ab 79020000 		.4byte	0x279
 663 01af 10       		.byte	0x10
 664 01b0 06       		.uleb128 0x6
 665 01b1 B2030000 		.4byte	.LASF37
 666 01b5 06       		.byte	0x6
 667 01b6 CB       		.byte	0xcb
 668 01b7 79020000 		.4byte	0x279
 669 01bb 14       		.byte	0x14
 670 01bc 06       		.uleb128 0x6
 671 01bd A2060000 		.4byte	.LASF38
 672 01c1 06       		.byte	0x6
 673 01c2 D2       		.byte	0xd2
 674 01c3 8B070000 		.4byte	0x78b
 675 01c7 18       		.byte	0x18
 676 01c8 06       		.uleb128 0x6
 677 01c9 4F020000 		.4byte	.LASF39
 678 01cd 06       		.byte	0x6
 679 01ce D8       		.byte	0xd8
 680 01cf 9D070000 		.4byte	0x79d
 681 01d3 1C       		.byte	0x1c
 682 01d4 06       		.uleb128 0x6
 683 01d5 1A050000 		.4byte	.LASF40
 684 01d9 06       		.byte	0x6
 685 01da DD       		.byte	0xdd
 686 01db 05010000 		.4byte	0x105
 687 01df 20       		.byte	0x20
 688 01e0 06       		.uleb128 0x6
 689 01e1 44050000 		.4byte	.LASF41
 690 01e5 06       		.byte	0x6
 691 01e6 E1       		.byte	0xe1
 692 01e7 FA000000 		.4byte	0xfa
 693 01eb 21       		.byte	0x21
 694 01ec 06       		.uleb128 0x6
 695 01ed B8010000 		.4byte	.LASF42
 696 01f1 06       		.byte	0x6
 697 01f2 E6       		.byte	0xe6
 698 01f3 10010000 		.4byte	0x110
 699 01f7 22       		.byte	0x22
 700 01f8 07       		.uleb128 0x7
 701 01f9 705F7500 		.ascii	"p_u\000"
 702 01fd 06       		.byte	0x6
 703 01fe 3101     		.2byte	0x131
 704 0200 C6060000 		.4byte	0x6c6
 705 0204 24       		.byte	0x24
 706 0205 08       		.uleb128 0x8
 707 0206 54030000 		.4byte	.LASF43
 708 020a 06       		.byte	0x6
 709 020b 3601     		.2byte	0x136
 710 020d 7F020000 		.4byte	0x27f
 711 0211 28       		.byte	0x28
ARM GAS  /tmp/ccPllA0j.s 			page 28


 712 0212 08       		.uleb128 0x8
 713 0213 76020000 		.4byte	.LASF44
 714 0217 06       		.byte	0x6
 715 0218 3C01     		.2byte	0x13c
 716 021a A3020000 		.4byte	0x2a3
 717 021e 2C       		.byte	0x2c
 718 021f 08       		.uleb128 0x8
 719 0220 C5060000 		.4byte	.LASF45
 720 0224 06       		.byte	0x6
 721 0225 4001     		.2byte	0x140
 722 0227 26010000 		.4byte	0x126
 723 022b 34       		.byte	0x34
 724 022c 08       		.uleb128 0x8
 725 022d 7C050000 		.4byte	.LASF46
 726 0231 06       		.byte	0x6
 727 0232 4601     		.2byte	0x146
 728 0234 31010000 		.4byte	0x131
 729 0238 38       		.byte	0x38
 730 0239 08       		.uleb128 0x8
 731 023a 06050000 		.4byte	.LASF47
 732 023e 06       		.byte	0x6
 733 023f 4D01     		.2byte	0x14d
 734 0241 85070000 		.4byte	0x785
 735 0245 3C       		.byte	0x3c
 736 0246 08       		.uleb128 0x8
 737 0247 09060000 		.4byte	.LASF48
 738 024b 06       		.byte	0x6
 739 024c 5101     		.2byte	0x151
 740 024e 1B010000 		.4byte	0x11b
 741 0252 40       		.byte	0x40
 742 0253 08       		.uleb128 0x8
 743 0254 8A010000 		.4byte	.LASF49
 744 0258 06       		.byte	0x6
 745 0259 5801     		.2byte	0x158
 746 025b 56030000 		.4byte	0x356
 747 025f 44       		.byte	0x44
 748 0260 08       		.uleb128 0x8
 749 0261 4C050000 		.4byte	.LASF50
 750 0265 06       		.byte	0x6
 751 0266 5E01     		.2byte	0x15e
 752 0268 77060000 		.4byte	0x677
 753 026c 48       		.byte	0x48
 754 026d 00       		.byte	0
 755 026e 04       		.uleb128 0x4
 756 026f 67030000 		.4byte	.LASF51
 757 0273 05       		.byte	0x5
 758 0274 44       		.byte	0x44
 759 0275 79020000 		.4byte	0x279
 760 0279 09       		.uleb128 0x9
 761 027a 04       		.byte	0x4
 762 027b 5D010000 		.4byte	0x15d
 763 027f 04       		.uleb128 0x4
 764 0280 A9060000 		.4byte	.LASF52
 765 0284 05       		.byte	0x5
 766 0285 49       		.byte	0x49
 767 0286 8A020000 		.4byte	0x28a
 768 028a 05       		.uleb128 0x5
ARM GAS  /tmp/ccPllA0j.s 			page 29


 769 028b A8050000 		.4byte	.LASF54
 770 028f 04       		.byte	0x4
 771 0290 06       		.byte	0x6
 772 0291 B0       		.byte	0xb0
 773 0292 A3020000 		.4byte	0x2a3
 774 0296 06       		.uleb128 0x6
 775 0297 30050000 		.4byte	.LASF32
 776 029b 06       		.byte	0x6
 777 029c B1       		.byte	0xb1
 778 029d 79020000 		.4byte	0x279
 779 02a1 00       		.byte	0
 780 02a2 00       		.byte	0
 781 02a3 04       		.uleb128 0x4
 782 02a4 67060000 		.4byte	.LASF55
 783 02a8 05       		.byte	0x5
 784 02a9 50       		.byte	0x50
 785 02aa AE020000 		.4byte	0x2ae
 786 02ae 05       		.uleb128 0x5
 787 02af 79000000 		.4byte	.LASF56
 788 02b3 08       		.byte	0x8
 789 02b4 06       		.byte	0x6
 790 02b5 B7       		.byte	0xb7
 791 02b6 D3020000 		.4byte	0x2d3
 792 02ba 06       		.uleb128 0x6
 793 02bb 30050000 		.4byte	.LASF32
 794 02bf 06       		.byte	0x6
 795 02c0 B8       		.byte	0xb8
 796 02c1 79020000 		.4byte	0x279
 797 02c5 00       		.byte	0
 798 02c6 06       		.uleb128 0x6
 799 02c7 2F040000 		.4byte	.LASF33
 800 02cb 06       		.byte	0x6
 801 02cc B9       		.byte	0xb9
 802 02cd 79020000 		.4byte	0x279
 803 02d1 04       		.byte	0x4
 804 02d2 00       		.byte	0
 805 02d3 04       		.uleb128 0x4
 806 02d4 07000000 		.4byte	.LASF57
 807 02d8 05       		.byte	0x5
 808 02d9 57       		.byte	0x57
 809 02da DE020000 		.4byte	0x2de
 810 02de 0A       		.uleb128 0xa
 811 02df 0B030000 		.4byte	.LASF58
 812 02e3 1C       		.byte	0x1c
 813 02e4 06       		.byte	0x6
 814 02e5 9001     		.2byte	0x190
 815 02e7 3A030000 		.4byte	0x33a
 816 02eb 08       		.uleb128 0x8
 817 02ec 97050000 		.4byte	.LASF59
 818 02f0 06       		.byte	0x6
 819 02f1 9101     		.2byte	0x191
 820 02f3 A3020000 		.4byte	0x2a3
 821 02f7 00       		.byte	0
 822 02f8 08       		.uleb128 0x8
 823 02f9 22050000 		.4byte	.LASF60
 824 02fd 06       		.byte	0x6
 825 02fe 9201     		.2byte	0x192
ARM GAS  /tmp/ccPllA0j.s 			page 30


 826 0300 1B010000 		.4byte	0x11b
 827 0304 08       		.byte	0x8
 828 0305 08       		.uleb128 0x8
 829 0306 BA030000 		.4byte	.LASF61
 830 030a 06       		.byte	0x6
 831 030b 9401     		.2byte	0x194
 832 030d E7040000 		.4byte	0x4e7
 833 0311 0C       		.byte	0xc
 834 0312 08       		.uleb128 0x8
 835 0313 EE010000 		.4byte	.LASF62
 836 0317 06       		.byte	0x6
 837 0318 9701     		.2byte	0x197
 838 031a 79020000 		.4byte	0x279
 839 031e 10       		.byte	0x10
 840 031f 08       		.uleb128 0x8
 841 0320 DB030000 		.4byte	.LASF63
 842 0324 06       		.byte	0x6
 843 0325 9801     		.2byte	0x198
 844 0327 79020000 		.4byte	0x279
 845 032b 14       		.byte	0x14
 846 032c 08       		.uleb128 0x8
 847 032d D1030000 		.4byte	.LASF64
 848 0331 06       		.byte	0x6
 849 0332 9B01     		.2byte	0x19b
 850 0334 79020000 		.4byte	0x279
 851 0338 18       		.byte	0x18
 852 0339 00       		.byte	0
 853 033a 04       		.uleb128 0x4
 854 033b 14060000 		.4byte	.LASF65
 855 033f 05       		.byte	0x5
 856 0340 5C       		.byte	0x5c
 857 0341 45030000 		.4byte	0x345
 858 0345 09       		.uleb128 0x9
 859 0346 04       		.byte	0x4
 860 0347 4B030000 		.4byte	0x34b
 861 034b 0B       		.uleb128 0xb
 862 034c 56030000 		.4byte	0x356
 863 0350 0C       		.uleb128 0xc
 864 0351 56030000 		.4byte	0x356
 865 0355 00       		.byte	0
 866 0356 0D       		.uleb128 0xd
 867 0357 04       		.byte	0x4
 868 0358 04       		.uleb128 0x4
 869 0359 1F040000 		.4byte	.LASF66
 870 035d 05       		.byte	0x5
 871 035e 61       		.byte	0x61
 872 035f 63030000 		.4byte	0x363
 873 0363 0A       		.uleb128 0xa
 874 0364 5E050000 		.4byte	.LASF67
 875 0368 14       		.byte	0x14
 876 0369 06       		.byte	0x6
 877 036a 6B01     		.2byte	0x16b
 878 036c B2030000 		.4byte	0x3b2
 879 0370 08       		.uleb128 0x8
 880 0371 67020000 		.4byte	.LASF68
 881 0375 06       		.byte	0x6
 882 0376 6C01     		.2byte	0x16c
ARM GAS  /tmp/ccPllA0j.s 			page 31


 883 0378 A3070000 		.4byte	0x7a3
 884 037c 00       		.byte	0
 885 037d 08       		.uleb128 0x8
 886 037e 0D020000 		.4byte	.LASF69
 887 0382 06       		.byte	0x6
 888 0383 6D01     		.2byte	0x16d
 889 0385 A3070000 		.4byte	0x7a3
 890 0389 04       		.byte	0x4
 891 038a 08       		.uleb128 0x8
 892 038b 9F050000 		.4byte	.LASF70
 893 038f 06       		.byte	0x6
 894 0390 6E01     		.2byte	0x16e
 895 0392 52010000 		.4byte	0x152
 896 0396 08       		.byte	0x8
 897 0397 08       		.uleb128 0x8
 898 0398 F7060000 		.4byte	.LASF71
 899 039c 06       		.byte	0x6
 900 039d 6F01     		.2byte	0x16f
 901 039f 3A030000 		.4byte	0x33a
 902 03a3 0C       		.byte	0xc
 903 03a4 08       		.uleb128 0x8
 904 03a5 54060000 		.4byte	.LASF72
 905 03a9 06       		.byte	0x6
 906 03aa 7101     		.2byte	0x171
 907 03ac 56030000 		.4byte	0x356
 908 03b0 10       		.byte	0x10
 909 03b1 00       		.byte	0
 910 03b2 04       		.uleb128 0x4
 911 03b3 11010000 		.4byte	.LASF73
 912 03b7 05       		.byte	0x5
 913 03b8 66       		.byte	0x66
 914 03b9 BD030000 		.4byte	0x3bd
 915 03bd 0A       		.uleb128 0xa
 916 03be 7A030000 		.4byte	.LASF74
 917 03c2 10       		.byte	0x10
 918 03c3 06       		.byte	0x6
 919 03c4 7B01     		.2byte	0x17b
 920 03c6 FF030000 		.4byte	0x3ff
 921 03ca 08       		.uleb128 0x8
 922 03cb 67020000 		.4byte	.LASF68
 923 03cf 06       		.byte	0x6
 924 03d0 7C01     		.2byte	0x17c
 925 03d2 A3070000 		.4byte	0x7a3
 926 03d6 00       		.byte	0
 927 03d7 08       		.uleb128 0x8
 928 03d8 0D020000 		.4byte	.LASF69
 929 03dc 06       		.byte	0x6
 930 03dd 7E01     		.2byte	0x17e
 931 03df A3070000 		.4byte	0x7a3
 932 03e3 04       		.byte	0x4
 933 03e4 08       		.uleb128 0x8
 934 03e5 9F050000 		.4byte	.LASF70
 935 03e9 06       		.byte	0x6
 936 03ea 8001     		.2byte	0x180
 937 03ec 52010000 		.4byte	0x152
 938 03f0 08       		.byte	0x8
 939 03f1 08       		.uleb128 0x8
ARM GAS  /tmp/ccPllA0j.s 			page 32


 940 03f2 A6030000 		.4byte	.LASF75
 941 03f6 06       		.byte	0x6
 942 03f7 8801     		.2byte	0x188
 943 03f9 52010000 		.4byte	0x152
 944 03fd 0C       		.byte	0xc
 945 03fe 00       		.byte	0
 946 03ff 04       		.uleb128 0x4
 947 0400 8A000000 		.4byte	.LASF76
 948 0404 05       		.byte	0x5
 949 0405 6B       		.byte	0x6b
 950 0406 0A040000 		.4byte	0x40a
 951 040a 0E       		.uleb128 0xe
 952 040b 15020000 		.4byte	.LASF77
 953 040f 1404     		.2byte	0x414
 954 0411 06       		.byte	0x6
 955 0412 A201     		.2byte	0x1a2
 956 0414 4D040000 		.4byte	0x44d
 957 0418 08       		.uleb128 0x8
 958 0419 28060000 		.4byte	.LASF78
 959 041d 06       		.byte	0x6
 960 041e AA01     		.2byte	0x1aa
 961 0420 A9070000 		.4byte	0x7a9
 962 0424 00       		.byte	0
 963 0425 08       		.uleb128 0x8
 964 0426 85060000 		.4byte	.LASF79
 965 042a 06       		.byte	0x6
 966 042b AF01     		.2byte	0x1af
 967 042d 3C010000 		.4byte	0x13c
 968 0431 04       		.byte	0x4
 969 0432 08       		.uleb128 0x8
 970 0433 3A020000 		.4byte	.LASF80
 971 0437 06       		.byte	0x6
 972 0438 B301     		.2byte	0x1b3
 973 043a 3C010000 		.4byte	0x13c
 974 043e 08       		.byte	0x8
 975 043f 08       		.uleb128 0x8
 976 0440 B8060000 		.4byte	.LASF81
 977 0444 06       		.byte	0x6
 978 0445 B901     		.2byte	0x1b9
 979 0447 09060000 		.4byte	0x609
 980 044b 0C       		.byte	0xc
 981 044c 00       		.byte	0
 982 044d 04       		.uleb128 0x4
 983 044e DE020000 		.4byte	.LASF82
 984 0452 05       		.byte	0x5
 985 0453 70       		.byte	0x70
 986 0454 58040000 		.4byte	0x458
 987 0458 0E       		.uleb128 0xe
 988 0459 54050000 		.4byte	.LASF83
 989 045d D805     		.2byte	0x5d8
 990 045f 06       		.byte	0x6
 991 0460 C201     		.2byte	0x1c2
 992 0462 C5040000 		.4byte	0x4c5
 993 0466 08       		.uleb128 0x8
 994 0467 8D060000 		.4byte	.LASF84
 995 046b 06       		.byte	0x6
 996 046c C601     		.2byte	0x1c6
ARM GAS  /tmp/ccPllA0j.s 			page 33


 997 046e D3020000 		.4byte	0x2d3
 998 0472 00       		.byte	0
 999 0473 08       		.uleb128 0x8
 1000 0474 9A010000 		.4byte	.LASF85
 1001 0478 06       		.byte	0x6
 1002 0479 CA01     		.2byte	0x1ca
 1003 047b B2030000 		.4byte	0x3b2
 1004 047f 1C       		.byte	0x1c
 1005 0480 07       		.uleb128 0x7
 1006 0481 64626700 		.ascii	"dbg\000"
 1007 0485 06       		.byte	0x6
 1008 0486 CE01     		.2byte	0x1ce
 1009 0488 FF030000 		.4byte	0x3ff
 1010 048c 2C       		.byte	0x2c
 1011 048d 0F       		.uleb128 0xf
 1012 048e 06010000 		.4byte	.LASF86
 1013 0492 06       		.byte	0x6
 1014 0493 D201     		.2byte	0x1d2
 1015 0495 5D010000 		.4byte	0x15d
 1016 0499 4004     		.2byte	0x440
 1017 049b 10       		.uleb128 0x10
 1018 049c 746D00   		.ascii	"tm\000"
 1019 049f 06       		.byte	0x6
 1020 04a0 D701     		.2byte	0x1d7
 1021 04a2 29060000 		.4byte	0x629
 1022 04a6 A004     		.2byte	0x4a0
 1023 04a8 0F       		.uleb128 0xf
 1024 04a9 4F000000 		.4byte	.LASF87
 1025 04ad 06       		.byte	0x6
 1026 04ae DD01     		.2byte	0x1dd
 1027 04b0 BB060000 		.4byte	0x6bb
 1028 04b4 A804     		.2byte	0x4a8
 1029 04b6 0F       		.uleb128 0xf
 1030 04b7 2F030000 		.4byte	.LASF88
 1031 04bb 06       		.byte	0x6
 1032 04bc E301     		.2byte	0x1e3
 1033 04be AE070000 		.4byte	0x7ae
 1034 04c2 E004     		.2byte	0x4e0
 1035 04c4 00       		.byte	0
 1036 04c5 03       		.uleb128 0x3
 1037 04c6 04       		.byte	0x4
 1038 04c7 07       		.byte	0x7
 1039 04c8 5E030000 		.4byte	.LASF89
 1040 04cc 11       		.uleb128 0x11
 1041 04cd C3000000 		.4byte	0xc3
 1042 04d1 04       		.uleb128 0x4
 1043 04d2 04020000 		.4byte	.LASF90
 1044 04d6 07       		.byte	0x7
 1045 04d7 65       		.byte	0x65
 1046 04d8 56030000 		.4byte	0x356
 1047 04dc 04       		.uleb128 0x4
 1048 04dd 3E030000 		.4byte	.LASF91
 1049 04e1 07       		.byte	0x7
 1050 04e2 6D       		.byte	0x6d
 1051 04e3 CE000000 		.4byte	0xce
 1052 04e7 05       		.uleb128 0x5
 1053 04e8 44060000 		.4byte	.LASF92
ARM GAS  /tmp/ccPllA0j.s 			page 34


 1054 04ec 04       		.byte	0x4
 1055 04ed 07       		.byte	0x7
 1056 04ee 89       		.byte	0x89
 1057 04ef 00050000 		.4byte	0x500
 1058 04f3 12       		.uleb128 0x12
 1059 04f4 72313300 		.ascii	"r13\000"
 1060 04f8 07       		.byte	0x7
 1061 04f9 8A       		.byte	0x8a
 1062 04fa 7B050000 		.4byte	0x57b
 1063 04fe 00       		.byte	0
 1064 04ff 00       		.byte	0
 1065 0500 05       		.uleb128 0x5
 1066 0501 6D000000 		.4byte	.LASF93
 1067 0505 24       		.byte	0x24
 1068 0506 08       		.byte	0x8
 1069 0507 FD       		.byte	0xfd
 1070 0508 7B050000 		.4byte	0x57b
 1071 050c 07       		.uleb128 0x7
 1072 050d 723400   		.ascii	"r4\000"
 1073 0510 08       		.byte	0x8
 1074 0511 1001     		.2byte	0x110
 1075 0513 D1040000 		.4byte	0x4d1
 1076 0517 00       		.byte	0
 1077 0518 07       		.uleb128 0x7
 1078 0519 723500   		.ascii	"r5\000"
 1079 051c 08       		.byte	0x8
 1080 051d 1101     		.2byte	0x111
 1081 051f D1040000 		.4byte	0x4d1
 1082 0523 04       		.byte	0x4
 1083 0524 07       		.uleb128 0x7
 1084 0525 723600   		.ascii	"r6\000"
 1085 0528 08       		.byte	0x8
 1086 0529 1201     		.2byte	0x112
 1087 052b D1040000 		.4byte	0x4d1
 1088 052f 08       		.byte	0x8
 1089 0530 07       		.uleb128 0x7
 1090 0531 723700   		.ascii	"r7\000"
 1091 0534 08       		.byte	0x8
 1092 0535 1301     		.2byte	0x113
 1093 0537 D1040000 		.4byte	0x4d1
 1094 053b 0C       		.byte	0xc
 1095 053c 07       		.uleb128 0x7
 1096 053d 723800   		.ascii	"r8\000"
 1097 0540 08       		.byte	0x8
 1098 0541 1401     		.2byte	0x114
 1099 0543 D1040000 		.4byte	0x4d1
 1100 0547 10       		.byte	0x10
 1101 0548 07       		.uleb128 0x7
 1102 0549 723900   		.ascii	"r9\000"
 1103 054c 08       		.byte	0x8
 1104 054d 1501     		.2byte	0x115
 1105 054f D1040000 		.4byte	0x4d1
 1106 0553 14       		.byte	0x14
 1107 0554 07       		.uleb128 0x7
 1108 0555 72313000 		.ascii	"r10\000"
 1109 0559 08       		.byte	0x8
 1110 055a 1601     		.2byte	0x116
ARM GAS  /tmp/ccPllA0j.s 			page 35


 1111 055c D1040000 		.4byte	0x4d1
 1112 0560 18       		.byte	0x18
 1113 0561 07       		.uleb128 0x7
 1114 0562 72313100 		.ascii	"r11\000"
 1115 0566 08       		.byte	0x8
 1116 0567 1701     		.2byte	0x117
 1117 0569 D1040000 		.4byte	0x4d1
 1118 056d 1C       		.byte	0x1c
 1119 056e 07       		.uleb128 0x7
 1120 056f 6C7200   		.ascii	"lr\000"
 1121 0572 08       		.byte	0x8
 1122 0573 1801     		.2byte	0x118
 1123 0575 D1040000 		.4byte	0x4d1
 1124 0579 20       		.byte	0x20
 1125 057a 00       		.byte	0
 1126 057b 09       		.uleb128 0x9
 1127 057c 04       		.byte	0x4
 1128 057d 00050000 		.4byte	0x500
 1129 0581 13       		.uleb128 0x13
 1130 0582 10       		.byte	0x10
 1131 0583 09       		.byte	0x9
 1132 0584 51       		.byte	0x51
 1133 0585 BA050000 		.4byte	0x5ba
 1134 0589 06       		.uleb128 0x6
 1135 058a 82010000 		.4byte	.LASF94
 1136 058e 09       		.byte	0x9
 1137 058f 55       		.byte	0x55
 1138 0590 52010000 		.4byte	0x152
 1139 0594 00       		.byte	0
 1140 0595 06       		.uleb128 0x6
 1141 0596 BF010000 		.4byte	.LASF95
 1142 059a 09       		.byte	0x9
 1143 059b 59       		.byte	0x59
 1144 059c 79020000 		.4byte	0x279
 1145 05a0 04       		.byte	0x4
 1146 05a1 06       		.uleb128 0x6
 1147 05a2 E7060000 		.4byte	.LASF96
 1148 05a6 09       		.byte	0x9
 1149 05a7 5D       		.byte	0x5d
 1150 05a8 56030000 		.4byte	0x356
 1151 05ac 08       		.byte	0x8
 1152 05ad 06       		.uleb128 0x6
 1153 05ae EE000000 		.4byte	.LASF97
 1154 05b2 09       		.byte	0x9
 1155 05b3 61       		.byte	0x61
 1156 05b4 A2000000 		.4byte	0xa2
 1157 05b8 0C       		.byte	0xc
 1158 05b9 00       		.byte	0
 1159 05ba 04       		.uleb128 0x4
 1160 05bb 97030000 		.4byte	.LASF98
 1161 05bf 09       		.byte	0x9
 1162 05c0 62       		.byte	0x62
 1163 05c1 81050000 		.4byte	0x581
 1164 05c5 14       		.uleb128 0x14
 1165 05c6 0804     		.2byte	0x408
 1166 05c8 09       		.byte	0x9
 1167 05c9 67       		.byte	0x67
ARM GAS  /tmp/ccPllA0j.s 			page 36


 1168 05ca F3050000 		.4byte	0x5f3
 1169 05ce 06       		.uleb128 0x6
 1170 05cf DE010000 		.4byte	.LASF99
 1171 05d3 09       		.byte	0x9
 1172 05d4 6B       		.byte	0x6b
 1173 05d5 2C000000 		.4byte	0x2c
 1174 05d9 00       		.byte	0
 1175 05da 06       		.uleb128 0x6
 1176 05db 00000000 		.4byte	.LASF100
 1177 05df 09       		.byte	0x9
 1178 05e0 6F       		.byte	0x6f
 1179 05e1 F3050000 		.4byte	0x5f3
 1180 05e5 04       		.byte	0x4
 1181 05e6 06       		.uleb128 0x6
 1182 05e7 15040000 		.4byte	.LASF101
 1183 05eb 09       		.byte	0x9
 1184 05ec 73       		.byte	0x73
 1185 05ed F9050000 		.4byte	0x5f9
 1186 05f1 08       		.byte	0x8
 1187 05f2 00       		.byte	0
 1188 05f3 09       		.uleb128 0x9
 1189 05f4 04       		.byte	0x4
 1190 05f5 BA050000 		.4byte	0x5ba
 1191 05f9 15       		.uleb128 0x15
 1192 05fa BA050000 		.4byte	0x5ba
 1193 05fe 09060000 		.4byte	0x609
 1194 0602 16       		.uleb128 0x16
 1195 0603 C5040000 		.4byte	0x4c5
 1196 0607 3F       		.byte	0x3f
 1197 0608 00       		.byte	0
 1198 0609 04       		.uleb128 0x4
 1199 060a DC000000 		.4byte	.LASF102
 1200 060e 09       		.byte	0x9
 1201 060f 74       		.byte	0x74
 1202 0610 C5050000 		.4byte	0x5c5
 1203 0614 13       		.uleb128 0x13
 1204 0615 04       		.byte	0x4
 1205 0616 0A       		.byte	0xa
 1206 0617 38       		.byte	0x38
 1207 0618 29060000 		.4byte	0x629
 1208 061c 06       		.uleb128 0x6
 1209 061d 32060000 		.4byte	.LASF103
 1210 0621 0A       		.byte	0xa
 1211 0622 3C       		.byte	0x3c
 1212 0623 E4000000 		.4byte	0xe4
 1213 0627 00       		.byte	0
 1214 0628 00       		.byte	0
 1215 0629 04       		.uleb128 0x4
 1216 062a C0030000 		.4byte	.LASF104
 1217 062e 0A       		.byte	0xa
 1218 062f 3D       		.byte	0x3d
 1219 0630 14060000 		.4byte	0x614
 1220 0634 13       		.uleb128 0x13
 1221 0635 18       		.byte	0x18
 1222 0636 0A       		.byte	0xa
 1223 0637 48       		.byte	0x48
 1224 0638 77060000 		.4byte	0x677
ARM GAS  /tmp/ccPllA0j.s 			page 37


 1225 063c 06       		.uleb128 0x6
 1226 063d F3050000 		.4byte	.LASF105
 1227 0641 0A       		.byte	0xa
 1228 0642 49       		.byte	0x49
 1229 0643 E4000000 		.4byte	0xe4
 1230 0647 00       		.byte	0
 1231 0648 06       		.uleb128 0x6
 1232 0649 A6000000 		.4byte	.LASF106
 1233 064d 0A       		.byte	0xa
 1234 064e 4A       		.byte	0x4a
 1235 064f E4000000 		.4byte	0xe4
 1236 0653 04       		.byte	0x4
 1237 0654 06       		.uleb128 0x6
 1238 0655 C4020000 		.4byte	.LASF107
 1239 0659 0A       		.byte	0xa
 1240 065a 4B       		.byte	0x4b
 1241 065b E4000000 		.4byte	0xe4
 1242 065f 08       		.byte	0x8
 1243 0660 12       		.uleb128 0x12
 1244 0661 6E00     		.ascii	"n\000"
 1245 0663 0A       		.byte	0xa
 1246 0664 4C       		.byte	0x4c
 1247 0665 47010000 		.4byte	0x147
 1248 0669 0C       		.byte	0xc
 1249 066a 06       		.uleb128 0x6
 1250 066b EF030000 		.4byte	.LASF108
 1251 066f 0A       		.byte	0xa
 1252 0670 4D       		.byte	0x4d
 1253 0671 EF000000 		.4byte	0xef
 1254 0675 10       		.byte	0x10
 1255 0676 00       		.byte	0
 1256 0677 04       		.uleb128 0x4
 1257 0678 AC000000 		.4byte	.LASF109
 1258 067c 0A       		.byte	0xa
 1259 067d 4E       		.byte	0x4e
 1260 067e 34060000 		.4byte	0x634
 1261 0682 13       		.uleb128 0x13
 1262 0683 38       		.byte	0x38
 1263 0684 0B       		.byte	0xb
 1264 0685 38       		.byte	0x38
 1265 0686 BB060000 		.4byte	0x6bb
 1266 068a 06       		.uleb128 0x6
 1267 068b 86020000 		.4byte	.LASF110
 1268 068f 0B       		.byte	0xb
 1269 0690 39       		.byte	0x39
 1270 0691 47010000 		.4byte	0x147
 1271 0695 00       		.byte	0
 1272 0696 06       		.uleb128 0x6
 1273 0697 E1040000 		.4byte	.LASF111
 1274 069b 0B       		.byte	0xb
 1275 069c 3A       		.byte	0x3a
 1276 069d 47010000 		.4byte	0x147
 1277 06a1 04       		.byte	0x4
 1278 06a2 06       		.uleb128 0x6
 1279 06a3 D4060000 		.4byte	.LASF112
 1280 06a7 0B       		.byte	0xb
 1281 06a8 3B       		.byte	0x3b
ARM GAS  /tmp/ccPllA0j.s 			page 38


 1282 06a9 77060000 		.4byte	0x677
 1283 06ad 08       		.byte	0x8
 1284 06ae 06       		.uleb128 0x6
 1285 06af 00030000 		.4byte	.LASF113
 1286 06b3 0B       		.byte	0xb
 1287 06b4 3D       		.byte	0x3d
 1288 06b5 77060000 		.4byte	0x677
 1289 06b9 20       		.byte	0x20
 1290 06ba 00       		.byte	0
 1291 06bb 04       		.uleb128 0x4
 1292 06bc A5020000 		.4byte	.LASF114
 1293 06c0 0B       		.byte	0xb
 1294 06c1 3F       		.byte	0x3f
 1295 06c2 82060000 		.4byte	0x682
 1296 06c6 17       		.uleb128 0x17
 1297 06c7 04       		.byte	0x4
 1298 06c8 06       		.byte	0x6
 1299 06c9 FA       		.byte	0xfa
 1300 06ca 23070000 		.4byte	0x723
 1301 06ce 18       		.uleb128 0x18
 1302 06cf 3F000000 		.4byte	.LASF115
 1303 06d3 06       		.byte	0x6
 1304 06d4 0101     		.2byte	0x101
 1305 06d6 26010000 		.4byte	0x126
 1306 06da 18       		.uleb128 0x18
 1307 06db FD000000 		.4byte	.LASF116
 1308 06df 06       		.byte	0x6
 1309 06e0 0801     		.2byte	0x108
 1310 06e2 26010000 		.4byte	0x126
 1311 06e6 18       		.uleb128 0x18
 1312 06e7 9B060000 		.4byte	.LASF117
 1313 06eb 06       		.byte	0x6
 1314 06ec 0F01     		.2byte	0x10f
 1315 06ee 56030000 		.4byte	0x356
 1316 06f2 18       		.uleb128 0x18
 1317 06f3 39000000 		.4byte	.LASF118
 1318 06f7 06       		.byte	0x6
 1319 06f8 1601     		.2byte	0x116
 1320 06fa 23070000 		.4byte	0x723
 1321 06fe 18       		.uleb128 0x18
 1322 06ff 6F020000 		.4byte	.LASF119
 1323 0703 06       		.byte	0x6
 1324 0704 1E01     		.2byte	0x11e
 1325 0706 4E070000 		.4byte	0x74e
 1326 070a 18       		.uleb128 0x18
 1327 070b 90050000 		.4byte	.LASF120
 1328 070f 06       		.byte	0x6
 1329 0710 2701     		.2byte	0x127
 1330 0712 85070000 		.4byte	0x785
 1331 0716 18       		.uleb128 0x18
 1332 0717 29050000 		.4byte	.LASF121
 1333 071b 06       		.byte	0x6
 1334 071c 2F01     		.2byte	0x12f
 1335 071e 31010000 		.4byte	0x131
 1336 0722 00       		.byte	0
 1337 0723 09       		.uleb128 0x9
 1338 0724 04       		.byte	0x4
ARM GAS  /tmp/ccPllA0j.s 			page 39


 1339 0725 6E020000 		.4byte	0x26e
 1340 0729 05       		.uleb128 0x5
 1341 072a 6F050000 		.4byte	.LASF122
 1342 072e 0C       		.byte	0xc
 1343 072f 0C       		.byte	0xc
 1344 0730 34       		.byte	0x34
 1345 0731 4E070000 		.4byte	0x74e
 1346 0735 06       		.uleb128 0x6
 1347 0736 D6010000 		.4byte	.LASF123
 1348 073a 0C       		.byte	0xc
 1349 073b 35       		.byte	0x35
 1350 073c A3020000 		.4byte	0x2a3
 1351 0740 00       		.byte	0
 1352 0741 06       		.uleb128 0x6
 1353 0742 8C020000 		.4byte	.LASF124
 1354 0746 0C       		.byte	0xc
 1355 0747 37       		.byte	0x37
 1356 0748 3C010000 		.4byte	0x13c
 1357 074c 08       		.byte	0x8
 1358 074d 00       		.byte	0
 1359 074e 09       		.uleb128 0x9
 1360 074f 04       		.byte	0x4
 1361 0750 29070000 		.4byte	0x729
 1362 0754 05       		.uleb128 0x5
 1363 0755 77060000 		.4byte	.LASF125
 1364 0759 10       		.byte	0x10
 1365 075a 0D       		.byte	0xd
 1366 075b 39       		.byte	0x39
 1367 075c 85070000 		.4byte	0x785
 1368 0760 06       		.uleb128 0x6
 1369 0761 92010000 		.4byte	.LASF126
 1370 0765 0D       		.byte	0xd
 1371 0766 3A       		.byte	0x3a
 1372 0767 A3020000 		.4byte	0x2a3
 1373 076b 00       		.byte	0
 1374 076c 06       		.uleb128 0x6
 1375 076d DF060000 		.4byte	.LASF127
 1376 0771 0D       		.byte	0xd
 1377 0772 3C       		.byte	0x3c
 1378 0773 79020000 		.4byte	0x279
 1379 0777 08       		.byte	0x8
 1380 0778 06       		.uleb128 0x6
 1381 0779 F8050000 		.4byte	.LASF128
 1382 077d 0D       		.byte	0xd
 1383 077e 3E       		.byte	0x3e
 1384 077f C9070000 		.4byte	0x7c9
 1385 0783 0C       		.byte	0xc
 1386 0784 00       		.byte	0
 1387 0785 09       		.uleb128 0x9
 1388 0786 04       		.byte	0x4
 1389 0787 54070000 		.4byte	0x754
 1390 078b 09       		.uleb128 0x9
 1391 078c 04       		.byte	0x4
 1392 078d 91070000 		.4byte	0x791
 1393 0791 19       		.uleb128 0x19
 1394 0792 96070000 		.4byte	0x796
 1395 0796 03       		.uleb128 0x3
ARM GAS  /tmp/ccPllA0j.s 			page 40


 1396 0797 01       		.byte	0x1
 1397 0798 08       		.byte	0x8
 1398 0799 CA050000 		.4byte	.LASF129
 1399 079d 09       		.uleb128 0x9
 1400 079e 04       		.byte	0x4
 1401 079f DC040000 		.4byte	0x4dc
 1402 07a3 09       		.uleb128 0x9
 1403 07a4 04       		.byte	0x4
 1404 07a5 58030000 		.4byte	0x358
 1405 07a9 11       		.uleb128 0x11
 1406 07aa 8B070000 		.4byte	0x78b
 1407 07ae 15       		.uleb128 0x15
 1408 07af DC040000 		.4byte	0x4dc
 1409 07b3 BE070000 		.4byte	0x7be
 1410 07b7 16       		.uleb128 0x16
 1411 07b8 C5040000 		.4byte	0x4c5
 1412 07bc 1E       		.byte	0x1e
 1413 07bd 00       		.byte	0
 1414 07be 04       		.uleb128 0x4
 1415 07bf 32020000 		.4byte	.LASF130
 1416 07c3 0D       		.byte	0xd
 1417 07c4 34       		.byte	0x34
 1418 07c5 54070000 		.4byte	0x754
 1419 07c9 09       		.uleb128 0x9
 1420 07ca 04       		.byte	0x4
 1421 07cb BE070000 		.4byte	0x7be
 1422 07cf 03       		.uleb128 0x3
 1423 07d0 01       		.byte	0x1
 1424 07d1 02       		.byte	0x2
 1425 07d2 EA040000 		.4byte	.LASF131
 1426 07d6 13       		.uleb128 0x13
 1427 07d7 04       		.byte	0x4
 1428 07d8 0E       		.byte	0xe
 1429 07d9 E7       		.byte	0xe7
 1430 07da F7070000 		.4byte	0x7f7
 1431 07de 12       		.uleb128 0x12
 1432 07df 73657400 		.ascii	"set\000"
 1433 07e3 0E       		.byte	0xe
 1434 07e4 E8       		.byte	0xe8
 1435 07e5 AD000000 		.4byte	0xad
 1436 07e9 00       		.byte	0
 1437 07ea 06       		.uleb128 0x6
 1438 07eb 91030000 		.4byte	.LASF132
 1439 07ef 0E       		.byte	0xe
 1440 07f0 E9       		.byte	0xe9
 1441 07f1 AD000000 		.4byte	0xad
 1442 07f5 02       		.byte	0x2
 1443 07f6 00       		.byte	0
 1444 07f7 17       		.uleb128 0x17
 1445 07f8 04       		.byte	0x4
 1446 07f9 0E       		.byte	0xe
 1447 07fa E5       		.byte	0xe5
 1448 07fb 12080000 		.4byte	0x812
 1449 07ff 1A       		.uleb128 0x1a
 1450 0800 5700     		.ascii	"W\000"
 1451 0802 0E       		.byte	0xe
 1452 0803 E6       		.byte	0xe6
ARM GAS  /tmp/ccPllA0j.s 			page 41


 1453 0804 C3000000 		.4byte	0xc3
 1454 0808 1A       		.uleb128 0x1a
 1455 0809 4800     		.ascii	"H\000"
 1456 080b 0E       		.byte	0xe
 1457 080c EA       		.byte	0xea
 1458 080d D6070000 		.4byte	0x7d6
 1459 0811 00       		.byte	0
 1460 0812 13       		.uleb128 0x13
 1461 0813 2C       		.byte	0x2c
 1462 0814 0E       		.byte	0xe
 1463 0815 DD       		.byte	0xdd
 1464 0816 9F080000 		.4byte	0x89f
 1465 081a 06       		.uleb128 0x6
 1466 081b BF000000 		.4byte	.LASF133
 1467 081f 0E       		.byte	0xe
 1468 0820 DF       		.byte	0xdf
 1469 0821 CC040000 		.4byte	0x4cc
 1470 0825 00       		.byte	0
 1471 0826 06       		.uleb128 0x6
 1472 0827 66000000 		.4byte	.LASF134
 1473 082b 0E       		.byte	0xe
 1474 082c E0       		.byte	0xe0
 1475 082d CC040000 		.4byte	0x4cc
 1476 0831 04       		.byte	0x4
 1477 0832 06       		.uleb128 0x6
 1478 0833 E6010000 		.4byte	.LASF135
 1479 0837 0E       		.byte	0xe
 1480 0838 E1       		.byte	0xe1
 1481 0839 CC040000 		.4byte	0x4cc
 1482 083d 08       		.byte	0x8
 1483 083e 06       		.uleb128 0x6
 1484 083f F7000000 		.4byte	.LASF136
 1485 0843 0E       		.byte	0xe
 1486 0844 E2       		.byte	0xe2
 1487 0845 CC040000 		.4byte	0x4cc
 1488 0849 0C       		.byte	0xc
 1489 084a 12       		.uleb128 0x12
 1490 084b 49445200 		.ascii	"IDR\000"
 1491 084f 0E       		.byte	0xe
 1492 0850 E3       		.byte	0xe3
 1493 0851 CC040000 		.4byte	0x4cc
 1494 0855 10       		.byte	0x10
 1495 0856 12       		.uleb128 0x12
 1496 0857 4F445200 		.ascii	"ODR\000"
 1497 085b 0E       		.byte	0xe
 1498 085c E4       		.byte	0xe4
 1499 085d CC040000 		.4byte	0x4cc
 1500 0861 14       		.byte	0x14
 1501 0862 06       		.uleb128 0x6
 1502 0863 7D010000 		.4byte	.LASF137
 1503 0867 0E       		.byte	0xe
 1504 0868 EB       		.byte	0xeb
 1505 0869 9F080000 		.4byte	0x89f
 1506 086d 18       		.byte	0x18
 1507 086e 06       		.uleb128 0x6
 1508 086f 81020000 		.4byte	.LASF138
 1509 0873 0E       		.byte	0xe
ARM GAS  /tmp/ccPllA0j.s 			page 42


 1510 0874 EC       		.byte	0xec
 1511 0875 CC040000 		.4byte	0x4cc
 1512 0879 1C       		.byte	0x1c
 1513 087a 06       		.uleb128 0x6
 1514 087b 08040000 		.4byte	.LASF139
 1515 087f 0E       		.byte	0xe
 1516 0880 ED       		.byte	0xed
 1517 0881 CC040000 		.4byte	0x4cc
 1518 0885 20       		.byte	0x20
 1519 0886 06       		.uleb128 0x6
 1520 0887 EA030000 		.4byte	.LASF140
 1521 088b 0E       		.byte	0xe
 1522 088c EE       		.byte	0xee
 1523 088d CC040000 		.4byte	0x4cc
 1524 0891 24       		.byte	0x24
 1525 0892 12       		.uleb128 0x12
 1526 0893 42525200 		.ascii	"BRR\000"
 1527 0897 0E       		.byte	0xe
 1528 0898 EF       		.byte	0xef
 1529 0899 CC040000 		.4byte	0x4cc
 1530 089d 28       		.byte	0x28
 1531 089e 00       		.byte	0
 1532 089f 11       		.uleb128 0x11
 1533 08a0 F7070000 		.4byte	0x7f7
 1534 08a4 04       		.uleb128 0x4
 1535 08a5 25020000 		.4byte	.LASF141
 1536 08a9 0E       		.byte	0xe
 1537 08aa F0       		.byte	0xf0
 1538 08ab 12080000 		.4byte	0x812
 1539 08af 1B       		.uleb128 0x1b
 1540 08b0 99000000 		.4byte	.LASF142
 1541 08b4 0E       		.byte	0xe
 1542 08b5 3F01     		.2byte	0x13f
 1543 08b7 C3000000 		.4byte	0xc3
 1544 08bb 1B       		.uleb128 0x1b
 1545 08bc CB060000 		.4byte	.LASF143
 1546 08c0 0E       		.byte	0xe
 1547 08c1 4401     		.2byte	0x144
 1548 08c3 C3000000 		.4byte	0xc3
 1549 08c7 1B       		.uleb128 0x1b
 1550 08c8 39060000 		.4byte	.LASF144
 1551 08cc 0E       		.byte	0xe
 1552 08cd 5101     		.2byte	0x151
 1553 08cf D3080000 		.4byte	0x8d3
 1554 08d3 09       		.uleb128 0x9
 1555 08d4 04       		.byte	0x4
 1556 08d5 A4080000 		.4byte	0x8a4
 1557 08d9 13       		.uleb128 0x13
 1558 08da 0C       		.byte	0xc
 1559 08db 0F       		.byte	0xf
 1560 08dc 7A       		.byte	0x7a
 1561 08dd 06090000 		.4byte	0x906
 1562 08e1 06       		.uleb128 0x6
 1563 08e2 E3030000 		.4byte	.LASF145
 1564 08e6 0F       		.byte	0xf
 1565 08e7 7E       		.byte	0x7e
 1566 08e8 C7080000 		.4byte	0x8c7
ARM GAS  /tmp/ccPllA0j.s 			page 43


 1567 08ec 00       		.byte	0
 1568 08ed 06       		.uleb128 0x6
 1569 08ee 80060000 		.4byte	.LASF146
 1570 08f2 0F       		.byte	0xf
 1571 08f3 84       		.byte	0x84
 1572 08f4 AF080000 		.4byte	0x8af
 1573 08f8 04       		.byte	0x4
 1574 08f9 06       		.uleb128 0x6
 1575 08fa 32060000 		.4byte	.LASF103
 1576 08fe 0F       		.byte	0xf
 1577 08ff 88       		.byte	0x88
 1578 0900 D9000000 		.4byte	0xd9
 1579 0904 08       		.byte	0x8
 1580 0905 00       		.byte	0
 1581 0906 04       		.uleb128 0x4
 1582 0907 43020000 		.4byte	.LASF147
 1583 090b 0F       		.byte	0xf
 1584 090c 89       		.byte	0x89
 1585 090d D9080000 		.4byte	0x8d9
 1586 0911 1C       		.uleb128 0x1c
 1587 0912 D4050000 		.4byte	.LASF159
 1588 0916 01       		.byte	0x1
 1589 0917 41       		.byte	0x41
 1590 0918 AF080000 		.4byte	0x8af
 1591 091c 00000000 		.4byte	.LFB272
 1592 0920 3A000000 		.4byte	.LFE272-.LFB272
 1593 0924 01       		.uleb128 0x1
 1594 0925 9C       		.byte	0x9c
 1595 0926 48090000 		.4byte	0x948
 1596 092a 1D       		.uleb128 0x1d
 1597 092b 62757300 		.ascii	"bus\000"
 1598 092f 01       		.byte	0x1
 1599 0930 41       		.byte	0x41
 1600 0931 48090000 		.4byte	0x948
 1601 0935 02       		.uleb128 0x2
 1602 0936 91       		.byte	0x91
 1603 0937 74       		.sleb128 -12
 1604 0938 1E       		.uleb128 0x1e
 1605 0939 D0020000 		.4byte	.LASF149
 1606 093d 5E090000 		.4byte	0x95e
 1607 0941 05       		.uleb128 0x5
 1608 0942 03       		.byte	0x3
 1609 0943 00000000 		.4byte	__func__.7424
 1610 0947 00       		.byte	0
 1611 0948 09       		.uleb128 0x9
 1612 0949 04       		.byte	0x4
 1613 094a 06090000 		.4byte	0x906
 1614 094e 15       		.uleb128 0x15
 1615 094f 96070000 		.4byte	0x796
 1616 0953 5E090000 		.4byte	0x95e
 1617 0957 16       		.uleb128 0x16
 1618 0958 C5040000 		.4byte	0x4c5
 1619 095c 0A       		.byte	0xa
 1620 095d 00       		.byte	0
 1621 095e 19       		.uleb128 0x19
 1622 095f 4E090000 		.4byte	0x94e
 1623 0963 1F       		.uleb128 0x1f
ARM GAS  /tmp/ccPllA0j.s 			page 44


 1624 0964 5B060000 		.4byte	.LASF151
 1625 0968 01       		.byte	0x1
 1626 0969 5A       		.byte	0x5a
 1627 096a 00000000 		.4byte	.LFB273
 1628 096e 52000000 		.4byte	.LFE273-.LFB273
 1629 0972 01       		.uleb128 0x1
 1630 0973 9C       		.byte	0x9c
 1631 0974 A4090000 		.4byte	0x9a4
 1632 0978 1D       		.uleb128 0x1d
 1633 0979 62757300 		.ascii	"bus\000"
 1634 097d 01       		.byte	0x1
 1635 097e 5A       		.byte	0x5a
 1636 097f 48090000 		.4byte	0x948
 1637 0983 02       		.uleb128 0x2
 1638 0984 91       		.byte	0x91
 1639 0985 74       		.sleb128 -12
 1640 0986 20       		.uleb128 0x20
 1641 0987 A1010000 		.4byte	.LASF148
 1642 098b 01       		.byte	0x1
 1643 098c 5A       		.byte	0x5a
 1644 098d AF080000 		.4byte	0x8af
 1645 0991 02       		.uleb128 0x2
 1646 0992 91       		.byte	0x91
 1647 0993 70       		.sleb128 -16
 1648 0994 1E       		.uleb128 0x1e
 1649 0995 EA020000 		.4byte	.LASF150
 1650 0999 B4090000 		.4byte	0x9b4
 1651 099d 05       		.uleb128 0x5
 1652 099e 03       		.byte	0x3
 1653 099f 00000000 		.4byte	__func__.7429
 1654 09a3 00       		.byte	0
 1655 09a4 15       		.uleb128 0x15
 1656 09a5 96070000 		.4byte	0x796
 1657 09a9 B4090000 		.4byte	0x9b4
 1658 09ad 16       		.uleb128 0x16
 1659 09ae C5040000 		.4byte	0x4c5
 1660 09b2 0B       		.byte	0xb
 1661 09b3 00       		.byte	0
 1662 09b4 19       		.uleb128 0x19
 1663 09b5 A4090000 		.4byte	0x9a4
 1664 09b9 1F       		.uleb128 0x1f
 1665 09ba FA030000 		.4byte	.LASF152
 1666 09be 01       		.byte	0x1
 1667 09bf 71       		.byte	0x71
 1668 09c0 00000000 		.4byte	.LFB274
 1669 09c4 42000000 		.4byte	.LFE274-.LFB274
 1670 09c8 01       		.uleb128 0x1
 1671 09c9 9C       		.byte	0x9c
 1672 09ca FA090000 		.4byte	0x9fa
 1673 09ce 1D       		.uleb128 0x1d
 1674 09cf 62757300 		.ascii	"bus\000"
 1675 09d3 01       		.byte	0x1
 1676 09d4 71       		.byte	0x71
 1677 09d5 48090000 		.4byte	0x948
 1678 09d9 02       		.uleb128 0x2
 1679 09da 91       		.byte	0x91
 1680 09db 74       		.sleb128 -12
ARM GAS  /tmp/ccPllA0j.s 			page 45


 1681 09dc 20       		.uleb128 0x20
 1682 09dd CF050000 		.4byte	.LASF153
 1683 09e1 01       		.byte	0x1
 1684 09e2 71       		.byte	0x71
 1685 09e3 BB080000 		.4byte	0x8bb
 1686 09e7 02       		.uleb128 0x2
 1687 09e8 91       		.byte	0x91
 1688 09e9 70       		.sleb128 -16
 1689 09ea 1E       		.uleb128 0x1e
 1690 09eb F6010000 		.4byte	.LASF154
 1691 09ef 0A0A0000 		.4byte	0xa0a
 1692 09f3 05       		.uleb128 0x5
 1693 09f4 03       		.byte	0x3
 1694 09f5 00000000 		.4byte	__func__.7434
 1695 09f9 00       		.byte	0
 1696 09fa 15       		.uleb128 0x15
 1697 09fb 96070000 		.4byte	0x796
 1698 09ff 0A0A0000 		.4byte	0xa0a
 1699 0a03 16       		.uleb128 0x16
 1700 0a04 C5040000 		.4byte	0x4c5
 1701 0a08 0D       		.byte	0xd
 1702 0a09 00       		.byte	0
 1703 0a0a 19       		.uleb128 0x19
 1704 0a0b FA090000 		.4byte	0x9fa
 1705 0a0f 21       		.uleb128 0x21
 1706 0a10 27010000 		.4byte	.LASF155
 1707 0a14 10       		.byte	0x10
 1708 0a15 FA06     		.2byte	0x6fa
 1709 0a17 1B0A0000 		.4byte	0xa1b
 1710 0a1b 11       		.uleb128 0x11
 1711 0a1c B8000000 		.4byte	0xb8
 1712 0a20 22       		.uleb128 0x22
 1713 0a21 636800   		.ascii	"ch\000"
 1714 0a24 06       		.byte	0x6
 1715 0a25 0902     		.2byte	0x209
 1716 0a27 4D040000 		.4byte	0x44d
 1717 0a2b 00       		.byte	0
 1718              		.section	.debug_abbrev,"",%progbits
 1719              	.Ldebug_abbrev0:
 1720 0000 01       		.uleb128 0x1
 1721 0001 11       		.uleb128 0x11
 1722 0002 01       		.byte	0x1
 1723 0003 25       		.uleb128 0x25
 1724 0004 0E       		.uleb128 0xe
 1725 0005 13       		.uleb128 0x13
 1726 0006 0B       		.uleb128 0xb
 1727 0007 03       		.uleb128 0x3
 1728 0008 0E       		.uleb128 0xe
 1729 0009 1B       		.uleb128 0x1b
 1730 000a 0E       		.uleb128 0xe
 1731 000b 55       		.uleb128 0x55
 1732 000c 17       		.uleb128 0x17
 1733 000d 11       		.uleb128 0x11
 1734 000e 01       		.uleb128 0x1
 1735 000f 10       		.uleb128 0x10
 1736 0010 17       		.uleb128 0x17
 1737 0011 00       		.byte	0
ARM GAS  /tmp/ccPllA0j.s 			page 46


 1738 0012 00       		.byte	0
 1739 0013 02       		.uleb128 0x2
 1740 0014 24       		.uleb128 0x24
 1741 0015 00       		.byte	0
 1742 0016 0B       		.uleb128 0xb
 1743 0017 0B       		.uleb128 0xb
 1744 0018 3E       		.uleb128 0x3e
 1745 0019 0B       		.uleb128 0xb
 1746 001a 03       		.uleb128 0x3
 1747 001b 08       		.uleb128 0x8
 1748 001c 00       		.byte	0
 1749 001d 00       		.byte	0
 1750 001e 03       		.uleb128 0x3
 1751 001f 24       		.uleb128 0x24
 1752 0020 00       		.byte	0
 1753 0021 0B       		.uleb128 0xb
 1754 0022 0B       		.uleb128 0xb
 1755 0023 3E       		.uleb128 0x3e
 1756 0024 0B       		.uleb128 0xb
 1757 0025 03       		.uleb128 0x3
 1758 0026 0E       		.uleb128 0xe
 1759 0027 00       		.byte	0
 1760 0028 00       		.byte	0
 1761 0029 04       		.uleb128 0x4
 1762 002a 16       		.uleb128 0x16
 1763 002b 00       		.byte	0
 1764 002c 03       		.uleb128 0x3
 1765 002d 0E       		.uleb128 0xe
 1766 002e 3A       		.uleb128 0x3a
 1767 002f 0B       		.uleb128 0xb
 1768 0030 3B       		.uleb128 0x3b
 1769 0031 0B       		.uleb128 0xb
 1770 0032 49       		.uleb128 0x49
 1771 0033 13       		.uleb128 0x13
 1772 0034 00       		.byte	0
 1773 0035 00       		.byte	0
 1774 0036 05       		.uleb128 0x5
 1775 0037 13       		.uleb128 0x13
 1776 0038 01       		.byte	0x1
 1777 0039 03       		.uleb128 0x3
 1778 003a 0E       		.uleb128 0xe
 1779 003b 0B       		.uleb128 0xb
 1780 003c 0B       		.uleb128 0xb
 1781 003d 3A       		.uleb128 0x3a
 1782 003e 0B       		.uleb128 0xb
 1783 003f 3B       		.uleb128 0x3b
 1784 0040 0B       		.uleb128 0xb
 1785 0041 01       		.uleb128 0x1
 1786 0042 13       		.uleb128 0x13
 1787 0043 00       		.byte	0
 1788 0044 00       		.byte	0
 1789 0045 06       		.uleb128 0x6
 1790 0046 0D       		.uleb128 0xd
 1791 0047 00       		.byte	0
 1792 0048 03       		.uleb128 0x3
 1793 0049 0E       		.uleb128 0xe
 1794 004a 3A       		.uleb128 0x3a
ARM GAS  /tmp/ccPllA0j.s 			page 47


 1795 004b 0B       		.uleb128 0xb
 1796 004c 3B       		.uleb128 0x3b
 1797 004d 0B       		.uleb128 0xb
 1798 004e 49       		.uleb128 0x49
 1799 004f 13       		.uleb128 0x13
 1800 0050 38       		.uleb128 0x38
 1801 0051 0B       		.uleb128 0xb
 1802 0052 00       		.byte	0
 1803 0053 00       		.byte	0
 1804 0054 07       		.uleb128 0x7
 1805 0055 0D       		.uleb128 0xd
 1806 0056 00       		.byte	0
 1807 0057 03       		.uleb128 0x3
 1808 0058 08       		.uleb128 0x8
 1809 0059 3A       		.uleb128 0x3a
 1810 005a 0B       		.uleb128 0xb
 1811 005b 3B       		.uleb128 0x3b
 1812 005c 05       		.uleb128 0x5
 1813 005d 49       		.uleb128 0x49
 1814 005e 13       		.uleb128 0x13
 1815 005f 38       		.uleb128 0x38
 1816 0060 0B       		.uleb128 0xb
 1817 0061 00       		.byte	0
 1818 0062 00       		.byte	0
 1819 0063 08       		.uleb128 0x8
 1820 0064 0D       		.uleb128 0xd
 1821 0065 00       		.byte	0
 1822 0066 03       		.uleb128 0x3
 1823 0067 0E       		.uleb128 0xe
 1824 0068 3A       		.uleb128 0x3a
 1825 0069 0B       		.uleb128 0xb
 1826 006a 3B       		.uleb128 0x3b
 1827 006b 05       		.uleb128 0x5
 1828 006c 49       		.uleb128 0x49
 1829 006d 13       		.uleb128 0x13
 1830 006e 38       		.uleb128 0x38
 1831 006f 0B       		.uleb128 0xb
 1832 0070 00       		.byte	0
 1833 0071 00       		.byte	0
 1834 0072 09       		.uleb128 0x9
 1835 0073 0F       		.uleb128 0xf
 1836 0074 00       		.byte	0
 1837 0075 0B       		.uleb128 0xb
 1838 0076 0B       		.uleb128 0xb
 1839 0077 49       		.uleb128 0x49
 1840 0078 13       		.uleb128 0x13
 1841 0079 00       		.byte	0
 1842 007a 00       		.byte	0
 1843 007b 0A       		.uleb128 0xa
 1844 007c 13       		.uleb128 0x13
 1845 007d 01       		.byte	0x1
 1846 007e 03       		.uleb128 0x3
 1847 007f 0E       		.uleb128 0xe
 1848 0080 0B       		.uleb128 0xb
 1849 0081 0B       		.uleb128 0xb
 1850 0082 3A       		.uleb128 0x3a
 1851 0083 0B       		.uleb128 0xb
ARM GAS  /tmp/ccPllA0j.s 			page 48


 1852 0084 3B       		.uleb128 0x3b
 1853 0085 05       		.uleb128 0x5
 1854 0086 01       		.uleb128 0x1
 1855 0087 13       		.uleb128 0x13
 1856 0088 00       		.byte	0
 1857 0089 00       		.byte	0
 1858 008a 0B       		.uleb128 0xb
 1859 008b 15       		.uleb128 0x15
 1860 008c 01       		.byte	0x1
 1861 008d 27       		.uleb128 0x27
 1862 008e 19       		.uleb128 0x19
 1863 008f 01       		.uleb128 0x1
 1864 0090 13       		.uleb128 0x13
 1865 0091 00       		.byte	0
 1866 0092 00       		.byte	0
 1867 0093 0C       		.uleb128 0xc
 1868 0094 05       		.uleb128 0x5
 1869 0095 00       		.byte	0
 1870 0096 49       		.uleb128 0x49
 1871 0097 13       		.uleb128 0x13
 1872 0098 00       		.byte	0
 1873 0099 00       		.byte	0
 1874 009a 0D       		.uleb128 0xd
 1875 009b 0F       		.uleb128 0xf
 1876 009c 00       		.byte	0
 1877 009d 0B       		.uleb128 0xb
 1878 009e 0B       		.uleb128 0xb
 1879 009f 00       		.byte	0
 1880 00a0 00       		.byte	0
 1881 00a1 0E       		.uleb128 0xe
 1882 00a2 13       		.uleb128 0x13
 1883 00a3 01       		.byte	0x1
 1884 00a4 03       		.uleb128 0x3
 1885 00a5 0E       		.uleb128 0xe
 1886 00a6 0B       		.uleb128 0xb
 1887 00a7 05       		.uleb128 0x5
 1888 00a8 3A       		.uleb128 0x3a
 1889 00a9 0B       		.uleb128 0xb
 1890 00aa 3B       		.uleb128 0x3b
 1891 00ab 05       		.uleb128 0x5
 1892 00ac 01       		.uleb128 0x1
 1893 00ad 13       		.uleb128 0x13
 1894 00ae 00       		.byte	0
 1895 00af 00       		.byte	0
 1896 00b0 0F       		.uleb128 0xf
 1897 00b1 0D       		.uleb128 0xd
 1898 00b2 00       		.byte	0
 1899 00b3 03       		.uleb128 0x3
 1900 00b4 0E       		.uleb128 0xe
 1901 00b5 3A       		.uleb128 0x3a
 1902 00b6 0B       		.uleb128 0xb
 1903 00b7 3B       		.uleb128 0x3b
 1904 00b8 05       		.uleb128 0x5
 1905 00b9 49       		.uleb128 0x49
 1906 00ba 13       		.uleb128 0x13
 1907 00bb 38       		.uleb128 0x38
 1908 00bc 05       		.uleb128 0x5
ARM GAS  /tmp/ccPllA0j.s 			page 49


 1909 00bd 00       		.byte	0
 1910 00be 00       		.byte	0
 1911 00bf 10       		.uleb128 0x10
 1912 00c0 0D       		.uleb128 0xd
 1913 00c1 00       		.byte	0
 1914 00c2 03       		.uleb128 0x3
 1915 00c3 08       		.uleb128 0x8
 1916 00c4 3A       		.uleb128 0x3a
 1917 00c5 0B       		.uleb128 0xb
 1918 00c6 3B       		.uleb128 0x3b
 1919 00c7 05       		.uleb128 0x5
 1920 00c8 49       		.uleb128 0x49
 1921 00c9 13       		.uleb128 0x13
 1922 00ca 38       		.uleb128 0x38
 1923 00cb 05       		.uleb128 0x5
 1924 00cc 00       		.byte	0
 1925 00cd 00       		.byte	0
 1926 00ce 11       		.uleb128 0x11
 1927 00cf 35       		.uleb128 0x35
 1928 00d0 00       		.byte	0
 1929 00d1 49       		.uleb128 0x49
 1930 00d2 13       		.uleb128 0x13
 1931 00d3 00       		.byte	0
 1932 00d4 00       		.byte	0
 1933 00d5 12       		.uleb128 0x12
 1934 00d6 0D       		.uleb128 0xd
 1935 00d7 00       		.byte	0
 1936 00d8 03       		.uleb128 0x3
 1937 00d9 08       		.uleb128 0x8
 1938 00da 3A       		.uleb128 0x3a
 1939 00db 0B       		.uleb128 0xb
 1940 00dc 3B       		.uleb128 0x3b
 1941 00dd 0B       		.uleb128 0xb
 1942 00de 49       		.uleb128 0x49
 1943 00df 13       		.uleb128 0x13
 1944 00e0 38       		.uleb128 0x38
 1945 00e1 0B       		.uleb128 0xb
 1946 00e2 00       		.byte	0
 1947 00e3 00       		.byte	0
 1948 00e4 13       		.uleb128 0x13
 1949 00e5 13       		.uleb128 0x13
 1950 00e6 01       		.byte	0x1
 1951 00e7 0B       		.uleb128 0xb
 1952 00e8 0B       		.uleb128 0xb
 1953 00e9 3A       		.uleb128 0x3a
 1954 00ea 0B       		.uleb128 0xb
 1955 00eb 3B       		.uleb128 0x3b
 1956 00ec 0B       		.uleb128 0xb
 1957 00ed 01       		.uleb128 0x1
 1958 00ee 13       		.uleb128 0x13
 1959 00ef 00       		.byte	0
 1960 00f0 00       		.byte	0
 1961 00f1 14       		.uleb128 0x14
 1962 00f2 13       		.uleb128 0x13
 1963 00f3 01       		.byte	0x1
 1964 00f4 0B       		.uleb128 0xb
 1965 00f5 05       		.uleb128 0x5
ARM GAS  /tmp/ccPllA0j.s 			page 50


 1966 00f6 3A       		.uleb128 0x3a
 1967 00f7 0B       		.uleb128 0xb
 1968 00f8 3B       		.uleb128 0x3b
 1969 00f9 0B       		.uleb128 0xb
 1970 00fa 01       		.uleb128 0x1
 1971 00fb 13       		.uleb128 0x13
 1972 00fc 00       		.byte	0
 1973 00fd 00       		.byte	0
 1974 00fe 15       		.uleb128 0x15
 1975 00ff 01       		.uleb128 0x1
 1976 0100 01       		.byte	0x1
 1977 0101 49       		.uleb128 0x49
 1978 0102 13       		.uleb128 0x13
 1979 0103 01       		.uleb128 0x1
 1980 0104 13       		.uleb128 0x13
 1981 0105 00       		.byte	0
 1982 0106 00       		.byte	0
 1983 0107 16       		.uleb128 0x16
 1984 0108 21       		.uleb128 0x21
 1985 0109 00       		.byte	0
 1986 010a 49       		.uleb128 0x49
 1987 010b 13       		.uleb128 0x13
 1988 010c 2F       		.uleb128 0x2f
 1989 010d 0B       		.uleb128 0xb
 1990 010e 00       		.byte	0
 1991 010f 00       		.byte	0
 1992 0110 17       		.uleb128 0x17
 1993 0111 17       		.uleb128 0x17
 1994 0112 01       		.byte	0x1
 1995 0113 0B       		.uleb128 0xb
 1996 0114 0B       		.uleb128 0xb
 1997 0115 3A       		.uleb128 0x3a
 1998 0116 0B       		.uleb128 0xb
 1999 0117 3B       		.uleb128 0x3b
 2000 0118 0B       		.uleb128 0xb
 2001 0119 01       		.uleb128 0x1
 2002 011a 13       		.uleb128 0x13
 2003 011b 00       		.byte	0
 2004 011c 00       		.byte	0
 2005 011d 18       		.uleb128 0x18
 2006 011e 0D       		.uleb128 0xd
 2007 011f 00       		.byte	0
 2008 0120 03       		.uleb128 0x3
 2009 0121 0E       		.uleb128 0xe
 2010 0122 3A       		.uleb128 0x3a
 2011 0123 0B       		.uleb128 0xb
 2012 0124 3B       		.uleb128 0x3b
 2013 0125 05       		.uleb128 0x5
 2014 0126 49       		.uleb128 0x49
 2015 0127 13       		.uleb128 0x13
 2016 0128 00       		.byte	0
 2017 0129 00       		.byte	0
 2018 012a 19       		.uleb128 0x19
 2019 012b 26       		.uleb128 0x26
 2020 012c 00       		.byte	0
 2021 012d 49       		.uleb128 0x49
 2022 012e 13       		.uleb128 0x13
ARM GAS  /tmp/ccPllA0j.s 			page 51


 2023 012f 00       		.byte	0
 2024 0130 00       		.byte	0
 2025 0131 1A       		.uleb128 0x1a
 2026 0132 0D       		.uleb128 0xd
 2027 0133 00       		.byte	0
 2028 0134 03       		.uleb128 0x3
 2029 0135 08       		.uleb128 0x8
 2030 0136 3A       		.uleb128 0x3a
 2031 0137 0B       		.uleb128 0xb
 2032 0138 3B       		.uleb128 0x3b
 2033 0139 0B       		.uleb128 0xb
 2034 013a 49       		.uleb128 0x49
 2035 013b 13       		.uleb128 0x13
 2036 013c 00       		.byte	0
 2037 013d 00       		.byte	0
 2038 013e 1B       		.uleb128 0x1b
 2039 013f 16       		.uleb128 0x16
 2040 0140 00       		.byte	0
 2041 0141 03       		.uleb128 0x3
 2042 0142 0E       		.uleb128 0xe
 2043 0143 3A       		.uleb128 0x3a
 2044 0144 0B       		.uleb128 0xb
 2045 0145 3B       		.uleb128 0x3b
 2046 0146 05       		.uleb128 0x5
 2047 0147 49       		.uleb128 0x49
 2048 0148 13       		.uleb128 0x13
 2049 0149 00       		.byte	0
 2050 014a 00       		.byte	0
 2051 014b 1C       		.uleb128 0x1c
 2052 014c 2E       		.uleb128 0x2e
 2053 014d 01       		.byte	0x1
 2054 014e 3F       		.uleb128 0x3f
 2055 014f 19       		.uleb128 0x19
 2056 0150 03       		.uleb128 0x3
 2057 0151 0E       		.uleb128 0xe
 2058 0152 3A       		.uleb128 0x3a
 2059 0153 0B       		.uleb128 0xb
 2060 0154 3B       		.uleb128 0x3b
 2061 0155 0B       		.uleb128 0xb
 2062 0156 27       		.uleb128 0x27
 2063 0157 19       		.uleb128 0x19
 2064 0158 49       		.uleb128 0x49
 2065 0159 13       		.uleb128 0x13
 2066 015a 11       		.uleb128 0x11
 2067 015b 01       		.uleb128 0x1
 2068 015c 12       		.uleb128 0x12
 2069 015d 06       		.uleb128 0x6
 2070 015e 40       		.uleb128 0x40
 2071 015f 18       		.uleb128 0x18
 2072 0160 9642     		.uleb128 0x2116
 2073 0162 19       		.uleb128 0x19
 2074 0163 01       		.uleb128 0x1
 2075 0164 13       		.uleb128 0x13
 2076 0165 00       		.byte	0
 2077 0166 00       		.byte	0
 2078 0167 1D       		.uleb128 0x1d
 2079 0168 05       		.uleb128 0x5
ARM GAS  /tmp/ccPllA0j.s 			page 52


 2080 0169 00       		.byte	0
 2081 016a 03       		.uleb128 0x3
 2082 016b 08       		.uleb128 0x8
 2083 016c 3A       		.uleb128 0x3a
 2084 016d 0B       		.uleb128 0xb
 2085 016e 3B       		.uleb128 0x3b
 2086 016f 0B       		.uleb128 0xb
 2087 0170 49       		.uleb128 0x49
 2088 0171 13       		.uleb128 0x13
 2089 0172 02       		.uleb128 0x2
 2090 0173 18       		.uleb128 0x18
 2091 0174 00       		.byte	0
 2092 0175 00       		.byte	0
 2093 0176 1E       		.uleb128 0x1e
 2094 0177 34       		.uleb128 0x34
 2095 0178 00       		.byte	0
 2096 0179 03       		.uleb128 0x3
 2097 017a 0E       		.uleb128 0xe
 2098 017b 49       		.uleb128 0x49
 2099 017c 13       		.uleb128 0x13
 2100 017d 34       		.uleb128 0x34
 2101 017e 19       		.uleb128 0x19
 2102 017f 02       		.uleb128 0x2
 2103 0180 18       		.uleb128 0x18
 2104 0181 00       		.byte	0
 2105 0182 00       		.byte	0
 2106 0183 1F       		.uleb128 0x1f
 2107 0184 2E       		.uleb128 0x2e
 2108 0185 01       		.byte	0x1
 2109 0186 3F       		.uleb128 0x3f
 2110 0187 19       		.uleb128 0x19
 2111 0188 03       		.uleb128 0x3
 2112 0189 0E       		.uleb128 0xe
 2113 018a 3A       		.uleb128 0x3a
 2114 018b 0B       		.uleb128 0xb
 2115 018c 3B       		.uleb128 0x3b
 2116 018d 0B       		.uleb128 0xb
 2117 018e 27       		.uleb128 0x27
 2118 018f 19       		.uleb128 0x19
 2119 0190 11       		.uleb128 0x11
 2120 0191 01       		.uleb128 0x1
 2121 0192 12       		.uleb128 0x12
 2122 0193 06       		.uleb128 0x6
 2123 0194 40       		.uleb128 0x40
 2124 0195 18       		.uleb128 0x18
 2125 0196 9642     		.uleb128 0x2116
 2126 0198 19       		.uleb128 0x19
 2127 0199 01       		.uleb128 0x1
 2128 019a 13       		.uleb128 0x13
 2129 019b 00       		.byte	0
 2130 019c 00       		.byte	0
 2131 019d 20       		.uleb128 0x20
 2132 019e 05       		.uleb128 0x5
 2133 019f 00       		.byte	0
 2134 01a0 03       		.uleb128 0x3
 2135 01a1 0E       		.uleb128 0xe
 2136 01a2 3A       		.uleb128 0x3a
ARM GAS  /tmp/ccPllA0j.s 			page 53


 2137 01a3 0B       		.uleb128 0xb
 2138 01a4 3B       		.uleb128 0x3b
 2139 01a5 0B       		.uleb128 0xb
 2140 01a6 49       		.uleb128 0x49
 2141 01a7 13       		.uleb128 0x13
 2142 01a8 02       		.uleb128 0x2
 2143 01a9 18       		.uleb128 0x18
 2144 01aa 00       		.byte	0
 2145 01ab 00       		.byte	0
 2146 01ac 21       		.uleb128 0x21
 2147 01ad 34       		.uleb128 0x34
 2148 01ae 00       		.byte	0
 2149 01af 03       		.uleb128 0x3
 2150 01b0 0E       		.uleb128 0xe
 2151 01b1 3A       		.uleb128 0x3a
 2152 01b2 0B       		.uleb128 0xb
 2153 01b3 3B       		.uleb128 0x3b
 2154 01b4 05       		.uleb128 0x5
 2155 01b5 49       		.uleb128 0x49
 2156 01b6 13       		.uleb128 0x13
 2157 01b7 3F       		.uleb128 0x3f
 2158 01b8 19       		.uleb128 0x19
 2159 01b9 3C       		.uleb128 0x3c
 2160 01ba 19       		.uleb128 0x19
 2161 01bb 00       		.byte	0
 2162 01bc 00       		.byte	0
 2163 01bd 22       		.uleb128 0x22
 2164 01be 34       		.uleb128 0x34
 2165 01bf 00       		.byte	0
 2166 01c0 03       		.uleb128 0x3
 2167 01c1 08       		.uleb128 0x8
 2168 01c2 3A       		.uleb128 0x3a
 2169 01c3 0B       		.uleb128 0xb
 2170 01c4 3B       		.uleb128 0x3b
 2171 01c5 05       		.uleb128 0x5
 2172 01c6 49       		.uleb128 0x49
 2173 01c7 13       		.uleb128 0x13
 2174 01c8 3F       		.uleb128 0x3f
 2175 01c9 19       		.uleb128 0x19
 2176 01ca 3C       		.uleb128 0x3c
 2177 01cb 19       		.uleb128 0x19
 2178 01cc 00       		.byte	0
 2179 01cd 00       		.byte	0
 2180 01ce 00       		.byte	0
 2181              		.section	.debug_aranges,"",%progbits
 2182 0000 2C000000 		.4byte	0x2c
 2183 0004 0200     		.2byte	0x2
 2184 0006 00000000 		.4byte	.Ldebug_info0
 2185 000a 04       		.byte	0x4
 2186 000b 00       		.byte	0
 2187 000c 0000     		.2byte	0
 2188 000e 0000     		.2byte	0
 2189 0010 00000000 		.4byte	.LFB272
 2190 0014 3A000000 		.4byte	.LFE272-.LFB272
 2191 0018 00000000 		.4byte	.LFB273
 2192 001c 52000000 		.4byte	.LFE273-.LFB273
 2193 0020 00000000 		.4byte	.LFB274
ARM GAS  /tmp/ccPllA0j.s 			page 54


 2194 0024 42000000 		.4byte	.LFE274-.LFB274
 2195 0028 00000000 		.4byte	0
 2196 002c 00000000 		.4byte	0
 2197              		.section	.debug_ranges,"",%progbits
 2198              	.Ldebug_ranges0:
 2199 0000 00000000 		.4byte	.LFB272
 2200 0004 3A000000 		.4byte	.LFE272
 2201 0008 00000000 		.4byte	.LFB273
 2202 000c 52000000 		.4byte	.LFE273
 2203 0010 00000000 		.4byte	.LFB274
 2204 0014 42000000 		.4byte	.LFE274
 2205 0018 00000000 		.4byte	0
 2206 001c 00000000 		.4byte	0
 2207              		.section	.debug_line,"",%progbits
 2208              	.Ldebug_line0:
 2209 0000 8E020000 		.section	.debug_str,"MS",%progbits,1
 2209      02002A02 
 2209      00000201 
 2209      FB0E0D00 
 2209      01010101 
 2210              	.LASF100:
 2211 0000 74625F70 		.ascii	"tb_ptr\000"
 2211      747200
 2212              	.LASF57:
 2213 0007 72656164 		.ascii	"ready_list_t\000"
 2213      795F6C69 
 2213      73745F74 
 2213      00
 2214              	.LASF157:
 2215 0014 6C69622F 		.ascii	"lib/ChibiOS_16.1.4//os/hal/src/pal.c\000"
 2215      43686962 
 2215      694F535F 
 2215      31362E31 
 2215      2E342F2F 
 2216              	.LASF118:
 2217 0039 77747472 		.ascii	"wttrp\000"
 2217      7000
 2218              	.LASF115:
 2219 003f 7264796D 		.ascii	"rdymsg\000"
 2219      736700
 2220              	.LASF18:
 2221 0046 75696E74 		.ascii	"uint64_t\000"
 2221      36345F74 
 2221      00
 2222              	.LASF87:
 2223 004f 6B65726E 		.ascii	"kernel_stats\000"
 2223      656C5F73 
 2223      74617473 
 2223      00
 2224              	.LASF4:
 2225 005c 5F5F7569 		.ascii	"__uint8_t\000"
 2225      6E74385F 
 2225      7400
 2226              	.LASF134:
 2227 0066 4F545950 		.ascii	"OTYPER\000"
 2227      455200
 2228              	.LASF93:
ARM GAS  /tmp/ccPllA0j.s 			page 55


 2229 006d 706F7274 		.ascii	"port_intctx\000"
 2229      5F696E74 
 2229      63747800 
 2230              	.LASF56:
 2231 0079 63685F74 		.ascii	"ch_threads_queue\000"
 2231      68726561 
 2231      64735F71 
 2231      75657565 
 2231      00
 2232              	.LASF76:
 2233 008a 73797374 		.ascii	"system_debug_t\000"
 2233      656D5F64 
 2233      65627567 
 2233      5F7400
 2234              	.LASF142:
 2235 0099 696F706F 		.ascii	"ioportmask_t\000"
 2235      72746D61 
 2235      736B5F74 
 2235      00
 2236              	.LASF106:
 2237 00a6 776F7273 		.ascii	"worst\000"
 2237      7400
 2238              	.LASF109:
 2239 00ac 74696D65 		.ascii	"time_measurement_t\000"
 2239      5F6D6561 
 2239      73757265 
 2239      6D656E74 
 2239      5F7400
 2240              	.LASF133:
 2241 00bf 4D4F4445 		.ascii	"MODER\000"
 2241      5200
 2242              	.LASF13:
 2243 00c5 6C6F6E67 		.ascii	"long long unsigned int\000"
 2243      206C6F6E 
 2243      6720756E 
 2243      7369676E 
 2243      65642069 
 2244              	.LASF102:
 2245 00dc 63685F74 		.ascii	"ch_trace_buffer_t\000"
 2245      72616365 
 2245      5F627566 
 2245      6665725F 
 2245      7400
 2246              	.LASF97:
 2247 00ee 73655F73 		.ascii	"se_state\000"
 2247      74617465 
 2247      00
 2248              	.LASF136:
 2249 00f7 50555044 		.ascii	"PUPDR\000"
 2249      5200
 2250              	.LASF116:
 2251 00fd 65786974 		.ascii	"exitcode\000"
 2251      636F6465 
 2251      00
 2252              	.LASF86:
 2253 0106 6D61696E 		.ascii	"mainthread\000"
 2253      74687265 
ARM GAS  /tmp/ccPllA0j.s 			page 56


 2253      616400
 2254              	.LASF73:
 2255 0111 76697274 		.ascii	"virtual_timers_list_t\000"
 2255      75616C5F 
 2255      74696D65 
 2255      72735F6C 
 2255      6973745F 
 2256              	.LASF155:
 2257 0127 49544D5F 		.ascii	"ITM_RxBuffer\000"
 2257      52784275 
 2257      66666572 
 2257      00
 2258              	.LASF21:
 2259 0134 72747469 		.ascii	"rttime_t\000"
 2259      6D655F74 
 2259      00
 2260              	.LASF34:
 2261 013d 705F7072 		.ascii	"p_prio\000"
 2261      696F00
 2262              	.LASF11:
 2263 0144 6C6F6E67 		.ascii	"long long int\000"
 2263      206C6F6E 
 2263      6720696E 
 2263      7400
 2264              	.LASF1:
 2265 0152 7369676E 		.ascii	"signed char\000"
 2265      65642063 
 2265      68617200 
 2266              	.LASF158:
 2267 015e 2F686F6D 		.ascii	"/home/jerker/git/AutoTux/stm32\000"
 2267      652F6A65 
 2267      726B6572 
 2267      2F676974 
 2267      2F417574 
 2268              	.LASF137:
 2269 017d 42535252 		.ascii	"BSRR\000"
 2269      00
 2270              	.LASF94:
 2271 0182 73655F74 		.ascii	"se_time\000"
 2271      696D6500 
 2272              	.LASF49:
 2273 018a 705F6D70 		.ascii	"p_mpool\000"
 2273      6F6F6C00 
 2274              	.LASF126:
 2275 0192 6D5F7175 		.ascii	"m_queue\000"
 2275      65756500 
 2276              	.LASF85:
 2277 019a 76746C69 		.ascii	"vtlist\000"
 2277      737400
 2278              	.LASF148:
 2279 01a1 62697473 		.ascii	"bits\000"
 2279      00
 2280              	.LASF8:
 2281 01a6 6C6F6E67 		.ascii	"long int\000"
 2281      20696E74 
 2281      00
 2282              	.LASF23:
ARM GAS  /tmp/ccPllA0j.s 			page 57


 2283 01af 74737461 		.ascii	"tstate_t\000"
 2283      74655F74 
 2283      00
 2284              	.LASF42:
 2285 01b8 705F7265 		.ascii	"p_refs\000"
 2285      667300
 2286              	.LASF95:
 2287 01bf 73655F74 		.ascii	"se_tp\000"
 2287      7000
 2288              	.LASF15:
 2289 01c5 75696E74 		.ascii	"uint16_t\000"
 2289      31365F74 
 2289      00
 2290              	.LASF36:
 2291 01ce 705F6E65 		.ascii	"p_newer\000"
 2291      77657200 
 2292              	.LASF123:
 2293 01d6 735F7175 		.ascii	"s_queue\000"
 2293      65756500 
 2294              	.LASF99:
 2295 01de 74625F73 		.ascii	"tb_size\000"
 2295      697A6500 
 2296              	.LASF135:
 2297 01e6 4F535045 		.ascii	"OSPEEDR\000"
 2297      45445200 
 2298              	.LASF62:
 2299 01ee 725F6E65 		.ascii	"r_newer\000"
 2299      77657200 
 2300              	.LASF154:
 2301 01f6 5F5F6675 		.ascii	"__func__.7434\000"
 2301      6E635F5F 
 2301      2E373433 
 2301      3400
 2302              	.LASF90:
 2303 0204 72656761 		.ascii	"regarm_t\000"
 2303      726D5F74 
 2303      00
 2304              	.LASF69:
 2305 020d 76745F70 		.ascii	"vt_prev\000"
 2305      72657600 
 2306              	.LASF77:
 2307 0215 63685F73 		.ascii	"ch_system_debug\000"
 2307      79737465 
 2307      6D5F6465 
 2307      62756700 
 2308              	.LASF141:
 2309 0225 73746D33 		.ascii	"stm32_gpio_t\000"
 2309      325F6770 
 2309      696F5F74 
 2309      00
 2310              	.LASF130:
 2311 0232 6D757465 		.ascii	"mutex_t\000"
 2311      785F7400 
 2312              	.LASF80:
 2313 023a 6C6F636B 		.ascii	"lock_cnt\000"
 2313      5F636E74 
 2313      00
ARM GAS  /tmp/ccPllA0j.s 			page 58


 2314              	.LASF147:
 2315 0243 494F4275 		.ascii	"IOBus\000"
 2315      7300
 2316              	.LASF28:
 2317 0249 636E745F 		.ascii	"cnt_t\000"
 2317      7400
 2318              	.LASF39:
 2319 024f 705F7374 		.ascii	"p_stklimit\000"
 2319      6B6C696D 
 2319      697400
 2320              	.LASF0:
 2321 025a 756E7369 		.ascii	"unsigned int\000"
 2321      676E6564 
 2321      20696E74 
 2321      00
 2322              	.LASF68:
 2323 0267 76745F6E 		.ascii	"vt_next\000"
 2323      65787400 
 2324              	.LASF119:
 2325 026f 77747365 		.ascii	"wtsemp\000"
 2325      6D7000
 2326              	.LASF44:
 2327 0276 705F6D73 		.ascii	"p_msgqueue\000"
 2327      67717565 
 2327      756500
 2328              	.LASF138:
 2329 0281 4C434B52 		.ascii	"LCKR\000"
 2329      00
 2330              	.LASF110:
 2331 0286 6E5F6972 		.ascii	"n_irq\000"
 2331      7100
 2332              	.LASF124:
 2333 028c 735F636E 		.ascii	"s_cnt\000"
 2333      7400
 2334              	.LASF6:
 2335 0292 73686F72 		.ascii	"short unsigned int\000"
 2335      7420756E 
 2335      7369676E 
 2335      65642069 
 2335      6E7400
 2336              	.LASF114:
 2337 02a5 6B65726E 		.ascii	"kernel_stats_t\000"
 2337      656C5F73 
 2337      74617473 
 2337      5F7400
 2338              	.LASF53:
 2339 02b4 63685F74 		.ascii	"ch_thread\000"
 2339      68726561 
 2339      6400
 2340              	.LASF26:
 2341 02be 6D73675F 		.ascii	"msg_t\000"
 2341      7400
 2342              	.LASF107:
 2343 02c4 6C617374 		.ascii	"last\000"
 2343      00
 2344              	.LASF29:
 2345 02c9 75636E74 		.ascii	"ucnt_t\000"
ARM GAS  /tmp/ccPllA0j.s 			page 59


 2345      5F7400
 2346              	.LASF149:
 2347 02d0 5F5F6675 		.ascii	"__func__.7424\000"
 2347      6E635F5F 
 2347      2E373432 
 2347      3400
 2348              	.LASF82:
 2349 02de 63685F73 		.ascii	"ch_system_t\000"
 2349      79737465 
 2349      6D5F7400 
 2350              	.LASF150:
 2351 02ea 5F5F6675 		.ascii	"__func__.7429\000"
 2351      6E635F5F 
 2351      2E373432 
 2351      3900
 2352              	.LASF22:
 2353 02f8 746D6F64 		.ascii	"tmode_t\000"
 2353      655F7400 
 2354              	.LASF113:
 2355 0300 6D5F6372 		.ascii	"m_crit_isr\000"
 2355      69745F69 
 2355      737200
 2356              	.LASF58:
 2357 030b 63685F72 		.ascii	"ch_ready_list\000"
 2357      65616479 
 2357      5F6C6973 
 2357      7400
 2358              	.LASF27:
 2359 0319 6576656E 		.ascii	"eventmask_t\000"
 2359      746D6173 
 2359      6B5F7400 
 2360              	.LASF7:
 2361 0325 5F5F696E 		.ascii	"__int32_t\000"
 2361      7433325F 
 2361      7400
 2362              	.LASF88:
 2363 032f 69646C65 		.ascii	"idle_thread_wa\000"
 2363      5F746872 
 2363      6561645F 
 2363      776100
 2364              	.LASF91:
 2365 033e 73746B61 		.ascii	"stkalign_t\000"
 2365      6C69676E 
 2365      5F7400
 2366              	.LASF12:
 2367 0349 5F5F7569 		.ascii	"__uint64_t\000"
 2367      6E743634 
 2367      5F7400
 2368              	.LASF43:
 2369 0354 705F7761 		.ascii	"p_waiting\000"
 2369      6974696E 
 2369      6700
 2370              	.LASF89:
 2371 035e 73697A65 		.ascii	"sizetype\000"
 2371      74797065 
 2371      00
 2372              	.LASF51:
ARM GAS  /tmp/ccPllA0j.s 			page 60


 2373 0367 74687265 		.ascii	"thread_reference_t\000"
 2373      61645F72 
 2373      65666572 
 2373      656E6365 
 2373      5F7400
 2374              	.LASF74:
 2375 037a 63685F76 		.ascii	"ch_virtual_timers_list\000"
 2375      69727475 
 2375      616C5F74 
 2375      696D6572 
 2375      735F6C69 
 2376              	.LASF132:
 2377 0391 636C6561 		.ascii	"clear\000"
 2377      7200
 2378              	.LASF98:
 2379 0397 63685F73 		.ascii	"ch_swc_event_t\000"
 2379      77635F65 
 2379      76656E74 
 2379      5F7400
 2380              	.LASF75:
 2381 03a6 76745F6C 		.ascii	"vt_lasttime\000"
 2381      61737474 
 2381      696D6500 
 2382              	.LASF37:
 2383 03b2 705F6F6C 		.ascii	"p_older\000"
 2383      64657200 
 2384              	.LASF61:
 2385 03ba 725F6374 		.ascii	"r_ctx\000"
 2385      7800
 2386              	.LASF104:
 2387 03c0 746D5F63 		.ascii	"tm_calibration_t\000"
 2387      616C6962 
 2387      72617469 
 2387      6F6E5F74 
 2387      00
 2388              	.LASF64:
 2389 03d1 725F6375 		.ascii	"r_current\000"
 2389      7272656E 
 2389      7400
 2390              	.LASF63:
 2391 03db 725F6F6C 		.ascii	"r_older\000"
 2391      64657200 
 2392              	.LASF145:
 2393 03e3 706F7274 		.ascii	"portid\000"
 2393      696400
 2394              	.LASF140:
 2395 03ea 41465248 		.ascii	"AFRH\000"
 2395      00
 2396              	.LASF108:
 2397 03ef 63756D75 		.ascii	"cumulative\000"
 2397      6C617469 
 2397      766500
 2398              	.LASF152:
 2399 03fa 70616C53 		.ascii	"palSetBusMode\000"
 2399      65744275 
 2399      734D6F64 
 2399      6500
ARM GAS  /tmp/ccPllA0j.s 			page 61


 2400              	.LASF139:
 2401 0408 4146524C 		.ascii	"AFRL\000"
 2401      00
 2402              	.LASF24:
 2403 040d 74726566 		.ascii	"trefs_t\000"
 2403      735F7400 
 2404              	.LASF101:
 2405 0415 74625F62 		.ascii	"tb_buffer\000"
 2405      75666665 
 2405      7200
 2406              	.LASF66:
 2407 041f 76697274 		.ascii	"virtual_timer_t\000"
 2407      75616C5F 
 2407      74696D65 
 2407      725F7400 
 2408              	.LASF33:
 2409 042f 705F7072 		.ascii	"p_prev\000"
 2409      657600
 2410              	.LASF25:
 2411 0436 74707269 		.ascii	"tprio_t\000"
 2411      6F5F7400 
 2412              	.LASF156:
 2413 043e 474E5520 		.ascii	"GNU C 4.8.2 -mcpu=cortex-m4 -mno-thumb-interwork -m"
 2413      4320342E 
 2413      382E3220 
 2413      2D6D6370 
 2413      753D636F 
 2414 0471 7468756D 		.ascii	"thumb -ggdb -O0 -fomit-frame-pointer -falign-functi"
 2414      62202D67 
 2414      67646220 
 2414      2D4F3020 
 2414      2D666F6D 
 2415 04a4 6F6E733D 		.ascii	"ons=16 -ffunction-sections -fdata-sections -fno-com"
 2415      3136202D 
 2415      6666756E 
 2415      6374696F 
 2415      6E2D7365 
 2416 04d7 6D6F6E20 		.ascii	"mon -flto\000"
 2416      2D666C74 
 2416      6F00
 2417              	.LASF111:
 2418 04e1 6E5F6374 		.ascii	"n_ctxswc\000"
 2418      78737763 
 2418      00
 2419              	.LASF131:
 2420 04ea 5F426F6F 		.ascii	"_Bool\000"
 2420      6C00
 2421              	.LASF16:
 2422 04f0 696E7433 		.ascii	"int32_t\000"
 2422      325F7400 
 2423              	.LASF2:
 2424 04f8 756E7369 		.ascii	"unsigned char\000"
 2424      676E6564 
 2424      20636861 
 2424      7200
 2425              	.LASF47:
 2426 0506 705F6D74 		.ascii	"p_mtxlist\000"
ARM GAS  /tmp/ccPllA0j.s 			page 62


 2426      786C6973 
 2426      7400
 2427              	.LASF3:
 2428 0510 73686F72 		.ascii	"short int\000"
 2428      7420696E 
 2428      7400
 2429              	.LASF40:
 2430 051a 705F7374 		.ascii	"p_state\000"
 2430      61746500 
 2431              	.LASF60:
 2432 0522 725F7072 		.ascii	"r_prio\000"
 2432      696F00
 2433              	.LASF121:
 2434 0529 65776D61 		.ascii	"ewmask\000"
 2434      736B00
 2435              	.LASF32:
 2436 0530 705F6E65 		.ascii	"p_next\000"
 2436      787400
 2437              	.LASF19:
 2438 0537 75696E74 		.ascii	"uint_fast8_t\000"
 2438      5F666173 
 2438      74385F74 
 2438      00
 2439              	.LASF41:
 2440 0544 705F666C 		.ascii	"p_flags\000"
 2440      61677300 
 2441              	.LASF50:
 2442 054c 705F7374 		.ascii	"p_stats\000"
 2442      61747300 
 2443              	.LASF83:
 2444 0554 63685F73 		.ascii	"ch_system\000"
 2444      79737465 
 2444      6D00
 2445              	.LASF67:
 2446 055e 63685F76 		.ascii	"ch_virtual_timer\000"
 2446      69727475 
 2446      616C5F74 
 2446      696D6572 
 2446      00
 2447              	.LASF122:
 2448 056f 63685F73 		.ascii	"ch_semaphore\000"
 2448      656D6170 
 2448      686F7265 
 2448      00
 2449              	.LASF46:
 2450 057c 705F6570 		.ascii	"p_epending\000"
 2450      656E6469 
 2450      6E6700
 2451              	.LASF17:
 2452 0587 75696E74 		.ascii	"uint32_t\000"
 2452      33325F74 
 2452      00
 2453              	.LASF120:
 2454 0590 77746D74 		.ascii	"wtmtxp\000"
 2454      787000
 2455              	.LASF59:
 2456 0597 725F7175 		.ascii	"r_queue\000"
ARM GAS  /tmp/ccPllA0j.s 			page 63


 2456      65756500 
 2457              	.LASF70:
 2458 059f 76745F64 		.ascii	"vt_delta\000"
 2458      656C7461 
 2458      00
 2459              	.LASF54:
 2460 05a8 63685F74 		.ascii	"ch_threads_list\000"
 2460      68726561 
 2460      64735F6C 
 2460      69737400 
 2461              	.LASF10:
 2462 05b8 6C6F6E67 		.ascii	"long unsigned int\000"
 2462      20756E73 
 2462      69676E65 
 2462      6420696E 
 2462      7400
 2463              	.LASF129:
 2464 05ca 63686172 		.ascii	"char\000"
 2464      00
 2465              	.LASF153:
 2466 05cf 6D6F6465 		.ascii	"mode\000"
 2466      00
 2467              	.LASF159:
 2468 05d4 70616C52 		.ascii	"palReadBus\000"
 2468      65616442 
 2468      757300
 2469              	.LASF5:
 2470 05df 5F5F7569 		.ascii	"__uint16_t\000"
 2470      6E743136 
 2470      5F7400
 2471              	.LASF31:
 2472 05ea 74687265 		.ascii	"thread_t\000"
 2472      61645F74 
 2472      00
 2473              	.LASF105:
 2474 05f3 62657374 		.ascii	"best\000"
 2474      00
 2475              	.LASF128:
 2476 05f8 6D5F6E65 		.ascii	"m_next\000"
 2476      787400
 2477              	.LASF30:
 2478 05ff 73797374 		.ascii	"systime_t\000"
 2478      696D655F 
 2478      7400
 2479              	.LASF48:
 2480 0609 705F7265 		.ascii	"p_realprio\000"
 2480      616C7072 
 2480      696F00
 2481              	.LASF65:
 2482 0614 76746675 		.ascii	"vtfunc_t\000"
 2482      6E635F74 
 2482      00
 2483              	.LASF9:
 2484 061d 5F5F7569 		.ascii	"__uint32_t\000"
 2484      6E743332 
 2484      5F7400
 2485              	.LASF78:
ARM GAS  /tmp/ccPllA0j.s 			page 64


 2486 0628 70616E69 		.ascii	"panic_msg\000"
 2486      635F6D73 
 2486      6700
 2487              	.LASF103:
 2488 0632 6F666673 		.ascii	"offset\000"
 2488      657400
 2489              	.LASF144:
 2490 0639 696F706F 		.ascii	"ioportid_t\000"
 2490      72746964 
 2490      5F7400
 2491              	.LASF92:
 2492 0644 636F6E74 		.ascii	"context\000"
 2492      65787400 
 2493              	.LASF20:
 2494 064c 7274636E 		.ascii	"rtcnt_t\000"
 2494      745F7400 
 2495              	.LASF72:
 2496 0654 76745F70 		.ascii	"vt_par\000"
 2496      617200
 2497              	.LASF151:
 2498 065b 70616C57 		.ascii	"palWriteBus\000"
 2498      72697465 
 2498      42757300 
 2499              	.LASF55:
 2500 0667 74687265 		.ascii	"threads_queue_t\000"
 2500      6164735F 
 2500      71756575 
 2500      655F7400 
 2501              	.LASF125:
 2502 0677 63685F6D 		.ascii	"ch_mutex\000"
 2502      75746578 
 2502      00
 2503              	.LASF146:
 2504 0680 6D61736B 		.ascii	"mask\000"
 2504      00
 2505              	.LASF79:
 2506 0685 6973725F 		.ascii	"isr_cnt\000"
 2506      636E7400 
 2507              	.LASF84:
 2508 068d 726C6973 		.ascii	"rlist\000"
 2508      7400
 2509              	.LASF14:
 2510 0693 75696E74 		.ascii	"uint8_t\000"
 2510      385F7400 
 2511              	.LASF117:
 2512 069b 77746F62 		.ascii	"wtobjp\000"
 2512      6A7000
 2513              	.LASF38:
 2514 06a2 705F6E61 		.ascii	"p_name\000"
 2514      6D6500
 2515              	.LASF52:
 2516 06a9 74687265 		.ascii	"threads_list_t\000"
 2516      6164735F 
 2516      6C697374 
 2516      5F7400
 2517              	.LASF81:
 2518 06b8 74726163 		.ascii	"trace_buffer\000"
ARM GAS  /tmp/ccPllA0j.s 			page 65


 2518      655F6275 
 2518      66666572 
 2518      00
 2519              	.LASF45:
 2520 06c5 705F6D73 		.ascii	"p_msg\000"
 2520      6700
 2521              	.LASF143:
 2522 06cb 696F6D6F 		.ascii	"iomode_t\000"
 2522      64655F74 
 2522      00
 2523              	.LASF112:
 2524 06d4 6D5F6372 		.ascii	"m_crit_thd\000"
 2524      69745F74 
 2524      686400
 2525              	.LASF127:
 2526 06df 6D5F6F77 		.ascii	"m_owner\000"
 2526      6E657200 
 2527              	.LASF96:
 2528 06e7 73655F77 		.ascii	"se_wtobjp\000"
 2528      746F626A 
 2528      7000
 2529              	.LASF35:
 2530 06f1 705F6374 		.ascii	"p_ctx\000"
 2530      7800
 2531              	.LASF71:
 2532 06f7 76745F66 		.ascii	"vt_func\000"
 2532      756E6300 
 2533              		.comm	__gnu_lto_v1,1,1
 2534              		.ident	"GCC: (4.8.2-14ubuntu1+6) 4.8.2"
ARM GAS  /tmp/ccPllA0j.s 			page 66


DEFINED SYMBOLS
                            *ABS*:0000000000000000 pal.c
     /tmp/ccPllA0j.s:255    .text.palReadBus:0000000000000000 $t
     /tmp/ccPllA0j.s:261    .text.palReadBus:0000000000000000 palReadBus
     /tmp/ccPllA0j.s:428    .rodata.__func__.7424:0000000000000000 __func__.7424
     /tmp/ccPllA0j.s:308    .text.palWriteBus:0000000000000000 $t
     /tmp/ccPllA0j.s:314    .text.palWriteBus:0000000000000000 palWriteBus
     /tmp/ccPllA0j.s:434    .rodata.__func__.7429:0000000000000000 __func__.7429
     /tmp/ccPllA0j.s:371    .text.palSetBusMode:0000000000000000 $t
     /tmp/ccPllA0j.s:377    .text.palSetBusMode:0000000000000000 palSetBusMode
     /tmp/ccPllA0j.s:440    .rodata.__func__.7434:0000000000000000 __func__.7434
     /tmp/ccPllA0j.s:425    .rodata.__func__.7424:0000000000000000 $d
     /tmp/ccPllA0j.s:431    .rodata.__func__.7429:0000000000000000 $d
     /tmp/ccPllA0j.s:437    .rodata.__func__.7434:0000000000000000 $d
                            *COM*:0000000000000001 __gnu_lto_v1
                     .debug_frame:0000000000000010 $d

UNDEFINED SYMBOLS
chSysHalt
_pal_lld_setgroupmode
