ARM GAS  /tmp/ccpYqLvB.s 			page 1


   1              		.syntax unified
   2              		.cpu cortex-m4
   3              		.fpu softvfp
   4              		.eabi_attribute 20, 1
   5              		.eabi_attribute 21, 1
   6              		.eabi_attribute 23, 3
   7              		.eabi_attribute 24, 1
   8              		.eabi_attribute 25, 1
   9              		.eabi_attribute 26, 1
  10              		.eabi_attribute 30, 6
  11              		.eabi_attribute 34, 1
  12              		.eabi_attribute 18, 4
  13              		.thumb
  14              		.file	"pal.c"
  15              		.text
  16              	.Ltext0:
  17              		.section	.gnu.lto_.inline.89113b79a1dd6fab,"",%progbits
  18 0000 789C6362 		.ascii	"x\234cb`b\300\006\374\24143\003\203\200\004\003\003"
  18      6062C006 
  18      FCA13433 
  18      03838004 
  18      0303
  19 0012 93C484D3 		.ascii	"\223\304\204\323\214\014,\020\305L\334 \202A\\\036H"
  19      8C0C2C10 
  19      C54CDC20 
  19      82415C1E 
  19      48
  20 0023 AA1DD8C1 		.ascii	"\252\035\330\301\204\"\316\302 \244\014d\212|X\015W"
  20      8422CEC2 
  20      20A40C64 
  20      8A7C580D 
  20      57
  21 0034 CFC20B93 		.ascii	"\317\302\013\223d\000\000\030\207\006\004"
  21      64000018 
  21      870604
  22              		.text
  23              		.section	.gnu.lto_palReadBus.89113b79a1dd6fab,"",%progbits
  24 0000 789CBD52 		.ascii	"x\234\275R\317K\033A\024~ofvv7\326_\267\366P*=\032H"
  24      CF4B1B41 
  24      147E6F66 
  24      767637D6 
  24      5FB7F650 
  25 0018 FE841EFA 		.ascii	"\376\204\036\372\017xPPo1B\272\220\320b\216\0362\232"
  25      0F785050 
  25      6F3142BA 
  25      90D0628E 
  25      1E329A
  26 002b 1C444A09 		.ascii	"\034DJ\011^\224\264\007\275i\017\025E\241\340%J\021"
  26      5E94B407 
  26      BD690F15 
  26      45A1E025 
  26      4A11
  27 003d A184EAB5 		.ascii	"\241\204\352\265\247`\253\336\372\007H\351\364\275\335"
  27      A760ABDE 
  27      FA0748E9 
  27      F4BDDD
  28 004c EC362982 		.ascii	"\3546)\202\241\207\016\273o\347\315~\337\267\3377\263"
ARM GAS  /tmp/ccpYqLvB.s 			page 2


  28      A1870EBB 
  28      6FE7CD7E 
  28      DFB7DF37 
  28      B3
  29 005d 0204FC3D 		.ascii	"\002\004\374=\236\323\255\025\300\023n<@B\240@IU\012"
  29      9ED3AD15 
  29      C0136E3C 
  29      4042A040 
  29      49550A
  30 0070 07C0087A 		.ascii	"\007\300\010zg\224\212\346\232\347\016\322\0035\272"
  30      67948AE6 
  30      9AE70ED2 
  30      0335BA
  31 007f 545D44A2 		.ascii	"T]D\242!T\204T\216v\2612\303=\370Oa\313\230\265\366"
  31      21548454 
  31      8E76B132 
  31      C33DF84F 
  31      61CB98B5 
  32 0094 D5E5C6A3 		.ascii	"\325\345\306\243\325\315\345\272\371e-\006\374*\217"
  32      D5CDE5BA 
  32      F9652D06 
  32      FC2A8F
  33 00a3 304D331C 		.ascii	"0M3\034\013\037,\336=BZ\243\3318}\235\252/\255\030k"
  33      0B1F2CDE 
  33      3D425AA3 
  33      D9387D9D 
  33      AA2FAD18 
  34 00b8 2B015BE9 		.ascii	"+\001[\351\203\264f\016\277O\234\231Z\323\332g\001\252"
  34      83B4660E 
  34      BF4F9C99 
  34      5AD3DA67 
  34      01AA
  35 00ca 3E39FBDB 		.ascii	">9\373\333\306\3374?\255\225\001:\377\300\351/P\275"
  35      C6DF343F 
  35      AD95013A 
  35      FFC0E92F 
  35      50BD
  36 00dc 87A3FF93 		.ascii	"\207\243\377\223\267{9%\204]\321l[\373n\357\340\362"
  36      B77B3925 
  36      845DD16C 
  36      5BFB6EEF 
  36      E0F2
  37 00ee 0D8EA610 		.ascii	"\015\216\246\020KH\347O\261$\025\245\2508\016\267\232"
  37      4B48E74F 
  37      B12415A5 
  37      A8380EB7 
  37      9A
  38 00ff 8A76B9F5 		.ascii	"\212v\271\365\270\370\020\236\0128P\243pc\245\3166\320"
  38      B8F8109E 
  38      0A3850A3 
  38      7063A5CE 
  38      36D0
  39 0111 98EC54FA 		.ascii	"\230\354T\372\211\344\024c\344\031|\2729^?\305\034\356"
  39      89E41463 
  39      E4197CBA 
  39      395E3FC5 
  39      1CEE
ARM GAS  /tmp/ccpYqLvB.s 			page 3


  40 0123 90A30222 		.ascii	"\220\243\002\";q\273mL\361i\311\026,\317\306\030\221"
  40      3B71BB6D 
  40      4CF169C9 
  40      162CCFC6 
  40      1891
  41 0135 86F100BD 		.ascii	"\206\361\000\275\267\320 \254\337\303\231\303\230F\302"
  41      B7D020AC 
  41      DFC399C3 
  41      9846C2
  42 0144 D789AA60 		.ascii	"\327\211\252`\2047\334\243J\371\345\027P\021\004`\021"
  42      8437DCA3 
  42      4AF9E517 
  42      50110460 
  42      11
  43 0155 6ECD8A19 		.ascii	"n\315\212\031\0110\225\307H\204W\036\0068@\376;\240"
  43      093095C7 
  43      4884571E 
  43      063840FE 
  43      3BA0
  44 0167 001FC46C 		.ascii	"\000\037\304l\035y\372\372\361\333y\362\025\031\372"
  44      1D79FAFA 
  44      F1DB79F2 
  44      1519FA
  45 0176 1ABCDB57 		.ascii	"\032\274\333Wl\254\005'I\020\225\206\367\246F\240\241"
  45      6CAC0527 
  45      49109586 
  45      F7A646A0 
  45      A1
  46 0187 88334C1A 		.ascii	"\2103L\032\314\031\354pD\302\371\023\336\351'<\021~"
  46      CC19EC70 
  46      44C2F913 
  46      DEE9273C 
  46      117E
  47 0199 C898A10B 		.ascii	"\310\230\241\013\354\275\005\325\017\311\222K\337.p"
  47      ECBD05D5 
  47      0FC9924B 
  47      DF2E70
  48 01a8 866E652F 		.ascii	"\206ne/T\226w+\313D\271zT\035\212)~(\345\305\233B`\371"
  48      5496772B 
  48      CB44B97A 
  48      541D8A29 
  48      7E28E5C5 
  49 01c0 1996A89F 		.ascii	"\031\226\250\237g\357\027\220l\215\037A&y\0338\325\343"
  49      67EF1790 
  49      6C8D1F41 
  49      26791B38 
  49      D5E3
  50 01d2 4C269B5C 		.ascii	"L&\233\\/\313\331\027\271b\266\274\220\317\276\312\025"
  50      2FCBD917 
  50      B962B6BC 
  50      90CFBECA 
  50      15
  51 01e3 3379F80D 		.ascii	"3y\370\015\367\233\315\\"
  51      F79BCD5C 
  52              		.text
  53              		.section	.gnu.lto_palWriteBus.89113b79a1dd6fab,"",%progbits
  54 0000 789CCD53 		.ascii	"x\234\315S\277k\024A\024~ofw\366n\357\307\356Y\231B"
ARM GAS  /tmp/ccpYqLvB.s 			page 4


  54      BF6B1441 
  54      147E6F66 
  54      77F66EEF 
  54      C7EE5999 
  55 0015 12B43370 		.ascii	"\022\2643p\367\017\370\017\330'\240v\347\025\311B\216"
  55      F70FF80F 
  55      D827A076 
  55      E715C942 
  55      8E
  56 0026 84A40A16 		.ascii	"\204\244\012\0267\211\011\034bqX\2116\021,BP\024\233"
  56      3789091C 
  56      62715889 
  56      36112C42 
  56      50149B
  57 0039 10141245 		.ascii	"\020\024\022EB\032\021[\253\003!\351\222:\022\334\274"
  57      421A115B 
  57      AB0321E9 
  57      923A12DC 
  57      BC
  58 004a 37B3BBDC 		.ascii	"7\263\273\334\306\024\027A\270a\367\315\314{\357\373"
  58      C6141741 
  58      B861F7CD 
  58      CC7BEFFB 
  59 005a DE376F77 		.ascii	"\3367ow\004\010\2708\356\320\273\254\000\306y\343\001"
  59      0408B838 
  59      EED0BBAC 
  59      00C679E3 
  59      01
  60 006b 52060A94 		.ascii	"R\006\012\224d\245p\001\264p\3108\216]+^\273H\023*D"
  60      64A57001 
  60      B470C838 
  60      8E5D2B5E 
  60      BB48132A 
  61 0080 02207484 		.ascii	"\002 t\204t\\\205\235\373\274\205\360&\274\322\372Y"
  61      745C859D 
  61      FBBC85F0 
  61      26BCD2FA 
  61      59
  62 0091 7FFDE4F9 		.ascii	"\177\375\344\371\330\223\215\325\236\376\023\307\030"
  62      D8938DD5 
  62      9EFE13C7 
  62      18
  63 009e 71A88570 		.ascii	"q\250\205p\217V8a&f\035\034\026\266w\266\377\324\357"
  63      8F563861 
  63      26661D1C 
  63      16B677B6 
  63      FFD4EF
  64 00b1 AD74751C 		.ascii	"\255tu\034w\"\3260\014H\177\330\324\305\015}\026\307"
  64      7722D630 
  64      0C487FD8 
  64      D4C50D7D 
  64      16C7
  65 00c3 32426784 		.ascii	"2Bg\2041C6\341\0370\275\034\306\035\341\036\374\277"
  65      314336E1 
  65      1F30BD1C 
  65      C61DE11E 
  65      FCBF
ARM GAS  /tmp/ccpYqLvB.s 			page 5


  66 00d5 BE8D680F 		.ascii	"\276\215h\017\332\010\357\304^?\216\337l\277\376\265"
  66      DA08EFC4 
  66      5E3F8EDF 
  66      6CBFFEB5 
  67 00e5 8BB56B88 		.ascii	"\213\265k\210m\244KF\307\222d\244C[\272[\304\244\330"
  67      6DA44B46 
  67      C79264A4 
  67      435BBA5B 
  67      C4A4D8
  68 00f8 786C0A1C 		.ascii	"xl\012\034-\262\361\311\270%\366\225\331T\330T9\020"
  68      2DB2F1C9 
  68      B825F695 
  68      D954D854 
  68      3910
  69 010a 7020E46D 		.ascii	"p \344m\015\214\012pa\215\2320\321N\332Ec*\261t\243"
  69      0D8C0A70 
  69      618D9A30 
  69      D14EDA45 
  69      632AB174 
  70 011f E534DF26 		.ascii	"\3454\337&y\000_\217>\237\356c\023\337S\207f\020Y\261"
  70      79005F8F 
  70      3E9FEE63 
  70      13DF5387 
  70      661059B1 
  71 0133 1A943BCD 		.ascii	"\032\224;\315\\\362\033\254>Hs\304$\334\216\320{\011"
  71      5CF21BAC 
  71      3E4873C4 
  71      24DC8ED0 
  71      7B09
  72 0145 2F28B790 		.ascii	"/(\267\220\303<\304\024F\304\207\031\253\340\014/\310"
  72      C33CC414 
  72      46C48719 
  72      ABE00C2F 
  72      C8
  73 0156 B1D2F790 		.ascii	"\261\322\367\220\337\301\261)\000\217\340\267\356\352"
  73      DFC1B129 
  73      008FE0B7 
  73      EEEA
  74 0164 30C2620B 		.ascii	"0\302b\013-\011{\256G\350\223\376$)\302R\212VV\323\317"
  74      2D097BAE 
  74      47E893FE 
  74      2429C252 
  74      8A5656D3 
  75 0179 83F9B486 		.ascii	"\203\371\264\2064\252\312\227\253Je\021\344\223L\021"
  75      34AACA97 
  75      AB4A6511 
  75      E4934C11 
  76 0189 EE0C1F6D 		.ascii	"\356\014\037m\360d\312pT.\347\020\031\307\343\217\031"
  76      F064CA70 
  76      542EE710 
  76      19C7E38F 
  76      19
  77 019a 87676854 		.ascii	"\207ghT\236\2460L\203\210\246\233\321\024\011\304I\020"
  77      9EA6304C 
  77      8388A69B 
  77      D11409C4 
  77      4910
ARM GAS  /tmp/ccpYqLvB.s 			page 6


  78 01ac 5A91C759 		.ascii	"Z\221\307Y\304\247\240I~\233\271J\246\254\237\257Y\276"
  78      C4A7A049 
  78      7E9BB94A 
  78      A6AC9FAF 
  78      59BE
  79 01be B2F40A81 		.ascii	"\262\364\012\201\376\352@u8\351\003\002\003\002]\020"
  79      FEEA4075 
  79      38E90302 
  79      03025D10 
  80 01ce 181AF2C0 		.ascii	"\030\032\362\300xw2o\315(\017\331\373\345\256uN\302"
  80      7877326F 
  80      CD280FD9 
  80      FBE5AE75 
  80      4EC2
  81 01e0 965EA302 		.ascii	"\226^\243\002\325t\021\330\302D \271p9),\223\331\336"
  81      D57411D8 
  81      C24420B9 
  81      7039292C 
  81      93D9DE
  82 01f3 24A202F8 		.ascii	"$\242\002\370\001+\375\335[\351\337c\307\024\177g>\353"
  82      012BFDDD 
  82      5BE9DF63 
  82      C7147F67 
  82      3EEB
  83 0205 8D7ABD91 		.ascii	"\215z\275\221=\363K\215\331\346\\ci\261\325Xh\316\325"
  83      3DF34B8D 
  83      D9E65C63 
  83      69B1D558 
  83      68CED5
  84 0218 5B700E12 		.ascii	"[p\016\022\332J\301"
  84      DA4AC1
  85              		.text
  86              		.section	.gnu.lto_palSetBusMode.89113b79a1dd6fab,"",%progbits
  87 0000 789CB551 		.ascii	"x\234\265Q\273J\003Q\020\235\271\257M\342\273\323B\024"
  87      BB4A0351 
  87      109DB9AF 
  87      4DE2BBD3 
  87      4214
  88 0012 ED14921F 		.ascii	"\355\024\222\037\3603\024\324.\256\020\027\022\024-"
  88      F03314D4 
  88      2EAE1017 
  88      12142D
  89 0021 2D727D14 		.ascii	"-r}\024\"\026\301J\324B+\323\210`/D\020\264\221`%\244"
  89      2216C14A 
  89      D4422BD3 
  89      88602F44 
  89      10B49160 
  90 0037 0A82DAE5 		.ascii	"\012\202\332\345\003Bp\235\331\315\206DS\004\301aw\356"
  90      0342709D 
  90      D9CD8644 
  90      5304C161 
  90      77EE
  91 0049 EB9CB9E7 		.ascii	"\353\234\271\347\314\025 \340g\314\321\277*\001&x\341"
  91      CC1520E0 
  91      67CCD1BF 
  91      2A012678 
  91      E1
ARM GAS  /tmp/ccpYqLvB.s 			page 7


  92 005a 00120205 		.ascii	"\000\022\002\005\322\006J\241\001\254P\224\224\012\347"
  92      D2064AA1 
  92      01AC5094 
  92      940AE7
  93 0069 86E71A69 		.ascii	"\206\347\032i@\203H\004\204\274\220J\033\314/aP`\012"
  93      40834804 
  93      84BC904A 
  93      1BCC2F61 
  93      50600A
  94 007c 2EAD3DAE 		.ascii	".\255=\256\276\327O\306\016/v\013\366\313\367\321\343"
  94      BED74FC6 
  94      0E2F760B 
  94      F6CBF7D1 
  94      E3
  95 008d 23176191 		.ascii	"#\027a\221f8\031\014\\\265=BZ\251\362x\224(\354\034"
  95      6638190C 
  95      5CB53D42 
  95      5AA9F278 
  95      9428EC1C 
  96 00a1 58DFCF7B 		.ascii	"X\337\317{\254\241\027\222\275-\332\370\205m\370\276"
  96      ACA11792 
  96      BD2DDAF8 
  96      856DF8BE 
  97 00b1 F450FD81 		.ascii	"\364P\375\201\323\233\270B\007G\377\207\266\034\302"
  97      D39BB842 
  97      0747FF87 
  97      B61CC2
  98 00c0 8D28557D 		.ascii	"\215(U}\377\374\256\361V\303\2218b\016\351AH\242\244"
  98      FFFCAEF1 
  98      56C39138 
  98      620EE941 
  98      48A2A4
  99 00d3 241525A5 		.ascii	"$\025%\245yi(i\207\2271\202\360\243j\330'\215\223\271"
  99      79692869 
  99      87973182 
  99      F0A36AD8 
  99      278D93B9 
 100 00e7 A61B8AF9 		.ascii	"\246\033\212\371f\246S\271\300\315\224O\360\360y\377"
 100      66A653B9 
 100      C0CD944F 
 100      F0F079FF 
 101 00f7 FA8869BC 		.ascii	"\372\210i\274\"\003\031D\026a\332\025,\260H\371\014"
 101      22031944 
 101      1661DA15 
 101      2CB048F9 
 101      0C
 102 0108 BBCB1146 		.ascii	"\273\313\021F\314\302\214\207\316\031\234\0226\326\301"
 102      CCC28C87 
 102      CE199C12 
 102      36D6C1
 103 0117 59C18846 		.ascii	"Y\301\210F\205?ZU\005#\234\241\216\252\324.Y\006\025"
 103      853F5A55 
 103      05239CA1 
 103      8EAAD42E 
 103      590615
 104 012a 4200B6A1 		.ascii	"B\000\266\241n\017\354\260\207q\027\303\"\2743\352a"
 104      6E0FECB0 
ARM GAS  /tmp/ccpYqLvB.s 			page 8


 104      877117C3 
 104      22BC33EA 
 104      61
 105 013b 82F43741 		.ascii	"\202\3647A\036\366El\023j\252\024\267\243;d\240\252"
 105      1EF6456C 
 105      136AAA14 
 105      B7A33B64 
 105      A0AA
 106 014d BFBBAA48 		.ascii	"\277\273\252HV\273\015\025\020\006\272\023D\027\202"
 106      56BB0D15 
 106      1006BA13 
 106      441782
 107 015c EEC53711 		.ascii	"\356\3057\021j2b\230\014\313~\206\275\353\326\226C\027"
 107      6A326298 
 107      0CCB7E86 
 107      BDEBD696 
 107      4317
 108 016e 67985506 		.ascii	"g\230U\006\363\313\373\240\333\274\230\354\004\320\230"
 108      F3CBFBA0 
 108      DBBC98EC 
 108      04D098
 109 017d 87D4B517 		.ascii	"\207\324\265\027\330\251\326\246#t\030\363\354\211\301"
 109      D8A9D6A6 
 109      237418F3 
 109      EC89C1
 110 018c E3C964AA 		.ascii	"\343\311d\252\365\255o\245\326\322\331\324\326\246\233"
 110      F5AD6FA5 
 110      D6D2D9D4 
 110      D6A69B
 111 019b DA486793 		.ascii	"\332Hg\223.|\003\201\371\257\017"
 111      2E7C0381 
 111      F9AF0F
 112              		.text
 113              		.section	.gnu.lto_.symbol_nodes.89113b79a1dd6fab,"",%progbits
 114 0000 789C4DC8 		.ascii	"x\234M\310\273\015\2000\020\203a\237/\300\030\214z\251"
 114      BB0D8030 
 114      1083619F 
 114      2FC0188C 
 114      7AA9
 115 0012 1065780F 		.ascii	"\020ex\017\300>\224\324H\264\314\200\000\021P\334\374"
 115      C03E94D4 
 115      48B4CC80 
 115      001150DC 
 115      FC
 116 0023 F247101E 		.ascii	"\362G\020\036q\0144 ,\200\331ZK\326\023\316\224\015"
 116      710C3420 
 116      2C80D95A 
 116      4BD613CE 
 116      940D
 117 0035 4D121D28 		.ascii	"M\022\035(\217\2664&:\222\267JG\323W\275\027\231h\356"
 117      8FB63426 
 117      3A92B74A 
 117      47D357BD 
 117      179968EE 
 118 0049 7F8A1CFB 		.ascii	"\177\212\034\373v\2122\326}-0WG\211\013\016a$\370"
 118      768A32D6 
 118      7D2D3057 
ARM GAS  /tmp/ccpYqLvB.s 			page 9


 118      47890B0E 
 118      6124F8
 119              		.text
 120              		.section	.gnu.lto_.refs.89113b79a1dd6fab,"",%progbits
 121 0000 789C6362 		.ascii	"x\234cb`b\340e\200\000F\006&FF&&fF\026&V\006\000\002"
 121      6062E065 
 121      80004606 
 121      26464626 
 121      26664616 
 122 0019 15002A   		.ascii	"\025\000*"
 123              		.text
 124              		.section	.gnu.lto_.decls.89113b79a1dd6fab,"",%progbits
 125 0000 789CB558 		.ascii	"x\234\265X{lSU\030?\347\266\205u\2249 \220\231\210\024"
 125      7B6C5355 
 125      183FE7B6 
 125      85759439 
 125      20909988 
 126 0015 228620AC 		.ascii	"\"\206 \2548\210\312?Da\310\010\340\226\016\002\376"
 126      3888CA3F 
 126      4461C808 
 126      E0960E02 
 126      FE
 127 0026 75BDB41D 		.ascii	"u\275\264\035k,\333\262\336i\370\31336\201L\201n\010"
 127      6B2CDBB2 
 127      DE69F8CB 
 127      3336814C 
 127      816E08
 128 0039 82306899 		.ascii	"\2020h\231<T\344\375\220g\012\342\230\210\0140\002\211"
 128      3C54E4FD 
 128      90670AE2 
 128      98880C30 
 128      0289
 129 004b 31560409 		.ascii	"1V\004\011\202\011 $\210\216\372\235s\357m\357=\364"
 129      82092024 
 129      888EFA9D 
 129      73EF6DEF 
 129      3DF4
 130 005d F641E24D 		.ascii	"\366A\342M\277\323s{\277\357w~\337\343\234sO\005$\240"
 130      BFD3737B 
 130      BFEF777E 
 130      DFE39C73 
 130      4F0524A0 
 131 0071 CB18A138 		.ascii	"\313\030\2418\\\323\006!\344\025\020\262\"\204&\240"
 131      5CD30621 
 131      E41510B2 
 131      228426A0 
 132 0081 E4650389 		.ascii	"\344e\003\211\200\334\003\351\001\261\203~\177\020\013"
 132      80DC03E9 
 132      01B1837E 
 132      7F100B
 133 0090 F48BE07B 		.ascii	"\364\213\340{\010\310p\214\014\027\325/Tm\013@\034 "
 133      08C8708C 
 133      0C17D52F 
 133      546D0B40 
 133      1C20
 134 00a2 1D20D741 		.ascii	"\035 \327Az#e\214\355 \267@v\200\274\000\366\243@\362"
 134      7A23658C 
ARM GAS  /tmp/ccpYqLvB.s 			page 10


 134      ED20B740 
 134      7680BC00 
 134      F6A340F2 
 135 00b6 41F6C1FD 		.ascii	"A\366\301\375\021\220\375\252\336M\220\275 'An\200\010"
 135      1190FDAA 
 135      DE4D90BD 
 135      2027416E 
 135      8008
 136 00c8 2ABE5DC7 		.ascii	"*\276]\307\341\016|\217\3468P\276\3758\016\351\306/"
 136      E10E7C8F 
 136      E63850BE 
 136      FD380EE9 
 136      C62F
 137 00da D68DDFA1 		.ascii	"\326\215\337\241r\370V\345a\323\361\240\034\272@\316"
 137      72F856E5 
 137      61D3F1A0 
 137      1CBA40CE 
 138 00ea A85CEEE9 		.ascii	"\250\\\356\351\270\320X\374\015\337\017\215TX\334\370"
 138      B8D058FC 
 138      0DDF0F8D 
 138      5458DCF8 
 139 00fa 78A4E3E2 		.ascii	"x\244\343\342\342\270\214\201\376\000u\014=\017K\212"
 139      E2B88C81 
 139      FE00750C 
 139      3D0F4B8A 
 140 010a 9CD05CD8 		.ascii	"\234\320\\\330@zq\361\030\202\326\223p4\266\351\312"
 140      407A71F1 
 140      1882D693 
 140      7034B6E9 
 140      CA
 141 011b 6DBC8644 		.ascii	"m\274\206D\233\011\244\234`4\010\255$p\205\027\021\202"
 141      9B09A49C 
 141      603408AD 
 141      24708517 
 141      1182
 142 012d 653B5A42 		.ascii	"e;ZB\310BzS\326\0054\347`\011\027\330\221\223u\034v"
 142      C8427A53 
 142      D60534E7 
 142      600917D8 
 142      9193751C 
 143 0142 C67438FA 		.ascii	"\306t8\372\224\220P\254\265g\313HB\362$\334\201\355"
 143      949050AC 
 143      B567CB48 
 143      42F224DC 
 143      81ED
 144 0154 10855918 		.ascii	"\020\205Y\030\215D\237\001N\210\220\023%\334\300\354"
 144      8D449F01 
 144      4E889013 
 144      25DCC0EC 
 145 0164 CA1E7ACF 		.ascii	"\312\036z\317\342o\216\343\205@G\302[\030\370b\214\221"
 145      E26F8EE3 
 145      854047C2 
 145      5B18F862 
 145      8C91
 146 0176 8437E391 		.ascii	"\2047\343\2219C\235o92\236\261\374\234\001\035\343\200"
 146      39439D6F 
 146      39329EB1 
ARM GAS  /tmp/ccpYqLvB.s 			page 11


 146      FC9C011D 
 146      E380
 147 0188 24DCDBAE 		.ascii	"$\334\333\256\347\310\3565\005\212\306\036\253\035:"
 147      E7C8EE35 
 147      058AC61E 
 147      AB1D3A
 148 0197 459E42FF 		.ascii	"E\236B\377\263z*_\250\345F<\210\365,\254\342P\037\324"
 148      B37A2A5F 
 148      A8E5463C 
 148      88F52CAC 
 148      E2501FD4 
 149 01ab 928C407F 		.ascii	"\222\214@\177\324J3\350\324\305\342-\315\336\241\013"
 149      D44A33E8 
 149      D4C5E22D 
 149      CDDEA10B 
 150 01bb EBD93325 		.ascii	"\353\3313%,\026;p\177@\271\311\305\"\023\012e\261\033"
 150      2C163B70 
 150      7F40B9C9 
 150      C522130A 
 150      65B11B
 151 01ce 2C151B86 		.ascii	",\025\033\206I\242\367O9\210U\371\035\031\320\014\327"
 151      49A2F74F 
 151      398855F9 
 151      1D19D00C 
 151      D7
 152 01df 501406B6 		.ascii	"P\024\006\266\321\236S\353\236&\341\0238\023\371\230"
 152      D19E53EB 
 152      9E26E113 
 152      3813F998 
 153 01ef A08D3B4A 		.ascii	"\240\215;JWo\221\015\026\306~?c\177'3{#\014\245w\220"
 153      576F910D 
 153      16C67E3F 
 153      637F2733 
 153      7B230CA5 
 154 0205 A7FFCF59 		.ascii	"\247\377\317YF\377`f\372\315M\321\370Y\205>\253\276"
 154      46FF6066 
 154      FACD4DD1 
 154      F859853E 
 154      ABBE
 155 0217 A6B4D527 		.ascii	"\246\264\325'\341\255xxV\371\026\320#\346\011\245\220"
 155      E1AD7878 
 155      56F916D0 
 155      23E609A5 
 155      90
 156 0228 0A49ED2A 		.ascii	"\012I\355*\227\252`\244\025\352v\204$\011\037a\005\336"
 156      97AA60A4 
 156      15EA7684 
 156      24091F61 
 156      05DE
 157 023a 2CE40AE6 		.ascii	",\344\012\3464\200\265\351\301>\310\006,\317\234\331"
 157      3480B5E9 
 157      C13EC806 
 157      2CCF9CD9 
 158 024a 477AB015 		.ascii	"Gz\260\0259\203\031\231\255\322\203\255\311\006\254"
 158      39831999 
 158      ADD283AD 
 158      C906AC
ARM GAS  /tmp/ccpYqLvB.s 			page 12


 159 0259 D09CD96A 		.ascii	"\320\234\331j=X{\316`zf\215\321\003\335\2471is\014@"
 159      3D587BCE 
 159      607A668D 
 159      D103DDA7 
 159      3169730C 
 160 026e 6D843492 		.ascii	"m\2044\222p/\263\242\200\005\234\252\220\264*\022>\215"
 160      702FB3A2 
 160      80059CAA 
 160      90B42A12 
 160      3E8D
 161 0280 07188B74 		.ascii	"\007\030\213t\355\362\002Z\244\364\367\314s\254\275"
 161      EDF2025A 
 161      A4F4F7CC 
 161      73ACBD
 162 028f 5B29526D 		.ascii	"[)Rm\351\2140\347\250\355\023T\027\014\276\257\273\017"
 162      E98C30E7 
 162      A8ED1354 
 162      170CBEAF 
 162      BB0F
 163 02a1 6971A8B3 		.ascii	"iq\250\263+\374\352\3264\304\273\371\331\265\241[p*"
 163      2BFCEAD6 
 163      34C4BBF9 
 163      D9B5A15B 
 163      702A
 164 02b3 3F67E6BD 		.ascii	"?g\346\275\253{]\021\011\037\307\352\322N\026\221\021"
 164      AB7B5D11 
 164      091FC7EA 
 164      D24E1691 
 164      11
 165 02c4 BAB10AB5 		.ascii	"\272\261\012\265\261\350\342\227\330%\016\214b\013\302"
 165      B1E8E297 
 165      D8250E8C 
 165      620BC2
 166 02d3 05E66887 		.ascii	"\005\346h\207\220r\217\310\002\350|\313\026e\217\370"
 166      90728FC8 
 166      02E87CCB 
 166      16658FF8 
 167 02e3 91016D13 		.ascii	"\221\001m\023\370=\302\302\355\021\026\343\254\266\330"
 167      F83DC2C2 
 167      ED1116E3 
 167      ACB6D8
 168 02f2 939D78DC 		.ascii	"\223\235x\334\202rS\026\320\0016`w\262\376\014$3\245"
 168      82725316 
 168      D0013660 
 168      77B2FE0C 
 168      2433A5
 169 0305 68612C74 		.ascii	"ha,tm=\013\235\026\211\3039\343\025r9\021\320\361'-"
 169      6D3D0B9D 
 169      1689C339 
 169      E3157239 
 169      11D0F127 
 170 031a 1B9DE78A 		.ascii	"\033\235\347\212\323\022>\203\207B{\026Z\335\000_g3"
 170      D3123E83 
 170      87427B16 
 170      5ADD005F 
 170      6733
 171 032c E98A4C9C 		.ascii	"\351\212L\234\206\031\374\225~\006w\345\014\3464\200"
ARM GAS  /tmp/ccpYqLvB.s 			page 13


 171      8619FC95 
 171      7E0677E5 
 171      0CE63480 
 172 033c 1DD2837D 		.ascii	"\035\322\203}\237\015\230\323\234\331\021=\330\205\234"
 172      9F0D98D3 
 172      9CD9113D 
 172      D8859C
 173 034b C18CCC8E 		.ascii	"\301\214\314\216\351\301.e\0036\"]R\014\371I\356\206"
 173      E9C12E65 
 173      0336225D 
 173      520CF949 
 173      EE86
 174 035d 123EC4B6 		.ascii	"\022>\304\266\253\303,S\307X\033e\355\011\326\236dm"
 174      ABC32C53 
 174      C7581B65 
 174      ED09D69E 
 174      646D
 175 036f 276BBB58 		.ascii	"'k\273X\3733k\177a\355\257\254\375M\237_\3637\262\350"
 175      FB336B7F 
 175      61EDAFAC 
 175      FD4D9F5F 
 175      F337B2E8 
 176 0383 0FAB9EA1 		.ascii	"\017\253\236\241\253\331>x\013\020\320O\334\\3\274\031"
 176      ABD93E78 
 176      0B10D04F 
 176      DC5C33BC 
 176      19
 177 0394 285BBDD9 		.ascii	"([\275\331js\035\000R/*\217=\023\320\357l\234\335O\266"
 177      6A731D00 
 177      522F2A8F 
 177      3D13D0EF 
 177      6C9CDD4F 
 178 03a9 C7C214DB 		.ascii	"\307\302\024\333\263\254\263\015\257h\"]c\264\367\335"
 178      B3ACB30D 
 178      AF68225D 
 178      63B4F7DD 
 179 03b9 3F734674 		.ascii	"?sFt\352\021\243;OCbsy%\276z\0077\261W\342[l\374\273"
 179      EA11A33B 
 179      4F436273 
 179      7925BE7A 
 179      0737B157 
 180 03d2 8FAD5236 		.ascii	"\217\255R6n\225\262\031\027\036\233=\331I\274{\304\263"
 180      6E95B219 
 180      171E9B3D 
 180      D949BC7B 
 180      C4B3
 181 03e4 F122D50E 		.ascii	"\361\"\325\016\237\272\242v\353*j\017\253\250\275\254"
 181      9FBAA276 
 181      EB2A6A0F 
 181      ABA8BDAC 
 182 03f4 366EB0F6 		.ascii	"6n\260\366f\246\012\241\020\333!u\011\274Y\311\305T"
 182      66A60AA1 
 182      10DB2175 
 182      09BC59C9 
 182      C554
 183 0406 408B2C46 		.ascii	"@\213,F\217\237C\035\204\264\301i&j\205\323\214U1\025"
 183      8F9F431D 
ARM GAS  /tmp/ccpYqLvB.s 			page 14


 183      84B4C169 
 183      266A85D3 
 183      8C553115 
 184 041a 502B538B 		.ascii	"P+S\213\340!&/f\352\000\317\243M4\364G\257V\224))Ei"
 184      E021262F 
 184      66EA00CF 
 184      A34D34F4 
 184      47AF5694 
 185 0432 AC543AB7 		.ascii	"\254T:\267\261\240\367W9NE\357/\372\016\266\177\362"
 185      B1A0F757 
 185      394E45EF 
 185      2FFA0EB6 
 185      7FF2
 186 0444 6F3CDE64 		.ascii	"o<\336d5\036\246$<a\240\251\243\367\215/\364\012\261"
 186      351EA624 
 186      3C61A0A9 
 186      A3F78D2F 
 186      F40AB1
 187 0457 C48DC288 		.ascii	"\304\215\302\210\017\301\312\224! \177y\313\024s\011"
 187      0FC1CA94 
 187      21207F79 
 187      CB147309 
 188 0467 DF058A12 		.ascii	"\337\005\212\022\276\227\336{\325\354\200\257L\253\346"
 188      BE97DE7B 
 188      D5EC80AF 
 188      4CABE6
 189 0476 08033637 		.ascii	"\010\00367S\351\260\240\021\262\224\274_\210\231sH\265"
 189      53E9B0A0 
 189      11B294BC 
 189      5F889973 
 189      48B5
 190 0488 3254C183 		.ascii	"2T\301\203\224a\272p\312\021j\214\305\343\033\234\331"
 190      9461BA70 
 190      CA116A8C 
 190      C5E31B9C 
 190      D9
 191 0499 C7E8519A 		.ascii	"\307\350Q\232\030\345pR\335\265M9\2516\012\324\327\315"
 191      18E57052 
 191      DDB54D39 
 191      A9360AD4 
 191      D7CD
 192 04ab 167EE66C 		.ascii	"\026~\346l\301Or\010\344r\263\303\244<\037^\266$\313"
 192      C14F7208 
 192      E472B3C3 
 192      A43C1F5E 
 192      B624CB
 193 04be 534B504F 		.ascii	"SKPOV\011\332C\023\244\220>\312\320\315\315\250\226"
 193      5609DA43 
 193      13A4903E 
 193      CAD0CDCD 
 193      A896
 194 04d0 59827AF8 		.ascii	"Y\202z\370\0045\013\217%(\026\212\255\\\177\251\031"
 194      04350B8F 
 194      2528168A 
 194      AD5C7FA9 
 194      19
 195 04e1 B73685BB 		.ascii	"\2676\205\273\310m\352b\366Yj\021\314\217\246j\226b"
ARM GAS  /tmp/ccpYqLvB.s 			page 15


 195      C86DEA62 
 195      F6596A11 
 195      CC8FA66A 
 195      9662
 196 04f3 9BA245AB 		.ascii	"\233\242E\253\223Y\312\323 \260\226%\372\267\201\220"
 196      9359CAD3 
 196      20B09625 
 196      FAB78190 
 197 0503 50264545 		.ascii	"P&EE\251u%\274L\240\313\312r\305]\366H\351k\2758\246"
 197      A97525BC 
 197      4CA0CBCA 
 197      72C55DF6 
 197      48E96BBD 
 198 0519 C9B86649 		.ascii	"\311\270fI\365\017\004\003Hoj\346\343\207\202\331\262"
 198      F50F0403 
 198      486F6AE6 
 198      E38782D9 
 198      B2
 199 052a F4079777 		.ascii	"\364\007\227wM\2515e\220C\273:\361\032r\202\376\367"
 199      4DA93565 
 199      9043BB3A 
 199      F11A7282 
 199      FEF7
 200 053c F25E0E21 		.ascii	"\362^\016!^!p\023a_\212\305\"q\257\026\003G\364\236"
 200      5E217013 
 200      615F8AC5 
 200      2271AF16 
 200      0347F49E 
 201 0550 09D18F8D 		.ascii	"\011\321\217\215D\207\241\0109w.v\355\312j\274$\274"
 201      4487A108 
 201      39772E76 
 201      EDCA6ABC 
 201      24BC
 202 0562 30441EC5 		.ascii	"0D\036\305\343\270\037\012\261\303\365j\330\223\227"
 202      E3B81F0A 
 202      B1C3F56A 
 202      D89397
 203 0571 02B84A73 		.ascii	"\002\270Js\216FS\211\215^k\271\251\226\204?\021\372"
 203      8E465389 
 203      8D5E6BB9 
 203      A996843F 
 203      11FA
 204 0583 B11E4B37 		.ascii	"\261\036K7Il\366\016\273\251\373ku9s\330\223\235|\203"
 204      496CF60E 
 204      BBA9FB6B 
 204      753973D8 
 204      939D7C83 
 205 0597 239A16F8 		.ascii	"#\232\026\370\332b\3456\001\216\004\034G\255J\205<\213"
 205      DA62E536 
 205      018E041C 
 205      47AD4A85 
 205      3C8B
 206 05a9 22D676BA 		.ascii	"\"\326v\2728\254a\254\024\357\243\017:I^\250q\011\315"
 206      38AC61AC 
 206      14EFA30F 
 206      3A495EA8 
 206      7109CD
ARM GAS  /tmp/ccpYqLvB.s 			page 16


 207 05bc 9289EFDC 		.ascii	"\222\211\357\334_#&\276?\366\007J$g\3377\232\370\236"
 207      5F2326BE 
 207      3FF6074A 
 207      2467DF37 
 207      9AF89E
 208 05cf A8478316 		.ascii	"\250G\203\026t\327\011\334\026\300\221\020\320\227\011"
 208      74D709DC 
 208      16C09110 
 208      D09709
 209 05de DF0F2BBE 		.ascii	"\337\017+\276\207\365\276_<\225\311\367:\015\260 \235"
 209      87F5BE5F 
 209      3C95C9F7 
 209      3A0DB020 
 209      9D
 210 05ef EF9C162C 		.ascii	"\357\234\026,\2639\373\276\325\304\367\276\006\337\267"
 210      B339FBBE 
 210      D5C4F7BE 
 210      06DFB7
 211 05fe F2BEEB96 		.ascii	"\362\276\353\226I\216\004\034\025\022\276_T|\337\314"
 211      498E041C 
 211      1512BE5F 
 211      547CDFCC 
 212 060e 58712F9E 		.ascii	"Xq/\236tI3#\365Er)\340\254h\011\231YmKZ9\321\006z:n"
 212      74493323 
 212      F5457229 
 212      E0AC6809 
 212      99596D4B 
 213 0629 EF244E67 		.ascii	"\357$Ngb\221\216\350\027i\0167\234\006w\273)\233\315"
 213      62918EE8 
 213      17690E37 
 213      9C0677BB 
 213      299BCD
 214 063c 69AC7698 		.ascii	"i\254v\230Z\255H\343\371\316\244\025\032\\\\\354J|j"
 214      5AAD48E3 
 214      F9CEA415 
 214      1A5C5CEC 
 214      4A7C6A
 215 064f 83AE6A29 		.ascii	"\203\256j)\340\012\326{\\uR\240\330\203\306\245xZW["
 215      E00AD67B 
 215      5C7552A0 
 215      D883C6A5 
 215      785A575B 
 216 0663 2F075D95 		.ascii	"/\007]\2253g\214-qM\237^\352\232R1\265\374\235\022j"
 216      33678C2D 
 216      714D9F5E 
 216      EA9A5231 
 216      B5FC9D12 
 217 0678 200602DE 		.ascii	" \006\002\336\342j\344\360\327R\235\371R\360mQ\3565"
 217      E26AE4F0 
 217      D7529DF9 
 217      52F06D51 
 217      EE35
 218 068a E58D59CE 		.ascii	"\345\215Y\316Ih\260\253!X\357\362\327x\002\015^\237"
 218      4968B0AB 
 218      2158EFF2 
 218      D778020D 
 218      5E9F
ARM GAS  /tmp/ccpYqLvB.s 			page 17


 219 069c ABC6F76E 		.ascii	"\253\306\367n\300?\327\025\224\275\376\032\031,\362"
 219      C03FD715 
 219      94BDFE1A 
 219      192CF2
 220 06ab 1AE07B6C 		.ascii	"\032\340{l\211(\217N\2456_\362T\373k|.\321\353\253\222"
 220      89288F4E 
 220      A5365FF2 
 220      54FB6B7C 
 220      2ED1EBAB 
 221 06c0 1A02B228 		.ascii	"\032\002\262(/\250\363\005\301,_\0245\303\241)\210j"
 221      2FA8F305 
 221      C12C5F14 
 221      35C3A129 
 221      886A
 222 06d2 30D4956A 		.ascii	"0\324\225jd\233Z>\261!\350\010\312\363A\177^\235\277"
 222      649B5A3E 
 222      B121E808 
 222      CAF3417F 
 222      5E9DBF
 223 06e5 56946D33 		.ascii	"V\224m3\312K'\273{\225\317|\263b\262\273wye\305\344"
 223      CA4B27BB 
 223      7B95CF7C 
 223      B362B2BB 
 223      777965C5 
 224 06fa C9A56E5B 		.ascii	"\311\245n[\305\254\212R\267e*Hy\251\033\317f\334^|I"
 224      C5AC8A52 
 224      B7652A48 
 224      79A91BCF 
 224      66DC5E7C 
 225 070f 94D5D168 		.ascii	"\224\325\321h\327\022\364\3116O\300'\325\3432\353\304"
 225      D712F4C9 
 225      364FC027 
 225      D5E332EB 
 225      C4
 226 0720 4AB7DB3A 		.ascii	"J\267\333:}\3224\267\365\265\327\335\323iSf\231\350"
 226      7DD234B7 
 226      F5B5D7DD 
 226      D3695366 
 226      99E8
 227 0732 76E72B51 		.ascii	"v\347+Q\360{!\006J\307J#\342\240\030b\225\024\224_\201"
 227      F07B2106 
 227      4AC74A23 
 227      E2A01862 
 227      9514945F 
 228 0747 07B55555 		.ascii	"\007\265UU\000\225\017\014\335>\311\013\374,s\033\202"
 228      00950F0C 
 228      DD3EC90B 
 228      FC2C731B 
 228      82
 229 0758 7DE07676 		.ascii	"}\340vv\275_\366\301\275u\256_\016\346\371k\347\327"
 229      BD5FF6C1 
 229      BD75AE5F 
 229      0EE6F96B 
 229      E7D7
 230 076a 7A7DA2DC 		.ascii	"z}\242\334\027\236T\372d\370}\006\334[\351\217\3038"
 230      179E54FA 
 230      64F87D06 
ARM GAS  /tmp/ccpYqLvB.s 			page 18


 230      DC5BE98F 
 230      C338
 231 077c C7EBE584 		.ascii	"\307\353\345\204\337\236\352\340\002\032&\253\247Z\252"
 231      DF9EEAE0 
 231      021A26AB 
 231      A75AAA
 232 078b B77BAA2B 		.ascii	"\267{\252+\027\004\313\244\200<PTS%\302\320\363\352"
 232      1704CBA4 
 232      803C5054 
 232      5325C2D0 
 232      F3EA
 233 079d 6B1BEA28 		.ascii	"k\033\352(N\236(V5\324xD\261\257\326)~y\\\311\270>I"
 233      4E9E2856 
 233      35D47844 
 233      B1AFD629 
 233      7E795CC9 
 234 07b4 6AC8F064 		.ascii	"j\310\360d\274C\307\322\360h\354\270\002\003M\364\037"
 234      BC43C7D2 
 234      F068ECB8 
 234      02034DF4 
 234      1F
 235 07c5 5AB1E2D6 		.ascii	"Z\261\342\326"
 236              		.text
 237              		.section	.gnu.lto_.symtab.89113b79a1dd6fab,"",%progbits
 238 0000 70616C52 		.ascii	"palReadBus\000\000\000\000\000\000\000\000\000\000\000"
 238      65616442 
 238      75730000 
 238      00000000 
 238      00000000 
 239 0015 00A10000 		.ascii	"\000\241\000\000\000palWriteBus\000\000\000\000\000"
 239      0070616C 
 239      57726974 
 239      65427573 
 239      00000000 
 240 002a 00000000 		.ascii	"\000\000\000\000\000\000\000\364\000\000\000palSetB"
 240      000000F4 
 240      00000070 
 240      616C5365 
 240      7442
 241 003c 75734D6F 		.ascii	"usMode\000\000\000\000\000\000\000\000\000\000\000\000"
 241      64650000 
 241      00000000 
 241      00000000 
 241      0000
 242 004e FD000000 		.ascii	"\375\000\000\000chSysHalt\000\000\002\000\000\000\000"
 242      63685379 
 242      7348616C 
 242      74000002 
 242      00000000 
 243 0062 00000000 		.ascii	"\000\000\000\000\000\011\001\000\000_pal_lld_setgro"
 243      00090100 
 243      005F7061 
 243      6C5F6C6C 
 243      645F7365 
 244 007a 75706D6F 		.ascii	"upmode\000\000\002\000\000\000\000\000\000\000\000\000"
 244      64650000 
 244      02000000 
ARM GAS  /tmp/ccpYqLvB.s 			page 19


 244      00000000 
 244      0000
 245 008c 12010000 		.ascii	"\022\001\000\000"
 246              		.text
 247              		.section	.gnu.lto_.opts,"",%progbits
 248 0000 272D6D63 		.ascii	"'-mcpu=cortex-m4' '-mno-thumb-interwork' '-mthumb' "
 248      70753D63 
 248      6F727465 
 248      782D6D34 
 248      2720272D 
 249 0033 272D6767 		.ascii	"'-ggdb' '-O0' '-fomit-frame-pointer' '-falign-funct"
 249      64622720 
 249      272D4F30 
 249      2720272D 
 249      666F6D69 
 250 0066 696F6E73 		.ascii	"ions=16' '-ffunction-sections' '-fdata-sections' '-"
 250      3D313627 
 250      20272D66 
 250      66756E63 
 250      74696F6E 
 251 0099 666E6F2D 		.ascii	"fno-common' '-flto'\000"
 251      636F6D6D 
 251      6F6E2720 
 251      272D666C 
 251      746F2700 
 252              		.text
 253              		.cfi_sections	.debug_frame
 254              		.section	.text.palReadBus,"ax",%progbits
 255              		.align	2
 256              		.p2align 4,,15
 257              		.global	palReadBus
 258              		.thumb
 259              		.thumb_func
 260              		.type	palReadBus, %function
 261              	palReadBus:
 262              	.LFB272:
 263              		.file 1 "../../../../os/hal/src/pal.c"
 264              		.loc 1 65 0
 265              		.cfi_startproc
 266              		@ args = 0, pretend = 0, frame = 8
 267              		@ frame_needed = 0, uses_anonymous_args = 0
 268 0000 00B5     		push	{lr}
 269              		.cfi_def_cfa_offset 4
 270              		.cfi_offset 14, -4
 271 0002 83B0     		sub	sp, sp, #12
 272              		.cfi_def_cfa_offset 16
 273 0004 0190     		str	r0, [sp, #4]
 274              		.loc 1 67 0
 275 0006 019B     		ldr	r3, [sp, #4]
 276 0008 002B     		cmp	r3, #0
 277 000a 03D0     		beq	.L2
 278              		.loc 1 67 0 is_stmt 0 discriminator 2
 279 000c 019B     		ldr	r3, [sp, #4]
 280 000e 9B68     		ldr	r3, [r3, #8]
 281 0010 0F2B     		cmp	r3, #15
 282 0012 05D9     		bls	.L3
 283              	.L2:
ARM GAS  /tmp/ccpYqLvB.s 			page 20


 284              		.loc 1 67 0 discriminator 1
 285 0014 40F20000 		movw	r0, #:lower16:__func__.7424
 286 0018 C0F20000 		movt	r0, #:upper16:__func__.7424
 287 001c FFF7FEFF 		bl	chSysHalt
 288              	.L3:
 289              		.loc 1 69 0 is_stmt 1
 290 0020 019B     		ldr	r3, [sp, #4]
 291 0022 1B68     		ldr	r3, [r3]
 292 0024 1A69     		ldr	r2, [r3, #16]
 293 0026 019B     		ldr	r3, [sp, #4]
 294 0028 9B68     		ldr	r3, [r3, #8]
 295 002a DA40     		lsrs	r2, r2, r3
 296 002c 019B     		ldr	r3, [sp, #4]
 297 002e 5B68     		ldr	r3, [r3, #4]
 298 0030 1340     		ands	r3, r3, r2
 299              		.loc 1 70 0
 300 0032 1846     		mov	r0, r3
 301 0034 03B0     		add	sp, sp, #12
 302              		@ sp needed
 303 0036 5DF804FB 		ldr	pc, [sp], #4
 304              		.cfi_endproc
 305              	.LFE272:
 306              		.size	palReadBus, .-palReadBus
 307 003a 00BFAFF3 		.section	.text.palWriteBus,"ax",%progbits
 307      0080
 308              		.align	2
 309              		.p2align 4,,15
 310              		.global	palWriteBus
 311              		.thumb
 312              		.thumb_func
 313              		.type	palWriteBus, %function
 314              	palWriteBus:
 315              	.LFB273:
 316              		.loc 1 90 0
 317              		.cfi_startproc
 318              		@ args = 0, pretend = 0, frame = 8
 319              		@ frame_needed = 0, uses_anonymous_args = 0
 320 0000 00B5     		push	{lr}
 321              		.cfi_def_cfa_offset 4
 322              		.cfi_offset 14, -4
 323 0002 83B0     		sub	sp, sp, #12
 324              		.cfi_def_cfa_offset 16
 325 0004 0190     		str	r0, [sp, #4]
 326 0006 0091     		str	r1, [sp]
 327              		.loc 1 92 0
 328 0008 019B     		ldr	r3, [sp, #4]
 329 000a 002B     		cmp	r3, #0
 330 000c 03D0     		beq	.L6
 331              		.loc 1 92 0 is_stmt 0 discriminator 2
 332 000e 019B     		ldr	r3, [sp, #4]
 333 0010 9B68     		ldr	r3, [r3, #8]
 334 0012 0F2B     		cmp	r3, #15
 335 0014 05D9     		bls	.L7
 336              	.L6:
 337              		.loc 1 92 0 discriminator 1
 338 0016 40F20000 		movw	r0, #:lower16:__func__.7429
 339 001a C0F20000 		movt	r0, #:upper16:__func__.7429
ARM GAS  /tmp/ccpYqLvB.s 			page 21


 340 001e FFF7FEFF 		bl	chSysHalt
 341              	.L7:
 342              		.loc 1 94 0 is_stmt 1
 343 0022 019B     		ldr	r3, [sp, #4]
 344 0024 1B68     		ldr	r3, [r3]
 345 0026 009A     		ldr	r2, [sp]
 346 0028 D143     		mvns	r1, r2
 347 002a 019A     		ldr	r2, [sp, #4]
 348 002c 5268     		ldr	r2, [r2, #4]
 349 002e 1140     		ands	r1, r1, r2
 350 0030 019A     		ldr	r2, [sp, #4]
 351 0032 9268     		ldr	r2, [r2, #8]
 352 0034 1032     		adds	r2, r2, #16
 353 0036 9140     		lsls	r1, r1, r2
 354 0038 019A     		ldr	r2, [sp, #4]
 355 003a 5068     		ldr	r0, [r2, #4]
 356 003c 009A     		ldr	r2, [sp]
 357 003e 1040     		ands	r0, r0, r2
 358 0040 019A     		ldr	r2, [sp, #4]
 359 0042 9268     		ldr	r2, [r2, #8]
 360 0044 00FA02F2 		lsl	r2, r0, r2
 361 0048 0A43     		orrs	r2, r2, r1
 362 004a 9A61     		str	r2, [r3, #24]
 363              		.loc 1 95 0
 364 004c 03B0     		add	sp, sp, #12
 365              		@ sp needed
 366 004e 5DF804FB 		ldr	pc, [sp], #4
 367              		.cfi_endproc
 368              	.LFE273:
 369              		.size	palWriteBus, .-palWriteBus
 370 0052 00BFAFF3 		.section	.text.palSetBusMode,"ax",%progbits
 370      0080AFF3 
 370      0080AFF3 
 370      0080
 371              		.align	2
 372              		.p2align 4,,15
 373              		.global	palSetBusMode
 374              		.thumb
 375              		.thumb_func
 376              		.type	palSetBusMode, %function
 377              	palSetBusMode:
 378              	.LFB274:
 379              		.loc 1 113 0
 380              		.cfi_startproc
 381              		@ args = 0, pretend = 0, frame = 8
 382              		@ frame_needed = 0, uses_anonymous_args = 0
 383 0000 00B5     		push	{lr}
 384              		.cfi_def_cfa_offset 4
 385              		.cfi_offset 14, -4
 386 0002 83B0     		sub	sp, sp, #12
 387              		.cfi_def_cfa_offset 16
 388 0004 0190     		str	r0, [sp, #4]
 389 0006 0091     		str	r1, [sp]
 390              		.loc 1 115 0
 391 0008 019B     		ldr	r3, [sp, #4]
 392 000a 002B     		cmp	r3, #0
 393 000c 03D0     		beq	.L9
ARM GAS  /tmp/ccpYqLvB.s 			page 22


 394              		.loc 1 115 0 is_stmt 0 discriminator 2
 395 000e 019B     		ldr	r3, [sp, #4]
 396 0010 9B68     		ldr	r3, [r3, #8]
 397 0012 0F2B     		cmp	r3, #15
 398 0014 05D9     		bls	.L10
 399              	.L9:
 400              		.loc 1 115 0 discriminator 1
 401 0016 40F20000 		movw	r0, #:lower16:__func__.7434
 402 001a C0F20000 		movt	r0, #:upper16:__func__.7434
 403 001e FFF7FEFF 		bl	chSysHalt
 404              	.L10:
 405              		.loc 1 117 0 is_stmt 1
 406 0022 019B     		ldr	r3, [sp, #4]
 407 0024 1A68     		ldr	r2, [r3]
 408 0026 019B     		ldr	r3, [sp, #4]
 409 0028 5968     		ldr	r1, [r3, #4]
 410 002a 019B     		ldr	r3, [sp, #4]
 411 002c 9B68     		ldr	r3, [r3, #8]
 412 002e 01FA03F3 		lsl	r3, r1, r3
 413 0032 1046     		mov	r0, r2
 414 0034 1946     		mov	r1, r3
 415 0036 009A     		ldr	r2, [sp]
 416 0038 FFF7FEFF 		bl	_pal_lld_setgroupmode
 417              		.loc 1 118 0
 418 003c 03B0     		add	sp, sp, #12
 419              		@ sp needed
 420 003e 5DF804FB 		ldr	pc, [sp], #4
 421              		.cfi_endproc
 422              	.LFE274:
 423              		.size	palSetBusMode, .-palSetBusMode
 424 0042 00BFAFF3 		.section	.rodata.__func__.7424,"a",%progbits
 424      0080AFF3 
 424      0080AFF3 
 424      0080
 425              		.align	2
 426              		.type	__func__.7424, %object
 427              		.size	__func__.7424, 11
 428              	__func__.7424:
 429 0000 70616C52 		.ascii	"palReadBus\000"
 429      65616442 
 429      757300
 430 000b 00       		.section	.rodata.__func__.7429,"a",%progbits
 431              		.align	2
 432              		.type	__func__.7429, %object
 433              		.size	__func__.7429, 12
 434              	__func__.7429:
 435 0000 70616C57 		.ascii	"palWriteBus\000"
 435      72697465 
 435      42757300 
 436              		.section	.rodata.__func__.7434,"a",%progbits
 437              		.align	2
 438              		.type	__func__.7434, %object
 439              		.size	__func__.7434, 14
 440              	__func__.7434:
 441 0000 70616C53 		.ascii	"palSetBusMode\000"
 441      65744275 
 441      734D6F64 
ARM GAS  /tmp/ccpYqLvB.s 			page 23


 441      6500
 442 000e 0000     		.text
 443              	.Letext0:
 444              		.file 2 "/usr/include/newlib/machine/_default_types.h"
 445              		.file 3 "/usr/include/newlib/stdint.h"
 446              		.file 4 "../../../../os/rt/ports/ARMCMx/compilers/GCC/chtypes.h"
 447              		.file 5 "../../../../os/rt/include/chsystypes.h"
 448              		.file 6 "../../../../os/rt/include/chschd.h"
 449              		.file 7 "../../../../os/rt/ports/ARMCMx/chcore.h"
 450              		.file 8 "../../../../os/rt/ports/ARMCMx/chcore_v7m.h"
 451              		.file 9 "../../../../os/rt/include/chdebug.h"
 452              		.file 10 "../../../../os/rt/include/chtm.h"
 453              		.file 11 "../../../../os/rt/include/chstats.h"
 454              		.file 12 "../../../../os/rt/include/chsem.h"
 455              		.file 13 "../../../../os/rt/include/chmtx.h"
 456              		.file 14 "../../../../os/hal/ports/STM32/LLD/GPIOv2/pal_lld.h"
 457              		.file 15 "../../../../os/hal/include/pal.h"
 458              		.file 16 "../../../../os/ext/CMSIS/include/core_cm4.h"
 459              		.section	.debug_info,"",%progbits
 460              	.Ldebug_info0:
 461 0000 280A0000 		.4byte	0xa28
 462 0004 0400     		.2byte	0x4
 463 0006 00000000 		.4byte	.Ldebug_abbrev0
 464 000a 04       		.byte	0x4
 465 000b 01       		.uleb128 0x1
 466 000c 3E040000 		.4byte	.LASF156
 467 0010 01       		.byte	0x1
 468 0011 CF050000 		.4byte	.LASF157
 469 0015 85020000 		.4byte	.LASF158
 470 0019 00000000 		.4byte	.Ldebug_ranges0+0
 471 001d 00000000 		.4byte	0
 472 0021 00000000 		.4byte	.Ldebug_line0
 473 0025 02       		.uleb128 0x2
 474 0026 04       		.byte	0x4
 475 0027 05       		.byte	0x5
 476 0028 696E7400 		.ascii	"int\000"
 477 002c 03       		.uleb128 0x3
 478 002d 04       		.byte	0x4
 479 002e 07       		.byte	0x7
 480 002f 16020000 		.4byte	.LASF0
 481 0033 03       		.uleb128 0x3
 482 0034 01       		.byte	0x1
 483 0035 06       		.byte	0x6
 484 0036 35010000 		.4byte	.LASF1
 485 003a 04       		.uleb128 0x4
 486 003b 3F000000 		.4byte	.LASF4
 487 003f 02       		.byte	0x2
 488 0040 1C       		.byte	0x1c
 489 0041 45000000 		.4byte	0x45
 490 0045 03       		.uleb128 0x3
 491 0046 01       		.byte	0x1
 492 0047 08       		.byte	0x8
 493 0048 F8040000 		.4byte	.LASF2
 494 004c 03       		.uleb128 0x3
 495 004d 02       		.byte	0x2
 496 004e 05       		.byte	0x5
 497 004f 10050000 		.4byte	.LASF3
ARM GAS  /tmp/ccpYqLvB.s 			page 24


 498 0053 04       		.uleb128 0x4
 499 0054 FC050000 		.4byte	.LASF5
 500 0058 02       		.byte	0x2
 501 0059 26       		.byte	0x26
 502 005a 5E000000 		.4byte	0x5e
 503 005e 03       		.uleb128 0x3
 504 005f 02       		.byte	0x2
 505 0060 07       		.byte	0x7
 506 0061 4E020000 		.4byte	.LASF6
 507 0065 04       		.uleb128 0x4
 508 0066 25030000 		.4byte	.LASF7
 509 006a 02       		.byte	0x2
 510 006b 37       		.byte	0x37
 511 006c 70000000 		.4byte	0x70
 512 0070 03       		.uleb128 0x3
 513 0071 04       		.byte	0x4
 514 0072 05       		.byte	0x5
 515 0073 62010000 		.4byte	.LASF8
 516 0077 04       		.uleb128 0x4
 517 0078 3A060000 		.4byte	.LASF9
 518 007c 02       		.byte	0x2
 519 007d 38       		.byte	0x38
 520 007e 82000000 		.4byte	0x82
 521 0082 03       		.uleb128 0x3
 522 0083 04       		.byte	0x4
 523 0084 07       		.byte	0x7
 524 0085 B8050000 		.4byte	.LASF10
 525 0089 03       		.uleb128 0x3
 526 008a 08       		.byte	0x8
 527 008b 05       		.byte	0x5
 528 008c 27010000 		.4byte	.LASF11
 529 0090 04       		.uleb128 0x4
 530 0091 49030000 		.4byte	.LASF12
 531 0095 02       		.byte	0x2
 532 0096 4E       		.byte	0x4e
 533 0097 9B000000 		.4byte	0x9b
 534 009b 03       		.uleb128 0x3
 535 009c 08       		.byte	0x8
 536 009d 07       		.byte	0x7
 537 009e A8000000 		.4byte	.LASF13
 538 00a2 04       		.uleb128 0x4
 539 00a3 B0060000 		.4byte	.LASF14
 540 00a7 03       		.byte	0x3
 541 00a8 2A       		.byte	0x2a
 542 00a9 3A000000 		.4byte	0x3a
 543 00ad 04       		.uleb128 0x4
 544 00ae 81010000 		.4byte	.LASF15
 545 00b2 03       		.byte	0x3
 546 00b3 36       		.byte	0x36
 547 00b4 53000000 		.4byte	0x53
 548 00b8 04       		.uleb128 0x4
 549 00b9 F0040000 		.4byte	.LASF16
 550 00bd 03       		.byte	0x3
 551 00be 41       		.byte	0x41
 552 00bf 65000000 		.4byte	0x65
 553 00c3 04       		.uleb128 0x4
 554 00c4 87050000 		.4byte	.LASF17
ARM GAS  /tmp/ccpYqLvB.s 			page 25


 555 00c8 03       		.byte	0x3
 556 00c9 42       		.byte	0x42
 557 00ca 77000000 		.4byte	0x77
 558 00ce 04       		.uleb128 0x4
 559 00cf 29000000 		.4byte	.LASF18
 560 00d3 03       		.byte	0x3
 561 00d4 4E       		.byte	0x4e
 562 00d5 90000000 		.4byte	0x90
 563 00d9 04       		.uleb128 0x4
 564 00da 37050000 		.4byte	.LASF19
 565 00de 03       		.byte	0x3
 566 00df 60       		.byte	0x60
 567 00e0 2C000000 		.4byte	0x2c
 568 00e4 04       		.uleb128 0x4
 569 00e5 69060000 		.4byte	.LASF20
 570 00e9 04       		.byte	0x4
 571 00ea 39       		.byte	0x39
 572 00eb C3000000 		.4byte	0xc3
 573 00ef 04       		.uleb128 0x4
 574 00f0 17010000 		.4byte	.LASF21
 575 00f4 04       		.byte	0x4
 576 00f5 3A       		.byte	0x3a
 577 00f6 CE000000 		.4byte	0xce
 578 00fa 04       		.uleb128 0x4
 579 00fb F8020000 		.4byte	.LASF22
 580 00ff 04       		.byte	0x4
 581 0100 3C       		.byte	0x3c
 582 0101 A2000000 		.4byte	0xa2
 583 0105 04       		.uleb128 0x4
 584 0106 6B010000 		.4byte	.LASF23
 585 010a 04       		.byte	0x4
 586 010b 3D       		.byte	0x3d
 587 010c A2000000 		.4byte	0xa2
 588 0110 04       		.uleb128 0x4
 589 0111 0D040000 		.4byte	.LASF24
 590 0115 04       		.byte	0x4
 591 0116 3E       		.byte	0x3e
 592 0117 A2000000 		.4byte	0xa2
 593 011b 04       		.uleb128 0x4
 594 011c 36040000 		.4byte	.LASF25
 595 0120 04       		.byte	0x4
 596 0121 40       		.byte	0x40
 597 0122 C3000000 		.4byte	0xc3
 598 0126 04       		.uleb128 0x4
 599 0127 7A020000 		.4byte	.LASF26
 600 012b 04       		.byte	0x4
 601 012c 41       		.byte	0x41
 602 012d B8000000 		.4byte	0xb8
 603 0131 04       		.uleb128 0x4
 604 0132 19030000 		.4byte	.LASF27
 605 0136 04       		.byte	0x4
 606 0137 43       		.byte	0x43
 607 0138 C3000000 		.4byte	0xc3
 608 013c 04       		.uleb128 0x4
 609 013d 05020000 		.4byte	.LASF28
 610 0141 04       		.byte	0x4
 611 0142 45       		.byte	0x45
ARM GAS  /tmp/ccpYqLvB.s 			page 26


 612 0143 B8000000 		.4byte	0xb8
 613 0147 04       		.uleb128 0x4
 614 0148 C9020000 		.4byte	.LASF29
 615 014c 04       		.byte	0x4
 616 014d 46       		.byte	0x46
 617 014e C3000000 		.4byte	0xc3
 618 0152 04       		.uleb128 0x4
 619 0153 1C060000 		.4byte	.LASF30
 620 0157 05       		.byte	0x5
 621 0158 33       		.byte	0x33
 622 0159 C3000000 		.4byte	0xc3
 623 015d 04       		.uleb128 0x4
 624 015e 07060000 		.4byte	.LASF31
 625 0162 05       		.byte	0x5
 626 0163 3F       		.byte	0x3f
 627 0164 68010000 		.4byte	0x168
 628 0168 05       		.uleb128 0x5
 629 0169 70020000 		.4byte	.LASF53
 630 016d 60       		.byte	0x60
 631 016e 06       		.byte	0x6
 632 016f C2       		.byte	0xc2
 633 0170 6E020000 		.4byte	0x26e
 634 0174 06       		.uleb128 0x6
 635 0175 30050000 		.4byte	.LASF32
 636 0179 06       		.byte	0x6
 637 017a C3       		.byte	0xc3
 638 017b 79020000 		.4byte	0x279
 639 017f 00       		.byte	0
 640 0180 06       		.uleb128 0x6
 641 0181 2F040000 		.4byte	.LASF33
 642 0185 06       		.byte	0x6
 643 0186 C5       		.byte	0xc5
 644 0187 79020000 		.4byte	0x279
 645 018b 04       		.byte	0x4
 646 018c 06       		.uleb128 0x6
 647 018d 20010000 		.4byte	.LASF34
 648 0191 06       		.byte	0x6
 649 0192 C7       		.byte	0xc7
 650 0193 1B010000 		.4byte	0x11b
 651 0197 08       		.byte	0x8
 652 0198 06       		.uleb128 0x6
 653 0199 0E070000 		.4byte	.LASF35
 654 019d 06       		.byte	0x6
 655 019e C8       		.byte	0xc8
 656 019f E7040000 		.4byte	0x4e7
 657 01a3 0C       		.byte	0xc
 658 01a4 06       		.uleb128 0x6
 659 01a5 8A010000 		.4byte	.LASF36
 660 01a9 06       		.byte	0x6
 661 01aa CA       		.byte	0xca
 662 01ab 79020000 		.4byte	0x279
 663 01af 10       		.byte	0x10
 664 01b0 06       		.uleb128 0x6
 665 01b1 B2030000 		.4byte	.LASF37
 666 01b5 06       		.byte	0x6
 667 01b6 CB       		.byte	0xcb
 668 01b7 79020000 		.4byte	0x279
ARM GAS  /tmp/ccpYqLvB.s 			page 27


 669 01bb 14       		.byte	0x14
 670 01bc 06       		.uleb128 0x6
 671 01bd BF060000 		.4byte	.LASF38
 672 01c1 06       		.byte	0x6
 673 01c2 D2       		.byte	0xd2
 674 01c3 8B070000 		.4byte	0x78b
 675 01c7 18       		.byte	0x18
 676 01c8 06       		.uleb128 0x6
 677 01c9 0B020000 		.4byte	.LASF39
 678 01cd 06       		.byte	0x6
 679 01ce D8       		.byte	0xd8
 680 01cf 9D070000 		.4byte	0x79d
 681 01d3 1C       		.byte	0x1c
 682 01d4 06       		.uleb128 0x6
 683 01d5 1A050000 		.4byte	.LASF40
 684 01d9 06       		.byte	0x6
 685 01da DD       		.byte	0xdd
 686 01db 05010000 		.4byte	0x105
 687 01df 20       		.byte	0x20
 688 01e0 06       		.uleb128 0x6
 689 01e1 44050000 		.4byte	.LASF41
 690 01e5 06       		.byte	0x6
 691 01e6 E1       		.byte	0xe1
 692 01e7 FA000000 		.4byte	0xfa
 693 01eb 21       		.byte	0x21
 694 01ec 06       		.uleb128 0x6
 695 01ed 74010000 		.4byte	.LASF42
 696 01f1 06       		.byte	0x6
 697 01f2 E6       		.byte	0xe6
 698 01f3 10010000 		.4byte	0x110
 699 01f7 22       		.byte	0x22
 700 01f8 07       		.uleb128 0x7
 701 01f9 705F7500 		.ascii	"p_u\000"
 702 01fd 06       		.byte	0x6
 703 01fe 3101     		.2byte	0x131
 704 0200 C6060000 		.4byte	0x6c6
 705 0204 24       		.byte	0x24
 706 0205 08       		.uleb128 0x8
 707 0206 54030000 		.4byte	.LASF43
 708 020a 06       		.byte	0x6
 709 020b 3601     		.2byte	0x136
 710 020d 7F020000 		.4byte	0x27f
 711 0211 28       		.byte	0x28
 712 0212 08       		.uleb128 0x8
 713 0213 32020000 		.4byte	.LASF44
 714 0217 06       		.byte	0x6
 715 0218 3C01     		.2byte	0x13c
 716 021a A3020000 		.4byte	0x2a3
 717 021e 2C       		.byte	0x2c
 718 021f 08       		.uleb128 0x8
 719 0220 E2060000 		.4byte	.LASF45
 720 0224 06       		.byte	0x6
 721 0225 4001     		.2byte	0x140
 722 0227 26010000 		.4byte	0x126
 723 022b 34       		.byte	0x34
 724 022c 08       		.uleb128 0x8
 725 022d 7C050000 		.4byte	.LASF46
ARM GAS  /tmp/ccpYqLvB.s 			page 28


 726 0231 06       		.byte	0x6
 727 0232 4601     		.2byte	0x146
 728 0234 31010000 		.4byte	0x131
 729 0238 38       		.byte	0x38
 730 0239 08       		.uleb128 0x8
 731 023a 06050000 		.4byte	.LASF47
 732 023e 06       		.byte	0x6
 733 023f 4D01     		.2byte	0x14d
 734 0241 85070000 		.4byte	0x785
 735 0245 3C       		.byte	0x3c
 736 0246 08       		.uleb128 0x8
 737 0247 26060000 		.4byte	.LASF48
 738 024b 06       		.byte	0x6
 739 024c 5101     		.2byte	0x151
 740 024e 1B010000 		.4byte	0x11b
 741 0252 40       		.byte	0x40
 742 0253 08       		.uleb128 0x8
 743 0254 46010000 		.4byte	.LASF49
 744 0258 06       		.byte	0x6
 745 0259 5801     		.2byte	0x158
 746 025b 56030000 		.4byte	0x356
 747 025f 44       		.byte	0x44
 748 0260 08       		.uleb128 0x8
 749 0261 4C050000 		.4byte	.LASF50
 750 0265 06       		.byte	0x6
 751 0266 5E01     		.2byte	0x15e
 752 0268 77060000 		.4byte	0x677
 753 026c 48       		.byte	0x48
 754 026d 00       		.byte	0
 755 026e 04       		.uleb128 0x4
 756 026f 67030000 		.4byte	.LASF51
 757 0273 05       		.byte	0x5
 758 0274 44       		.byte	0x44
 759 0275 79020000 		.4byte	0x279
 760 0279 09       		.uleb128 0x9
 761 027a 04       		.byte	0x4
 762 027b 5D010000 		.4byte	0x15d
 763 027f 04       		.uleb128 0x4
 764 0280 C6060000 		.4byte	.LASF52
 765 0284 05       		.byte	0x5
 766 0285 49       		.byte	0x49
 767 0286 8A020000 		.4byte	0x28a
 768 028a 05       		.uleb128 0x5
 769 028b A8050000 		.4byte	.LASF54
 770 028f 04       		.byte	0x4
 771 0290 06       		.byte	0x6
 772 0291 B0       		.byte	0xb0
 773 0292 A3020000 		.4byte	0x2a3
 774 0296 06       		.uleb128 0x6
 775 0297 30050000 		.4byte	.LASF32
 776 029b 06       		.byte	0x6
 777 029c B1       		.byte	0xb1
 778 029d 79020000 		.4byte	0x279
 779 02a1 00       		.byte	0
 780 02a2 00       		.byte	0
 781 02a3 04       		.uleb128 0x4
 782 02a4 84060000 		.4byte	.LASF55
ARM GAS  /tmp/ccpYqLvB.s 			page 29


 783 02a8 05       		.byte	0x5
 784 02a9 50       		.byte	0x50
 785 02aa AE020000 		.4byte	0x2ae
 786 02ae 05       		.uleb128 0x5
 787 02af 5C000000 		.4byte	.LASF56
 788 02b3 08       		.byte	0x8
 789 02b4 06       		.byte	0x6
 790 02b5 B7       		.byte	0xb7
 791 02b6 D3020000 		.4byte	0x2d3
 792 02ba 06       		.uleb128 0x6
 793 02bb 30050000 		.4byte	.LASF32
 794 02bf 06       		.byte	0x6
 795 02c0 B8       		.byte	0xb8
 796 02c1 79020000 		.4byte	0x279
 797 02c5 00       		.byte	0
 798 02c6 06       		.uleb128 0x6
 799 02c7 2F040000 		.4byte	.LASF33
 800 02cb 06       		.byte	0x6
 801 02cc B9       		.byte	0xb9
 802 02cd 79020000 		.4byte	0x279
 803 02d1 04       		.byte	0x4
 804 02d2 00       		.byte	0
 805 02d3 04       		.uleb128 0x4
 806 02d4 07000000 		.4byte	.LASF57
 807 02d8 05       		.byte	0x5
 808 02d9 57       		.byte	0x57
 809 02da DE020000 		.4byte	0x2de
 810 02de 0A       		.uleb128 0xa
 811 02df 0B030000 		.4byte	.LASF58
 812 02e3 1C       		.byte	0x1c
 813 02e4 06       		.byte	0x6
 814 02e5 9001     		.2byte	0x190
 815 02e7 3A030000 		.4byte	0x33a
 816 02eb 08       		.uleb128 0x8
 817 02ec 97050000 		.4byte	.LASF59
 818 02f0 06       		.byte	0x6
 819 02f1 9101     		.2byte	0x191
 820 02f3 A3020000 		.4byte	0x2a3
 821 02f7 00       		.byte	0
 822 02f8 08       		.uleb128 0x8
 823 02f9 22050000 		.4byte	.LASF60
 824 02fd 06       		.byte	0x6
 825 02fe 9201     		.2byte	0x192
 826 0300 1B010000 		.4byte	0x11b
 827 0304 08       		.byte	0x8
 828 0305 08       		.uleb128 0x8
 829 0306 BA030000 		.4byte	.LASF61
 830 030a 06       		.byte	0x6
 831 030b 9401     		.2byte	0x194
 832 030d E7040000 		.4byte	0x4e7
 833 0311 0C       		.byte	0xc
 834 0312 08       		.uleb128 0x8
 835 0313 AA010000 		.4byte	.LASF62
 836 0317 06       		.byte	0x6
 837 0318 9701     		.2byte	0x197
 838 031a 79020000 		.4byte	0x279
 839 031e 10       		.byte	0x10
ARM GAS  /tmp/ccpYqLvB.s 			page 30


 840 031f 08       		.uleb128 0x8
 841 0320 DB030000 		.4byte	.LASF63
 842 0324 06       		.byte	0x6
 843 0325 9801     		.2byte	0x198
 844 0327 79020000 		.4byte	0x279
 845 032b 14       		.byte	0x14
 846 032c 08       		.uleb128 0x8
 847 032d D1030000 		.4byte	.LASF64
 848 0331 06       		.byte	0x6
 849 0332 9B01     		.2byte	0x19b
 850 0334 79020000 		.4byte	0x279
 851 0338 18       		.byte	0x18
 852 0339 00       		.byte	0
 853 033a 04       		.uleb128 0x4
 854 033b 31060000 		.4byte	.LASF65
 855 033f 05       		.byte	0x5
 856 0340 5C       		.byte	0x5c
 857 0341 45030000 		.4byte	0x345
 858 0345 09       		.uleb128 0x9
 859 0346 04       		.byte	0x4
 860 0347 4B030000 		.4byte	0x34b
 861 034b 0B       		.uleb128 0xb
 862 034c 56030000 		.4byte	0x356
 863 0350 0C       		.uleb128 0xc
 864 0351 56030000 		.4byte	0x356
 865 0355 00       		.byte	0
 866 0356 0D       		.uleb128 0xd
 867 0357 04       		.byte	0x4
 868 0358 04       		.uleb128 0x4
 869 0359 1F040000 		.4byte	.LASF66
 870 035d 05       		.byte	0x5
 871 035e 61       		.byte	0x61
 872 035f 63030000 		.4byte	0x363
 873 0363 0A       		.uleb128 0xa
 874 0364 5E050000 		.4byte	.LASF67
 875 0368 14       		.byte	0x14
 876 0369 06       		.byte	0x6
 877 036a 6B01     		.2byte	0x16b
 878 036c B2030000 		.4byte	0x3b2
 879 0370 08       		.uleb128 0x8
 880 0371 23020000 		.4byte	.LASF68
 881 0375 06       		.byte	0x6
 882 0376 6C01     		.2byte	0x16c
 883 0378 A3070000 		.4byte	0x7a3
 884 037c 00       		.byte	0
 885 037d 08       		.uleb128 0x8
 886 037e C9010000 		.4byte	.LASF69
 887 0382 06       		.byte	0x6
 888 0383 6D01     		.2byte	0x16d
 889 0385 A3070000 		.4byte	0x7a3
 890 0389 04       		.byte	0x4
 891 038a 08       		.uleb128 0x8
 892 038b 9F050000 		.4byte	.LASF70
 893 038f 06       		.byte	0x6
 894 0390 6E01     		.2byte	0x16e
 895 0392 52010000 		.4byte	0x152
 896 0396 08       		.byte	0x8
ARM GAS  /tmp/ccpYqLvB.s 			page 31


 897 0397 08       		.uleb128 0x8
 898 0398 14070000 		.4byte	.LASF71
 899 039c 06       		.byte	0x6
 900 039d 6F01     		.2byte	0x16f
 901 039f 3A030000 		.4byte	0x33a
 902 03a3 0C       		.byte	0xc
 903 03a4 08       		.uleb128 0x8
 904 03a5 71060000 		.4byte	.LASF72
 905 03a9 06       		.byte	0x6
 906 03aa 7101     		.2byte	0x171
 907 03ac 56030000 		.4byte	0x356
 908 03b0 10       		.byte	0x10
 909 03b1 00       		.byte	0
 910 03b2 04       		.uleb128 0x4
 911 03b3 F4000000 		.4byte	.LASF73
 912 03b7 05       		.byte	0x5
 913 03b8 66       		.byte	0x66
 914 03b9 BD030000 		.4byte	0x3bd
 915 03bd 0A       		.uleb128 0xa
 916 03be 7A030000 		.4byte	.LASF74
 917 03c2 10       		.byte	0x10
 918 03c3 06       		.byte	0x6
 919 03c4 7B01     		.2byte	0x17b
 920 03c6 FF030000 		.4byte	0x3ff
 921 03ca 08       		.uleb128 0x8
 922 03cb 23020000 		.4byte	.LASF68
 923 03cf 06       		.byte	0x6
 924 03d0 7C01     		.2byte	0x17c
 925 03d2 A3070000 		.4byte	0x7a3
 926 03d6 00       		.byte	0
 927 03d7 08       		.uleb128 0x8
 928 03d8 C9010000 		.4byte	.LASF69
 929 03dc 06       		.byte	0x6
 930 03dd 7E01     		.2byte	0x17e
 931 03df A3070000 		.4byte	0x7a3
 932 03e3 04       		.byte	0x4
 933 03e4 08       		.uleb128 0x8
 934 03e5 9F050000 		.4byte	.LASF70
 935 03e9 06       		.byte	0x6
 936 03ea 8001     		.2byte	0x180
 937 03ec 52010000 		.4byte	0x152
 938 03f0 08       		.byte	0x8
 939 03f1 08       		.uleb128 0x8
 940 03f2 A6030000 		.4byte	.LASF75
 941 03f6 06       		.byte	0x6
 942 03f7 8801     		.2byte	0x188
 943 03f9 52010000 		.4byte	0x152
 944 03fd 0C       		.byte	0xc
 945 03fe 00       		.byte	0
 946 03ff 04       		.uleb128 0x4
 947 0400 6D000000 		.4byte	.LASF76
 948 0404 05       		.byte	0x5
 949 0405 6B       		.byte	0x6b
 950 0406 0A040000 		.4byte	0x40a
 951 040a 0E       		.uleb128 0xe
 952 040b D1010000 		.4byte	.LASF77
 953 040f 1404     		.2byte	0x414
ARM GAS  /tmp/ccpYqLvB.s 			page 32


 954 0411 06       		.byte	0x6
 955 0412 A201     		.2byte	0x1a2
 956 0414 4D040000 		.4byte	0x44d
 957 0418 08       		.uleb128 0x8
 958 0419 45060000 		.4byte	.LASF78
 959 041d 06       		.byte	0x6
 960 041e AA01     		.2byte	0x1aa
 961 0420 A9070000 		.4byte	0x7a9
 962 0424 00       		.byte	0
 963 0425 08       		.uleb128 0x8
 964 0426 A2060000 		.4byte	.LASF79
 965 042a 06       		.byte	0x6
 966 042b AF01     		.2byte	0x1af
 967 042d 3C010000 		.4byte	0x13c
 968 0431 04       		.byte	0x4
 969 0432 08       		.uleb128 0x8
 970 0433 F6010000 		.4byte	.LASF80
 971 0437 06       		.byte	0x6
 972 0438 B301     		.2byte	0x1b3
 973 043a 3C010000 		.4byte	0x13c
 974 043e 08       		.byte	0x8
 975 043f 08       		.uleb128 0x8
 976 0440 D5060000 		.4byte	.LASF81
 977 0444 06       		.byte	0x6
 978 0445 B901     		.2byte	0x1b9
 979 0447 09060000 		.4byte	0x609
 980 044b 0C       		.byte	0xc
 981 044c 00       		.byte	0
 982 044d 04       		.uleb128 0x4
 983 044e DE020000 		.4byte	.LASF82
 984 0452 05       		.byte	0x5
 985 0453 70       		.byte	0x70
 986 0454 58040000 		.4byte	0x458
 987 0458 0E       		.uleb128 0xe
 988 0459 54050000 		.4byte	.LASF83
 989 045d D805     		.2byte	0x5d8
 990 045f 06       		.byte	0x6
 991 0460 C201     		.2byte	0x1c2
 992 0462 C5040000 		.4byte	0x4c5
 993 0466 08       		.uleb128 0x8
 994 0467 AA060000 		.4byte	.LASF84
 995 046b 06       		.byte	0x6
 996 046c C601     		.2byte	0x1c6
 997 046e D3020000 		.4byte	0x2d3
 998 0472 00       		.byte	0
 999 0473 08       		.uleb128 0x8
 1000 0474 56010000 		.4byte	.LASF85
 1001 0478 06       		.byte	0x6
 1002 0479 CA01     		.2byte	0x1ca
 1003 047b B2030000 		.4byte	0x3b2
 1004 047f 1C       		.byte	0x1c
 1005 0480 07       		.uleb128 0x7
 1006 0481 64626700 		.ascii	"dbg\000"
 1007 0485 06       		.byte	0x6
 1008 0486 CE01     		.2byte	0x1ce
 1009 0488 FF030000 		.4byte	0x3ff
 1010 048c 2C       		.byte	0x2c
ARM GAS  /tmp/ccpYqLvB.s 			page 33


 1011 048d 0F       		.uleb128 0xf
 1012 048e E9000000 		.4byte	.LASF86
 1013 0492 06       		.byte	0x6
 1014 0493 D201     		.2byte	0x1d2
 1015 0495 5D010000 		.4byte	0x15d
 1016 0499 4004     		.2byte	0x440
 1017 049b 10       		.uleb128 0x10
 1018 049c 746D00   		.ascii	"tm\000"
 1019 049f 06       		.byte	0x6
 1020 04a0 D701     		.2byte	0x1d7
 1021 04a2 29060000 		.4byte	0x629
 1022 04a6 A004     		.2byte	0x4a0
 1023 04a8 0F       		.uleb128 0xf
 1024 04a9 32000000 		.4byte	.LASF87
 1025 04ad 06       		.byte	0x6
 1026 04ae DD01     		.2byte	0x1dd
 1027 04b0 BB060000 		.4byte	0x6bb
 1028 04b4 A804     		.2byte	0x4a8
 1029 04b6 0F       		.uleb128 0xf
 1030 04b7 2F030000 		.4byte	.LASF88
 1031 04bb 06       		.byte	0x6
 1032 04bc E301     		.2byte	0x1e3
 1033 04be AE070000 		.4byte	0x7ae
 1034 04c2 E004     		.2byte	0x4e0
 1035 04c4 00       		.byte	0
 1036 04c5 03       		.uleb128 0x3
 1037 04c6 04       		.byte	0x4
 1038 04c7 07       		.byte	0x7
 1039 04c8 5E030000 		.4byte	.LASF89
 1040 04cc 11       		.uleb128 0x11
 1041 04cd C3000000 		.4byte	0xc3
 1042 04d1 04       		.uleb128 0x4
 1043 04d2 C0010000 		.4byte	.LASF90
 1044 04d6 07       		.byte	0x7
 1045 04d7 65       		.byte	0x65
 1046 04d8 56030000 		.4byte	0x356
 1047 04dc 04       		.uleb128 0x4
 1048 04dd 3E030000 		.4byte	.LASF91
 1049 04e1 07       		.byte	0x7
 1050 04e2 6D       		.byte	0x6d
 1051 04e3 CE000000 		.4byte	0xce
 1052 04e7 05       		.uleb128 0x5
 1053 04e8 61060000 		.4byte	.LASF92
 1054 04ec 04       		.byte	0x4
 1055 04ed 07       		.byte	0x7
 1056 04ee 89       		.byte	0x89
 1057 04ef 00050000 		.4byte	0x500
 1058 04f3 12       		.uleb128 0x12
 1059 04f4 72313300 		.ascii	"r13\000"
 1060 04f8 07       		.byte	0x7
 1061 04f9 8A       		.byte	0x8a
 1062 04fa 7B050000 		.4byte	0x57b
 1063 04fe 00       		.byte	0
 1064 04ff 00       		.byte	0
 1065 0500 05       		.uleb128 0x5
 1066 0501 50000000 		.4byte	.LASF93
 1067 0505 24       		.byte	0x24
ARM GAS  /tmp/ccpYqLvB.s 			page 34


 1068 0506 08       		.byte	0x8
 1069 0507 FD       		.byte	0xfd
 1070 0508 7B050000 		.4byte	0x57b
 1071 050c 07       		.uleb128 0x7
 1072 050d 723400   		.ascii	"r4\000"
 1073 0510 08       		.byte	0x8
 1074 0511 1001     		.2byte	0x110
 1075 0513 D1040000 		.4byte	0x4d1
 1076 0517 00       		.byte	0
 1077 0518 07       		.uleb128 0x7
 1078 0519 723500   		.ascii	"r5\000"
 1079 051c 08       		.byte	0x8
 1080 051d 1101     		.2byte	0x111
 1081 051f D1040000 		.4byte	0x4d1
 1082 0523 04       		.byte	0x4
 1083 0524 07       		.uleb128 0x7
 1084 0525 723600   		.ascii	"r6\000"
 1085 0528 08       		.byte	0x8
 1086 0529 1201     		.2byte	0x112
 1087 052b D1040000 		.4byte	0x4d1
 1088 052f 08       		.byte	0x8
 1089 0530 07       		.uleb128 0x7
 1090 0531 723700   		.ascii	"r7\000"
 1091 0534 08       		.byte	0x8
 1092 0535 1301     		.2byte	0x113
 1093 0537 D1040000 		.4byte	0x4d1
 1094 053b 0C       		.byte	0xc
 1095 053c 07       		.uleb128 0x7
 1096 053d 723800   		.ascii	"r8\000"
 1097 0540 08       		.byte	0x8
 1098 0541 1401     		.2byte	0x114
 1099 0543 D1040000 		.4byte	0x4d1
 1100 0547 10       		.byte	0x10
 1101 0548 07       		.uleb128 0x7
 1102 0549 723900   		.ascii	"r9\000"
 1103 054c 08       		.byte	0x8
 1104 054d 1501     		.2byte	0x115
 1105 054f D1040000 		.4byte	0x4d1
 1106 0553 14       		.byte	0x14
 1107 0554 07       		.uleb128 0x7
 1108 0555 72313000 		.ascii	"r10\000"
 1109 0559 08       		.byte	0x8
 1110 055a 1601     		.2byte	0x116
 1111 055c D1040000 		.4byte	0x4d1
 1112 0560 18       		.byte	0x18
 1113 0561 07       		.uleb128 0x7
 1114 0562 72313100 		.ascii	"r11\000"
 1115 0566 08       		.byte	0x8
 1116 0567 1701     		.2byte	0x117
 1117 0569 D1040000 		.4byte	0x4d1
 1118 056d 1C       		.byte	0x1c
 1119 056e 07       		.uleb128 0x7
 1120 056f 6C7200   		.ascii	"lr\000"
 1121 0572 08       		.byte	0x8
 1122 0573 1801     		.2byte	0x118
 1123 0575 D1040000 		.4byte	0x4d1
 1124 0579 20       		.byte	0x20
ARM GAS  /tmp/ccpYqLvB.s 			page 35


 1125 057a 00       		.byte	0
 1126 057b 09       		.uleb128 0x9
 1127 057c 04       		.byte	0x4
 1128 057d 00050000 		.4byte	0x500
 1129 0581 13       		.uleb128 0x13
 1130 0582 10       		.byte	0x10
 1131 0583 09       		.byte	0x9
 1132 0584 51       		.byte	0x51
 1133 0585 BA050000 		.4byte	0x5ba
 1134 0589 06       		.uleb128 0x6
 1135 058a 14000000 		.4byte	.LASF94
 1136 058e 09       		.byte	0x9
 1137 058f 55       		.byte	0x55
 1138 0590 52010000 		.4byte	0x152
 1139 0594 00       		.byte	0
 1140 0595 06       		.uleb128 0x6
 1141 0596 7B010000 		.4byte	.LASF95
 1142 059a 09       		.byte	0x9
 1143 059b 59       		.byte	0x59
 1144 059c 79020000 		.4byte	0x279
 1145 05a0 04       		.byte	0x4
 1146 05a1 06       		.uleb128 0x6
 1147 05a2 04070000 		.4byte	.LASF96
 1148 05a6 09       		.byte	0x9
 1149 05a7 5D       		.byte	0x5d
 1150 05a8 56030000 		.4byte	0x356
 1151 05ac 08       		.byte	0x8
 1152 05ad 06       		.uleb128 0x6
 1153 05ae D1000000 		.4byte	.LASF97
 1154 05b2 09       		.byte	0x9
 1155 05b3 61       		.byte	0x61
 1156 05b4 A2000000 		.4byte	0xa2
 1157 05b8 0C       		.byte	0xc
 1158 05b9 00       		.byte	0
 1159 05ba 04       		.uleb128 0x4
 1160 05bb 97030000 		.4byte	.LASF98
 1161 05bf 09       		.byte	0x9
 1162 05c0 62       		.byte	0x62
 1163 05c1 81050000 		.4byte	0x581
 1164 05c5 14       		.uleb128 0x14
 1165 05c6 0804     		.2byte	0x408
 1166 05c8 09       		.byte	0x9
 1167 05c9 67       		.byte	0x67
 1168 05ca F3050000 		.4byte	0x5f3
 1169 05ce 06       		.uleb128 0x6
 1170 05cf 9A010000 		.4byte	.LASF99
 1171 05d3 09       		.byte	0x9
 1172 05d4 6B       		.byte	0x6b
 1173 05d5 2C000000 		.4byte	0x2c
 1174 05d9 00       		.byte	0
 1175 05da 06       		.uleb128 0x6
 1176 05db 00000000 		.4byte	.LASF100
 1177 05df 09       		.byte	0x9
 1178 05e0 6F       		.byte	0x6f
 1179 05e1 F3050000 		.4byte	0x5f3
 1180 05e5 04       		.byte	0x4
 1181 05e6 06       		.uleb128 0x6
ARM GAS  /tmp/ccpYqLvB.s 			page 36


 1182 05e7 15040000 		.4byte	.LASF101
 1183 05eb 09       		.byte	0x9
 1184 05ec 73       		.byte	0x73
 1185 05ed F9050000 		.4byte	0x5f9
 1186 05f1 08       		.byte	0x8
 1187 05f2 00       		.byte	0
 1188 05f3 09       		.uleb128 0x9
 1189 05f4 04       		.byte	0x4
 1190 05f5 BA050000 		.4byte	0x5ba
 1191 05f9 15       		.uleb128 0x15
 1192 05fa BA050000 		.4byte	0x5ba
 1193 05fe 09060000 		.4byte	0x609
 1194 0602 16       		.uleb128 0x16
 1195 0603 C5040000 		.4byte	0x4c5
 1196 0607 3F       		.byte	0x3f
 1197 0608 00       		.byte	0
 1198 0609 04       		.uleb128 0x4
 1199 060a BF000000 		.4byte	.LASF102
 1200 060e 09       		.byte	0x9
 1201 060f 74       		.byte	0x74
 1202 0610 C5050000 		.4byte	0x5c5
 1203 0614 13       		.uleb128 0x13
 1204 0615 04       		.byte	0x4
 1205 0616 0A       		.byte	0xa
 1206 0617 38       		.byte	0x38
 1207 0618 29060000 		.4byte	0x629
 1208 061c 06       		.uleb128 0x6
 1209 061d 4F060000 		.4byte	.LASF103
 1210 0621 0A       		.byte	0xa
 1211 0622 3C       		.byte	0x3c
 1212 0623 E4000000 		.4byte	0xe4
 1213 0627 00       		.byte	0
 1214 0628 00       		.byte	0
 1215 0629 04       		.uleb128 0x4
 1216 062a C0030000 		.4byte	.LASF104
 1217 062e 0A       		.byte	0xa
 1218 062f 3D       		.byte	0x3d
 1219 0630 14060000 		.4byte	0x614
 1220 0634 13       		.uleb128 0x13
 1221 0635 18       		.byte	0x18
 1222 0636 0A       		.byte	0xa
 1223 0637 48       		.byte	0x48
 1224 0638 77060000 		.4byte	0x677
 1225 063c 06       		.uleb128 0x6
 1226 063d 10060000 		.4byte	.LASF105
 1227 0641 0A       		.byte	0xa
 1228 0642 49       		.byte	0x49
 1229 0643 E4000000 		.4byte	0xe4
 1230 0647 00       		.byte	0
 1231 0648 06       		.uleb128 0x6
 1232 0649 89000000 		.4byte	.LASF106
 1233 064d 0A       		.byte	0xa
 1234 064e 4A       		.byte	0x4a
 1235 064f E4000000 		.4byte	0xe4
 1236 0653 04       		.byte	0x4
 1237 0654 06       		.uleb128 0x6
 1238 0655 80020000 		.4byte	.LASF107
ARM GAS  /tmp/ccpYqLvB.s 			page 37


 1239 0659 0A       		.byte	0xa
 1240 065a 4B       		.byte	0x4b
 1241 065b E4000000 		.4byte	0xe4
 1242 065f 08       		.byte	0x8
 1243 0660 12       		.uleb128 0x12
 1244 0661 6E00     		.ascii	"n\000"
 1245 0663 0A       		.byte	0xa
 1246 0664 4C       		.byte	0x4c
 1247 0665 47010000 		.4byte	0x147
 1248 0669 0C       		.byte	0xc
 1249 066a 06       		.uleb128 0x6
 1250 066b EF030000 		.4byte	.LASF108
 1251 066f 0A       		.byte	0xa
 1252 0670 4D       		.byte	0x4d
 1253 0671 EF000000 		.4byte	0xef
 1254 0675 10       		.byte	0x10
 1255 0676 00       		.byte	0
 1256 0677 04       		.uleb128 0x4
 1257 0678 8F000000 		.4byte	.LASF109
 1258 067c 0A       		.byte	0xa
 1259 067d 4E       		.byte	0x4e
 1260 067e 34060000 		.4byte	0x634
 1261 0682 13       		.uleb128 0x13
 1262 0683 38       		.byte	0x38
 1263 0684 0B       		.byte	0xb
 1264 0685 38       		.byte	0x38
 1265 0686 BB060000 		.4byte	0x6bb
 1266 068a 06       		.uleb128 0x6
 1267 068b 42020000 		.4byte	.LASF110
 1268 068f 0B       		.byte	0xb
 1269 0690 39       		.byte	0x39
 1270 0691 47010000 		.4byte	0x147
 1271 0695 00       		.byte	0
 1272 0696 06       		.uleb128 0x6
 1273 0697 E1040000 		.4byte	.LASF111
 1274 069b 0B       		.byte	0xb
 1275 069c 3A       		.byte	0x3a
 1276 069d 47010000 		.4byte	0x147
 1277 06a1 04       		.byte	0x4
 1278 06a2 06       		.uleb128 0x6
 1279 06a3 F1060000 		.4byte	.LASF112
 1280 06a7 0B       		.byte	0xb
 1281 06a8 3B       		.byte	0x3b
 1282 06a9 77060000 		.4byte	0x677
 1283 06ad 08       		.byte	0x8
 1284 06ae 06       		.uleb128 0x6
 1285 06af 00030000 		.4byte	.LASF113
 1286 06b3 0B       		.byte	0xb
 1287 06b4 3D       		.byte	0x3d
 1288 06b5 77060000 		.4byte	0x677
 1289 06b9 20       		.byte	0x20
 1290 06ba 00       		.byte	0
 1291 06bb 04       		.uleb128 0x4
 1292 06bc 61020000 		.4byte	.LASF114
 1293 06c0 0B       		.byte	0xb
 1294 06c1 3F       		.byte	0x3f
 1295 06c2 82060000 		.4byte	0x682
ARM GAS  /tmp/ccpYqLvB.s 			page 38


 1296 06c6 17       		.uleb128 0x17
 1297 06c7 04       		.byte	0x4
 1298 06c8 06       		.byte	0x6
 1299 06c9 FA       		.byte	0xfa
 1300 06ca 23070000 		.4byte	0x723
 1301 06ce 18       		.uleb128 0x18
 1302 06cf 22000000 		.4byte	.LASF115
 1303 06d3 06       		.byte	0x6
 1304 06d4 0101     		.2byte	0x101
 1305 06d6 26010000 		.4byte	0x126
 1306 06da 18       		.uleb128 0x18
 1307 06db E0000000 		.4byte	.LASF116
 1308 06df 06       		.byte	0x6
 1309 06e0 0801     		.2byte	0x108
 1310 06e2 26010000 		.4byte	0x126
 1311 06e6 18       		.uleb128 0x18
 1312 06e7 B8060000 		.4byte	.LASF117
 1313 06eb 06       		.byte	0x6
 1314 06ec 0F01     		.2byte	0x10f
 1315 06ee 56030000 		.4byte	0x356
 1316 06f2 18       		.uleb128 0x18
 1317 06f3 1C000000 		.4byte	.LASF118
 1318 06f7 06       		.byte	0x6
 1319 06f8 1601     		.2byte	0x116
 1320 06fa 23070000 		.4byte	0x723
 1321 06fe 18       		.uleb128 0x18
 1322 06ff 2B020000 		.4byte	.LASF119
 1323 0703 06       		.byte	0x6
 1324 0704 1E01     		.2byte	0x11e
 1325 0706 4E070000 		.4byte	0x74e
 1326 070a 18       		.uleb128 0x18
 1327 070b 90050000 		.4byte	.LASF120
 1328 070f 06       		.byte	0x6
 1329 0710 2701     		.2byte	0x127
 1330 0712 85070000 		.4byte	0x785
 1331 0716 18       		.uleb128 0x18
 1332 0717 29050000 		.4byte	.LASF121
 1333 071b 06       		.byte	0x6
 1334 071c 2F01     		.2byte	0x12f
 1335 071e 31010000 		.4byte	0x131
 1336 0722 00       		.byte	0
 1337 0723 09       		.uleb128 0x9
 1338 0724 04       		.byte	0x4
 1339 0725 6E020000 		.4byte	0x26e
 1340 0729 05       		.uleb128 0x5
 1341 072a 6F050000 		.4byte	.LASF122
 1342 072e 0C       		.byte	0xc
 1343 072f 0C       		.byte	0xc
 1344 0730 34       		.byte	0x34
 1345 0731 4E070000 		.4byte	0x74e
 1346 0735 06       		.uleb128 0x6
 1347 0736 92010000 		.4byte	.LASF123
 1348 073a 0C       		.byte	0xc
 1349 073b 35       		.byte	0x35
 1350 073c A3020000 		.4byte	0x2a3
 1351 0740 00       		.byte	0
 1352 0741 06       		.uleb128 0x6
ARM GAS  /tmp/ccpYqLvB.s 			page 39


 1353 0742 48020000 		.4byte	.LASF124
 1354 0746 0C       		.byte	0xc
 1355 0747 37       		.byte	0x37
 1356 0748 3C010000 		.4byte	0x13c
 1357 074c 08       		.byte	0x8
 1358 074d 00       		.byte	0
 1359 074e 09       		.uleb128 0x9
 1360 074f 04       		.byte	0x4
 1361 0750 29070000 		.4byte	0x729
 1362 0754 05       		.uleb128 0x5
 1363 0755 94060000 		.4byte	.LASF125
 1364 0759 10       		.byte	0x10
 1365 075a 0D       		.byte	0xd
 1366 075b 39       		.byte	0x39
 1367 075c 85070000 		.4byte	0x785
 1368 0760 06       		.uleb128 0x6
 1369 0761 4E010000 		.4byte	.LASF126
 1370 0765 0D       		.byte	0xd
 1371 0766 3A       		.byte	0x3a
 1372 0767 A3020000 		.4byte	0x2a3
 1373 076b 00       		.byte	0
 1374 076c 06       		.uleb128 0x6
 1375 076d FC060000 		.4byte	.LASF127
 1376 0771 0D       		.byte	0xd
 1377 0772 3C       		.byte	0x3c
 1378 0773 79020000 		.4byte	0x279
 1379 0777 08       		.byte	0x8
 1380 0778 06       		.uleb128 0x6
 1381 0779 15060000 		.4byte	.LASF128
 1382 077d 0D       		.byte	0xd
 1383 077e 3E       		.byte	0x3e
 1384 077f C9070000 		.4byte	0x7c9
 1385 0783 0C       		.byte	0xc
 1386 0784 00       		.byte	0
 1387 0785 09       		.uleb128 0x9
 1388 0786 04       		.byte	0x4
 1389 0787 54070000 		.4byte	0x754
 1390 078b 09       		.uleb128 0x9
 1391 078c 04       		.byte	0x4
 1392 078d 91070000 		.4byte	0x791
 1393 0791 19       		.uleb128 0x19
 1394 0792 96070000 		.4byte	0x796
 1395 0796 03       		.uleb128 0x3
 1396 0797 01       		.byte	0x1
 1397 0798 08       		.byte	0x8
 1398 0799 CA050000 		.4byte	.LASF129
 1399 079d 09       		.uleb128 0x9
 1400 079e 04       		.byte	0x4
 1401 079f DC040000 		.4byte	0x4dc
 1402 07a3 09       		.uleb128 0x9
 1403 07a4 04       		.byte	0x4
 1404 07a5 58030000 		.4byte	0x358
 1405 07a9 11       		.uleb128 0x11
 1406 07aa 8B070000 		.4byte	0x78b
 1407 07ae 15       		.uleb128 0x15
 1408 07af DC040000 		.4byte	0x4dc
 1409 07b3 BE070000 		.4byte	0x7be
ARM GAS  /tmp/ccpYqLvB.s 			page 40


 1410 07b7 16       		.uleb128 0x16
 1411 07b8 C5040000 		.4byte	0x4c5
 1412 07bc 1E       		.byte	0x1e
 1413 07bd 00       		.byte	0
 1414 07be 04       		.uleb128 0x4
 1415 07bf EE010000 		.4byte	.LASF130
 1416 07c3 0D       		.byte	0xd
 1417 07c4 34       		.byte	0x34
 1418 07c5 54070000 		.4byte	0x754
 1419 07c9 09       		.uleb128 0x9
 1420 07ca 04       		.byte	0x4
 1421 07cb BE070000 		.4byte	0x7be
 1422 07cf 03       		.uleb128 0x3
 1423 07d0 01       		.byte	0x1
 1424 07d1 02       		.byte	0x2
 1425 07d2 EA040000 		.4byte	.LASF131
 1426 07d6 13       		.uleb128 0x13
 1427 07d7 04       		.byte	0x4
 1428 07d8 0E       		.byte	0xe
 1429 07d9 E7       		.byte	0xe7
 1430 07da F7070000 		.4byte	0x7f7
 1431 07de 12       		.uleb128 0x12
 1432 07df 73657400 		.ascii	"set\000"
 1433 07e3 0E       		.byte	0xe
 1434 07e4 E8       		.byte	0xe8
 1435 07e5 AD000000 		.4byte	0xad
 1436 07e9 00       		.byte	0
 1437 07ea 06       		.uleb128 0x6
 1438 07eb 91030000 		.4byte	.LASF132
 1439 07ef 0E       		.byte	0xe
 1440 07f0 E9       		.byte	0xe9
 1441 07f1 AD000000 		.4byte	0xad
 1442 07f5 02       		.byte	0x2
 1443 07f6 00       		.byte	0
 1444 07f7 17       		.uleb128 0x17
 1445 07f8 04       		.byte	0x4
 1446 07f9 0E       		.byte	0xe
 1447 07fa E5       		.byte	0xe5
 1448 07fb 12080000 		.4byte	0x812
 1449 07ff 1A       		.uleb128 0x1a
 1450 0800 5700     		.ascii	"W\000"
 1451 0802 0E       		.byte	0xe
 1452 0803 E6       		.byte	0xe6
 1453 0804 C3000000 		.4byte	0xc3
 1454 0808 1A       		.uleb128 0x1a
 1455 0809 4800     		.ascii	"H\000"
 1456 080b 0E       		.byte	0xe
 1457 080c EA       		.byte	0xea
 1458 080d D6070000 		.4byte	0x7d6
 1459 0811 00       		.byte	0
 1460 0812 13       		.uleb128 0x13
 1461 0813 2C       		.byte	0x2c
 1462 0814 0E       		.byte	0xe
 1463 0815 DD       		.byte	0xdd
 1464 0816 9F080000 		.4byte	0x89f
 1465 081a 06       		.uleb128 0x6
 1466 081b A2000000 		.4byte	.LASF133
ARM GAS  /tmp/ccpYqLvB.s 			page 41


 1467 081f 0E       		.byte	0xe
 1468 0820 DF       		.byte	0xdf
 1469 0821 CC040000 		.4byte	0x4cc
 1470 0825 00       		.byte	0
 1471 0826 06       		.uleb128 0x6
 1472 0827 49000000 		.4byte	.LASF134
 1473 082b 0E       		.byte	0xe
 1474 082c E0       		.byte	0xe0
 1475 082d CC040000 		.4byte	0x4cc
 1476 0831 04       		.byte	0x4
 1477 0832 06       		.uleb128 0x6
 1478 0833 A2010000 		.4byte	.LASF135
 1479 0837 0E       		.byte	0xe
 1480 0838 E1       		.byte	0xe1
 1481 0839 CC040000 		.4byte	0x4cc
 1482 083d 08       		.byte	0x8
 1483 083e 06       		.uleb128 0x6
 1484 083f DA000000 		.4byte	.LASF136
 1485 0843 0E       		.byte	0xe
 1486 0844 E2       		.byte	0xe2
 1487 0845 CC040000 		.4byte	0x4cc
 1488 0849 0C       		.byte	0xc
 1489 084a 12       		.uleb128 0x12
 1490 084b 49445200 		.ascii	"IDR\000"
 1491 084f 0E       		.byte	0xe
 1492 0850 E3       		.byte	0xe3
 1493 0851 CC040000 		.4byte	0x4cc
 1494 0855 10       		.byte	0x10
 1495 0856 12       		.uleb128 0x12
 1496 0857 4F445200 		.ascii	"ODR\000"
 1497 085b 0E       		.byte	0xe
 1498 085c E4       		.byte	0xe4
 1499 085d CC040000 		.4byte	0x4cc
 1500 0861 14       		.byte	0x14
 1501 0862 06       		.uleb128 0x6
 1502 0863 41010000 		.4byte	.LASF137
 1503 0867 0E       		.byte	0xe
 1504 0868 EB       		.byte	0xeb
 1505 0869 9F080000 		.4byte	0x89f
 1506 086d 18       		.byte	0x18
 1507 086e 06       		.uleb128 0x6
 1508 086f 3D020000 		.4byte	.LASF138
 1509 0873 0E       		.byte	0xe
 1510 0874 EC       		.byte	0xec
 1511 0875 CC040000 		.4byte	0x4cc
 1512 0879 1C       		.byte	0x1c
 1513 087a 06       		.uleb128 0x6
 1514 087b 08040000 		.4byte	.LASF139
 1515 087f 0E       		.byte	0xe
 1516 0880 ED       		.byte	0xed
 1517 0881 CC040000 		.4byte	0x4cc
 1518 0885 20       		.byte	0x20
 1519 0886 06       		.uleb128 0x6
 1520 0887 EA030000 		.4byte	.LASF140
 1521 088b 0E       		.byte	0xe
 1522 088c EE       		.byte	0xee
 1523 088d CC040000 		.4byte	0x4cc
ARM GAS  /tmp/ccpYqLvB.s 			page 42


 1524 0891 24       		.byte	0x24
 1525 0892 12       		.uleb128 0x12
 1526 0893 42525200 		.ascii	"BRR\000"
 1527 0897 0E       		.byte	0xe
 1528 0898 EF       		.byte	0xef
 1529 0899 CC040000 		.4byte	0x4cc
 1530 089d 28       		.byte	0x28
 1531 089e 00       		.byte	0
 1532 089f 11       		.uleb128 0x11
 1533 08a0 F7070000 		.4byte	0x7f7
 1534 08a4 04       		.uleb128 0x4
 1535 08a5 E1010000 		.4byte	.LASF141
 1536 08a9 0E       		.byte	0xe
 1537 08aa F0       		.byte	0xf0
 1538 08ab 12080000 		.4byte	0x812
 1539 08af 1B       		.uleb128 0x1b
 1540 08b0 7C000000 		.4byte	.LASF142
 1541 08b4 0E       		.byte	0xe
 1542 08b5 3F01     		.2byte	0x13f
 1543 08b7 C3000000 		.4byte	0xc3
 1544 08bb 1B       		.uleb128 0x1b
 1545 08bc E8060000 		.4byte	.LASF143
 1546 08c0 0E       		.byte	0xe
 1547 08c1 4401     		.2byte	0x144
 1548 08c3 C3000000 		.4byte	0xc3
 1549 08c7 1B       		.uleb128 0x1b
 1550 08c8 56060000 		.4byte	.LASF144
 1551 08cc 0E       		.byte	0xe
 1552 08cd 5101     		.2byte	0x151
 1553 08cf D3080000 		.4byte	0x8d3
 1554 08d3 09       		.uleb128 0x9
 1555 08d4 04       		.byte	0x4
 1556 08d5 A4080000 		.4byte	0x8a4
 1557 08d9 13       		.uleb128 0x13
 1558 08da 0C       		.byte	0xc
 1559 08db 0F       		.byte	0xf
 1560 08dc 7A       		.byte	0x7a
 1561 08dd 06090000 		.4byte	0x906
 1562 08e1 06       		.uleb128 0x6
 1563 08e2 E3030000 		.4byte	.LASF145
 1564 08e6 0F       		.byte	0xf
 1565 08e7 7E       		.byte	0x7e
 1566 08e8 C7080000 		.4byte	0x8c7
 1567 08ec 00       		.byte	0
 1568 08ed 06       		.uleb128 0x6
 1569 08ee 9D060000 		.4byte	.LASF146
 1570 08f2 0F       		.byte	0xf
 1571 08f3 84       		.byte	0x84
 1572 08f4 AF080000 		.4byte	0x8af
 1573 08f8 04       		.byte	0x4
 1574 08f9 06       		.uleb128 0x6
 1575 08fa 4F060000 		.4byte	.LASF103
 1576 08fe 0F       		.byte	0xf
 1577 08ff 88       		.byte	0x88
 1578 0900 D9000000 		.4byte	0xd9
 1579 0904 08       		.byte	0x8
 1580 0905 00       		.byte	0
ARM GAS  /tmp/ccpYqLvB.s 			page 43


 1581 0906 04       		.uleb128 0x4
 1582 0907 FF010000 		.4byte	.LASF147
 1583 090b 0F       		.byte	0xf
 1584 090c 89       		.byte	0x89
 1585 090d D9080000 		.4byte	0x8d9
 1586 0911 1C       		.uleb128 0x1c
 1587 0912 F1050000 		.4byte	.LASF159
 1588 0916 01       		.byte	0x1
 1589 0917 41       		.byte	0x41
 1590 0918 AF080000 		.4byte	0x8af
 1591 091c 00000000 		.4byte	.LFB272
 1592 0920 3A000000 		.4byte	.LFE272-.LFB272
 1593 0924 01       		.uleb128 0x1
 1594 0925 9C       		.byte	0x9c
 1595 0926 48090000 		.4byte	0x948
 1596 092a 1D       		.uleb128 0x1d
 1597 092b 62757300 		.ascii	"bus\000"
 1598 092f 01       		.byte	0x1
 1599 0930 41       		.byte	0x41
 1600 0931 48090000 		.4byte	0x948
 1601 0935 02       		.uleb128 0x2
 1602 0936 91       		.byte	0x91
 1603 0937 74       		.sleb128 -12
 1604 0938 1E       		.uleb128 0x1e
 1605 0939 D0020000 		.4byte	.LASF149
 1606 093d 5E090000 		.4byte	0x95e
 1607 0941 05       		.uleb128 0x5
 1608 0942 03       		.byte	0x3
 1609 0943 00000000 		.4byte	__func__.7424
 1610 0947 00       		.byte	0
 1611 0948 09       		.uleb128 0x9
 1612 0949 04       		.byte	0x4
 1613 094a 06090000 		.4byte	0x906
 1614 094e 15       		.uleb128 0x15
 1615 094f 96070000 		.4byte	0x796
 1616 0953 5E090000 		.4byte	0x95e
 1617 0957 16       		.uleb128 0x16
 1618 0958 C5040000 		.4byte	0x4c5
 1619 095c 0A       		.byte	0xa
 1620 095d 00       		.byte	0
 1621 095e 19       		.uleb128 0x19
 1622 095f 4E090000 		.4byte	0x94e
 1623 0963 1F       		.uleb128 0x1f
 1624 0964 78060000 		.4byte	.LASF151
 1625 0968 01       		.byte	0x1
 1626 0969 5A       		.byte	0x5a
 1627 096a 00000000 		.4byte	.LFB273
 1628 096e 52000000 		.4byte	.LFE273-.LFB273
 1629 0972 01       		.uleb128 0x1
 1630 0973 9C       		.byte	0x9c
 1631 0974 A4090000 		.4byte	0x9a4
 1632 0978 1D       		.uleb128 0x1d
 1633 0979 62757300 		.ascii	"bus\000"
 1634 097d 01       		.byte	0x1
 1635 097e 5A       		.byte	0x5a
 1636 097f 48090000 		.4byte	0x948
 1637 0983 02       		.uleb128 0x2
ARM GAS  /tmp/ccpYqLvB.s 			page 44


 1638 0984 91       		.byte	0x91
 1639 0985 74       		.sleb128 -12
 1640 0986 20       		.uleb128 0x20
 1641 0987 5D010000 		.4byte	.LASF148
 1642 098b 01       		.byte	0x1
 1643 098c 5A       		.byte	0x5a
 1644 098d AF080000 		.4byte	0x8af
 1645 0991 02       		.uleb128 0x2
 1646 0992 91       		.byte	0x91
 1647 0993 70       		.sleb128 -16
 1648 0994 1E       		.uleb128 0x1e
 1649 0995 EA020000 		.4byte	.LASF150
 1650 0999 B4090000 		.4byte	0x9b4
 1651 099d 05       		.uleb128 0x5
 1652 099e 03       		.byte	0x3
 1653 099f 00000000 		.4byte	__func__.7429
 1654 09a3 00       		.byte	0
 1655 09a4 15       		.uleb128 0x15
 1656 09a5 96070000 		.4byte	0x796
 1657 09a9 B4090000 		.4byte	0x9b4
 1658 09ad 16       		.uleb128 0x16
 1659 09ae C5040000 		.4byte	0x4c5
 1660 09b2 0B       		.byte	0xb
 1661 09b3 00       		.byte	0
 1662 09b4 19       		.uleb128 0x19
 1663 09b5 A4090000 		.4byte	0x9a4
 1664 09b9 1F       		.uleb128 0x1f
 1665 09ba FA030000 		.4byte	.LASF152
 1666 09be 01       		.byte	0x1
 1667 09bf 71       		.byte	0x71
 1668 09c0 00000000 		.4byte	.LFB274
 1669 09c4 42000000 		.4byte	.LFE274-.LFB274
 1670 09c8 01       		.uleb128 0x1
 1671 09c9 9C       		.byte	0x9c
 1672 09ca FA090000 		.4byte	0x9fa
 1673 09ce 1D       		.uleb128 0x1d
 1674 09cf 62757300 		.ascii	"bus\000"
 1675 09d3 01       		.byte	0x1
 1676 09d4 71       		.byte	0x71
 1677 09d5 48090000 		.4byte	0x948
 1678 09d9 02       		.uleb128 0x2
 1679 09da 91       		.byte	0x91
 1680 09db 74       		.sleb128 -12
 1681 09dc 20       		.uleb128 0x20
 1682 09dd EC050000 		.4byte	.LASF153
 1683 09e1 01       		.byte	0x1
 1684 09e2 71       		.byte	0x71
 1685 09e3 BB080000 		.4byte	0x8bb
 1686 09e7 02       		.uleb128 0x2
 1687 09e8 91       		.byte	0x91
 1688 09e9 70       		.sleb128 -16
 1689 09ea 1E       		.uleb128 0x1e
 1690 09eb B2010000 		.4byte	.LASF154
 1691 09ef 0A0A0000 		.4byte	0xa0a
 1692 09f3 05       		.uleb128 0x5
 1693 09f4 03       		.byte	0x3
 1694 09f5 00000000 		.4byte	__func__.7434
ARM GAS  /tmp/ccpYqLvB.s 			page 45


 1695 09f9 00       		.byte	0
 1696 09fa 15       		.uleb128 0x15
 1697 09fb 96070000 		.4byte	0x796
 1698 09ff 0A0A0000 		.4byte	0xa0a
 1699 0a03 16       		.uleb128 0x16
 1700 0a04 C5040000 		.4byte	0x4c5
 1701 0a08 0D       		.byte	0xd
 1702 0a09 00       		.byte	0
 1703 0a0a 19       		.uleb128 0x19
 1704 0a0b FA090000 		.4byte	0x9fa
 1705 0a0f 21       		.uleb128 0x21
 1706 0a10 0A010000 		.4byte	.LASF155
 1707 0a14 10       		.byte	0x10
 1708 0a15 FA06     		.2byte	0x6fa
 1709 0a17 1B0A0000 		.4byte	0xa1b
 1710 0a1b 11       		.uleb128 0x11
 1711 0a1c B8000000 		.4byte	0xb8
 1712 0a20 22       		.uleb128 0x22
 1713 0a21 636800   		.ascii	"ch\000"
 1714 0a24 06       		.byte	0x6
 1715 0a25 0902     		.2byte	0x209
 1716 0a27 4D040000 		.4byte	0x44d
 1717 0a2b 00       		.byte	0
 1718              		.section	.debug_abbrev,"",%progbits
 1719              	.Ldebug_abbrev0:
 1720 0000 01       		.uleb128 0x1
 1721 0001 11       		.uleb128 0x11
 1722 0002 01       		.byte	0x1
 1723 0003 25       		.uleb128 0x25
 1724 0004 0E       		.uleb128 0xe
 1725 0005 13       		.uleb128 0x13
 1726 0006 0B       		.uleb128 0xb
 1727 0007 03       		.uleb128 0x3
 1728 0008 0E       		.uleb128 0xe
 1729 0009 1B       		.uleb128 0x1b
 1730 000a 0E       		.uleb128 0xe
 1731 000b 55       		.uleb128 0x55
 1732 000c 17       		.uleb128 0x17
 1733 000d 11       		.uleb128 0x11
 1734 000e 01       		.uleb128 0x1
 1735 000f 10       		.uleb128 0x10
 1736 0010 17       		.uleb128 0x17
 1737 0011 00       		.byte	0
 1738 0012 00       		.byte	0
 1739 0013 02       		.uleb128 0x2
 1740 0014 24       		.uleb128 0x24
 1741 0015 00       		.byte	0
 1742 0016 0B       		.uleb128 0xb
 1743 0017 0B       		.uleb128 0xb
 1744 0018 3E       		.uleb128 0x3e
 1745 0019 0B       		.uleb128 0xb
 1746 001a 03       		.uleb128 0x3
 1747 001b 08       		.uleb128 0x8
 1748 001c 00       		.byte	0
 1749 001d 00       		.byte	0
 1750 001e 03       		.uleb128 0x3
 1751 001f 24       		.uleb128 0x24
ARM GAS  /tmp/ccpYqLvB.s 			page 46


 1752 0020 00       		.byte	0
 1753 0021 0B       		.uleb128 0xb
 1754 0022 0B       		.uleb128 0xb
 1755 0023 3E       		.uleb128 0x3e
 1756 0024 0B       		.uleb128 0xb
 1757 0025 03       		.uleb128 0x3
 1758 0026 0E       		.uleb128 0xe
 1759 0027 00       		.byte	0
 1760 0028 00       		.byte	0
 1761 0029 04       		.uleb128 0x4
 1762 002a 16       		.uleb128 0x16
 1763 002b 00       		.byte	0
 1764 002c 03       		.uleb128 0x3
 1765 002d 0E       		.uleb128 0xe
 1766 002e 3A       		.uleb128 0x3a
 1767 002f 0B       		.uleb128 0xb
 1768 0030 3B       		.uleb128 0x3b
 1769 0031 0B       		.uleb128 0xb
 1770 0032 49       		.uleb128 0x49
 1771 0033 13       		.uleb128 0x13
 1772 0034 00       		.byte	0
 1773 0035 00       		.byte	0
 1774 0036 05       		.uleb128 0x5
 1775 0037 13       		.uleb128 0x13
 1776 0038 01       		.byte	0x1
 1777 0039 03       		.uleb128 0x3
 1778 003a 0E       		.uleb128 0xe
 1779 003b 0B       		.uleb128 0xb
 1780 003c 0B       		.uleb128 0xb
 1781 003d 3A       		.uleb128 0x3a
 1782 003e 0B       		.uleb128 0xb
 1783 003f 3B       		.uleb128 0x3b
 1784 0040 0B       		.uleb128 0xb
 1785 0041 01       		.uleb128 0x1
 1786 0042 13       		.uleb128 0x13
 1787 0043 00       		.byte	0
 1788 0044 00       		.byte	0
 1789 0045 06       		.uleb128 0x6
 1790 0046 0D       		.uleb128 0xd
 1791 0047 00       		.byte	0
 1792 0048 03       		.uleb128 0x3
 1793 0049 0E       		.uleb128 0xe
 1794 004a 3A       		.uleb128 0x3a
 1795 004b 0B       		.uleb128 0xb
 1796 004c 3B       		.uleb128 0x3b
 1797 004d 0B       		.uleb128 0xb
 1798 004e 49       		.uleb128 0x49
 1799 004f 13       		.uleb128 0x13
 1800 0050 38       		.uleb128 0x38
 1801 0051 0B       		.uleb128 0xb
 1802 0052 00       		.byte	0
 1803 0053 00       		.byte	0
 1804 0054 07       		.uleb128 0x7
 1805 0055 0D       		.uleb128 0xd
 1806 0056 00       		.byte	0
 1807 0057 03       		.uleb128 0x3
 1808 0058 08       		.uleb128 0x8
ARM GAS  /tmp/ccpYqLvB.s 			page 47


 1809 0059 3A       		.uleb128 0x3a
 1810 005a 0B       		.uleb128 0xb
 1811 005b 3B       		.uleb128 0x3b
 1812 005c 05       		.uleb128 0x5
 1813 005d 49       		.uleb128 0x49
 1814 005e 13       		.uleb128 0x13
 1815 005f 38       		.uleb128 0x38
 1816 0060 0B       		.uleb128 0xb
 1817 0061 00       		.byte	0
 1818 0062 00       		.byte	0
 1819 0063 08       		.uleb128 0x8
 1820 0064 0D       		.uleb128 0xd
 1821 0065 00       		.byte	0
 1822 0066 03       		.uleb128 0x3
 1823 0067 0E       		.uleb128 0xe
 1824 0068 3A       		.uleb128 0x3a
 1825 0069 0B       		.uleb128 0xb
 1826 006a 3B       		.uleb128 0x3b
 1827 006b 05       		.uleb128 0x5
 1828 006c 49       		.uleb128 0x49
 1829 006d 13       		.uleb128 0x13
 1830 006e 38       		.uleb128 0x38
 1831 006f 0B       		.uleb128 0xb
 1832 0070 00       		.byte	0
 1833 0071 00       		.byte	0
 1834 0072 09       		.uleb128 0x9
 1835 0073 0F       		.uleb128 0xf
 1836 0074 00       		.byte	0
 1837 0075 0B       		.uleb128 0xb
 1838 0076 0B       		.uleb128 0xb
 1839 0077 49       		.uleb128 0x49
 1840 0078 13       		.uleb128 0x13
 1841 0079 00       		.byte	0
 1842 007a 00       		.byte	0
 1843 007b 0A       		.uleb128 0xa
 1844 007c 13       		.uleb128 0x13
 1845 007d 01       		.byte	0x1
 1846 007e 03       		.uleb128 0x3
 1847 007f 0E       		.uleb128 0xe
 1848 0080 0B       		.uleb128 0xb
 1849 0081 0B       		.uleb128 0xb
 1850 0082 3A       		.uleb128 0x3a
 1851 0083 0B       		.uleb128 0xb
 1852 0084 3B       		.uleb128 0x3b
 1853 0085 05       		.uleb128 0x5
 1854 0086 01       		.uleb128 0x1
 1855 0087 13       		.uleb128 0x13
 1856 0088 00       		.byte	0
 1857 0089 00       		.byte	0
 1858 008a 0B       		.uleb128 0xb
 1859 008b 15       		.uleb128 0x15
 1860 008c 01       		.byte	0x1
 1861 008d 27       		.uleb128 0x27
 1862 008e 19       		.uleb128 0x19
 1863 008f 01       		.uleb128 0x1
 1864 0090 13       		.uleb128 0x13
 1865 0091 00       		.byte	0
ARM GAS  /tmp/ccpYqLvB.s 			page 48


 1866 0092 00       		.byte	0
 1867 0093 0C       		.uleb128 0xc
 1868 0094 05       		.uleb128 0x5
 1869 0095 00       		.byte	0
 1870 0096 49       		.uleb128 0x49
 1871 0097 13       		.uleb128 0x13
 1872 0098 00       		.byte	0
 1873 0099 00       		.byte	0
 1874 009a 0D       		.uleb128 0xd
 1875 009b 0F       		.uleb128 0xf
 1876 009c 00       		.byte	0
 1877 009d 0B       		.uleb128 0xb
 1878 009e 0B       		.uleb128 0xb
 1879 009f 00       		.byte	0
 1880 00a0 00       		.byte	0
 1881 00a1 0E       		.uleb128 0xe
 1882 00a2 13       		.uleb128 0x13
 1883 00a3 01       		.byte	0x1
 1884 00a4 03       		.uleb128 0x3
 1885 00a5 0E       		.uleb128 0xe
 1886 00a6 0B       		.uleb128 0xb
 1887 00a7 05       		.uleb128 0x5
 1888 00a8 3A       		.uleb128 0x3a
 1889 00a9 0B       		.uleb128 0xb
 1890 00aa 3B       		.uleb128 0x3b
 1891 00ab 05       		.uleb128 0x5
 1892 00ac 01       		.uleb128 0x1
 1893 00ad 13       		.uleb128 0x13
 1894 00ae 00       		.byte	0
 1895 00af 00       		.byte	0
 1896 00b0 0F       		.uleb128 0xf
 1897 00b1 0D       		.uleb128 0xd
 1898 00b2 00       		.byte	0
 1899 00b3 03       		.uleb128 0x3
 1900 00b4 0E       		.uleb128 0xe
 1901 00b5 3A       		.uleb128 0x3a
 1902 00b6 0B       		.uleb128 0xb
 1903 00b7 3B       		.uleb128 0x3b
 1904 00b8 05       		.uleb128 0x5
 1905 00b9 49       		.uleb128 0x49
 1906 00ba 13       		.uleb128 0x13
 1907 00bb 38       		.uleb128 0x38
 1908 00bc 05       		.uleb128 0x5
 1909 00bd 00       		.byte	0
 1910 00be 00       		.byte	0
 1911 00bf 10       		.uleb128 0x10
 1912 00c0 0D       		.uleb128 0xd
 1913 00c1 00       		.byte	0
 1914 00c2 03       		.uleb128 0x3
 1915 00c3 08       		.uleb128 0x8
 1916 00c4 3A       		.uleb128 0x3a
 1917 00c5 0B       		.uleb128 0xb
 1918 00c6 3B       		.uleb128 0x3b
 1919 00c7 05       		.uleb128 0x5
 1920 00c8 49       		.uleb128 0x49
 1921 00c9 13       		.uleb128 0x13
 1922 00ca 38       		.uleb128 0x38
ARM GAS  /tmp/ccpYqLvB.s 			page 49


 1923 00cb 05       		.uleb128 0x5
 1924 00cc 00       		.byte	0
 1925 00cd 00       		.byte	0
 1926 00ce 11       		.uleb128 0x11
 1927 00cf 35       		.uleb128 0x35
 1928 00d0 00       		.byte	0
 1929 00d1 49       		.uleb128 0x49
 1930 00d2 13       		.uleb128 0x13
 1931 00d3 00       		.byte	0
 1932 00d4 00       		.byte	0
 1933 00d5 12       		.uleb128 0x12
 1934 00d6 0D       		.uleb128 0xd
 1935 00d7 00       		.byte	0
 1936 00d8 03       		.uleb128 0x3
 1937 00d9 08       		.uleb128 0x8
 1938 00da 3A       		.uleb128 0x3a
 1939 00db 0B       		.uleb128 0xb
 1940 00dc 3B       		.uleb128 0x3b
 1941 00dd 0B       		.uleb128 0xb
 1942 00de 49       		.uleb128 0x49
 1943 00df 13       		.uleb128 0x13
 1944 00e0 38       		.uleb128 0x38
 1945 00e1 0B       		.uleb128 0xb
 1946 00e2 00       		.byte	0
 1947 00e3 00       		.byte	0
 1948 00e4 13       		.uleb128 0x13
 1949 00e5 13       		.uleb128 0x13
 1950 00e6 01       		.byte	0x1
 1951 00e7 0B       		.uleb128 0xb
 1952 00e8 0B       		.uleb128 0xb
 1953 00e9 3A       		.uleb128 0x3a
 1954 00ea 0B       		.uleb128 0xb
 1955 00eb 3B       		.uleb128 0x3b
 1956 00ec 0B       		.uleb128 0xb
 1957 00ed 01       		.uleb128 0x1
 1958 00ee 13       		.uleb128 0x13
 1959 00ef 00       		.byte	0
 1960 00f0 00       		.byte	0
 1961 00f1 14       		.uleb128 0x14
 1962 00f2 13       		.uleb128 0x13
 1963 00f3 01       		.byte	0x1
 1964 00f4 0B       		.uleb128 0xb
 1965 00f5 05       		.uleb128 0x5
 1966 00f6 3A       		.uleb128 0x3a
 1967 00f7 0B       		.uleb128 0xb
 1968 00f8 3B       		.uleb128 0x3b
 1969 00f9 0B       		.uleb128 0xb
 1970 00fa 01       		.uleb128 0x1
 1971 00fb 13       		.uleb128 0x13
 1972 00fc 00       		.byte	0
 1973 00fd 00       		.byte	0
 1974 00fe 15       		.uleb128 0x15
 1975 00ff 01       		.uleb128 0x1
 1976 0100 01       		.byte	0x1
 1977 0101 49       		.uleb128 0x49
 1978 0102 13       		.uleb128 0x13
 1979 0103 01       		.uleb128 0x1
ARM GAS  /tmp/ccpYqLvB.s 			page 50


 1980 0104 13       		.uleb128 0x13
 1981 0105 00       		.byte	0
 1982 0106 00       		.byte	0
 1983 0107 16       		.uleb128 0x16
 1984 0108 21       		.uleb128 0x21
 1985 0109 00       		.byte	0
 1986 010a 49       		.uleb128 0x49
 1987 010b 13       		.uleb128 0x13
 1988 010c 2F       		.uleb128 0x2f
 1989 010d 0B       		.uleb128 0xb
 1990 010e 00       		.byte	0
 1991 010f 00       		.byte	0
 1992 0110 17       		.uleb128 0x17
 1993 0111 17       		.uleb128 0x17
 1994 0112 01       		.byte	0x1
 1995 0113 0B       		.uleb128 0xb
 1996 0114 0B       		.uleb128 0xb
 1997 0115 3A       		.uleb128 0x3a
 1998 0116 0B       		.uleb128 0xb
 1999 0117 3B       		.uleb128 0x3b
 2000 0118 0B       		.uleb128 0xb
 2001 0119 01       		.uleb128 0x1
 2002 011a 13       		.uleb128 0x13
 2003 011b 00       		.byte	0
 2004 011c 00       		.byte	0
 2005 011d 18       		.uleb128 0x18
 2006 011e 0D       		.uleb128 0xd
 2007 011f 00       		.byte	0
 2008 0120 03       		.uleb128 0x3
 2009 0121 0E       		.uleb128 0xe
 2010 0122 3A       		.uleb128 0x3a
 2011 0123 0B       		.uleb128 0xb
 2012 0124 3B       		.uleb128 0x3b
 2013 0125 05       		.uleb128 0x5
 2014 0126 49       		.uleb128 0x49
 2015 0127 13       		.uleb128 0x13
 2016 0128 00       		.byte	0
 2017 0129 00       		.byte	0
 2018 012a 19       		.uleb128 0x19
 2019 012b 26       		.uleb128 0x26
 2020 012c 00       		.byte	0
 2021 012d 49       		.uleb128 0x49
 2022 012e 13       		.uleb128 0x13
 2023 012f 00       		.byte	0
 2024 0130 00       		.byte	0
 2025 0131 1A       		.uleb128 0x1a
 2026 0132 0D       		.uleb128 0xd
 2027 0133 00       		.byte	0
 2028 0134 03       		.uleb128 0x3
 2029 0135 08       		.uleb128 0x8
 2030 0136 3A       		.uleb128 0x3a
 2031 0137 0B       		.uleb128 0xb
 2032 0138 3B       		.uleb128 0x3b
 2033 0139 0B       		.uleb128 0xb
 2034 013a 49       		.uleb128 0x49
 2035 013b 13       		.uleb128 0x13
 2036 013c 00       		.byte	0
ARM GAS  /tmp/ccpYqLvB.s 			page 51


 2037 013d 00       		.byte	0
 2038 013e 1B       		.uleb128 0x1b
 2039 013f 16       		.uleb128 0x16
 2040 0140 00       		.byte	0
 2041 0141 03       		.uleb128 0x3
 2042 0142 0E       		.uleb128 0xe
 2043 0143 3A       		.uleb128 0x3a
 2044 0144 0B       		.uleb128 0xb
 2045 0145 3B       		.uleb128 0x3b
 2046 0146 05       		.uleb128 0x5
 2047 0147 49       		.uleb128 0x49
 2048 0148 13       		.uleb128 0x13
 2049 0149 00       		.byte	0
 2050 014a 00       		.byte	0
 2051 014b 1C       		.uleb128 0x1c
 2052 014c 2E       		.uleb128 0x2e
 2053 014d 01       		.byte	0x1
 2054 014e 3F       		.uleb128 0x3f
 2055 014f 19       		.uleb128 0x19
 2056 0150 03       		.uleb128 0x3
 2057 0151 0E       		.uleb128 0xe
 2058 0152 3A       		.uleb128 0x3a
 2059 0153 0B       		.uleb128 0xb
 2060 0154 3B       		.uleb128 0x3b
 2061 0155 0B       		.uleb128 0xb
 2062 0156 27       		.uleb128 0x27
 2063 0157 19       		.uleb128 0x19
 2064 0158 49       		.uleb128 0x49
 2065 0159 13       		.uleb128 0x13
 2066 015a 11       		.uleb128 0x11
 2067 015b 01       		.uleb128 0x1
 2068 015c 12       		.uleb128 0x12
 2069 015d 06       		.uleb128 0x6
 2070 015e 40       		.uleb128 0x40
 2071 015f 18       		.uleb128 0x18
 2072 0160 9642     		.uleb128 0x2116
 2073 0162 19       		.uleb128 0x19
 2074 0163 01       		.uleb128 0x1
 2075 0164 13       		.uleb128 0x13
 2076 0165 00       		.byte	0
 2077 0166 00       		.byte	0
 2078 0167 1D       		.uleb128 0x1d
 2079 0168 05       		.uleb128 0x5
 2080 0169 00       		.byte	0
 2081 016a 03       		.uleb128 0x3
 2082 016b 08       		.uleb128 0x8
 2083 016c 3A       		.uleb128 0x3a
 2084 016d 0B       		.uleb128 0xb
 2085 016e 3B       		.uleb128 0x3b
 2086 016f 0B       		.uleb128 0xb
 2087 0170 49       		.uleb128 0x49
 2088 0171 13       		.uleb128 0x13
 2089 0172 02       		.uleb128 0x2
 2090 0173 18       		.uleb128 0x18
 2091 0174 00       		.byte	0
 2092 0175 00       		.byte	0
 2093 0176 1E       		.uleb128 0x1e
ARM GAS  /tmp/ccpYqLvB.s 			page 52


 2094 0177 34       		.uleb128 0x34
 2095 0178 00       		.byte	0
 2096 0179 03       		.uleb128 0x3
 2097 017a 0E       		.uleb128 0xe
 2098 017b 49       		.uleb128 0x49
 2099 017c 13       		.uleb128 0x13
 2100 017d 34       		.uleb128 0x34
 2101 017e 19       		.uleb128 0x19
 2102 017f 02       		.uleb128 0x2
 2103 0180 18       		.uleb128 0x18
 2104 0181 00       		.byte	0
 2105 0182 00       		.byte	0
 2106 0183 1F       		.uleb128 0x1f
 2107 0184 2E       		.uleb128 0x2e
 2108 0185 01       		.byte	0x1
 2109 0186 3F       		.uleb128 0x3f
 2110 0187 19       		.uleb128 0x19
 2111 0188 03       		.uleb128 0x3
 2112 0189 0E       		.uleb128 0xe
 2113 018a 3A       		.uleb128 0x3a
 2114 018b 0B       		.uleb128 0xb
 2115 018c 3B       		.uleb128 0x3b
 2116 018d 0B       		.uleb128 0xb
 2117 018e 27       		.uleb128 0x27
 2118 018f 19       		.uleb128 0x19
 2119 0190 11       		.uleb128 0x11
 2120 0191 01       		.uleb128 0x1
 2121 0192 12       		.uleb128 0x12
 2122 0193 06       		.uleb128 0x6
 2123 0194 40       		.uleb128 0x40
 2124 0195 18       		.uleb128 0x18
 2125 0196 9642     		.uleb128 0x2116
 2126 0198 19       		.uleb128 0x19
 2127 0199 01       		.uleb128 0x1
 2128 019a 13       		.uleb128 0x13
 2129 019b 00       		.byte	0
 2130 019c 00       		.byte	0
 2131 019d 20       		.uleb128 0x20
 2132 019e 05       		.uleb128 0x5
 2133 019f 00       		.byte	0
 2134 01a0 03       		.uleb128 0x3
 2135 01a1 0E       		.uleb128 0xe
 2136 01a2 3A       		.uleb128 0x3a
 2137 01a3 0B       		.uleb128 0xb
 2138 01a4 3B       		.uleb128 0x3b
 2139 01a5 0B       		.uleb128 0xb
 2140 01a6 49       		.uleb128 0x49
 2141 01a7 13       		.uleb128 0x13
 2142 01a8 02       		.uleb128 0x2
 2143 01a9 18       		.uleb128 0x18
 2144 01aa 00       		.byte	0
 2145 01ab 00       		.byte	0
 2146 01ac 21       		.uleb128 0x21
 2147 01ad 34       		.uleb128 0x34
 2148 01ae 00       		.byte	0
 2149 01af 03       		.uleb128 0x3
 2150 01b0 0E       		.uleb128 0xe
ARM GAS  /tmp/ccpYqLvB.s 			page 53


 2151 01b1 3A       		.uleb128 0x3a
 2152 01b2 0B       		.uleb128 0xb
 2153 01b3 3B       		.uleb128 0x3b
 2154 01b4 05       		.uleb128 0x5
 2155 01b5 49       		.uleb128 0x49
 2156 01b6 13       		.uleb128 0x13
 2157 01b7 3F       		.uleb128 0x3f
 2158 01b8 19       		.uleb128 0x19
 2159 01b9 3C       		.uleb128 0x3c
 2160 01ba 19       		.uleb128 0x19
 2161 01bb 00       		.byte	0
 2162 01bc 00       		.byte	0
 2163 01bd 22       		.uleb128 0x22
 2164 01be 34       		.uleb128 0x34
 2165 01bf 00       		.byte	0
 2166 01c0 03       		.uleb128 0x3
 2167 01c1 08       		.uleb128 0x8
 2168 01c2 3A       		.uleb128 0x3a
 2169 01c3 0B       		.uleb128 0xb
 2170 01c4 3B       		.uleb128 0x3b
 2171 01c5 05       		.uleb128 0x5
 2172 01c6 49       		.uleb128 0x49
 2173 01c7 13       		.uleb128 0x13
 2174 01c8 3F       		.uleb128 0x3f
 2175 01c9 19       		.uleb128 0x19
 2176 01ca 3C       		.uleb128 0x3c
 2177 01cb 19       		.uleb128 0x19
 2178 01cc 00       		.byte	0
 2179 01cd 00       		.byte	0
 2180 01ce 00       		.byte	0
 2181              		.section	.debug_aranges,"",%progbits
 2182 0000 2C000000 		.4byte	0x2c
 2183 0004 0200     		.2byte	0x2
 2184 0006 00000000 		.4byte	.Ldebug_info0
 2185 000a 04       		.byte	0x4
 2186 000b 00       		.byte	0
 2187 000c 0000     		.2byte	0
 2188 000e 0000     		.2byte	0
 2189 0010 00000000 		.4byte	.LFB272
 2190 0014 3A000000 		.4byte	.LFE272-.LFB272
 2191 0018 00000000 		.4byte	.LFB273
 2192 001c 52000000 		.4byte	.LFE273-.LFB273
 2193 0020 00000000 		.4byte	.LFB274
 2194 0024 42000000 		.4byte	.LFE274-.LFB274
 2195 0028 00000000 		.4byte	0
 2196 002c 00000000 		.4byte	0
 2197              		.section	.debug_ranges,"",%progbits
 2198              	.Ldebug_ranges0:
 2199 0000 00000000 		.4byte	.LFB272
 2200 0004 3A000000 		.4byte	.LFE272
 2201 0008 00000000 		.4byte	.LFB273
 2202 000c 52000000 		.4byte	.LFE273
 2203 0010 00000000 		.4byte	.LFB274
 2204 0014 42000000 		.4byte	.LFE274
 2205 0018 00000000 		.4byte	0
 2206 001c 00000000 		.4byte	0
 2207              		.section	.debug_line,"",%progbits
ARM GAS  /tmp/ccpYqLvB.s 			page 54


 2208              	.Ldebug_line0:
 2209 0000 56020000 		.section	.debug_str,"MS",%progbits,1
 2209      0200F201 
 2209      00000201 
 2209      FB0E0D00 
 2209      01010101 
 2210              	.LASF100:
 2211 0000 74625F70 		.ascii	"tb_ptr\000"
 2211      747200
 2212              	.LASF57:
 2213 0007 72656164 		.ascii	"ready_list_t\000"
 2213      795F6C69 
 2213      73745F74 
 2213      00
 2214              	.LASF94:
 2215 0014 73655F74 		.ascii	"se_time\000"
 2215      696D6500 
 2216              	.LASF118:
 2217 001c 77747472 		.ascii	"wttrp\000"
 2217      7000
 2218              	.LASF115:
 2219 0022 7264796D 		.ascii	"rdymsg\000"
 2219      736700
 2220              	.LASF18:
 2221 0029 75696E74 		.ascii	"uint64_t\000"
 2221      36345F74 
 2221      00
 2222              	.LASF87:
 2223 0032 6B65726E 		.ascii	"kernel_stats\000"
 2223      656C5F73 
 2223      74617473 
 2223      00
 2224              	.LASF4:
 2225 003f 5F5F7569 		.ascii	"__uint8_t\000"
 2225      6E74385F 
 2225      7400
 2226              	.LASF134:
 2227 0049 4F545950 		.ascii	"OTYPER\000"
 2227      455200
 2228              	.LASF93:
 2229 0050 706F7274 		.ascii	"port_intctx\000"
 2229      5F696E74 
 2229      63747800 
 2230              	.LASF56:
 2231 005c 63685F74 		.ascii	"ch_threads_queue\000"
 2231      68726561 
 2231      64735F71 
 2231      75657565 
 2231      00
 2232              	.LASF76:
 2233 006d 73797374 		.ascii	"system_debug_t\000"
 2233      656D5F64 
 2233      65627567 
 2233      5F7400
 2234              	.LASF142:
 2235 007c 696F706F 		.ascii	"ioportmask_t\000"
 2235      72746D61 
ARM GAS  /tmp/ccpYqLvB.s 			page 55


 2235      736B5F74 
 2235      00
 2236              	.LASF106:
 2237 0089 776F7273 		.ascii	"worst\000"
 2237      7400
 2238              	.LASF109:
 2239 008f 74696D65 		.ascii	"time_measurement_t\000"
 2239      5F6D6561 
 2239      73757265 
 2239      6D656E74 
 2239      5F7400
 2240              	.LASF133:
 2241 00a2 4D4F4445 		.ascii	"MODER\000"
 2241      5200
 2242              	.LASF13:
 2243 00a8 6C6F6E67 		.ascii	"long long unsigned int\000"
 2243      206C6F6E 
 2243      6720756E 
 2243      7369676E 
 2243      65642069 
 2244              	.LASF102:
 2245 00bf 63685F74 		.ascii	"ch_trace_buffer_t\000"
 2245      72616365 
 2245      5F627566 
 2245      6665725F 
 2245      7400
 2246              	.LASF97:
 2247 00d1 73655F73 		.ascii	"se_state\000"
 2247      74617465 
 2247      00
 2248              	.LASF136:
 2249 00da 50555044 		.ascii	"PUPDR\000"
 2249      5200
 2250              	.LASF116:
 2251 00e0 65786974 		.ascii	"exitcode\000"
 2251      636F6465 
 2251      00
 2252              	.LASF86:
 2253 00e9 6D61696E 		.ascii	"mainthread\000"
 2253      74687265 
 2253      616400
 2254              	.LASF73:
 2255 00f4 76697274 		.ascii	"virtual_timers_list_t\000"
 2255      75616C5F 
 2255      74696D65 
 2255      72735F6C 
 2255      6973745F 
 2256              	.LASF155:
 2257 010a 49544D5F 		.ascii	"ITM_RxBuffer\000"
 2257      52784275 
 2257      66666572 
 2257      00
 2258              	.LASF21:
 2259 0117 72747469 		.ascii	"rttime_t\000"
 2259      6D655F74 
 2259      00
 2260              	.LASF34:
ARM GAS  /tmp/ccpYqLvB.s 			page 56


 2261 0120 705F7072 		.ascii	"p_prio\000"
 2261      696F00
 2262              	.LASF11:
 2263 0127 6C6F6E67 		.ascii	"long long int\000"
 2263      206C6F6E 
 2263      6720696E 
 2263      7400
 2264              	.LASF1:
 2265 0135 7369676E 		.ascii	"signed char\000"
 2265      65642063 
 2265      68617200 
 2266              	.LASF137:
 2267 0141 42535252 		.ascii	"BSRR\000"
 2267      00
 2268              	.LASF49:
 2269 0146 705F6D70 		.ascii	"p_mpool\000"
 2269      6F6F6C00 
 2270              	.LASF126:
 2271 014e 6D5F7175 		.ascii	"m_queue\000"
 2271      65756500 
 2272              	.LASF85:
 2273 0156 76746C69 		.ascii	"vtlist\000"
 2273      737400
 2274              	.LASF148:
 2275 015d 62697473 		.ascii	"bits\000"
 2275      00
 2276              	.LASF8:
 2277 0162 6C6F6E67 		.ascii	"long int\000"
 2277      20696E74 
 2277      00
 2278              	.LASF23:
 2279 016b 74737461 		.ascii	"tstate_t\000"
 2279      74655F74 
 2279      00
 2280              	.LASF42:
 2281 0174 705F7265 		.ascii	"p_refs\000"
 2281      667300
 2282              	.LASF95:
 2283 017b 73655F74 		.ascii	"se_tp\000"
 2283      7000
 2284              	.LASF15:
 2285 0181 75696E74 		.ascii	"uint16_t\000"
 2285      31365F74 
 2285      00
 2286              	.LASF36:
 2287 018a 705F6E65 		.ascii	"p_newer\000"
 2287      77657200 
 2288              	.LASF123:
 2289 0192 735F7175 		.ascii	"s_queue\000"
 2289      65756500 
 2290              	.LASF99:
 2291 019a 74625F73 		.ascii	"tb_size\000"
 2291      697A6500 
 2292              	.LASF135:
 2293 01a2 4F535045 		.ascii	"OSPEEDR\000"
 2293      45445200 
 2294              	.LASF62:
ARM GAS  /tmp/ccpYqLvB.s 			page 57


 2295 01aa 725F6E65 		.ascii	"r_newer\000"
 2295      77657200 
 2296              	.LASF154:
 2297 01b2 5F5F6675 		.ascii	"__func__.7434\000"
 2297      6E635F5F 
 2297      2E373433 
 2297      3400
 2298              	.LASF90:
 2299 01c0 72656761 		.ascii	"regarm_t\000"
 2299      726D5F74 
 2299      00
 2300              	.LASF69:
 2301 01c9 76745F70 		.ascii	"vt_prev\000"
 2301      72657600 
 2302              	.LASF77:
 2303 01d1 63685F73 		.ascii	"ch_system_debug\000"
 2303      79737465 
 2303      6D5F6465 
 2303      62756700 
 2304              	.LASF141:
 2305 01e1 73746D33 		.ascii	"stm32_gpio_t\000"
 2305      325F6770 
 2305      696F5F74 
 2305      00
 2306              	.LASF130:
 2307 01ee 6D757465 		.ascii	"mutex_t\000"
 2307      785F7400 
 2308              	.LASF80:
 2309 01f6 6C6F636B 		.ascii	"lock_cnt\000"
 2309      5F636E74 
 2309      00
 2310              	.LASF147:
 2311 01ff 494F4275 		.ascii	"IOBus\000"
 2311      7300
 2312              	.LASF28:
 2313 0205 636E745F 		.ascii	"cnt_t\000"
 2313      7400
 2314              	.LASF39:
 2315 020b 705F7374 		.ascii	"p_stklimit\000"
 2315      6B6C696D 
 2315      697400
 2316              	.LASF0:
 2317 0216 756E7369 		.ascii	"unsigned int\000"
 2317      676E6564 
 2317      20696E74 
 2317      00
 2318              	.LASF68:
 2319 0223 76745F6E 		.ascii	"vt_next\000"
 2319      65787400 
 2320              	.LASF119:
 2321 022b 77747365 		.ascii	"wtsemp\000"
 2321      6D7000
 2322              	.LASF44:
 2323 0232 705F6D73 		.ascii	"p_msgqueue\000"
 2323      67717565 
 2323      756500
 2324              	.LASF138:
ARM GAS  /tmp/ccpYqLvB.s 			page 58


 2325 023d 4C434B52 		.ascii	"LCKR\000"
 2325      00
 2326              	.LASF110:
 2327 0242 6E5F6972 		.ascii	"n_irq\000"
 2327      7100
 2328              	.LASF124:
 2329 0248 735F636E 		.ascii	"s_cnt\000"
 2329      7400
 2330              	.LASF6:
 2331 024e 73686F72 		.ascii	"short unsigned int\000"
 2331      7420756E 
 2331      7369676E 
 2331      65642069 
 2331      6E7400
 2332              	.LASF114:
 2333 0261 6B65726E 		.ascii	"kernel_stats_t\000"
 2333      656C5F73 
 2333      74617473 
 2333      5F7400
 2334              	.LASF53:
 2335 0270 63685F74 		.ascii	"ch_thread\000"
 2335      68726561 
 2335      6400
 2336              	.LASF26:
 2337 027a 6D73675F 		.ascii	"msg_t\000"
 2337      7400
 2338              	.LASF107:
 2339 0280 6C617374 		.ascii	"last\000"
 2339      00
 2340              	.LASF158:
 2341 0285 2F686F6D 		.ascii	"/home/jerker/chibios/ChibiOS_16.1.4/testhal/STM32/S"
 2341      652F6A65 
 2341      726B6572 
 2341      2F636869 
 2341      62696F73 
 2342 02b8 544D3332 		.ascii	"TM32F4xx/USB_CDC\000"
 2342      46347878 
 2342      2F555342 
 2342      5F434443 
 2342      00
 2343              	.LASF29:
 2344 02c9 75636E74 		.ascii	"ucnt_t\000"
 2344      5F7400
 2345              	.LASF149:
 2346 02d0 5F5F6675 		.ascii	"__func__.7424\000"
 2346      6E635F5F 
 2346      2E373432 
 2346      3400
 2347              	.LASF82:
 2348 02de 63685F73 		.ascii	"ch_system_t\000"
 2348      79737465 
 2348      6D5F7400 
 2349              	.LASF150:
 2350 02ea 5F5F6675 		.ascii	"__func__.7429\000"
 2350      6E635F5F 
 2350      2E373432 
 2350      3900
ARM GAS  /tmp/ccpYqLvB.s 			page 59


 2351              	.LASF22:
 2352 02f8 746D6F64 		.ascii	"tmode_t\000"
 2352      655F7400 
 2353              	.LASF113:
 2354 0300 6D5F6372 		.ascii	"m_crit_isr\000"
 2354      69745F69 
 2354      737200
 2355              	.LASF58:
 2356 030b 63685F72 		.ascii	"ch_ready_list\000"
 2356      65616479 
 2356      5F6C6973 
 2356      7400
 2357              	.LASF27:
 2358 0319 6576656E 		.ascii	"eventmask_t\000"
 2358      746D6173 
 2358      6B5F7400 
 2359              	.LASF7:
 2360 0325 5F5F696E 		.ascii	"__int32_t\000"
 2360      7433325F 
 2360      7400
 2361              	.LASF88:
 2362 032f 69646C65 		.ascii	"idle_thread_wa\000"
 2362      5F746872 
 2362      6561645F 
 2362      776100
 2363              	.LASF91:
 2364 033e 73746B61 		.ascii	"stkalign_t\000"
 2364      6C69676E 
 2364      5F7400
 2365              	.LASF12:
 2366 0349 5F5F7569 		.ascii	"__uint64_t\000"
 2366      6E743634 
 2366      5F7400
 2367              	.LASF43:
 2368 0354 705F7761 		.ascii	"p_waiting\000"
 2368      6974696E 
 2368      6700
 2369              	.LASF89:
 2370 035e 73697A65 		.ascii	"sizetype\000"
 2370      74797065 
 2370      00
 2371              	.LASF51:
 2372 0367 74687265 		.ascii	"thread_reference_t\000"
 2372      61645F72 
 2372      65666572 
 2372      656E6365 
 2372      5F7400
 2373              	.LASF74:
 2374 037a 63685F76 		.ascii	"ch_virtual_timers_list\000"
 2374      69727475 
 2374      616C5F74 
 2374      696D6572 
 2374      735F6C69 
 2375              	.LASF132:
 2376 0391 636C6561 		.ascii	"clear\000"
 2376      7200
 2377              	.LASF98:
ARM GAS  /tmp/ccpYqLvB.s 			page 60


 2378 0397 63685F73 		.ascii	"ch_swc_event_t\000"
 2378      77635F65 
 2378      76656E74 
 2378      5F7400
 2379              	.LASF75:
 2380 03a6 76745F6C 		.ascii	"vt_lasttime\000"
 2380      61737474 
 2380      696D6500 
 2381              	.LASF37:
 2382 03b2 705F6F6C 		.ascii	"p_older\000"
 2382      64657200 
 2383              	.LASF61:
 2384 03ba 725F6374 		.ascii	"r_ctx\000"
 2384      7800
 2385              	.LASF104:
 2386 03c0 746D5F63 		.ascii	"tm_calibration_t\000"
 2386      616C6962 
 2386      72617469 
 2386      6F6E5F74 
 2386      00
 2387              	.LASF64:
 2388 03d1 725F6375 		.ascii	"r_current\000"
 2388      7272656E 
 2388      7400
 2389              	.LASF63:
 2390 03db 725F6F6C 		.ascii	"r_older\000"
 2390      64657200 
 2391              	.LASF145:
 2392 03e3 706F7274 		.ascii	"portid\000"
 2392      696400
 2393              	.LASF140:
 2394 03ea 41465248 		.ascii	"AFRH\000"
 2394      00
 2395              	.LASF108:
 2396 03ef 63756D75 		.ascii	"cumulative\000"
 2396      6C617469 
 2396      766500
 2397              	.LASF152:
 2398 03fa 70616C53 		.ascii	"palSetBusMode\000"
 2398      65744275 
 2398      734D6F64 
 2398      6500
 2399              	.LASF139:
 2400 0408 4146524C 		.ascii	"AFRL\000"
 2400      00
 2401              	.LASF24:
 2402 040d 74726566 		.ascii	"trefs_t\000"
 2402      735F7400 
 2403              	.LASF101:
 2404 0415 74625F62 		.ascii	"tb_buffer\000"
 2404      75666665 
 2404      7200
 2405              	.LASF66:
 2406 041f 76697274 		.ascii	"virtual_timer_t\000"
 2406      75616C5F 
 2406      74696D65 
 2406      725F7400 
ARM GAS  /tmp/ccpYqLvB.s 			page 61


 2407              	.LASF33:
 2408 042f 705F7072 		.ascii	"p_prev\000"
 2408      657600
 2409              	.LASF25:
 2410 0436 74707269 		.ascii	"tprio_t\000"
 2410      6F5F7400 
 2411              	.LASF156:
 2412 043e 474E5520 		.ascii	"GNU C 4.8.2 -mcpu=cortex-m4 -mno-thumb-interwork -m"
 2412      4320342E 
 2412      382E3220 
 2412      2D6D6370 
 2412      753D636F 
 2413 0471 7468756D 		.ascii	"thumb -ggdb -O0 -fomit-frame-pointer -falign-functi"
 2413      62202D67 
 2413      67646220 
 2413      2D4F3020 
 2413      2D666F6D 
 2414 04a4 6F6E733D 		.ascii	"ons=16 -ffunction-sections -fdata-sections -fno-com"
 2414      3136202D 
 2414      6666756E 
 2414      6374696F 
 2414      6E2D7365 
 2415 04d7 6D6F6E20 		.ascii	"mon -flto\000"
 2415      2D666C74 
 2415      6F00
 2416              	.LASF111:
 2417 04e1 6E5F6374 		.ascii	"n_ctxswc\000"
 2417      78737763 
 2417      00
 2418              	.LASF131:
 2419 04ea 5F426F6F 		.ascii	"_Bool\000"
 2419      6C00
 2420              	.LASF16:
 2421 04f0 696E7433 		.ascii	"int32_t\000"
 2421      325F7400 
 2422              	.LASF2:
 2423 04f8 756E7369 		.ascii	"unsigned char\000"
 2423      676E6564 
 2423      20636861 
 2423      7200
 2424              	.LASF47:
 2425 0506 705F6D74 		.ascii	"p_mtxlist\000"
 2425      786C6973 
 2425      7400
 2426              	.LASF3:
 2427 0510 73686F72 		.ascii	"short int\000"
 2427      7420696E 
 2427      7400
 2428              	.LASF40:
 2429 051a 705F7374 		.ascii	"p_state\000"
 2429      61746500 
 2430              	.LASF60:
 2431 0522 725F7072 		.ascii	"r_prio\000"
 2431      696F00
 2432              	.LASF121:
 2433 0529 65776D61 		.ascii	"ewmask\000"
 2433      736B00
ARM GAS  /tmp/ccpYqLvB.s 			page 62


 2434              	.LASF32:
 2435 0530 705F6E65 		.ascii	"p_next\000"
 2435      787400
 2436              	.LASF19:
 2437 0537 75696E74 		.ascii	"uint_fast8_t\000"
 2437      5F666173 
 2437      74385F74 
 2437      00
 2438              	.LASF41:
 2439 0544 705F666C 		.ascii	"p_flags\000"
 2439      61677300 
 2440              	.LASF50:
 2441 054c 705F7374 		.ascii	"p_stats\000"
 2441      61747300 
 2442              	.LASF83:
 2443 0554 63685F73 		.ascii	"ch_system\000"
 2443      79737465 
 2443      6D00
 2444              	.LASF67:
 2445 055e 63685F76 		.ascii	"ch_virtual_timer\000"
 2445      69727475 
 2445      616C5F74 
 2445      696D6572 
 2445      00
 2446              	.LASF122:
 2447 056f 63685F73 		.ascii	"ch_semaphore\000"
 2447      656D6170 
 2447      686F7265 
 2447      00
 2448              	.LASF46:
 2449 057c 705F6570 		.ascii	"p_epending\000"
 2449      656E6469 
 2449      6E6700
 2450              	.LASF17:
 2451 0587 75696E74 		.ascii	"uint32_t\000"
 2451      33325F74 
 2451      00
 2452              	.LASF120:
 2453 0590 77746D74 		.ascii	"wtmtxp\000"
 2453      787000
 2454              	.LASF59:
 2455 0597 725F7175 		.ascii	"r_queue\000"
 2455      65756500 
 2456              	.LASF70:
 2457 059f 76745F64 		.ascii	"vt_delta\000"
 2457      656C7461 
 2457      00
 2458              	.LASF54:
 2459 05a8 63685F74 		.ascii	"ch_threads_list\000"
 2459      68726561 
 2459      64735F6C 
 2459      69737400 
 2460              	.LASF10:
 2461 05b8 6C6F6E67 		.ascii	"long unsigned int\000"
 2461      20756E73 
 2461      69676E65 
 2461      6420696E 
ARM GAS  /tmp/ccpYqLvB.s 			page 63


 2461      7400
 2462              	.LASF129:
 2463 05ca 63686172 		.ascii	"char\000"
 2463      00
 2464              	.LASF157:
 2465 05cf 2E2E2F2E 		.ascii	"../../../../os/hal/src/pal.c\000"
 2465      2E2F2E2E 
 2465      2F2E2E2F 
 2465      6F732F68 
 2465      616C2F73 
 2466              	.LASF153:
 2467 05ec 6D6F6465 		.ascii	"mode\000"
 2467      00
 2468              	.LASF159:
 2469 05f1 70616C52 		.ascii	"palReadBus\000"
 2469      65616442 
 2469      757300
 2470              	.LASF5:
 2471 05fc 5F5F7569 		.ascii	"__uint16_t\000"
 2471      6E743136 
 2471      5F7400
 2472              	.LASF31:
 2473 0607 74687265 		.ascii	"thread_t\000"
 2473      61645F74 
 2473      00
 2474              	.LASF105:
 2475 0610 62657374 		.ascii	"best\000"
 2475      00
 2476              	.LASF128:
 2477 0615 6D5F6E65 		.ascii	"m_next\000"
 2477      787400
 2478              	.LASF30:
 2479 061c 73797374 		.ascii	"systime_t\000"
 2479      696D655F 
 2479      7400
 2480              	.LASF48:
 2481 0626 705F7265 		.ascii	"p_realprio\000"
 2481      616C7072 
 2481      696F00
 2482              	.LASF65:
 2483 0631 76746675 		.ascii	"vtfunc_t\000"
 2483      6E635F74 
 2483      00
 2484              	.LASF9:
 2485 063a 5F5F7569 		.ascii	"__uint32_t\000"
 2485      6E743332 
 2485      5F7400
 2486              	.LASF78:
 2487 0645 70616E69 		.ascii	"panic_msg\000"
 2487      635F6D73 
 2487      6700
 2488              	.LASF103:
 2489 064f 6F666673 		.ascii	"offset\000"
 2489      657400
 2490              	.LASF144:
 2491 0656 696F706F 		.ascii	"ioportid_t\000"
 2491      72746964 
ARM GAS  /tmp/ccpYqLvB.s 			page 64


 2491      5F7400
 2492              	.LASF92:
 2493 0661 636F6E74 		.ascii	"context\000"
 2493      65787400 
 2494              	.LASF20:
 2495 0669 7274636E 		.ascii	"rtcnt_t\000"
 2495      745F7400 
 2496              	.LASF72:
 2497 0671 76745F70 		.ascii	"vt_par\000"
 2497      617200
 2498              	.LASF151:
 2499 0678 70616C57 		.ascii	"palWriteBus\000"
 2499      72697465 
 2499      42757300 
 2500              	.LASF55:
 2501 0684 74687265 		.ascii	"threads_queue_t\000"
 2501      6164735F 
 2501      71756575 
 2501      655F7400 
 2502              	.LASF125:
 2503 0694 63685F6D 		.ascii	"ch_mutex\000"
 2503      75746578 
 2503      00
 2504              	.LASF146:
 2505 069d 6D61736B 		.ascii	"mask\000"
 2505      00
 2506              	.LASF79:
 2507 06a2 6973725F 		.ascii	"isr_cnt\000"
 2507      636E7400 
 2508              	.LASF84:
 2509 06aa 726C6973 		.ascii	"rlist\000"
 2509      7400
 2510              	.LASF14:
 2511 06b0 75696E74 		.ascii	"uint8_t\000"
 2511      385F7400 
 2512              	.LASF117:
 2513 06b8 77746F62 		.ascii	"wtobjp\000"
 2513      6A7000
 2514              	.LASF38:
 2515 06bf 705F6E61 		.ascii	"p_name\000"
 2515      6D6500
 2516              	.LASF52:
 2517 06c6 74687265 		.ascii	"threads_list_t\000"
 2517      6164735F 
 2517      6C697374 
 2517      5F7400
 2518              	.LASF81:
 2519 06d5 74726163 		.ascii	"trace_buffer\000"
 2519      655F6275 
 2519      66666572 
 2519      00
 2520              	.LASF45:
 2521 06e2 705F6D73 		.ascii	"p_msg\000"
 2521      6700
 2522              	.LASF143:
 2523 06e8 696F6D6F 		.ascii	"iomode_t\000"
 2523      64655F74 
ARM GAS  /tmp/ccpYqLvB.s 			page 65


 2523      00
 2524              	.LASF112:
 2525 06f1 6D5F6372 		.ascii	"m_crit_thd\000"
 2525      69745F74 
 2525      686400
 2526              	.LASF127:
 2527 06fc 6D5F6F77 		.ascii	"m_owner\000"
 2527      6E657200 
 2528              	.LASF96:
 2529 0704 73655F77 		.ascii	"se_wtobjp\000"
 2529      746F626A 
 2529      7000
 2530              	.LASF35:
 2531 070e 705F6374 		.ascii	"p_ctx\000"
 2531      7800
 2532              	.LASF71:
 2533 0714 76745F66 		.ascii	"vt_func\000"
 2533      756E6300 
 2534              		.comm	__gnu_lto_v1,1,1
 2535              		.ident	"GCC: (4.8.2-14ubuntu1+6) 4.8.2"
ARM GAS  /tmp/ccpYqLvB.s 			page 66


DEFINED SYMBOLS
                            *ABS*:0000000000000000 pal.c
     /tmp/ccpYqLvB.s:255    .text.palReadBus:0000000000000000 $t
     /tmp/ccpYqLvB.s:261    .text.palReadBus:0000000000000000 palReadBus
     /tmp/ccpYqLvB.s:428    .rodata.__func__.7424:0000000000000000 __func__.7424
     /tmp/ccpYqLvB.s:308    .text.palWriteBus:0000000000000000 $t
     /tmp/ccpYqLvB.s:314    .text.palWriteBus:0000000000000000 palWriteBus
     /tmp/ccpYqLvB.s:434    .rodata.__func__.7429:0000000000000000 __func__.7429
     /tmp/ccpYqLvB.s:371    .text.palSetBusMode:0000000000000000 $t
     /tmp/ccpYqLvB.s:377    .text.palSetBusMode:0000000000000000 palSetBusMode
     /tmp/ccpYqLvB.s:440    .rodata.__func__.7434:0000000000000000 __func__.7434
     /tmp/ccpYqLvB.s:425    .rodata.__func__.7424:0000000000000000 $d
     /tmp/ccpYqLvB.s:431    .rodata.__func__.7429:0000000000000000 $d
     /tmp/ccpYqLvB.s:437    .rodata.__func__.7434:0000000000000000 $d
                            *COM*:0000000000000001 __gnu_lto_v1
                     .debug_frame:0000000000000010 $d

UNDEFINED SYMBOLS
chSysHalt
_pal_lld_setgroupmode
