ARM GAS  /tmp/ccPllA0j.s 			page 1


   1              		.syntax unified
   2              		.cpu cortex-m4
   3              		.fpu softvfp
   4              		.eabi_attribute 20, 1
   5              		.eabi_attribute 21, 1
   6              		.eabi_attribute 23, 3
   7              		.eabi_attribute 24, 1
   8              		.eabi_attribute 25, 1
   9              		.eabi_attribute 26, 1
  10              		.eabi_attribute 30, 6
  11              		.eabi_attribute 34, 1
  12              		.eabi_attribute 18, 4
  13              		.thumb
  14              		.file	"pal.c"
  15              		.text
  16              	.Ltext0:
  17              		.section	.gnu.lto_.inline.6672b8367368ebb9,"",%progbits
  18 0000 789C6362 		.ascii	"x\234cb`b\300\006\374\24143\003\203\200\004\003\003"
  18      6062C006 
  18      FCA13433 
  18      03838004 
  18      0303
  19 0012 93C484D3 		.ascii	"\223\304\204\323\214\014,\020\305L\334 \202A\\\036H"
  19      8C0C2C10 
  19      C54CDC20 
  19      82415C1E 
  19      48
  20 0023 AA1DD8C1 		.ascii	"\252\035\330\301\204\"\316\302 \244\014d\212|X\015W"
  20      8422CEC2 
  20      20A40C64 
  20      8A7C580D 
  20      57
  21 0034 CFC20B93 		.ascii	"\317\302\013\223d\000\000\030\207\006\004"
  21      64000018 
  21      870604
  22              		.text
  23              		.section	.gnu.lto_palReadBus.6672b8367368ebb9,"",%progbits
  24 0000 789CBD52 		.ascii	"x\234\275R\317k\023A\024~ofvv7\332\037\336\364V\204"
  24      CF6B1341 
  24      147E6F66 
  24      767637DA 
  24      1FDEF456 
  25 0015 22B490A5 		.ascii	"\"\264\220\245 ^=\364\017h\301\026\324\213$\021\322"
  25      205E3DF4 
  25      0F68C116 
  25      D48B2411 
  25      D2
  26 0026 8104C51E 		.ascii	"\201\004\305\036=d\332\344P\212\224\320KK\364Po\266"
  26      3D64DAE4 
  26      508A94D0 
  26      4B4BF450 
  26      6FB6
  27 0038 07C55241 		.ascii	"\007\305RA\360\022EJAB\365\352\251T\2537\377\000\021"
  27      F012454A 
  27      4142F5EA 
  27      A954AB37 
  27      FF0011
ARM GAS  /tmp/ccPllA0j.s 			page 2


  28 004b C7F776B3 		.ascii	"\307\367v\263k\"\005\203\007\007\366\355\274\331\357"
  28      6B220583 
  28      0707F6ED 
  28      BCD9EF
  29 005a FBE6FB66 		.ascii	"\373\346\373fV\200\200?\3074=Z\001\\\342&\000$\004\012"
  29      5680803F 
  29      C7343D5A 
  29      015CE226 
  29      0024040A 
  30 006e 9454A5F0 		.ascii	"\224T\245\360\000\254\240oV\251d\256y\356!\275P\243"
  30      00ACA06F 
  30      56A964AE 
  30      79EE21BD 
  30      50A3
  31 0080 4FD54724 		.ascii	"O\325G$\032BMH\345i\037k7\270\207\360\"<\266v\375\350"
  31      1A424D48 
  31      E5691F6B 
  31      37B887F0 
  31      223CB676 
  32 0096 E478F3C2 		.ascii	"\344x\363\302\352\326r\323\376t\016\015\177*!\\\247"
  32      EAD672D3 
  32      FE740E0D 
  32      7F2A215C 
  32      A7
  33 00a7 198EC52F 		.ascii	"\031\216\305/\026\357\0351\255\325n\355?\3105\227V\254"
  33      16EF1D31 
  33      ADD56EED 
  33      3FC83597 
  33      56AC
  34 00b9 7335C356 		.ascii	"s5\303V\006 \255\333\027\237g\017l\243\355\334U\203"
  34      0620ADDB 
  34      179F670F 
  34      6CA3EDDC 
  34      5583
  35 00cb 6A40CEEE 		.ascii	"j@\316\356\023\033n\331\037\316I\203\336?p\006\013\324"
  35      131B6ED9 
  35      1FCE4983 
  35      DE3F7006 
  35      0BD4
  36 00dd ECE3E8FF 		.ascii	"\354\343\350\377\344\355\257\234*\3023\321>r\356\321"
  36      E4EDAF9C 
  36      2AC233D1 
  36      3E72EED1 
  37 00ed F3BDE335 		.ascii	"\363\275\3435<\227C\254\"\335?\305\222T\224\242\342"
  37      3C9743AC 
  37      22DD3FC5 
  37      925494A2 
  37      E2
  38 00fe 79DC6A2A 		.ascii	"y\334j*\332\3476\340\022B|+\340A\203\302\215U\273\307"
  38      DAE736E0 
  38      12427C2B 
  38      E04183C2 
  38      8D55BBC7 
  39 0112 4063AE5B 		.ascii	"@c\256[\351'\222\363\214\221\007\360\366\353\353\215"
  39      E92792F3 
  39      8C9107F0 
  39      F6EBEB8D 
ARM GAS  /tmp/ccPllA0j.s 			page 3


  40 0122 7D2CE036 		.ascii	"},\34069*#\262\023\277\327\306<\337\226\354\300\362"
  40      392A23B2 
  40      13BFD7C6 
  40      3CDF96EC 
  40      C0F2
  41 0134 CD142326 		.ascii	"\315\024#&a\302`\360\020Z\204\015\3738ELi$\374%S\025"
  41      61C260F0 
  41      105A840D 
  41      FB38454C 
  41      6924FC25 
  42 014a 8C0846FA 		.ascii	"\214\010F\372T)\277<\004\225@\000\356\303w\273bG\015"
  42      5429BF3C 
  42      04954000 
  42      EEC377BB 
  42      62470D
  43 015d E64A9888 		.ascii	"\346J\230\210\360\312y\203g\310\177\027d\360l\312\326"
  43      F0CA7983 
  43      67C87F17 
  43      64F06CCA 
  43      D6
  44 016e 89A78F2F 		.ascii	"\211\247\217/?\275\317v\221\261\257\241\323}\245\306"
  44      3FBDCF76 
  44      91B1AFA1 
  44      D37DA5C6 
  45 017e 3AF0260B 		.ascii	":\360&\013\242&a\3076\0104\234pFH\2039C]\216\3108\277"
  45      A22661C7 
  45      3608349C 
  45      70464883 
  45      39435D8E 
  46 0195 C37B8384 		.ascii	"\303{\203\204'\3027\2312t\231\275w\240\3764[\362i\357"
  46      27C23799 
  46      327499BD 
  46      77A0FE34 
  46      5BF269EF 
  47 01a9 3267E855 		.ascii	"2g\350U\016bey\272\262\314\224\353\257\352\303)%\214"
  47      0E626579 
  47      BAB2CC94 
  47      EBAFEAC3 
  47      29258C
  48 01bc A582F450 		.ascii	"\245\202\364P\010,\337\301\022\365\267\331\373\007\310"
  48      082CDFC1 
  48      12F5B7D9 
  48      FB07C8
  49 01cb 8E264C20 		.ascii	"\216&L s|\014\234j\274b\212\321\364\202)\232\231k\267"
  49      737C0C9C 
  49      6ABC628A 
  49      D1F48229 
  49      9A996BB7 
  50 01df A6AEE4A7 		.ascii	"\246\256\344\247\362\227\243\350\316b\264P\250D\213"
  50      F297A3E8 
  50      CE62B450 
  50      A8448B
  51 01ee F74AD1DD 		.ascii	"\367J\321\335B%_\202_\275\032\321\014"
  51      42255F82 
  51      5FBD1AD1 
  51      0C
  52              		.text
ARM GAS  /tmp/ccPllA0j.s 			page 4


  53              		.section	.gnu.lto_palWriteBus.6672b8367368ebb9,"",%progbits
  54 0000 789CCD53 		.ascii	"x\234\315S=h\024A\024~of\177\356\366~v\317J\273\240"
  54      3D681441 
  54      147E6F66 
  54      7FEEF67E 
  54      76CF4ABB 
  55 0015 8860E096 		.ascii	"\210`\340\226\200X\331YYY\230\200\332\310\335\025\311"
  55      8058D959 
  55      59599880 
  55      DAC8DD15 
  55      C9
  56 0026 C01D1153 		.ascii	"\300\035\021S\211\305Mb\204C,\016+\321&\202\205\210"
  56      89C54D62 
  56      84432C0E 
  56      2BD12682 
  56      8588
  57 0038 A2D88828 		.ascii	"\242\330\210($\212\2044\"\266V\007\202vZ+\301\365\275"
  57      248A8434 
  57      22B65607 
  57      82765A2B 
  57      C1F5BD
  58 004b 99DDE536 		.ascii	"\231\335\3456\2468\005\341\006\356\315\314{\357\373"
  58      A63805E1 
  58      06EECDCC 
  58      7BEFFB
  59 005a DE376FEF 		.ascii	"\3367o\357\011\020\260w\235\242\337U\017\340\030_|@"
  59      0910B077 
  59      9DA2DF55 
  59      0FE0185F 
  59      7C40
  60 006c CA408192 		.ascii	"\312@\201\222\254\024.\200\026\016\031\307\261g\217"
  60      AC142E80 
  60      160E19C7 
  60      B1678F
  61 007b CF2ED286 		.ascii	"\317.\322\206\036\"\001\020\372B:\256\207\375\013|\205"
  61      1E220110 
  61      FA423AAE 
  61      87FD0B7C 
  61      85
  62 008c E830DCD7 		.ascii	"\3500\334\327\372\366\350\306\367;\207nn\254\015\365"
  62      FAF6E8C6 
  62      F73B876E 
  62      6EAC0DF5 
  63 009c AF2441C5 		.ascii	"\257$A\305\241\016\302y:\341\214\331\230u|Y\330\326"
  63      A10EC279 
  63      3AE18CD9 
  63      98757C59 
  63      D8D6
  64 00ae EEF6AD60 		.ascii	"\356\366\255`\270:\320I\322W\254a\022\220~\376P\227"
  64      B83AD049 
  64      D257AC61 
  64      12907EFE 
  64      5097
  65 00c0 37F46E92 		.ascii	"7\364n\222H\205\316\024c&l\302?`\206\005\214;\305=\370"
  65      4885CE14 
  65      63266CC2 
  65      3F608605 
ARM GAS  /tmp/ccPllA0j.s 			page 5


  65      8C3BC53D 
  66 00d5 7F7D9BD2 		.ascii	"\177}\233\322\036\364\020\236\212\255Q\222<~\361\340"
  66      1EF4109E 
  66      8AAD5192 
  66      3C7EF1E0 
  67 00e5 F326360E 		.ascii	"\363&6\016 \366\220\206\214\236%\311H\207\2564[\304"
  67      20F69086 
  67      8C9E25C9 
  67      4887AE34 
  67      5BC4
  68 00f7 E4B1F1D9 		.ascii	"\344\261\361\331\2248Zf\023\220q+\354\253\262\251\261"
  68      94385A66 
  68      1390712B 
  68      ECABB2A9 
  68      B1
  69 0108 A97320E4 		.ascii	"\251s \344@\304\327\006\030\025\340\302:5a\246\227\266"
  69      40C4D706 
  69      1815E0C2 
  69      3A3561A6 
  69      97B6
  70 011a 8BD67C6A 		.ascii	"\213\326|ji\242\345\002O\223\334\201w_\337\374\330\306"
  70      69A2E502 
  70      4F93DC81 
  70      775FDFFC 
  70      D8C6
  71 012c 163EA30E 		.ascii	"\026>\243\016-\"\262bo\\\356\002s\311\367\260v1\313"
  71      2D22B262 
  71      6F5CEE02 
  71      73C9F7B0 
  71      7631CB
  72 013f 11B3705C 		.ascii	"\021\263p\\\241\177\017\356Rn\251\200ic\006#\342/9\253"
  72      A17F0FEE 
  72      526EA980 
  72      69630623 
  72      E22F39AB 
  73 0153 E00C3F2C 		.ascii	"\340\014?,\260\322\367\220\037\300\261)\000\327\340"
  73      B0D2F790 
  73      1FC0B129 
  73      00D7E0
  74 0162 A71EE848 		.ascii	"\247\036\350Ha\271\203\226\204=\007\025\006\244?MRX"
  74      61B98396 
  74      843D0715 
  74      06A43F4D 
  74      5258
  75 0174 C9D09ED5 		.ascii	"\311\320\236\325\364ig9\253!\215\252\352\376\2522Y\004"
  75      F4696739 
  75      AB218DAA 
  75      EAFEAA32 
  75      5904
  76 0186 792D3384 		.ascii	"y-3\204\273\310O\033\177\231g8j\373s\210\234\343\372"
  76      BBC84F1B 
  76      7F996738 
  76      6AFB7388 
  76      9CE3FA
  77 0199 AB9CC337 		.ascii	"\253\234\30374^\221\2464I\203\210f\220\323\224\011\304"
  77      345E91A6 
  77      34498388 
ARM GAS  /tmp/ccPllA0j.s 			page 6


  77      6690D394 
  77      09C4
  78 01ab 49105991 		.ascii	"I\020Y\221\337\362H@A\223\374$wUL\331\240X\263\372\327"
  78      DFF24840 
  78      4193FC24 
  78      77554CD9 
  78      A058B3FA 
  79 01c0 D26B04FA 		.ascii	"\322k\004\372\243\003\365\311\244\217\011\014\011\264"
  79      A303F5C9 
  79      A48F090C 
  79      09B4
  80 01ce 476064C8 		.ascii	"G`d\310C\343}\231{\033Fy\304\336\267g\254s\026\036\351"
  80      43E37D99 
  80      7B1B4679 
  80      C4DEB767 
  80      AC73161E 
  81 01e3 752A50CF 		.ascii	"u*P\317\016\241-L\004\222\013W\323\3022\335\355$\021"
  81      0EA12D4C 
  81      04920B57 
  81      D3C232DD 
  81      ED2411
  82 01f6 15C04758 		.ascii	"\025\300GX\035m\036\311\376=v\315\363w\346\267\036\355"
  82      1D6D1EC9 
  82      FE3D76CD 
  82      F377E6B7 
  82      1EED
  83 0208 AA767C7A 		.ascii	"\252v|zI\265\325\331s\227\346N6\347\232'\342xy%^ju\343"
  83      49B5D5D9 
  83      7397E64E 
  83      36E79A27 
  83      E2787925 
  84 0220 952B9DF8 		.ascii	"\225+\235\370r\253\333\354\300o\326\226Nq"
  84      72ABDBEC 
  84      C06FD696 
  84      4E71
  85              		.text
  86              		.section	.gnu.lto_palSetBusMode.6672b8367368ebb9,"",%progbits
  87 0000 789CB591 		.ascii	"x\234\265\221=K\003A\020\206gv\367\356\022\277\355\264"
  87      3D4B0341 
  87      10866776 
  87      F7EE12BF 
  87      EDB4
  88 0012 13450485 		.ascii	"\023E\004\205\034\202X\331\371\003,TP\033IN\210\013"
  88      1C8258D9 
  88      F9032C54 
  88      501B494E 
  88      880B
  89 0024 098A9616 		.ascii	"\011\212\226\026Y?\012\021\213`%j\241\2256\"\330\013"
  89      593F0A11 
  89      8B60256A 
  89      A1953622 
  89      D80B
  90 0036 1184D888 		.ascii	"\021\204\330\210X\011VAP\273\374\000\021\317\231\273"
  90      58095641 
  90      50BBFC00 
  90      11CF99BB 
  91 0046 9C249A22 		.ascii	"\234$\232\"\010\016\334\334~\274\357\3543\273\002\004"
ARM GAS  /tmp/ccPllA0j.s 			page 7


  91      080EDCDC 
  91      7EBCEFEC 
  91      33BB0204 
  92 0056 FC8C31FA 		.ascii	"\374\2141\372\026$\300\000O\034@R\240@Z@),\000#\024"
  92      1624C000 
  92      4F1C4052 
  92      A0405A40 
  92      292C0023 
  93 006b 25A5C2B1 		.ascii	"%\245\302\261\315c\013\351\2076\"\031\020rB*\313\306"
  93      CD630BE9 
  93      87362219 
  93      1072422A 
  93      CBC6
  94 007d DC2C0605 		.ascii	"\334,\006\005z\341\304\230\275\322\313\373~\367\316"
  94      7AE1C498 
  94      BDD2CBFB 
  94      7EF7CE
  95 008c F146DE7C 		.ascii	"\361F\336|\372>j\336\362\020fh\204=\301\217\253VGh+"
  95      FA3E6ADE 
  95      F2106668 
  95      843DC18F 
  95      AB564768 
  96 00a1 3C15779B 		.ascii	"<\025w\233\362\353\333\306\367s\232\031\0321\231\313"
  96      F2EBDBC6 
  96      F7739A19 
  96      1A3199CB 
  97 00b1 33133F36 		.ascii	"3\023?6\037\276/5\252?x\032\203\313\327x\254\377`\313"
  97      1FBE2F35 
  97      AA3F781A 
  97      83CBD778 
  97      ACFF60CB 
  98 00c5 225C8842 		.ascii	"\"\\\210B\311\367\217\256>\236\313\330\031G\314\"=\010"
  98      C9F78FAE 
  98      3E9ECBD8 
  98      1947CC22 
  98      3D08
  99 00d7 214A4A52 		.ascii	"!JJRQR\026OmJ\226\303\323\030I\370Q-\330\"\306\236l"
  99      5152164F 
  99      6D4A96C3 
  99      D31849F8 
  99      512DD822 
 100 00ee A51B8AA9 		.ascii	"\245\033\212\251J\246]9\315\227)o\341\346\355\372\261"
 100      4AA65D39 
 100      CD97296F 
 100      E1E6EDFA 
 100      B1
 101 00ff 88493CA5 		.ascii	"\210I<\245\006\322\210\014aW\023L3\244\274\203\215\271"
 101      06D2880C 
 101      6157134C 
 101      33A4BC83 
 101      8DB9
 102 0111 48238660 		.ascii	"H#\206`P\243s\010\007\244\215\325xR\030\331\250\360"
 102      50A37308 
 102      07A48DD5 
 102      785218D9 
 102      A8F0
 103 0123 EB7755C1 		.ascii	"\353wU\301\012\247\275\246*]\227\274\007\025J\000\326"
ARM GAS  /tmp/ccPllA0j.s 			page 8


 103      0AA7BDA6 
 103      2A5D97BC 
 103      07154A00 
 103      D6
 104 0134 E0DD6C9B 		.ascii	"\340\335l\233\016\215q\017\303\"\274\322\245\261\211"
 104      0E8D710F 
 104      C322BCD2 
 104      A5B189
 105 0143 F82B228D 		.ascii	"\370+\"\215\315\221\333\016\231\236\316\326\2423d@\325"
 105      CD91DB0E 
 105      999ECED6 
 105      A2336440 
 105      D5
 106 0154 529F2AC2 		.ascii	"R\237*\302\252nC\005\206\326\372\006Q\307`5\3227\031"
 106      AA6E4305 
 106      86D6FA06 
 106      51C76035 
 106      D23719
 107 0167 CA3272D8 		.ascii	"\3122r\330i\306\276\203\315\363\357%\207\016N\263\353"
 107      69C6BE83 
 107      CDF3EF25 
 107      870E4EB3 
 107      EB
 108 0178 1EEC5FBD 		.ascii	"\036\354_\275\267y\225\203\251\235@\032\323H\267\366"
 108      B7799583 
 108      A99D401A 
 108      D348B7F6 
 109 0188 00EBA572 		.ascii	"\000\353\245r_\244\016c\212{bq\177F\247\334\361E\235"
 109      5FA40E63 
 109      8A7B6271 
 109      7F46A7DC 
 109      F1459D
 110 019b D21393F3 		.ascii	"\322\023\223\363\303\243\211\341\304\210\353.\255\272"
 110      C3A389E1 
 110      C488EB2E 
 110      ADBA
 111 01a9 8BC98CBB 		.ascii	"\213\311\214\273\272\342\271\313\311L\302\203/O\271"
 111      BAE2B9CB 
 111      C94CC283 
 111      2F4FB9
 112 01b8 B2BF     		.ascii	"\262\277"
 113              		.text
 114              		.section	.gnu.lto_.symbol_nodes.6672b8367368ebb9,"",%progbits
 115 0000 789C4DC8 		.ascii	"x\234M\310\273\015\2000\020\203a\237/\300\030\214z\251"
 115      BB0D8030 
 115      1083619F 
 115      2FC0188C 
 115      7AA9
 116 0012 1065780F 		.ascii	"\020ex\017\300>\224\324H\264\314\200\000\021P\334\374"
 116      C03E94D4 
 116      48B4CC80 
 116      001150DC 
 116      FC
 117 0023 F247101E 		.ascii	"\362G\020\036q\0144 ,\200\331ZK\326\023\316\224\015"
 117      710C3420 
 117      2C80D95A 
 117      4BD613CE 
ARM GAS  /tmp/ccPllA0j.s 			page 9


 117      940D
 118 0035 4D121D28 		.ascii	"M\022\035(\217\2664&:\222\267JG\323W\275\027\231h\356"
 118      8FB63426 
 118      3A92B74A 
 118      47D357BD 
 118      179968EE 
 119 0049 7F8A1CFB 		.ascii	"\177\212\034\373v\2122\326}-0WG\211\013\016a$\370"
 119      768A32D6 
 119      7D2D3057 
 119      47890B0E 
 119      6124F8
 120              		.text
 121              		.section	.gnu.lto_.refs.6672b8367368ebb9,"",%progbits
 122 0000 789C6362 		.ascii	"x\234cb`b\340e\200\000F\006&FF&&fF\026&V\006\000\002"
 122      6062E065 
 122      80004606 
 122      26464626 
 122      26664616 
 123 0019 15002A   		.ascii	"\025\000*"
 124              		.text
 125              		.section	.gnu.lto_.decls.6672b8367368ebb9,"",%progbits
 126 0000 789CB558 		.ascii	"x\234\265X{l\024E\030\237\331\273\203^9j\201@j\242r"
 126      7B6C1445 
 126      189FD9BB 
 126      835E396A 
 126      81406AA2 
 127 0015 183158A1 		.ascii	"\0301X\241\007\205\240\030C\024\212\224\000\266\271"
 127      0785A018 
 127      43148A94 
 127      00B6B9
 128 0024 42C0BFD6 		.ascii	"B\300\277\326\345z\245\027\217\266\351m5\374\345\224"
 128      E57AA517 
 128      8FB6E96D 
 128      35FCE594 
 129 0034 16C42270 		.ascii	"\026\304\"p-\310C\012\\\251\274\021Z\240 \017\311A\260"
 129      2DC8430A 
 129      5CA9BC11 
 129      5AA0200F 
 129      C941B0
 130 0047 AD883D02 		.ascii	"\255\210=\002A1\304x\"\004\021\022A\300 Z\316ofw\357"
 130      4131C478 
 130      22041112 
 130      41C0205A 
 130      CE6F6677 
 131 005c 7697DB7B 		.ascii	"v\227\333{\220\270\31177{;\337o~\337c\276\231]\016q"
 131      90B8C937 
 131      377B3BDF 
 131      6F7EDF63 
 131      BE995D0E 
 132 0071 E8124628 		.ascii	"\350\022F(\002\327\364!\010\325s\010\231\021B\023Q\354"
 132      02D7F421 
 132      08D57308 
 132      99114213 
 132      51EC
 133 0083 B280B480 		.ascii	"\262\200\264\200\334\003\351\005\261\302\370\201 &\350"
 133      DC03E905 
 133      B1C2F881 
ARM GAS  /tmp/ccPllA0j.s 			page 10


 133      2026E8
 134 0092 E7C0EF50 		.ascii	"\347\300\357P\220\341\030i.:>[\326\315\002\261\201\264"
 134      90E11869 
 134      2E3A3E5B 
 134      D6CD02B1 
 134      81B4
 135 00a4 825C07E9 		.ascii	"\202\\\007\351\213\2449\366\202\334\002\331\007\362"
 135      8BA439F6 
 135      82DC02D9 
 135      07F2
 136 00b2 32E88F04 		.ascii	"2\350\217\004\311\004\351\200\373\343 \207\344q7A\016"
 136      C904E980 
 136      FBE32087 
 136      E4713741 
 136      0E
 137 00c3 829C06B9 		.ascii	"\202\234\006\271\001\302\311\370V\025\207;\360;J\307"
 137      01C2C9F8 
 137      5615873B 
 137      F03B4AC7 
 138 00d3 81F21DA0 		.ascii	"\201\362\035\240\343\220h\376<\325\374\2552\207od\036"
 138      E39068FE 
 138      3CD5FCAD 
 138      32876F64 
 138      1E
 139 00e4 16150FCA 		.ascii	"\026\025\017\312\241\033\344\254\314\345\236\212\013"
 139      A11BE4AC 
 139      CCE59E8A 
 139      0B
 140 00f1 F5C5DFF0 		.ascii	"\365\305\337\360\373PK\205\371M\357\217D\\\034:.\243"
 140      FB504B85 
 140      F94DEF8F 
 140      445C1C3A 
 140      2EA3
 141 0103 A13F489E 		.ascii	"\241?H\236C\315\303\024'&4\026\026\220>:\177\014E\233"
 141      43CDC314 
 141      27263416 
 141      16903E3A 
 141      7F0C459B 
 142 0117 482018DE 		.ascii	"H \030\336z\3456^O\202\365\004BN0\032\202>%p\005\226"
 142      7AE5365E 
 142      4F82F504 
 142      424E301A 
 142      823E2570 
 143 012d 1082452B 		.ascii	"\020\202E+ZJ\310\"zS\330\0154\347b\001gY\221\235ulV"
 143      5A4AC822 
 143      7A53D80D 
 143      34E76201 
 143      6759919D 
 144 0144 C67438FA 		.ascii	"\306t8\372\234\020\177\270\275w{.!\031\002n\305V\360"
 144      9C107FB8 
 144      BD777B2E 
 144      2119026E 
 144      C556F0
 145 0157 821BA35C 		.ascii	"\202\033\243\\\264\023p\374\204\234zM71\273R\207\276"
 145      B41370FC 
 145      849C7A4D 
 145      3731BB52 
ARM GAS  /tmp/ccPllA0j.s 			page 11


 145      87BE
 146 0169 FBD1D727 		.ascii	"\373\321\327'\361\"\240#\340\355\014|-\306H\300\333"
 146      F122A023 
 146      E0ED0C7C 
 146      2DC648C0 
 146      DB
 147 017a 706EDA50 		.ascii	"pn\332P\215\313\216O`,w1\240\036\035\220\200\373Z\325"
 147      8DCB8E4F 
 147      602C7731 
 147      A01E1D90 
 147      80FB5AD5 
 148 018e 1CD9BD32 		.ascii	"\034\331\2752\200\242\261\307r\207.\221\247\320\377"
 148      80A2B1C7 
 148      72872E91 
 148      A7D0FF
 149 019d 3C3C9E2D 		.ascii	"<<\236-Ts\013\036\302z&\226q\250\037j\210y` j\244\021"
 149      54730B1E 
 149      C27A2696 
 149      71A81F6A 
 149      88796020 
 150 01b4 B4AB7CF1 		.ascii	"\264\253|\361\256\242oS\271\265\347l>\363\305><\020"
 150      AEA26F53 
 150      B9B5E76C 
 150      3EF3C53E 
 150      3C10
 151 01c6 50EA38AD 		.ascii	"P\3528\255/\222\241P\026\373AS\322a\230$x\277\313F\314"
 151      2F92A150 
 151      16FB4153 
 151      D2619824 
 151      78BFCB46 
 152 01db D2FF4883 		.ascii	"\322\377H\203\246\271\206\241\000\260\015\366v5?M\002"
 152      A6B986A1 
 152      00B00DF6 
 152      76353F4D 
 152      02
 153 01ec A77032F2 		.ascii	"\247p2\362aN\231w\244*\337Z6\233\030\373C\214\375\307"
 153      614E9977 
 153      A42ADF5A 
 153      369B18FB 
 153      438CFDC7 
 154 0200 C9D96B61 		.ascii	"\311\331ka(\275#z\372\377\3640\372G\222\323\257\257"
 154      28BD237A 
 154      FAFFF430 
 154      FA4792D3 
 154      AFAF
 155 0212 0B467A24 		.ascii	"\013Fz$\372,\373\352\022f\237\200w\340\341)\305\233"
 155      FA2CFBEA 
 155      12669F80 
 155      77E0E129 
 155      C59B
 156 0224 436B9825 		.ascii	"Ck\230%\224B<$\271+]\362\000--\177\310\346\027\004|"
 156      94423C24 
 156      B92B5DF2 
 156      002D2D7F 
 156      C8E61704 
 157 0239 9C257873 		.ascii	"\234%xs\332`v\015X\223\032\2545\025\260\014cf\253\325"
 157      DA60760D 
ARM GAS  /tmp/ccPllA0j.s 			page 12


 157      58931AAC 
 157      3515B00C 
 157      6366ABD5 
 158 024d 60BBD306 		.ascii	"`\273\323\006\3232[\243\006kO\005,\333\230\331:5XG\332"
 158      D3325BA3 
 158      066B4F05 
 158      2CDB98D9 
 158      3A355847 
 159 0262 606A66B5 		.ascii	"`jf\265\301\303\2413\2304\331\006\241&BjI\240\217QR"
 159      C1C3A133 
 159      9834D906 
 159      A126426A 
 159      49A08F51 
 160 0277 4001A743 		.ascii	"@\001\247CH\302!\002>\203\007i\223t\303\312,\232\244"
 160      48C22102 
 160      3E830769 
 160      9374C3CA 
 160      2C9AA4
 161 028a F4FFE46B 		.ascii	"\364\377\344klcHJR\245t\036a\306Q\335'\310.\230\274"
 161      6C63484A 
 161      52A5741E 
 161      61C651DD 
 161      27C82E98 
 162 029f 23D48F34 		.ascii	"#\324\2174\330\344\325\025xcG\002\342!\375\352\332\034"
 162      D8E4D515 
 162      78634702 
 162      E221FDEA 
 162      DA1C
 163 02b1 E2ECD2DF 		.ascii	"\342\354\322\337\311y\267\207\232sH\340$\226K;YBF\250"
 163      C979B787 
 163      9A7348E0 
 163      24964B3B 
 163      594246A8 
 164 02c5 E6CA56E6 		.ascii	"\346\312V\346\242\305/\272K\034\036\311\012\302yf\350"
 164      A2C52FBA 
 164      4B1C1EC9 
 164      0AC27966 
 164      E8
 165 02d6 312EEE1E 		.ascii	"1.\356\036\221\002P\343\262\355\322\036q\221\001\235"
 165      910250E3 
 165      B2EDD21E 
 165      7191019D 
 166 02e6 E6F47B84 		.ascii	"\346\364{\204I\267G\230\264\253\332d\215u\"\021\023"
 166      49B74798 
 166      B4ABDA64 
 166      8D752211 
 166      13
 167 02f7 4A6F3087 		.ascii	"Jo0\207Bl\302P,\3774$\223\205hQ\270\355\332&\346:\305"
 167      426CC250 
 167      2CFF3424 
 167      93856851 
 167      B8EDDA26 
 168 030e 1317D2C6 		.ascii	"\023\027\322\306\313\326\305\204C?>i\332\250,\227\214"
 168      CBD6C584 
 168      433F3E69 
 168      DAA82C97 
 168      8C
ARM GAS  /tmp/ccPllA0j.s 			page 13


 169 031f 16F0593C 		.ascii	"\026\360Y<\014\332\036hU\023\\Ne\321\345\030\030\015"
 169      0CDA1E68 
 169      55135C4E 
 169      65D1E518 
 169      180D
 170 0331 2BF84BF5 		.ascii	"+\370K\365\012\016\247\015f\327\200\035U\203]K\005\314"
 170      0A0EA70D 
 170      66D7801D 
 170      55835D4B 
 170      05CC
 171 0343 6ECCECB8 		.ascii	"n\314\354\270\032\354\367\264\301\264\314N\250\301\376"
 171      1AECF7B4 
 171      C1B4CC4E 
 171      A8C1FE
 172 0352 48056C44 		.ascii	"H\005lD\242\240h\342\023\333\015\005|\224mW\307X\244"
 172      A2A068E2 
 172      13DB0D05 
 172      7C946D57 
 172      C758A4
 173 0365 4EB036C8 		.ascii	"N\2606\310\332S\254=\315\332N\326v\263\366'\326\376"
 173      DA53AC3D 
 173      CDDA4ED6 
 173      76B3F627 
 173      D6FE
 174 0377 CCDA5F58 		.ascii	"\314\332_X\373\253:\276\306'\262\340\2055\317\320j\326"
 174      FBAB3ABE 
 174      C627B2E0 
 174      8535CFD0 
 174      6AD6
 175 0389 01A7000E 		.ascii	"\001\247\000\016\335\325\2555\315\311@\332\352\215\252"
 175      DDD5AD35 
 175      CDC940DA 
 175      EA8DAA
 176 0398 CD750088 		.ascii	"\315u\000\210_T\036{\306\241Gl\236\375O\266\307\302"
 176      5F541E7B 
 176      C6A1476C 
 176      9EFD4FB6 
 176      C7C2
 177 03aa 12BBBBA2 		.ascii	"\022\273\273\242\263\011\257\252#\335\243\225\363\356"
 177      B309AFAA 
 177      23DDA395 
 177      F3EE
 178 03b8 6253BA88 		.ascii	"bS\272\210v5b\260\355\014\0046\235#\361\325;\270\216"
 178      763562B0 
 178      ED0C0436 
 178      9D23F1D5 
 178      3BB88E
 179 03cb 1D896FB1 		.ascii	"\035\211o\261\371\033L\372*e\321U)\213\266\360X\254"
 179      F91B4CFA 
 179      2A65D155 
 179      298BB6F0 
 179      58AC
 180 03dd B14EF4EC 		.ascii	"\261N\364\354\2616\025+\342\355\360\3613j\277*\243\016"
 180      B136152B 
 180      E2EDF0F1 
 180      336ABF2A 
 180      A30E
ARM GAS  /tmp/ccPllA0j.s 			page 14


 181 03ef B08C3AC8 		.ascii	"\260\214:\310r\343\006ko&\313\020\012\261\027B\027\305"
 181      72E3066B 
 181      6F26CB10 
 181      0AB11742 
 181      17C5
 182 0401 9B1D2BA6 		.ascii	"\233\035+\246\034\332\244\263\370\005\324JH\023\274"
 182      1CDAA4B3 
 182      F805D44A 
 182      4813BC
 183 0410 CD04CDF0 		.ascii	"\315\004\315\3606c\226T9\264\223\015k\301C\015\016f"
 183      36639654 
 183      39B4930D 
 183      6BC1430D 
 183      0E66
 184 0422 F2042FA2 		.ascii	"\362\004/\242\255\324\365_]-.\224B\212\022h\311tncN"
 184      ADD4F55F 
 184      5D2D2E94 
 184      428A1268 
 184      C9746E63 
 185 0437 6DAFF43A 		.ascii	"m\257\364:\025\274\277\344[\330\376\311\277\221H\235"
 185      15BCBFE4 
 185      5BD8FEC9 
 185      BF91489D 
 186 0447 59FB3225 		.ascii	"Y\3732%\340\211\203\015\015\275\257=\320K\304\2427\022"
 186      E089830D 
 186      0DBDAF3D 
 186      D04BC4A2 
 186      3712
 187 0459 23BD0BBE 		.ascii	"#\275\013\276\210\353\002r\267\264PR\027\360\237@Q\300"
 187      88EB0272 
 187      B7B45052 
 187      17F09F40 
 187      51C0
 188 046b F7125B2F 		.ascii	"\367\022[/\253\035v\027*\331|\204\001\033\253\311t\230"
 188      AB1D7617 
 188      2AD97C84 
 188      011BABC9 
 188      7498
 189 047d D308594E 		.ascii	"\323\010YN\026gcf\034\222\2654Y\360 \256\233\316w\331"
 189      16676366 
 189      1C92B534 
 189      59F020AE 
 189      9BCE77D9 
 190 0491 FCB5E148 		.ascii	"\374\265\341Hd\263=u\037=J\340\2434\336T\333\367Ho\252"
 190      64B33D75 
 190      1F3D4AE0 
 190      A334DE54 
 190      DBF7486F 
 191 04a6 B51CB5F5 		.ascii	"\265\034\265\365\304c+g;~\222\227@]l\272\014\322\363"
 191      C4632B67 
 191      3B7E9297 
 191      405D6CBA 
 191      0CD2F3
 192 04b9 E125532C 		.ascii	"\341%S,=\225\000\365\246\024\240\0034@\022\351\213\014"
 192      3D9500F5 
 192      A614A003 
 192      344012E9 
ARM GAS  /tmp/ccPllA0j.s 			page 15


 192      8B0C
 193 04cb DD588D8E 		.ascii	"\335X\215\2162\012P\257>@\365\334c\001\012\373\303\367"
 193      320A50AF 
 193      3E40F5DC 
 193      63010AFB 
 193      C3F7
 194 04dd 37FD508F 		.ascii	"7\375P\217\033\353\002\335\344651\365(5p\306\257\246"
 194      1BEB02DD 
 194      E4363531 
 194      F5283570 
 194      C6AFA6
 195 04f0 7294C25B 		.ascii	"r\224\302[\2039\353bQ\312P \260\022%\372\331\200\213"
 195      8339EB62 
 195      51CA5020 
 195      B01225FA 
 195      D9808B
 196 0503 0E263939 		.ascii	"\016&99\361\307\012x\005G\313\312J\311\\\366H\352+\275"
 196      F1C70A78 
 196      0547CBCA 
 196      4AC95CF6 
 196      48EA2BBD 
 197 0517 08A6C158 		.ascii	"\010\246\301Xl\216\367\005\202\001$V5\262\361\023\316"
 197      6C8EF705 
 197      82012456 
 197      35B2F113 
 197      CE
 198 0528 A82C3598 		.ascii	"\250,5\230\265qW\0065\306ur[{'^ON\321o/\037\246\341"
 198      B5715706 
 198      35C67572 
 198      5B7B275E 
 198      4F4ED16F 
 199 0540 E2559C6E 		.ascii	"\342U\234n!t\304)\026\321{9\031tDW\033\020]\253%\372"
 199      2174C429 
 199      16D17B39 
 199      19744457 
 199      1B105DAB 
 200 0556 3C6A21E7 		.ascii	"<j!\347\316\205\257]Y\207\227\006\026\371\311\243H\004"
 200      CE85AF5D 
 200      59879706 
 200      16F9C9A3 
 200      4804
 201 0568 0F407EF6 		.ascii	"\017@~\366r\275\016\366\344\345\000.\323\234\253\320"
 201      72BD0EF6 
 201      E4E5002E 
 201      D39CABD0 
 202 0578 947CA31E 		.ascii	"\224|\243\036\265\322p\224\200?\343\006\260\036\013"
 202      B5D27094 
 202      803FE306 
 202      B01E0B
 203 0587 37896EF6 		.ascii	"7\211n\3666\253\241\371\033T1\263Yc\235L\215!\312(\260"
 203      36ABA1F9 
 203      1B5431B3 
 203      59639D4C 
 203      8D21CA28 
 204 059c 759759B7 		.ascii	"u\227Y\267\011\350Hp\350\200\234!\317\241\223\346\215"
 204      09E84870 
 204      E8809C21 
ARM GAS  /tmp/ccPllA0j.s 			page 16


 204      CFA193E6 
 204      8D
 205 05ad B438AC67 		.ascii	"\2648\254g\254$\353\203\017:I\206\277v)\215\222\201"
 205      AC24EB83 
 205      0F3A4986 
 205      BF76298D 
 205      9281
 206 05bf EDBA4F23 		.ascii	"\355\272O#\006\266?\366\001\245%m\333\267\030\330\036"
 206      06B63FF6 
 206      01A5256D 
 206      DBB718D8 
 206      1E
 207 05d0 CD47CD28 		.ascii	"\315G\315(\3506s\272-@G\202C\337Em\277,\331\036P\333"
 207      E83673BA 
 207      2D404782 
 207      43DF456D 
 207      BF2CD91E 
 208 05e6 FE7D5732 		.ascii	"\376}W2\333\253\024\300\254D\266\353FA\231M\333\366"
 208      DBAB14C0 
 208      AC44B6EB 
 208      4641994D 
 208      DBF6
 209 05f8 1D06B6F7 		.ascii	"\035\006\266\367\327\330\276Co\273\252L\352Hp\350\267"
 209      D7D8BE43 
 209      6FBBAA4C 
 209      EA4870E8 
 209      B7
 210 0609 A8ED7F49 		.ascii	"\250\355\177I\266oc\254t\007OZ\322\214H\355\216\225"
 210      B66F63AC 
 210      74074F5A 
 210      D28C48ED 
 210      8E95
 211 061b 029D164D 		.ascii	"\002\235\026M!#\255=1-;\332L\337\2167v\022\273=Z\244"
 211      2123AD3D 
 211      312D3BDA 
 211      4CDF8E37 
 211      7612BB3D 
 212 0631 5BD4455A 		.ascii	"[\324EZ\207\033H\200\273\327\220\315\266\004Z\373\014"
 212      871B4880 
 212      BBD790CD 
 212      B6045AFB 
 212      0C
 213 0642 B55625B0 		.ascii	"\265V%\260\274-\246\205\206{=\363\034\223\313=\363<"
 213      BC2DA685 
 213      867B3DF3 
 213      1C93CB3D 
 213      F33C
 214 0654 4525FC98 		.ascii	"E%\374\230\361yc\362\3069\034\225>G\271\340u\370\252"
 214      F17963F2 
 214      C6391C95 
 214      3E47B9E0 
 214      75F8AA
 215 0667 5D8E2AC1 		.ascii	"]\216*\301\233\347B\257'\030UUY-\372\034%\263f\216\315"
 215      9BE742AF 
 215      27185555 
 215      592DFA1C 
 215      25B3668E 
ARM GAS  /tmp/ccPllA0j.s 			page 17


 216 067c 77CC9851 		.ascii	"w\314\230Q\340\230Z<\255\350\375|\252\310{\275\245y"
 216      E0985A3C 
 216      ADE8FD7C 
 216      AAC87BBD 
 216      A579
 217 068e E5C8E6A9 		.ascii	"\345\310\346\251\244c\026\010\276\367x\261\317\324\267"
 217      A4631608 
 217      BEF778B1 
 217      CFD4B7
 218 069d 67DB27A3 		.ascii	"g\333'\243g\0355\276j\207\247\302\345\255)u;*\334\037"
 218      671D35BE 
 218      6A87A7C2 
 218      E5AD2975 
 218      3B2ADC1F 
 219 06b1 D0097C62 		.ascii	"\320\011|b\251\247B\004\215\214\032\370\035\233\317"
 219      A9A74204 
 219      8D8C1AF8 
 219      1D9BCF
 220 06c0 8BA3E20D 		.ascii	"\213\243\342\015[ \270\312=\025n\007_\352.\023j\274"
 220      5B20B8CA 
 220      3D156E07 
 220      5FEA2E13 
 220      6ABC
 221 06d2 222F2EAC 		.ascii	"\"/.\254r\373@-\223\347\025\305\227\022\020V\340\250"
 221      72FB402D 
 221      93E715C5 
 221      97121056 
 221      E0A8
 222 06e4 69E5C832 		.ascii	"i\345\3102\255hR\215\317\346\023\027\200\336\374*O%"
 222      AD68528D 
 222      CFE61317 
 222      80DEFC2A 
 222      4F25
 223 06f6 2F5A6616 		.ascii	"/Zf\026\025Lq\366)\232\365N\361\024g\337\242\222\342"
 223      154C71F6 
 223      299AF54E 
 223      F11467DF 
 223      A292E2
 224 0709 29530A9C 		.ascii	")S\012\234\226\342\331\305\005N\3234\220\242\002'\236"
 224      96E2D9C5 
 224      054ED334 
 224      90A20227 
 224      9E
 225 071a C3388E19 		.ascii	"\3038\216\031\317\213\362\254\264k\362\271E\213\313"
 225      CF8BF2AC 
 225      B46BF2B9 
 225      458BCB
 226 0729 EB16AA71 		.ascii	"\353\026\252q\241yR\211\323i\2361y\272\323\374\346["
 226      A1795289 
 226      D3699E31 
 226      79BAD3FC 
 226      E65B
 227 073b CE19B429 		.ascii	"\316\031\264)4Mr:3%oxJ\301\027R\307L=c\243\030|\231"
 227      344D723A 
 227      33256F78 
 227      4AC11752 
 227      C74C3D63 
ARM GAS  /tmp/ccPllA0j.s 			page 18


 228 0753 E0135F85 		.ascii	"\340\023_\205\007\225ee\000\225\011\014\235n\241\024"
 228      07956565 
 228      0095090C 
 228      9D6EA114 
 229 0763 F899E6D5 		.ascii	"\370\231\346\325\370\372\301\355\234j\217\350\206{\363"
 229      F8FAC1ED 
 229      9C6A8FE8 
 229      867BF3
 230 0772 3C8FE8CB 		.ascii	"<\217\350\313\360T.\250,u\363b\177xR\342\026\341\377"
 230      F0542EA8 
 230      2C75F362 
 230      7F7852E2 
 230      16E1FF
 231 0785 99706FA6 		.ascii	"\231po\246\177\346\0328\240Z\214\332\357*\367-\244n"
 231      7FE61A38 
 231      A05A8CDA 
 231      EF2AF72D 
 231      A46E
 232 0797 33BBCA85 		.ascii	"3\273\312\205j\253\253\274d\241\257P\360\212\203y9t"
 232      6AABABBC 
 232      64A1AF50 
 232      F08A8379 
 232      3974
 233 07a9 3C50985F 		.ascii	"<P\230_]YSE\3612x\276\254\246\302\305\363\375\225N\336"
 233      5D595345 
 233      F13278BE 
 233      ACA6C2C5 
 233      F3FD954E 
 234 07be 2BE3F2C7 		.ascii	"+\343\362\307\365\213QD\232'\023l*\266\232Gc\307"
 234      F58B5144 
 234      9A27136C 
 234      2AB69A47 
 234      63C7
 235 07d0 6569E8A2 		.ascii	"ei\350\242\377\000\223E\363A"
 235      FF009345 
 235      F341
 236              		.text
 237              		.section	.gnu.lto_.symtab.6672b8367368ebb9,"",%progbits
 238 0000 70616C52 		.ascii	"palReadBus\000\000\000\000\000\000\000\000\000\000\000"
 238      65616442 
 238      75730000 
 238      00000000 
 238      00000000 
 239 0015 00A10000 		.ascii	"\000\241\000\000\000palWriteBus\000\000\000\000\000"
 239      0070616C 
 239      57726974 
 239      65427573 
 239      00000000 
 240 002a 00000000 		.ascii	"\000\000\000\000\000\000\000\364\000\000\000palSetB"
 240      000000F4 
 240      00000070 
 240      616C5365 
 240      7442
 241 003c 75734D6F 		.ascii	"usMode\000\000\000\000\000\000\000\000\000\000\000\000"
 241      64650000 
 241      00000000 
 241      00000000 
ARM GAS  /tmp/ccPllA0j.s 			page 19


 241      0000
 242 004e FD000000 		.ascii	"\375\000\000\000chSysHalt\000\000\002\000\000\000\000"
 242      63685379 
 242      7348616C 
 242      74000002 
 242      00000000 
 243 0062 00000000 		.ascii	"\000\000\000\000\000\011\001\000\000_pal_lld_setgro"
 243      00090100 
 243      005F7061 
 243      6C5F6C6C 
 243      645F7365 
 244 007a 75706D6F 		.ascii	"upmode\000\000\002\000\000\000\000\000\000\000\000\000"
 244      64650000 
 244      02000000 
 244      00000000 
 244      0000
 245 008c 12010000 		.ascii	"\022\001\000\000"
 246              		.text
 247              		.section	.gnu.lto_.opts,"",%progbits
 248 0000 272D6D63 		.ascii	"'-mcpu=cortex-m4' '-mno-thumb-interwork' '-mthumb' "
 248      70753D63 
 248      6F727465 
 248      782D6D34 
 248      2720272D 
 249 0033 272D6767 		.ascii	"'-ggdb' '-O0' '-fomit-frame-pointer' '-falign-funct"
 249      64622720 
 249      272D4F30 
 249      2720272D 
 249      666F6D69 
 250 0066 696F6E73 		.ascii	"ions=16' '-ffunction-sections' '-fdata-sections' '-"
 250      3D313627 
 250      20272D66 
 250      66756E63 
 250      74696F6E 
 251 0099 666E6F2D 		.ascii	"fno-common' '-flto'\000"
 251      636F6D6D 
 251      6F6E2720 
 251      272D666C 
 251      746F2700 
 252              		.text
 253              		.cfi_sections	.debug_frame
 254              		.section	.text.palReadBus,"ax",%progbits
 255              		.align	2
 256              		.p2align 4,,15
 257              		.global	palReadBus
 258              		.thumb
 259              		.thumb_func
 260              		.type	palReadBus, %function
 261              	palReadBus:
 262              	.LFB272:
 263              		.file 1 "lib/ChibiOS_16.1.4//os/hal/src/pal.c"
 264              		.loc 1 65 0
 265              		.cfi_startproc
 266              		@ args = 0, pretend = 0, frame = 8
 267              		@ frame_needed = 0, uses_anonymous_args = 0
 268 0000 00B5     		push	{lr}
 269              		.cfi_def_cfa_offset 4
ARM GAS  /tmp/ccPllA0j.s 			page 20


 270              		.cfi_offset 14, -4
 271 0002 83B0     		sub	sp, sp, #12
 272              		.cfi_def_cfa_offset 16
 273 0004 0190     		str	r0, [sp, #4]
 274              		.loc 1 67 0
 275 0006 019B     		ldr	r3, [sp, #4]
 276 0008 002B     		cmp	r3, #0
 277 000a 03D0     		beq	.L2
 278              		.loc 1 67 0 is_stmt 0 discriminator 2
 279 000c 019B     		ldr	r3, [sp, #4]
 280 000e 9B68     		ldr	r3, [r3, #8]
 281 0010 0F2B     		cmp	r3, #15
 282 0012 05D9     		bls	.L3
 283              	.L2:
 284              		.loc 1 67 0 discriminator 1
 285 0014 40F20000 		movw	r0, #:lower16:__func__.7424
 286 0018 C0F20000 		movt	r0, #:upper16:__func__.7424
 287 001c FFF7FEFF 		bl	chSysHalt
 288              	.L3:
 289              		.loc 1 69 0 is_stmt 1
 290 0020 019B     		ldr	r3, [sp, #4]
 291 0022 1B68     		ldr	r3, [r3]
 292 0024 1A69     		ldr	r2, [r3, #16]
 293 0026 019B     		ldr	r3, [sp, #4]
 294 0028 9B68     		ldr	r3, [r3, #8]
 295 002a DA40     		lsrs	r2, r2, r3
 296 002c 019B     		ldr	r3, [sp, #4]
 297 002e 5B68     		ldr	r3, [r3, #4]
 298 0030 1340     		ands	r3, r3, r2
 299              		.loc 1 70 0
 300 0032 1846     		mov	r0, r3
 301 0034 03B0     		add	sp, sp, #12
 302              		@ sp needed
 303 0036 5DF804FB 		ldr	pc, [sp], #4
 304              		.cfi_endproc
 305              	.LFE272:
 306              		.size	palReadBus, .-palReadBus
 307 003a 00BFAFF3 		.section	.text.palWriteBus,"ax",%progbits
 307      0080
 308              		.align	2
 309              		.p2align 4,,15
 310              		.global	palWriteBus
 311              		.thumb
 312              		.thumb_func
 313              		.type	palWriteBus, %function
 314              	palWriteBus:
 315              	.LFB273:
 316              		.loc 1 90 0
 317              		.cfi_startproc
 318              		@ args = 0, pretend = 0, frame = 8
 319              		@ frame_needed = 0, uses_anonymous_args = 0
 320 0000 00B5     		push	{lr}
 321              		.cfi_def_cfa_offset 4
 322              		.cfi_offset 14, -4
 323 0002 83B0     		sub	sp, sp, #12
 324              		.cfi_def_cfa_offset 16
 325 0004 0190     		str	r0, [sp, #4]
ARM GAS  /tmp/ccPllA0j.s 			page 21


 326 0006 0091     		str	r1, [sp]
 327              		.loc 1 92 0
 328 0008 019B     		ldr	r3, [sp, #4]
 329 000a 002B     		cmp	r3, #0
 330 000c 03D0     		beq	.L6
 331              		.loc 1 92 0 is_stmt 0 discriminator 2
 332 000e 019B     		ldr	r3, [sp, #4]
 333 0010 9B68     		ldr	r3, [r3, #8]
 334 0012 0F2B     		cmp	r3, #15
 335 0014 05D9     		bls	.L7
 336              	.L6:
 337              		.loc 1 92 0 discriminator 1
 338 0016 40F20000 		movw	r0, #:lower16:__func__.7429
 339 001a C0F20000 		movt	r0, #:upper16:__func__.7429
 340 001e FFF7FEFF 		bl	chSysHalt
 341              	.L7:
 342              		.loc 1 94 0 is_stmt 1
 343 0022 019B     		ldr	r3, [sp, #4]
 344 0024 1B68     		ldr	r3, [r3]
 345 0026 009A     		ldr	r2, [sp]
 346 0028 D143     		mvns	r1, r2
 347 002a 019A     		ldr	r2, [sp, #4]
 348 002c 5268     		ldr	r2, [r2, #4]
 349 002e 1140     		ands	r1, r1, r2
 350 0030 019A     		ldr	r2, [sp, #4]
 351 0032 9268     		ldr	r2, [r2, #8]
 352 0034 1032     		adds	r2, r2, #16
 353 0036 9140     		lsls	r1, r1, r2
 354 0038 019A     		ldr	r2, [sp, #4]
 355 003a 5068     		ldr	r0, [r2, #4]
 356 003c 009A     		ldr	r2, [sp]
 357 003e 1040     		ands	r0, r0, r2
 358 0040 019A     		ldr	r2, [sp, #4]
 359 0042 9268     		ldr	r2, [r2, #8]
 360 0044 00FA02F2 		lsl	r2, r0, r2
 361 0048 0A43     		orrs	r2, r2, r1
 362 004a 9A61     		str	r2, [r3, #24]
 363              		.loc 1 95 0
 364 004c 03B0     		add	sp, sp, #12
 365              		@ sp needed
 366 004e 5DF804FB 		ldr	pc, [sp], #4
 367              		.cfi_endproc
 368              	.LFE273:
 369              		.size	palWriteBus, .-palWriteBus
 370 0052 00BFAFF3 		.section	.text.palSetBusMode,"ax",%progbits
 370      0080AFF3 
 370      0080AFF3 
 370      0080
 371              		.align	2
 372              		.p2align 4,,15
 373              		.global	palSetBusMode
 374              		.thumb
 375              		.thumb_func
 376              		.type	palSetBusMode, %function
 377              	palSetBusMode:
 378              	.LFB274:
 379              		.loc 1 113 0
ARM GAS  /tmp/ccPllA0j.s 			page 22


 380              		.cfi_startproc
 381              		@ args = 0, pretend = 0, frame = 8
 382              		@ frame_needed = 0, uses_anonymous_args = 0
 383 0000 00B5     		push	{lr}
 384              		.cfi_def_cfa_offset 4
 385              		.cfi_offset 14, -4
 386 0002 83B0     		sub	sp, sp, #12
 387              		.cfi_def_cfa_offset 16
 388 0004 0190     		str	r0, [sp, #4]
 389 0006 0091     		str	r1, [sp]
 390              		.loc 1 115 0
 391 0008 019B     		ldr	r3, [sp, #4]
 392 000a 002B     		cmp	r3, #0
 393 000c 03D0     		beq	.L9
 394              		.loc 1 115 0 is_stmt 0 discriminator 2
 395 000e 019B     		ldr	r3, [sp, #4]
 396 0010 9B68     		ldr	r3, [r3, #8]
 397 0012 0F2B     		cmp	r3, #15
 398 0014 05D9     		bls	.L10
 399              	.L9:
 400              		.loc 1 115 0 discriminator 1
 401 0016 40F20000 		movw	r0, #:lower16:__func__.7434
 402 001a C0F20000 		movt	r0, #:upper16:__func__.7434
 403 001e FFF7FEFF 		bl	chSysHalt
 404              	.L10:
 405              		.loc 1 117 0 is_stmt 1
 406 0022 019B     		ldr	r3, [sp, #4]
 407 0024 1A68     		ldr	r2, [r3]
 408 0026 019B     		ldr	r3, [sp, #4]
 409 0028 5968     		ldr	r1, [r3, #4]
 410 002a 019B     		ldr	r3, [sp, #4]
 411 002c 9B68     		ldr	r3, [r3, #8]
 412 002e 01FA03F3 		lsl	r3, r1, r3
 413 0032 1046     		mov	r0, r2
 414 0034 1946     		mov	r1, r3
 415 0036 009A     		ldr	r2, [sp]
 416 0038 FFF7FEFF 		bl	_pal_lld_setgroupmode
 417              		.loc 1 118 0
 418 003c 03B0     		add	sp, sp, #12
 419              		@ sp needed
 420 003e 5DF804FB 		ldr	pc, [sp], #4
 421              		.cfi_endproc
 422              	.LFE274:
 423              		.size	palSetBusMode, .-palSetBusMode
 424 0042 00BFAFF3 		.section	.rodata.__func__.7424,"a",%progbits
 424      0080AFF3 
 424      0080AFF3 
 424      0080
 425              		.align	2
 426              		.type	__func__.7424, %object
 427              		.size	__func__.7424, 11
 428              	__func__.7424:
 429 0000 70616C52 		.ascii	"palReadBus\000"
 429      65616442 
 429      757300
 430 000b 00       		.section	.rodata.__func__.7429,"a",%progbits
 431              		.align	2
ARM GAS  /tmp/ccPllA0j.s 			page 23


 432              		.type	__func__.7429, %object
 433              		.size	__func__.7429, 12
 434              	__func__.7429:
 435 0000 70616C57 		.ascii	"palWriteBus\000"
 435      72697465 
 435      42757300 
 436              		.section	.rodata.__func__.7434,"a",%progbits
 437              		.align	2
 438              		.type	__func__.7434, %object
 439              		.size	__func__.7434, 14
 440              	__func__.7434:
 441 0000 70616C53 		.ascii	"palSetBusMode\000"
 441      65744275 
 441      734D6F64 
 441      6500
 442 000e 0000     		.text
 443              	.Letext0:
 444              		.file 2 "/usr/include/newlib/machine/_default_types.h"
 445              		.file 3 "/usr/include/newlib/stdint.h"
 446              		.file 4 "lib/ChibiOS_16.1.4//os/rt/ports/ARMCMx/compilers/GCC/chtypes.h"
 447              		.file 5 "lib/ChibiOS_16.1.4//os/rt/include/chsystypes.h"
 448              		.file 6 "lib/ChibiOS_16.1.4//os/rt/include/chschd.h"
 449              		.file 7 "lib/ChibiOS_16.1.4//os/rt/ports/ARMCMx/chcore.h"
 450              		.file 8 "lib/ChibiOS_16.1.4//os/rt/ports/ARMCMx/chcore_v7m.h"
 451              		.file 9 "lib/ChibiOS_16.1.4//os/rt/include/chdebug.h"
 452              		.file 10 "lib/ChibiOS_16.1.4//os/rt/include/chtm.h"
 453              		.file 11 "lib/ChibiOS_16.1.4//os/rt/include/chstats.h"
 454              		.file 12 "lib/ChibiOS_16.1.4//os/rt/include/chsem.h"
 455              		.file 13 "lib/ChibiOS_16.1.4//os/rt/include/chmtx.h"
 456              		.file 14 "lib/ChibiOS_16.1.4//os/hal/ports/STM32/LLD/GPIOv2/pal_lld.h"
 457              		.file 15 "lib/ChibiOS_16.1.4//os/hal/include/pal.h"
 458              		.file 16 "lib/ChibiOS_16.1.4//os/ext/CMSIS/include/core_cm4.h"