ARM GAS  /tmp/ccwvQ9CH.s 			page 1


   1              		.syntax unified
   2              		.cpu cortex-m4
   3              		.fpu softvfp
   4              		.eabi_attribute 20, 1
   5              		.eabi_attribute 21, 1
   6              		.eabi_attribute 23, 3
   7              		.eabi_attribute 24, 1
   8              		.eabi_attribute 25, 1
   9              		.eabi_attribute 26, 1
  10              		.eabi_attribute 30, 6
  11              		.eabi_attribute 34, 1
  12              		.eabi_attribute 18, 4
  13              		.thumb
  14              		.file	"pal_lld.c"
  15              		.text
  16              	.Ltext0:
  17              		.section	.gnu.lto_.inline.efe28093bb793552,"",%progbits
  18 0000 789C6362 		.ascii	"x\234cb`b\300\006\262\24143\003\203\240\000\003\003"
  18      6062C006 
  18      B2A13433 
  18      0383A000 
  18      0303
  19 0012 935CC32F 		.ascii	"\223\\\303/F\006\026\210bF\006\225/@\212\211\257\241"
  19      46061688 
  19      62460695 
  19      2F408A89 
  19      AFA1
  20 0024 1626C4CC 		.ascii	"\026&\304\314C\002\301\304p\231\341\022\210^\304\270"
  20      4302C1C4 
  20      7099E112 
  20      885EC4B8 
  21 0034 A0910B66 		.ascii	"\240\221\013f\004\003\000\340U\010e"
  21      040300E0 
  21      550865
  22              		.text
  23              		.section	.gnu.lto_initgpio.efe28093bb793552,"",%progbits
  24 0000 789C9D92 		.ascii	"x\234\235\222\277K\303@\024\200\337\313\357F\005\005"
  24      BF4BC340 
  24      1480DFCB 
  24      EF460505 
  25 0010 1707A1E8 		.ascii	"\027\007\241\350(4X\305\277@\020\241\242`\005\235\244"
  25      283458C5 
  25      BF4010A1 
  25      A260059D 
  25      A4
  26 0021 56A88548 		.ascii	"V\250\205H\213\025\327\246\305ADJ(\"\245\"\325M\\\272"
  26      8B15D7A6 
  26      C541444A 
  26      2822A522 
  26      D54D5CBA 
  27 0035 3A1607C1 		.ascii	":\026\007\301\241P7\021\207\240\210\377B]\214w\311U"
  27      A1503711 
  27      87A088FF 
  27      425D8C77 
  27      C955
  28 0047 A343D03B 		.ascii	"\243C\320;\222\227w\334}\367\275\360N\000\001~\217a"
  28      929777DC 
ARM GAS  /tmp/ccwvQ9CH.s 			page 2


  28      7DF7BDF0 
  28      4E00017E 
  28      8F61
  29 0059 F2BE4B00 		.ascii	"\362\276K\0003t\"\002\222\035( \222\011BQ\300\342\032"
  29      33742202 
  29      921D2820 
  29      92094251 
  29      C0E21A
  30 006c 4D411D83 		.ascii	"MA\035\203\013\313\252:\257\215\263\221\303\363\262"
  30      0BCBAA3A 
  30      AF8DB391 
  30      C3F3B2
  31 007b 6D7DB82E 		.ascii	"m}\270.f\351R\032a\225d\030\365>\202\364\363t\037k\331"
  31      66E9521A 
  31      61956418 
  31      F53E82F4 
  31      F3741F6B 
  32 0090 B747BA5D 		.ascii	"\267G\272]:\260\\\267\370w\250\312\003\035\363@'<P\215"
  32      3AB05CB7 
  32      F877A8CA 
  32      031DF340 
  32      273C508D 
  33 00a4 07AAFF0B 		.ascii	"\007\252\377\013j\012-\307u\237\232oN\005\207t\304m"
  33      6A0A2DC7 
  33      759F9A6F 
  33      4E058774 
  33      C46D
  34 00b6 240D249C 		.ascii	"$\015$\234H2\224h&\323\240\320\240\322\240\321\020\001"
  34      48329468 
  34      26D3A0D0 
  34      A0D2A0D1 
  34      1001
  35 00c8 EF68B2B6 		.ascii	"\357h\262\266oYv\324\223\220\221\364\342\012m\260\330"
  35      6F5976D4 
  35      939091F4 
  35      E20A6DB0 
  35      D8
  36 00d9 86F263B7 		.ascii	"\206\362c\2671\232\302K\224!\203\302\004\\Y\203Y\024"
  36      319AC24B 
  36      942183C2 
  36      045C5983 
  36      5914
  37 00eb 4FA14ECA 		.ascii	"O\241N\312\2202\210\264\034\331+b\003{\345\264\341\346"
  37      903288B4 
  37      1CD92B62 
  37      037BE5B4 
  37      E1E6
  38 00fd AEA3FB10 		.ascii	"\256\243\373\020%\366K\326d\026\025\037R3(RHc\220Oe"
  38      25F64BD6 
  38      6416151F 
  38      52332852 
  38      4863904F 
  39 0112 A88EDA6A 		.ascii	"\250\216\332j\317\035\261\247\223\302u\002\217Nd:\311"
  39      CF1DB1A7 
  39      93C27502 
  39      8F4E643A 
  39      C9
ARM GAS  /tmp/ccwvQ9CH.s 			page 3


  40 0123 D75D0774 		.ascii	"\327]\007tr\270N\342\321\311L'\373\272\207\200N\011"
  40      72B84EE2 
  40      D1C94C27 
  40      FBBA8780 
  40      4E09
  41 0135 D7293C3A 		.ascii	"\327)<:\225\351\024_\327\015\350\324p\235\306\243\213"
  41      95E9145F 
  41      D70DE8D4 
  41      709DC6A3 
  41      8B
  42 0146 309DCA7A 		.ascii	"0\235\312z\367\362\255\323\302u:\217\256\217\3514\326"
  42      F7F2ADD3 
  42      C2753A8F 
  42      AE8FE934 
  42      D6
  43 0157 BB802E12 		.ascii	"\273\200.\022\256\353\347\321\0150\035\371\313{(9\225"
  43      AEEBE7D1 
  43      0D301DF9 
  43      CB7B2839 
  43      95
  44 0168 719FEB8D 		.ascii	"q\237\353\215$\275\272\364\016N\307b\306\327\223+\030"
  44      24BDBAF4 
  44      0E4EC762 
  44      C6D7932B 
  44      18
  45 0179 5B29D3C8 		.ascii	"[)\323\310\347vv\013\306rra*n$\022\263\306\334\322\374"
  45      E776760B 
  45      C6727261 
  45      2A6E2412 
  45      B3C6DCD2 
  46 018e E25EDCC8 		.ascii	"\342^\334\310\247\314u\323\334\214\245\341\023\340;"
  46      A7CC75D3 
  46      DC8CA5E1 
  46      13E03B
  47 019d 198A     		.ascii	"\031\212"
  48              		.text
  49              		.section	.gnu.lto__pal_lld_init.efe28093bb793552,"",%progbits
  50 0000 789CDD94 		.ascii	"x\234\335\224\317k\023A\024\307\337\333\331M\262\371"
  50      CF6B1341 
  50      14C7DFDB 
  50      D94DB2F9 
  51 0010 9DD88B78 		.ascii	"\235\330\213x)\202'!\013U\304?\240 \205\212\202\021"
  51      29822721 
  51      0B55C43F 
  51      A020858A 
  51      8211
  52 0022 D48BC408 		.ascii	"\324\213\304\0105\020i\261\332\213\207L\332\024\202"
  52      351069B1 
  52      DA8B874C 
  52      DA1482
  53 0031 540CD243 		.ascii	"T\014\322C\255\227\210\227(\210% \266\267\340\245 \004"
  53      AD978897 
  53      28882520 
  53      B6B7E0A5 
  53      2004
  54 0043 EDC59387 		.ascii	"\355\305\223\207(xW\021\221\242]\347\355dwc\233\302"
  54      28785711 
ARM GAS  /tmp/ccwvQ9CH.s 			page 4


  54      91A25DE7 
  54      ED647763 
  54      9BC2
  55 0055 EE82970E 		.ascii	"\356\202\227\016\233\357\316\360\346\373\375\274I\302"
  55      9BEFCEF0 
  55      E6FBFDBC 
  55      49C2
  56 0063 28A0C0EE 		.ascii	"(\240\300\3561\">]\035\340\024-\030\240\330\201\012"
  56      31223E5D 
  56      1DE0142D 
  56      18A0D881 
  56      0A
  57 0074 A2582054 		.ascii	"\242X T\024\254\\\246)d\216\302\023\316\037\366\026"
  57      14AC5CA6 
  57      29648EC2 
  57      13CE1FF6 
  57      16
  58 0085 7FBE571E 		.ascii	"\177\276W\036-wjM\376\3334\021KT,\"\\\0223\034\265^"
  58      2D776A4D 
  58      FEDB3411 
  58      4B542C22 
  58      5C12331C 
  59 009b 8AFA6FBE 		.ascii	"\212\372o\2764\362v\213\353\226\211\005\363\260\377"
  59      34F2768B 
  59      EB968905 
  59      F3B0FF
  60 00aa E7E9B437 		.ascii	"\347\351\2647\227\242\215j\235\233f\345`\034hk\363\376"
  60      97A28D6A 
  60      9D9B66E5 
  60      601C686B 
  60      F3FE
  61 00bc E17BCDF9 		.ascii	"\341{\315\371\006\337\021?R\011U\217\266\017\203\337"
  61      06DF113F 
  61      5209558F 
  61      B60F83DF 
  62 00cc 8357D3C7 		.ascii	"\203W\323\307 \246\357AL\277\202\230v\202\230\226\337"
  62      20A6EF41 
  62      4CBF8298 
  62      76829896 
  62      DF
  63 00dd 0630AD06 		.ascii	"\0060\255\0061\255\3712\275T:=\323\\z\375\343s\013\263"
  63      31ADF932 
  63      BD543A3D 
  63      D35C7AFD 
  63      E3730BB3 
  64 00f1 8710C43F 		.ascii	"\207\020\304?O!aB\230J\242\3212D\022\246e\204D\307\233"
  64      4F216142 
  64      984AA2D1 
  64      324412A6 
  64      658444C7 
  65 0106 08513153 		.ascii	"\010Q1Sc$q\222\004I\222$E\222&\311\220d\301\352\003"
  65      63247192 
  65      04499224 
  65      459226C9 
  65      9064C1EA 
  66 011b 34A871DE 		.ascii	"4\250q\336\030\265:\022#o\351E\272\035X\027\346\327"
  66      18B53A12 
ARM GAS  /tmp/ccwvQ9CH.s 			page 5


  66      236FE945 
  66      BA1D5817 
  66      E6D7
  67 012d 57C43D50 		.ascii	"W\304=P\3006j0\205H\255\002\377Z\347d\024\325\323vE"
  67      C0366A30 
  67      8548AD02 
  67      FF5AE764 
  67      14D5D376 
  68 0142 D9557973 		.ascii	"\331Uys\305\256\260\343\360\234\327\252\351\022j\217"
  68      C5AEB0E3 
  68      F09CD7AA 
  68      E9126A8F 
  69 0152 6155EC0A 		.ascii	"aU\354\012\331\273\255q\015\355#waa\203\331.U\030i\023"
  69      D9BBAD71 
  69      0DED2377 
  69      616183D9 
  69      2E551869 
  70 0167 3399CC9B 		.ascii	"3\231\314\233\220\225!a\2707l\212\016F\315\267\346\354"
  70      90952161 
  70      B8376C8A 
  70      0E46CDB7 
  70      E6EC
  71 0179 406DDFD6 		.ascii	"@m\337\326C\373\266\036\036B\013\015\322pX\353\021a"
  71      43FBB61E 
  71      1E420B0D 
  71      D27058EB 
  71      1161
  72 018b F4D8BAB6 		.ascii	"\364\330\272\2667L\370\255\366\266\027\236>8bGF\357"
  72      374CF8AD 
  72      F6B6179E 
  72      3E386247 
  72      46EF
  73 019d C236174E 		.ascii	"\3026\027N\2252\032\234\337)aX\206\010\230N!z?d\340"
  73      95321A9C 
  73      DF296158 
  73      8608984E 
  73      217A3F64 
  74 01b2 D67F078B 		.ascii	"\326\177\007\213\235~\002\000\005\324)\"Z\354\203\310"
  74      9D7E0200 
  74      05D42922 
  74      5AEC83C8 
  75 01c2 15E39C4E 		.ascii	"\025\343\234N-\000%\214\367\261/R65\346\231\312|R\353"
  75      2D00258C 
  75      F7B12F52 
  75      3635E699 
  75      CA7C52EB 
  76 01d6 921A73A9 		.ascii	"\222\032s\251\033\0165\356\231\252\372\2446$5\356R\277"
  76      1B0E35EE 
  76      99AAFAA4 
  76      362435EE 
  76      52BF
  77 01e8 38D48467 		.ascii	"8\324\204g\252\346\223\272\"\251\011\227\372\315\241"
  77      AAE693BA 
  77      22A90997 
  77      FACDA1
  78 01f7 263D5343 		.ascii	"&=SC>\251MIM\272\324?\0165\345\231\032\366ImIj\312\245"
  78      3EA94D49 
ARM GAS  /tmp/ccwvQ9CH.s 			page 6


  78      4DBAD43F 
  78      0E35E599 
  78      1AF6496D 
  79 020f 3E1BB1A9 		.ascii	">\033\261\251i\317\324\210O\352\232\244\246]\352+\207"
  79      69CFD488 
  79      4FEA9AA4 
  79      A65DEA2B 
  79      87
  80 0220 9AF14CD5 		.ascii	"\232\361L\325}R\327%5\343R?9\324\254gj\324'\265#\251"
  80      7D52D725 
  80      35E3523F 
  80      39D4AC67 
  80      6AD427B5 
  81 0236 598BBA05 		.ascii	"Y\213\272\005\325^\353\230m\221#O\333\351\0268\231\313"
  81      D55EEB98 
  81      6D91234F 
  81      DBE91638 
  81      99CB
  82 0248 19CE333D 		.ascii	"\031\3163=k\334(\224\215\231\351[\267g\215\013\371\263"
  82      6BDC2894 
  82      8D99E95B 
  82      B7678D0B 
  82      F9B3
  83 025a 27C68CC9 		.ascii	"'\306\214\311\311q\343\314\371\211ssc\306L\241|\265"
  83      C971E3CC 
  83      F9897373 
  83      63C64CA1 
  83      7CB5
  84 026c 5CBE9E2B 		.ascii	"\\\276\236+\302_S\2371\203"
  84      C25F539F 
  84      3183
  85              		.text
  86              		.section	.gnu.lto__pal_lld_setgroupmode.efe28093bb793552,"",%progbits
  87 0000 789CDD59 		.ascii	"x\234\335YYLTW\030>\347\336YX\206\301]\300\015q\337"
  87      594C5457 
  87      183EE7DE 
  87      595886C1 
  87      5DC00D71 
  88 0015 184014DC 		.ascii	"\030@\024\334\212\013* \250i%\301\207\246\242\220Q\013"
  88      8A0B2A20 
  88      A86925C1 
  88      87A6A290 
  88      510B
  89 0027 6132D026 		.ascii	"a2\320&\355C\275841\216\245\226*\212N\325\266>\330&"
  89      ED43BD38 
  89      34318EA5 
  89      962A8A4E 
  89      D5B63ED8 
  90 003c EEA91B0A 		.ascii	"\356\251\033\012\243\351\203\015\332\324\264\215\216"
  90      A3E9830D 
  90      DAD4B48D 
  90      8E
  91 0049 B6517121 		.ascii	"\266Qq!Fbk\211K\242\355\364\377\317\275\347\316\014"
  91      46626B89 
  91      4BA2EDF4 
  91      FFCFBDE7 
  91      CE0C
ARM GAS  /tmp/ccwvQ9CH.s 			page 7


  92 005b 33E9CCDC 		.ascii	"3\351\314\334\207>0\301\357\334\373\177\347\373\317"
  92      873E30C1 
  92      EFDCFB7F 
  92      E7FBCF
  93 006a 77FE73EE 		.ascii	"w\376s\356\2353Q \002\351\375\371\004\376\271S\010\261"
  93      9D335120 
  93      02E9FDF9 
  93      04FEB953 
  93      08B1
  94 007c E34D3F42 		.ascii	"\343M?B\241\007\025\250\010(\012:B$\301\004\240\323"
  94      A10715A8 
  94      08280A3A 
  94      4224C104 
  94      A0D3
  95 008e 097ABC8E 		.ascii	"\011z\274\216\305k\275`\300k#^\033h\014\36442\214\241"
  95      C56BBD60 
  95      C06B235E 
  95      1B680CF4 
  95      34328CA1 
  96 00a2 D095C60A 		.ascii	"\320\225\306\012q\310\306#\033\307\"\361\014MB\002\306"
  96      71C8C623 
  96      1BC722F1 
  96      0C4D4202 
  96      C6
  97 00b3 CD184FA0 		.ascii	"\315\030O\240\211\0201\263Q\022)\205\201)\331$\210:"
  97      891031B3 
  97      51122985 
  97      8129D924 
  97      883A
  98 00c5 BDC11813 		.ascii	"\275\301\030\023\033\027oJ0'\322M\2531N\362\322\310"
  98      1B176F4A 
  98      3027D24D 
  98      AB314EF2 
  98      D2C8
  99 00d7 9792D474 		.ascii	"\227\222\324t\347\343\223w\305\226\035\356\206\003\322"
  99      E7E39377 
  99      C5961DEE 
  99      8603D2
 100 00e6 6BAF97D2 		.ascii	"k\257\227\322\015H\256\243\244\014\256h*k\320\255\377"
 100      0D48AEA3 
 100      A40CAE68 
 100      2A6BD0AD 
 100      FF
 101 00f7 4716BAF7 		.ascii	"G\026\272\367tl\213\333^\277E\362z7E.ri\021\355\323"
 101      746C8BDB 
 101      5EBF45F2 
 101      7A37452E 
 101      726911ED 
 102 010c 22FAAEE3 		.ascii	"\"\372\256\343\323\344\255\0076o\227\376\201iE.ku\036"
 102      D3E4AD07 
 102      366F97FE 
 102      8169452E 
 102      6B751E
 103 011f D42093F6 		.ascii	"\324 \223\366>XyYjp{\275y\221j\266K\267\357\3734bd\032"
 103      3E587959 
 103      6A707BBD 
 103      79916AB6 
ARM GAS  /tmp/ccwvQ9CH.s 			page 8


 103      4BB7EFFB 
 104 0137 F70567C0 		.ascii	"\367\005g\300\254D\201\344\320\310F;qH\212ek,F:Z\223"
 104      AC4481E4 
 104      D0C8463B 
 104      71488A65 
 104      6B2C463A 
 105 014d BBDDB92B 		.ascii	"\273\335\271+\372bl\227.D?1M\366\2569]Z\326\352\325"
 105      FA626C97 
 105      2E443F31 
 105      4DF6AE39 
 105      5D5AD6EA 
 106 0162 FDE8D7AA 		.ascii	"\375\350\327\252\375\177\232\322\317\316}Z\246\264?"
 106      FD7F9AD2 
 106      CFCE7D5A 
 106      A6B43F
 107 0171 EAEDA765 		.ascii	"\352\355\247e\3136Ig\243\327\270\177\3256\245\343\032"
 107      CB364967 
 107      A3D7B87F 
 107      D536A5E3 
 107      1A
 108 0182 EC7DA141 		.ascii	"\354}\241A\323\252aJ\327\265MI\213\275\026\015\232\323"
 108      D3AA614A 
 108      D7B54D49 
 108      8BBD160D 
 108      9AD3
 109 0194 1AA6F4B4 		.ascii	"\032\246\364\264\243\317M\351Y\337\233\322\013\347\376"
 109      A3CF4DE9 
 109      59DF9BD2 
 109      0BE7FE
 110 01a3 BEF62C7D 		.ascii	"\276\366,}\326\330\347\246\264\363\307>\267\361Z\372"
 110      D6D8E7A6 
 110      B4F3C73E 
 110      B7F15AFA 
 111 01b3 DE947639 		.ascii	"\336\224v9\033\223%\337\224t\002\231\027\321Q\252\311"
 111      1B9325DF 
 111      94740299 
 111      17D151AA 
 111      C9
 112 01c4 BDBBC3A4 		.ascii	"\275\273\303\244\036GA\266(B\331\236@YQ\2042W\240\354"
 112      1E4741B6 
 112      2842D99E 
 112      40595184 
 112      3257A0EC 
 113 01d8 CD0865FB 		.ascii	"\315\010e\373\002ee\021\312\216\005\312\336\216Pv\332"
 113      02656511 
 113      CA8E05CA 
 113      DE8E5076 
 113      DA
 114 01e9 B9A35731 		.ascii	"\271\243W1\313#SJ\317*\324\225\003\325\306\010U\177"
 114      CB23534A 
 114      CF2AD495 
 114      03D5C608 
 114      557F
 115 01fb 07A8AA23 		.ascii	"\007\250\252#T\355\254\364W\331\302\251\216\012\356"
 115      54EDACF4 
 115      57D9C2A9 
 115      8E0AEE
ARM GAS  /tmp/ccwvQ9CH.s 			page 9


 116 020a 3B5EAFCB 		.ascii	";^\257\313\323\335y\210\016\\Aq\030\234\327u\232FDh"
 116      D3DD7988 
 116      0E5C4171 
 116      189CD775 
 116      9A464468 
 117 021e 3DD0EAA0 		.ascii	"=\320\352\240\275\005\255\036\332\337\2415@{\027Z#\255"
 117      BD05AD1E 
 117      DADFA135 
 117      407B175A 
 117      23AD
 118 0230 A6F0DB4D 		.ascii	"\246\360\333M\356\034K`W\306)\212x\2741)\262\004\274"
 118      EE1C4B60 
 118      57C6298A 
 118      78BC3129 
 118      B204BC
 119 0243 312BDA44 		.ascii	"1+\332D\274\351\0077\267\341\246\277\222h\000$\"\003"
 119      BCE90737 
 119      B7E1A6BF 
 119      92680024 
 119      2203
 120 0255 91198430 		.ascii	"\221\031\2040\030a\010\2008\024:\334\203\016I\320~\003"
 120      18610880 
 120      38143ADC 
 120      830E49D0 
 120      7E03
 121 0267 6D320653 		.ascii	"m2\006S\340\346\001\334\014\303n\30312\002a$\204\273"
 121      E0E601DC 
 121      0CC36EC3 
 121      31320261 
 121      2484BB
 122 027a 203C0AC3 		.ascii	" <\012\303\251\010\2431\234\2060\006\270G\300\215\205"
 122      A908A331 
 122      9C863006 
 122      B847C08D 
 122      85
 123 028b 818471C8 		.ascii	"\201\204q\310\215G\230\2000\021a\022\302d\204)\010S"
 123      8D479880 
 123      30116112 
 123      C2648429 
 123      0853
 124 029d 11A621A4 		.ascii	"\021\246!\244#X\0202\0202\021\262\020\246#d#\314@\230"
 124      23581032 
 124      103211B2 
 124      10A62364 
 124      23CC4098 
 125 02b1 89908390 		.ascii	"\211\220\203\220\2130\013a6\302\034\204\271\010\363"
 125      8B300B61 
 125      36C21C84 
 125      B908F3
 126 02c0 10DE40C8 		.ascii	"\020\336@\310C\230\217\260\000a!\302\"\204|\204\305"
 126      43988FB0 
 126      006121C2 
 126      22847C84 
 126      C5
 127 02d1 084B1096 		.ascii	"\010K\020\226\"\024 \024\342\272\024)\325]\246\024\266"
 127      22142014 
 127      E2BA1429 
ARM GAS  /tmp/ccwvQ9CH.s 			page 10


 127      D55DA614 
 127      B6
 128 02e2 58A96989 		.ascii	"X\251i\211\262\004\313\225r\302GO\032\340t\236*\307"
 128      B204CB95 
 128      72C2474F 
 128      1AE0749E 
 128      2AC7
 129 02f4 6595AC91 		.ascii	"e\225\254\221\025r\371y\357u\354\267\362*\206\245\370"
 129      1572F979 
 129      EF75ECB7 
 129      F22A86A5 
 129      F8
 130 0305 135EBC4A 		.ascii	"\023^\274J\034\255\216\243\315\303\313\351c\252'V\032"
 130      1CAD8EA3 
 130      CDC3CBE9 
 130      63AA2756 
 130      1A
 131 0316 63A546DC 		.ascii	"c\245F\334<\260%\010a\344\311\346\271\234\214\345\244"
 131      3CB02508 
 131      61E4C9E6 
 131      B99C8CE5 
 131      A4
 132 0327 4E268F38 		.ascii	"N&\2178\354\234\212\003\266L\376\011\247\350N\373t\361"
 132      EC9C8A03 
 132      B64CFE09 
 132      A7E84EFB 
 132      74F1
 133 0339 5C9714A4 		.ascii	"\\\227\024\2443\001\313t\352x\255>]\002\327\255\011"
 133      3301CB74 
 133      EA78AD3E 
 133      5D02D7AD 
 133      09
 134 034a D2998165 		.ascii	"\322\231\201e:=\327\265\373t\211\\'%\006\011\373\001"
 134      3A3DD7B5 
 134      FB74895C 
 134      27250609 
 134      FB01
 135 035c CD844646 		.ascii	"\315\204FFm>\263\345\024\345\\\177$\324\247\246\024"
 135      6D3EB3E5 
 135      14E55C7F 
 135      24D4A7A6 
 135      14
 136 036d 7FE6C805 		.ascii	"\177\346\310\005z\334<\212\367\031h\245\224\345\306"
 136      7ADC3C8A 
 136      F71968A5 
 136      94E5C6
 137 037c 225E260D 		.ascii	"\"^&\015\335\365\231*U&\177\227\360\217\207P+\035 \000"
 137      DDF5992A 
 137      55267F97 
 137      F08F8750 
 137      2B1D2000 
 138 0390 149A5F3F 		.ascii	"\024\232_?]\357!\002\324W8\357\261Yi\211\371\267\236"
 138      5DEF2102 
 138      D45738EF 
 138      B1596989 
 138      F9B79E
 139 03a3 2A0F11A1 		.ascii	"*\017\021\241p\302\025\014\024\231\017\326z\210\016"
ARM GAS  /tmp/ccwvQ9CH.s 			page 11


 139      70C2150C 
 139      14990FD6 
 139      7A880E
 140 03b2 0A22FCB2 		.ascii	"\012\"\374\262\332J\227\231\317\367\324y\210\036&*t"
 140      DA4A9799 
 140      CFF7D479 
 140      881E262A 
 140      74
 141 03c3 235F6CBE 		.ascii	"#_l\276\202\002\003\230\024\266\335\202\300rsw\317\032"
 141      82020398 
 141      14B6DD82 
 141      C0727377 
 141      CF1A
 142 03d5 34A9E326 		.ascii	"4\251\343&_4\027\250\233\341\036[\364\007\014\273\030"
 142      5F3417A8 
 142      9BE11E5B 
 142      F4070CBB 
 142      18
 143 03e6 3E621B40 		.ascii	">b\033@\266\012\037+\035d\245\006fX.\204c\253\343\224"
 143      B60A1F2B 
 143      1D64A506 
 143      66582E84 
 143      63ABE394 
 144 03fa 504EBBD9 		.ascii	"PN\273\331L\006\003\355\267\320\233\2378\332(\347\206"
 144      4C0603ED 
 144      B7D09B9F 
 144      38DA28E7 
 144      86
 145 040b 00CD0487 		.ascii	"\000\315\004\207\035_\251\301\241\254\260C\224\316\257"
 145      1D5FA9C1 
 145      A1ACB043 
 145      94CEAF
 146 041a 9A477222 		.ascii	"\232Gr\"\011F\221{\213<\224\314\312O\221T\372o\344T"
 146      0946917B 
 146      8B3C94CC 
 146      CA4F9154 
 146      FA6FE454 
 147 042e 0AB08A19 		.ascii	"\012\260\212\031os:\217\016\343N\005\356\346CN\015\007"
 147      6F733A8F 
 147      0EE34E05 
 147      EEE6434E 
 147      0D07
 148 0440 B657FA11 		.ascii	"\266W\372\021\312v\002\262w\372\221\300*\273\345\353"
 148      CA7602B2 
 148      77FA91C0 
 148      2ABBE5EB 
 149 0450 5DB93C3A 		.ascii	"]\271<:*\250\020\317\325y\245\002\035X\210\21785\032"
 149      2AA810CF 
 149      D579A502 
 149      1D58888F 
 149      38351A
 150 0463 D85E43A7 		.ascii	"\330^C\247\261\241\023\221\354=\364\030+\326\377*\271"
 150      B1A11391 
 150      EC3DF418 
 150      2BD6FF2A 
 150      B9
 151 0474 74F3CCB9 		.ascii	"t\363\314\271\273\252`\334\024\362\255\324\000\"\375"
ARM GAS  /tmp/ccwvQ9CH.s 			page 12


 151      BBAA60DC 
 151      14F2ADD4 
 151      0022FD
 152 0483 5EB2071A 		.ascii	"^\262\007\032X\336\261\230\303\310\366\317Zu3A\256\363"
 152      58DEB198 
 152      C3C8F6CF 
 152      5A753341 
 152      AEF3
 153 0495 8E367579 		.ascii	"\2166uy\306C\245\224y\370\326l\002\244\003\212\305\317"
 153      C643A594 
 153      79F8D66C 
 153      02A4038A 
 153      C5CF
 154 04a7 3AFE52E3 		.ascii	":\376R\343\023\031%\262\301\1778\026/\207\331\270\365"
 154      131925B2 
 154      C17F3816 
 154      2F87D9B8 
 154      F5
 155 04b8 524E9891 		.ascii	"RN\230\221A-\233\276\341gzR\030\323\324\337t\247\352"
 155      412D9BBE 
 155      E1677A52 
 155      18D3D4DF 
 155      74A7EA
 156 04cb 6332D45F 		.ascii	"c2\324_1}N\015N\201t@)\246\237\253\361\251\214\322E"
 156      317D4E0D 
 156      4E817440 
 156      29A69FAB 
 156      F1A98CD2 
 157 04e0 699A2AA6 		.ascii	"i\232*\246\247\312\246_\372\231\236\026\306\264\340"
 157      A7CAA65F 
 157      FA999E16 
 157      C6B4E0
 158 04ef 6FDAE72F 		.ascii	"o\332\347/\335g\372\204\032\264@:\240\024\323O\324x"
 158      DD67FA84 
 158      1AB4403A 
 158      A014D34F 
 158      D478
 159 0501 06A3F451 		.ascii	"\006\243\364Q\232\026\024\323\031\370:\371\276\353\242"
 159      9A1614D3 
 159      19F83AF9 
 159      BEEBA2
 160 0510 C799C013 		.ascii	"\307\231\300\023\012\352\256\367\275\223 \275\010\257"
 160      0AEAAEF7 
 160      BD9320BD 
 160      08AF
 161 051e 9D87176F 		.ascii	"\235\207\027o;\315\274\037\333\276:c@?\003{-\\\272\271"
 161      3BCDBC1F 
 161      DBBE3A63 
 161      403F037B 
 161      2D5CBAB9 
 162 0532 BBED915A 		.ascii	"\273\355\221Z\204\3140E\020C\027!\013\266oP\021\246"
 162      84CC3045 
 162      10431721 
 162      0BB66F50 
 162      11A6
 163 0544 433AA082 		.ascii	"C:\240\202\212\220\315\250\241r\021~\012,B^\230\221"
 163      8A90CDA8 
ARM GAS  /tmp/ccwvQ9CH.s 			page 13


 163      A172117E 
 163      0A2C425E 
 163      9891
 164 0556 41CDED1B 		.ascii	"A\315\355\033\025\3737\374\354\317\010c_\027\332\376"
 164      15FB37FC 
 164      ECCF0863 
 164      5F17DAFE 
 165 0566 CC50F673 		.ascii	"\314P\366s \035PA\366s\031\025\255}\235b?\227\333\217"
 165      201D5041 
 165      F6731915 
 165      AD7D9D62 
 165      3F97DB8F 
 166 057a 51ECBF6C 		.ascii	"Q\354\277l{\252\332\237\025\306\276>\364s3;\324s3\007"
 166      7BAADA9F 
 166      15C6BE3E 
 166      F473333B 
 166      D4733307 
 167 058e D20115F4 		.ascii	"\322\001\025\364\334\314e\224 \333\3773\320\376\234"
 167      DCCC6594 
 167      20DBFF33 
 167      D0FE9C
 168 059d 3023839A 		.ascii	"0#\203\232\333\217\345\233\247\323g\177\2366\373o\204"
 168      DB8FE59B 
 168      A7D3677F 
 168      9E36FB6F 
 168      84
 169 05ae B29F07E9 		.ascii	"\262\237\007\351\200\012\262?\237QZ\355\317g_\310\017"
 169      800AB23F 
 169      9F515AED 
 169      CF675FC8 
 169      0F
 170 05bf 2F7EDEF8 		.ascii	"/~\336\370\237OF\034\337Z\235\276\255\265@\333\223\261"
 170      9F4F461C 
 170      DF5A9DBE 
 170      ADB540DB 
 170      93B1
 171 05d1 30D4D65A 		.ascii	"0\324\326Z\004\351\200\012\332Z\371\214\322\372d\344"
 171      04E9800A 
 171      DA5AF98C 
 171      D2FA64E4 
 172 05e1 73FBF17C 		.ascii	"s\373\361|m\356\371\354/\326\366d,\011e\177)\244\003"
 172      6DEEF9EC 
 172      2FD6F664 
 172      2C09657F 
 172      29A403
 173 05f4 2AC87E01 		.ascii	"*\310~\001\243\264>\031\005\334\276I>\256\034q\264\273"
 173      A3B43E19 
 173      05DCBE49 
 173      3EAE1C71 
 173      B4BB
 174 0606 52F8C1A9 		.ascii	"R\370\301\251P9S\211\362\231\012^\202\307\033M*\331"
 174      50395389 
 174      F2990A5E 
 174      82C71B4D 
 174      2AD9
 175 0618 EB5485E7 		.ascii	"\353T\205\347\327\004HRJ\315r\252\303\216\307.\365\374"
 175      D7044852 
ARM GAS  /tmp/ccwvQ9CH.s 			page 14


 175      4ACD72AA 
 175      C38EC72E 
 175      F5FC
 176 062a 5A045F75 		.ascii	"Z\004_uj*F\376\341\032\301\311e\360\225\342\177H=\354"
 176      6A2A46FE 
 176      E11AC1C9 
 176      65F095E2 
 176      7F483DEC 
 177 063e E8710DE3 		.ascii	"\350q\015\343d1\274\272\003\311gj\326\022\345]\314\271"
 177      6431BCBA 
 177      03C9676A 
 177      D612E55D 
 177      CCB9
 178 0650 2D8E57AE 		.ascii	"-\216W\256$N.\347\333\214\273,\305\377\266\022;H=\274"
 178      244E2EE7 
 178      DB8CBB2C 
 178      C5FFB612 
 178      3B483DBC 
 179 0664 052A7001 		.ascii	"\005*p\001\257\221\372;-]T=|)\263\200\376\230/;=\335"
 179      AF91FA3B 
 179      2D5D543D 
 179      7C29B380 
 179      FE982F3B 
 180 067a A2FED5D4 		.ascii	"\242\376\325\324Z\326\227WYl5\366\272Z\313[\253J\246"
 180      5AD69757 
 180      596C35F6 
 180      BA5ACB5B 
 180      AB4AA6
 181 068d 67598A8B 		.ascii	"gY\212\213\363-KW\026\256x?\313b+\257z\247\252\252\""
 181      F32D4B57 
 181      16AE783F 
 181      CB622BAF 
 181      7AA7AAAA 
 182 06a2 7D1DD1AF 		.ascii	"}\035\321\257\335P\227\236\241\257\256\251\250\264\033"
 182      DD50979E 
 182      A1AFAEA9 
 182      A8B41B
 183 06b1 6AEA3EB0 		.ascii	"j\352>\260U\332\2155\265\266\312\312\012\273\336\366"
 183      55DA8D35 
 183      B5B6CACA 
 183      0ABBDEF6 
 184 06c1 9EADC2AE 		.ascii	"\236\255\302\256+\257\252\263\213\320+\006/\252\313"
 184      2BAFAAB3 
 184      8BD02B06 
 184      2FAACB
 185 06d0 6BDF15AA 		.ascii	"k\337\025\2523\205\352,\241:\373_\335|>\246"
 185      3385EA2C 
 185      A13AFB5F 
 185      DD7C3EA6 
 186              		.text
 187              		.section	.gnu.lto_.symbol_nodes.efe28093bb793552,"",%progbits
 188 0000 789C6362 		.ascii	"x\234cb`b(g\200\002\246\011L\365\014\014\023\31610\324"
 188      60622867 
 188      8002A609 
 188      4CF50C0C 
 188      13CE3130 
 189 0015 D75FE948 		.ascii	"\327_\351Hd\232\310T\317\010\345^\353`d\232\304T\317"
ARM GAS  /tmp/ccwvQ9CH.s 			page 15


 189      649AC854 
 189      CF08E55E 
 189      EB60649A 
 189      C454CF
 190 0028 84E03233 		.ascii	"\204\3402320<j{#\017\242\027\265C\350GPzQ\027\224\017"
 190      32303C6A 
 190      7B230FA2 
 190      17B543E8 
 190      47507A51 
 191 003f A5177543 		.ascii	"\245\027uC\371PzQ\037\224\017\244\031\000\272h$\235"
 191      F9507A51 
 191      1F940FA4 
 191      1900BA68 
 191      249D
 192              		.text
 193              		.section	.gnu.lto_.refs.efe28093bb793552,"",%progbits
 194 0000 789C6362 		.ascii	"x\234cb`b`d\200\002\000\000F\000\006"
 194      60626064 
 194      80020000 
 194      460006
 195              		.text
 196              		.section	.gnu.lto_.decls.efe28093bb793552,"",%progbits
 197 0000 789CAD5A 		.ascii	"x\234\255Z}p\023\307\025\337=\311\037\002\2058\2440"
 197      7D7013C7 
 197      15DF3DC9 
 197      1F028538 
 197      A430
 198 0012 64A69D28 		.ascii	"d\246\235(\235\322\246\031\202\300\246i\372\017\003"
 198      9DD2A619 
 198      82C0A669 
 198      FA0F03
 199 0021 C8067B62 		.ascii	"\310\006{b\202\346\004m\362\227z\305\002<5\226*\313"
 199      82E6046D 
 199      F2977AC5 
 199      023C3596 
 199      2ACB
 200 0033 ADFBDF61 		.ascii	"\255\373\337a>\3128-1\246\245\320\330\330\020\034H\200"
 200      3ECA382D 
 200      31A6A5D0 
 200      D8D8101C 
 200      4880
 201 0045 F05102E6 		.ascii	"\360Q\002\346#\344 \241q`\202\211S\012I\370\020\011"
 201      23E420A1 
 201      71608289 
 201      530A49F8 
 201      1009
 202 0057 5FA18402 		.ascii	"_\241\204\002C\002\001j\365\355\273;\351\366\320Yw."
 202      4302016A 
 202      F5EDBB3B 
 202      E9F6D059 
 202      772E
 203 0069 37BCB7EB 		.ascii	"7\274\267\353\273\367~\373\333\335\267\357vO\010D ["
 203      BBF77EFB 
 203      DBDDB7EF 
 203      764F0844 
 203      205B
 204 007b 282129B8 		.ascii	"(!)\270\242\337'd\266\213\0207!d<\311\\p\213\254\006"
ARM GAS  /tmp/ccwvQ9CH.s 			page 16


 204      A2DF2764 
 204      B68B1037 
 204      21643CC9 
 204      5C708BAC 
 205 0090 B905329C 		.ascii	"\271\0052\234\222\373.\366\314\003R\0002\004\304\013"
 205      92FB2EF6 
 205      CC035200 
 205      3204C40B 
 206 00a0 320AEC4E 		.ascii	"2\012\354NAy\022d#H'\310Z\355\3719\220\355 \027@v\200"
 206      41791264 
 206      234827C8 
 206      5AEDF939 
 206      90ED2017 
 207 00b7 5C02E902 		.ascii	"\\\002\351\002\271\014\262\027\344\012\3101\220\253"
 207      B90CB217 
 207      E40AC831 
 207      90AB
 208 00c5 20C7413E 		.ascii	" \307A>\007\331\000B\265\266\004\220\233 7L<\030\277"
 208      07D90042 
 208      B5B60490 
 208      9B20374C 
 208      3C18BF
 209 00d8 87409EA6 		.ascii	"\207@\236\246\031\036\005\006\016\243\341\376o@\356"
 209      191E0506 
 209      0EA3E1FE 
 209      6F40EE
 210 00e7 42FD0E48 		.ascii	"B\375\016H\234\252\234\326\200\014\006y\016\376~\221"
 210      9CAA9CD6 
 210      800C0679 
 210      0EFE7E91 
 211 00f7 AA0D0920 		.ascii	"\252\015\011 n\220|\220B\220A ^\206\013RDU\016\2674"
 211      6E907C90 
 211      42904120 
 211      5E860B52 
 211      44550EB7 
 212 010c 3ECCE53B 		.ascii	">\314\345;\246qa\343Th\032\0236\256o\032\306\3431\206"
 212      A67161E3 
 212      54681A13 
 212      36AE6F1A 
 212      C6E33186 
 213 0120 AF8DC50E 		.ascii	"\257\215\305\016m\014\216i}\326\373\313p\230\337\217"
 213      6D0C8E69 
 213      7DD6FBCB 
 213      7098DF8F 
 214 0130 A0FC31C8 		.ascii	"\240\3741\310H\220:S[\217\223U\262r4\331yf\311crG\243"
 214      48903A53 
 214      5B8F9355 
 214      B27234D9 
 214      7966C963 
 215 0147 924ABD33 		.ascii	"\222J\2753\201\014'\177\221\341\352X$\3134!\321\361"
 215      810C277F 
 215      91E1EA58 
 215      24CB3421 
 215      D1F1
 216 0159 C3C80B54 		.ascii	"\303\310\013T\242C<\304\207\025\257\007Q\011\221\350"
 216      A2433CC4 
 216      8715AF07 
ARM GAS  /tmp/ccwvQ9CH.s 			page 17


 216      510991E8 
 217 0169 1A3A5C9B 		.ascii	"\032:\\\233e\326'\030\210&Ynd\216\345\335C\206\222\245"
 217      65D62718 
 217      8826596E 
 217      648EE5DD 
 217      438692A5 
 218 017d 0CC5D70D 		.ascii	"\014\305\327\015]\320\374\223\202\0160\012\254G\222"
 218      5DD0FC93 
 218      820E300A 
 218      AC4792
 219 018c B5B2DC9C 		.ascii	"\265\262\334\234<\263\272\335%\313\205\022\355\244C"
 219      3CB3BADD 
 219      25CB8512 
 219      EDA443
 220 019b 01A68692 		.ascii	"\001\246\206\222\247\310\353\340\330,\313k\306g\211"
 220      A7C8EBE0 
 220      D82CCB6B 
 220      C66789
 221 01aa 18921398 		.ascii	"\030\222\023\2301{\035\300$\272\236>\2456#+w\217xe\267"
 221      317B1DC0 
 221      24BA9E3E 
 221      A536232B 
 221      778F7865 
 222 01bf 7A9F684F 		.ascii	"z\237hO\262\\O\220\016y\301|%u\244\025\206\343\000\365"
 222      B25C4F90 
 222      0E79C17C 
 222      2575A415 
 222      86E300F5 
 223 01d3 90C5B23C 		.ascii	"\220\305\262<_\353\020\311:\014Z/\2266\035\334O\033"
 223      5FEB10C9 
 223      3A0C5A2F 
 223      96361DDC 
 223      4F1B
 224 01e5 61C0D0A5 		.ascii	"a\300\320\245\261_\027\211n\242#A\027x\322D\330\323"
 224      B15F1789 
 224      6EA22341 
 224      1778D244 
 224      D8D3
 225 01f7 024FA6C2 		.ascii	"\002O\246\302\226\324\303,RVQ\312\261\265\001\2571j"
 225      96D4C32C 
 225      525651CA 
 225      B1B501AF 
 225      316A
 226 0209 7F69EFCF 		.ascii	"\177i\357\317p\\\267\000'\201\0343\001i\355\245/;t\034"
 226      705CB700 
 226      27811C33 
 226      0169EDA5 
 226      2F3B741C 
 227 021d 9A0B2489 		.ascii	"\232\013$\211\215\2621\317FT\253\252\227f\300\315C\362"
 227      8DB231CF 
 227      4654ABAA 
 227      9766C0CD 
 227      43F2
 228 022f F4EA5538 		.ascii	"\364\352U8\017\022\335\210\235\270\340\030\317\307\315"
 228      0F12DD88 
 228      9DB8E018 
 228      CFC7CD
ARM GAS  /tmp/ccwvQ9CH.s 			page 18


 229 023e 6B4B8FB7 		.ascii	"kK\217\267Y\322\301\276\262\003VhIN\371\263\021\354"
 229      59D2C1BE 
 229      B2035668 
 229      494EF9B3 
 229      11EC
 230 0250 6BC7603C 		.ascii	"k\307`<\263\345F\260\273v\300\212\254\231\2550\202\245"
 230      B3E546B0 
 230      BB76C08A 
 230      AC99AD30 
 230      82A5
 231 0262 1C831999 		.ascii	"\034\203\031\231\315Sv\366\034\242r\213\367Q\322\"\313"
 231      CD5376F6 
 231      1CA2728B 
 231      F751D222 
 231      CB
 232 0273 F3E48E7C 		.ascii	"\363\344\216|\253\260#\004M\344~M$\252\320G\371\205"
 232      ABB02304 
 232      4DE47E4D 
 232      24AAD047 
 232      F985
 233 0285 F9CACB43 		.ascii	"\371\312\313C\330\302d\367s,L\271Qi\353i\325\002\342"
 233      D8C264F7 
 233      732C4CB9 
 233      5169EB69 
 233      D502E2
 234 0298 4DECDC7C 		.ascii	"M\354\334|\201j\230\003\0100h\374\255\236\301r\223W"
 234      816A9803 
 234      083068FC 
 234      AD9EC172 
 234      9357
 235 02aa CB281D13 		.ascii	"\313(\035\023\326\367C\374\2409\243\264\367\010>\365"
 235      D6F743FC 
 235      A039A3B4 
 235      F7083EF5 
 236 02ba 766EDE5B 		.ascii	"vn\336[{ZG\310\035\373\365\354 /\222\2374\264U\244\267"
 236      7B5A47C8 
 236      1DFBF5EC 
 236      202F929F 
 236      34B455A4 
 237 02cf C5B2683A 		.ascii	"\305\262h:\241\354\034\205\313\267\033;\272P\310\232"
 237      A1EC1C85 
 237      CBB71B3B 
 237      BA50C89A 
 238 02df 076C00B5 		.ascii	"\007l\000\265\277\264N\315\003\207\021h\211`\316\003"
 238      BFB44ECD 
 238      03871168 
 238      8960CE03 
 239 02ef 2E531E70 		.ascii	".S\036p\361\013\333\345\311TR)\027qf,\220\225\330\340"
 239      F10BDBE5 
 239      C9545229 
 239      1771662C 
 239      9095D8E0 
 240 0303 C14CFC71 		.ascii	"\301L\374q$sMQc\362\364\371U8t\372H\2649\306+2\315\211"
 240      24734D51 
 240      63F2F4F9 
 240      553874FA 
 240      48B439C6 
ARM GAS  /tmp/ccwvQ9CH.s 			page 19


 241 031b 405E1D68 		.ascii	"@^\035h\330\030z\256vZ\242\007\350\023\240\337\003m"
 241      D8187AAE 
 241      765AA207 
 241      E813A0DF 
 241      036D
 242 032d 68A053B0 		.ascii	"h\240S\260\261\350FXt\032Vp\227q\005\277\341\030\314"
 242      B1E84658 
 242      741A5670 
 242      977105BF 
 242      E118CC
 243 0340 C781ED36 		.ascii	"\307\201\3556\202m\266\003\346\263f\266\327\010\266"
 243      826DB603 
 243      E6B366B6 
 243      D708B6
 244 034f DD3118CF 		.ascii	"\3351\030\317l\237\021l\227\035\260'\373\233\024n~2"
 244      6C9F116C 
 244      971DB027 
 244      FB9B146E 
 244      7E32
 245 0361 3B0089BE 		.ascii	";\000\211\276\201\357\333\0158S\333Q\357@\335\205z7"
 245      81EFDB0D 
 245      3853DB51 
 245      EF40DD85 
 245      7A37
 246 0373 EABDA8F7 		.ascii	"\352\275\250\367\241\376\030\3651\324\307Q\177b\234"
 246      A1FE18F5 
 246      31D4C751 
 246      7F629C
 247 0382 5FAB14B1 		.ascii	"_\253\024\261\226\0166\256\255~vE\020\331\324\270\177"
 247      960E36AE 
 247      AD7E7645 
 247      10D9D4B8 
 247      7F
 248 0393 A13AD477 		.ascii	"\241:\324w\211\276p\225\225\275\324\227m\257\303\331"
 248      89BE7095 
 248      95BDD497 
 248      6DAFC3D9 
 249 03a3 4AF434F4 		.ascii	"J\3644\364-\247\0313L\232\023\330g=\270%J\332\312`g"
 249      2DA71933 
 249      4C9A13D8 
 249      673DB825 
 249      4ADACA60 
 250 03b8 4C99F76D 		.ascii	"L\231\367m\234\255\344\300^\355\200wC\235z\025\354]"
 250      9CADE4C0 
 250      5EED8077 
 250      439D7A15 
 250      EC5D
 251 03ca C7603E0E 		.ascii	"\307`>\016\354\033#\330!;`V\357u\000\273c\004\353u\014"
 251      EC1B23D8 
 251      213B6056 
 251      EF7500BB 
 251      6304EB75 
 252 03df C633EB33 		.ascii	"\3063\3533\202\235\260\003f\365^\007\260\226^\003\330"
 252      829DB003 
 252      66F55E07 
 252      B0965E03 
 252      D8
ARM GAS  /tmp/ccwvQ9CH.s 			page 20


 253 03f0 49C7603C 		.ascii	"I\307`<\263\345F\260\263v\300\262\345+\303\202S\227"
 253      B3E546B0 
 253      B376C0B2 
 253      E52BC382 
 253      5397
 254 0402 DA595C6A 		.ascii	"\332Y\\j\237\343\2429\207\372\002\352K\250/\243\276"
 254      9FE3A239 
 254      87FA02EA 
 254      4BA82FA3 
 254      BE
 255 0413 82FA2A9F 		.ascii	"\202\372*\2372/\334\367bR\003\323\320B&\202\311@\332"
 255      322FDCF7 
 255      625203D3 
 255      D0422682 
 255      C940DA
 256 0426 B05AB627 		.ascii	"\260Z\266'\351`\256\231\031\231\227\234@\2765\321\372"
 256      E960AE99 
 256      1999979C 
 256      40BE35D1 
 256      FA
 257 0437 01795596 		.ascii	"\001yU\226[\222\235\355\257\301r\020\3245/\220F\027"
 257      5B929DED 
 257      AFC17210 
 257      D4352F90 
 257      4617
 258 0449 B35A4D1F 		.ascii	"\263ZM\037\267\330\3603+\315U~\345\037\336f\252\266"
 258      B7D8F033 
 258      2BCD557E 
 258      E51FDE66 
 258      AAB6
 259 045b 2A90C539 		.ascii	"*\220\3059\0345n?$\235l\201\357\221\203#\360@F4'\216"
 259      1C356E3F 
 259      249D6C81 
 259      EF918323 
 259      F0404634 
 260 0471 F7752A18 		.ascii	"\367u*\030o\260\243]\207\242\\_t\030\366o\362\275Tj"
 260      6FB0A35D 
 260      87A25C5F 
 260      7418F66F 
 260      F2BD546A 
 261 0485 BEDBC1D1 		.ascii	"\276\333\301\321\356v\356\243\2359\211=\254c\334c\307"
 261      EE76EEA3 
 261      9D39893D 
 261      AC63DC63 
 261      C7
 262 0496 36FD78F7 		.ascii	"6\375x\367\345:v\274\313\226\241x{\211\336\263\310d"
 262      E53A76BC 
 262      CB96A178 
 262      7B89DEB3 
 262      C864
 263 04a8 BC1DB3EC 		.ascii	"\274\035\263\3543\247\262=\275\230\312\372l\2442Y\371"
 263      33A7B23D 
 263      BD98CAFA 
 263      6CA43259 
 263      F9
 264 04b9 A8B795AA 		.ascii	"\250\267\225\252\251\354\014\0369_\3069\350\313\004"
 264      A9EC0C1E 
ARM GAS  /tmp/ccwvQ9CH.s 			page 21


 264      395FC639 
 264      E8CB04
 265 04c8 3F9F3B73 		.ascii	"?\237;s\357\"O\210l%\251`\313m\201Y\275\255\001\354"
 265      EF224F88 
 265      6C25A960 
 265      CB6D8159 
 265      BDAD01EC 
 266 04dc 9A01ACCD 		.ascii	"\232\001\254\315\026\330\263\326\314n\033\300\326\332"
 266      16D8B3D6 
 266      CC6E1BC0 
 266      D6DA
 267 04ea 020B5A33 		.ascii	"\002\013Z3k\016e\3006\330\002\213Y3[a\000\333f\013l"
 267      6B0E65C0 
 267      36D8028B 
 267      59335B61 
 267      00DB660B 
 268 04ff 31B5A6B6 		.ascii	"1\265\246\266\305\200\266\313\026\332zj\315\255\313"
 268      C580B6CB 
 268      16DA7A6A 
 268      CDADCB
 269 050e 80A6D842 		.ascii	"\200\246\330BS\372\341v\324\200\366\276-\264d6n\351"
 269      53FAE176 
 269      D480F6BE 
 269      2DB46436 
 269      6EE9
 270 0520 4BCFB429 		.ascii	"K\317\264)\314\264\262\300\362\\#\352\005\250\027\241"
 270      CCB4B2C0 
 270      F25C23EA 
 270      05A817A1 
 271 0530 5E8CBA09 		.ascii	"^\214\272\011\365\037Q/A\335,pY\367\210\313\234u\373"
 271      F51F512F 
 271      41DD2C70 
 271      59F788CB 
 271      9C75FB
 272 0543 CC59B78F 		.ascii	"\314Y\267\217\313\272\377W{V\311\346N&\003\233\322\357"
 272      CBBAFF57 
 272      7B56C9E6 
 272      4E26039B 
 272      D2EF
 273 0555 0957D6F4 		.ascii	"\011W\326\364\273\360\352%\367JYq\253\256\022\375\032"
 273      BBF0EA25 
 273      F74A5971 
 273      ABAE12FD 
 273      1A
 274 0566 529F446F 		.ascii	"R\237DoY\246\321;\\\032\375\223\274\260\210\246\363"
 274      59A6D13B 
 274      5C1AFD93 
 274      BCB088A6 
 274      F3
 275 0577 E82D731E 		.ascii	"\350-s\036]&d\313\243}\207\274\315\363\222\251T\273"
 275      5D2664CB 
 275      A37D87BC 
 275      CDF392A9 
 275      54BB
 276 0589 CF7E12FD 		.ascii	"\317~\022\375\253`\235D\325\017^\331<\365\314\331\271"
 276      AB609D44 
 276      D50F5ED9 
ARM GAS  /tmp/ccwvQ9CH.s 			page 22


 276      3CF5CCD9 
 276      B9
 277 059a E9593CB8 		.ascii	"\351Y<\270\255\024\330\233\342\302}3\265\226{oY\356"
 277      AD14D89B 
 277      E2C27D33 
 277      B5967B6F 
 277      59EE
 278 05ac 3F6D7F32 		.ascii	"?m\1772RR\313\206\261,\332&\260-\301\365\373\332c[\005"
 278      5252CB86 
 278      B12CDA26 
 278      B02DC1F5 
 278      FBDA635B 
 279 05c1 AE3D5B5F 		.ascii	"\256=[_\214\034\263X1\034^\253\253\221C\337\003\342"
 279      8C1CB358 
 279      311C5EAB 
 279      AB9143DF 
 279      03E2
 280 05d3 600AAA3F 		.ascii	"`\012\252?\270\263\006\325\371\315\337jA\245\216x\033"
 280      B8B306D5 
 280      F9CDDF6A 
 280      41A58E78 
 280      1B
 281 05e4 9A2D17AC 		.ascii	"\232-\027\254\202\212Yi\276\312\322\303\033\325\375"
 281      828A5969 
 281      BECAD2C3 
 281      1BD5FD
 282 05f3 803A786B 		.ascii	"\200:xkr\2702+\335u\331am+\241\366y]\016Wf\225\016e"
 282      72B8322B 
 282      DD75D961 
 282      6D2BA1F6 
 282      795D0E57 
 283 060b 25D534BF 		.ascii	"%\3254\277\203\312\371\351`f~|L\360\301\234\236\006"
 283      83CAF9E9 
 283      60667E7C 
 283      4CF0C19C 
 283      9E06
 284 061d E5017C9E 		.ascii	"\345\001|\236\314\365\275W)\344r\267\026\327\273\276"
 284      CCF5BD57 
 284      29E472B7 
 284      16D7BBBE 
 285 062d B8BD9E6E 		.ascii	"\270\275\236n\225\345\"\230M\201%\305\263\246\351\310"
 285      95E52298 
 285      4D8125C5 
 285      B3A6E9C8 
 286 063d 8DC4486E 		.ascii	"\215\304Hn\025L{\200\266\213\335\024\327\013{\222\373"
 286      154C7B80 
 286      B68BDD14 
 286      D70B7B92 
 286      FB
 287 064e 1BEFD68B 		.ascii	"\033\357\326\213\335\002\314\366\002W\372{ \322`\316"
 287      DD02CCF6 
 287      0257FA7B 
 287      20D260CE 
 288 065e 0338D100 		.ascii	"\0038\321\000\3406\326~\213W\207\273\346\030\316\307"
 288      E036D67E 
 288      8B5787BB 
 288      E618CEC7 
ARM GAS  /tmp/ccwvQ9CH.s 			page 23


 289 066e C16DE7E1 		.ascii	"\301m\347\341n\333\201\353\347k\345\016\036\356\277"
 289      6EDB81EB 
 289      E76BE50E 
 289      1EEEBF
 290 067d 8EE17876 		.ascii	"\216\341xv]<\334\274<\033p\375|\261\334\315\30359\206"
 290      5D3CDCBC 
 290      3C1B70FD 
 290      7CB1DCCD 
 290      C3353986 
 291 0691 E3D9EDE5 		.ascii	"\343\331\355\345\341\226\331\201\263\372\032\003G\245"
 291      E196D981 
 291      B3FA1A03 
 291      47A5
 292 069f 7D3A9C7A 		.ascii	"}:\234zXju\014\307\263;\312\263{\315\016\234\317z\354"
 292      586A750C 
 292      C7B33BCA 
 292      B37BCD0E 
 292      9CCF7AEC 
 293 06b3 7A79B8CD 		.ascii	"zy\270\315\216\341\014\354`\031\375\363b!\240=B\232"
 293      8EE10CEC 
 293      6019FDF3 
 293      6221A03D 
 293      429A
 294 06c5 D54FA2EC 		.ascii	"\325O\242\354E\305\272\255\331N\340cC\242\335\302#X"
 294      45C5BAAD 
 294      D94EE063 
 294      43A2DDC2 
 294      2358
 295 06d7 C3C422A7 		.ascii	"\303\304\"\247\337m^O\326\346\231\307\007j\002\313,"
 295      DF6D5E4F 
 295      D6E699C7 
 295      076A02CB 
 295      2C
 296 06e8 01ADA2FF 		.ascii	"\001\255\242\377\326#\220.s\027\270V\265j\266/A\332"
 296      D623902E 
 296      7317B856 
 296      B56AB62F 
 296      41DA
 297 06fa 88FC8B1F 		.ascii	"\210\374\213\037\221\003vFd\2145\334\011\036\356\220"
 297      91037646 
 297      648C35DC 
 297      091EEE90 
 298 070a 63387EFA 		.ascii	"c8~\372?\345\341z\355\300Yn\361\033\225\223|p~\352\030"
 298      3FE5E17A 
 298      EDC0596E 
 298      F11B9593 
 298      7C707EEA 
 299 071f 8E67779A 		.ascii	"\216gw\232gw\316\016\334\004\353\261\273\306\303]q\014"
 299      6777CE0E 
 299      DC04EBB1 
 299      BBC6C35D 
 299      710C
 300 0731 C707E70D 		.ascii	"\307\007\347\015\014N5\352\004r\323N\234\224[\223\273"
 300      0C4E35EA 
 300      0472D34E 
 300      9C945B93 
 300      BB
ARM GAS  /tmp/ccwvQ9CH.s 			page 24


 301 0742 C993EBB3 		.ascii	"\311\223\353\263C.h\015\367\015\017\2678\337)\034?\023"
 301      432E680D 
 301      F70D0FB7 
 301      38DF291C 
 301      3F13
 302 0754 B779B816 		.ascii	"\267y\270\026;p/X\307\311\035S\022s\014\307\263\273"
 302      3B702F58 
 302      C7C91D53 
 302      12730CC7 
 302      B3BB
 303 0766 674A6276 		.ascii	"gJbv\340~i=v}<\334\026\307p|\2344_6\306\311n3Z\2668"
 303      E07E693D 
 303      767D3CDC 
 303      16C7707C 
 303      9C345F36 
 304 0781 99634DAE 		.ascii	"\231cM\256\3452G\356=;\344\254\216\276\354\207C\036"
 304      E53247EE 
 304      3D3BE4AC 
 304      8EBEEC87 
 304      431E
 305 0793 EE03C770 		.ascii	"\356\003\307p|_\227s}\375\320N_\033\254\311\255\340"
 305      7C5F9773 
 305      7DFDD04E 
 305      5F1BACC9 
 305      ADE0
 306 07a5 C91DB743 		.ascii	"\311\035\267CN\266:K\003\336\337x\274S\316\361|\304"
 306      4EB63A4B 
 306      03DEDF78 
 306      BC53CEF1 
 306      7CC4
 307 07b7 F232EE02 		.ascii	"\3622\356\002%\272M`\333\326\277\343\261\363-\324;Q"
 307      25BA4D60 
 307      DBD6BFE3 
 307      B1F32DD4 
 307      3B51
 308 07c9 EF42BD07 		.ascii	"\357B\275\007\365\333\250"
 308      F5DBA8
 309 07d0 DF41BD1F 		.ascii	"\337A\275\037\365\273\250\017\242~\037\365a\324\037"
 309      F5BBA80F 
 309      A27E1FF5 
 309      61D41F
 310 07df A2EE41FD 		.ascii	"\242\356A\375\021\352\217Q\037C}\034\365'\250?C}\012"
 310      11EA8F51 
 310      1F437D1C 
 310      F527A83F 
 310      437D0A
 311 07f2 F519D467 		.ascii	"\365\031\324gQ\177\201\372<\352\213\250\277D\375o\324"
 311      517F81FA 
 311      3CEA8BA8 
 311      BF44FD6F 
 311      D4
 312 0803 5FA1FE8F 		.ascii	"_\241\376\217\235\343\361&!}\320\263\363\373\301\003"
 312      9DE3F126 
 312      217DD0B3 
 312      F3FBC103 
 313 0813 F8546A3A 		.ascii	"\370Tj:\251\262\377\347aE\356F\206\234\217\264\003\267"
 313      A9B2FFE7 
ARM GAS  /tmp/ccwvQ9CH.s 			page 25


 313      6145EE46 
 313      869C8FB4 
 313      03B7
 314 0825 E4C2CB9E 		.ascii	"\344\302\313\236F\267\305\211d\334\350\321\376\364\277"
 314      46B7C589 
 314      64DCE8D1 
 314      FEF4BF
 315 0834 689D7F8E 		.ascii	"h\235\177\216T\343\217E\343\211:\177h\372\324\222b\177"
 315      54E38F45 
 315      E3893A7F 
 315      68FAD492 
 315      627F
 316 0846 6565A97F 		.ascii	"ee\251\177J\260b\332o\213\3751\251&\\SS5z\346@\234\346"
 316      4AB062DA 
 316      6F8BFD31 
 316      A9265C53 
 316      53357AE6 
 317 085d 106F5D62 		.ascii	"\020o]bnIqxv\254:\032N\344Oy~\206/@\276\347\257\257"
 317      6E497178 
 317      76AC3A1A 
 317      4EE44F79 
 317      7E862F40 
 318 0875 8BFBAB6B 		.ascii	"\213\373\253kg\326\324WE\374\265\221\337\325T\377\312"
 318      67D6D457 
 318      45FCB591 
 318      DFD554FF 
 318      CA
 319 0886 5F97A8AA 		.ascii	"_\227\250\252\256M\200Ga=\224\340\222x:\233\331\\i\346"
 319      AE4D8047 
 319      613D94E0 
 319      92783A9B 
 319      D95C69E6 
 320 089a 9CEADA88 		.ascii	"\234\352\332\210?\\\025\231%\325\327$\302\211\337\307"
 320      3F5C1599 
 320      25D5D724 
 320      C289DFC7 
 321 08aa 2275E036 		.ascii	"\"u\3406(\034\326\035\363\246N+-\023\363\247M\1771X"
 321      281CD61D 
 321      F3A64E2B 
 321      2D13F3A7 
 321      4D7F3158 
 322 08be 26164C0B 		.ascii	"&\026L\013\005\313\312J\305\274\340\214`\251\350\252"
 322      05CBCA4A 
 322      C5BCE08C 
 322      60A9E8AA 
 323 08ce 0099562A 		.ascii	"\000\231V*\322_`3c\237\011'4GVu\325E\022y3k\"R\234\226"
 323      D25F6033 
 323      639F0927 
 323      34475675 
 323      D5451279 
 324 08e8 BB278544 		.ascii	"\273'\205D\321]\031xNtO\234,V2U\356\232$\212ys\243U"
 324      D15D1978 
 324      4E744F9C 
 324      2C563255 
 324      EE9A248A 
 325 0900 91787E94 		.ascii	"\221x~\224\265\033/\210\326\305\"\221\252x^\254>V\025"
 325      B51B2F88 
ARM GAS  /tmp/ccwvQ9CH.s 			page 26


 325      D6C52291 
 325      AA785EAC 
 325      3E5615
 326 0913 7745ABE2 		.ascii	"wE\253\342niV\274\206\2519C\015=\007\334\372X8QX][\235"
 326      6E6956BC 
 326      86A93943 
 326      0D3D07DC 
 326      FA583851 
 327 092b 6037F298 		.ascii	"`7\362\230\212\345\317\214\326\316\252\236\235\037\234"
 327      8AE5CF8C 
 327      D6CEAA9E 
 327      9D1F9C
 328 093a 582A25A4 		.ascii	"X*%\244\374\340$\265\010\250E\251Z\224\251\305d\265"
 328      FCE024B5 
 328      08A845A9 
 328      5A94A9C5 
 328      64B5
 329 094c 98A216E5 		.ascii	"\230\242\026\345jQ\301\012Opbe\000\201\036\012k\343"
 329      6A51C10A 
 329      4F706265 
 329      00811E0A 
 329      6BE3
 330 095e 1E66ED0C 		.ascii	"\036f\355\014\202\026`v\252\253\302\011\257Z\235+\325"
 330      82166076 
 330      AAABC209 
 330      AF5A9D2B 
 330      D5
 331 096f FD9A9188 		.ascii	"\375\232\221\210\262.\204\023\303\322\346@ov<Z\037c"
 331      B22E8413 
 331      C3D2E640 
 331      6F763C5A 
 331      1F63
 332 0981 F7DDCCD2 		.ascii	"\367\335\314\322\315L\335\354O\363\244G\032\022\376"
 332      CD4CDDEC 
 332      4FF3A447 
 332      1A12FE
 333 0990 C0D45045 		.ascii	"\300\324PE\010&]\235\367\311\343\032\032\374\330\327"
 333      08265D9D 
 333      F7C9E31A 
 333      1AFCD8D7 
 334 09a0 59E3C6FC 		.ascii	"Y\343\306\374\264\241\001\346b\260\030\010\204\247\303"
 334      B4A101E6 
 334      62B01808 
 334      84A7C3
 335 09af 00954666 		.ascii	"\000\225Ff\011\001\261 XY\031\230<Et3\345\012T\210\205"
 335      0901B120 
 335      58591998 
 335      3C457433 
 335      E50A5488 
 336 09c4 13CB278D 		.ascii	"\023\313'\215\025C\323\261R\254WJX\305#\226\205\312"
 336      1543D3B1 
 336      52AC574A 
 336      58C52396 
 336      85CA
 337 09d6 C49F9795 		.ascii	"\304\237\227\225\216)\234\030\324\215\202\252Q\372\331"
 337      8E299C18 
 337      D48D82AA 
ARM GAS  /tmp/ccwvQ9CH.s 			page 27


 337      51FAD9
 338 09e5 D8020650 		.ascii	"\330\002\006P\366\274\310\312b\255,\2012mQ\\\300\274"
 338      F6BCC8CA 
 338      62AD2C81 
 338      326D515C 
 338      C0BC
 339 09f7 F149102D 		.ascii	"\361I\020-\322OJ<\314\2672\310\3561\357t\255D\255\351"
 339      D24F4A3C 
 339      CCB732C8 
 339      EE31EF74 
 339      AD44ADE9 
 340 0a0b 76E33C0C 		.ascii	"v\343<\014A{\032\324\355\364\247?qO*\015@_B\231[\317"
 340      417B1AD4 
 340      EDF4A73F 
 340      714F2A0D 
 340      405F4299 
 341 0a21 E4854281 		.ascii	"\344\205B\201)\342 \350lEq\210u\365\177\302\307?\024"
 341      29E220E8 
 341      6C457188 
 341      75F57FC2 
 341      C73F14
 342              		.text
 343              		.section	.gnu.lto_.symtab.efe28093bb793552,"",%progbits
 344 0000 5F70616C 		.ascii	"_pal_lld_init\000\000\000\000\000\000\000\000\000\000"
 344      5F6C6C64 
 344      5F696E69 
 344      74000000 
 344      00000000 
 345 0017 0000F700 		.ascii	"\000\000\367\000\000\000_pal_lld_setgroupmode\000\000"
 345      00005F70 
 345      616C5F6C 
 345      6C645F73 
 345      65746772 
 346 0034 00000000 		.ascii	"\000\000\000\000\000\000\000\000\000\000\026\001\000"
 346      00000000 
 346      00001601 
 346      00
 347 0041 00       		.ascii	"\000"
 348              		.text
 349              		.section	.gnu.lto_.opts,"",%progbits
 350 0000 272D6D63 		.ascii	"'-mcpu=cortex-m4' '-mno-thumb-interwork' '-mthumb' "
 350      70753D63 
 350      6F727465 
 350      782D6D34 
 350      2720272D 
 351 0033 272D6767 		.ascii	"'-ggdb' '-O0' '-fomit-frame-pointer' '-falign-funct"
 351      64622720 
 351      272D4F30 
 351      2720272D 
 351      666F6D69 
 352 0066 696F6E73 		.ascii	"ions=16' '-ffunction-sections' '-fdata-sections' '-"
 352      3D313627 
 352      20272D66 
 352      66756E63 
 352      74696F6E 
 353 0099 666E6F2D 		.ascii	"fno-common' '-flto'\000"
 353      636F6D6D 
ARM GAS  /tmp/ccwvQ9CH.s 			page 28


 353      6F6E2720 
 353      272D666C 
 353      746F2700 
 354              		.text
 355              		.cfi_sections	.debug_frame
 356              		.section	.text.initgpio,"ax",%progbits
 357              		.align	2
 358              		.p2align 4,,15
 359              		.thumb
 360              		.thumb_func
 361              		.type	initgpio, %function
 362              	initgpio:
 363              	.LFB272:
 364              		.file 1 "../../../../os/hal/ports/STM32/LLD/GPIOv2/pal_lld.c"
 365              		.loc 1 61 0
 366              		.cfi_startproc
 367              		@ args = 0, pretend = 0, frame = 8
 368              		@ frame_needed = 0, uses_anonymous_args = 0
 369              		@ link register save eliminated.
 370 0000 82B0     		sub	sp, sp, #8
 371              		.cfi_def_cfa_offset 8
 372 0002 0190     		str	r0, [sp, #4]
 373 0004 0091     		str	r1, [sp]
 374              		.loc 1 63 0
 375 0006 009B     		ldr	r3, [sp]
 376 0008 5A68     		ldr	r2, [r3, #4]
 377 000a 019B     		ldr	r3, [sp, #4]
 378 000c 5A60     		str	r2, [r3, #4]
 379              		.loc 1 64 0
 380 000e 009B     		ldr	r3, [sp]
 381 0010 9A68     		ldr	r2, [r3, #8]
 382 0012 019B     		ldr	r3, [sp, #4]
 383 0014 9A60     		str	r2, [r3, #8]
 384              		.loc 1 65 0
 385 0016 009B     		ldr	r3, [sp]
 386 0018 DA68     		ldr	r2, [r3, #12]
 387 001a 019B     		ldr	r3, [sp, #4]
 388 001c DA60     		str	r2, [r3, #12]
 389              		.loc 1 66 0
 390 001e 009B     		ldr	r3, [sp]
 391 0020 1A69     		ldr	r2, [r3, #16]
 392 0022 019B     		ldr	r3, [sp, #4]
 393 0024 5A61     		str	r2, [r3, #20]
 394              		.loc 1 67 0
 395 0026 009B     		ldr	r3, [sp]
 396 0028 5A69     		ldr	r2, [r3, #20]
 397 002a 019B     		ldr	r3, [sp, #4]
 398 002c 1A62     		str	r2, [r3, #32]
 399              		.loc 1 68 0
 400 002e 009B     		ldr	r3, [sp]
 401 0030 9A69     		ldr	r2, [r3, #24]
 402 0032 019B     		ldr	r3, [sp, #4]
 403 0034 5A62     		str	r2, [r3, #36]
 404              		.loc 1 69 0
 405 0036 009B     		ldr	r3, [sp]
 406 0038 1A68     		ldr	r2, [r3]
 407 003a 019B     		ldr	r3, [sp, #4]
ARM GAS  /tmp/ccwvQ9CH.s 			page 29


 408 003c 1A60     		str	r2, [r3]
 409              		.loc 1 70 0
 410 003e 02B0     		add	sp, sp, #8
 411              		@ sp needed
 412 0040 7047     		bx	lr
 413              		.cfi_endproc
 414              	.LFE272:
 415              		.size	initgpio, .-initgpio
 416 0042 00BFAFF3 		.section	.text._pal_lld_init,"ax",%progbits
 416      0080AFF3 
 416      0080AFF3 
 416      0080
 417              		.align	2
 418              		.p2align 4,,15
 419              		.global	_pal_lld_init
 420              		.thumb
 421              		.thumb_func
 422              		.type	_pal_lld_init, %function
 423              	_pal_lld_init:
 424              	.LFB273:
 425              		.loc 1 88 0
 426              		.cfi_startproc
 427              		@ args = 0, pretend = 0, frame = 8
 428              		@ frame_needed = 0, uses_anonymous_args = 0
 429 0000 00B5     		push	{lr}
 430              		.cfi_def_cfa_offset 4
 431              		.cfi_offset 14, -4
 432 0002 83B0     		sub	sp, sp, #12
 433              		.cfi_def_cfa_offset 16
 434 0004 0190     		str	r0, [sp, #4]
 435              		.loc 1 104 0
 436 0006 4FF46053 		mov	r3, #14336
 437 000a C4F20203 		movt	r3, 16386
 438 000e 4FF46052 		mov	r2, #14336
 439 0012 C4F20202 		movt	r2, 16386
 440 0016 126B     		ldr	r2, [r2, #48]
 441 0018 6FEA5222 		mvn	r2, r2, lsr #9
 442 001c 6FEA4222 		mvn	r2, r2, lsl #9
 443 0020 1A63     		str	r2, [r3, #48]
 444              		.loc 1 105 0
 445 0022 4FF46053 		mov	r3, #14336
 446 0026 C4F20203 		movt	r3, 16386
 447 002a 4FF46052 		mov	r2, #14336
 448 002e C4F20202 		movt	r2, 16386
 449 0032 126D     		ldr	r2, [r2, #80]
 450 0034 6FEA5222 		mvn	r2, r2, lsr #9
 451 0038 6FEA4222 		mvn	r2, r2, lsl #9
 452 003c 1A65     		str	r2, [r3, #80]
 453              		.loc 1 112 0
 454 003e 019B     		ldr	r3, [sp, #4]
 455 0040 0020     		movs	r0, #0
 456 0042 C4F20200 		movt	r0, 16386
 457 0046 1946     		mov	r1, r3
 458 0048 FFF7FEFF 		bl	initgpio
 459              		.loc 1 115 0
 460 004c 019B     		ldr	r3, [sp, #4]
 461 004e 1C33     		adds	r3, r3, #28
ARM GAS  /tmp/ccwvQ9CH.s 			page 30


 462 0050 4FF48060 		mov	r0, #1024
 463 0054 C4F20200 		movt	r0, 16386
 464 0058 1946     		mov	r1, r3
 465 005a FFF7FEFF 		bl	initgpio
 466              		.loc 1 118 0
 467 005e 019B     		ldr	r3, [sp, #4]
 468 0060 3833     		adds	r3, r3, #56
 469 0062 4FF40060 		mov	r0, #2048
 470 0066 C4F20200 		movt	r0, 16386
 471 006a 1946     		mov	r1, r3
 472 006c FFF7FEFF 		bl	initgpio
 473              		.loc 1 121 0
 474 0070 019B     		ldr	r3, [sp, #4]
 475 0072 5433     		adds	r3, r3, #84
 476 0074 4FF44060 		mov	r0, #3072
 477 0078 C4F20200 		movt	r0, 16386
 478 007c 1946     		mov	r1, r3
 479 007e FFF7FEFF 		bl	initgpio
 480              		.loc 1 124 0
 481 0082 019B     		ldr	r3, [sp, #4]
 482 0084 7033     		adds	r3, r3, #112
 483 0086 4FF48050 		mov	r0, #4096
 484 008a C4F20200 		movt	r0, 16386
 485 008e 1946     		mov	r1, r3
 486 0090 FFF7FEFF 		bl	initgpio
 487              		.loc 1 127 0
 488 0094 019B     		ldr	r3, [sp, #4]
 489 0096 8C33     		adds	r3, r3, #140
 490 0098 4FF4A050 		mov	r0, #5120
 491 009c C4F20200 		movt	r0, 16386
 492 00a0 1946     		mov	r1, r3
 493 00a2 FFF7FEFF 		bl	initgpio
 494              		.loc 1 130 0
 495 00a6 019B     		ldr	r3, [sp, #4]
 496 00a8 A833     		adds	r3, r3, #168
 497 00aa 4FF4C050 		mov	r0, #6144
 498 00ae C4F20200 		movt	r0, 16386
 499 00b2 1946     		mov	r1, r3
 500 00b4 FFF7FEFF 		bl	initgpio
 501              		.loc 1 133 0
 502 00b8 019B     		ldr	r3, [sp, #4]
 503 00ba C433     		adds	r3, r3, #196
 504 00bc 4FF4E050 		mov	r0, #7168
 505 00c0 C4F20200 		movt	r0, 16386
 506 00c4 1946     		mov	r1, r3
 507 00c6 FFF7FEFF 		bl	initgpio
 508              		.loc 1 136 0
 509 00ca 019B     		ldr	r3, [sp, #4]
 510 00cc E033     		adds	r3, r3, #224
 511 00ce 4FF40050 		mov	r0, #8192
 512 00d2 C4F20200 		movt	r0, 16386
 513 00d6 1946     		mov	r1, r3
 514 00d8 FFF7FEFF 		bl	initgpio
 515              		.loc 1 144 0
 516 00dc 03B0     		add	sp, sp, #12
 517              		@ sp needed
 518 00de 5DF804FB 		ldr	pc, [sp], #4
ARM GAS  /tmp/ccwvQ9CH.s 			page 31


 519              		.cfi_endproc
 520              	.LFE273:
 521              		.size	_pal_lld_init, .-_pal_lld_init
 522 00e2 00BFAFF3 		.section	.text._pal_lld_setgroupmode,"ax",%progbits
 522      0080AFF3 
 522      0080AFF3 
 522      0080
 523              		.align	2
 524              		.p2align 4,,15
 525              		.global	_pal_lld_setgroupmode
 526              		.thumb
 527              		.thumb_func
 528              		.type	_pal_lld_setgroupmode, %function
 529              	_pal_lld_setgroupmode:
 530              	.LFB274:
 531              		.loc 1 161 0
 532              		.cfi_startproc
 533              		@ args = 0, pretend = 0, frame = 56
 534              		@ frame_needed = 0, uses_anonymous_args = 0
 535              		@ link register save eliminated.
 536 0000 8EB0     		sub	sp, sp, #56
 537              		.cfi_def_cfa_offset 56
 538 0002 0390     		str	r0, [sp, #12]
 539 0004 0291     		str	r1, [sp, #8]
 540 0006 0192     		str	r2, [sp, #4]
 541              		.loc 1 163 0
 542 0008 019B     		ldr	r3, [sp, #4]
 543 000a 03F00303 		and	r3, r3, #3
 544 000e 0D93     		str	r3, [sp, #52]
 545              		.loc 1 164 0
 546 0010 019B     		ldr	r3, [sp, #4]
 547 0012 03F00403 		and	r3, r3, #4
 548 0016 9B08     		lsrs	r3, r3, #2
 549 0018 0C93     		str	r3, [sp, #48]
 550              		.loc 1 165 0
 551 001a 019B     		ldr	r3, [sp, #4]
 552 001c 03F01803 		and	r3, r3, #24
 553 0020 DB08     		lsrs	r3, r3, #3
 554 0022 0B93     		str	r3, [sp, #44]
 555              		.loc 1 166 0
 556 0024 019B     		ldr	r3, [sp, #4]
 557 0026 03F06003 		and	r3, r3, #96
 558 002a 5B09     		lsrs	r3, r3, #5
 559 002c 0A93     		str	r3, [sp, #40]
 560              		.loc 1 167 0
 561 002e 019B     		ldr	r3, [sp, #4]
 562 0030 03F4F063 		and	r3, r3, #1920
 563 0034 DB09     		lsrs	r3, r3, #7
 564 0036 0893     		str	r3, [sp, #32]
 565              		.loc 1 168 0
 566 0038 0023     		movs	r3, #0
 567 003a 0993     		str	r3, [sp, #36]
 568              	.L11:
 569              		.loc 1 170 0
 570 003c 029B     		ldr	r3, [sp, #8]
 571 003e 03F00103 		and	r3, r3, #1
 572 0042 002B     		cmp	r3, #0
ARM GAS  /tmp/ccwvQ9CH.s 			page 32


 573 0044 77D0     		beq	.L4
 574              	.LBB2:
 575              		.loc 1 173 0
 576 0046 099B     		ldr	r3, [sp, #36]
 577 0048 03F00703 		and	r3, r3, #7
 578 004c 9B00     		lsls	r3, r3, #2
 579 004e 089A     		ldr	r2, [sp, #32]
 580 0050 02FA03F3 		lsl	r3, r2, r3
 581 0054 0793     		str	r3, [sp, #28]
 582              		.loc 1 174 0
 583 0056 099B     		ldr	r3, [sp, #36]
 584 0058 0122     		movs	r2, #1
 585 005a 02FA03F3 		lsl	r3, r2, r3
 586 005e 0693     		str	r3, [sp, #24]
 587              		.loc 1 175 0
 588 0060 099B     		ldr	r3, [sp, #36]
 589 0062 5B00     		lsls	r3, r3, #1
 590 0064 0322     		movs	r2, #3
 591 0066 02FA03F3 		lsl	r3, r2, r3
 592 006a 0593     		str	r3, [sp, #20]
 593              		.loc 1 176 0
 594 006c 099B     		ldr	r3, [sp, #36]
 595 006e 03F00703 		and	r3, r3, #7
 596 0072 9B00     		lsls	r3, r3, #2
 597 0074 0F22     		movs	r2, #15
 598 0076 02FA03F3 		lsl	r3, r2, r3
 599 007a 0493     		str	r3, [sp, #16]
 600              		.loc 1 177 0
 601 007c 039B     		ldr	r3, [sp, #12]
 602 007e 5A68     		ldr	r2, [r3, #4]
 603 0080 069B     		ldr	r3, [sp, #24]
 604 0082 DB43     		mvns	r3, r3
 605 0084 1A40     		ands	r2, r2, r3
 606 0086 0C9B     		ldr	r3, [sp, #48]
 607 0088 1A43     		orrs	r2, r2, r3
 608 008a 039B     		ldr	r3, [sp, #12]
 609 008c 5A60     		str	r2, [r3, #4]
 610              		.loc 1 178 0
 611 008e 039B     		ldr	r3, [sp, #12]
 612 0090 9A68     		ldr	r2, [r3, #8]
 613 0092 059B     		ldr	r3, [sp, #20]
 614 0094 DB43     		mvns	r3, r3
 615 0096 1A40     		ands	r2, r2, r3
 616 0098 0B9B     		ldr	r3, [sp, #44]
 617 009a 1A43     		orrs	r2, r2, r3
 618 009c 039B     		ldr	r3, [sp, #12]
 619 009e 9A60     		str	r2, [r3, #8]
 620              		.loc 1 179 0
 621 00a0 039B     		ldr	r3, [sp, #12]
 622 00a2 DA68     		ldr	r2, [r3, #12]
 623 00a4 059B     		ldr	r3, [sp, #20]
 624 00a6 DB43     		mvns	r3, r3
 625 00a8 1A40     		ands	r2, r2, r3
 626 00aa 0A9B     		ldr	r3, [sp, #40]
 627 00ac 1A43     		orrs	r2, r2, r3
 628 00ae 039B     		ldr	r3, [sp, #12]
 629 00b0 DA60     		str	r2, [r3, #12]
ARM GAS  /tmp/ccwvQ9CH.s 			page 33


 630              		.loc 1 180 0
 631 00b2 0D9B     		ldr	r3, [sp, #52]
 632 00b4 022B     		cmp	r3, #2
 633 00b6 1FD1     		bne	.L5
 634              		.loc 1 183 0
 635 00b8 099B     		ldr	r3, [sp, #36]
 636 00ba 072B     		cmp	r3, #7
 637 00bc 09D8     		bhi	.L6
 638              		.loc 1 184 0
 639 00be 039B     		ldr	r3, [sp, #12]
 640 00c0 1A6A     		ldr	r2, [r3, #32]
 641 00c2 049B     		ldr	r3, [sp, #16]
 642 00c4 DB43     		mvns	r3, r3
 643 00c6 1A40     		ands	r2, r2, r3
 644 00c8 079B     		ldr	r3, [sp, #28]
 645 00ca 1A43     		orrs	r2, r2, r3
 646 00cc 039B     		ldr	r3, [sp, #12]
 647 00ce 1A62     		str	r2, [r3, #32]
 648 00d0 08E0     		b	.L7
 649              	.L6:
 650              		.loc 1 186 0
 651 00d2 039B     		ldr	r3, [sp, #12]
 652 00d4 5A6A     		ldr	r2, [r3, #36]
 653 00d6 049B     		ldr	r3, [sp, #16]
 654 00d8 DB43     		mvns	r3, r3
 655 00da 1A40     		ands	r2, r2, r3
 656 00dc 079B     		ldr	r3, [sp, #28]
 657 00de 1A43     		orrs	r2, r2, r3
 658 00e0 039B     		ldr	r3, [sp, #12]
 659 00e2 5A62     		str	r2, [r3, #36]
 660              	.L7:
 661              		.loc 1 187 0 discriminator 1
 662 00e4 039B     		ldr	r3, [sp, #12]
 663 00e6 1A68     		ldr	r2, [r3]
 664 00e8 059B     		ldr	r3, [sp, #20]
 665 00ea DB43     		mvns	r3, r3
 666 00ec 1A40     		ands	r2, r2, r3
 667 00ee 0D9B     		ldr	r3, [sp, #52]
 668 00f0 1A43     		orrs	r2, r2, r3
 669 00f2 039B     		ldr	r3, [sp, #12]
 670 00f4 1A60     		str	r2, [r3]
 671 00f6 1EE0     		b	.L4
 672              	.L5:
 673              		.loc 1 192 0
 674 00f8 039B     		ldr	r3, [sp, #12]
 675 00fa 1A68     		ldr	r2, [r3]
 676 00fc 059B     		ldr	r3, [sp, #20]
 677 00fe DB43     		mvns	r3, r3
 678 0100 1A40     		ands	r2, r2, r3
 679 0102 0D9B     		ldr	r3, [sp, #52]
 680 0104 1A43     		orrs	r2, r2, r3
 681 0106 039B     		ldr	r3, [sp, #12]
 682 0108 1A60     		str	r2, [r3]
 683              		.loc 1 193 0
 684 010a 099B     		ldr	r3, [sp, #36]
 685 010c 072B     		cmp	r3, #7
 686 010e 09D8     		bhi	.L8
ARM GAS  /tmp/ccwvQ9CH.s 			page 34


 687              		.loc 1 194 0
 688 0110 039B     		ldr	r3, [sp, #12]
 689 0112 1A6A     		ldr	r2, [r3, #32]
 690 0114 049B     		ldr	r3, [sp, #16]
 691 0116 DB43     		mvns	r3, r3
 692 0118 1A40     		ands	r2, r2, r3
 693 011a 079B     		ldr	r3, [sp, #28]
 694 011c 1A43     		orrs	r2, r2, r3
 695 011e 039B     		ldr	r3, [sp, #12]
 696 0120 1A62     		str	r2, [r3, #32]
 697 0122 08E0     		b	.L4
 698              	.L8:
 699              		.loc 1 196 0
 700 0124 039B     		ldr	r3, [sp, #12]
 701 0126 5A6A     		ldr	r2, [r3, #36]
 702 0128 049B     		ldr	r3, [sp, #16]
 703 012a DB43     		mvns	r3, r3
 704 012c 1A40     		ands	r2, r2, r3
 705 012e 079B     		ldr	r3, [sp, #28]
 706 0130 1A43     		orrs	r2, r2, r3
 707 0132 039B     		ldr	r3, [sp, #12]
 708 0134 5A62     		str	r2, [r3, #36]
 709              	.L4:
 710              	.LBE2:
 711              		.loc 1 199 0
 712 0136 029B     		ldr	r3, [sp, #8]
 713 0138 5B08     		lsrs	r3, r3, #1
 714 013a 0293     		str	r3, [sp, #8]
 715              		.loc 1 200 0
 716 013c 029B     		ldr	r3, [sp, #8]
 717 013e 002B     		cmp	r3, #0
 718 0140 00D1     		bne	.L9
 719              		.loc 1 201 0
 720 0142 0FE0     		b	.L12
 721              	.L9:
 722              		.loc 1 202 0
 723 0144 0C9B     		ldr	r3, [sp, #48]
 724 0146 5B00     		lsls	r3, r3, #1
 725 0148 0C93     		str	r3, [sp, #48]
 726              		.loc 1 203 0
 727 014a 0B9B     		ldr	r3, [sp, #44]
 728 014c 9B00     		lsls	r3, r3, #2
 729 014e 0B93     		str	r3, [sp, #44]
 730              		.loc 1 204 0
 731 0150 0A9B     		ldr	r3, [sp, #40]
 732 0152 9B00     		lsls	r3, r3, #2
 733 0154 0A93     		str	r3, [sp, #40]
 734              		.loc 1 205 0
 735 0156 0D9B     		ldr	r3, [sp, #52]
 736 0158 9B00     		lsls	r3, r3, #2
 737 015a 0D93     		str	r3, [sp, #52]
 738              		.loc 1 206 0
 739 015c 099B     		ldr	r3, [sp, #36]
 740 015e 0133     		adds	r3, r3, #1
 741 0160 0993     		str	r3, [sp, #36]
 742              		.loc 1 207 0
 743 0162 6BE7     		b	.L11
ARM GAS  /tmp/ccwvQ9CH.s 			page 35


 744              	.L12:
 745              		.loc 1 208 0
 746 0164 0EB0     		add	sp, sp, #56
 747              		@ sp needed
 748 0166 7047     		bx	lr
 749              		.cfi_endproc
 750              	.LFE274:
 751              		.size	_pal_lld_setgroupmode, .-_pal_lld_setgroupmode
 752 0168 AFF30080 		.text
 752      AFF30080 
 753              	.Letext0:
 754              		.file 2 "/usr/include/newlib/machine/_default_types.h"
 755              		.file 3 "/usr/include/newlib/stdint.h"
 756              		.file 4 "../../../../os/rt/ports/ARMCMx/compilers/GCC/chtypes.h"
 757              		.file 5 "../../../../os/rt/include/chsystypes.h"
 758              		.file 6 "../../../../os/rt/include/chschd.h"
 759              		.file 7 "../../../../os/ext/CMSIS/ST/STM32F4xx/stm32f407xx.h"
 760              		.file 8 "../../../../os/rt/ports/ARMCMx/chcore.h"
 761              		.file 9 "../../../../os/rt/ports/ARMCMx/chcore_v7m.h"
 762              		.file 10 "../../../../os/rt/include/chdebug.h"
 763              		.file 11 "../../../../os/rt/include/chtm.h"
 764              		.file 12 "../../../../os/rt/include/chstats.h"
 765              		.file 13 "../../../../os/rt/include/chsem.h"
 766              		.file 14 "../../../../os/rt/include/chmtx.h"
 767              		.file 15 "../../../../os/hal/ports/STM32/LLD/GPIOv2/pal_lld.h"
 768              		.file 16 "../../../../os/ext/CMSIS/include/core_cm4.h"