ARM GAS  /tmp/cc61LjSr.s 			page 1


   1              		.syntax unified
   2              		.cpu cortex-m4
   3              		.fpu softvfp
   4              		.eabi_attribute 20, 1
   5              		.eabi_attribute 21, 1
   6              		.eabi_attribute 23, 3
   7              		.eabi_attribute 24, 1
   8              		.eabi_attribute 25, 1
   9              		.eabi_attribute 26, 1
  10              		.eabi_attribute 30, 6
  11              		.eabi_attribute 34, 1
  12              		.eabi_attribute 18, 4
  13              		.thumb
  14              		.file	"pal_lld.c"
  15              		.text
  16              	.Ltext0:
  17              		.section	.gnu.lto_.inline.d289f20b72293a25,"",%progbits
  18 0000 789C6362 		.ascii	"x\234cb`b\300\006\262\24143\003\203\240\000\003\003"
  18      6062C006 
  18      B2A13433 
  18      0383A000 
  18      0303
  19 0012 935CC32F 		.ascii	"\223\\\303/F\006\026\210bF\006\225/@\212\211\257\241"
  19      46061688 
  19      62460695 
  19      2F408A89 
  19      AFA1
  20 0024 1626C4CC 		.ascii	"\026&\304\314C\002\301\304p\231\341\022\210^\304\270"
  20      4302C1C4 
  20      7099E112 
  20      885EC4B8 
  21 0034 A0910B66 		.ascii	"\240\221\013f\004\003\000\340U\010e"
  21      040300E0 
  21      550865
  22              		.text
  23              		.section	.gnu.lto_initgpio.d289f20b72293a25,"",%progbits
  24 0000 789C9D92 		.ascii	"x\234\235\222\317+\004Q\034\300\277\337\371\275\203"
  24      CF2B0451 
  24      1CC0BFDF 
  24      F9BD83
  25 000f A25C1C94 		.ascii	"\242\\\034\2248\252}\355\222\223\\(\251\025\265\253"
  25      38AA7DED 
  25      92935C28 
  25      A915B5AB 
  26 001f 3869979A 		.ascii	"8i\227\232\235\032\021r\335\331m\017\222\264I\332H\270"
  26      9D1A1172 
  26      DDD96D0F 
  26      92B449DA 
  26      48B8
  27 0031 C965AF8E 		.ascii	"\311e\257\216rP\016\212\233\3440\221\374\013\\\214\367"
  27      72500E8A 
  27      9BE43091 
  27      FC0B5C8C 
  27      F7
  28 0042 66DE6638 		.ascii	"f\336f8L\274o\315w\276\2577\237\367\371N\337'\201\004"
  28      4CBC6FCD 
  28      77BEAF37 
ARM GAS  /tmp/cc61LjSr.s 			page 2


  28      9FF7F94E 
  28      DF278104 
  29 0056 BFA3933E 		.ascii	"\277\243\223>\037\012\300\010[\310\200\364\013\224\020"
  29      1F0AC008 
  29      5BC880F4 
  29      0B9410
  30 0065 E902A124 		.ascii	"\351\002\241$ai\216\225\240\367\302\251\353\356z\257"
  30      61698E95 
  30      A0F7C2A9 
  30      EBEE7AAF 
  31 0075 C7475D5B 		.ascii	"\307G]['\225\232\373\351\373h\263\255\005\204YZaO\360"
  31      27959AFB 
  31      E9FB68B3 
  31      AD058459 
  31      5A614FF0 
  32 0089 92949FA7 		.ascii	"\222\224\237\247\207\330e\355z\333\254\2257]\337/\375"
  32      87D865ED 
  32      7ADBAC95 
  32      375DDF2F 
  32      FD
  33 009a 1DDA1581 		.ascii	"\035\332\025\201\366D\240}\021\250.\002\035\374\013"
  33      F644A07D 
  33      11A82E02 
  33      1DFC0B
  34 00a9 6A48979E 		.ascii	"jH\227\236\357?5\336\274\035\3540\021\227\220\016\220"
  34      EF3F35DE 
  34      BC1DEC30 
  34      1197900E 
  34      90
  35 00ba 7232AD50 		.ascii	"r2\255Pa\225\312\222\306\222\316\222\301R\002\202\243"
  35      6195CA92 
  35      C692CE92 
  35      C1520282 
  35      A3
  36 00cb E95ED575 		.ascii	"\351^\325uk=\201\204F.\3103l\300\362-T\036\337\217\273"
  36      6B3D8184 
  36      462EC833 
  36      6CC0F22D 
  36      541EDF8F 
  37 00e0 F378862A 		.ascii	"\363x\206*X(\365\303\271\333n\243|\010\007\264\015\305"
  37      5828F5C3 
  37      B9DB6EA3 
  37      7C0807B4 
  37      0DC5
  38 00f2 4264EDA8 		.ascii	"Bd\355\250A\023\005l\266s\013W7wf\0101\242ZvS6j!\244"
  38      4113056C 
  38      B6730B57 
  38      37776608 
  38      31A25A76 
  39 010b 5B2833C8 		.ascii	"[(3\310\340PHYL\307l\365\347;\271\251S\342u\222\210"
  39      E0504859 
  39      4CC76CF5 
  39      E73BB9A9 
  39      53E27592 
  40 0120 4EE63A25 		.ascii	"N\346:%\324]Dtj\274N\021\321\251\\\247\206\272\207\210"
  40      D45D4474 
  40      6ABC4E11 
ARM GAS  /tmp/cc61LjSr.s 			page 3


  40      D1A95CA7 
  40      86BA8788 
  41 0134 4E8BD769 		.ascii	"N\213\327i\":\235\353\264P\367\036\321\351\361:CD\227"
  41      223A9DEB 
  41      B450F71E 
  41      D1E9F13A 
  41      434497
  42 0147 E03A9DCF 		.ascii	"\340:\235\317\356\345[g\304\353L\021]\013\327\031|v"
  42      EEE55B67 
  42      C4EB4C11 
  42      5D0BD719 
  42      7C76
  43 0159 115D225E 		.ascii	"\021]\"^\327*\242k\343:\372\227\367P\366v\372B\256\031"
  43      D72AA26B 
  43      E33AFA97 
  43      F750F676 
  43      FA42AE19 
  44 016d 397675D9 		.ascii	"9vu\331\035\034v\354\002\031-\332\005{*;\237\032J\246"
  44      1D1C76EC 
  44      02192DDA 
  44      057B2A3B 
  44      9F1A4AA6 
  45 0181 9283842C 		.ascii	"\222\203\204,\257\221b\336!+\313\253\353k$\233\233\034"
  45      AF9162DE 
  45      212BCBAB 
  45      EB6B249B 
  45      9B1C
  46 0193 48934C66 		.ascii	"H\223Lf\214\214OOLm\244\311J\336\231w\234\305\344\002"
  46      8C8C4F4F 
  46      4C6DA4C9 
  46      4ADE9977 
  46      9CC5E402 
  47 01a7 7C0128AF 		.ascii	"|\001(\257\035:"
  47      1D3A
  48              		.text
  49              		.section	.gnu.lto__pal_lld_init.d289f20b72293a25,"",%progbits
  50 0000 789CDD94 		.ascii	"x\234\335\224Oh\023A\024\306\337\333?I6\377\023{\021"
  50      4F681341 
  50      14C6DFDB 
  50      3F4936FF 
  50      137B11
  51 0013 2F45F024 		.ascii	"/E\360$di\025\361 ^\024\244P\251\320\010\352\245$\021"
  51      646915F1 
  51      205E14A4 
  51      50A9D008 
  51      EAA52411 
  52 0027 DA85488B 		.ascii	"\332\205H\213\325^<d\322\246\020\244b\220\036j\275D"
  52      D55E3C64 
  52      D2A610A4 
  52      62901E6A 
  52      BD44
  53 0039 BC44412C 		.ascii	"\274DA,\001\261\275\005/\005!h/\236<T\301\273\212\210"
  53      01B1BD05 
  53      2F052168 
  53      2F9E3C54 
  53      C1BB8A88 
  54 004d 14ED3A6F 		.ascii	"\024\355:o'\233\215m\012\273\013^\034\310\227\031\336"
ARM GAS  /tmp/cc61LjSr.s 			page 4


  54      279B8D6D 
  54      0ABB0B5E 
  54      1CC89719 
  54      DE
  55 005e 7CDFEFCD 		.ascii	"|\337\357\315\3562\022H\260w\014\360_[\0038K\013\031"
  55      EE321248 
  55      B0770CF0 
  55      5F5B0338 
  55      4B0B19
  56 0071 90EF4009 		.ascii	"\220\357@\011\221/\020J\022\226\256\322\024RG\3411c"
  56      912F104A 
  56      1296AED2 
  56      145247E1 
  56      3163
  57 0083 0FB6177F 		.ascii	"\017\266\027\177\274\223\036.\267*u\366\3134\021\015"
  57      BC931E2E 
  57      B72A75F6 
  57      CB34110D 
  58 0093 2A1610AE 		.ascii	"*\026\020\256\360\031\016Z\177\222\362w\2760\262f\203"
  58      F0190E5A 
  58      7F92F277 
  58      BE30B266 
  58      83
  59 00a4 699649F6 		.ascii	"i\226I\366\347\221\377\235\247\325\334\\\012\327\312"
  59      E791FF9D 
  59      A7D5DC5C 
  59      0AD7CA
  60 00b3 55669AA5 		.ascii	"Uf\232\245\377\343@[\233\367\016\337\255\317\327\330"
  60      FFE3405B 
  60      9BF70EDF 
  60      ADCFD7D8 
  61 00c3 2E7F4906 		.ascii	".\177I\006*.m\357{\237\203[\323\007?\246o~L?\375\230"
  61      2A2E6DEF 
  61      7B9F835B 
  61      D3073FA6 
  61      6F7E4C3F 
  62 00d9 76FD9896 		.ascii	"v\375\230\226\337\3700\255\3721\255y2\275\220Z\333\246"
  62      DFF830AD 
  62      FA31AD79 
  62      32BD905A 
  62      DBA6
  63 00eb B9F4EAFB 		.ascii	"\271\364\352\373\247\006\246\017!\360/O\"\221\271\310"
  63      A706A60F 
  63      21F02F4F 
  63      2291B9C8 
  64 00fb 0A894ACB 		.ascii	"\012\211J\313\000I\220\226!\022\015o \204\371L\211\220"
  64      00499096 
  64      21120D6F 
  64      2084F94C 
  64      8990
  65 010d 44496224 		.ascii	"DIb$q\222\004I\222$E\222\006\253\017P\241\302Xm\320"
  65      71920449 
  65      92244592 
  65      06AB0F50 
  65      A1C2586D 
  66 0122 EA888FAC 		.ascii	"\352\210\217\254\245\227\351v\220\3330\277\276\302\357"
  66      A597E976 
ARM GAS  /tmp/cc61LjSr.s 			page 5


  66      90DB30BF 
  66      BEC2EF
  67 0131 811C3651 		.ascii	"\201\0346Q\205IDj\025\330\227*##\257\236\266+\322\236"
  67      8549446A 
  67      15D8972A 
  67      2323AF9E 
  67      B62BD29E 
  68 0145 CAEB6B76 		.ascii	"\312\353kvE>\016\317X\245\2344P}\004\253|W\300\336m"
  68      453E0ECF 
  68      58A59C34 
  68      507D04AB 
  68      7C57C0DE 
  69 015a 8D3CDA47 		.ascii	"\215<\332Gn\303\302\206l\273\024n\244M\262)\213\274"
  69      6EC3C286 
  69      6CBB146E 
  69      A44DB229 
  69      8BBC
  70 016c 1151E913 		.ascii	"\021Q\351\023\206\373\303&\351`\324|c\316\016T\017l"
  70      86FBC326 
  70      E960D47C 
  70      63CE0E54 
  70      0F6C
  71 017e 3D7060EB 		.ascii	"=p`\353\301>\264@/\015\373\265\036\342F\227\255\253"
  71      C13EB440 
  71      2F0DFBB5 
  71      1EE24697 
  71      ADAB
  72 0190 FBC3B8DF 		.ascii	"\373\303\270\337jog\341\311\375#vd\370\016\3540\356"
  72      6A6F67E1 
  72      C9FD2376 
  72      64F80EEC 
  72      30EE
  73 01a2 5428A3C6 		.ascii	"T(\243\306\330m\003\203\"\204\3034\012\321:!=\267\376"
  73      D86D0383 
  73      2284C334 
  73      0AD13A21 
  73      3DB7FE
  74 01b5 5B586C75 		.ascii	"[Xlu\022\000(\240J\021\341B\007D\256\010ctj\01600\332"
  74      120028A0 
  74      4A11E142 
  74      0744AE08 
  74      63746A0E 
  75 01cc C13E4FD8 		.ascii	"\301>O\330\324\210k\252\354\221Z\025\324\210C\335\350"
  75      D4886BAA 
  75      EC915A15 
  75      D48843DD 
  75      E8
  76 01dd 52A3AEA9 		.ascii	"R\243\256\251\212GjMP\243\016\365s\227\032sMU=RW\004"
  76      8A476A4D 
  76      50A30EF5 
  76      73971A73 
  76      4D553D52 
  77 01f3 35E650BF 		.ascii	"5\346P\277v\251q\327\324\200Gj]P\343\016\365w\227\232"
  77      76A971D7 
  77      D480476A 
  77      5D50E30E 
  77      F577979A 
ARM GAS  /tmp/cc61LjSr.s 			page 6


  78 0207 704D0D7A 		.ascii	"pM\015z\2446\0045\341P\237\016\330\324\244kj\310#uM"
  78      A4360435 
  78      E1509F0E 
  78      D8D4A46B 
  78      6AC82375 
  79 021c 50930EF5 		.ascii	"P\223\016\365e\227\232rM\325<R\327\0055\345P?v\251i"
  79      65979A72 
  79      4DD53C52 
  79      D70535E5 
  79      503F76A9 
  80 0231 D7D4B047 		.ascii	"\327\324\260GjKP\323\026u\013\312\333\215c\266E\214"
  80      6A4B50D3 
  80      16750BCA 
  80      DB8D63B6 
  80      458C
  81 0243 2C6DA75B 		.ascii	",m\247[\340L\321\310\353\347\246\214\27416>1t*3\224"
  81      E04CD1C8 
  81      EBE7A68C 
  81      BC31363E 
  81      31742A33 
  82 0258 39A9EBD3 		.ascii	"9\251\353\323\263\372T\256\250\317L\337\2745\253\217"
  82      B3FA54AE 
  82      A8CF4CDF 
  82      BC35AB8F 
  83 0268 672F9E18 		.ascii	"g/\236\030\326GG\317\353\027.\215\214\315\015\3533\271"
  83      D64747CF 
  83      EB172E8D 
  83      8CCD0DEB 
  83      33B9
  84 027a E244B178 		.ascii	"\342D\261x=S\200?\202{53"
  84      3D53803F 
  84      827B3533 
  85              		.text
  86              		.section	.gnu.lto__pal_lld_setgroupmode.d289f20b72293a25,"",%progbits
  87 0000 789CDD59 		.ascii	"x\234\335Y[LTG\030\2369g\227\345\262,\336\005\274!\336"
  87      5B4C5447 
  87      189E3967 
  87      97E5B22C 
  87      DE05BC21 
  88 0015 6F2C202A 		.ascii	"o, **\026/\250 \240\246J\242}Q\020\262\322B \0136\255"
  88      2A162FA8 
  88      20A0A64A 
  88      A27D5110 
  88      B2D24220 
  89 002c 0FF5E0D2 		.ascii	"\017\365\340\322\304\270\226R\252(\272U\333\372`\233"
  89      C4B89652 
  89      AA28BA55 
  89      DBFA609B 
  90 003c 784FBDA1 		.ascii	"xO\275\241\260\232>\330\240MM\333\350j\033\025/\304"
  90      B09A3ED8 
  90      A04D4DDB 
  90      E86A1B15 
  90      2FC4
  91 004e 486C2DF1 		.ascii	"Hl-\361\222h\273\375\3779g\316\356\262\233\356\356y"
  91      9268BBFD 
  91      FF3967CE 
  91      EEB29BEE 
ARM GAS  /tmp/cc61LjSr.s 			page 7


  91      EE79
  92 0060 E8039BF0 		.ascii	"\350\003\233\360\3159\3777\337?\337\3743\347\354l\020"
  92      CD39FF37 
  92      DF3FDFFC 
  92      33E7EC6C 
  92      10
  93 0071 88407A7F 		.ascii	"\210@z\177>\201?g\"!\233\361\246\037\241\320\203\012"
  93      3E813F67 
  93      22219BF1 
  93      A61FA1D0 
  93      830A
  94 0083 54041405 		.ascii	"T\004\024\005\035!\222`\004\320\351\004=^G\341\265^"
  94      1D219260 
  94      04D0E904 
  94      3D5E47E1 
  94      B55E
  95 0095 88C06B03 		.ascii	"\210\300k\003^G\320H\350i`\030I\241+\215\022\242\221"
  95      5E47D048 
  95      E8696018 
  95      49A12B8D 
  95      12A291
  96 00a8 8D41369A 		.ascii	"\215A6\232Eb\030\032\205X\214\2330\036K\343 bb\243\304"
  96      4562181A 
  96      85588C9B 
  96      301E4BE3 
  96      206262A3 
  97 00bd 510A0353 		.ascii	"Q\012\003S\262E\020u\372\010CdTt\2141\326\024G\267\254"
  97      B2451075 
  97      FA084364 
  97      54748C31 
  97      D61447B7 
  98 00d2 C538C94E 		.ascii	"\3058\311N&_JR\323\335\217O\335\023[v:\353\017Jo\334"
  98      265F4A52 
  98      D3DD8F4F 
  98      DD135B76 
  98      3AEB0F4A 
  99 00e8 6E4ACB91 		.ascii	"nJ\313\221\334@\311\032\270\242I\254A\267\336\037Y\350"
  99      DC40C91A 
  99      B8A249AC 
  99      41B7DE1F 
  99      59E8
 100 00fa DCDBB123 		.ascii	"\334\333\261#\272\261n\233\344vo\011]\344\320\"\332"
 100      BAB16E9B 
 100      E4766F09 
 100      5DE4D022 
 100      DA
 101 010b AF45F45D 		.ascii	"\257E\364]\307\247\011\333\017nm\224\376\201i\205.k"
 101      C7A709DB 
 101      0F6E6D94 
 101      FE816985 
 101      2E6B
 102 011d B51FD220 		.ascii	"\265\037\322 \223\366=\\yE\252w\272\335\331\241j\032"
 102      93F63D5C 
 102      7945AA77 
 102      BADDD9A1 
 102      6A1A
 103 012f A53B0F3C 		.ascii	"\245;\017<\03214\215\363\242\335gV\242@\262ih\243\235"
ARM GAS  /tmp/cc61LjSr.s 			page 8


 103      1A31348D 
 103      F3A2DD67 
 103      56A240B2 
 103      6968A39D 
 104 0143 3C2C45B1 		.ascii	"<,E\2615\026C\035\255\311\331n\337\035~1\032\245\213"
 104      3516431D 
 104      ADC9D96E 
 104      DF1D7E31 
 104      1AA58B
 105 0156 E14F4C93 		.ascii	"\341OL\223\275\353v\207\226\265z\375 \374\265j\377\237"
 105      BDEB7687 
 105      96B57AFD 
 105      20FCB56A 
 105      FF9F
 106 0168 A6F4B37D 		.ascii	"\246\364\263}\277\226)\035\010{\373i\331\262M\322\271"
 106      BF96291D 
 106      087BFB69 
 106      D9B24DD2 
 106      B9
 107 0179 F035CE5F 		.ascii	"\3605\316_\265M\351\204\006{_h\320\264j\230\322\015"
 107      B54DE984 
 107      067B5F68 
 107      D0B46A98 
 107      D20D
 108 018b 6D53D262 		.ascii	"mS\322b\257E\203\346\214\206)=\353\350sSz\336\367\246"
 108      AF4583E6 
 108      8C86293D 
 108      EBE87353 
 108      7ADEF7A6 
 109 019f F4D27EA0 		.ascii	"\364\322~\240\257=K\2375\364\271)\355\372\261\317m\274"
 109      AF3D4B9F 
 109      35F4B929 
 109      EDFAB1CF 
 109      6DBC
 110 01b1 96BE37A5 		.ascii	"\226\2767\245\335\366\206\004\3113%\235@\026\207t\224"
 110      DDF68604 
 110      C933259D 
 110      40168774 
 110      94
 111 01c2 6A72EEE9 		.ascii	"jr\356\3510\252\307Q\220\345\207(\333\353+{;D\231\303"
 111      30AAC751 
 111      90E58728 
 111      DBEB2B7B 
 111      3B4499C3 
 112 01d6 57F64E88 		.ascii	"W\366N\210\262\375\276\262\365!\312\216\373\312\312"
 112      B2FDBEB2 
 112      F521CA8E 
 112      FBCACA
 113 01e5 42949DB1 		.ascii	"B\224\235\261\357\354U\314\362\320\224\322\363Ru\345"
 113      EFEC55CC 
 113      F2D094D2 
 113      F35275E5 
 114 01f5 40650D51 		.ascii	"@e\015Q\365\267\217jS\210\252]e\336\252\017\202\251"
 114      F5B78F6A 
 114      5388AA5D 
 114      65DEAA0F 
 114      82A9
ARM GAS  /tmp/cc61LjSr.s 			page 9


 115 0207 8E09CEBB 		.ascii	"\216\011\316\273n\267\303\325\335y\230\016\\AI%\205"
 115      6EB7C3D5 
 115      DD79980E 
 115      5C414925 
 115      85
 116 0218 9F79C5F4 		.ascii	"\237y\305\364\006M&\"\264.hu\320\336\206V\017\355\357"
 116      064D2622 
 116      B42E6875 
 116      D0DE8656 
 116      0FEDEF
 117 022b D046407B 		.ascii	"\320F@{\017Z\003\255\244\360\333M\356\034\205\305\210"
 117      0F5A03AD 
 117      A4F0DB4D 
 117      EE1C85C5 
 117      88
 118 023c 56143178 		.ascii	"V\0241xcTd\261xcR\264qx\323\017n\356\300M\177%\321\000"
 118      635464B1 
 118      786352B4 
 118      7178D30F 
 118      6EEEC04D 
 119 0254 48440622 		.ascii	"HD\006\"3\010a0\302\020\000q(t\270\017\035\342\241\375"
 119      33086130 
 119      C2100071 
 119      2874B80F 
 119      1DE2A1FD 
 120 0268 06DA040C 		.ascii	"\006\332\004\014&\302\315C\270\031\206\335\206cd\004"
 120      26C2CD43 
 120      B81986DD 
 120      86636404 
 121 0278 C2480877 		.ascii	"\302H\010wAx\024\206\223\020Fc8\031a\014p\217\201\033"
 121      41781486 
 121      93104663 
 121      3819610C 
 121      708F811B 
 122 028c 0B0309E3 		.ascii	"\013\003\011\343\220\033\2170\001a\"\302$\204\311\010"
 122      901B8F30 
 122      016122C2 
 122      2484C908 
 123 029c 5310A622 		.ascii	"S\020\246\"LCHA0#\244\"\244!\244#LG\310@\230\2010\023"
 123      4C434841 
 123      3023A422 
 123      A421A423 
 123      4C47C840 
 124 02b4 61164226 		.ascii	"a\026B&\302l\2049\010s\021\262\020\346!\274\205\220"
 124      C26C8439 
 124      087311B2 
 124      10E621BC 
 124      8590
 125 02c6 8D301F61 		.ascii	"\2150\037a\001\302B\204E\0109\010\213\021\226 ,E\310"
 125      01C24284 
 125      45083908 
 125      8B119620 
 125      2C45C8
 126 02d9 45C8C375 		.ascii	"E\310\303uY\246T7_)l\201R\323Be\011\226+\345\204\217"
 126      59A65437 
 126      5F296C81 
 126      52D34265 
ARM GAS  /tmp/cc61LjSr.s 			page 10


 126      09962BE5 
 127 02ef 9ED4C3E9 		.ascii	"\236\324\303\351<I\216\313*Y#+\344\362\363\336\033\330"
 127      3C498ECB 
 127      2A59232B 
 127      E4F2F3DE 
 127      1BD8
 128 0301 6FE5D50C 		.ascii	"o\345\325\014\213\360'\274x\215\330Zm\307\232\207\027"
 128      8BF027BC 
 128      788DD85A 
 128      6DC79A87 
 128      17
 129 0312 D327544F 		.ascii	"\323'TO,4\322B\015\270y`K\020\302\310S\315Y\234\214"
 129      2C34D242 
 129      0DB87960 
 129      4B10C2C8 
 129      53CD599C 
 130 0327 E2A44E26 		.ascii	"\342\244N&\217\332\254\234\212\006v\215\374\023N\321"
 130      8FDAAC9C 
 130      8A06768D 
 130      FC134ED1 
 131 0337 9DF1E862 		.ascii	"\235\361\350b\270.\336Og\004\226\351\324\361Z=\272X"
 131      B82EDE4F 
 131      670496E9 
 131      D4F15A3D 
 131      BA58
 132 0349 AE5BEFA7 		.ascii	"\256[\357\2473\001\313tz\256k\367\350\342\270N\212\363"
 132      3301CB74 
 132      7AAE6BF7 
 132      E8E2B84E 
 132      8AF3
 133 035b 13F6039A 		.ascii	"\023\366\003\232\011\015\214\332zv\333i\312\271\376"
 133      090D8CDA 
 133      7A76DB69 
 133      CAB9FE
 134 036a 48A84F4D 		.ascii	"H\250OM\021\376\314\221\013\364\244y\024\3573\320B)"
 134      11FECC91 
 134      0BF4A479 
 134      14EF33D0 
 134      4229
 135 037c CB8D45BC 		.ascii	"\313\215E\274B\352\273\353\322Tj\215\374]\302?.B-t\200"
 135      42EABBEB 
 135      D2546A8D 
 135      FC5DC23F 
 135      2E422D74 
 136 0391 0090677A 		.ascii	"\000\220gz\363l\243\213\010P_\341\202\253\332B\013M"
 136      F36CA38B 
 136      08505FE1 
 136      82ABDA42 
 136      0B4D
 137 03a3 BFF554B8 		.ascii	"\277\365T\270\210\010\205\023\256b`\231\351P\215\213"
 137      88088513 
 137      AE626099 
 137      E9508D8B 
 138 03b3 E8A020C2 		.ascii	"\350\240 \302/k-4\337t\241\247\326E\3640Q\241\033\371"
 138      2F6B2D34 
 138      DF74A1A7 
 138      D645F430 
ARM GAS  /tmp/cc61LjSr.s 			page 11


 138      51A11BF9 
 139 03c7 02D35514 		.ascii	"\002\323U\024D\200Ia\307m\010,7u\367\254G\223:n\362"
 139      44804961 
 139      C76D082C 
 139      3775F7AC 
 139      47933A6E 
 140 03dc 6573AEBA 		.ascii	"es\256\272\031\356\263E\177\310\260\213\341c\266\001"
 140      19EEB345 
 140      7FC8B08B 
 140      E163B601 
 141 03ec 64ABF0B1 		.ascii	"d\253\360\261\320A\026\032\301\014\313\205\260m\267"
 141      D041161A 
 141      C10CCB85 
 141      B06DB7
 142 03fb 9D168A69 		.ascii	"\235\026\212i7\233\311`\240\275\026z\353S[\033\345\334"
 142      379BC960 
 142      A0BD167A 
 142      EB535B1B 
 142      E5DC
 143 040d 10A099E0 		.ascii	"\020\240\231\340\210\355+58\224\025v\210\322\371u\363"
 143      88ED2B35 
 143      38941576 
 143      88D2F975 
 143      F3
 144 041e 484EC4C3 		.ascii	"HN\304\303(ro\221\207\022X\371)\222J\377w9\225\010\254"
 144      28726F91 
 144      871258F9 
 144      29924AFF 
 144      77399508 
 145 0433 62C6DD9C 		.ascii	"b\306\335\234\302\243\303\270S\201\273\331\314\251\341"
 145      C2A3C3B8 
 145      5381BBD9 
 145      CCA9E1
 146 0442 C0F64A3F 		.ascii	"\300\366J?B\331N@\366N?\022Xe\267|\275;\223GG\371\025"
 146      42D94E40 
 146      F64E3F12 
 146      5865B77C 
 146      BD3B9347 
 147 0459 E2853AAF 		.ascii	"\342\205:\257$\240}\013\361\021\247F\003\333k\350d6"
 147      24A07D0B 
 147      F111A746 
 147      03DB6BE8 
 147      6436
 148 046b 741C92BD 		.ascii	"t\034\222\275\207\036c\301\372_#\227o\235=\177O\025"
 148      871E63C1 
 148      FA5F2397 
 148      6F9D3D7F 
 148      4F15
 149 047d 8C9B42BE 		.ascii	"\214\233B\276\225\352A\244\337G\366B\003\313;\026s\030"
 149      95EA41A4 
 149      DF47F642 
 149      03CB3B16 
 149      7318
 150 048f D8FE2951 		.ascii	"\330\376)Q7\023\344\272`kS\227g<TJ\231\207g\315&@:\240"
 150      3713E4BA 
 150      606B5397 
 150      673C544A 
ARM GAS  /tmp/cc61LjSr.s 			page 12


 150      998767CD 
 151 04a7 58FC9CED 		.ascii	"X\374\234\355/5>\221Q\"\033\374\207\3431r\230\215['"
 151      2F353E91 
 151      51221BFC 
 151      87E33172 
 151      988D5B27 
 152 04bb CD0A3232 		.ascii	"\315\01222\250e\3237\275LO\012b\232z\233\356T}L\206"
 152      A865D337 
 152      BD4C4F0A 
 152      629A7A9B 
 152      EE547D4C 
 153 04d0 FA2BA6CF 		.ascii	"\372+\246\317\253\301)\220\016(\305\364\0135>\225Q\272"
 153      ABC12990 
 153      0E28C5F4 
 153      0B353E95 
 153      51BA
 154 04e2 304D53C5 		.ascii	"0MS\305\364T\331\364+/\323\323\202\230\026\274M{\374"
 154      F454D9F4 
 154      2B2FD3D3 
 154      829816BC 
 154      4D7BFC
 155 04f5 A5784C9F 		.ascii	"\245xL\237T\203fH\007\224b\372\251\032Oe\224>L\323\202"
 155      54836648 
 155      079462FA 
 155      A91A4F65 
 155      943E4CD3 
 156 050a 623A155F 		.ascii	"b:\025_'\337w]r\331cyBA\335\365\236w\022\244\027\341"
 156      27DF775D 
 156      72D96379 
 156      4241DDF5 
 156      9E7712A4 
 157 0520 B5F3E8D2 		.ascii	"\265\363\350\322\035\273\211\367c\333Wg\360\351\027"
 157      1DBB89F7 
 157      63DB5767 
 157      F0E917
 158 052f C15E0B97 		.ascii	"\301^\013\227o\355i{\254\026!-H\021\304\300EH\207\355"
 158      6FED697B 
 158      AC16212D 
 158      4811C4C0 
 158      454887ED 
 159 0543 EB5784E9 		.ascii	"\353W\204\351\220\016(\277\"d0j\250\\\204\237|\213\220"
 159      900E28BF 
 159      2264306A 
 159      A85C849F 
 159      7C8B90
 160 0556 1D646450 		.ascii	"\035ddPs\373\006\305\376M/\3733\202\330\327\005\266"
 160      73FB06C5 
 160      FE4D2FFB 
 160      3382D8D7 
 160      05B6
 161 0568 3F3390FD 		.ascii	"?3\220\375Y\220\016(?\373\231\214\012\327\276N\261\237"
 161      59900E28 
 161      3FFB998C 
 161      0AD7BE4E 
 161      B19F
 162 057a C9ED472A 		.ascii	"\311\355G*\366_\265=S\355\317\016b_\037\370\271\231"
 162      F65FB53D 
ARM GAS  /tmp/cc61LjSr.s 			page 13


 162      53EDCF0E 
 162      625F1FF8 
 162      B999
 163 058c 13E8B999 		.ascii	"\023\350\271\231\013\351\200\362{n\262\030%\310\366"
 163      0BE980F2 
 163      7B6EB218 
 163      25C8F6
 164 059b FFF4B53F 		.ascii	"\377\364\265?7\310\310\240\346\366\243\370\346\351\364"
 164      37C8C8A0 
 164      E6F6A3F8 
 164      E6E9F4
 165 05aa D89FA7CD 		.ascii	"\330\237\247\315\376[\201\354gC:\240\374\354\317g\224"
 165      FE5B81EC 
 165      67433AA0 
 165      FCECCF67 
 165      94
 166 05bb 56FBF3D9 		.ascii	"V\373\363\331\027\362\243K\2377\374\347\223\021\315"
 166      17F2A34B 
 166      9F37FCE7 
 166      9311CD
 167 05ca B756A767 		.ascii	"\267V\247gk-\320\366d,\014\264\265\026A:\240\374\266"
 167      6B2DD0F6 
 167      642C0CB4 
 167      B516413A 
 167      A0FCB6
 168 05dd 560EA3B4 		.ascii	"V\016\243\264>\0319\334~\014_\233\373\036\373\213\265"
 168      3E1939DC 
 168      7E0C5F9B 
 168      FB1EFB8B 
 168      B5
 169 05ee 3D194B02 		.ascii	"=\031K\002\331_\012\351\200\362\263\237\313(\255OF."
 169      D95F0AE9 
 169      80F2B39F 
 169      CB28AD4F 
 169      462E
 170 0600 B76F948F 		.ascii	"\267o\224\217+Gm\355\216D~p\312S\316T\242|\246\202\227"
 170      2B476DED 
 170      8E447E70 
 170      CA53CE54 
 170      A27CA682 
 171 0615 E08906A3 		.ascii	"\340\211\006\243J\366:U\341\3715\026\222\024Q\223\234"
 171      4AF63A55 
 171      E1F93516 
 171      92145193 
 171      9C
 172 0626 EA88ED89 		.ascii	"\352\210\355\211C=\277.\203\257:5\025#\377p\214\340"
 172      433DBF2E 
 172      83AF3A35 
 172      1523FF70 
 172      8CE0
 173 0638 643E7CA5 		.ascii	"d>|\245x\037R\217\330z\034\3038Y\000\257n_\362\271\232"
 173      781F528F 
 173      D87A1CC3 
 173      385900AF 
 173      6E5FF2B9 
 174 064d B5507917 		.ascii	"\265Py\027sn\233\355\265#\236\223\313\3716\343.\213"
 174      736E9BED 
ARM GAS  /tmp/cc61LjSr.s 			page 14


 174      B5239E93 
 174      CBF936E3 
 174      2E8B
 175 065f F0DF5662 		.ascii	"\360\337Vb\007\251\203\267@).\340uRw\267\245\213\252"
 175      07A983B7 
 175      40292EE0 
 175      755277B7 
 175      A58BAA
 176 0672 872F6516 		.ascii	"\207/e\026\320\037\363eU\224\227\230\027m,/)_\261j]"
 176      D01FF365 
 176      55949798 
 176      176D2C2F 
 176      295FB16A 
 177 0687 DACC94B4 		.ascii	"\332\314\224\264\224\014\263\271\252\306\274\261\270"
 177      940CB3B9 
 177      AAC6BCB1 
 177      B8
 178 0694 C25C5D65 		.ascii	"\302\\]e\255\2551\257Z]8=\335\\P\220c^\2722o\305\373"
 178      ADAD31AF 
 178      5A5D383D 
 178      DD5C5090 
 178      635EBA32 
 179 06ab E9E6EAE2 		.ascii	"\351\346\352\342\212u\025\025\245)\033\210\276\244\274"
 179      8A751515 
 179      A5291B88 
 179      BEA4BC
 180 06ba 3625555F 		.ascii	"6%U_YUZf\215\250\252\375\260\272\314j\250\252\251.+"
 180      59555A66 
 180      8DA8AAFD 
 180      B0BACC6A 
 180      A8AAA92E 
 181 06cf 2BB5EAAB 		.ascii	"+\265\352\2537U\227Zu\305\025\265V\021zE\342Eeq\315"
 181      3755975A 
 181      75C515B5 
 181      56117A45 
 181      E2456571 
 182 06e4 7B42659A 		.ascii	"{Be\232P\231.Tf\374\013\310\001B\256"
 182      50992E54 
 182      66FC0BC8 
 182      0142AE
 183              		.text
 184              		.section	.gnu.lto_.symbol_nodes.d289f20b72293a25,"",%progbits
 185 0000 789C6362 		.ascii	"x\234cb`b(g\200\002\246\011L\365\014\014\023\31610\324"
 185      60622867 
 185      8002A609 
 185      4CF50C0C 
 185      13CE3130 
 186 0015 D75FE948 		.ascii	"\327_\351Hd\232\310T\317\010\345^\353`d\232\304T\317"
 186      649AC854 
 186      CF08E55E 
 186      EB60649A 
 186      C454CF
 187 0028 84E03233 		.ascii	"\204\3402320<j{#\017\242\027\265C\350GPzQ\027\224\017"
 187      32303C6A 
 187      7B230FA2 
 187      17B543E8 
 187      47507A51 
ARM GAS  /tmp/cc61LjSr.s 			page 15


 188 003f A5177543 		.ascii	"\245\027uC\371PzQ\037\224\017\244\031\000\272h$\235"
 188      F9507A51 
 188      1F940FA4 
 188      1900BA68 
 188      249D
 189              		.text
 190              		.section	.gnu.lto_.refs.d289f20b72293a25,"",%progbits
 191 0000 789C6362 		.ascii	"x\234cb`b`d\200\002\000\000F\000\006"
 191      60626064 
 191      80020000 
 191      460006
 192              		.text
 193              		.section	.gnu.lto_.decls.d289f20b72293a25,"",%progbits
 194 0000 789CAD5A 		.ascii	"x\234\255Z}p\023\307\025\337=\311\037\002\2058\2440"
 194      7D7013C7 
 194      15DF3DC9 
 194      1F028538 
 194      A430
 195 0012 64A69D28 		.ascii	"d\246\235(\235\220\246\031\202\300\2464\235\351d\000"
 195      9D90A619 
 195      82C0A634 
 195      9DE96400 
 196 0022 D9604F4C 		.ascii	"\331`OL\2549A\233\374\245^\260\300\232\032K\225\345"
 196      AC39419B 
 196      FCA55EB0 
 196      C09A1A4B 
 196      95E5
 197 0034 D69DE94C 		.ascii	"\326\235\351L\017\3631\024R\342\230B\240\001l(N `\012"
 197      0FF33114 
 197      52E29842 
 197      A0016C28 
 197      4E20600A 
 198 0048 84AF0205 		.ascii	"\204\257\002\005ACc\302$\006SJB\010\026$\004\342R\002"
 198      414363C2 
 198      2406534A 
 198      42081624 
 198      04E25202 
 199 005c 4CC257A8 		.ascii	"L\302W\250\325\267\357\356\244\333Cg\335\021n\346\275"
 199      D5B7EFEE 
 199      A4DB4367 
 199      DD116EE6 
 199      BD
 200 006d 5DDFBDF7 		.ascii	"]\337\275\367\333\337\356\276}\267{\262@\004\262\231"
 200      DBDFEEBE 
 200      7DB77BB2 
 200      4004B299 
 201 007d 1292822B 		.ascii	"\022\222\202+\362}B~\357 \304I\010y\226d.\270EV\203"
 201      F27D427E 
 201      EF20C449 
 201      08799664 
 201      2EB84556 
 202 0092 DC00194A 		.ascii	"\334\000\031J\311]\027{\346\002)\000\031\004\342\006"
 202      C95D177B 
 202      E6022900 
 202      1904E206 
 203 00a2 1901769F 		.ascii	"\031\001v\237@y\032d#H;\310Z\365\371g \333@>\007\331"
 203      40791A64 
ARM GAS  /tmp/cc61LjSr.s 			page 16


 203      23483BC8 
 203      5AF5F967 
 203      20DB403E 
 204 00b8 01721164 		.ascii	"\001r\021d\027H/\310^\220K '@.\203\234\0049\007\262"
 204      17482FC8 
 204      5E904B20 
 204      27402E83 
 204      9C043907 
 205 00cd 0184AA6D 		.ascii	"\001\204\252m\011 _\201\\3\360`\374\036\000y\232fx\024"
 205      09205F81 
 205      5C33F060 
 205      FC1E0079 
 205      9A667814 
 206 00e1 E8388C84 		.ascii	"\3508\214\204\373\277\002\371\006\352\267AbT\341\264"
 206      FBBF02F9 
 206      06EAB741 
 206      6254E1B4 
 207 00f1 066420C8 		.ascii	"\006d \310s\360\367\213TiH\000q\202\344\203\024\202"
 207      73F0F78B 
 207      54694800 
 207      7182E483 
 207      1482
 208 0103 0C007133 		.ascii	"\014\000q3\\\220\"\252p\270\241\362a.\3371\214\013\033"
 208      5C9022AA 
 208      70B8A1F2 
 208      612EDF31 
 208      8C0B1B
 209 0116 A742C398 		.ascii	"\247B\303\230\260q\335\244\033\217G\030\276:\026;\324"
 209      B071DDA4 
 209      1B8F4718 
 209      BE3A163B 
 209      D4
 210 0127 3138A1F6 		.ascii	"18\241\366Y\353/\303a~?\200\362\207 \303A\352\015m="
 210      59EB2FC3 
 210      617E3F80 
 210      F28720C3 
 210      41EA0D6D 
 211 013c 4A56C989 		.ascii	"JV\311\211\243\311\366\236E\217\310mM\211Tj\37782\224"
 211      A3C9F69E 
 211      458FC86D 
 211      4D89546A 
 211      FF383294 
 212 0150 2C91E16A 		.ascii	",\221\341j\233'\3134.\321g\207\220\027\250D\007\271"
 212      9B27CB34 
 212      2ED16787 
 212      9017A844 
 212      07B9
 213 0162 88072B6E 		.ascii	"\210\007+n\027\242\022\"\3215t\250:\313\254O0\020\013"
 213      17A21222 
 213      D13574A8 
 213      3ACBAC4F 
 213      30100B
 214 0175 64B98939 		.ascii	"d\271\2119\226w\016\032L^e(\236N\350\202\352\237\024"
 214      96770E1A 
 214      4C5E6528 
 214      9E4EE882 
 214      EA9F14
ARM GAS  /tmp/cc61LjSr.s 			page 17


 215 0188 34801160 		.ascii	"4\200\021`=\234\254\225\345\346dju\253C\226\013%\332"
 215      3D9CAC95 
 215      E5E6646A 
 215      75AB4396 
 215      0B25DA
 216 019b 4E0703CC 		.ascii	"N\007\003\314\357(y\212\254\007\307fY^\363\204pw\304"
 216      EF28798A 
 216      AC07C766 
 216      595EF384 
 216      7077C4
 217 01ae 909CC08C 		.ascii	"\220\234\300\214\331z\000\223\350:\372\224\322\214\234"
 217      D97A0093 
 217      E83AFA94 
 217      D28C9C
 218 01bd F8E603B7 		.ascii	"\370\346\003\267\354T\356\023\365I\226\3531\322&\317"
 218      EC54EE13 
 218      F54996EB 
 218      31D226CF 
 219 01cd 999D487D 		.ascii	"\231\235H}\260\002\206\343 u\221\371\262<[\355\020\311"
 219      B00286E3 
 219      207591F9 
 219      B23C5BED 
 219      10C9
 220 01df 3A0C6A2F 		.ascii	":\014j/\216-8t\2006\301\200\241KS\277.\022\355\240\303"
 220      8E2D3874 
 220      8036C180 
 220      A14B53BF 
 220      2E12EDA0 
 221 01f4 4117B8D2 		.ascii	"A\027\270\322D\330\323\002W\246\302\226\324\203,R6Q"
 221      44D8D302 
 221      57A6C296 
 221      D4832C52 
 221      3651
 222 0206 CAB1B500 		.ascii	"\312\261\265\000\2572\352Y\270\367'8\256\233\201\223"
 222      AF32EA59 
 222      B8F72738 
 222      AE9B8193 
 223 0216 40CE1B80 		.ascii	"@\316\033\200\324\366\322\227\025:6\315\005r\005\033"
 223      D4F6D297 
 223      153A36CD 
 223      0572051B 
 224 0226 65639E8D 		.ascii	"ec\236\215\250ZU.\325\200\233\207d\337\352U8\017\022"
 224      A85A552E 
 224      D5809B87 
 224      64DFEA55 
 224      380F12
 225 0239 DD889DB8 		.ascii	"\335\210\235\270n\033\317\303\315kK\227\273Y\322\300"
 225      6E1BCFC3 
 225      CD6B4B97 
 225      BB59D2C0 
 226 0249 FE6705AC 		.ascii	"\376g\005\254\320\224\\\342Oz\260\271\202]0\236\331"
 226      D0945CE2 
 226      4F7AB0B9 
 226      825D309E 
 226      D9
 227 025a 523DD842 		.ascii	"R=\330B+`E\346\314\226\351\301^\261\015\246g6+\261\263"
 227      2B6045E6 
ARM GAS  /tmp/cc61LjSr.s 			page 18


 227      CC96E9C1 
 227      5EB10DA6 
 227      67362BB1 
 228 026f EB3D2AB7 		.ascii	"\353=*\267\270\037&-\262<Kn\3137\013;B\320D\356\327"
 228      B81F262D 
 228      B23C4B6E 
 228      CB370B3B 
 228      42D044EE 
 229 0284 44A209FA 		.ascii	"D\242\011\3720\2770_\177e\020[\230\354~\216\205)7%V"
 229      30BF305F 
 229      7F65105B 
 229      98EC7E8E 
 229      85293725 
 230 0299 76AD5003 		.ascii	"v\255P\003b\023vn1v\216\371\336C\200A\343\333\273\006"
 230      6213766E 
 230      31768EF9 
 230      DE438041 
 230      E3DBBB06 
 231 02ad CA0BDC6A 		.ascii	"\312\013\334jFi\033\267\256\037\342\207\214\031\245"
 231      46691BB7 
 231      AE1FE287 
 231      8C19A5
 232 02bc B54BF028 		.ascii	"\265K\360(\267s\363\336\322\265b\230\334v@\313\016\362"
 232      B773F3DE 
 232      D2B56298 
 232      DC7640CB 
 232      0EF2
 233 02ce 3CF9495D 		.ascii	"<\371I][EZ[,\335\245\023\312\316\021\270|;\261\243K"
 233      5B455A5B 
 233      2CDDA513 
 233      CACE11B8 
 233      7C3BB1A3 
 234 02e3 84AC79C0 		.ascii	"\204\254y\300\002P\317\3027\225<p\004\201V\011\306<"
 234      0250CFC2 
 234      37953C70 
 234      04815609 
 234      C63C
 235 02f5 E030E401 		.ascii	"\3400\344\001\007\277\260\035\256L%\225r\020{\306\002"
 235      07BFB01D 
 235      AE4C2595 
 235      72107BC6 
 235      02
 236 0306 598F0D1E 		.ascii	"Y\217\015\036\312\304\037G2\327\0245%\373\316\257\302"
 236      CAC41F47 
 236      32D71435 
 236      25FBCEAF 
 236      C2
 237 0317 A1D346A2 		.ascii	"\241\323F\242\3036^\221aN\004\362\366\275\206\215\256"
 237      C3365E91 
 237      614E04F2 
 237      F6BD868D 
 237      AE
 238 0328 E74AA725 		.ascii	"\347J\247%z\220>\006\372\035\320\272\006\266[Yt\303"
 238      7A903E06 
 238      FA1DD0BA 
 238      06B65B59 
 238      74C3
ARM GAS  /tmp/cc61LjSr.s 			page 19


 239 033a 4C3A0D2B 		.ascii	"L:\015+x\227~\005\357\266\015\346\341\300v\353\301\366"
 239      78977E05 
 239      EFB60DE6 
 239      E1C076EB 
 239      C1F6
 240 034c 5B01F398 		.ascii	"[\001\363\2303\333\253\007{\3076\030\317l\237\036\354"
 240      33DBAB07 
 240      7BC73618 
 240      CF6C9F1E 
 240      EC
 241 035d B015B027 		.ascii	"\260\025\260'\373\233\024n~2;\000\211\276\205\357\333"
 241      FB9B146E 
 241      7E323B00 
 241      89BE85EF 
 241      DB
 242 036e 0D3853DB 		.ascii	"\0158S\333P\357@\275\013\365n\324{Q\357C}\034\365\011"
 242      50EF40BD 
 242      0BF56ED4 
 242      7B51EF43 
 242      7D1CF509 
 243 0382 D427517F 		.ascii	"\324'Q\177\244\237_\263\024\261\226\016\324\257\255"
 243      A49F5FB3 
 243      14B1960E 
 243      D4AFAD
 244 0391 7E764510 		.ascii	"~vE\020\331T\277\177\241\032\324w\211\266p\023\313\273"
 244      D954BF7F 
 244      A11AD477 
 244      89B67013 
 244      CBBB
 245 03a3 A927DB5E 		.ascii	"\251'\333^\207\263\225\350\031\350[N3f\2304&\260\217"
 245      87B395E8 
 245      19E85B4E 
 245      33669834 
 245      26B08F
 246 03b6 BB704B94 		.ascii	"\273pK\224\264\224\301z\014\231\367}\234\255\344\275"
 246      B494C17A 
 246      0C99F77D 
 246      9CADE4BD 
 247 03c6 BDDA01EF 		.ascii	"\275\332\001\357\2322\365\012\330q\333`\036\016\354"
 247      9A32F50A 
 247      D871DB60 
 247      1E0EEC
 248 03d5 BA1EEC94 		.ascii	"\272\036\354\224\0250\263\367:\200\335\326\203\235\263"
 248      1530B3F7 
 248      3A80DDD6 
 248      839DB3
 249 03e4 0DC633EB 		.ascii	"\015\3063\353\323\203]\264\002f\366^\007\260\226n\035"
 249      D3835DB4 
 249      0266F65E 
 249      07B0966E 
 249      1D
 250 03f5 D825DB60 		.ascii	"\330%\333`<\263\245z\260\253V\300\262\345+\335\202S"
 250      3CB3A57A 
 250      B0AB56C0 
 250      B2E52BDD 
 250      8253
 251 0407 96DA595C 		.ascii	"\226\332Y\\j\347p\321|\206\372s\324\027Q\367\242\276"
ARM GAS  /tmp/cc61LjSr.s 			page 20


 251      6AE770D1 
 251      7C86FA73 
 251      D41751F7 
 251      A2BE
 252 0419 84FA329F 		.ascii	"\204\3722\2372\257\337\365bR\002S\327B&\202\311\275"
 252      32AFDFF5 
 252      62520253 
 252      D7422682 
 252      C9BD
 253 042b B461B66C 		.ascii	"\264a\266lO\323\201\\3S3/9\201\374\301\301\323z\234"
 253      4FD3815C 
 253      3353332F 
 253      3981FCC1 
 253      C1D37A9C 
 254 043f FC45965B 		.ascii	"\374E\226[\222\355\255o\300r\020\2245/\220\026\264Z"
 254      92EDAD6F 
 254      C0721094 
 254      352F9016 
 254      B45A
 255 0451 4D1F35D9 		.ascii	"M\0375\331\3603+\325U~\375\237\356f\252\264*\220e9\034"
 255      F0332BD5 
 255      557EFD9F 
 255      EE66AAB4 
 255      2A906539 
 256 0466 556E4F90 		.ascii	"UnO\220v\266\300\367\310\376ax #\252\023\307\373*\345"
 256      76B6C0F7 
 256      C8FE6178 
 256      2023AA13 
 256      C7FB2AE5 
 257 047a 8E4BEC68 		.ascii	"\216K\354h\327\226H\\\235w\004\366o\362\235Tj\266\323"
 257      D796485C 
 257      9D7704F6 
 257      6FF29D54 
 257      6AB6D3
 258 048d C6D1EE66 		.ascii	"\306\321\356f\356\243\2351\211=\250a\334a\207L\355x"
 258      EEA39D31 
 258      893DA861 
 258      DC61874C 
 258      ED78
 259 049f F7C59BEC 		.ascii	"\367\305\233\354x\227-C\361\366\022\275c\222\311x;f"
 259      78972D43 
 259      F1F612BD 
 259      6392C978 
 259      3B66
 260 04b1 D9674C65 		.ascii	"\331gLe{\2721\225\365YHer\342X\367\012\252\244\262\036"
 260      7BBA3195 
 260      F5594865 
 260      72E258F7 
 260      0AAAA4B2 
 261 04c6 3C72B6E2 		.ascii	"<r\266\342\034\364e\202\237\317\235\271w\221\037\212"
 261      1CF46582 
 261      9FCF9DB9 
 261      77911F8A 
 262 04d6 6C252960 		.ascii	"l%)`oX\0023{[\003\330\025\035X\207%\260g\314\231\335"
 262      6F580233 
 262      7B5B03D8 
 262      151D5887 
ARM GAS  /tmp/cc61LjSr.s 			page 21


 262      25B067CC 
 263 04ec D4816DB3 		.ascii	"\324\201m\263\004\3467g\326\034\310\200\355\261\004"
 263      04E63767 
 263      D61CC880 
 263      EDB104
 264 04fb 163567B6 		.ascii	"\0265g\266L\007v\320\022\330|jNm\263\016\355\260%\264"
 264      4C0776D0 
 264      12D87C6A 
 264      4E6DB30E 
 264      EDB025B4 
 265 050f 75D49CDB 		.ascii	"u\324\234\333.\035\332QKh\211~\270\035\325\241\235\264"
 265      2E1DDA51 
 265      4B68897E 
 265      B81DD5A1 
 265      9DB4
 266 0521 8496CCC6 		.ascii	"\204\226\314\306-}i\2316\205\231V\026X\236kB=\007\365"
 266      2D7D6999 
 266      36859956 
 266      16589E6B 
 266      423D07F5 
 267 0535 3CD4F351 		.ascii	"<\324\363Q/@\3752\352E\250\233\005.\353\236q\030\263"
 267      2F40FD32 
 267      EA45A89B 
 267      052EEB9E 
 267      7118B3
 268 0548 6E9F31EB 		.ascii	"n\2371\353\366qY\367[\265g\226lng2\260!\375^\314\236"
 268      F67159F7 
 268      5BB56796 
 268      6C6E6732 
 268      B021FD5E 
 269 055e 7EE75EBE 		.ascii	"~\347^\276\350\\.'\234\212\253D\277\206\324'\321\033"
 269      E85C2E27 
 269      9C8AAB44 
 269      BF86D427 
 269      D11B
 270 0570 A669F436 		.ascii	"\246i\3646\227F\377(\317-\242\351<z\303\230G\027\013"
 270      9746FF28 
 270      CF2DA2E9 
 270      3C7AC398 
 270      47170B
 271 0583 D9F268DF 		.ascii	"\331\362h\337{\356\346Y\311T\252\325c=\211\276&\230"
 271      7BEEE659 
 271      C954AAD5 
 271      633D89BE 
 271      2698
 272 0595 2751E583 		.ascii	"'Q\345\203W6O-s\266w<\203\007\267\345\002{S\\\277k\246"
 272      57364F2D 
 272      73B6773C 
 272      8307B7E5 
 272      027B535C 
 273 05ac D672EF2D 		.ascii	"\326r\357-\323\375\247\345OF\211\324\342!,\213\256\024"
 273      D3FDA7E5 
 273      4F4689D4 
 273      E2212C8B 
 273      AE14
 274 05be D8966096 		.ascii	"\330\226`\226\323\330\036\333*p\355Y\372bd\233\305\262"
 274      D3D81EDB 
ARM GAS  /tmp/cc61LjSr.s 			page 22


 274      2A70ED59 
 274      FA62649B 
 274      C5B2
 275 05d0 A1F05A5D 		.ascii	"\241\360Z]\215\034\026\335'\016\206\240z\315\2315\250"
 275      8D1C16DD 
 275      270E86A0 
 275      7ACD9935 
 275      A8
 276 05e1 CEFFF596 		.ascii	"\316\377\365\226\032T\312\210w\240\331R\301,\250\230"
 276      1A54CA88 
 276      77A0D952 
 276      C12CA898 
 277 05f1 95EA9B78 		.ascii	"\225\352\233x\365\310Fe?\240\014\336\326\034\256\314"
 277      F5C84665 
 277      3FA00CDE 
 277      D61CAECC 
 278 0601 4A735D7C 		.ascii	"Js]|D\335J(}\336\231\303\225Y\245C9\221Z0\273\215\312"
 278      44DD4A28 
 278      7DDE99C3 
 278      9559A543 
 278      39915A30 
 279 0618 F9E96066 		.ascii	"\371\351`f~|L\360\301\234\236\206\304}\370<\231\353"
 279      7E7C4CF0 
 279      C19C9E86 
 279      C47DF83C 
 279      99EB
 280 062a 7B6FA290 		.ascii	"{o\242\220\313\335j\\\337\372\364\346:\272E\226\213"
 280      CBDD6A5C 
 280      DFFAF4E6 
 280      3ABA4596 
 280      8B
 281 063b 60360596 		.ascii	"`6\005\226\024o\031\246#7\022#\271E0\354\001V^\350\244"
 281      146F19A6 
 281      23371223 
 281      B94530EC 
 281      01565EE8 
 282 0650 B85ED893 		.ascii	"\270^\330\223\334\337x\267\\\350\024`\266\3478\322\237"
 282      DCDF78B7 
 282      5CE81460 
 282      B6E738D2 
 282      9F
 283 0661 F0F2A80A 		.ascii	"\360\362\250\012{\017'\032\000\334\312\332oqkp\363m"
 283      7B0F271A 
 283      00DCCADA 
 283      6F716B70 
 283      F36D
 284 0673 C37938B8 		.ascii	"\303y8\270m<\\\263\025\270~\276V\356\340\341\226\330"
 284      6D3C5CB3 
 284      15B87EBE 
 284      56EEE0E1 
 284      96D8
 285 0685 86E3D9ED 		.ascii	"\206\343\331\355\342\341\226[\201\353\347\213\345n\036"
 285      E2E1965B 
 285      81EBE78B 
 285      E56E1E
 286 0694 6E8D6D38 		.ascii	"n\215m8\236\335^\036n\203\0258\263\2571pT\332\247\301"
 286      9EDD5E1E 
ARM GAS  /tmp/cc61LjSr.s 			page 23


 286      6E831538 
 286      B3AF3170 
 286      54DAA7C1 
 287 06a8 2987A56D 		.ascii	")\207\245m\266\341xvGyv\373\254\300y\314\307\256\233"
 287      B6E17876 
 287      477976FB 
 287      ACC079CC 
 287      C7AE9B
 288 06bb 877BD736 		.ascii	"\207{\3276\234\216\035,\243\177](\004\264\207H\263\362"
 288      9C8E1D2C 
 288      A37F5D28 
 288      04B48748 
 288      B3F2
 289 06cd 4994BDA8 		.ascii	"I\224\275\250X\267U\333q|lH\264Sx\010k\230X\344\364"
 289      58B755DB 
 289      717C6C48 
 289      B4537808 
 289      6B9858E4 
 290 06e2 BBCDEDCA 		.ascii	"\273\315\355\312\332<\3638\254$\260\314\022P+\332/S"
 290      DA3CF338 
 290      AC24B0CC 
 290      12502BDA 
 290      2F53
 291 06f4 B0E73276 		.ascii	"\260\3472v\201kU\255f\373\022\244\216\310\277\371\021"
 291      816B55AD 
 291      66FB12A4 
 291      8EC8BFF9 
 291      11
 292 0705 39656544 		.ascii	"9eeDF\231\303}\310\303\235\263\015\307O\377)\036\256"
 292      4699C37D 
 292      C8C39DB3 
 292      0DC74FFF 
 292      291EAE
 293 0718 D70A9CE9 		.ascii	"\327\012\234\351\026\277)q\232\017\316k\266\341xvgx"
 293      16BF2971 
 293      9A0FCE6B 
 293      B6E17876 
 293      6778
 294 072a 7677ACC0 		.ascii	"vw\254\300\2153\037\273+<\334\234|\273p|p^\303\340T"
 294      8D331FBB 
 294      2B3CDC9C 
 294      7CBB707C 
 294      705EC3E0 
 295 073f A24E202F 		.ascii	"\242N /\033\321\262\305I\2719\271\257xrK\255\220\363"
 295      1BD1B2C5 
 295      49B939B9 
 295      AF78724B 
 295      AD90F3
 296 0752 9BC35DE7 		.ascii	"\233\303]\347\341\332l\303\3613q\223\207{\313\012\334"
 296      E1DA6CC3 
 296      F1337193 
 296      877BCB0A 
 296      DC
 297 0763 0BE67172 		.ascii	"\013\346qr\333\220\304l\303\361\354\356\030\222\230"
 297      DB90C46C 
 297      C3F1ECEE 
 297      189298
ARM GAS  /tmp/cc61LjSr.s 			page 24


 298 0772 15B85F98 		.ascii	"\025\270_\230\217]\037\017\327i\033\216\217\223\346"
 298      8F5D1F0F 
 298      D7691B8E 
 298      8F93E6
 299 0781 5E7D9C74 		.ascii	"^}\234t[\211\223\032sr-\275\034\271\323V\310\231\035"
 299      5B89931A 
 299      73722DBD 
 299      1CB9D356 
 299      C8991D
 300 0794 7DD90F87 		.ascii	"}\331\017\207<\334Y\333p|_\227r}=o\245\257\215\346\344"
 300      3CDC59DB 
 300      707C5F97 
 300      727D3D6F 
 300      A5AF8DE6 
 301 07a9 96F1E4BE 		.ascii	"\226\361\344\276\264BN6;K\003\336\237y\274\257\355\343"
 301      B4424E36 
 301      3B4B03DE 
 301      9F79BCAF 
 301      EDE3
 302 07bb 7988E9A5 		.ascii	"y\210\351\245\337\005Jt\253\300\266\255o\343\261s;\352"
 302      DF054A74 
 302      ABC0B6AD 
 302      6FE3B173 
 302      3BEA
 303 07cd 9DA8FF   		.ascii	"\235\250\377"
 304 07d0 867A0FEA 		.ascii	"\206z\017\352\277\243\336\217\372\000\352\177\240>\204"
 304      BFA3DE8F 
 304      FA00EA7F 
 304      A03E84
 305 07df FA5DD447 		.ascii	"\372]\324GP\277\217\272\013\3651\324\307Q\237@}\022"
 305      50BF8FBA 
 305      0BF531D4 
 305      C7519F40 
 305      7D12
 306 07f1 F547A83F 		.ascii	"\365G\250?F\375\011\352\036\324gQ\177\212\372<\352\013"
 306      46FD09EA 
 306      1ED46751 
 306      7F8AFA3C 
 306      EA0B
 307 0803 A8BF40FD 		.ascii	"\250\277@\375\037\324\377E\375\245\225\343q\207\220"
 307      1FD4FF45 
 307      FDA595E3 
 307      718790
 308 0812 3EE859F9 		.ascii	">\350Y\371\375\340>|*5\234T\331\377y\230\221\273\226"
 308      FDE03E7C 
 308      2A359C54 
 308      D9FF7998 
 308      91BB96
 309 0825 21E721AD 		.ascii	"!\347!\255\300-9\267\327\325\34449\221\374\2646\374"
 309      C02D39B7 
 309      D7D5E434 
 309      3991FCB4 
 309      36FC
 310 0837 92D75713 		.ascii	"\222\327W\023~)\\\025\010\216\036;r\364\3101^o\244\336"
 310      7E295C15 
 310      088E1E3B 
 310      72F4C831 
ARM GAS  /tmp/cc61LjSr.s 			page 25


 310      5E6FA4DE 
 311 084b 5B23D57A 		.ascii	"[#\325z\243\221X\274\336\033\2302\271\244\330[YY\352"
 311      A39158BC 
 311      DE1B9832 
 311      B9A4D85B 
 311      5959EA
 312 085e 9DE4AFA8 		.ascii	"\235\344\257\250\372u\2617*\325\006kk\253GN\3736\316"
 312      FA75B137 
 312      2AD5066B 
 312      6BAB474E 
 312      FB36CE
 313 0871 35C45D1F 		.ascii	"5\304]\037\237YR\034\234\021\015G\202\361\374I\317O"
 313      9F59521C 
 313      9C110D47 
 313      82F1FC49 
 313      CF4F
 314 0883 F5F8C8F7 		.ascii	"\365\370\310\367\274\015\3651o\270nZmCu\310[\027\372"
 314      BC0DF531 
 314      6FB86E5A 
 314      6D4375C8 
 314      5B17FA
 315 0896 0D6BA03E 		.ascii	"\015k\240>^\035\256\213\203Ga\003\224\340\022\177:\233"
 315      5E1DAE8B 
 315      83476103 
 315      94E0127F 
 315      3A9B
 316 08a8 D94C695A 		.ascii	"\331LiZM\270.\344\015V\207\246K\015\265\361`\374\267"
 316      4DB82EE4 
 316      0D5687A6 
 316      4B0DB5F1 
 316      60FCB7
 317 08bb D1503DB8 		.ascii	"\321P=\270\015\010\0065\307\274\311U\245eb~\325\224"
 317      0D080635 
 317      C7BCC955 
 317      A565627E 
 317      D594
 318 08cd 17FD6562 		.ascii	"\027\375ebAU\300_VV*\346\371\247\372KEG\005HU\251H\177"
 318      4155C05F 
 318      56562AE6 
 318      F9A7FA4B 
 318      45470548 
 319 08e5 8ECD8C1E 		.ascii	"\216\315\214\036\033\214\253\216\254\352\250\017\305"
 319      1B8CAB8E 
 319      ACEAA80F 
 319      C5
 320 08f2 F3A6D586 		.ascii	"\363\246\325\206\244\030-wN\010\210\242\263\322\367"
 320      A4182D77 
 320      4E0888A2 
 320      B3D2F7
 321 0901 9CE81C3F 		.ascii	"\234\350\034?Q\254d\252\3341A\024\363fF\252C\261\374"
 321      51AC64AA 
 321      DC314114 
 321      F36646AA 
 321      43B1FC
 322 0914 086B3756 		.ascii	"\010k7V\020\251\217\206B\325\261\274hC\264:\346\210"
 322      10A98F86 
 322      42D5B1BC 
ARM GAS  /tmp/cc61LjSr.s 			page 26


 322      6843B43A 
 322      E688
 323 0926 54C79CD2 		.ascii	"T\307\234\322\364X-S5\203u=\007\334\206h0^\030\256\013"
 323      F4582D53 
 323      3583753D 
 323      07DC8668 
 323      305E18AE 
 324 093b C7D98D3C 		.ascii	"\307\331\215<\246\242\371\323\"u\323\3033\362\375\343"
 324      A6A2F9D3 
 324      2275D3C3 
 324      33F2FDE3 
 325 094b 4BA5B894 		.ascii	"K\245\270\224\357\237\240\024>\245(U\2122\245\230\250"
 325      EF9FA014 
 325      3EA52855 
 325      8A32A598 
 325      A8
 326 095c 149394A2 		.ascii	"\024\223\224\242\\)*X\341\362\217\257\364!\320\003A"
 326      5C292A58 
 326      E1F28FAF 
 326      F421D003 
 326      41
 327 096d 75DC83AC 		.ascii	"u\334\203\254\235\001\320\002\314N\270:\030w+\325\231"
 327      9D01D002 
 327      CC4EB83A 
 327      18772BD5 
 327      99
 328 097e 52FD2F19 		.ascii	"R\375/\031\211\010\353B0>$m\016\364f\304\"\015Qv\337"
 328      8908EB42 
 328      303E246D 
 328      0EF466C4 
 328      220D5176 
 329 0993 C92C9DCC 		.ascii	"\311,\235\314\324\311\3764\233\374Pc\334\353\233\034"
 329      D4C9FE34 
 329      9BFC5063 
 329      DCEB9B1C 
 330 09a3 A808C0E4 		.ascii	"\250\010\300\344+\363?qLc\243\027\373<}\314\250\037"
 330      2BF33F71 
 330      4C63A317 
 330      FB3C7DCC 
 330      A81F
 331 09b5 3736C29C 		.ascii	"76\302\234\014\024}\276\340\024\030\250\322\320t\301"
 331      0C147DBE 
 331      E01418A8 
 331      D2D074C1 
 332 09c5 2716F82B 		.ascii	"'\026\370++}\023'\211N\246\034\276\012\261p|\371\204"
 332      2B7D1327 
 332      894EA61C 
 332      BE0AB170 
 332      7CF984
 333 09d8 D162600A 		.ascii	"\321b`\012V\212\265J\011\253\270\304\262@\231\370\263"
 333      568AB54A 
 333      09ABB8C4 
 333      B24099F8 
 333      B3
 334 09e9 B2D25185 		.ascii	"\262\322Q\205\343\375\232\221_1J?\033]\300\000\312\236"
 334      E3FD9A91 
 334      5F314A3F 
ARM GAS  /tmp/cc61LjSr.s 			page 27


 334      1B5DC000 
 334      CA9E
 335 09fb 175959AC 		.ascii	"\027YY\254\226%P\246-\212\013\2307>\361\243E\372I\211"
 335      962550A6 
 335      2D8A0B98 
 335      373EF1A3 
 335      45FA4989 
 336 0a0f 8BF956FA 		.ascii	"\213\371V\372\331=\346\235\256\225(5\315n\214\213!\250"
 336      D93DE69D 
 336      AE952835 
 336      CD6E8C8B 
 336      21A8
 337 0a21 4FFD9A9D 		.ascii	"O\375\232\235\366\364G\316\011\245>\350K skl^ \340\233"
 337      F6F447CE 
 337      09A53EE8 
 337      4B20736B 
 337      6C5E20E0 
 338 0a36 240E80CE 		.ascii	"$\016\200\316V\024\007XW\377\017\031\315Kr"
 338      56140758 
 338      57FF0F19 
 338      CD4B72
 339              		.text
 340              		.section	.gnu.lto_.symtab.d289f20b72293a25,"",%progbits
 341 0000 5F70616C 		.ascii	"_pal_lld_init\000\000\000\000\000\000\000\000\000\000"
 341      5F6C6C64 
 341      5F696E69 
 341      74000000 
 341      00000000 
 342 0017 0000F700 		.ascii	"\000\000\367\000\000\000_pal_lld_setgroupmode\000\000"
 342      00005F70 
 342      616C5F6C 
 342      6C645F73 
 342      65746772 
 343 0034 00000000 		.ascii	"\000\000\000\000\000\000\000\000\000\000\026\001\000"
 343      00000000 
 343      00001601 
 343      00
 344 0041 00       		.ascii	"\000"
 345              		.text
 346              		.section	.gnu.lto_.opts,"",%progbits
 347 0000 272D6D63 		.ascii	"'-mcpu=cortex-m4' '-mno-thumb-interwork' '-mthumb' "
 347      70753D63 
 347      6F727465 
 347      782D6D34 
 347      2720272D 
 348 0033 272D6767 		.ascii	"'-ggdb' '-O0' '-fomit-frame-pointer' '-falign-funct"
 348      64622720 
 348      272D4F30 
 348      2720272D 
 348      666F6D69 
 349 0066 696F6E73 		.ascii	"ions=16' '-ffunction-sections' '-fdata-sections' '-"
 349      3D313627 
 349      20272D66 
 349      66756E63 
 349      74696F6E 
 350 0099 666E6F2D 		.ascii	"fno-common' '-flto'\000"
 350      636F6D6D 
ARM GAS  /tmp/cc61LjSr.s 			page 28


 350      6F6E2720 
 350      272D666C 
 350      746F2700 
 351              		.text
 352              		.cfi_sections	.debug_frame
 353              		.section	.text.initgpio,"ax",%progbits
 354              		.align	2
 355              		.p2align 4,,15
 356              		.thumb
 357              		.thumb_func
 358              		.type	initgpio, %function
 359              	initgpio:
 360              	.LFB272:
 361              		.file 1 "lib/ChibiOS_16.1.4//os/hal/ports/STM32/LLD/GPIOv2/pal_lld.c"
 362              		.loc 1 61 0
 363              		.cfi_startproc
 364              		@ args = 0, pretend = 0, frame = 8
 365              		@ frame_needed = 0, uses_anonymous_args = 0
 366              		@ link register save eliminated.
 367 0000 82B0     		sub	sp, sp, #8
 368              		.cfi_def_cfa_offset 8
 369 0002 0190     		str	r0, [sp, #4]
 370 0004 0091     		str	r1, [sp]
 371              		.loc 1 63 0
 372 0006 009B     		ldr	r3, [sp]
 373 0008 5A68     		ldr	r2, [r3, #4]
 374 000a 019B     		ldr	r3, [sp, #4]
 375 000c 5A60     		str	r2, [r3, #4]
 376              		.loc 1 64 0
 377 000e 009B     		ldr	r3, [sp]
 378 0010 9A68     		ldr	r2, [r3, #8]
 379 0012 019B     		ldr	r3, [sp, #4]
 380 0014 9A60     		str	r2, [r3, #8]
 381              		.loc 1 65 0
 382 0016 009B     		ldr	r3, [sp]
 383 0018 DA68     		ldr	r2, [r3, #12]
 384 001a 019B     		ldr	r3, [sp, #4]
 385 001c DA60     		str	r2, [r3, #12]
 386              		.loc 1 66 0
 387 001e 009B     		ldr	r3, [sp]
 388 0020 1A69     		ldr	r2, [r3, #16]
 389 0022 019B     		ldr	r3, [sp, #4]
 390 0024 5A61     		str	r2, [r3, #20]
 391              		.loc 1 67 0
 392 0026 009B     		ldr	r3, [sp]
 393 0028 5A69     		ldr	r2, [r3, #20]
 394 002a 019B     		ldr	r3, [sp, #4]
 395 002c 1A62     		str	r2, [r3, #32]
 396              		.loc 1 68 0
 397 002e 009B     		ldr	r3, [sp]
 398 0030 9A69     		ldr	r2, [r3, #24]
 399 0032 019B     		ldr	r3, [sp, #4]
 400 0034 5A62     		str	r2, [r3, #36]
 401              		.loc 1 69 0
 402 0036 009B     		ldr	r3, [sp]
 403 0038 1A68     		ldr	r2, [r3]
 404 003a 019B     		ldr	r3, [sp, #4]
ARM GAS  /tmp/cc61LjSr.s 			page 29


 405 003c 1A60     		str	r2, [r3]
 406              		.loc 1 70 0
 407 003e 02B0     		add	sp, sp, #8
 408              		@ sp needed
 409 0040 7047     		bx	lr
 410              		.cfi_endproc
 411              	.LFE272:
 412              		.size	initgpio, .-initgpio
 413 0042 00BFAFF3 		.section	.text._pal_lld_init,"ax",%progbits
 413      0080AFF3 
 413      0080AFF3 
 413      0080
 414              		.align	2
 415              		.p2align 4,,15
 416              		.global	_pal_lld_init
 417              		.thumb
 418              		.thumb_func
 419              		.type	_pal_lld_init, %function
 420              	_pal_lld_init:
 421              	.LFB273:
 422              		.loc 1 88 0
 423              		.cfi_startproc
 424              		@ args = 0, pretend = 0, frame = 8
 425              		@ frame_needed = 0, uses_anonymous_args = 0
 426 0000 00B5     		push	{lr}
 427              		.cfi_def_cfa_offset 4
 428              		.cfi_offset 14, -4
 429 0002 83B0     		sub	sp, sp, #12
 430              		.cfi_def_cfa_offset 16
 431 0004 0190     		str	r0, [sp, #4]
 432              		.loc 1 104 0
 433 0006 4FF46053 		mov	r3, #14336
 434 000a C4F20203 		movt	r3, 16386
 435 000e 4FF46052 		mov	r2, #14336
 436 0012 C4F20202 		movt	r2, 16386
 437 0016 126B     		ldr	r2, [r2, #48]
 438 0018 6FEA5222 		mvn	r2, r2, lsr #9
 439 001c 6FEA4222 		mvn	r2, r2, lsl #9
 440 0020 1A63     		str	r2, [r3, #48]
 441              		.loc 1 105 0
 442 0022 4FF46053 		mov	r3, #14336
 443 0026 C4F20203 		movt	r3, 16386
 444 002a 4FF46052 		mov	r2, #14336
 445 002e C4F20202 		movt	r2, 16386
 446 0032 126D     		ldr	r2, [r2, #80]
 447 0034 6FEA5222 		mvn	r2, r2, lsr #9
 448 0038 6FEA4222 		mvn	r2, r2, lsl #9
 449 003c 1A65     		str	r2, [r3, #80]
 450              		.loc 1 112 0
 451 003e 019B     		ldr	r3, [sp, #4]
 452 0040 0020     		movs	r0, #0
 453 0042 C4F20200 		movt	r0, 16386
 454 0046 1946     		mov	r1, r3
 455 0048 FFF7FEFF 		bl	initgpio
 456              		.loc 1 115 0
 457 004c 019B     		ldr	r3, [sp, #4]
 458 004e 1C33     		adds	r3, r3, #28
ARM GAS  /tmp/cc61LjSr.s 			page 30


 459 0050 4FF48060 		mov	r0, #1024
 460 0054 C4F20200 		movt	r0, 16386
 461 0058 1946     		mov	r1, r3
 462 005a FFF7FEFF 		bl	initgpio
 463              		.loc 1 118 0
 464 005e 019B     		ldr	r3, [sp, #4]
 465 0060 3833     		adds	r3, r3, #56
 466 0062 4FF40060 		mov	r0, #2048
 467 0066 C4F20200 		movt	r0, 16386
 468 006a 1946     		mov	r1, r3
 469 006c FFF7FEFF 		bl	initgpio
 470              		.loc 1 121 0
 471 0070 019B     		ldr	r3, [sp, #4]
 472 0072 5433     		adds	r3, r3, #84
 473 0074 4FF44060 		mov	r0, #3072
 474 0078 C4F20200 		movt	r0, 16386
 475 007c 1946     		mov	r1, r3
 476 007e FFF7FEFF 		bl	initgpio
 477              		.loc 1 124 0
 478 0082 019B     		ldr	r3, [sp, #4]
 479 0084 7033     		adds	r3, r3, #112
 480 0086 4FF48050 		mov	r0, #4096
 481 008a C4F20200 		movt	r0, 16386
 482 008e 1946     		mov	r1, r3
 483 0090 FFF7FEFF 		bl	initgpio
 484              		.loc 1 127 0
 485 0094 019B     		ldr	r3, [sp, #4]
 486 0096 8C33     		adds	r3, r3, #140
 487 0098 4FF4A050 		mov	r0, #5120
 488 009c C4F20200 		movt	r0, 16386
 489 00a0 1946     		mov	r1, r3
 490 00a2 FFF7FEFF 		bl	initgpio
 491              		.loc 1 130 0
 492 00a6 019B     		ldr	r3, [sp, #4]
 493 00a8 A833     		adds	r3, r3, #168
 494 00aa 4FF4C050 		mov	r0, #6144
 495 00ae C4F20200 		movt	r0, 16386
 496 00b2 1946     		mov	r1, r3
 497 00b4 FFF7FEFF 		bl	initgpio
 498              		.loc 1 133 0
 499 00b8 019B     		ldr	r3, [sp, #4]
 500 00ba C433     		adds	r3, r3, #196
 501 00bc 4FF4E050 		mov	r0, #7168
 502 00c0 C4F20200 		movt	r0, 16386
 503 00c4 1946     		mov	r1, r3
 504 00c6 FFF7FEFF 		bl	initgpio
 505              		.loc 1 136 0
 506 00ca 019B     		ldr	r3, [sp, #4]
 507 00cc E033     		adds	r3, r3, #224
 508 00ce 4FF40050 		mov	r0, #8192
 509 00d2 C4F20200 		movt	r0, 16386
 510 00d6 1946     		mov	r1, r3
 511 00d8 FFF7FEFF 		bl	initgpio
 512              		.loc 1 144 0
 513 00dc 03B0     		add	sp, sp, #12
 514              		@ sp needed
 515 00de 5DF804FB 		ldr	pc, [sp], #4
ARM GAS  /tmp/cc61LjSr.s 			page 31


 516              		.cfi_endproc
 517              	.LFE273:
 518              		.size	_pal_lld_init, .-_pal_lld_init
 519 00e2 00BFAFF3 		.section	.text._pal_lld_setgroupmode,"ax",%progbits
 519      0080AFF3 
 519      0080AFF3 
 519      0080
 520              		.align	2
 521              		.p2align 4,,15
 522              		.global	_pal_lld_setgroupmode
 523              		.thumb
 524              		.thumb_func
 525              		.type	_pal_lld_setgroupmode, %function
 526              	_pal_lld_setgroupmode:
 527              	.LFB274:
 528              		.loc 1 161 0
 529              		.cfi_startproc
 530              		@ args = 0, pretend = 0, frame = 56
 531              		@ frame_needed = 0, uses_anonymous_args = 0
 532              		@ link register save eliminated.
 533 0000 8EB0     		sub	sp, sp, #56
 534              		.cfi_def_cfa_offset 56
 535 0002 0390     		str	r0, [sp, #12]
 536 0004 0291     		str	r1, [sp, #8]
 537 0006 0192     		str	r2, [sp, #4]
 538              		.loc 1 163 0
 539 0008 019B     		ldr	r3, [sp, #4]
 540 000a 03F00303 		and	r3, r3, #3
 541 000e 0D93     		str	r3, [sp, #52]
 542              		.loc 1 164 0
 543 0010 019B     		ldr	r3, [sp, #4]
 544 0012 03F00403 		and	r3, r3, #4
 545 0016 9B08     		lsrs	r3, r3, #2
 546 0018 0C93     		str	r3, [sp, #48]
 547              		.loc 1 165 0
 548 001a 019B     		ldr	r3, [sp, #4]
 549 001c 03F01803 		and	r3, r3, #24
 550 0020 DB08     		lsrs	r3, r3, #3
 551 0022 0B93     		str	r3, [sp, #44]
 552              		.loc 1 166 0
 553 0024 019B     		ldr	r3, [sp, #4]
 554 0026 03F06003 		and	r3, r3, #96
 555 002a 5B09     		lsrs	r3, r3, #5
 556 002c 0A93     		str	r3, [sp, #40]
 557              		.loc 1 167 0
 558 002e 019B     		ldr	r3, [sp, #4]
 559 0030 03F4F063 		and	r3, r3, #1920
 560 0034 DB09     		lsrs	r3, r3, #7
 561 0036 0893     		str	r3, [sp, #32]
 562              		.loc 1 168 0
 563 0038 0023     		movs	r3, #0
 564 003a 0993     		str	r3, [sp, #36]
 565              	.L11:
 566              		.loc 1 170 0
 567 003c 029B     		ldr	r3, [sp, #8]
 568 003e 03F00103 		and	r3, r3, #1
 569 0042 002B     		cmp	r3, #0
ARM GAS  /tmp/cc61LjSr.s 			page 32


 570 0044 77D0     		beq	.L4
 571              	.LBB2:
 572              		.loc 1 173 0
 573 0046 099B     		ldr	r3, [sp, #36]
 574 0048 03F00703 		and	r3, r3, #7
 575 004c 9B00     		lsls	r3, r3, #2
 576 004e 089A     		ldr	r2, [sp, #32]
 577 0050 02FA03F3 		lsl	r3, r2, r3
 578 0054 0793     		str	r3, [sp, #28]
 579              		.loc 1 174 0
 580 0056 099B     		ldr	r3, [sp, #36]
 581 0058 0122     		movs	r2, #1
 582 005a 02FA03F3 		lsl	r3, r2, r3
 583 005e 0693     		str	r3, [sp, #24]
 584              		.loc 1 175 0
 585 0060 099B     		ldr	r3, [sp, #36]
 586 0062 5B00     		lsls	r3, r3, #1
 587 0064 0322     		movs	r2, #3
 588 0066 02FA03F3 		lsl	r3, r2, r3
 589 006a 0593     		str	r3, [sp, #20]
 590              		.loc 1 176 0
 591 006c 099B     		ldr	r3, [sp, #36]
 592 006e 03F00703 		and	r3, r3, #7
 593 0072 9B00     		lsls	r3, r3, #2
 594 0074 0F22     		movs	r2, #15
 595 0076 02FA03F3 		lsl	r3, r2, r3
 596 007a 0493     		str	r3, [sp, #16]
 597              		.loc 1 177 0
 598 007c 039B     		ldr	r3, [sp, #12]
 599 007e 5A68     		ldr	r2, [r3, #4]
 600 0080 069B     		ldr	r3, [sp, #24]
 601 0082 DB43     		mvns	r3, r3
 602 0084 1A40     		ands	r2, r2, r3
 603 0086 0C9B     		ldr	r3, [sp, #48]
 604 0088 1A43     		orrs	r2, r2, r3
 605 008a 039B     		ldr	r3, [sp, #12]
 606 008c 5A60     		str	r2, [r3, #4]
 607              		.loc 1 178 0
 608 008e 039B     		ldr	r3, [sp, #12]
 609 0090 9A68     		ldr	r2, [r3, #8]
 610 0092 059B     		ldr	r3, [sp, #20]
 611 0094 DB43     		mvns	r3, r3
 612 0096 1A40     		ands	r2, r2, r3
 613 0098 0B9B     		ldr	r3, [sp, #44]
 614 009a 1A43     		orrs	r2, r2, r3
 615 009c 039B     		ldr	r3, [sp, #12]
 616 009e 9A60     		str	r2, [r3, #8]
 617              		.loc 1 179 0
 618 00a0 039B     		ldr	r3, [sp, #12]
 619 00a2 DA68     		ldr	r2, [r3, #12]
 620 00a4 059B     		ldr	r3, [sp, #20]
 621 00a6 DB43     		mvns	r3, r3
 622 00a8 1A40     		ands	r2, r2, r3
 623 00aa 0A9B     		ldr	r3, [sp, #40]
 624 00ac 1A43     		orrs	r2, r2, r3
 625 00ae 039B     		ldr	r3, [sp, #12]
 626 00b0 DA60     		str	r2, [r3, #12]
ARM GAS  /tmp/cc61LjSr.s 			page 33


 627              		.loc 1 180 0
 628 00b2 0D9B     		ldr	r3, [sp, #52]
 629 00b4 022B     		cmp	r3, #2
 630 00b6 1FD1     		bne	.L5
 631              		.loc 1 183 0
 632 00b8 099B     		ldr	r3, [sp, #36]
 633 00ba 072B     		cmp	r3, #7
 634 00bc 09D8     		bhi	.L6
 635              		.loc 1 184 0
 636 00be 039B     		ldr	r3, [sp, #12]
 637 00c0 1A6A     		ldr	r2, [r3, #32]
 638 00c2 049B     		ldr	r3, [sp, #16]
 639 00c4 DB43     		mvns	r3, r3
 640 00c6 1A40     		ands	r2, r2, r3
 641 00c8 079B     		ldr	r3, [sp, #28]
 642 00ca 1A43     		orrs	r2, r2, r3
 643 00cc 039B     		ldr	r3, [sp, #12]
 644 00ce 1A62     		str	r2, [r3, #32]
 645 00d0 08E0     		b	.L7
 646              	.L6:
 647              		.loc 1 186 0
 648 00d2 039B     		ldr	r3, [sp, #12]
 649 00d4 5A6A     		ldr	r2, [r3, #36]
 650 00d6 049B     		ldr	r3, [sp, #16]
 651 00d8 DB43     		mvns	r3, r3
 652 00da 1A40     		ands	r2, r2, r3
 653 00dc 079B     		ldr	r3, [sp, #28]
 654 00de 1A43     		orrs	r2, r2, r3
 655 00e0 039B     		ldr	r3, [sp, #12]
 656 00e2 5A62     		str	r2, [r3, #36]
 657              	.L7:
 658              		.loc 1 187 0 discriminator 1
 659 00e4 039B     		ldr	r3, [sp, #12]
 660 00e6 1A68     		ldr	r2, [r3]
 661 00e8 059B     		ldr	r3, [sp, #20]
 662 00ea DB43     		mvns	r3, r3
 663 00ec 1A40     		ands	r2, r2, r3
 664 00ee 0D9B     		ldr	r3, [sp, #52]
 665 00f0 1A43     		orrs	r2, r2, r3
 666 00f2 039B     		ldr	r3, [sp, #12]
 667 00f4 1A60     		str	r2, [r3]
 668 00f6 1EE0     		b	.L4
 669              	.L5:
 670              		.loc 1 192 0
 671 00f8 039B     		ldr	r3, [sp, #12]
 672 00fa 1A68     		ldr	r2, [r3]
 673 00fc 059B     		ldr	r3, [sp, #20]
 674 00fe DB43     		mvns	r3, r3
 675 0100 1A40     		ands	r2, r2, r3
 676 0102 0D9B     		ldr	r3, [sp, #52]
 677 0104 1A43     		orrs	r2, r2, r3
 678 0106 039B     		ldr	r3, [sp, #12]
 679 0108 1A60     		str	r2, [r3]
 680              		.loc 1 193 0
 681 010a 099B     		ldr	r3, [sp, #36]
 682 010c 072B     		cmp	r3, #7
 683 010e 09D8     		bhi	.L8
ARM GAS  /tmp/cc61LjSr.s 			page 34


 684              		.loc 1 194 0
 685 0110 039B     		ldr	r3, [sp, #12]
 686 0112 1A6A     		ldr	r2, [r3, #32]
 687 0114 049B     		ldr	r3, [sp, #16]
 688 0116 DB43     		mvns	r3, r3
 689 0118 1A40     		ands	r2, r2, r3
 690 011a 079B     		ldr	r3, [sp, #28]
 691 011c 1A43     		orrs	r2, r2, r3
 692 011e 039B     		ldr	r3, [sp, #12]
 693 0120 1A62     		str	r2, [r3, #32]
 694 0122 08E0     		b	.L4
 695              	.L8:
 696              		.loc 1 196 0
 697 0124 039B     		ldr	r3, [sp, #12]
 698 0126 5A6A     		ldr	r2, [r3, #36]
 699 0128 049B     		ldr	r3, [sp, #16]
 700 012a DB43     		mvns	r3, r3
 701 012c 1A40     		ands	r2, r2, r3
 702 012e 079B     		ldr	r3, [sp, #28]
 703 0130 1A43     		orrs	r2, r2, r3
 704 0132 039B     		ldr	r3, [sp, #12]
 705 0134 5A62     		str	r2, [r3, #36]
 706              	.L4:
 707              	.LBE2:
 708              		.loc 1 199 0
 709 0136 029B     		ldr	r3, [sp, #8]
 710 0138 5B08     		lsrs	r3, r3, #1
 711 013a 0293     		str	r3, [sp, #8]
 712              		.loc 1 200 0
 713 013c 029B     		ldr	r3, [sp, #8]
 714 013e 002B     		cmp	r3, #0
 715 0140 00D1     		bne	.L9
 716              		.loc 1 201 0
 717 0142 0FE0     		b	.L12
 718              	.L9:
 719              		.loc 1 202 0
 720 0144 0C9B     		ldr	r3, [sp, #48]
 721 0146 5B00     		lsls	r3, r3, #1
 722 0148 0C93     		str	r3, [sp, #48]
 723              		.loc 1 203 0
 724 014a 0B9B     		ldr	r3, [sp, #44]
 725 014c 9B00     		lsls	r3, r3, #2
 726 014e 0B93     		str	r3, [sp, #44]
 727              		.loc 1 204 0
 728 0150 0A9B     		ldr	r3, [sp, #40]
 729 0152 9B00     		lsls	r3, r3, #2
 730 0154 0A93     		str	r3, [sp, #40]
 731              		.loc 1 205 0
 732 0156 0D9B     		ldr	r3, [sp, #52]
 733 0158 9B00     		lsls	r3, r3, #2
 734 015a 0D93     		str	r3, [sp, #52]
 735              		.loc 1 206 0
 736 015c 099B     		ldr	r3, [sp, #36]
 737 015e 0133     		adds	r3, r3, #1
 738 0160 0993     		str	r3, [sp, #36]
 739              		.loc 1 207 0
 740 0162 6BE7     		b	.L11
ARM GAS  /tmp/cc61LjSr.s 			page 35


 741              	.L12:
 742              		.loc 1 208 0
 743 0164 0EB0     		add	sp, sp, #56
 744              		@ sp needed
 745 0166 7047     		bx	lr
 746              		.cfi_endproc
 747              	.LFE274:
 748              		.size	_pal_lld_setgroupmode, .-_pal_lld_setgroupmode
 749 0168 AFF30080 		.text
 749      AFF30080 
 750              	.Letext0:
 751              		.file 2 "/usr/include/newlib/machine/_default_types.h"
 752              		.file 3 "/usr/include/newlib/stdint.h"
 753              		.file 4 "lib/ChibiOS_16.1.4//os/rt/ports/ARMCMx/compilers/GCC/chtypes.h"
 754              		.file 5 "lib/ChibiOS_16.1.4//os/rt/include/chsystypes.h"
 755              		.file 6 "lib/ChibiOS_16.1.4//os/rt/include/chschd.h"
 756              		.file 7 "lib/ChibiOS_16.1.4//os/ext/CMSIS/ST/STM32F4xx/stm32f407xx.h"
 757              		.file 8 "lib/ChibiOS_16.1.4//os/rt/ports/ARMCMx/chcore.h"
 758              		.file 9 "lib/ChibiOS_16.1.4//os/rt/ports/ARMCMx/chcore_v7m.h"
 759              		.file 10 "lib/ChibiOS_16.1.4//os/rt/include/chdebug.h"
 760              		.file 11 "lib/ChibiOS_16.1.4//os/rt/include/chtm.h"
 761              		.file 12 "lib/ChibiOS_16.1.4//os/rt/include/chstats.h"
 762              		.file 13 "lib/ChibiOS_16.1.4//os/rt/include/chsem.h"
 763              		.file 14 "lib/ChibiOS_16.1.4//os/rt/include/chmtx.h"
 764              		.file 15 "lib/ChibiOS_16.1.4//os/hal/ports/STM32/LLD/GPIOv2/pal_lld.h"
 765              		.file 16 "lib/ChibiOS_16.1.4//os/ext/CMSIS/include/core_cm4.h"
 766              		.section	.debug_info,"",%progbits
 767              	.Ldebug_info0:
 768 0000 C70C0000 		.4byte	0xcc7
 769 0004 0400     		.2byte	0x4
 770 0006 00000000 		.4byte	.Ldebug_abbrev0
 771 000a 04       		.byte	0x4
 772 000b 01       		.uleb128 0x1
 773 000c 6A030000 		.4byte	.LASF199
 774 0010 01       		.byte	0x1
 775 0011 82000000 		.4byte	.LASF200
 776 0015 94010000 		.4byte	.LASF201
 777 0019 00000000 		.4byte	.Ldebug_ranges0+0
 778 001d 00000000 		.4byte	0
 779 0021 00000000 		.4byte	.Ldebug_line0
 780 0025 02       		.uleb128 0x2
 781 0026 04       		.byte	0x4
 782 0027 05       		.byte	0x5
 783 0028 696E7400 		.ascii	"int\000"
 784 002c 03       		.uleb128 0x3
 785 002d 04       		.byte	0x4
 786 002e 07       		.byte	0x7
 787 002f C7020000 		.4byte	.LASF0
 788 0033 03       		.uleb128 0x3
 789 0034 01       		.byte	0x1
 790 0035 06       		.byte	0x6
 791 0036 88010000 		.4byte	.LASF1
 792 003a 04       		.uleb128 0x4
 793 003b 45000000 		.4byte	.LASF4
 794 003f 02       		.byte	0x2
 795 0040 1C       		.byte	0x1c
 796 0041 45000000 		.4byte	0x45
ARM GAS  /tmp/cc61LjSr.s 			page 36


 797 0045 03       		.uleb128 0x3
 798 0046 01       		.byte	0x1
 799 0047 08       		.byte	0x8
 800 0048 CE050000 		.4byte	.LASF2
 801 004c 03       		.uleb128 0x3
 802 004d 02       		.byte	0x2
 803 004e 05       		.byte	0x5
 804 004f F1050000 		.4byte	.LASF3
 805 0053 04       		.uleb128 0x4
 806 0054 E2060000 		.4byte	.LASF5
 807 0058 02       		.byte	0x2
 808 0059 26       		.byte	0x26
 809 005a 5E000000 		.4byte	0x5e
 810 005e 03       		.uleb128 0x3
 811 005f 02       		.byte	0x2
 812 0060 07       		.byte	0x7
 813 0061 08030000 		.4byte	.LASF6
 814 0065 04       		.uleb128 0x4
 815 0066 46040000 		.4byte	.LASF7
 816 006a 02       		.byte	0x2
 817 006b 37       		.byte	0x37
 818 006c 70000000 		.4byte	0x70
 819 0070 03       		.uleb128 0x3
 820 0071 04       		.byte	0x4
 821 0072 05       		.byte	0x5
 822 0073 ED010000 		.4byte	.LASF8
 823 0077 04       		.uleb128 0x4
 824 0078 29070000 		.4byte	.LASF9
 825 007c 02       		.byte	0x2
 826 007d 38       		.byte	0x38
 827 007e 82000000 		.4byte	0x82
 828 0082 03       		.uleb128 0x3
 829 0083 04       		.byte	0x4
 830 0084 07       		.byte	0x7
 831 0085 BA060000 		.4byte	.LASF10
 832 0089 03       		.uleb128 0x3
 833 008a 08       		.byte	0x8
 834 008b 05       		.byte	0x5
 835 008c 7A010000 		.4byte	.LASF11
 836 0090 04       		.uleb128 0x4
 837 0091 37050000 		.4byte	.LASF12
 838 0095 02       		.byte	0x2
 839 0096 4E       		.byte	0x4e
 840 0097 9B000000 		.4byte	0x9b
 841 009b 03       		.uleb128 0x3
 842 009c 08       		.byte	0x8
 843 009d 07       		.byte	0x7
 844 009e F1000000 		.4byte	.LASF13
 845 00a2 04       		.uleb128 0x4
 846 00a3 F4070000 		.4byte	.LASF14
 847 00a7 03       		.byte	0x3
 848 00a8 2A       		.byte	0x2a
 849 00a9 3A000000 		.4byte	0x3a
 850 00ad 04       		.uleb128 0x4
 851 00ae 16020000 		.4byte	.LASF15
 852 00b2 03       		.byte	0x3
 853 00b3 36       		.byte	0x36
ARM GAS  /tmp/cc61LjSr.s 			page 37


 854 00b4 53000000 		.4byte	0x53
 855 00b8 04       		.uleb128 0x4
 856 00b9 C6050000 		.4byte	.LASF16
 857 00bd 03       		.byte	0x3
 858 00be 41       		.byte	0x41
 859 00bf 65000000 		.4byte	0x65
 860 00c3 04       		.uleb128 0x4
 861 00c4 89060000 		.4byte	.LASF17
 862 00c8 03       		.byte	0x3
 863 00c9 42       		.byte	0x42
 864 00ca 77000000 		.4byte	0x77
 865 00ce 04       		.uleb128 0x4
 866 00cf 3C000000 		.4byte	.LASF18
 867 00d3 03       		.byte	0x3
 868 00d4 4E       		.byte	0x4e
 869 00d5 90000000 		.4byte	0x90
 870 00d9 04       		.uleb128 0x4
 871 00da 94070000 		.4byte	.LASF19
 872 00de 04       		.byte	0x4
 873 00df 39       		.byte	0x39
 874 00e0 C3000000 		.4byte	0xc3
 875 00e4 04       		.uleb128 0x4
 876 00e5 60010000 		.4byte	.LASF20
 877 00e9 04       		.byte	0x4
 878 00ea 3A       		.byte	0x3a
 879 00eb CE000000 		.4byte	0xce
 880 00ef 04       		.uleb128 0x4
 881 00f0 29060000 		.4byte	.LASF21
 882 00f4 04       		.byte	0x4
 883 00f5 3C       		.byte	0x3c
 884 00f6 A2000000 		.4byte	0xa2
 885 00fa 04       		.uleb128 0x4
 886 00fb 07020000 		.4byte	.LASF22
 887 00ff 04       		.byte	0x4
 888 0100 3D       		.byte	0x3d
 889 0101 A2000000 		.4byte	0xa2
 890 0105 04       		.uleb128 0x4
 891 0106 64050000 		.4byte	.LASF23
 892 010a 04       		.byte	0x4
 893 010b 3E       		.byte	0x3e
 894 010c A2000000 		.4byte	0xa2
 895 0110 04       		.uleb128 0x4
 896 0111 AF050000 		.4byte	.LASF24
 897 0115 04       		.byte	0x4
 898 0116 40       		.byte	0x40
 899 0117 C3000000 		.4byte	0xc3
 900 011b 04       		.uleb128 0x4
 901 011c 48030000 		.4byte	.LASF25
 902 0120 04       		.byte	0x4
 903 0121 41       		.byte	0x41
 904 0122 B8000000 		.4byte	0xb8
 905 0126 04       		.uleb128 0x4
 906 0127 3A040000 		.4byte	.LASF26
 907 012b 04       		.byte	0x4
 908 012c 43       		.byte	0x43
 909 012d C3000000 		.4byte	0xc3
 910 0131 04       		.uleb128 0x4
ARM GAS  /tmp/cc61LjSr.s 			page 38


 911 0132 B6020000 		.4byte	.LASF27
 912 0136 04       		.byte	0x4
 913 0137 45       		.byte	0x45
 914 0138 B8000000 		.4byte	0xb8
 915 013c 04       		.uleb128 0x4
 916 013d 57030000 		.4byte	.LASF28
 917 0141 04       		.byte	0x4
 918 0142 46       		.byte	0x46
 919 0143 C3000000 		.4byte	0xc3
 920 0147 04       		.uleb128 0x4
 921 0148 0B070000 		.4byte	.LASF29
 922 014c 05       		.byte	0x5
 923 014d 33       		.byte	0x33
 924 014e C3000000 		.4byte	0xc3
 925 0152 04       		.uleb128 0x4
 926 0153 F6060000 		.4byte	.LASF30
 927 0157 05       		.byte	0x5
 928 0158 3F       		.byte	0x3f
 929 0159 5D010000 		.4byte	0x15d
 930 015d 05       		.uleb128 0x5
 931 015e 2A030000 		.4byte	.LASF52
 932 0162 60       		.byte	0x60
 933 0163 06       		.byte	0x6
 934 0164 C2       		.byte	0xc2
 935 0165 63020000 		.4byte	0x263
 936 0169 06       		.uleb128 0x6
 937 016a 22060000 		.4byte	.LASF31
 938 016e 06       		.byte	0x6
 939 016f C3       		.byte	0xc3
 940 0170 6E020000 		.4byte	0x26e
 941 0174 00       		.byte	0
 942 0175 06       		.uleb128 0x6
 943 0176 9E050000 		.4byte	.LASF32
 944 017a 06       		.byte	0x6
 945 017b C5       		.byte	0xc5
 946 017c 6E020000 		.4byte	0x26e
 947 0180 04       		.byte	0x4
 948 0181 06       		.uleb128 0x6
 949 0182 73010000 		.4byte	.LASF33
 950 0186 06       		.byte	0x6
 951 0187 C7       		.byte	0xc7
 952 0188 10010000 		.4byte	0x110
 953 018c 08       		.byte	0x8
 954 018d 06       		.uleb128 0x6
 955 018e 64080000 		.4byte	.LASF34
 956 0192 06       		.byte	0x6
 957 0193 C8       		.byte	0xc8
 958 0194 87060000 		.4byte	0x687
 959 0198 0C       		.byte	0xc
 960 0199 06       		.uleb128 0x6
 961 019a 28020000 		.4byte	.LASF35
 962 019e 06       		.byte	0x6
 963 019f CA       		.byte	0xca
 964 01a0 6E020000 		.4byte	0x26e
 965 01a4 10       		.byte	0x10
 966 01a5 06       		.uleb128 0x6
 967 01a6 EF040000 		.4byte	.LASF36
ARM GAS  /tmp/cc61LjSr.s 			page 39


 968 01aa 06       		.byte	0x6
 969 01ab CB       		.byte	0xcb
 970 01ac 6E020000 		.4byte	0x26e
 971 01b0 14       		.byte	0x14
 972 01b1 06       		.uleb128 0x6
 973 01b2 09080000 		.4byte	.LASF37
 974 01b6 06       		.byte	0x6
 975 01b7 D2       		.byte	0xd2
 976 01b8 2B090000 		.4byte	0x92b
 977 01bc 18       		.byte	0x18
 978 01bd 06       		.uleb128 0x6
 979 01be BC020000 		.4byte	.LASF38
 980 01c2 06       		.byte	0x6
 981 01c3 D8       		.byte	0xd8
 982 01c4 3D090000 		.4byte	0x93d
 983 01c8 1C       		.byte	0x1c
 984 01c9 06       		.uleb128 0x6
 985 01ca FB050000 		.4byte	.LASF39
 986 01ce 06       		.byte	0x6
 987 01cf DD       		.byte	0xdd
 988 01d0 FA000000 		.4byte	0xfa
 989 01d4 20       		.byte	0x20
 990 01d5 06       		.uleb128 0x6
 991 01d6 31060000 		.4byte	.LASF40
 992 01da 06       		.byte	0x6
 993 01db E1       		.byte	0xe1
 994 01dc EF000000 		.4byte	0xef
 995 01e0 21       		.byte	0x21
 996 01e1 06       		.uleb128 0x6
 997 01e2 CC070000 		.4byte	.LASF41
 998 01e6 06       		.byte	0x6
 999 01e7 E6       		.byte	0xe6
 1000 01e8 05010000 		.4byte	0x105
 1001 01ec 22       		.byte	0x22
 1002 01ed 07       		.uleb128 0x7
 1003 01ee 705F7500 		.ascii	"p_u\000"
 1004 01f2 06       		.byte	0x6
 1005 01f3 3101     		.2byte	0x131
 1006 01f5 66080000 		.4byte	0x866
 1007 01f9 24       		.byte	0x24
 1008 01fa 08       		.uleb128 0x8
 1009 01fb 89040000 		.4byte	.LASF42
 1010 01ff 06       		.byte	0x6
 1011 0200 3601     		.2byte	0x136
 1012 0202 74020000 		.4byte	0x274
 1013 0206 28       		.byte	0x28
 1014 0207 08       		.uleb128 0x8
 1015 0208 E3020000 		.4byte	.LASF43
 1016 020c 06       		.byte	0x6
 1017 020d 3C01     		.2byte	0x13c
 1018 020f 98020000 		.4byte	0x298
 1019 0213 2C       		.byte	0x2c
 1020 0214 08       		.uleb128 0x8
 1021 0215 31080000 		.4byte	.LASF44
 1022 0219 06       		.byte	0x6
 1023 021a 4001     		.2byte	0x140
 1024 021c 1B010000 		.4byte	0x11b
ARM GAS  /tmp/cc61LjSr.s 			page 40


 1025 0220 34       		.byte	0x34
 1026 0221 08       		.uleb128 0x8
 1027 0222 74060000 		.4byte	.LASF45
 1028 0226 06       		.byte	0x6
 1029 0227 4601     		.2byte	0x146
 1030 0229 26010000 		.4byte	0x126
 1031 022d 38       		.byte	0x38
 1032 022e 08       		.uleb128 0x8
 1033 022f E7050000 		.4byte	.LASF46
 1034 0233 06       		.byte	0x6
 1035 0234 4D01     		.2byte	0x14d
 1036 0236 25090000 		.4byte	0x925
 1037 023a 3C       		.byte	0x3c
 1038 023b 08       		.uleb128 0x8
 1039 023c 15070000 		.4byte	.LASF47
 1040 0240 06       		.byte	0x6
 1041 0241 5101     		.2byte	0x151
 1042 0243 10010000 		.4byte	0x110
 1043 0247 40       		.byte	0x40
 1044 0248 08       		.uleb128 0x8
 1045 0249 C1010000 		.4byte	.LASF48
 1046 024d 06       		.byte	0x6
 1047 024e 5801     		.2byte	0x158
 1048 0250 4B030000 		.4byte	0x34b
 1049 0254 44       		.byte	0x44
 1050 0255 08       		.uleb128 0x8
 1051 0256 39060000 		.4byte	.LASF49
 1052 025a 06       		.byte	0x6
 1053 025b 5E01     		.2byte	0x15e
 1054 025d 17080000 		.4byte	0x817
 1055 0261 48       		.byte	0x48
 1056 0262 00       		.byte	0
 1057 0263 04       		.uleb128 0x4
 1058 0264 9C040000 		.4byte	.LASF50
 1059 0268 05       		.byte	0x5
 1060 0269 44       		.byte	0x44
 1061 026a 6E020000 		.4byte	0x26e
 1062 026e 09       		.uleb128 0x9
 1063 026f 04       		.byte	0x4
 1064 0270 52010000 		.4byte	0x152
 1065 0274 04       		.uleb128 0x4
 1066 0275 62040000 		.4byte	.LASF51
 1067 0279 05       		.byte	0x5
 1068 027a 49       		.byte	0x49
 1069 027b 7F020000 		.4byte	0x27f
 1070 027f 05       		.uleb128 0x5
 1071 0280 AA060000 		.4byte	.LASF53
 1072 0284 04       		.byte	0x4
 1073 0285 06       		.byte	0x6
 1074 0286 B0       		.byte	0xb0
 1075 0287 98020000 		.4byte	0x298
 1076 028b 06       		.uleb128 0x6
 1077 028c 22060000 		.4byte	.LASF31
 1078 0290 06       		.byte	0x6
 1079 0291 B1       		.byte	0xb1
 1080 0292 6E020000 		.4byte	0x26e
 1081 0296 00       		.byte	0
ARM GAS  /tmp/cc61LjSr.s 			page 41


 1082 0297 00       		.byte	0
 1083 0298 04       		.uleb128 0x4
 1084 0299 B3070000 		.4byte	.LASF54
 1085 029d 05       		.byte	0x5
 1086 029e 50       		.byte	0x50
 1087 029f A3020000 		.4byte	0x2a3
 1088 02a3 05       		.uleb128 0x5
 1089 02a4 62000000 		.4byte	.LASF55
 1090 02a8 08       		.byte	0x8
 1091 02a9 06       		.byte	0x6
 1092 02aa B7       		.byte	0xb7
 1093 02ab C8020000 		.4byte	0x2c8
 1094 02af 06       		.uleb128 0x6
 1095 02b0 22060000 		.4byte	.LASF31
 1096 02b4 06       		.byte	0x6
 1097 02b5 B8       		.byte	0xb8
 1098 02b6 6E020000 		.4byte	0x26e
 1099 02ba 00       		.byte	0
 1100 02bb 06       		.uleb128 0x6
 1101 02bc 9E050000 		.4byte	.LASF32
 1102 02c0 06       		.byte	0x6
 1103 02c1 B9       		.byte	0xb9
 1104 02c2 6E020000 		.4byte	0x26e
 1105 02c6 04       		.byte	0x4
 1106 02c7 00       		.byte	0
 1107 02c8 04       		.uleb128 0x4
 1108 02c9 1A000000 		.4byte	.LASF56
 1109 02cd 05       		.byte	0x5
 1110 02ce 57       		.byte	0x57
 1111 02cf D3020000 		.4byte	0x2d3
 1112 02d3 0A       		.uleb128 0xa
 1113 02d4 2C040000 		.4byte	.LASF57
 1114 02d8 1C       		.byte	0x1c
 1115 02d9 06       		.byte	0x6
 1116 02da 9001     		.2byte	0x190
 1117 02dc 2F030000 		.4byte	0x32f
 1118 02e0 08       		.uleb128 0x8
 1119 02e1 99060000 		.4byte	.LASF58
 1120 02e5 06       		.byte	0x6
 1121 02e6 9101     		.2byte	0x191
 1122 02e8 98020000 		.4byte	0x298
 1123 02ec 00       		.byte	0
 1124 02ed 08       		.uleb128 0x8
 1125 02ee 0D060000 		.4byte	.LASF59
 1126 02f2 06       		.byte	0x6
 1127 02f3 9201     		.2byte	0x192
 1128 02f5 10010000 		.4byte	0x110
 1129 02f9 08       		.byte	0x8
 1130 02fa 08       		.uleb128 0x8
 1131 02fb F7040000 		.4byte	.LASF60
 1132 02ff 06       		.byte	0x6
 1133 0300 9401     		.2byte	0x194
 1134 0302 87060000 		.4byte	0x687
 1135 0306 0C       		.byte	0xc
 1136 0307 08       		.uleb128 0x8
 1137 0308 48020000 		.4byte	.LASF61
 1138 030c 06       		.byte	0x6
ARM GAS  /tmp/cc61LjSr.s 			page 42


 1139 030d 9701     		.2byte	0x197
 1140 030f 6E020000 		.4byte	0x26e
 1141 0313 10       		.byte	0x10
 1142 0314 08       		.uleb128 0x8
 1143 0315 76070000 		.4byte	.LASF62
 1144 0319 06       		.byte	0x6
 1145 031a 9801     		.2byte	0x198
 1146 031c 6E020000 		.4byte	0x26e
 1147 0320 14       		.byte	0x14
 1148 0321 08       		.uleb128 0x8
 1149 0322 24050000 		.4byte	.LASF63
 1150 0326 06       		.byte	0x6
 1151 0327 9B01     		.2byte	0x19b
 1152 0329 6E020000 		.4byte	0x26e
 1153 032d 18       		.byte	0x18
 1154 032e 00       		.byte	0
 1155 032f 04       		.uleb128 0x4
 1156 0330 20070000 		.4byte	.LASF64
 1157 0334 05       		.byte	0x5
 1158 0335 5C       		.byte	0x5c
 1159 0336 3A030000 		.4byte	0x33a
 1160 033a 09       		.uleb128 0x9
 1161 033b 04       		.byte	0x4
 1162 033c 40030000 		.4byte	0x340
 1163 0340 0B       		.uleb128 0xb
 1164 0341 4B030000 		.4byte	0x34b
 1165 0345 0C       		.uleb128 0xc
 1166 0346 4B030000 		.4byte	0x34b
 1167 034a 00       		.byte	0
 1168 034b 0D       		.uleb128 0xd
 1169 034c 04       		.byte	0x4
 1170 034d 04       		.uleb128 0x4
 1171 034e 71040000 		.4byte	.LASF65
 1172 0352 05       		.byte	0x5
 1173 0353 61       		.byte	0x61
 1174 0354 58030000 		.4byte	0x358
 1175 0358 0A       		.uleb128 0xa
 1176 0359 56060000 		.4byte	.LASF66
 1177 035d 14       		.byte	0x14
 1178 035e 06       		.byte	0x6
 1179 035f 6B01     		.2byte	0x16b
 1180 0361 A7030000 		.4byte	0x3a7
 1181 0365 08       		.uleb128 0x8
 1182 0366 D4020000 		.4byte	.LASF67
 1183 036a 06       		.byte	0x6
 1184 036b 6C01     		.2byte	0x16c
 1185 036d 43090000 		.4byte	0x943
 1186 0371 00       		.byte	0
 1187 0372 08       		.uleb128 0x8
 1188 0373 5E020000 		.4byte	.LASF68
 1189 0377 06       		.byte	0x6
 1190 0378 6D01     		.2byte	0x16d
 1191 037a 43090000 		.4byte	0x943
 1192 037e 04       		.byte	0x4
 1193 037f 08       		.uleb128 0x8
 1194 0380 A1060000 		.4byte	.LASF69
 1195 0384 06       		.byte	0x6
ARM GAS  /tmp/cc61LjSr.s 			page 43


 1196 0385 6E01     		.2byte	0x16e
 1197 0387 47010000 		.4byte	0x147
 1198 038b 08       		.byte	0x8
 1199 038c 08       		.uleb128 0x8
 1200 038d 6A080000 		.4byte	.LASF70
 1201 0391 06       		.byte	0x6
 1202 0392 6F01     		.2byte	0x16f
 1203 0394 2F030000 		.4byte	0x32f
 1204 0398 0C       		.byte	0xc
 1205 0399 08       		.uleb128 0x8
 1206 039a 9C070000 		.4byte	.LASF71
 1207 039e 06       		.byte	0x6
 1208 039f 7101     		.2byte	0x171
 1209 03a1 4B030000 		.4byte	0x34b
 1210 03a5 10       		.byte	0x10
 1211 03a6 00       		.byte	0
 1212 03a7 04       		.uleb128 0x4
 1213 03a8 3D010000 		.4byte	.LASF72
 1214 03ac 05       		.byte	0x5
 1215 03ad 66       		.byte	0x66
 1216 03ae B2030000 		.4byte	0x3b2
 1217 03b2 0A       		.uleb128 0xa
 1218 03b3 AF040000 		.4byte	.LASF73
 1219 03b7 10       		.byte	0x10
 1220 03b8 06       		.byte	0x6
 1221 03b9 7B01     		.2byte	0x17b
 1222 03bb F4030000 		.4byte	0x3f4
 1223 03bf 08       		.uleb128 0x8
 1224 03c0 D4020000 		.4byte	.LASF67
 1225 03c4 06       		.byte	0x6
 1226 03c5 7C01     		.2byte	0x17c
 1227 03c7 43090000 		.4byte	0x943
 1228 03cb 00       		.byte	0
 1229 03cc 08       		.uleb128 0x8
 1230 03cd 5E020000 		.4byte	.LASF68
 1231 03d1 06       		.byte	0x6
 1232 03d2 7E01     		.2byte	0x17e
 1233 03d4 43090000 		.4byte	0x943
 1234 03d8 04       		.byte	0x4
 1235 03d9 08       		.uleb128 0x8
 1236 03da A1060000 		.4byte	.LASF69
 1237 03de 06       		.byte	0x6
 1238 03df 8001     		.2byte	0x180
 1239 03e1 47010000 		.4byte	0x147
 1240 03e5 08       		.byte	0x8
 1241 03e6 08       		.uleb128 0x8
 1242 03e7 E3040000 		.4byte	.LASF74
 1243 03eb 06       		.byte	0x6
 1244 03ec 8801     		.2byte	0x188
 1245 03ee 47010000 		.4byte	0x147
 1246 03f2 0C       		.byte	0xc
 1247 03f3 00       		.byte	0
 1248 03f4 04       		.uleb128 0x4
 1249 03f5 73000000 		.4byte	.LASF75
 1250 03f9 05       		.byte	0x5
 1251 03fa 6B       		.byte	0x6b
 1252 03fb FF030000 		.4byte	0x3ff
ARM GAS  /tmp/cc61LjSr.s 			page 44


 1253 03ff 0E       		.uleb128 0xe
 1254 0400 6D020000 		.4byte	.LASF76
 1255 0404 1404     		.2byte	0x414
 1256 0406 06       		.byte	0x6
 1257 0407 A201     		.2byte	0x1a2
 1258 0409 42040000 		.4byte	0x442
 1259 040d 08       		.uleb128 0x8
 1260 040e 42070000 		.4byte	.LASF77
 1261 0412 06       		.byte	0x6
 1262 0413 AA01     		.2byte	0x1aa
 1263 0415 49090000 		.4byte	0x949
 1264 0419 00       		.byte	0
 1265 041a 08       		.uleb128 0x8
 1266 041b D3070000 		.4byte	.LASF78
 1267 041f 06       		.byte	0x6
 1268 0420 AF01     		.2byte	0x1af
 1269 0422 31010000 		.4byte	0x131
 1270 0426 04       		.byte	0x4
 1271 0427 08       		.uleb128 0x8
 1272 0428 9E020000 		.4byte	.LASF79
 1273 042c 06       		.byte	0x6
 1274 042d B301     		.2byte	0x1b3
 1275 042f 31010000 		.4byte	0x131
 1276 0433 08       		.byte	0x8
 1277 0434 08       		.uleb128 0x8
 1278 0435 24080000 		.4byte	.LASF80
 1279 0439 06       		.byte	0x6
 1280 043a B901     		.2byte	0x1b9
 1281 043c A9070000 		.4byte	0x7a9
 1282 0440 0C       		.byte	0xc
 1283 0441 00       		.byte	0
 1284 0442 04       		.uleb128 0x4
 1285 0443 5E030000 		.4byte	.LASF81
 1286 0447 05       		.byte	0x5
 1287 0448 70       		.byte	0x70
 1288 0449 4D040000 		.4byte	0x44d
 1289 044d 0E       		.uleb128 0xe
 1290 044e E3010000 		.4byte	.LASF82
 1291 0452 D805     		.2byte	0x5d8
 1292 0454 06       		.byte	0x6
 1293 0455 C201     		.2byte	0x1c2
 1294 0457 BA040000 		.4byte	0x4ba
 1295 045b 08       		.uleb128 0x8
 1296 045c EE070000 		.4byte	.LASF83
 1297 0460 06       		.byte	0x6
 1298 0461 C601     		.2byte	0x1c6
 1299 0463 C8020000 		.4byte	0x2c8
 1300 0467 00       		.byte	0
 1301 0468 08       		.uleb128 0x8
 1302 0469 66020000 		.4byte	.LASF84
 1303 046d 06       		.byte	0x6
 1304 046e CA01     		.2byte	0x1ca
 1305 0470 A7030000 		.4byte	0x3a7
 1306 0474 1C       		.byte	0x1c
 1307 0475 07       		.uleb128 0x7
 1308 0476 64626700 		.ascii	"dbg\000"
 1309 047a 06       		.byte	0x6
ARM GAS  /tmp/cc61LjSr.s 			page 45


 1310 047b CE01     		.2byte	0x1ce
 1311 047d F4030000 		.4byte	0x3f4
 1312 0481 2C       		.byte	0x2c
 1313 0482 0F       		.uleb128 0xf
 1314 0483 32010000 		.4byte	.LASF85
 1315 0487 06       		.byte	0x6
 1316 0488 D201     		.2byte	0x1d2
 1317 048a 52010000 		.4byte	0x152
 1318 048e 4004     		.2byte	0x440
 1319 0490 10       		.uleb128 0x10
 1320 0491 746D00   		.ascii	"tm\000"
 1321 0494 06       		.byte	0x6
 1322 0495 D701     		.2byte	0x1d7
 1323 0497 C9070000 		.4byte	0x7c9
 1324 049b A004     		.2byte	0x4a0
 1325 049d 0F       		.uleb128 0xf
 1326 049e 57050000 		.4byte	.LASF86
 1327 04a2 06       		.byte	0x6
 1328 04a3 DD01     		.2byte	0x1dd
 1329 04a5 5B080000 		.4byte	0x85b
 1330 04a9 A804     		.2byte	0x4a8
 1331 04ab 0F       		.uleb128 0xf
 1332 04ac A7020000 		.4byte	.LASF87
 1333 04b0 06       		.byte	0x6
 1334 04b1 E301     		.2byte	0x1e3
 1335 04b3 4E090000 		.4byte	0x94e
 1336 04b7 E004     		.2byte	0x4e0
 1337 04b9 00       		.byte	0
 1338 04ba 03       		.uleb128 0x3
 1339 04bb 04       		.byte	0x4
 1340 04bc 07       		.byte	0x7
 1341 04bd 93040000 		.4byte	.LASF88
 1342 04c1 11       		.uleb128 0x11
 1343 04c2 C3000000 		.4byte	0xc3
 1344 04c6 12       		.uleb128 0x12
 1345 04c7 C3000000 		.4byte	0xc3
 1346 04cb D6040000 		.4byte	0x4d6
 1347 04cf 13       		.uleb128 0x13
 1348 04d0 BA040000 		.4byte	0x4ba
 1349 04d4 01       		.byte	0x1
 1350 04d5 00       		.byte	0
 1351 04d6 14       		.uleb128 0x14
 1352 04d7 88       		.byte	0x88
 1353 04d8 07       		.byte	0x7
 1354 04d9 6602     		.2byte	0x266
 1355 04db 65060000 		.4byte	0x665
 1356 04df 07       		.uleb128 0x7
 1357 04e0 435200   		.ascii	"CR\000"
 1358 04e3 07       		.byte	0x7
 1359 04e4 6802     		.2byte	0x268
 1360 04e6 C1040000 		.4byte	0x4c1
 1361 04ea 00       		.byte	0
 1362 04eb 08       		.uleb128 0x8
 1363 04ec 30020000 		.4byte	.LASF89
 1364 04f0 07       		.byte	0x7
 1365 04f1 6902     		.2byte	0x269
 1366 04f3 C1040000 		.4byte	0x4c1
ARM GAS  /tmp/cc61LjSr.s 			page 46


 1367 04f7 04       		.byte	0x4
 1368 04f8 08       		.uleb128 0x8
 1369 04f9 1F080000 		.4byte	.LASF90
 1370 04fd 07       		.byte	0x7
 1371 04fe 6A02     		.2byte	0x26a
 1372 0500 C1040000 		.4byte	0x4c1
 1373 0504 08       		.byte	0x8
 1374 0505 07       		.uleb128 0x7
 1375 0506 43495200 		.ascii	"CIR\000"
 1376 050a 07       		.byte	0x7
 1377 050b 6B02     		.2byte	0x26b
 1378 050d C1040000 		.4byte	0x4c1
 1379 0511 0C       		.byte	0xc
 1380 0512 08       		.uleb128 0x8
 1381 0513 B8010000 		.4byte	.LASF91
 1382 0517 07       		.byte	0x7
 1383 0518 6C02     		.2byte	0x26c
 1384 051a C1040000 		.4byte	0x4c1
 1385 051e 10       		.byte	0x10
 1386 051f 08       		.uleb128 0x8
 1387 0520 ED060000 		.4byte	.LASF92
 1388 0524 07       		.byte	0x7
 1389 0525 6D02     		.2byte	0x26d
 1390 0527 C1040000 		.4byte	0x4c1
 1391 052b 14       		.byte	0x14
 1392 052c 08       		.uleb128 0x8
 1393 052d 4E030000 		.4byte	.LASF93
 1394 0531 07       		.byte	0x7
 1395 0532 6E02     		.2byte	0x26e
 1396 0534 C1040000 		.4byte	0x4c1
 1397 0538 18       		.byte	0x18
 1398 0539 08       		.uleb128 0x8
 1399 053a 6C050000 		.4byte	.LASF94
 1400 053e 07       		.byte	0x7
 1401 053f 6F02     		.2byte	0x26f
 1402 0541 C3000000 		.4byte	0xc3
 1403 0545 1C       		.byte	0x1c
 1404 0546 08       		.uleb128 0x8
 1405 0547 2E050000 		.4byte	.LASF95
 1406 054b 07       		.byte	0x7
 1407 054c 7002     		.2byte	0x270
 1408 054e C1040000 		.4byte	0x4c1
 1409 0552 20       		.byte	0x20
 1410 0553 08       		.uleb128 0x8
 1411 0554 3F030000 		.4byte	.LASF96
 1412 0558 07       		.byte	0x7
 1413 0559 7102     		.2byte	0x271
 1414 055b C1040000 		.4byte	0x4c1
 1415 055f 24       		.byte	0x24
 1416 0560 08       		.uleb128 0x8
 1417 0561 76050000 		.4byte	.LASF97
 1418 0565 07       		.byte	0x7
 1419 0566 7202     		.2byte	0x272
 1420 0568 C6040000 		.4byte	0x4c6
 1421 056c 28       		.byte	0x28
 1422 056d 08       		.uleb128 0x8
 1423 056e 10080000 		.4byte	.LASF98
ARM GAS  /tmp/cc61LjSr.s 			page 47


 1424 0572 07       		.byte	0x7
 1425 0573 7302     		.2byte	0x273
 1426 0575 C1040000 		.4byte	0x4c1
 1427 0579 30       		.byte	0x30
 1428 057a 08       		.uleb128 0x8
 1429 057b 66070000 		.4byte	.LASF99
 1430 057f 07       		.byte	0x7
 1431 0580 7402     		.2byte	0x274
 1432 0582 C1040000 		.4byte	0x4c1
 1433 0586 34       		.byte	0x34
 1434 0587 08       		.uleb128 0x8
 1435 0588 DB040000 		.4byte	.LASF100
 1436 058c 07       		.byte	0x7
 1437 058d 7502     		.2byte	0x275
 1438 058f C1040000 		.4byte	0x4c1
 1439 0593 38       		.byte	0x38
 1440 0594 08       		.uleb128 0x8
 1441 0595 80050000 		.4byte	.LASF101
 1442 0599 07       		.byte	0x7
 1443 059a 7602     		.2byte	0x276
 1444 059c C3000000 		.4byte	0xc3
 1445 05a0 3C       		.byte	0x3c
 1446 05a1 08       		.uleb128 0x8
 1447 05a2 53070000 		.4byte	.LASF102
 1448 05a6 07       		.byte	0x7
 1449 05a7 7702     		.2byte	0x277
 1450 05a9 C1040000 		.4byte	0x4c1
 1451 05ad 40       		.byte	0x40
 1452 05ae 08       		.uleb128 0x8
 1453 05af 47060000 		.4byte	.LASF103
 1454 05b3 07       		.byte	0x7
 1455 05b4 7802     		.2byte	0x278
 1456 05b6 C1040000 		.4byte	0x4c1
 1457 05ba 44       		.byte	0x44
 1458 05bb 08       		.uleb128 0x8
 1459 05bc 8A050000 		.4byte	.LASF104
 1460 05c0 07       		.byte	0x7
 1461 05c1 7902     		.2byte	0x279
 1462 05c3 C6040000 		.4byte	0x4c6
 1463 05c7 48       		.byte	0x48
 1464 05c8 08       		.uleb128 0x8
 1465 05c9 69010000 		.4byte	.LASF105
 1466 05cd 07       		.byte	0x7
 1467 05ce 7A02     		.2byte	0x27a
 1468 05d0 C1040000 		.4byte	0x4c1
 1469 05d4 50       		.byte	0x50
 1470 05d5 08       		.uleb128 0x8
 1471 05d6 FD040000 		.4byte	.LASF106
 1472 05da 07       		.byte	0x7
 1473 05db 7B02     		.2byte	0x27b
 1474 05dd C1040000 		.4byte	0x4c1
 1475 05e1 54       		.byte	0x54
 1476 05e2 08       		.uleb128 0x8
 1477 05e3 03060000 		.4byte	.LASF107
 1478 05e7 07       		.byte	0x7
 1479 05e8 7C02     		.2byte	0x27c
 1480 05ea C1040000 		.4byte	0x4c1
ARM GAS  /tmp/cc61LjSr.s 			page 48


 1481 05ee 58       		.byte	0x58
 1482 05ef 08       		.uleb128 0x8
 1483 05f0 94050000 		.4byte	.LASF108
 1484 05f4 07       		.byte	0x7
 1485 05f5 7D02     		.2byte	0x27d
 1486 05f7 C3000000 		.4byte	0xc3
 1487 05fb 5C       		.byte	0x5c
 1488 05fc 08       		.uleb128 0x8
 1489 05fd FD010000 		.4byte	.LASF109
 1490 0601 07       		.byte	0x7
 1491 0602 7E02     		.2byte	0x27e
 1492 0604 C1040000 		.4byte	0x4c1
 1493 0608 60       		.byte	0x60
 1494 0609 08       		.uleb128 0x8
 1495 060a 17040000 		.4byte	.LASF110
 1496 060e 07       		.byte	0x7
 1497 060f 7F02     		.2byte	0x27f
 1498 0611 C1040000 		.4byte	0x4c1
 1499 0615 64       		.byte	0x64
 1500 0616 08       		.uleb128 0x8
 1501 0617 7F060000 		.4byte	.LASF111
 1502 061b 07       		.byte	0x7
 1503 061c 8002     		.2byte	0x280
 1504 061e C6040000 		.4byte	0x4c6
 1505 0622 68       		.byte	0x68
 1506 0623 08       		.uleb128 0x8
 1507 0624 E9070000 		.4byte	.LASF112
 1508 0628 07       		.byte	0x7
 1509 0629 8102     		.2byte	0x281
 1510 062b C1040000 		.4byte	0x4c1
 1511 062f 70       		.byte	0x70
 1512 0630 07       		.uleb128 0x7
 1513 0631 43535200 		.ascii	"CSR\000"
 1514 0635 07       		.byte	0x7
 1515 0636 8202     		.2byte	0x282
 1516 0638 C1040000 		.4byte	0x4c1
 1517 063c 74       		.byte	0x74
 1518 063d 08       		.uleb128 0x8
 1519 063e A5050000 		.4byte	.LASF113
 1520 0642 07       		.byte	0x7
 1521 0643 8302     		.2byte	0x283
 1522 0645 C6040000 		.4byte	0x4c6
 1523 0649 78       		.byte	0x78
 1524 064a 08       		.uleb128 0x8
 1525 064b AD070000 		.4byte	.LASF114
 1526 064f 07       		.byte	0x7
 1527 0650 8402     		.2byte	0x284
 1528 0652 C1040000 		.4byte	0x4c1
 1529 0656 80       		.byte	0x80
 1530 0657 08       		.uleb128 0x8
 1531 0658 34030000 		.4byte	.LASF115
 1532 065c 07       		.byte	0x7
 1533 065d 8502     		.2byte	0x285
 1534 065f C1040000 		.4byte	0x4c1
 1535 0663 84       		.byte	0x84
 1536 0664 00       		.byte	0
 1537 0665 15       		.uleb128 0x15
ARM GAS  /tmp/cc61LjSr.s 			page 49


 1538 0666 D7010000 		.4byte	.LASF116
 1539 066a 07       		.byte	0x7
 1540 066b 8702     		.2byte	0x287
 1541 066d D6040000 		.4byte	0x4d6
 1542 0671 04       		.uleb128 0x4
 1543 0672 55020000 		.4byte	.LASF117
 1544 0676 08       		.byte	0x8
 1545 0677 65       		.byte	0x65
 1546 0678 4B030000 		.4byte	0x34b
 1547 067c 04       		.uleb128 0x4
 1548 067d 57040000 		.4byte	.LASF118
 1549 0681 08       		.byte	0x8
 1550 0682 6D       		.byte	0x6d
 1551 0683 CE000000 		.4byte	0xce
 1552 0687 05       		.uleb128 0x5
 1553 0688 6E070000 		.4byte	.LASF119
 1554 068c 04       		.byte	0x4
 1555 068d 08       		.byte	0x8
 1556 068e 89       		.byte	0x89
 1557 068f A0060000 		.4byte	0x6a0
 1558 0693 16       		.uleb128 0x16
 1559 0694 72313300 		.ascii	"r13\000"
 1560 0698 08       		.byte	0x8
 1561 0699 8A       		.byte	0x8a
 1562 069a 1B070000 		.4byte	0x71b
 1563 069e 00       		.byte	0
 1564 069f 00       		.byte	0
 1565 06a0 05       		.uleb128 0x5
 1566 06a1 56000000 		.4byte	.LASF120
 1567 06a5 24       		.byte	0x24
 1568 06a6 09       		.byte	0x9
 1569 06a7 FD       		.byte	0xfd
 1570 06a8 1B070000 		.4byte	0x71b
 1571 06ac 07       		.uleb128 0x7
 1572 06ad 723400   		.ascii	"r4\000"
 1573 06b0 09       		.byte	0x9
 1574 06b1 1001     		.2byte	0x110
 1575 06b3 71060000 		.4byte	0x671
 1576 06b7 00       		.byte	0
 1577 06b8 07       		.uleb128 0x7
 1578 06b9 723500   		.ascii	"r5\000"
 1579 06bc 09       		.byte	0x9
 1580 06bd 1101     		.2byte	0x111
 1581 06bf 71060000 		.4byte	0x671
 1582 06c3 04       		.byte	0x4
 1583 06c4 07       		.uleb128 0x7
 1584 06c5 723600   		.ascii	"r6\000"
 1585 06c8 09       		.byte	0x9
 1586 06c9 1201     		.2byte	0x112
 1587 06cb 71060000 		.4byte	0x671
 1588 06cf 08       		.byte	0x8
 1589 06d0 07       		.uleb128 0x7
 1590 06d1 723700   		.ascii	"r7\000"
 1591 06d4 09       		.byte	0x9
 1592 06d5 1301     		.2byte	0x113
 1593 06d7 71060000 		.4byte	0x671
 1594 06db 0C       		.byte	0xc
ARM GAS  /tmp/cc61LjSr.s 			page 50


 1595 06dc 07       		.uleb128 0x7
 1596 06dd 723800   		.ascii	"r8\000"
 1597 06e0 09       		.byte	0x9
 1598 06e1 1401     		.2byte	0x114
 1599 06e3 71060000 		.4byte	0x671
 1600 06e7 10       		.byte	0x10
 1601 06e8 07       		.uleb128 0x7
 1602 06e9 723900   		.ascii	"r9\000"
 1603 06ec 09       		.byte	0x9
 1604 06ed 1501     		.2byte	0x115
 1605 06ef 71060000 		.4byte	0x671
 1606 06f3 14       		.byte	0x14
 1607 06f4 07       		.uleb128 0x7
 1608 06f5 72313000 		.ascii	"r10\000"
 1609 06f9 09       		.byte	0x9
 1610 06fa 1601     		.2byte	0x116
 1611 06fc 71060000 		.4byte	0x671
 1612 0700 18       		.byte	0x18
 1613 0701 07       		.uleb128 0x7
 1614 0702 72313100 		.ascii	"r11\000"
 1615 0706 09       		.byte	0x9
 1616 0707 1701     		.2byte	0x117
 1617 0709 71060000 		.4byte	0x671
 1618 070d 1C       		.byte	0x1c
 1619 070e 07       		.uleb128 0x7
 1620 070f 6C7200   		.ascii	"lr\000"
 1621 0712 09       		.byte	0x9
 1622 0713 1801     		.2byte	0x118
 1623 0715 71060000 		.4byte	0x671
 1624 0719 20       		.byte	0x20
 1625 071a 00       		.byte	0
 1626 071b 09       		.uleb128 0x9
 1627 071c 04       		.byte	0x4
 1628 071d A0060000 		.4byte	0x6a0
 1629 0721 17       		.uleb128 0x17
 1630 0722 10       		.byte	0x10
 1631 0723 0A       		.byte	0xa
 1632 0724 51       		.byte	0x51
 1633 0725 5A070000 		.4byte	0x75a
 1634 0729 06       		.uleb128 0x6
 1635 072a 27000000 		.4byte	.LASF121
 1636 072e 0A       		.byte	0xa
 1637 072f 55       		.byte	0x55
 1638 0730 47010000 		.4byte	0x147
 1639 0734 00       		.byte	0
 1640 0735 06       		.uleb128 0x6
 1641 0736 10020000 		.4byte	.LASF122
 1642 073a 0A       		.byte	0xa
 1643 073b 59       		.byte	0x59
 1644 073c 6E020000 		.4byte	0x26e
 1645 0740 04       		.byte	0x4
 1646 0741 06       		.uleb128 0x6
 1647 0742 5A080000 		.4byte	.LASF123
 1648 0746 0A       		.byte	0xa
 1649 0747 5D       		.byte	0x5d
 1650 0748 4B030000 		.4byte	0x34b
 1651 074c 08       		.byte	0x8
ARM GAS  /tmp/cc61LjSr.s 			page 51


 1652 074d 06       		.uleb128 0x6
 1653 074e 1A010000 		.4byte	.LASF124
 1654 0752 0A       		.byte	0xa
 1655 0753 61       		.byte	0x61
 1656 0754 A2000000 		.4byte	0xa2
 1657 0758 0C       		.byte	0xc
 1658 0759 00       		.byte	0
 1659 075a 04       		.uleb128 0x4
 1660 075b CC040000 		.4byte	.LASF125
 1661 075f 0A       		.byte	0xa
 1662 0760 62       		.byte	0x62
 1663 0761 21070000 		.4byte	0x721
 1664 0765 18       		.uleb128 0x18
 1665 0766 0804     		.2byte	0x408
 1666 0768 0A       		.byte	0xa
 1667 0769 67       		.byte	0x67
 1668 076a 93070000 		.4byte	0x793
 1669 076e 06       		.uleb128 0x6
 1670 076f 38020000 		.4byte	.LASF126
 1671 0773 0A       		.byte	0xa
 1672 0774 6B       		.byte	0x6b
 1673 0775 2C000000 		.4byte	0x2c
 1674 0779 00       		.byte	0
 1675 077a 06       		.uleb128 0x6
 1676 077b 13000000 		.4byte	.LASF127
 1677 077f 0A       		.byte	0xa
 1678 0780 6F       		.byte	0x6f
 1679 0781 93070000 		.4byte	0x793
 1680 0785 04       		.byte	0x4
 1681 0786 06       		.uleb128 0x6
 1682 0787 0D040000 		.4byte	.LASF128
 1683 078b 0A       		.byte	0xa
 1684 078c 73       		.byte	0x73
 1685 078d 99070000 		.4byte	0x799
 1686 0791 08       		.byte	0x8
 1687 0792 00       		.byte	0
 1688 0793 09       		.uleb128 0x9
 1689 0794 04       		.byte	0x4
 1690 0795 5A070000 		.4byte	0x75a
 1691 0799 12       		.uleb128 0x12
 1692 079a 5A070000 		.4byte	0x75a
 1693 079e A9070000 		.4byte	0x7a9
 1694 07a2 13       		.uleb128 0x13
 1695 07a3 BA040000 		.4byte	0x4ba
 1696 07a7 3F       		.byte	0x3f
 1697 07a8 00       		.byte	0
 1698 07a9 04       		.uleb128 0x4
 1699 07aa 08010000 		.4byte	.LASF129
 1700 07ae 0A       		.byte	0xa
 1701 07af 74       		.byte	0x74
 1702 07b0 65070000 		.4byte	0x765
 1703 07b4 17       		.uleb128 0x17
 1704 07b5 04       		.byte	0x4
 1705 07b6 0B       		.byte	0xb
 1706 07b7 38       		.byte	0x38
 1707 07b8 C9070000 		.4byte	0x7c9
 1708 07bc 06       		.uleb128 0x6
ARM GAS  /tmp/cc61LjSr.s 			page 52


 1709 07bd 4C070000 		.4byte	.LASF130
 1710 07c1 0B       		.byte	0xb
 1711 07c2 3C       		.byte	0x3c
 1712 07c3 D9000000 		.4byte	0xd9
 1713 07c7 00       		.byte	0
 1714 07c8 00       		.byte	0
 1715 07c9 04       		.uleb128 0x4
 1716 07ca 07050000 		.4byte	.LASF131
 1717 07ce 0B       		.byte	0xb
 1718 07cf 3D       		.byte	0x3d
 1719 07d0 B4070000 		.4byte	0x7b4
 1720 07d4 17       		.uleb128 0x17
 1721 07d5 18       		.byte	0x18
 1722 07d6 0B       		.byte	0xb
 1723 07d7 48       		.byte	0x48
 1724 07d8 17080000 		.4byte	0x817
 1725 07dc 06       		.uleb128 0x6
 1726 07dd FF060000 		.4byte	.LASF132
 1727 07e1 0B       		.byte	0xb
 1728 07e2 49       		.byte	0x49
 1729 07e3 D9000000 		.4byte	0xd9
 1730 07e7 00       		.byte	0
 1731 07e8 06       		.uleb128 0x6
 1732 07e9 CB000000 		.4byte	.LASF133
 1733 07ed 0B       		.byte	0xb
 1734 07ee 4A       		.byte	0x4a
 1735 07ef D9000000 		.4byte	0xd9
 1736 07f3 04       		.byte	0x4
 1737 07f4 06       		.uleb128 0x6
 1738 07f5 34070000 		.4byte	.LASF134
 1739 07f9 0B       		.byte	0xb
 1740 07fa 4B       		.byte	0x4b
 1741 07fb D9000000 		.4byte	0xd9
 1742 07ff 08       		.byte	0x8
 1743 0800 16       		.uleb128 0x16
 1744 0801 6E00     		.ascii	"n\000"
 1745 0803 0B       		.byte	0xb
 1746 0804 4C       		.byte	0x4c
 1747 0805 3C010000 		.4byte	0x13c
 1748 0809 0C       		.byte	0xc
 1749 080a 06       		.uleb128 0x6
 1750 080b 47050000 		.4byte	.LASF135
 1751 080f 0B       		.byte	0xb
 1752 0810 4D       		.byte	0x4d
 1753 0811 E4000000 		.4byte	0xe4
 1754 0815 10       		.byte	0x10
 1755 0816 00       		.byte	0
 1756 0817 04       		.uleb128 0x4
 1757 0818 D8000000 		.4byte	.LASF136
 1758 081c 0B       		.byte	0xb
 1759 081d 4E       		.byte	0x4e
 1760 081e D4070000 		.4byte	0x7d4
 1761 0822 17       		.uleb128 0x17
 1762 0823 38       		.byte	0x38
 1763 0824 0C       		.byte	0xc
 1764 0825 38       		.byte	0x38
 1765 0826 5B080000 		.4byte	0x85b
ARM GAS  /tmp/cc61LjSr.s 			page 53


 1766 082a 06       		.uleb128 0x6
 1767 082b FB020000 		.4byte	.LASF137
 1768 082f 0C       		.byte	0xc
 1769 0830 39       		.byte	0x39
 1770 0831 3C010000 		.4byte	0x13c
 1771 0835 00       		.byte	0
 1772 0836 06       		.uleb128 0x6
 1773 0837 B7050000 		.4byte	.LASF138
 1774 083b 0C       		.byte	0xc
 1775 083c 3A       		.byte	0x3a
 1776 083d 3C010000 		.4byte	0x13c
 1777 0841 04       		.byte	0x4
 1778 0842 06       		.uleb128 0x6
 1779 0843 47080000 		.4byte	.LASF139
 1780 0847 0C       		.byte	0xc
 1781 0848 3B       		.byte	0x3b
 1782 0849 17080000 		.4byte	0x817
 1783 084d 08       		.byte	0x8
 1784 084e 06       		.uleb128 0x6
 1785 084f 21040000 		.4byte	.LASF140
 1786 0853 0C       		.byte	0xc
 1787 0854 3D       		.byte	0x3d
 1788 0855 17080000 		.4byte	0x817
 1789 0859 20       		.byte	0x20
 1790 085a 00       		.byte	0
 1791 085b 04       		.uleb128 0x4
 1792 085c 1B030000 		.4byte	.LASF141
 1793 0860 0C       		.byte	0xc
 1794 0861 3F       		.byte	0x3f
 1795 0862 22080000 		.4byte	0x822
 1796 0866 19       		.uleb128 0x19
 1797 0867 04       		.byte	0x4
 1798 0868 06       		.byte	0x6
 1799 0869 FA       		.byte	0xfa
 1800 086a C3080000 		.4byte	0x8c3
 1801 086e 1A       		.uleb128 0x1a
 1802 086f 35000000 		.4byte	.LASF142
 1803 0873 06       		.byte	0x6
 1804 0874 0101     		.2byte	0x101
 1805 0876 1B010000 		.4byte	0x11b
 1806 087a 1A       		.uleb128 0x1a
 1807 087b 29010000 		.4byte	.LASF143
 1808 087f 06       		.byte	0x6
 1809 0880 0801     		.2byte	0x108
 1810 0882 1B010000 		.4byte	0x11b
 1811 0886 1A       		.uleb128 0x1a
 1812 0887 02080000 		.4byte	.LASF144
 1813 088b 06       		.byte	0x6
 1814 088c 0F01     		.2byte	0x10f
 1815 088e 4B030000 		.4byte	0x34b
 1816 0892 1A       		.uleb128 0x1a
 1817 0893 2F000000 		.4byte	.LASF145
 1818 0897 06       		.byte	0x6
 1819 0898 1601     		.2byte	0x116
 1820 089a C3080000 		.4byte	0x8c3
 1821 089e 1A       		.uleb128 0x1a
 1822 089f DC020000 		.4byte	.LASF146
ARM GAS  /tmp/cc61LjSr.s 			page 54


 1823 08a3 06       		.byte	0x6
 1824 08a4 1E01     		.2byte	0x11e
 1825 08a6 EE080000 		.4byte	0x8ee
 1826 08aa 1A       		.uleb128 0x1a
 1827 08ab 92060000 		.4byte	.LASF147
 1828 08af 06       		.byte	0x6
 1829 08b0 2701     		.2byte	0x127
 1830 08b2 25090000 		.4byte	0x925
 1831 08b6 1A       		.uleb128 0x1a
 1832 08b7 1B060000 		.4byte	.LASF148
 1833 08bb 06       		.byte	0x6
 1834 08bc 2F01     		.2byte	0x12f
 1835 08be 26010000 		.4byte	0x126
 1836 08c2 00       		.byte	0
 1837 08c3 09       		.uleb128 0x9
 1838 08c4 04       		.byte	0x4
 1839 08c5 63020000 		.4byte	0x263
 1840 08c9 05       		.uleb128 0x5
 1841 08ca 67060000 		.4byte	.LASF149
 1842 08ce 0C       		.byte	0xc
 1843 08cf 0D       		.byte	0xd
 1844 08d0 34       		.byte	0x34
 1845 08d1 EE080000 		.4byte	0x8ee
 1846 08d5 06       		.uleb128 0x6
 1847 08d6 81040000 		.4byte	.LASF150
 1848 08da 0D       		.byte	0xd
 1849 08db 35       		.byte	0x35
 1850 08dc 98020000 		.4byte	0x298
 1851 08e0 00       		.byte	0
 1852 08e1 06       		.uleb128 0x6
 1853 08e2 E1050000 		.4byte	.LASF151
 1854 08e6 0D       		.byte	0xd
 1855 08e7 37       		.byte	0x37
 1856 08e8 31010000 		.4byte	0x131
 1857 08ec 08       		.byte	0x8
 1858 08ed 00       		.byte	0
 1859 08ee 09       		.uleb128 0x9
 1860 08ef 04       		.byte	0x4
 1861 08f0 C9080000 		.4byte	0x8c9
 1862 08f4 05       		.uleb128 0x5
 1863 08f5 C3070000 		.4byte	.LASF152
 1864 08f9 10       		.byte	0x10
 1865 08fa 0E       		.byte	0xe
 1866 08fb 39       		.byte	0x39
 1867 08fc 25090000 		.4byte	0x925
 1868 0900 06       		.uleb128 0x6
 1869 0901 C9010000 		.4byte	.LASF153
 1870 0905 0E       		.byte	0xe
 1871 0906 3A       		.byte	0x3a
 1872 0907 98020000 		.4byte	0x298
 1873 090b 00       		.byte	0
 1874 090c 06       		.uleb128 0x6
 1875 090d 52080000 		.4byte	.LASF154
 1876 0911 0E       		.byte	0xe
 1877 0912 3C       		.byte	0x3c
 1878 0913 6E020000 		.4byte	0x26e
 1879 0917 08       		.byte	0x8
ARM GAS  /tmp/cc61LjSr.s 			page 55


 1880 0918 06       		.uleb128 0x6
 1881 0919 04070000 		.4byte	.LASF155
 1882 091d 0E       		.byte	0xe
 1883 091e 3E       		.byte	0x3e
 1884 091f 69090000 		.4byte	0x969
 1885 0923 0C       		.byte	0xc
 1886 0924 00       		.byte	0
 1887 0925 09       		.uleb128 0x9
 1888 0926 04       		.byte	0x4
 1889 0927 F4080000 		.4byte	0x8f4
 1890 092b 09       		.uleb128 0x9
 1891 092c 04       		.byte	0x4
 1892 092d 31090000 		.4byte	0x931
 1893 0931 1B       		.uleb128 0x1b
 1894 0932 36090000 		.4byte	0x936
 1895 0936 03       		.uleb128 0x3
 1896 0937 01       		.byte	0x1
 1897 0938 08       		.byte	0x8
 1898 0939 D1060000 		.4byte	.LASF156
 1899 093d 09       		.uleb128 0x9
 1900 093e 04       		.byte	0x4
 1901 093f 7C060000 		.4byte	0x67c
 1902 0943 09       		.uleb128 0x9
 1903 0944 04       		.byte	0x4
 1904 0945 4D030000 		.4byte	0x34d
 1905 0949 11       		.uleb128 0x11
 1906 094a 2B090000 		.4byte	0x92b
 1907 094e 12       		.uleb128 0x12
 1908 094f 7C060000 		.4byte	0x67c
 1909 0953 5E090000 		.4byte	0x95e
 1910 0957 13       		.uleb128 0x13
 1911 0958 BA040000 		.4byte	0x4ba
 1912 095c 1E       		.byte	0x1e
 1913 095d 00       		.byte	0
 1914 095e 04       		.uleb128 0x4
 1915 095f 8F020000 		.4byte	.LASF157
 1916 0963 0E       		.byte	0xe
 1917 0964 34       		.byte	0x34
 1918 0965 F4080000 		.4byte	0x8f4
 1919 0969 09       		.uleb128 0x9
 1920 096a 04       		.byte	0x4
 1921 096b 5E090000 		.4byte	0x95e
 1922 096f 03       		.uleb128 0x3
 1923 0970 01       		.byte	0x1
 1924 0971 02       		.byte	0x2
 1925 0972 C0050000 		.4byte	.LASF158
 1926 0976 17       		.uleb128 0x17
 1927 0977 04       		.byte	0x4
 1928 0978 0F       		.byte	0xf
 1929 0979 E7       		.byte	0xe7
 1930 097a 97090000 		.4byte	0x997
 1931 097e 16       		.uleb128 0x16
 1932 097f 73657400 		.ascii	"set\000"
 1933 0983 0F       		.byte	0xf
 1934 0984 E8       		.byte	0xe8
 1935 0985 AD000000 		.4byte	0xad
 1936 0989 00       		.byte	0
ARM GAS  /tmp/cc61LjSr.s 			page 56


 1937 098a 06       		.uleb128 0x6
 1938 098b C6040000 		.4byte	.LASF159
 1939 098f 0F       		.byte	0xf
 1940 0990 E9       		.byte	0xe9
 1941 0991 AD000000 		.4byte	0xad
 1942 0995 02       		.byte	0x2
 1943 0996 00       		.byte	0
 1944 0997 19       		.uleb128 0x19
 1945 0998 04       		.byte	0x4
 1946 0999 0F       		.byte	0xf
 1947 099a E5       		.byte	0xe5
 1948 099b B2090000 		.4byte	0x9b2
 1949 099f 1C       		.uleb128 0x1c
 1950 09a0 5700     		.ascii	"W\000"
 1951 09a2 0F       		.byte	0xf
 1952 09a3 E6       		.byte	0xe6
 1953 09a4 C3000000 		.4byte	0xc3
 1954 09a8 1C       		.uleb128 0x1c
 1955 09a9 4800     		.ascii	"H\000"
 1956 09ab 0F       		.byte	0xf
 1957 09ac EA       		.byte	0xea
 1958 09ad 76090000 		.4byte	0x976
 1959 09b1 00       		.byte	0
 1960 09b2 17       		.uleb128 0x17
 1961 09b3 2C       		.byte	0x2c
 1962 09b4 0F       		.byte	0xf
 1963 09b5 DD       		.byte	0xdd
 1964 09b6 3F0A0000 		.4byte	0xa3f
 1965 09ba 06       		.uleb128 0x6
 1966 09bb EB000000 		.4byte	.LASF160
 1967 09bf 0F       		.byte	0xf
 1968 09c0 DF       		.byte	0xdf
 1969 09c1 C1040000 		.4byte	0x4c1
 1970 09c5 00       		.byte	0
 1971 09c6 06       		.uleb128 0x6
 1972 09c7 4F000000 		.4byte	.LASF161
 1973 09cb 0F       		.byte	0xf
 1974 09cc E0       		.byte	0xe0
 1975 09cd C1040000 		.4byte	0x4c1
 1976 09d1 04       		.byte	0x4
 1977 09d2 06       		.uleb128 0x6
 1978 09d3 40020000 		.4byte	.LASF162
 1979 09d7 0F       		.byte	0xf
 1980 09d8 E1       		.byte	0xe1
 1981 09d9 C1040000 		.4byte	0x4c1
 1982 09dd 08       		.byte	0x8
 1983 09de 06       		.uleb128 0x6
 1984 09df 23010000 		.4byte	.LASF163
 1985 09e3 0F       		.byte	0xf
 1986 09e4 E2       		.byte	0xe2
 1987 09e5 C1040000 		.4byte	0x4c1
 1988 09e9 0C       		.byte	0xc
 1989 09ea 16       		.uleb128 0x16
 1990 09eb 49445200 		.ascii	"IDR\000"
 1991 09ef 0F       		.byte	0xf
 1992 09f0 E3       		.byte	0xe3
 1993 09f1 C1040000 		.4byte	0x4c1
ARM GAS  /tmp/cc61LjSr.s 			page 57


 1994 09f5 10       		.byte	0x10
 1995 09f6 16       		.uleb128 0x16
 1996 09f7 4F445200 		.ascii	"ODR\000"
 1997 09fb 0F       		.byte	0xf
 1998 09fc E4       		.byte	0xe4
 1999 09fd C1040000 		.4byte	0x4c1
 2000 0a01 14       		.byte	0x14
 2001 0a02 06       		.uleb128 0x6
 2002 0a03 B3010000 		.4byte	.LASF164
 2003 0a07 0F       		.byte	0xf
 2004 0a08 EB       		.byte	0xeb
 2005 0a09 3F0A0000 		.4byte	0xa3f
 2006 0a0d 18       		.byte	0x18
 2007 0a0e 06       		.uleb128 0x6
 2008 0a0f F6020000 		.4byte	.LASF165
 2009 0a13 0F       		.byte	0xf
 2010 0a14 EC       		.byte	0xec
 2011 0a15 C1040000 		.4byte	0x4c1
 2012 0a19 1C       		.byte	0x1c
 2013 0a1a 06       		.uleb128 0x6
 2014 0a1b 52050000 		.4byte	.LASF166
 2015 0a1f 0F       		.byte	0xf
 2016 0a20 ED       		.byte	0xed
 2017 0a21 C1040000 		.4byte	0x4c1
 2018 0a25 20       		.byte	0x20
 2019 0a26 06       		.uleb128 0x6
 2020 0a27 42050000 		.4byte	.LASF167
 2021 0a2b 0F       		.byte	0xf
 2022 0a2c EE       		.byte	0xee
 2023 0a2d C1040000 		.4byte	0x4c1
 2024 0a31 24       		.byte	0x24
 2025 0a32 16       		.uleb128 0x16
 2026 0a33 42525200 		.ascii	"BRR\000"
 2027 0a37 0F       		.byte	0xf
 2028 0a38 EF       		.byte	0xef
 2029 0a39 C1040000 		.4byte	0x4c1
 2030 0a3d 28       		.byte	0x28
 2031 0a3e 00       		.byte	0
 2032 0a3f 11       		.uleb128 0x11
 2033 0a40 97090000 		.4byte	0x997
 2034 0a44 04       		.uleb128 0x4
 2035 0a45 7D020000 		.4byte	.LASF168
 2036 0a49 0F       		.byte	0xf
 2037 0a4a F0       		.byte	0xf0
 2038 0a4b B2090000 		.4byte	0x9b2
 2039 0a4f 17       		.uleb128 0x17
 2040 0a50 1C       		.byte	0x1c
 2041 0a51 0F       		.byte	0xf
 2042 0a52 F5       		.byte	0xf5
 2043 0a53 AE0A0000 		.4byte	0xaae
 2044 0a57 06       		.uleb128 0x6
 2045 0a58 D1010000 		.4byte	.LASF169
 2046 0a5c 0F       		.byte	0xf
 2047 0a5d F7       		.byte	0xf7
 2048 0a5e C3000000 		.4byte	0xc3
 2049 0a62 00       		.byte	0
 2050 0a63 06       		.uleb128 0x6
ARM GAS  /tmp/cc61LjSr.s 			page 58


 2051 0a64 01030000 		.4byte	.LASF170
 2052 0a68 0F       		.byte	0xf
 2053 0a69 F9       		.byte	0xf9
 2054 0a6a C3000000 		.4byte	0xc3
 2055 0a6e 04       		.byte	0x4
 2056 0a6f 06       		.uleb128 0x6
 2057 0a70 EE020000 		.4byte	.LASF171
 2058 0a74 0F       		.byte	0xf
 2059 0a75 FB       		.byte	0xfb
 2060 0a76 C3000000 		.4byte	0xc3
 2061 0a7a 08       		.byte	0x8
 2062 0a7b 06       		.uleb128 0x6
 2063 0a7c FC070000 		.4byte	.LASF172
 2064 0a80 0F       		.byte	0xf
 2065 0a81 FD       		.byte	0xfd
 2066 0a82 C3000000 		.4byte	0xc3
 2067 0a86 0C       		.byte	0xc
 2068 0a87 16       		.uleb128 0x16
 2069 0a88 6F647200 		.ascii	"odr\000"
 2070 0a8c 0F       		.byte	0xf
 2071 0a8d FF       		.byte	0xff
 2072 0a8e C3000000 		.4byte	0xc3
 2073 0a92 10       		.byte	0x10
 2074 0a93 08       		.uleb128 0x8
 2075 0a94 DC050000 		.4byte	.LASF173
 2076 0a98 0F       		.byte	0xf
 2077 0a99 0101     		.2byte	0x101
 2078 0a9b C3000000 		.4byte	0xc3
 2079 0a9f 14       		.byte	0x14
 2080 0aa0 08       		.uleb128 0x8
 2081 0aa1 18050000 		.4byte	.LASF174
 2082 0aa5 0F       		.byte	0xf
 2083 0aa6 0301     		.2byte	0x103
 2084 0aa8 C3000000 		.4byte	0xc3
 2085 0aac 18       		.byte	0x18
 2086 0aad 00       		.byte	0
 2087 0aae 15       		.uleb128 0x15
 2088 0aaf 00000000 		.4byte	.LASF175
 2089 0ab3 0F       		.byte	0xf
 2090 0ab4 0401     		.2byte	0x104
 2091 0ab6 4F0A0000 		.4byte	0xa4f
 2092 0aba 14       		.uleb128 0x14
 2093 0abb FC       		.byte	0xfc
 2094 0abc 0F       		.byte	0xf
 2095 0abd 0D01     		.2byte	0x10d
 2096 0abf 390B0000 		.4byte	0xb39
 2097 0ac3 08       		.uleb128 0x8
 2098 0ac4 14060000 		.4byte	.LASF176
 2099 0ac8 0F       		.byte	0xf
 2100 0ac9 1001     		.2byte	0x110
 2101 0acb AE0A0000 		.4byte	0xaae
 2102 0acf 00       		.byte	0
 2103 0ad0 08       		.uleb128 0x8
 2104 0ad1 97020000 		.4byte	.LASF177
 2105 0ad5 0F       		.byte	0xf
 2106 0ad6 1401     		.2byte	0x114
 2107 0ad8 AE0A0000 		.4byte	0xaae
ARM GAS  /tmp/cc61LjSr.s 			page 59


 2108 0adc 1C       		.byte	0x1c
 2109 0add 08       		.uleb128 0x8
 2110 0ade 18080000 		.4byte	.LASF178
 2111 0ae2 0F       		.byte	0xf
 2112 0ae3 1801     		.2byte	0x118
 2113 0ae5 AE0A0000 		.4byte	0xaae
 2114 0ae9 38       		.byte	0x38
 2115 0aea 08       		.uleb128 0x8
 2116 0aeb 1D050000 		.4byte	.LASF179
 2117 0aef 0F       		.byte	0xf
 2118 0af0 1C01     		.2byte	0x11c
 2119 0af2 AE0A0000 		.4byte	0xaae
 2120 0af6 54       		.byte	0x54
 2121 0af7 08       		.uleb128 0x8
 2122 0af8 F6010000 		.4byte	.LASF180
 2123 0afc 0F       		.byte	0xf
 2124 0afd 2001     		.2byte	0x120
 2125 0aff AE0A0000 		.4byte	0xaae
 2126 0b03 70       		.byte	0x70
 2127 0b04 08       		.uleb128 0x8
 2128 0b05 37080000 		.4byte	.LASF181
 2129 0b09 0F       		.byte	0xf
 2130 0b0a 2401     		.2byte	0x124
 2131 0b0c AE0A0000 		.4byte	0xaae
 2132 0b10 8C       		.byte	0x8c
 2133 0b11 08       		.uleb128 0x8
 2134 0b12 50040000 		.4byte	.LASF182
 2135 0b16 0F       		.byte	0xf
 2136 0b17 2801     		.2byte	0x128
 2137 0b19 AE0A0000 		.4byte	0xaae
 2138 0b1d A8       		.byte	0xa8
 2139 0b1e 08       		.uleb128 0x8
 2140 0b1f D1000000 		.4byte	.LASF183
 2141 0b23 0F       		.byte	0xf
 2142 0b24 2C01     		.2byte	0x12c
 2143 0b26 AE0A0000 		.4byte	0xaae
 2144 0b2a C4       		.byte	0xc4
 2145 0b2b 08       		.uleb128 0x8
 2146 0b2c 4F060000 		.4byte	.LASF184
 2147 0b30 0F       		.byte	0xf
 2148 0b31 3001     		.2byte	0x130
 2149 0b33 AE0A0000 		.4byte	0xaae
 2150 0b37 E0       		.byte	0xe0
 2151 0b38 00       		.byte	0
 2152 0b39 15       		.uleb128 0x15
 2153 0b3a A3070000 		.4byte	.LASF185
 2154 0b3e 0F       		.byte	0xf
 2155 0b3f 3A01     		.2byte	0x13a
 2156 0b41 BA0A0000 		.4byte	0xaba
 2157 0b45 15       		.uleb128 0x15
 2158 0b46 BE000000 		.4byte	.LASF186
 2159 0b4a 0F       		.byte	0xf
 2160 0b4b 3F01     		.2byte	0x13f
 2161 0b4d C3000000 		.4byte	0xc3
 2162 0b51 15       		.uleb128 0x15
 2163 0b52 3E080000 		.4byte	.LASF187
 2164 0b56 0F       		.byte	0xf
ARM GAS  /tmp/cc61LjSr.s 			page 60


 2165 0b57 4401     		.2byte	0x144
 2166 0b59 C3000000 		.4byte	0xc3
 2167 0b5d 15       		.uleb128 0x15
 2168 0b5e 5B070000 		.4byte	.LASF188
 2169 0b62 0F       		.byte	0xf
 2170 0b63 5101     		.2byte	0x151
 2171 0b65 690B0000 		.4byte	0xb69
 2172 0b69 09       		.uleb128 0x9
 2173 0b6a 04       		.byte	0x4
 2174 0b6b 440A0000 		.4byte	0xa44
 2175 0b6f 1D       		.uleb128 0x1d
 2176 0b70 39070000 		.4byte	.LASF202
 2177 0b74 01       		.byte	0x1
 2178 0b75 3D       		.byte	0x3d
 2179 0b76 00000000 		.4byte	.LFB272
 2180 0b7a 42000000 		.4byte	.LFE272-.LFB272
 2181 0b7e 01       		.uleb128 0x1
 2182 0b7f 9C       		.byte	0x9c
 2183 0b80 A10B0000 		.4byte	0xba1
 2184 0b84 1E       		.uleb128 0x1e
 2185 0b85 41060000 		.4byte	.LASF189
 2186 0b89 01       		.byte	0x1
 2187 0b8a 3D       		.byte	0x3d
 2188 0b8b 690B0000 		.4byte	0xb69
 2189 0b8f 02       		.uleb128 0x2
 2190 0b90 91       		.byte	0x91
 2191 0b91 7C       		.sleb128 -4
 2192 0b92 1E       		.uleb128 0x1e
 2193 0b93 DB060000 		.4byte	.LASF190
 2194 0b97 01       		.byte	0x1
 2195 0b98 3D       		.byte	0x3d
 2196 0b99 A10B0000 		.4byte	0xba1
 2197 0b9d 02       		.uleb128 0x2
 2198 0b9e 91       		.byte	0x91
 2199 0b9f 78       		.sleb128 -8
 2200 0ba0 00       		.byte	0
 2201 0ba1 09       		.uleb128 0x9
 2202 0ba2 04       		.byte	0x4
 2203 0ba3 A70B0000 		.4byte	0xba7
 2204 0ba7 1B       		.uleb128 0x1b
 2205 0ba8 AE0A0000 		.4byte	0xaae
 2206 0bac 1F       		.uleb128 0x1f
 2207 0bad DB070000 		.4byte	.LASF191
 2208 0bb1 01       		.byte	0x1
 2209 0bb2 58       		.byte	0x58
 2210 0bb3 00000000 		.4byte	.LFB273
 2211 0bb7 E2000000 		.4byte	.LFE273-.LFB273
 2212 0bbb 01       		.uleb128 0x1
 2213 0bbc 9C       		.byte	0x9c
 2214 0bbd D00B0000 		.4byte	0xbd0
 2215 0bc1 1E       		.uleb128 0x1e
 2216 0bc2 DB060000 		.4byte	.LASF190
 2217 0bc6 01       		.byte	0x1
 2218 0bc7 58       		.byte	0x58
 2219 0bc8 D00B0000 		.4byte	0xbd0
 2220 0bcc 02       		.uleb128 0x2
 2221 0bcd 91       		.byte	0x91
ARM GAS  /tmp/cc61LjSr.s 			page 61


 2222 0bce 74       		.sleb128 -12
 2223 0bcf 00       		.byte	0
 2224 0bd0 09       		.uleb128 0x9
 2225 0bd1 04       		.byte	0x4
 2226 0bd2 D60B0000 		.4byte	0xbd6
 2227 0bd6 1B       		.uleb128 0x1b
 2228 0bd7 390B0000 		.4byte	0xb39
 2229 0bdb 20       		.uleb128 0x20
 2230 0bdc 7E070000 		.4byte	.LASF192
 2231 0be0 01       		.byte	0x1
 2232 0be1 9F       		.byte	0x9f
 2233 0be2 00000000 		.4byte	.LFB274
 2234 0be6 68010000 		.4byte	.LFE274-.LFB274
 2235 0bea 01       		.uleb128 0x1
 2236 0beb 9C       		.byte	0x9c
 2237 0bec AE0C0000 		.4byte	0xcae
 2238 0bf0 1E       		.uleb128 0x1e
 2239 0bf1 8A020000 		.4byte	.LASF193
 2240 0bf5 01       		.byte	0x1
 2241 0bf6 9F       		.byte	0x9f
 2242 0bf7 5D0B0000 		.4byte	0xb5d
 2243 0bfb 02       		.uleb128 0x2
 2244 0bfc 91       		.byte	0x91
 2245 0bfd 54       		.sleb128 -44
 2246 0bfe 1E       		.uleb128 0x1e
 2247 0bff 50020000 		.4byte	.LASF194
 2248 0c03 01       		.byte	0x1
 2249 0c04 A0       		.byte	0xa0
 2250 0c05 450B0000 		.4byte	0xb45
 2251 0c09 02       		.uleb128 0x2
 2252 0c0a 91       		.byte	0x91
 2253 0c0b 50       		.sleb128 -48
 2254 0c0c 1E       		.uleb128 0x1e
 2255 0c0d D6060000 		.4byte	.LASF195
 2256 0c11 01       		.byte	0x1
 2257 0c12 A1       		.byte	0xa1
 2258 0c13 510B0000 		.4byte	0xb51
 2259 0c17 02       		.uleb128 0x2
 2260 0c18 91       		.byte	0x91
 2261 0c19 4C       		.sleb128 -52
 2262 0c1a 21       		.uleb128 0x21
 2263 0c1b D1010000 		.4byte	.LASF169
 2264 0c1f 01       		.byte	0x1
 2265 0c20 A3       		.byte	0xa3
 2266 0c21 C3000000 		.4byte	0xc3
 2267 0c25 02       		.uleb128 0x2
 2268 0c26 91       		.byte	0x91
 2269 0c27 7C       		.sleb128 -4
 2270 0c28 21       		.uleb128 0x21
 2271 0c29 01030000 		.4byte	.LASF170
 2272 0c2d 01       		.byte	0x1
 2273 0c2e A4       		.byte	0xa4
 2274 0c2f C3000000 		.4byte	0xc3
 2275 0c33 02       		.uleb128 0x2
 2276 0c34 91       		.byte	0x91
 2277 0c35 78       		.sleb128 -8
 2278 0c36 21       		.uleb128 0x21
ARM GAS  /tmp/cc61LjSr.s 			page 62


 2279 0c37 EE020000 		.4byte	.LASF171
 2280 0c3b 01       		.byte	0x1
 2281 0c3c A5       		.byte	0xa5
 2282 0c3d C3000000 		.4byte	0xc3
 2283 0c41 02       		.uleb128 0x2
 2284 0c42 91       		.byte	0x91
 2285 0c43 74       		.sleb128 -12
 2286 0c44 21       		.uleb128 0x21
 2287 0c45 FC070000 		.4byte	.LASF172
 2288 0c49 01       		.byte	0x1
 2289 0c4a A6       		.byte	0xa6
 2290 0c4b C3000000 		.4byte	0xc3
 2291 0c4f 02       		.uleb128 0x2
 2292 0c50 91       		.byte	0x91
 2293 0c51 70       		.sleb128 -16
 2294 0c52 21       		.uleb128 0x21
 2295 0c53 CC060000 		.4byte	.LASF196
 2296 0c57 01       		.byte	0x1
 2297 0c58 A7       		.byte	0xa7
 2298 0c59 C3000000 		.4byte	0xc3
 2299 0c5d 02       		.uleb128 0x2
 2300 0c5e 91       		.byte	0x91
 2301 0c5f 68       		.sleb128 -24
 2302 0c60 22       		.uleb128 0x22
 2303 0c61 62697400 		.ascii	"bit\000"
 2304 0c65 01       		.byte	0x1
 2305 0c66 A8       		.byte	0xa8
 2306 0c67 C3000000 		.4byte	0xc3
 2307 0c6b 02       		.uleb128 0x2
 2308 0c6c 91       		.byte	0x91
 2309 0c6d 6C       		.sleb128 -20
 2310 0c6e 23       		.uleb128 0x23
 2311 0c6f 46000000 		.4byte	.LBB2
 2312 0c73 F0000000 		.4byte	.LBE2-.LBB2
 2313 0c77 21       		.uleb128 0x21
 2314 0c78 1F020000 		.4byte	.LASF197
 2315 0c7c 01       		.byte	0x1
 2316 0c7d AB       		.byte	0xab
 2317 0c7e C3000000 		.4byte	0xc3
 2318 0c82 02       		.uleb128 0x2
 2319 0c83 91       		.byte	0x91
 2320 0c84 64       		.sleb128 -28
 2321 0c85 22       		.uleb128 0x22
 2322 0c86 6D3100   		.ascii	"m1\000"
 2323 0c89 01       		.byte	0x1
 2324 0c8a AB       		.byte	0xab
 2325 0c8b C3000000 		.4byte	0xc3
 2326 0c8f 02       		.uleb128 0x2
 2327 0c90 91       		.byte	0x91
 2328 0c91 60       		.sleb128 -32
 2329 0c92 22       		.uleb128 0x22
 2330 0c93 6D3200   		.ascii	"m2\000"
 2331 0c96 01       		.byte	0x1
 2332 0c97 AB       		.byte	0xab
 2333 0c98 C3000000 		.4byte	0xc3
 2334 0c9c 02       		.uleb128 0x2
 2335 0c9d 91       		.byte	0x91
ARM GAS  /tmp/cc61LjSr.s 			page 63


 2336 0c9e 5C       		.sleb128 -36
 2337 0c9f 22       		.uleb128 0x22
 2338 0ca0 6D3400   		.ascii	"m4\000"
 2339 0ca3 01       		.byte	0x1
 2340 0ca4 AB       		.byte	0xab
 2341 0ca5 C3000000 		.4byte	0xc3
 2342 0ca9 02       		.uleb128 0x2
 2343 0caa 91       		.byte	0x91
 2344 0cab 58       		.sleb128 -40
 2345 0cac 00       		.byte	0
 2346 0cad 00       		.byte	0
 2347 0cae 24       		.uleb128 0x24
 2348 0caf 53010000 		.4byte	.LASF198
 2349 0cb3 10       		.byte	0x10
 2350 0cb4 FA06     		.2byte	0x6fa
 2351 0cb6 BA0C0000 		.4byte	0xcba
 2352 0cba 11       		.uleb128 0x11
 2353 0cbb B8000000 		.4byte	0xb8
 2354 0cbf 25       		.uleb128 0x25
 2355 0cc0 636800   		.ascii	"ch\000"
 2356 0cc3 06       		.byte	0x6
 2357 0cc4 0902     		.2byte	0x209
 2358 0cc6 42040000 		.4byte	0x442
 2359 0cca 00       		.byte	0
 2360              		.section	.debug_abbrev,"",%progbits
 2361              	.Ldebug_abbrev0:
 2362 0000 01       		.uleb128 0x1
 2363 0001 11       		.uleb128 0x11
 2364 0002 01       		.byte	0x1
 2365 0003 25       		.uleb128 0x25
 2366 0004 0E       		.uleb128 0xe
 2367 0005 13       		.uleb128 0x13
 2368 0006 0B       		.uleb128 0xb
 2369 0007 03       		.uleb128 0x3
 2370 0008 0E       		.uleb128 0xe
 2371 0009 1B       		.uleb128 0x1b
 2372 000a 0E       		.uleb128 0xe
 2373 000b 55       		.uleb128 0x55
 2374 000c 17       		.uleb128 0x17
 2375 000d 11       		.uleb128 0x11
 2376 000e 01       		.uleb128 0x1
 2377 000f 10       		.uleb128 0x10
 2378 0010 17       		.uleb128 0x17
 2379 0011 00       		.byte	0
 2380 0012 00       		.byte	0
 2381 0013 02       		.uleb128 0x2
 2382 0014 24       		.uleb128 0x24
 2383 0015 00       		.byte	0
 2384 0016 0B       		.uleb128 0xb
 2385 0017 0B       		.uleb128 0xb
 2386 0018 3E       		.uleb128 0x3e
 2387 0019 0B       		.uleb128 0xb
 2388 001a 03       		.uleb128 0x3
 2389 001b 08       		.uleb128 0x8
 2390 001c 00       		.byte	0
 2391 001d 00       		.byte	0
 2392 001e 03       		.uleb128 0x3
ARM GAS  /tmp/cc61LjSr.s 			page 64


 2393 001f 24       		.uleb128 0x24
 2394 0020 00       		.byte	0
 2395 0021 0B       		.uleb128 0xb
 2396 0022 0B       		.uleb128 0xb
 2397 0023 3E       		.uleb128 0x3e
 2398 0024 0B       		.uleb128 0xb
 2399 0025 03       		.uleb128 0x3
 2400 0026 0E       		.uleb128 0xe
 2401 0027 00       		.byte	0
 2402 0028 00       		.byte	0
 2403 0029 04       		.uleb128 0x4
 2404 002a 16       		.uleb128 0x16
 2405 002b 00       		.byte	0
 2406 002c 03       		.uleb128 0x3
 2407 002d 0E       		.uleb128 0xe
 2408 002e 3A       		.uleb128 0x3a
 2409 002f 0B       		.uleb128 0xb
 2410 0030 3B       		.uleb128 0x3b
 2411 0031 0B       		.uleb128 0xb
 2412 0032 49       		.uleb128 0x49
 2413 0033 13       		.uleb128 0x13
 2414 0034 00       		.byte	0
 2415 0035 00       		.byte	0
 2416 0036 05       		.uleb128 0x5
 2417 0037 13       		.uleb128 0x13
 2418 0038 01       		.byte	0x1
 2419 0039 03       		.uleb128 0x3
 2420 003a 0E       		.uleb128 0xe
 2421 003b 0B       		.uleb128 0xb
 2422 003c 0B       		.uleb128 0xb
 2423 003d 3A       		.uleb128 0x3a
 2424 003e 0B       		.uleb128 0xb
 2425 003f 3B       		.uleb128 0x3b
 2426 0040 0B       		.uleb128 0xb
 2427 0041 01       		.uleb128 0x1
 2428 0042 13       		.uleb128 0x13
 2429 0043 00       		.byte	0
 2430 0044 00       		.byte	0
 2431 0045 06       		.uleb128 0x6
 2432 0046 0D       		.uleb128 0xd
 2433 0047 00       		.byte	0
 2434 0048 03       		.uleb128 0x3
 2435 0049 0E       		.uleb128 0xe
 2436 004a 3A       		.uleb128 0x3a
 2437 004b 0B       		.uleb128 0xb
 2438 004c 3B       		.uleb128 0x3b
 2439 004d 0B       		.uleb128 0xb
 2440 004e 49       		.uleb128 0x49
 2441 004f 13       		.uleb128 0x13
 2442 0050 38       		.uleb128 0x38
 2443 0051 0B       		.uleb128 0xb
 2444 0052 00       		.byte	0
 2445 0053 00       		.byte	0
 2446 0054 07       		.uleb128 0x7
 2447 0055 0D       		.uleb128 0xd
 2448 0056 00       		.byte	0
 2449 0057 03       		.uleb128 0x3
ARM GAS  /tmp/cc61LjSr.s 			page 65


 2450 0058 08       		.uleb128 0x8
 2451 0059 3A       		.uleb128 0x3a
 2452 005a 0B       		.uleb128 0xb
 2453 005b 3B       		.uleb128 0x3b
 2454 005c 05       		.uleb128 0x5
 2455 005d 49       		.uleb128 0x49
 2456 005e 13       		.uleb128 0x13
 2457 005f 38       		.uleb128 0x38
 2458 0060 0B       		.uleb128 0xb
 2459 0061 00       		.byte	0
 2460 0062 00       		.byte	0
 2461 0063 08       		.uleb128 0x8
 2462 0064 0D       		.uleb128 0xd
 2463 0065 00       		.byte	0
 2464 0066 03       		.uleb128 0x3
 2465 0067 0E       		.uleb128 0xe
 2466 0068 3A       		.uleb128 0x3a
 2467 0069 0B       		.uleb128 0xb
 2468 006a 3B       		.uleb128 0x3b
 2469 006b 05       		.uleb128 0x5
 2470 006c 49       		.uleb128 0x49
 2471 006d 13       		.uleb128 0x13
 2472 006e 38       		.uleb128 0x38
 2473 006f 0B       		.uleb128 0xb
 2474 0070 00       		.byte	0
 2475 0071 00       		.byte	0
 2476 0072 09       		.uleb128 0x9
 2477 0073 0F       		.uleb128 0xf
 2478 0074 00       		.byte	0
 2479 0075 0B       		.uleb128 0xb
 2480 0076 0B       		.uleb128 0xb
 2481 0077 49       		.uleb128 0x49
 2482 0078 13       		.uleb128 0x13
 2483 0079 00       		.byte	0
 2484 007a 00       		.byte	0
 2485 007b 0A       		.uleb128 0xa
 2486 007c 13       		.uleb128 0x13
 2487 007d 01       		.byte	0x1
 2488 007e 03       		.uleb128 0x3
 2489 007f 0E       		.uleb128 0xe
 2490 0080 0B       		.uleb128 0xb
 2491 0081 0B       		.uleb128 0xb
 2492 0082 3A       		.uleb128 0x3a
 2493 0083 0B       		.uleb128 0xb
 2494 0084 3B       		.uleb128 0x3b
 2495 0085 05       		.uleb128 0x5
 2496 0086 01       		.uleb128 0x1
 2497 0087 13       		.uleb128 0x13
 2498 0088 00       		.byte	0
 2499 0089 00       		.byte	0
 2500 008a 0B       		.uleb128 0xb
 2501 008b 15       		.uleb128 0x15
 2502 008c 01       		.byte	0x1
 2503 008d 27       		.uleb128 0x27
 2504 008e 19       		.uleb128 0x19
 2505 008f 01       		.uleb128 0x1
 2506 0090 13       		.uleb128 0x13
ARM GAS  /tmp/cc61LjSr.s 			page 66


 2507 0091 00       		.byte	0
 2508 0092 00       		.byte	0
 2509 0093 0C       		.uleb128 0xc
 2510 0094 05       		.uleb128 0x5
 2511 0095 00       		.byte	0
 2512 0096 49       		.uleb128 0x49
 2513 0097 13       		.uleb128 0x13
 2514 0098 00       		.byte	0
 2515 0099 00       		.byte	0
 2516 009a 0D       		.uleb128 0xd
 2517 009b 0F       		.uleb128 0xf
 2518 009c 00       		.byte	0
 2519 009d 0B       		.uleb128 0xb
 2520 009e 0B       		.uleb128 0xb
 2521 009f 00       		.byte	0
 2522 00a0 00       		.byte	0
 2523 00a1 0E       		.uleb128 0xe
 2524 00a2 13       		.uleb128 0x13
 2525 00a3 01       		.byte	0x1
 2526 00a4 03       		.uleb128 0x3
 2527 00a5 0E       		.uleb128 0xe
 2528 00a6 0B       		.uleb128 0xb
 2529 00a7 05       		.uleb128 0x5
 2530 00a8 3A       		.uleb128 0x3a
 2531 00a9 0B       		.uleb128 0xb
 2532 00aa 3B       		.uleb128 0x3b
 2533 00ab 05       		.uleb128 0x5
 2534 00ac 01       		.uleb128 0x1
 2535 00ad 13       		.uleb128 0x13
 2536 00ae 00       		.byte	0
 2537 00af 00       		.byte	0
 2538 00b0 0F       		.uleb128 0xf
 2539 00b1 0D       		.uleb128 0xd
 2540 00b2 00       		.byte	0
 2541 00b3 03       		.uleb128 0x3
 2542 00b4 0E       		.uleb128 0xe
 2543 00b5 3A       		.uleb128 0x3a
 2544 00b6 0B       		.uleb128 0xb
 2545 00b7 3B       		.uleb128 0x3b
 2546 00b8 05       		.uleb128 0x5
 2547 00b9 49       		.uleb128 0x49
 2548 00ba 13       		.uleb128 0x13
 2549 00bb 38       		.uleb128 0x38
 2550 00bc 05       		.uleb128 0x5
 2551 00bd 00       		.byte	0
 2552 00be 00       		.byte	0
 2553 00bf 10       		.uleb128 0x10
 2554 00c0 0D       		.uleb128 0xd
 2555 00c1 00       		.byte	0
 2556 00c2 03       		.uleb128 0x3
 2557 00c3 08       		.uleb128 0x8
 2558 00c4 3A       		.uleb128 0x3a
 2559 00c5 0B       		.uleb128 0xb
 2560 00c6 3B       		.uleb128 0x3b
 2561 00c7 05       		.uleb128 0x5
 2562 00c8 49       		.uleb128 0x49
 2563 00c9 13       		.uleb128 0x13
ARM GAS  /tmp/cc61LjSr.s 			page 67


 2564 00ca 38       		.uleb128 0x38
 2565 00cb 05       		.uleb128 0x5
 2566 00cc 00       		.byte	0
 2567 00cd 00       		.byte	0
 2568 00ce 11       		.uleb128 0x11
 2569 00cf 35       		.uleb128 0x35
 2570 00d0 00       		.byte	0
 2571 00d1 49       		.uleb128 0x49
 2572 00d2 13       		.uleb128 0x13
 2573 00d3 00       		.byte	0
 2574 00d4 00       		.byte	0
 2575 00d5 12       		.uleb128 0x12
 2576 00d6 01       		.uleb128 0x1
 2577 00d7 01       		.byte	0x1
 2578 00d8 49       		.uleb128 0x49
 2579 00d9 13       		.uleb128 0x13
 2580 00da 01       		.uleb128 0x1
 2581 00db 13       		.uleb128 0x13
 2582 00dc 00       		.byte	0
 2583 00dd 00       		.byte	0
 2584 00de 13       		.uleb128 0x13
 2585 00df 21       		.uleb128 0x21
 2586 00e0 00       		.byte	0
 2587 00e1 49       		.uleb128 0x49
 2588 00e2 13       		.uleb128 0x13
 2589 00e3 2F       		.uleb128 0x2f
 2590 00e4 0B       		.uleb128 0xb
 2591 00e5 00       		.byte	0
 2592 00e6 00       		.byte	0
 2593 00e7 14       		.uleb128 0x14
 2594 00e8 13       		.uleb128 0x13
 2595 00e9 01       		.byte	0x1
 2596 00ea 0B       		.uleb128 0xb
 2597 00eb 0B       		.uleb128 0xb
 2598 00ec 3A       		.uleb128 0x3a
 2599 00ed 0B       		.uleb128 0xb
 2600 00ee 3B       		.uleb128 0x3b
 2601 00ef 05       		.uleb128 0x5
 2602 00f0 01       		.uleb128 0x1
 2603 00f1 13       		.uleb128 0x13
 2604 00f2 00       		.byte	0
 2605 00f3 00       		.byte	0
 2606 00f4 15       		.uleb128 0x15
 2607 00f5 16       		.uleb128 0x16
 2608 00f6 00       		.byte	0
 2609 00f7 03       		.uleb128 0x3
 2610 00f8 0E       		.uleb128 0xe
 2611 00f9 3A       		.uleb128 0x3a
 2612 00fa 0B       		.uleb128 0xb
 2613 00fb 3B       		.uleb128 0x3b
 2614 00fc 05       		.uleb128 0x5
 2615 00fd 49       		.uleb128 0x49
 2616 00fe 13       		.uleb128 0x13
 2617 00ff 00       		.byte	0
 2618 0100 00       		.byte	0
 2619 0101 16       		.uleb128 0x16
 2620 0102 0D       		.uleb128 0xd
ARM GAS  /tmp/cc61LjSr.s 			page 68


 2621 0103 00       		.byte	0
 2622 0104 03       		.uleb128 0x3
 2623 0105 08       		.uleb128 0x8
 2624 0106 3A       		.uleb128 0x3a
 2625 0107 0B       		.uleb128 0xb
 2626 0108 3B       		.uleb128 0x3b
 2627 0109 0B       		.uleb128 0xb
 2628 010a 49       		.uleb128 0x49
 2629 010b 13       		.uleb128 0x13
 2630 010c 38       		.uleb128 0x38
 2631 010d 0B       		.uleb128 0xb
 2632 010e 00       		.byte	0
 2633 010f 00       		.byte	0
 2634 0110 17       		.uleb128 0x17
 2635 0111 13       		.uleb128 0x13
 2636 0112 01       		.byte	0x1
 2637 0113 0B       		.uleb128 0xb
 2638 0114 0B       		.uleb128 0xb
 2639 0115 3A       		.uleb128 0x3a
 2640 0116 0B       		.uleb128 0xb
 2641 0117 3B       		.uleb128 0x3b
 2642 0118 0B       		.uleb128 0xb
 2643 0119 01       		.uleb128 0x1
 2644 011a 13       		.uleb128 0x13
 2645 011b 00       		.byte	0
 2646 011c 00       		.byte	0
 2647 011d 18       		.uleb128 0x18
 2648 011e 13       		.uleb128 0x13
 2649 011f 01       		.byte	0x1
 2650 0120 0B       		.uleb128 0xb
 2651 0121 05       		.uleb128 0x5
 2652 0122 3A       		.uleb128 0x3a
 2653 0123 0B       		.uleb128 0xb
 2654 0124 3B       		.uleb128 0x3b
 2655 0125 0B       		.uleb128 0xb
 2656 0126 01       		.uleb128 0x1
 2657 0127 13       		.uleb128 0x13
 2658 0128 00       		.byte	0
 2659 0129 00       		.byte	0
 2660 012a 19       		.uleb128 0x19
 2661 012b 17       		.uleb128 0x17
 2662 012c 01       		.byte	0x1
 2663 012d 0B       		.uleb128 0xb
 2664 012e 0B       		.uleb128 0xb
 2665 012f 3A       		.uleb128 0x3a
 2666 0130 0B       		.uleb128 0xb
 2667 0131 3B       		.uleb128 0x3b
 2668 0132 0B       		.uleb128 0xb
 2669 0133 01       		.uleb128 0x1
 2670 0134 13       		.uleb128 0x13
 2671 0135 00       		.byte	0
 2672 0136 00       		.byte	0
 2673 0137 1A       		.uleb128 0x1a
 2674 0138 0D       		.uleb128 0xd
 2675 0139 00       		.byte	0
 2676 013a 03       		.uleb128 0x3
 2677 013b 0E       		.uleb128 0xe
ARM GAS  /tmp/cc61LjSr.s 			page 69


 2678 013c 3A       		.uleb128 0x3a
 2679 013d 0B       		.uleb128 0xb
 2680 013e 3B       		.uleb128 0x3b
 2681 013f 05       		.uleb128 0x5
 2682 0140 49       		.uleb128 0x49
 2683 0141 13       		.uleb128 0x13
 2684 0142 00       		.byte	0
 2685 0143 00       		.byte	0
 2686 0144 1B       		.uleb128 0x1b
 2687 0145 26       		.uleb128 0x26
 2688 0146 00       		.byte	0
 2689 0147 49       		.uleb128 0x49
 2690 0148 13       		.uleb128 0x13
 2691 0149 00       		.byte	0
 2692 014a 00       		.byte	0
 2693 014b 1C       		.uleb128 0x1c
 2694 014c 0D       		.uleb128 0xd
 2695 014d 00       		.byte	0
 2696 014e 03       		.uleb128 0x3
 2697 014f 08       		.uleb128 0x8
 2698 0150 3A       		.uleb128 0x3a
 2699 0151 0B       		.uleb128 0xb
 2700 0152 3B       		.uleb128 0x3b
 2701 0153 0B       		.uleb128 0xb
 2702 0154 49       		.uleb128 0x49
 2703 0155 13       		.uleb128 0x13
 2704 0156 00       		.byte	0
 2705 0157 00       		.byte	0
 2706 0158 1D       		.uleb128 0x1d
 2707 0159 2E       		.uleb128 0x2e
 2708 015a 01       		.byte	0x1
 2709 015b 03       		.uleb128 0x3
 2710 015c 0E       		.uleb128 0xe
 2711 015d 3A       		.uleb128 0x3a
 2712 015e 0B       		.uleb128 0xb
 2713 015f 3B       		.uleb128 0x3b
 2714 0160 0B       		.uleb128 0xb
 2715 0161 27       		.uleb128 0x27
 2716 0162 19       		.uleb128 0x19
 2717 0163 11       		.uleb128 0x11
 2718 0164 01       		.uleb128 0x1
 2719 0165 12       		.uleb128 0x12
 2720 0166 06       		.uleb128 0x6
 2721 0167 40       		.uleb128 0x40
 2722 0168 18       		.uleb128 0x18
 2723 0169 9742     		.uleb128 0x2117
 2724 016b 19       		.uleb128 0x19
 2725 016c 01       		.uleb128 0x1
 2726 016d 13       		.uleb128 0x13
 2727 016e 00       		.byte	0
 2728 016f 00       		.byte	0
 2729 0170 1E       		.uleb128 0x1e
 2730 0171 05       		.uleb128 0x5
 2731 0172 00       		.byte	0
 2732 0173 03       		.uleb128 0x3
 2733 0174 0E       		.uleb128 0xe
 2734 0175 3A       		.uleb128 0x3a
ARM GAS  /tmp/cc61LjSr.s 			page 70


 2735 0176 0B       		.uleb128 0xb
 2736 0177 3B       		.uleb128 0x3b
 2737 0178 0B       		.uleb128 0xb
 2738 0179 49       		.uleb128 0x49
 2739 017a 13       		.uleb128 0x13
 2740 017b 02       		.uleb128 0x2
 2741 017c 18       		.uleb128 0x18
 2742 017d 00       		.byte	0
 2743 017e 00       		.byte	0
 2744 017f 1F       		.uleb128 0x1f
 2745 0180 2E       		.uleb128 0x2e
 2746 0181 01       		.byte	0x1
 2747 0182 3F       		.uleb128 0x3f
 2748 0183 19       		.uleb128 0x19
 2749 0184 03       		.uleb128 0x3
 2750 0185 0E       		.uleb128 0xe
 2751 0186 3A       		.uleb128 0x3a
 2752 0187 0B       		.uleb128 0xb
 2753 0188 3B       		.uleb128 0x3b
 2754 0189 0B       		.uleb128 0xb
 2755 018a 27       		.uleb128 0x27
 2756 018b 19       		.uleb128 0x19
 2757 018c 11       		.uleb128 0x11
 2758 018d 01       		.uleb128 0x1
 2759 018e 12       		.uleb128 0x12
 2760 018f 06       		.uleb128 0x6
 2761 0190 40       		.uleb128 0x40
 2762 0191 18       		.uleb128 0x18
 2763 0192 9642     		.uleb128 0x2116
 2764 0194 19       		.uleb128 0x19
 2765 0195 01       		.uleb128 0x1
 2766 0196 13       		.uleb128 0x13
 2767 0197 00       		.byte	0
 2768 0198 00       		.byte	0
 2769 0199 20       		.uleb128 0x20
 2770 019a 2E       		.uleb128 0x2e
 2771 019b 01       		.byte	0x1
 2772 019c 3F       		.uleb128 0x3f
 2773 019d 19       		.uleb128 0x19
 2774 019e 03       		.uleb128 0x3
 2775 019f 0E       		.uleb128 0xe
 2776 01a0 3A       		.uleb128 0x3a
 2777 01a1 0B       		.uleb128 0xb
 2778 01a2 3B       		.uleb128 0x3b
 2779 01a3 0B       		.uleb128 0xb
 2780 01a4 27       		.uleb128 0x27
 2781 01a5 19       		.uleb128 0x19
 2782 01a6 11       		.uleb128 0x11
 2783 01a7 01       		.uleb128 0x1
 2784 01a8 12       		.uleb128 0x12
 2785 01a9 06       		.uleb128 0x6
 2786 01aa 40       		.uleb128 0x40
 2787 01ab 18       		.uleb128 0x18
 2788 01ac 9742     		.uleb128 0x2117
 2789 01ae 19       		.uleb128 0x19
 2790 01af 01       		.uleb128 0x1
 2791 01b0 13       		.uleb128 0x13
ARM GAS  /tmp/cc61LjSr.s 			page 71


 2792 01b1 00       		.byte	0
 2793 01b2 00       		.byte	0
 2794 01b3 21       		.uleb128 0x21
 2795 01b4 34       		.uleb128 0x34
 2796 01b5 00       		.byte	0
 2797 01b6 03       		.uleb128 0x3
 2798 01b7 0E       		.uleb128 0xe
 2799 01b8 3A       		.uleb128 0x3a
 2800 01b9 0B       		.uleb128 0xb
 2801 01ba 3B       		.uleb128 0x3b
 2802 01bb 0B       		.uleb128 0xb
 2803 01bc 49       		.uleb128 0x49
 2804 01bd 13       		.uleb128 0x13
 2805 01be 02       		.uleb128 0x2
 2806 01bf 18       		.uleb128 0x18
 2807 01c0 00       		.byte	0
 2808 01c1 00       		.byte	0
 2809 01c2 22       		.uleb128 0x22
 2810 01c3 34       		.uleb128 0x34
 2811 01c4 00       		.byte	0
 2812 01c5 03       		.uleb128 0x3
 2813 01c6 08       		.uleb128 0x8
 2814 01c7 3A       		.uleb128 0x3a
 2815 01c8 0B       		.uleb128 0xb
 2816 01c9 3B       		.uleb128 0x3b
 2817 01ca 0B       		.uleb128 0xb
 2818 01cb 49       		.uleb128 0x49
 2819 01cc 13       		.uleb128 0x13
 2820 01cd 02       		.uleb128 0x2
 2821 01ce 18       		.uleb128 0x18
 2822 01cf 00       		.byte	0
 2823 01d0 00       		.byte	0
 2824 01d1 23       		.uleb128 0x23
 2825 01d2 0B       		.uleb128 0xb
 2826 01d3 01       		.byte	0x1
 2827 01d4 11       		.uleb128 0x11
 2828 01d5 01       		.uleb128 0x1
 2829 01d6 12       		.uleb128 0x12
 2830 01d7 06       		.uleb128 0x6
 2831 01d8 00       		.byte	0
 2832 01d9 00       		.byte	0
 2833 01da 24       		.uleb128 0x24
 2834 01db 34       		.uleb128 0x34
 2835 01dc 00       		.byte	0
 2836 01dd 03       		.uleb128 0x3
 2837 01de 0E       		.uleb128 0xe
 2838 01df 3A       		.uleb128 0x3a
 2839 01e0 0B       		.uleb128 0xb
 2840 01e1 3B       		.uleb128 0x3b
 2841 01e2 05       		.uleb128 0x5
 2842 01e3 49       		.uleb128 0x49
 2843 01e4 13       		.uleb128 0x13
 2844 01e5 3F       		.uleb128 0x3f
 2845 01e6 19       		.uleb128 0x19
 2846 01e7 3C       		.uleb128 0x3c
 2847 01e8 19       		.uleb128 0x19
 2848 01e9 00       		.byte	0
ARM GAS  /tmp/cc61LjSr.s 			page 72


 2849 01ea 00       		.byte	0
 2850 01eb 25       		.uleb128 0x25
 2851 01ec 34       		.uleb128 0x34
 2852 01ed 00       		.byte	0
 2853 01ee 03       		.uleb128 0x3
 2854 01ef 08       		.uleb128 0x8
 2855 01f0 3A       		.uleb128 0x3a
 2856 01f1 0B       		.uleb128 0xb
 2857 01f2 3B       		.uleb128 0x3b
 2858 01f3 05       		.uleb128 0x5
 2859 01f4 49       		.uleb128 0x49
 2860 01f5 13       		.uleb128 0x13
 2861 01f6 3F       		.uleb128 0x3f
 2862 01f7 19       		.uleb128 0x19
 2863 01f8 3C       		.uleb128 0x3c
 2864 01f9 19       		.uleb128 0x19
 2865 01fa 00       		.byte	0
 2866 01fb 00       		.byte	0
 2867 01fc 00       		.byte	0
 2868              		.section	.debug_aranges,"",%progbits
 2869 0000 2C000000 		.4byte	0x2c
 2870 0004 0200     		.2byte	0x2
 2871 0006 00000000 		.4byte	.Ldebug_info0
 2872 000a 04       		.byte	0x4
 2873 000b 00       		.byte	0
 2874 000c 0000     		.2byte	0
 2875 000e 0000     		.2byte	0
 2876 0010 00000000 		.4byte	.LFB272
 2877 0014 42000000 		.4byte	.LFE272-.LFB272
 2878 0018 00000000 		.4byte	.LFB273
 2879 001c E2000000 		.4byte	.LFE273-.LFB273
 2880 0020 00000000 		.4byte	.LFB274
 2881 0024 68010000 		.4byte	.LFE274-.LFB274
 2882 0028 00000000 		.4byte	0
 2883 002c 00000000 		.4byte	0
 2884              		.section	.debug_ranges,"",%progbits
 2885              	.Ldebug_ranges0:
 2886 0000 00000000 		.4byte	.LFB272
 2887 0004 42000000 		.4byte	.LFE272
 2888 0008 00000000 		.4byte	.LFB273
 2889 000c E2000000 		.4byte	.LFE273
 2890 0010 00000000 		.4byte	.LFB274
 2891 0014 68010000 		.4byte	.LFE274
 2892 0018 00000000 		.4byte	0
 2893 001c 00000000 		.4byte	0
 2894              		.section	.debug_line,"",%progbits
 2895              	.Ldebug_line0:
 2896 0000 92020000 		.section	.debug_str,"MS",%progbits,1
 2896      02002202 
 2896      00000201 
 2896      FB0E0D00 
 2896      01010101 
 2897              	.LASF175:
 2898 0000 73746D33 		.ascii	"stm32_gpio_setup_t\000"
 2898      325F6770 
 2898      696F5F73 
 2898      65747570 
ARM GAS  /tmp/cc61LjSr.s 			page 73


 2898      5F7400
 2899              	.LASF127:
 2900 0013 74625F70 		.ascii	"tb_ptr\000"
 2900      747200
 2901              	.LASF56:
 2902 001a 72656164 		.ascii	"ready_list_t\000"
 2902      795F6C69 
 2902      73745F74 
 2902      00
 2903              	.LASF121:
 2904 0027 73655F74 		.ascii	"se_time\000"
 2904      696D6500 
 2905              	.LASF145:
 2906 002f 77747472 		.ascii	"wttrp\000"
 2906      7000
 2907              	.LASF142:
 2908 0035 7264796D 		.ascii	"rdymsg\000"
 2908      736700
 2909              	.LASF18:
 2910 003c 75696E74 		.ascii	"uint64_t\000"
 2910      36345F74 
 2910      00
 2911              	.LASF4:
 2912 0045 5F5F7569 		.ascii	"__uint8_t\000"
 2912      6E74385F 
 2912      7400
 2913              	.LASF161:
 2914 004f 4F545950 		.ascii	"OTYPER\000"
 2914      455200
 2915              	.LASF120:
 2916 0056 706F7274 		.ascii	"port_intctx\000"
 2916      5F696E74 
 2916      63747800 
 2917              	.LASF55:
 2918 0062 63685F74 		.ascii	"ch_threads_queue\000"
 2918      68726561 
 2918      64735F71 
 2918      75657565 
 2918      00
 2919              	.LASF75:
 2920 0073 73797374 		.ascii	"system_debug_t\000"
 2920      656D5F64 
 2920      65627567 
 2920      5F7400
 2921              	.LASF200:
 2922 0082 6C69622F 		.ascii	"lib/ChibiOS_16.1.4//os/hal/ports/STM32/LLD/GPIOv2/p"
 2922      43686962 
 2922      694F535F 
 2922      31362E31 
 2922      2E342F2F 
 2923 00b5 616C5F6C 		.ascii	"al_lld.c\000"
 2923      6C642E63 
 2923      00
 2924              	.LASF186:
 2925 00be 696F706F 		.ascii	"ioportmask_t\000"
 2925      72746D61 
 2925      736B5F74 
ARM GAS  /tmp/cc61LjSr.s 			page 74


 2925      00
 2926              	.LASF133:
 2927 00cb 776F7273 		.ascii	"worst\000"
 2927      7400
 2928              	.LASF183:
 2929 00d1 50484461 		.ascii	"PHData\000"
 2929      746100
 2930              	.LASF136:
 2931 00d8 74696D65 		.ascii	"time_measurement_t\000"
 2931      5F6D6561 
 2931      73757265 
 2931      6D656E74 
 2931      5F7400
 2932              	.LASF160:
 2933 00eb 4D4F4445 		.ascii	"MODER\000"
 2933      5200
 2934              	.LASF13:
 2935 00f1 6C6F6E67 		.ascii	"long long unsigned int\000"
 2935      206C6F6E 
 2935      6720756E 
 2935      7369676E 
 2935      65642069 
 2936              	.LASF129:
 2937 0108 63685F74 		.ascii	"ch_trace_buffer_t\000"
 2937      72616365 
 2937      5F627566 
 2937      6665725F 
 2937      7400
 2938              	.LASF124:
 2939 011a 73655F73 		.ascii	"se_state\000"
 2939      74617465 
 2939      00
 2940              	.LASF163:
 2941 0123 50555044 		.ascii	"PUPDR\000"
 2941      5200
 2942              	.LASF143:
 2943 0129 65786974 		.ascii	"exitcode\000"
 2943      636F6465 
 2943      00
 2944              	.LASF85:
 2945 0132 6D61696E 		.ascii	"mainthread\000"
 2945      74687265 
 2945      616400
 2946              	.LASF72:
 2947 013d 76697274 		.ascii	"virtual_timers_list_t\000"
 2947      75616C5F 
 2947      74696D65 
 2947      72735F6C 
 2947      6973745F 
 2948              	.LASF198:
 2949 0153 49544D5F 		.ascii	"ITM_RxBuffer\000"
 2949      52784275 
 2949      66666572 
 2949      00
 2950              	.LASF20:
 2951 0160 72747469 		.ascii	"rttime_t\000"
 2951      6D655F74 
ARM GAS  /tmp/cc61LjSr.s 			page 75


 2951      00
 2952              	.LASF105:
 2953 0169 41484231 		.ascii	"AHB1LPENR\000"
 2953      4C50454E 
 2953      5200
 2954              	.LASF33:
 2955 0173 705F7072 		.ascii	"p_prio\000"
 2955      696F00
 2956              	.LASF11:
 2957 017a 6C6F6E67 		.ascii	"long long int\000"
 2957      206C6F6E 
 2957      6720696E 
 2957      7400
 2958              	.LASF1:
 2959 0188 7369676E 		.ascii	"signed char\000"
 2959      65642063 
 2959      68617200 
 2960              	.LASF201:
 2961 0194 2F686F6D 		.ascii	"/home/jerker/git/AutoTux/stm32\000"
 2961      652F6A65 
 2961      726B6572 
 2961      2F676974 
 2961      2F417574 
 2962              	.LASF164:
 2963 01b3 42535252 		.ascii	"BSRR\000"
 2963      00
 2964              	.LASF91:
 2965 01b8 41484231 		.ascii	"AHB1RSTR\000"
 2965      52535452 
 2965      00
 2966              	.LASF48:
 2967 01c1 705F6D70 		.ascii	"p_mpool\000"
 2967      6F6F6C00 
 2968              	.LASF153:
 2969 01c9 6D5F7175 		.ascii	"m_queue\000"
 2969      65756500 
 2970              	.LASF169:
 2971 01d1 6D6F6465 		.ascii	"moder\000"
 2971      7200
 2972              	.LASF116:
 2973 01d7 5243435F 		.ascii	"RCC_TypeDef\000"
 2973      54797065 
 2973      44656600 
 2974              	.LASF82:
 2975 01e3 63685F73 		.ascii	"ch_system\000"
 2975      79737465 
 2975      6D00
 2976              	.LASF8:
 2977 01ed 6C6F6E67 		.ascii	"long int\000"
 2977      20696E74 
 2977      00
 2978              	.LASF180:
 2979 01f6 50454461 		.ascii	"PEData\000"
 2979      746100
 2980              	.LASF109:
 2981 01fd 41504231 		.ascii	"APB1LPENR\000"
 2981      4C50454E 
ARM GAS  /tmp/cc61LjSr.s 			page 76


 2981      5200
 2982              	.LASF22:
 2983 0207 74737461 		.ascii	"tstate_t\000"
 2983      74655F74 
 2983      00
 2984              	.LASF122:
 2985 0210 73655F74 		.ascii	"se_tp\000"
 2985      7000
 2986              	.LASF15:
 2987 0216 75696E74 		.ascii	"uint16_t\000"
 2987      31365F74 
 2987      00
 2988              	.LASF197:
 2989 021f 616C7472 		.ascii	"altrmask\000"
 2989      6D61736B 
 2989      00
 2990              	.LASF35:
 2991 0228 705F6E65 		.ascii	"p_newer\000"
 2991      77657200 
 2992              	.LASF89:
 2993 0230 504C4C43 		.ascii	"PLLCFGR\000"
 2993      46475200 
 2994              	.LASF126:
 2995 0238 74625F73 		.ascii	"tb_size\000"
 2995      697A6500 
 2996              	.LASF162:
 2997 0240 4F535045 		.ascii	"OSPEEDR\000"
 2997      45445200 
 2998              	.LASF61:
 2999 0248 725F6E65 		.ascii	"r_newer\000"
 2999      77657200 
 3000              	.LASF194:
 3001 0250 6D61736B 		.ascii	"mask\000"
 3001      00
 3002              	.LASF117:
 3003 0255 72656761 		.ascii	"regarm_t\000"
 3003      726D5F74 
 3003      00
 3004              	.LASF68:
 3005 025e 76745F70 		.ascii	"vt_prev\000"
 3005      72657600 
 3006              	.LASF84:
 3007 0266 76746C69 		.ascii	"vtlist\000"
 3007      737400
 3008              	.LASF76:
 3009 026d 63685F73 		.ascii	"ch_system_debug\000"
 3009      79737465 
 3009      6D5F6465 
 3009      62756700 
 3010              	.LASF168:
 3011 027d 73746D33 		.ascii	"stm32_gpio_t\000"
 3011      325F6770 
 3011      696F5F74 
 3011      00
 3012              	.LASF193:
 3013 028a 706F7274 		.ascii	"port\000"
 3013      00
ARM GAS  /tmp/cc61LjSr.s 			page 77


 3014              	.LASF157:
 3015 028f 6D757465 		.ascii	"mutex_t\000"
 3015      785F7400 
 3016              	.LASF177:
 3017 0297 50424461 		.ascii	"PBData\000"
 3017      746100
 3018              	.LASF79:
 3019 029e 6C6F636B 		.ascii	"lock_cnt\000"
 3019      5F636E74 
 3019      00
 3020              	.LASF87:
 3021 02a7 69646C65 		.ascii	"idle_thread_wa\000"
 3021      5F746872 
 3021      6561645F 
 3021      776100
 3022              	.LASF27:
 3023 02b6 636E745F 		.ascii	"cnt_t\000"
 3023      7400
 3024              	.LASF38:
 3025 02bc 705F7374 		.ascii	"p_stklimit\000"
 3025      6B6C696D 
 3025      697400
 3026              	.LASF0:
 3027 02c7 756E7369 		.ascii	"unsigned int\000"
 3027      676E6564 
 3027      20696E74 
 3027      00
 3028              	.LASF67:
 3029 02d4 76745F6E 		.ascii	"vt_next\000"
 3029      65787400 
 3030              	.LASF146:
 3031 02dc 77747365 		.ascii	"wtsemp\000"
 3031      6D7000
 3032              	.LASF43:
 3033 02e3 705F6D73 		.ascii	"p_msgqueue\000"
 3033      67717565 
 3033      756500
 3034              	.LASF171:
 3035 02ee 6F737065 		.ascii	"ospeedr\000"
 3035      65647200 
 3036              	.LASF165:
 3037 02f6 4C434B52 		.ascii	"LCKR\000"
 3037      00
 3038              	.LASF137:
 3039 02fb 6E5F6972 		.ascii	"n_irq\000"
 3039      7100
 3040              	.LASF170:
 3041 0301 6F747970 		.ascii	"otyper\000"
 3041      657200
 3042              	.LASF6:
 3043 0308 73686F72 		.ascii	"short unsigned int\000"
 3043      7420756E 
 3043      7369676E 
 3043      65642069 
 3043      6E7400
 3044              	.LASF141:
 3045 031b 6B65726E 		.ascii	"kernel_stats_t\000"
ARM GAS  /tmp/cc61LjSr.s 			page 78


 3045      656C5F73 
 3045      74617473 
 3045      5F7400
 3046              	.LASF52:
 3047 032a 63685F74 		.ascii	"ch_thread\000"
 3047      68726561 
 3047      6400
 3048              	.LASF115:
 3049 0334 504C4C49 		.ascii	"PLLI2SCFGR\000"
 3049      32534346 
 3049      475200
 3050              	.LASF96:
 3051 033f 41504232 		.ascii	"APB2RSTR\000"
 3051      52535452 
 3051      00
 3052              	.LASF25:
 3053 0348 6D73675F 		.ascii	"msg_t\000"
 3053      7400
 3054              	.LASF93:
 3055 034e 41484233 		.ascii	"AHB3RSTR\000"
 3055      52535452 
 3055      00
 3056              	.LASF28:
 3057 0357 75636E74 		.ascii	"ucnt_t\000"
 3057      5F7400
 3058              	.LASF81:
 3059 035e 63685F73 		.ascii	"ch_system_t\000"
 3059      79737465 
 3059      6D5F7400 
 3060              	.LASF199:
 3061 036a 474E5520 		.ascii	"GNU C 4.8.2 -mcpu=cortex-m4 -mno-thumb-interwork -m"
 3061      4320342E 
 3061      382E3220 
 3061      2D6D6370 
 3061      753D636F 
 3062 039d 7468756D 		.ascii	"thumb -ggdb -O0 -fomit-frame-pointer -falign-functi"
 3062      62202D67 
 3062      67646220 
 3062      2D4F3020 
 3062      2D666F6D 
 3063 03d0 6F6E733D 		.ascii	"ons=16 -ffunction-sections -fdata-sections -fno-com"
 3063      3136202D 
 3063      6666756E 
 3063      6374696F 
 3063      6E2D7365 
 3064 0403 6D6F6E20 		.ascii	"mon -flto\000"
 3064      2D666C74 
 3064      6F00
 3065              	.LASF128:
 3066 040d 74625F62 		.ascii	"tb_buffer\000"
 3066      75666665 
 3066      7200
 3067              	.LASF110:
 3068 0417 41504232 		.ascii	"APB2LPENR\000"
 3068      4C50454E 
 3068      5200
 3069              	.LASF140:
ARM GAS  /tmp/cc61LjSr.s 			page 79


 3070 0421 6D5F6372 		.ascii	"m_crit_isr\000"
 3070      69745F69 
 3070      737200
 3071              	.LASF57:
 3072 042c 63685F72 		.ascii	"ch_ready_list\000"
 3072      65616479 
 3072      5F6C6973 
 3072      7400
 3073              	.LASF26:
 3074 043a 6576656E 		.ascii	"eventmask_t\000"
 3074      746D6173 
 3074      6B5F7400 
 3075              	.LASF7:
 3076 0446 5F5F696E 		.ascii	"__int32_t\000"
 3076      7433325F 
 3076      7400
 3077              	.LASF182:
 3078 0450 50474461 		.ascii	"PGData\000"
 3078      746100
 3079              	.LASF118:
 3080 0457 73746B61 		.ascii	"stkalign_t\000"
 3080      6C69676E 
 3080      5F7400
 3081              	.LASF51:
 3082 0462 74687265 		.ascii	"threads_list_t\000"
 3082      6164735F 
 3082      6C697374 
 3082      5F7400
 3083              	.LASF65:
 3084 0471 76697274 		.ascii	"virtual_timer_t\000"
 3084      75616C5F 
 3084      74696D65 
 3084      725F7400 
 3085              	.LASF150:
 3086 0481 735F7175 		.ascii	"s_queue\000"
 3086      65756500 
 3087              	.LASF42:
 3088 0489 705F7761 		.ascii	"p_waiting\000"
 3088      6974696E 
 3088      6700
 3089              	.LASF88:
 3090 0493 73697A65 		.ascii	"sizetype\000"
 3090      74797065 
 3090      00
 3091              	.LASF50:
 3092 049c 74687265 		.ascii	"thread_reference_t\000"
 3092      61645F72 
 3092      65666572 
 3092      656E6365 
 3092      5F7400
 3093              	.LASF73:
 3094 04af 63685F76 		.ascii	"ch_virtual_timers_list\000"
 3094      69727475 
 3094      616C5F74 
 3094      696D6572 
 3094      735F6C69 
 3095              	.LASF159:
ARM GAS  /tmp/cc61LjSr.s 			page 80


 3096 04c6 636C6561 		.ascii	"clear\000"
 3096      7200
 3097              	.LASF125:
 3098 04cc 63685F73 		.ascii	"ch_swc_event_t\000"
 3098      77635F65 
 3098      76656E74 
 3098      5F7400
 3099              	.LASF100:
 3100 04db 41484233 		.ascii	"AHB3ENR\000"
 3100      454E5200 
 3101              	.LASF74:
 3102 04e3 76745F6C 		.ascii	"vt_lasttime\000"
 3102      61737474 
 3102      696D6500 
 3103              	.LASF36:
 3104 04ef 705F6F6C 		.ascii	"p_older\000"
 3104      64657200 
 3105              	.LASF60:
 3106 04f7 725F6374 		.ascii	"r_ctx\000"
 3106      7800
 3107              	.LASF106:
 3108 04fd 41484232 		.ascii	"AHB2LPENR\000"
 3108      4C50454E 
 3108      5200
 3109              	.LASF131:
 3110 0507 746D5F63 		.ascii	"tm_calibration_t\000"
 3110      616C6962 
 3110      72617469 
 3110      6F6E5F74 
 3110      00
 3111              	.LASF174:
 3112 0518 61667268 		.ascii	"afrh\000"
 3112      00
 3113              	.LASF179:
 3114 051d 50444461 		.ascii	"PDData\000"
 3114      746100
 3115              	.LASF63:
 3116 0524 725F6375 		.ascii	"r_current\000"
 3116      7272656E 
 3116      7400
 3117              	.LASF95:
 3118 052e 41504231 		.ascii	"APB1RSTR\000"
 3118      52535452 
 3118      00
 3119              	.LASF12:
 3120 0537 5F5F7569 		.ascii	"__uint64_t\000"
 3120      6E743634 
 3120      5F7400
 3121              	.LASF167:
 3122 0542 41465248 		.ascii	"AFRH\000"
 3122      00
 3123              	.LASF135:
 3124 0547 63756D75 		.ascii	"cumulative\000"
 3124      6C617469 
 3124      766500
 3125              	.LASF166:
 3126 0552 4146524C 		.ascii	"AFRL\000"
ARM GAS  /tmp/cc61LjSr.s 			page 81


 3126      00
 3127              	.LASF86:
 3128 0557 6B65726E 		.ascii	"kernel_stats\000"
 3128      656C5F73 
 3128      74617473 
 3128      00
 3129              	.LASF23:
 3130 0564 74726566 		.ascii	"trefs_t\000"
 3130      735F7400 
 3131              	.LASF94:
 3132 056c 52455345 		.ascii	"RESERVED0\000"
 3132      52564544 
 3132      3000
 3133              	.LASF97:
 3134 0576 52455345 		.ascii	"RESERVED1\000"
 3134      52564544 
 3134      3100
 3135              	.LASF101:
 3136 0580 52455345 		.ascii	"RESERVED2\000"
 3136      52564544 
 3136      3200
 3137              	.LASF104:
 3138 058a 52455345 		.ascii	"RESERVED3\000"
 3138      52564544 
 3138      3300
 3139              	.LASF108:
 3140 0594 52455345 		.ascii	"RESERVED4\000"
 3140      52564544 
 3140      3400
 3141              	.LASF32:
 3142 059e 705F7072 		.ascii	"p_prev\000"
 3142      657600
 3143              	.LASF113:
 3144 05a5 52455345 		.ascii	"RESERVED6\000"
 3144      52564544 
 3144      3600
 3145              	.LASF24:
 3146 05af 74707269 		.ascii	"tprio_t\000"
 3146      6F5F7400 
 3147              	.LASF138:
 3148 05b7 6E5F6374 		.ascii	"n_ctxswc\000"
 3148      78737763 
 3148      00
 3149              	.LASF158:
 3150 05c0 5F426F6F 		.ascii	"_Bool\000"
 3150      6C00
 3151              	.LASF16:
 3152 05c6 696E7433 		.ascii	"int32_t\000"
 3152      325F7400 
 3153              	.LASF2:
 3154 05ce 756E7369 		.ascii	"unsigned char\000"
 3154      676E6564 
 3154      20636861 
 3154      7200
 3155              	.LASF173:
 3156 05dc 6166726C 		.ascii	"afrl\000"
 3156      00
ARM GAS  /tmp/cc61LjSr.s 			page 82


 3157              	.LASF151:
 3158 05e1 735F636E 		.ascii	"s_cnt\000"
 3158      7400
 3159              	.LASF46:
 3160 05e7 705F6D74 		.ascii	"p_mtxlist\000"
 3160      786C6973 
 3160      7400
 3161              	.LASF3:
 3162 05f1 73686F72 		.ascii	"short int\000"
 3162      7420696E 
 3162      7400
 3163              	.LASF39:
 3164 05fb 705F7374 		.ascii	"p_state\000"
 3164      61746500 
 3165              	.LASF107:
 3166 0603 41484233 		.ascii	"AHB3LPENR\000"
 3166      4C50454E 
 3166      5200
 3167              	.LASF59:
 3168 060d 725F7072 		.ascii	"r_prio\000"
 3168      696F00
 3169              	.LASF176:
 3170 0614 50414461 		.ascii	"PAData\000"
 3170      746100
 3171              	.LASF148:
 3172 061b 65776D61 		.ascii	"ewmask\000"
 3172      736B00
 3173              	.LASF31:
 3174 0622 705F6E65 		.ascii	"p_next\000"
 3174      787400
 3175              	.LASF21:
 3176 0629 746D6F64 		.ascii	"tmode_t\000"
 3176      655F7400 
 3177              	.LASF40:
 3178 0631 705F666C 		.ascii	"p_flags\000"
 3178      61677300 
 3179              	.LASF49:
 3180 0639 705F7374 		.ascii	"p_stats\000"
 3180      61747300 
 3181              	.LASF189:
 3182 0641 6770696F 		.ascii	"gpiop\000"
 3182      7000
 3183              	.LASF103:
 3184 0647 41504232 		.ascii	"APB2ENR\000"
 3184      454E5200 
 3185              	.LASF184:
 3186 064f 50494461 		.ascii	"PIData\000"
 3186      746100
 3187              	.LASF66:
 3188 0656 63685F76 		.ascii	"ch_virtual_timer\000"
 3188      69727475 
 3188      616C5F74 
 3188      696D6572 
 3188      00
 3189              	.LASF149:
 3190 0667 63685F73 		.ascii	"ch_semaphore\000"
 3190      656D6170 
ARM GAS  /tmp/cc61LjSr.s 			page 83


 3190      686F7265 
 3190      00
 3191              	.LASF45:
 3192 0674 705F6570 		.ascii	"p_epending\000"
 3192      656E6469 
 3192      6E6700
 3193              	.LASF111:
 3194 067f 52455345 		.ascii	"RESERVED5\000"
 3194      52564544 
 3194      3500
 3195              	.LASF17:
 3196 0689 75696E74 		.ascii	"uint32_t\000"
 3196      33325F74 
 3196      00
 3197              	.LASF147:
 3198 0692 77746D74 		.ascii	"wtmtxp\000"
 3198      787000
 3199              	.LASF58:
 3200 0699 725F7175 		.ascii	"r_queue\000"
 3200      65756500 
 3201              	.LASF69:
 3202 06a1 76745F64 		.ascii	"vt_delta\000"
 3202      656C7461 
 3202      00
 3203              	.LASF53:
 3204 06aa 63685F74 		.ascii	"ch_threads_list\000"
 3204      68726561 
 3204      64735F6C 
 3204      69737400 
 3205              	.LASF10:
 3206 06ba 6C6F6E67 		.ascii	"long unsigned int\000"
 3206      20756E73 
 3206      69676E65 
 3206      6420696E 
 3206      7400
 3207              	.LASF196:
 3208 06cc 616C7472 		.ascii	"altr\000"
 3208      00
 3209              	.LASF156:
 3210 06d1 63686172 		.ascii	"char\000"
 3210      00
 3211              	.LASF195:
 3212 06d6 6D6F6465 		.ascii	"mode\000"
 3212      00
 3213              	.LASF190:
 3214 06db 636F6E66 		.ascii	"config\000"
 3214      696700
 3215              	.LASF5:
 3216 06e2 5F5F7569 		.ascii	"__uint16_t\000"
 3216      6E743136 
 3216      5F7400
 3217              	.LASF92:
 3218 06ed 41484232 		.ascii	"AHB2RSTR\000"
 3218      52535452 
 3218      00
 3219              	.LASF30:
 3220 06f6 74687265 		.ascii	"thread_t\000"
ARM GAS  /tmp/cc61LjSr.s 			page 84


 3220      61645F74 
 3220      00
 3221              	.LASF132:
 3222 06ff 62657374 		.ascii	"best\000"
 3222      00
 3223              	.LASF155:
 3224 0704 6D5F6E65 		.ascii	"m_next\000"
 3224      787400
 3225              	.LASF29:
 3226 070b 73797374 		.ascii	"systime_t\000"
 3226      696D655F 
 3226      7400
 3227              	.LASF47:
 3228 0715 705F7265 		.ascii	"p_realprio\000"
 3228      616C7072 
 3228      696F00
 3229              	.LASF64:
 3230 0720 76746675 		.ascii	"vtfunc_t\000"
 3230      6E635F74 
 3230      00
 3231              	.LASF9:
 3232 0729 5F5F7569 		.ascii	"__uint32_t\000"
 3232      6E743332 
 3232      5F7400
 3233              	.LASF134:
 3234 0734 6C617374 		.ascii	"last\000"
 3234      00
 3235              	.LASF202:
 3236 0739 696E6974 		.ascii	"initgpio\000"
 3236      6770696F 
 3236      00
 3237              	.LASF77:
 3238 0742 70616E69 		.ascii	"panic_msg\000"
 3238      635F6D73 
 3238      6700
 3239              	.LASF130:
 3240 074c 6F666673 		.ascii	"offset\000"
 3240      657400
 3241              	.LASF102:
 3242 0753 41504231 		.ascii	"APB1ENR\000"
 3242      454E5200 
 3243              	.LASF188:
 3244 075b 696F706F 		.ascii	"ioportid_t\000"
 3244      72746964 
 3244      5F7400
 3245              	.LASF99:
 3246 0766 41484232 		.ascii	"AHB2ENR\000"
 3246      454E5200 
 3247              	.LASF119:
 3248 076e 636F6E74 		.ascii	"context\000"
 3248      65787400 
 3249              	.LASF62:
 3250 0776 725F6F6C 		.ascii	"r_older\000"
 3250      64657200 
 3251              	.LASF192:
 3252 077e 5F70616C 		.ascii	"_pal_lld_setgroupmode\000"
 3252      5F6C6C64 
ARM GAS  /tmp/cc61LjSr.s 			page 85


 3252      5F736574 
 3252      67726F75 
 3252      706D6F64 
 3253              	.LASF19:
 3254 0794 7274636E 		.ascii	"rtcnt_t\000"
 3254      745F7400 
 3255              	.LASF71:
 3256 079c 76745F70 		.ascii	"vt_par\000"
 3256      617200
 3257              	.LASF185:
 3258 07a3 50414C43 		.ascii	"PALConfig\000"
 3258      6F6E6669 
 3258      6700
 3259              	.LASF114:
 3260 07ad 53534347 		.ascii	"SSCGR\000"
 3260      5200
 3261              	.LASF54:
 3262 07b3 74687265 		.ascii	"threads_queue_t\000"
 3262      6164735F 
 3262      71756575 
 3262      655F7400 
 3263              	.LASF152:
 3264 07c3 63685F6D 		.ascii	"ch_mutex\000"
 3264      75746578 
 3264      00
 3265              	.LASF41:
 3266 07cc 705F7265 		.ascii	"p_refs\000"
 3266      667300
 3267              	.LASF78:
 3268 07d3 6973725F 		.ascii	"isr_cnt\000"
 3268      636E7400 
 3269              	.LASF191:
 3270 07db 5F70616C 		.ascii	"_pal_lld_init\000"
 3270      5F6C6C64 
 3270      5F696E69 
 3270      7400
 3271              	.LASF112:
 3272 07e9 42444352 		.ascii	"BDCR\000"
 3272      00
 3273              	.LASF83:
 3274 07ee 726C6973 		.ascii	"rlist\000"
 3274      7400
 3275              	.LASF14:
 3276 07f4 75696E74 		.ascii	"uint8_t\000"
 3276      385F7400 
 3277              	.LASF172:
 3278 07fc 70757064 		.ascii	"pupdr\000"
 3278      7200
 3279              	.LASF144:
 3280 0802 77746F62 		.ascii	"wtobjp\000"
 3280      6A7000
 3281              	.LASF37:
 3282 0809 705F6E61 		.ascii	"p_name\000"
 3282      6D6500
 3283              	.LASF98:
 3284 0810 41484231 		.ascii	"AHB1ENR\000"
 3284      454E5200 
ARM GAS  /tmp/cc61LjSr.s 			page 86


 3285              	.LASF178:
 3286 0818 50434461 		.ascii	"PCData\000"
 3286      746100
 3287              	.LASF90:
 3288 081f 43464752 		.ascii	"CFGR\000"
 3288      00
 3289              	.LASF80:
 3290 0824 74726163 		.ascii	"trace_buffer\000"
 3290      655F6275 
 3290      66666572 
 3290      00
 3291              	.LASF44:
 3292 0831 705F6D73 		.ascii	"p_msg\000"
 3292      6700
 3293              	.LASF181:
 3294 0837 50464461 		.ascii	"PFData\000"
 3294      746100
 3295              	.LASF187:
 3296 083e 696F6D6F 		.ascii	"iomode_t\000"
 3296      64655F74 
 3296      00
 3297              	.LASF139:
 3298 0847 6D5F6372 		.ascii	"m_crit_thd\000"
 3298      69745F74 
 3298      686400
 3299              	.LASF154:
 3300 0852 6D5F6F77 		.ascii	"m_owner\000"
 3300      6E657200 
 3301              	.LASF123:
 3302 085a 73655F77 		.ascii	"se_wtobjp\000"
 3302      746F626A 
 3302      7000
 3303              	.LASF34:
 3304 0864 705F6374 		.ascii	"p_ctx\000"
 3304      7800
 3305              	.LASF70:
 3306 086a 76745F66 		.ascii	"vt_func\000"
 3306      756E6300 
 3307              		.comm	__gnu_lto_v1,1,1
 3308              		.ident	"GCC: (4.8.2-14ubuntu1+6) 4.8.2"
ARM GAS  /tmp/cc61LjSr.s 			page 87


DEFINED SYMBOLS
                            *ABS*:0000000000000000 pal_lld.c
     /tmp/cc61LjSr.s:354    .text.initgpio:0000000000000000 $t
     /tmp/cc61LjSr.s:359    .text.initgpio:0000000000000000 initgpio
     /tmp/cc61LjSr.s:414    .text._pal_lld_init:0000000000000000 $t
     /tmp/cc61LjSr.s:420    .text._pal_lld_init:0000000000000000 _pal_lld_init
     /tmp/cc61LjSr.s:520    .text._pal_lld_setgroupmode:0000000000000000 $t
     /tmp/cc61LjSr.s:526    .text._pal_lld_setgroupmode:0000000000000000 _pal_lld_setgroupmode
                            *COM*:0000000000000001 __gnu_lto_v1
                     .debug_frame:0000000000000010 $d

NO UNDEFINED SYMBOLS
