ARM GAS  /tmp/ccpKz2wI.s 			page 1


   1              		.syntax unified
   2              		.cpu cortex-m4
   3              		.fpu softvfp
   4              		.eabi_attribute 20, 1
   5              		.eabi_attribute 21, 1
   6              		.eabi_attribute 23, 3
   7              		.eabi_attribute 24, 1
   8              		.eabi_attribute 25, 1
   9              		.eabi_attribute 26, 1
  10              		.eabi_attribute 30, 6
  11              		.eabi_attribute 34, 1
  12              		.eabi_attribute 18, 4
  13              		.thumb
  14              		.file	"st.c"
  15              		.text
  16              	.Ltext0:
  17              		.section	.gnu.lto_.inline.2528668fe3ba3748,"",%progbits
  18 0000 789C6362 		.ascii	"x\234cb`b\300\006\336Bi.\006\0066V\006\006&\216\011"
  18      6062C006 
  18      DE42692E 
  18      06063656 
  18      0606268E 
  19 0015 7E0C2C10 		.ascii	"~\014,\020\265\214\014,\314@\021\226\017z0\021&\014"
  19      B58C0C2C 
  19      CC401196 
  19      0F7A3011 
  19      260C
  20 0027 11660C11 		.ascii	"\021f\014\021\026\014sX\031Xx\200\"L\013\344\341&\003"
  20      160C7358 
  20      19587880 
  20      224C0BE4 
  20      E12603
  21 003a 6D636063 		.ascii	"mc`c\340V\005\012\263\035\260\203\033\317\215Bp`\327"
  21      E056050A 
  21      B31DB083 
  21      1BCF8D42 
  21      7060D7
  22 004d C7C9C0A3 		.ascii	"\307\311\300\243\206j\001\232>nB\012\030\000\362\223"
  22      866A019A 
  22      3E6E420A 
  22      1800F293 
  23 005d 0C6B     		.ascii	"\014k"
  24              		.text
  25              		.section	.gnu.lto_st_lld_start_alarm.2528668fe3ba3748,"",%progbits
  26 0000 789C6362 		.ascii	"x\234cb`b@\007\"@\254\016\024\266\001q\230\031\030\201"
  26      60624007 
  26      2240AC0E 
  26      14B60171 
  26      98191881 
  27 0014 4C462646 		.ascii	"LF&FF \207\221\241\236\211\261>\222\021,\241\304\260"
  27      46208791 
  27      A19E89B1 
  27      3E92112C 
  27      A1C4B0
  28 0027 B0A161D2 		.ascii	"\260\241a\322\203\247\353~2\316\234r\240eA\303\237\377"
  28      83A7EB7E 
  28      32CE9C72 
ARM GAS  /tmp/ccpKz2wI.s 			page 2


  28      A06541C3 
  28      9FFF
  29 0039 FF191933 		.ascii	"\377\031\0313A\222\311\214\014\021@\026\243\002\230"
  29      4192C98C 
  29      0C114016 
  29      A30298
  30 0048 62624135 		.ascii	"bbA5\037\242\361\300\217S=\\\023\032;\032\376\377\257"
  30      1FA2F1C0 
  30      8F533D5C 
  30      131A3B1A 
  30      FEFFAF
  31 005b 275ED32F 		.ascii	"'^\323/\2224\255g:\360\340\377\3779\327\367<\336\307"
  31      9234AD67 
  31      3AF0E0FF 
  31      FF39D7F7 
  31      3CDEC7
  32 006e 28C4CAC8 		.ascii	"(\304\312\310\000\324\302\304\230\313\010\364\024\220"
  32      00D4C2C4 
  32      98CB08F4 
  32      1490
  33 007c C5C20036 		.ascii	"\305\302\0006\201\201\225\241\245\241a\202\002\330,"
  33      818195A1 
  33      A5A16182 
  33      02D82C
  34 008b 20080193 		.ascii	" \010\001\223\241 _3\237eh\332\361\003\350\277D\306"
  34      A1205F33 
  34      9F6568DA 
  34      F103E8BF 
  34      44C6
  35 009d 258CAC0C 		.ascii	"%\214\254\014\351\214\214 K\030\032\200\000d\321Y\206"
  35      E98C8C20 
  35      4B181A80 
  35      0064D159 
  35      86
  36 00ae 43A727F0 		.ascii	"C\247'\360A\344t\031\3264\26446Df22k3\254\0021\3553"
  36      41E47419 
  36      D634B434 
  36      36446632 
  36      326B33AC 
  37 00c6 19596633 		.ascii	"\031Yf3\314\002j`\205i\004\203$(\015\022a\203\2734\035"
  37      CC026A60 
  37      85690483 
  37      24280D12 
  37      6183BB34 
  38 00db 641FC8BA 		.ascii	"d\037\310\272\216\365p\333\230\321m\333\001\263\015"
  38      8EF570DB 
  38      98D16DDB 
  38      01B30D
  39 00ea 610533DC 		.ascii	"a\0053\334\012fd+\030\341V030@\014^\2010\230\205$\203"
  39      0A66642B 
  39      18E15630 
  39      3330400C 
  39      5E813098 
  40 0101 59900D66 		.ascii	"Y\220\015fB\030\014b^dh|\260O\025\242\027\006B@\266"
  40      42180C62 
  40      5E64687C 
  40      B04F15A2 
ARM GAS  /tmp/ccpKz2wI.s 			page 3


  40      17064240 
  41 0116 8324AD72 		.ascii	"\203$\255r2\223\364\23532\2232\375\203\343\015\315\364"
  41      3293F49D 
  41      33329332 
  41      FD83E30D 
  41      CDF4
  42 0128 0CF54CF4 		.ascii	"\014\365L\364\365\363\213\3653\022s\364\013\362\213"
  42      F5F38BF5 
  42      331273F4 
  42      0BF28B
  43 0137 4A8AF583 		.ascii	"J\212\365\203C|\215\215\364}|\\\364C<}\313\014\365\213"
  43      437C8D8D 
  43      F47D7C5C 
  43      F4433C7D 
  43      CB0CF58B 
  44 014b 4BE27372 		.ascii	"K\342srR\3642\030\000\034\321\2141"
  44      52F43218 
  44      001CD18C 
  44      31
  45              		.text
  46              		.section	.gnu.lto_st_lld_stop_alarm.2528668fe3ba3748,"",%progbits
  47 0000 789C6362 		.ascii	"x\234cb`b@\007\"@\374\034\210m@\034f\006F\240\012F&"
  47      60624007 
  47      2240FC1C 
  47      886D401C 
  47      660646A0 
  48 0017 46462087 		.ascii	"FF \207\221\241\236\211\261>\022\304d`TbX\330\3200\351"
  48      91A19E89 
  48      B13E12C4 
  48      64605462 
  48      58D8D030 
  49 002c C1D3CD3F 		.ascii	"\301\323\315?\031gN9\320\262\240\341\317\377\377\214"
  49      19674E39 
  49      D0B2A0E1 
  49      CFFFFF8C 
  50 003c 8C9920C9 		.ascii	"\214\231 \311dF\206\010 \213Q\001L1\261\240\232\277"
  50      64468608 
  50      208B5101 
  50      4C31B1A0 
  50      9ABF
  51 004e 9EE9C083 		.ascii	"\236\351\300\203\377\377\357\334\374\360\350\006\243"
  51      FFFFEFDC 
  51      FCF0E806 
  51      A3
  52 005b 10132303 		.ascii	"\020\023#\003X\013\003+CKC\303\004\005\260f \010\001"
  52      580B032B 
  52      434B43C3 
  52      0405B066 
  52      200801
  53 006e 93A120CB 		.ascii	"\223\241 \313\231\31724\355\370\001\264&\221q\021#+"
  53      99CF3234 
  53      EDF801B4 
  53      26917111 
  53      232B
  54 0080 433A2323 		.ascii	"C:##\310T\206\006 \000\231|\226\341\320\216\013\334"
  54      C8548606 
  54      2000997C 
ARM GAS  /tmp/ccpKz2wI.s 			page 4


  54      96E1D08E 
  54      0BDC
  55 0092 10396D86 		.ascii	"\0209m\206U\015-\215\015\366\231\214\314\263\031f\001"
  55      550D2D8D 
  55      0DF6998C 
  55      CCB31966 
  55      01
  56 00a3 55B1C054 		.ascii	"U\261\300T\203A\022\224\006\2110\203\030\027\031\032"
  56      83411294 
  56      06893083 
  56      1817191A 
  57 00b3 1FDC5085 		.ascii	"\037\334P\205\350\205\201\020\220WA\241b\225\223\231"
  57      E8858110 
  57      905741A1 
  57      62959399 
  58 00c3 A4EF9C91 		.ascii	"\244\357\234\221\231\224\351\037\034oh\246g\250g\242"
  58      9994E91F 
  58      1C6F68A6 
  58      67A867A2 
  59 00d3 AF9F5FAC 		.ascii	"\257\237_\254\237\221\230\243_\220_TR\254\037\034\342"
  59      9F9198A3 
  59      5F905F54 
  59      52AC1F1C 
  59      E2
  60 00e4 6B6CA4EF 		.ascii	"kl\244\357\343\343\242\037\342\351[f\250_\\\022\237"
  60      E3E3A21F 
  60      E2E95B66 
  60      A85F5C12 
  60      9F
  61 00f5 9393A297 		.ascii	"\223\223\242\227\301\000\000\236\231I]"
  61      C100009E 
  61      99495D
  62              		.text
  63              		.section	.gnu.lto_st_lld_set_alarm.2528668fe3ba3748,"",%progbits
  64 0000 789C6362 		.ascii	"x\234cb`b@\007\"@\314\310\310\300`\003\342030\002U0"
  64      60624007 
  64      2240CCC8 
  64      C8C06003 
  64      E2303330 
  65 0017 32810418 		.ascii	"2\201\004\030\030\031\352\231\030\353#AL\006F%\206\205"
  65      1819EA99 
  65      18EB2341 
  65      4C064625 
  65      8685
  66 0029 0D0D931E 		.ascii	"\015\015\223\036<\335\365\223q\346\224\003-\013\032"
  66      3CDDF593 
  66      71E69403 
  66      2D0B1A
  67 0038 FEFCFFCF 		.ascii	"\376\374\377\317\310\230\011\222Lfd\210\000\262\030"
  67      C8980992 
  67      4C666488 
  67      00B218
  68 0047 15C01413 		.ascii	"\025\300\024\023\013\252\371\353\231\016<\370\377\177"
  68      0BAAF9EB 
  68      990E3CF8 
  68      FF7F
  69 0055 CEDD2D8F 		.ascii	"\316\335-\217\3370\012132\000\26501\346\202\015eehi"
ARM GAS  /tmp/ccpKz2wI.s 			page 5


  69      DF300A31 
  69      333200B5 
  69      3031E682 
  69      0D656568 
  70 006a 6898A000 		.ascii	"h\230\240\0006\001\010B\300d(\310\005\314g\031\232v"
  70      36010842 
  70      C06428C8 
  70      05CC6719 
  70      9A76
  71 007c FC00DA95 		.ascii	"\374\000\332\225\310\270\210\221\225!\235\221\021d4"
  71      C8B88891 
  71      95219D91 
  71      116434
  72 008b 43031080 		.ascii	"C\003\020\200\214?\313p\350\364\004>\210\234.\303\232"
  72      8C3FCB70 
  72      E8F4043E 
  72      889C2EC3 
  72      9A
  73 009c 8696C686 		.ascii	"\206\226\306\206\310LFfm\206U \246}&#\313l\206Y@\015"
  73      C84C4666 
  73      6D865520 
  73      A67D2623 
  73      CB6C8659 
  74 00b2 AC308D60 		.ascii	"\2540\215`\220\004\245A\"lp\367\245\203\354\273\310"
  74      9004A541 
  74      226C70F7 
  74      A583ECBB 
  74      C8
  75 00c3 D0F8E08D 		.ascii	"\320\370\340\215*\304@\030\010\001\005\002(\274\254"
  75      2AC44018 
  75      08010502 
  75      28BCAC
  76 00d2 723293F4 		.ascii	"r2\223\364\23532\2232\375\203\343\015\315\364\014\365"
  76      9D333293 
  76      32FD83E3 
  76      0DCDF40C 
  76      F5
  77 00e3 4CF4F5F3 		.ascii	"L\364\365\363\213\3653\022s\364\013\362\213J\212\365"
  77      8BF53312 
  77      73F40BF2 
  77      8B4A8AF5 
  78 00f3 83437C8D 		.ascii	"\203C|\215\215\364}|\\\364C<}\313\014\365\213K\342s"
  78      8DF47D7C 
  78      5CF4433C 
  78      7DCB0CF5 
  78      8B4BE273 
  79 0107 7252F432 		.ascii	"rR\3642\030\000\026\212L\222"
  79      1800168A 
  79      4C92
  80              		.text
  81              		.section	.gnu.lto_st_lld_get_alarm.2528668fe3ba3748,"",%progbits
  82 0000 789C6362 		.ascii	"x\234cb`b@\007\322@\354\301\310\300`\003\342\26000\002"
  82      60624007 
  82      D240ECC1 
  82      C8C06003 
  82      E2B03030 
  83 0015 55303231 		.ascii	"U0212\003IfF\2400\003#C=\0233c}$\210\315\300\244\304"
ARM GAS  /tmp/ccpKz2wI.s 			page 6


  83      32034966 
  83      46A03003 
  83      23433D13 
  83      33637D24 
  84 002e B0B0A161 		.ascii	"\260\260\241a\326\203\247\373gJv-h\232\320\360\357\377"
  84      D683A7FB 
  84      674A762D 
  84      689AD0F0 
  84      EFFF
  85 0040 7FC64C90 		.ascii	"\177\306L\220T2#C\004\220\305\250\000\246\230XP-\001"
  85      54322343 
  85      0490C5A8 
  85      00A69858 
  85      502D01
  86 0053 6B9BD430 		.ascii	"k\233\3240\371i\300\211\206\226\003\377\377\333g\202"
  86      F969C089 
  86      869603FF 
  86      FFDB6782 
  87 0063 6CC0AF67 		.ascii	"l\300\257g=\323\201\007\377\377\337\271\277\340q\007"
  87      3DD38107 
  87      FFFFDFB9 
  87      BFE07107 
  88 0073 A3303323 		.ascii	"\24303#\003P\013\023\003\330.\006V\206\226\206\206\011"
  88      03500B13 
  88      03D82E06 
  88      56869686 
  88      8609
  89 0085 0A601380 		.ascii	"\012`\023\200 \004L\206\202\234\316|\226\241i\307\217"
  89      20044C86 
  89      829CCE7C 
  89      96A169C7 
  89      8F
  90 0096 FD275912 		.ascii	"\375'Y\022\031\0273\2622\24432\202\214fn\000\002\220"
  90      191733B2 
  90      32A43332 
  90      828C666E 
  90      000290
  91 00a9 F167190E 		.ascii	"\361g\031\016\335)\200I1\3512\254ihil0\315dd\321fX\005"
  91      DD298049 
  91      31E932AC 
  91      6968696C 
  91      30CD6464 
  92 00c1 624E062A 		.ascii	"bN\006*f\235\3150\013H\261\301\364\202\035\223\304\010"
  92      669DCD30 
  92      0B48B1C1 
  92      F4821D93 
  92      C408
  93 00d3 71144884 		.ascii	"q\024H\204\035-\004CAj\230O34r00\244\200\324]dh<\300"
  93      1D2D0443 
  93      416A984F 
  93      33347230 
  93      30A480D4 
  94 00ec 0CB705A2 		.ascii	"\014\267\005\242(\004\024\230 \266UNf\222\276sFfR\246"
  94      28041498 
  94      20B6554E 
  94      6692BE73 
  94      466652A6 
ARM GAS  /tmp/ccpKz2wI.s 			page 7


  95 0100 7F70BCA1 		.ascii	"\177p\274\241\231\236\241\236\211\276~~\261~Fb\216~"
  95      999EA19E 
  95      89BE7E7E 
  95      B17E4662 
  95      8E7E
  96 0112 417E5149 		.ascii	"A~QI\261~p\210\257\261\221\276\217\217\213~\210\247"
  96      B17E7088 
  96      AFB191BE 
  96      8F8F8B7E 
  96      88A7
  97 0124 6F99A17E 		.ascii	"o\231\241~qI|NN\212^\006\003\000\245\004X\325"
  97      71497C4E 
  97      4E8A5E06 
  97      0300A504 
  97      58D5
  98              		.text
  99              		.section	.gnu.lto_st_lld_is_alarm_active.2528668fe3ba3748,"",%progbits
 100 0000 789C6362 		.ascii	"x\234cb`b@\007\322@|\211\221\201\301\006\304aa`\004"
 100      60624007 
 100      D2407C89 
 100      9181C106 
 100      C4616160 
 101 0015 AA606462 		.ascii	"\252`dbd\006\222\314\214@a\006F\206z&f\306\372HF\260"
 101      640692CC 
 101      8C406106 
 101      46867A26 
 101      66C6FA48 
 102 002b BC12C3C2 		.ascii	"\274\022\303\302\206\206Y\017\226>\237)\336\365\240"
 102      8686590F 
 102      963E9F29 
 102      DEF5A0
 103 003a 6142C3BF 		.ascii	"aB\303\277\377\377\0313AR\311\214\014\021@\026#\007"
 103      FFFF1933 
 103      4152C98C 
 103      0C114016 
 103      2307
 104 004c 98626244 		.ascii	"\230bbD\265\004\254mR\303\337'\001'\032Z\016\374\377"
 104      B504AC6D 
 104      52C3DF27 
 104      01271A5A 
 104      0EFCFF
 105 005f 6F9F09B2 		.ascii	"o\237\011\262\001\246G\001\242\207\005\253\236M+\032"
 105      01A64701 
 105      A28705AB 
 105      9E4D2B1A 
 106 006f 381734FC 		.ascii	"8\0274\374\371\377\2379\223\221\205H=\263\237\"\354"
 106      F9FF9F39 
 106      93918548 
 106      3DB39F22 
 106      EC
 107 0080 21A8673D 		.ascii	"!\250g=\323\201\007\377\377\357\371\274\344\361<FaV"
 107      D38107FF 
 107      FFEFF9BC 
 107      E4F13C46 
 107      6156
 108 0092 4606A0D3 		.ascii	"F\006\240\323\230\200\004\0133\210`a\000\373\216\201"
 108      9880040B 
ARM GAS  /tmp/ccpKz2wI.s 			page 8


 108      33886061 
 108      00FB8E81 
 109 00a2 95A1A5A1 		.ascii	"\225\241\245\241a\202\002\330, \010\001\223\241\240"
 109      618202D8 
 109      2C200801 
 109      93A1A0
 110 00b1 C0623ECB 		.ascii	"\300b>\313\320\264c\307\363\217\314\211\214K\031Y\031"
 110      D0B463C7 
 110      F38FCC89 
 110      8C4B1959 
 110      19
 111 00c2 D2191941 		.ascii	"\322\031\031A\22607\000\001\310\242\263\014\207\242"
 111      96303700 
 111      01C8A2B3 
 111      0C87A2
 112 00d1 60324CDA 		.ascii	"`2L\332\014\253\032Z\200\262\254\263\031f\001)6\230"
 112      0CAB1A5A 
 112      80B2ACB3 
 112      19660129 
 112      3698
 113 00e3 62B03B92 		.ascii	"b\260;\222\340av\226\241yw\3636&\2306f\240N\2202\026"
 113      E0617696 
 113      A17977F3 
 113      36269836 
 113      66A04E90 
 114 00f9 2688DC8D 		.ascii	"&\210\334\215f>\230\024\013P\026,\005\323\032\0122\214"
 114      663E9814 
 114      0B50162C 
 114      05D31A0A 
 114      328C
 115 010b F9344323 		.ascii	"\3714C#\007\003C\012\310\300\213\014\214p\305\020%!"
 115      0703430A 
 115      C8C08B0C 
 115      8C70C510 
 115      2521
 116 011d A0680519 		.ascii	"\240h\005\031e\225\223\231\244\357\234\221\231\224\351"
 116      65959399 
 116      A4EF9C91 
 116      9994E9
 117 012c 1F1C6F68 		.ascii	"\037\034oh\246g\250g\242\257\237_\254\237\221\230\243"
 117      A667A867 
 117      A2AF9F5F 
 117      AC9F9198 
 117      A3
 118 013d 5F905F54 		.ascii	"_\220_TR\254\037\034\342kl\244\357\343\343\242\037\342"
 118      52AC1F1C 
 118      E26B6CA4 
 118      EFE3E3A2 
 118      1FE2
 119 014f E95B66A8 		.ascii	"\351[f\250_\\\022\237\223\223\242\227\301\000\000tA"
 119      5F5C129F 
 119      9393A297 
 119      C1000074 
 119      41
 120 0160 755F     		.ascii	"u_"
 121              		.text
 122              		.section	.gnu.lto_stInit.2528668fe3ba3748,"",%progbits
ARM GAS  /tmp/ccpKz2wI.s 			page 9


 123 0000 789C6362 		.ascii	"x\234cb`b@\007\"@\\\014\304j \0163\003#P\005#\023##"
 123      60624007 
 123      22405C0C 
 123      C46A200E 
 123      33032350 
 124 0019 90C3C850 		.ascii	"\220\303\310P\317\304X\037\311\010V\266\236\351\300"
 124      CFC4581F 
 124      C90856B6 
 124      9EE9C0
 125 0028 83FFFFD7 		.ascii	"\203\377\377\327\375X\373\260\036,\311\312\320\322\320"
 125      FD58FBB0 
 125      1E2CC9CA 
 125      D0D2D0
 126 0037 30418181 		.ascii	"0A\201\201!\031,\037\002&CA\272\231\31734?\370g\223"
 126      21192C1F 
 126      02264341 
 126      BA99CF33 
 126      343FF867 
 127 004c C8B89091 		.ascii	"\310\270\220\221\025(V\315\360\253\241\243A \223\021"
 127      152856CD 
 127      F0ABA1A3 
 127      41209311 
 128 005c A8126254 		.ascii	"\250\022bT&\210\276\310\320\370\340?\023L\021\004\204"
 128      2688BEC8 
 128      D0F8E03F 
 128      134C1104 
 128      84
 129 006d 8024402E 		.ascii	"\200$@.T\311\311L\322w\316\310L\312\364\017\21674\323"
 129      54C9C94C 
 129      D277CEC8 
 129      4CCAF40F 
 129      8E3734D3 
 130 0081 33D433D1 		.ascii	"3\3243\321\327\317/\326\317H\314\321/.J\326/.\321Kf"
 130      D7CF2FD6 
 130      CF48CCD1 
 130      2F2E4AD6 
 130      2F2ED14B 
 131 0096 0000664C 		.ascii	"\000\000fL&\016"
 131      260E
 132              		.text
 133              		.section	.gnu.lto_stStartAlarm.2528668fe3ba3748,"",%progbits
 134 0000 789C6550 		.ascii	"x\234eP1K\0031\024~_r\251\025\027\235t\024\025\307\013"
 134      314B0331 
 134      147E5F72 
 134      A915179D 
 134      741415C7 
 135 0015 05F10FB8 		.ascii	"\005\361\017\270\353`\013u\2226C\033\350!X7\207F\274"
 135      EB600B75 
 135      9236431B 
 135      E8215837 
 135      8746BC
 136 0028 419C8A93 		.ascii	"A\234\212\223\233\250\223]\034\\\034\035\335\304\335"
 136      9BA8935D 
 136      1C5C1C1D 
 136      DDC4DD
 137 0037 2108E2E2 		.ascii	"!\010\342\342/p\360|\271\273V\324\017\362^^\362\275"
 137      2F70F07C 
ARM GAS  /tmp/ccpKz2wI.s 			page 10


 137      B9BB56D4 
 137      0FF25E5E 
 137      F2BD
 138 0049 F77D8920 		.ascii	"\367}\211 A\177\241ym\202h5\024\025\0023  9J\021\021"
 138      417FA179 
 138      6D826835 
 138      14150233 
 138      2020394A 
 139 005f 39A13844 		.ascii	"9\2418D\0218A\201\211\004\032\010\031)\014vBEb\211."
 139      11384181 
 139      89041A08 
 139      19290C76 
 139      42456289 
 140 0074 9D3BF36F 		.ascii	"\235;\363o\357\347\363\247\336\015\335W\226\301\206"
 140      EFE7F3A7 
 140      DE0DDD57 
 140      96C186
 141 0083 2B036AF2 		.ascii	"+\003j\362\016\325<\011\374\026N@\267\342\301g\331\313"
 141      0ED53C09 
 141      FC164E40 
 141      B7E2C167 
 141      D9CB
 142 0095 DDFDEB08 		.ascii	"\335\375\353\010s\022\304]\002I.\242(un\270\230\224"
 142      7312C45D 
 142      02492EA2 
 142      28756EB8 
 142      9894
 143 00a7 7318F532 		.ascii	"s\030\3652\262A\331\010\006\345\023\035\373\013\323"
 143      B241D908 
 143      06E5131D 
 143      FB0BD3
 144 00b6 C2159BEB 		.ascii	"\302\025\233\353\000\207\364\351N\334\254\2054(\264"
 144      0087F4E9 
 144      4EDCAC85 
 144      3428B4
 145 00c5 2CF8058F 		.ascii	",\370\005\217\224~`Bj\026\326~\320\010\034\036\025\025"
 145      947E6042 
 145      6A16D67E 
 145      D0081C1E 
 145      1515
 146 00d7 14A2C918 		.ascii	"\024\242\311\030eP|W8Y\260\250\260\231\222d15\356Vy"
 146      65507C57 
 146      3859B0A8 
 146      B0999264 
 146      3135EE56 
 147 00ec 77EA6FAE 		.ascii	"w\352o\256g\376M\250\232\340\223\321\201\260\230&z\246"
 147      67FE4DA8 
 147      9AE093D1 
 147      81B09826 
 147      7AA6
 148 00fe 233F5A1E 		.ascii	"#?Z\036\363\012\324\203\331 \264\322\263m\275\321\265"
 148      F30AD483 
 148      D920B4D2 
 148      B36DBDD1 
 148      B5
 149 010f 6DBBB5BD 		.ascii	"m\273\265\275[[\217k\361\232\326{}\335m\365t\177\337"
 149      5B5B8F6B 
ARM GAS  /tmp/ccpKz2wI.s 			page 11


 149      F19AD67B 
 149      7DDD6DF5 
 149      747FDF
 150 0122 E8FE416C 		.ascii	"\350\376Al\350\033\362\036P8"
 150      E81BF21E 
 150      5038
 151              		.text
 152              		.section	.gnu.lto_stStopAlarm.2528668fe3ba3748,"",%progbits
 153 0000 789C6362 		.ascii	"x\234cb`b@\007\"@\\\006\304j \0163\003#P\005#\023##"
 153      60624007 
 153      22405C06 
 153      C46A200E 
 153      33032350 
 154 0019 90C3C850 		.ascii	"\220\303\310P\317\304X\037\311\010V\266\236\351\300"
 154      CFC4581F 
 154      C90856B6 
 154      9EE9C0
 155 0028 83FFFFD7 		.ascii	"\203\377\377\327}k\233\363\206q6\023H\214\225\241\245"
 155      7D6B9BF3 
 155      86713613 
 155      488C95A1 
 155      A5
 156 0039 A1618202 		.ascii	"\241a\202\002\003C2XE\010\230\014\005\351g>\317\320"
 156      03433258 
 156      4508980C 
 156      05E9673E 
 156      CFD0
 157 004b FC606F33 		.ascii	"\374`o3w\"\343BFV\240`5\303\257\206\216\006\201LF\240"
 157      7722E342 
 157      4656A060 
 157      35C3AF86 
 157      8E06814C 
 158 0061 52886999 		.ascii	"R\210i\231 \372\"C\343\203}\3120E\020\020\002\222\000"
 158      20FA2243 
 158      E3837DCA 
 158      30451010 
 158      029200
 159 0074 39522527 		.ascii	"9R%'3I\3379#3)\323?8\336\320L\317P\317D_?\277X?#1G\277"
 159      3349DF39 
 159      233329D3 
 159      3F38DED0 
 159      4CCF50CF 
 160 0092 B82859BF 		.ascii	"\270(Y\277\270D/\231\001\000\336\307&\236"
 160      B8442F99 
 160      0100DEC7 
 160      269E
 161              		.text
 162              		.section	.gnu.lto_stSetAlarm.2528668fe3ba3748,"",%progbits
 163 0000 789C8D50 		.ascii	"x\234\215P=K\003A\020\235\267{\027\243\225VZ\212\212"
 163      3D4B0341 
 163      109DB77B 
 163      17A39556 
 163      5A8A8A
 164 0013 659680F8 		.ascii	"e\226\200\370\007\374\001\026&\020+I\266\270,\344\020"
 164      07FC0116 
 164      26102B49 
 164      B6B82CE4 
ARM GAS  /tmp/ccpKz2wI.s 			page 12


 164      10
 165 0024 8C9D4556 		.ascii	"\214\235EVM!V\301J\304B\261\261R{-,mD\254\305p(v\326"
 165      4D2156C1 
 165      4AC442B1 
 165      B1527B2D 
 165      2C6D44AC 
 166 003d 1622AEB3 		.ascii	"\026\"\256\263\271\\Dm|\260\263\037\363\336\314\274"
 166      B95C446D 
 166      7CB0B31F 
 166      F3DECCBC 
 167 004d 1524E837 		.ascii	"\025$\3507\024\257\003\020\315\372K\216\300\014\010"
 167      14AF0310 
 167      CDFA4B8E 
 167      C00C08
 168 005c 488E5204 		.ascii	"H\216R\004DV\204\034\202\000\274!\004\023\011\324\022"
 168      4456841C 
 168      8200BC21 
 168      041309D4 
 168      12
 169 006d 3208D15A 		.ascii	"2\010\321Z\3667\222Stl\355^\362\362\266?\276\233\330"
 169      F6379253 
 169      746CED5E 
 169      F2F2B63F 
 169      BE9BD8
 170 0080 8EFD740E 		.ascii	"\216\375t\016\306\2474\250\302'\344{\233\300\317\306"
 170      C6A734A8 
 170      C227E47B 
 170      9BC0CFC6 
 171 0090 A9CC9E9D 		.ascii	"\251\314\236\235Zyd?\234\223\377\320\304\240sq\2358"
 171      5A79643F 
 171      9C93FFD0 
 171      C4A07371 
 171      9D38
 172 00a2 777879F1 		.ascii	"wxy\361\324\305X\000b\225\360A\"\356M\027R\333\332\316"
 172      D4C55800 
 172      6295F041 
 172      22EE4D17 
 172      52DBDACE 
 173 00b6 64DC2FC6 		.ascii	"d\334/\306(\365#;\223e\357L\336\321v\362\240\2538aW"
 173      28F5233B 
 173      9365EF4C 
 173      DED176F2 
 173      A0AB3861 
 174 00cb 11B041EF 		.ascii	"\021\260A\357v\307\216\032H\215\264\241\001[\277\245"
 174      76C78E1A 
 174      488DB4A1 
 174      015BBFA5 
 175 00db AD2B9991 		.ascii	"\255+\231\221D\344S7\324~\305\340\251\222\332\374F\331"
 175      44E45337 
 175      D47EC5E0 
 175      A992DAFC 
 175      46D9
 176 00ed CBB87A90 		.ascii	"\313\270z\220R\210\006\225C\215\364\353\375\313\204"
 176      52880695 
 176      438DF4EB 
 176      FDCB84
 177 00fc 418EE7EB 		.ascii	"A\216\347\353\223\014\2062u\330S\267\223\307\347\221"
ARM GAS  /tmp/ccpKz2wI.s 			page 13


 177      930C8632 
 177      75D853B7 
 177      93C7E791 
 178 010c 3F15F2DA 		.ascii	"?\025\362\332\217\316\210\300?5LtO\233Iw:\343\245(\371"
 178      8FCE88C0 
 178      3F354C74 
 178      4F9B4977 
 178      3AE3A528 
 179 0121 217DA399 		.ascii	"!}\243\231\206\251\251\205\272\251\231\305\245\225\342"
 179      86A9A985 
 179      BAA999C5 
 179      A595E2
 180 0130 7CA15898 		.ascii	"|\241X\230Sj\265\251\352\325\206j\256i\325\\/h\372\002"
 180      536AB5A9 
 180      EAD5866A 
 180      AE69D55C 
 180      2F68FA02 
 181 0144 39FC60F8 		.ascii	"9\374`\370"
 182              		.text
 183              		.section	.gnu.lto_stGetAlarm.2528668fe3ba3748,"",%progbits
 184 0000 789C8D51 		.ascii	"x\234\215Q\261J\003A\020\235\331\335\273h*\255\264\014"
 184      B14A0341 
 184      109DD9DD 
 184      BB682AAD 
 184      B40C
 185 0012 22967704 		.ascii	"\"\226w\004$?\340\007Xh V\222\254\220,$\010\306\316"
 185      243FE007 
 185      58682056 
 185      92AC902C 
 185      2408C6CE 
 186 0026 221B4D11 		.ascii	"\"\033M\021\304\"X\211XD\260\260\322\037\020L\247 \""
 186      C4225889 
 186      5844B0B0 
 186      D21F104C 
 186      A72022
 187 0039 7E816761 		.ascii	"~\201gaga\0355\353\354\355\345$V\016\334\333\333\331"
 187      67611D35 
 187      EBECEDE5 
 187      24560EDC 
 187      DBDBD9
 188 004c F766DECE 		.ascii	"\367f\336\3162`\3607\012\364\275 \300\222\335d\000\211"
 188      3260F037 
 188      0AF4BD20 
 188      C092DD64 
 188      0089
 189 005e 810C3921 		.ascii	"\201\0149!g\002@3\217@\010\244\005=\364\011}$: \264"
 189      67024033 
 189      8F4008A4 
 189      053DF409 
 189      7D243A20 
 190 0073 18179E8F 		.ascii	"\030\027\236\217\255\015\273\005\261\000\347Z\037Go"
 190      AD0DBB05 
 190      B100E75A 
 190      1F476F
 191 0082 A393B9C3 		.ascii	"\243\223\271\303H\367\364\310\030T\366H\"\224\350\017"
 191      48F7F4C8 
 191      1854F648 
ARM GAS  /tmp/ccpKz2wI.s 			page 14


 191      2294E80F 
 192 0092 A7E285E1 		.ascii	"\247\342\205\341d\177'\323W\227\232\367\365\2271\374"
 192      647F27D3 
 192      57979AF7 
 192      F59731FC 
 193 00a2 BF9AD3C1 		.ascii	"\277\232\323\301\360\356(\333kw\2651-e\035\217E9'\022"
 193      F0EE28DB 
 193      6B77B531 
 193      2D651D8F 
 193      45392712 
 194 00b6 93A206C2 		.ascii	"\223\242\006\3025\033D\306\234\335~\274\216pV P+f\201"
 194      351B44C6 
 194      9CDD7EBC 
 194      8E705620 
 194      502B6681 
 195 00ca 43AC070F 		.ascii	"C\254\007\017:Z\367r\215\304\001\305z\2024\025^\264"
 195      3A5AF772 
 195      8DC401C5 
 195      7A823415 
 195      5EB4
 196 00dc 1CFE0407 		.ascii	"\034\376\004\007\321\247,\343\005M\244\212\270\007C"
 196      D1A72CE3 
 196      054DA48A 
 196      B80743
 197 00eb DDD5330A 		.ascii	"\335\3253\012\205D\347R\331Q=\302\376\015\037\223X\325"
 197      8544E752 
 197      D9513DC2 
 197      FE0D1F93 
 197      58D5
 198 00fd 1EDD43E7 		.ascii	"\036\335C\347\035\323T\311\315\3467\212(\342\352\302"
 198      1DD354C9 
 198      CDE6378A 
 198      28E2EAC2 
 199 010d 5100D2CA 		.ascii	"Q\000\322\312\276D\367l63\2570C\376\022\222\242\001"
 199      BE44F76C 
 199      3633AF30 
 199      43FE1292 
 199      A201
 200 011f 256ACF79 		.ascii	"%j\317y\353\177\247myZaZ\306\327\263\374\354\230O/\311"
 200      EB7FA76D 
 200      795A615A 
 200      C6D7B3FC 
 200      EC984F2F 
 201 0134 1FA04DFA 		.ascii	"\037\240M\372-\353\356\031Ro\216J\227\246\264m\274X"
 201      2DEBEE19 
 201      526F8E4A 
 201      97A6B46D 
 201      BC58
 202 0146 579570A5 		.ascii	"W\225p\245\246*jum3_\010\362\301r\030n7\303Z\271\036"
 202      A62A6A75 
 202      6D335F08 
 202      F2C17218 
 202      6E37C35A 
 203 015c 367764D8 		.ascii	"6wd\330\334\015$\374\000\253\310m\220"
 203      DC0D24FC 
 203      00ABC86D 
 203      90
ARM GAS  /tmp/ccpKz2wI.s 			page 15


 204              		.text
 205              		.section	.gnu.lto_.symbol_nodes.2528668fe3ba3748,"",%progbits
 206 0000 789C4D8A 		.ascii	"x\234M\212I\016\202@\020E\177\375\006\244\355\310\035"
 206      490E8240 
 206      10457FFD 
 206      06A4EDC8 
 206      1D
 207 0011 3C9A2729 		.ascii	"<\232')\202\033\234\022\034p8\217{\227\256\035\356a"
 207      821B9C12 
 207      1C70388F 
 207      7B97AE1D 
 207      EE61
 208 0023 84A6A35D 		.ascii	"\204\246\243]\233\227\367\352\023\304T0\034\027\242"
 208      9B97F7EA 
 208      13C45430 
 208      1C17A2
 209 0032 40730354 		.ascii	"@s\003T\333z\306\245\250D\272\022e\244kQ\023\351F4\211"
 209      DB7AC6A5 
 209      A844BA12 
 209      65A46B51 
 209      13E94634 
 210 0047 B4A1A641 		.ascii	"\264\241\246A\357\265pK\315\376\232\236\210D\015w\324"
 210      EFB5704B 
 210      CDFE9A9E 
 210      88440D77 
 210      D4
 211 0058 5134DA53 		.ascii	"Q4\332S\363ht\246\364\243\003\325F\365BvUZ\352x\250"
 211      F36874A6 
 211      F4A303D5 
 211      46F54276 
 211      555AEA78 
 212 006d 652972A4 		.ascii	"e)r\244\272\237\231t\202\371\343#&KPy\026\270z\002\257"
 212      BA9F9974 
 212      82F9E323 
 212      264B5079 
 212      16B87A02 
 213 0082 9EB90CDD 		.ascii	"\236\271\014\335\206\277-\360\366$\252gG\027\272\013"
 213      86BF2DF0 
 213      F624AA67 
 213      4717BA0B 
 214 0092 DD19DFF1 		.ascii	"\335\031\337\361\0053\263X\257"
 214      0533B358 
 214      AF
 215              		.text
 216              		.section	.gnu.lto_.refs.2528668fe3ba3748,"",%progbits
 217 0000 789C6362 		.ascii	"x\234cb`b\340e\200\000F6&vFN&.Fn&\036\006\000\003%\000"
 217      6062E065 
 217      80004636 
 217      2676464E 
 217      262E466E 
 218 001b 52       		.ascii	"R"
 219              		.text
 220              		.section	.gnu.lto_.decls.2528668fe3ba3748,"",%progbits
 221 0000 789CB557 		.ascii	"x\234\265W}lTU\026\277\367\315Pf\230R\021\225\324?\\"
 221      7D6C5455 
 221      16BFF7CD 
 221      50669852 
ARM GAS  /tmp/ccpKz2wI.s 			page 16


 221      1195D43F 
 222 0015 C78D9FA8 		.ascii	"\307\215\237\250\035[\210\256\273Y\003\016\204\222P"
 222      1D5B88AE 
 222      BB59030E 
 222      849250
 223 0024 25534C48 		.ascii	"%SLH\374\343\371\230\216v\222i\213\235W\015\177\355"
 223      FCE3F998 
 223      8E769269 
 223      8B9D570D 
 223      7FED
 224 0036 6D812DBB 		.ascii	"m\201-\273\006w\\\226._\322\001i,\250@\252\251\244`"
 224      06775C96 
 224      2E5FD201 
 224      692CA840 
 224      AAA9A460 
 225 004a FBD42020 		.ascii	"\373\324  AG\254\240Ee\300\225\254\037\311\2724A\011"
 225      4147ACA0 
 225      4565C095 
 225      AC1FC9BA 
 225      344109
 226 005d BAE3B9F7 		.ascii	"\272\343\271\367}\335\367\372\356t\206dor\316\273s\337"
 226      7DDDF7FA 
 226      EE748664 
 226      6F72CEBB 
 226      73DF
 227 006f 39BFFB3B 		.ascii	"9\277\373;\347\236\373\356\035\011Ih\211\017\241\002"
 227      E79EFBEE 
 227      1D094968 
 227      890FA102 
 228 007f B4176721 		.ascii	"\264\027g!\364\275\204P\010!\364\020\262[%\310\016\220"
 228      F4BD8450 
 228      0821F410 
 228      B25B25C8 
 228      0E90
 229 0091 01904190 		.ascii	"\001\220A\220!\220a\220\303 GAN\200\344@FAN\203|\006"
 229      21906190 
 229      C3204741 
 229      4E80E440 
 229      46414E83 
 230 00a7 0290E83C 		.ascii	"\002\220\350<\3107 \377A\316F\261\246\202\\\004\251"
 230      C83720FF 
 230      41CE46B1 
 230      A6825C04 
 230      A9
 231 00b8 32F02F83 		.ascii	"2\360/\203\\\217\021\032\207\247\337\360\277\016~c\220"
 231      5C8F111A 
 231      87A7DFF0 
 231      BF0E7E63 
 231      90
 232 00c9 02F4B1E1 		.ascii	"\002\364\261\341G\237\373\\x\224\327\024\017\274q\303"
 232      479FFB5C 
 232      7894D714 
 232      0FBC71C3 
 233 00d9 DEF41F40 		.ascii	"\336\364\037@\023\333`\011\\\260\311\305\260\247\317"
 233      13DB6009 
 233      5CB0C9C5 
 233      B0A7CF
ARM GAS  /tmp/ccpKz2wI.s 			page 17


 234 00e8 032E1C9A 		.ascii	"\003.\034\232\223\000\310.\016\347\342$XC\306\357;\260"
 234      9300C82E 
 234      0EE7E224 
 234      5843C6EF 
 234      3BB0
 235 00fa 136BD8E0 		.ascii	"\023k\330\340\244\271\260\246\012\342\0326\236w\272"
 235      A4B9B0A6 
 235      0AE21A36 
 235      9E77BA
 236 0109 70E8FAC0 		.ascii	"p\350\372\300r\242\273`\374ucL2\306O{\344\202\256\345"
 236      72A2BB60 
 236      FC75634C 
 236      32C64F7B 
 236      E482AEE5 
 237 011d 34D7BCB3 		.ascii	"4\327\274\263\301w\004\236w\303\363\036\2201\350\337"
 237      C177049E 
 237      77C3F31E 
 237      9031E8DF 
 238 012d 0BCF9D86 		.ascii	"\013\317\235\206\217\337\360\243\034\350\272\3570\346"
 238      8FDFF0A3 
 238      1CE8BAEF 
 238      30E6
 239 013b A06BFFBE 		.ascii	"\240k\377\276\013\377\204\200\017\035\367Z\233\334$"
 239      0BFF8480 
 239      0F1DF75A 
 239      9BDC24
 240 014a 7C6A047C 		.ascii	"|j\004|r\034\237Ac\016Z\207']\370\264^C.\374]\2029\""
 240      721C9F41 
 240      630E5A87 
 240      275DF8B4 
 240      5E432EFC 
 241 0162 F03CC8CD 		.ascii	"\360<\310\3151\312\3151d\314A\353\374>\327\032\334\214"
 241      31CACD31 
 241      64CC41EB 
 241      FC3ED71A 
 241      DC8C
 242 0174 B6132D97 		.ascii	"\266\023-\227\357\333{N\332L\2645\004\266\031\301\341"
 242      EFDB7B4E 
 242      DA4CB435 
 242      04B619C1 
 242      E1
 243 0185 59682381 		.ascii	"Yh#\201\226\3753!XU\360C7\240\345X\301UA\024f\235\312"
 243      96FD3321 
 243      5855F043 
 243      37A0E558 
 243      C1554114 
 244 019c 209B0321 		.ascii	" \233\003!\005\357\304\263X\317\307f@A\264\216\220."
 244      05EFC4B3 
 244      58CFC766 
 244      4041B48E 
 244      902E
 245 01ae EA587F14 		.ascii	"\352X\177\024({y\335\206v\021\222\311_y\355c\211\220"
 245      287B79DD 
 245      86761192 
 245      C95F79ED 
 245      638990
 246 01c1 808277E1 		.ascii	"\200\202w\341 \370\266`4\033\355\20693\204\234\377\203"
ARM GAS  /tmp/ccpKz2wI.s 			page 18


 246      20F8B660 
 246      341BED86 
 246      3933849C 
 246      FF83
 247 01d3 8B242A0F 		.ascii	"\213$*\017\372\227\356\303o\343.\240\256\340~\006\276"
 247      FA97EEC3 
 247      6FE32EA0 
 247      AEE07E06 
 247      BE
 248 01e4 0D76A982 		.ascii	"\015v\251\202_\306\263\313\206\332\372\334\241\007\031"
 248      5FC6B3CB 
 248      86DAFADC 
 248      A10719
 249 01f3 CB5718D0 		.ascii	"\313W\030\320\307. \005O\015\362\034\331o\323\200\242"
 249      C72E2005 
 249      4F0DF21C 
 249      D96FD380 
 249      A2
 250 0204 B1D74687 		.ascii	"\261\327F\207~\302\256A\377gs\005?\346\263\034$\364"
 250      7EC2AE41 
 250      FF677305 
 250      3FE6B31C 
 250      24F4
 251 0216 A58BF0AD 		.ascii	"\245\213\360\255\350%B\376\016\313}\254\002\226\333"
 251      E82542FE 
 251      0ECB7DAC 
 251      0296DB
 252 0225 6F66FFBF 		.ascii	"of\377\277\314l\007\276\3313\027\272\025\264\333Q\037"
 252      CC6C07BE 
 252      D93317BA 
 252      15B4DB51 
 252      1F
 253 0236 2D8BCFC8 		.ascii	"-\213\317\310\322jV\024\310prp\334\213\245\211\005\246"
 253      D26A5614 
 253      C8707270 
 253      DC8BA589 
 253      05A6
 254 0248 6D395E99 		.ascii	"m9^\231\351\314\027\012\275\331\031\245\027\327\353"
 254      E9CC170A 
 254      BDD919A5 
 254      17D7EB
 255 0257 4671D941 		.ascii	"Fq\331AI\350\222+\"\213\025\351'>\213\325\200\233\325"
 255      49E8922B 
 255      228B15E9 
 255      273E8BD5 
 255      809BD5
 256 026a 1B9EAC4E 		.ascii	"\033\236\254N\332\254\364R\226\320:\311+cd$Q\257\247"
 256      DAACF452 
 256      96D03AC9 
 256      2B636424 
 256      51AFA7
 257 027d 41C1FB01 		.ascii	"A\301\373\001J\301\203W\223\254A7\2557=i]9\276\355F"
 257      4AC18357 
 257      93AC4137 
 257      AD373D69 
 257      5D39BEED 
 258 0292 92EDD20A 		.ascii	"\222\355\322\012\205\021-\214\\\371\242\360\242\204"
ARM GAS  /tmp/ccpKz2wI.s 			page 19


 258      85112D8C 
 258      5CF9A2F0 
 258      A284
 259 02a0 1DF448D8 		.ascii	"\035\364H\330f\3113a]d\240\237\004M\266\012\036\022"
 259      66C93361 
 259      5D64A09F 
 259      044DB60A 
 259      1E12
 260 02b2 C463E01D 		.ascii	"\304c\340\035\362$\372\346\363=\"\242\001\324M'\311"
 260      F224FAE6 
 260      F33D22A2 
 260      01D44D27 
 260      C9
 261 02c3 AF259DF8 		.ascii	"\257%\235\370ik\217\005Lh\272\303\331\036\243\033^R"
 261      696B8F05 
 261      4C68BAC3 
 261      D91EA31B 
 261      5E52
 262 02d5 B08603C0 		.ascii	"\260\206\003\300u\217\344\265\363\031\001j@\033\365"
 262      758FE4B5 
 262      F319016A 
 262      401BF5
 263 02e4 D7FB660F 		.ascii	"\327\373f\017{\357`\3524\342\221\217\375\242|\354e\005"
 263      7BEF60EA 
 263      34E2918F 
 263      FDA27CEC 
 263      6505
 264 02f6 A4632B78 		.ascii	"\244c+x\330\316\207\203\264\201\367\356\304|d\265|o"
 264      D8CE8783 
 264      B481F7EE 
 264      C47C64B5 
 264      7C6F
 265 0308 CF7085FD 		.ascii	"\317p\205\375\0315*X\202KK)5{\330]\034\357M\234#\237"
 265      19352A58 
 265      824B4B29 
 265      357BD85D 
 265      1CEF4D9C 
 266 031e D386DE33 		.ascii	"\323\206\3363j6l\226\354\270w\311^i\2527\3677\361Q\213"
 266      6A366C96 
 266      ECB877C9 
 266      5E69AA37 
 266      F737F151 
 267 0333 A32596EC 		.ascii	"\243%\226\354z\262v\006\266h\035u\323:\346I\353\022"
 267      7AB27606 
 267      B6681D75 
 267      D33AE649 
 267      EB12
 268 0345 474B8F7A 		.ascii	"GK\217z\235\257\224\250O\270\341?\360\204\0378\342\216"
 268      9DAF94A8 
 268      4FB8E13F 
 268      F0841F38 
 268      E28E
 269 0357 FA1F3ECF 		.ascii	"\372\037>\317\250\177l\2626\352q\266QsW\025u\316M\353"
 269      A87F6CB2 
 269      36EA71B6 
 269      51735715 
 269      75CE4DEB 
ARM GAS  /tmp/ccpKz2wI.s 			page 20


 270 036b 234F5AE3 		.ascii	"#OZ\343G\326\233\033`\236\261\377$\324\353\035\270{"
 270      47D69B1B 
 270      609EB1FF 
 270      24D4EB1D 
 270      B87B
 271 037d C78D16DF 		.ascii	"\307\215\026\337q\237xL\230\311\177\375?\015o&\357\320"
 271      719F784C 
 271      98C97FFD 
 271      3F0D6F26 
 271      EFD0
 272 038f 0AFB9355 		.ascii	"\012\373\223U_{&L\250C|\352\011\361\371\326\323~\013"
 272      5F7B264C 
 272      A8437CEA 
 272      09F1F9D6 
 272      D37E0B
 273 03a2 A2F48FF1 		.ascii	"\242\364\217\361\230\363\244\017\241\277\332g\250q\240"
 273      98F3A40F 
 273      A1BFDA67 
 273      A871A0
 274 03b1 E6FBB4EA 		.ascii	"\346\373\264\352MU\223mv\313\230TW{\333*\370K|\033\350"
 274      4D55936D 
 274      76CB9854 
 274      577BDB2A 
 274      F84B7C1B 
 275 03c6 B3FA02B1 		.ascii	"\263\372\002\261Wz\337\354\0250\335\312\347|\302\317"
 275      577ADFEC 
 275      1530DDCA 
 275      E77CC2CF 
 276 03d6 45715751 		.ascii	"EqWQ\214\237\343\220\015\3418H/\010R|\316\231\342\337"
 276      8C9FE390 
 276      0DE13848 
 276      2F08527C 
 276      CE99E2DF 
 277 03ea A21D2497 		.ascii	"\242\035$\227\313\367\236\372\260\2663\243\255\311\222"
 277      CBF79EFA 
 277      B0B633A3 
 277      ADC992
 278 03f9 9F0B058C 		.ascii	"\237\013\005\214\257E\031\232\344\360\246*\005\177a"
 278      AF45199A 
 278      E4F0A62A 
 278      057F61
 279 0408 7FBE9BCD 		.ascii	"\177\276\233\315\351\2473_\336\352\254\320J\301\377"
 279      E9A7335F 
 279      DEEAACD0 
 279      4AC1FF
 280 0417 023CDA58 		.ascii	"\002<\332X\036\211\261\002\314B\024\326\327\\2*\203"
 280      1E89B102 
 280      CC4214D6 
 280      D75C322A 
 280      83
 281 0428 76A7D211 		.ascii	"v\247\322\021\212i\005\321\376\340\376^\270HH\350\262"
 281      8A6905D1 
 281      FEE0FE5E 
 281      B84848E8 
 281      B2
 282 0439 91FADFA0 		.ascii	"\221\372\337\240n\377\213\364\202\364\025c\245\307\257"
 282      6EFF8BF4 
ARM GAS  /tmp/ccpKz2wI.s 			page 21


 282      82F41563 
 282      A5C7AF
 283 0448 0D1E2181 		.ascii	"\015\036!\201L\347:Za\202\330\227\233\200\241b\261\273"
 283      4CE73A5A 
 283      6182D897 
 283      9B80A162 
 283      B1BB
 284 045a AC14FC5D 		.ascii	"\254\024\374]\331\261\177/\210}\232#v\323\012\272\027"
 284      D9B17F2F 
 284      887D9A23 
 284      76D30ABA 
 284      17
 285 046b DC5F0D17 		.ascii	"\334_\015\027\011\011m\364\233\261\277\244\307\376-"
 285      09096DF4 
 285      9BB1BFA4 
 285      C7FE2D
 286 047a 1FFB253B 		.ascii	"\037\373%;v\375\215\0119Z\004r\237\005\371\026\017\351"
 286      76FD8D09 
 286      395A0472 
 286      9F05F916 
 286      0FE9
 287 048c D86433D1 		.ascii	"\330d3\321\013,G\334\225\225T\230@O \353\316:p\341\207"
 287      0B2C47DC 
 287      95955498 
 287      404F20EB 
 287      CE3A70E1 
 288 04a1 5676671D 		.ascii	"Vvg\035\3073\001\272{\212\263r'\205\241I\270\004\256"
 288      C73301BA 
 288      7B8AB372 
 288      2785A149 
 288      B804AE
 289 04b4 BA93BE6F 		.ascii	"\272\223\276o\265\015g*\211_\037G\036\033\301h\267\240"
 289      B50D672A 
 289      895F1F47 
 289      1E1BC168 
 289      B7A0
 290 04c6 2C59B35A 		.ascii	",Y\263Z\333x\206\336_\336\301l\225V\027\275g+x7\333"
 290      DB7886DE 
 290      5FDEC16C 
 290      955617BD 
 290      672B7837 
 291 04db EA93DF6C 		.ascii	"\352\223\337l%\264\201EB)x!Y\013l\256vU\320E\253\347"
 291      25B48145 
 291      42297821 
 291      590B6CAE 
 291      7655D045 
 292 04f1 4C654651 		.ascii	"LeFQ\360ev$\376\263l\260\260\003l\023\017\266\265\024"
 292      F0657624 
 292      FEB36CB0 
 292      B0036C13 
 292      0FB6B514 
 293 0505 B08098D9 		.ascii	"\260\200\230\331\026\036,[6\230\223\3316\036\254\257"
 293      161E2C5B 
 293      369893D9 
 293      361EACAF 
 294 0515 14B01962 		.ascii	"\024\260\031bf\333y\260\376\262\301\234\314\366\363"
 294      66DB79B0 
ARM GAS  /tmp/ccpKz2wI.s 			page 22


 294      FEB2C19C 
 294      CCF6F3
 295 0524 60AF9602 		.ascii	"`\257\226\002V-f6\300\203\015\224\015\346d\366\006\017"
 295      562D6636 
 295      C0830D94 
 295      0DE664F6 
 295      060F
 296 0536 76A014B0 		.ascii	"v\240\024\260\260\230\331 \017\366V\331`Nf\007x\260"
 296      B098D920 
 296      0FF656D9 
 296      604E6607 
 296      78B0
 297 0548 B74B01BB 		.ascii	"\267K\001\273S\314l\210\007;\\6\230\223\331!\036\354"
 297      53CC6C88 
 297      073B5C36 
 297      9893D921 
 297      1EEC
 298 055a 582960F7 		.ascii	"X)`\367\211\230uj\303\217g\024\363\020\240_\364\313"
 298      8998756A 
 298      C38F6714 
 298      F310A05F 
 298      F4CB
 299 056c F6210017 		.ascii	"\366!\000\027iGi\361f\375b3\005o\224\312=,z$\357\303"
 299      694769F1 
 299      66FD6233 
 299      056F94CA 
 299      3D2C7A24 
 300 0582 C2BE09F0 		.ascii	"\302\276\011\360V\020\366\011w\330N\026^q;\223\230\343"
 300      5610F609 
 300      77D84E16 
 300      5E713B93 
 300      98E3
 301 0594 93F85129 		.ascii	"\223\370Q)I\234'\006;\311\203\235*\005\254^\\+\243<"
 301      499C2706 
 301      3BC9839D 
 301      2A05AC5E 
 301      5C2BA33C 
 302 05a8 D858D960 		.ascii	"\330X\331`Nf\247x\260\263\245\200-\0253\373\224\007"
 302      4E66A778 
 302      B0B3A580 
 302      2D1533FB 
 302      9407
 303 05ba 3B5F3618 		.ascii	";_6\030\317\254S\033\263\013/;\317Uy\363\234_[\207Y"
 303      CFAC531B 
 303      B30B2F3B 
 303      CF5579F3 
 303      9C5F5B87 
 304 05cf BFD00C6E 		.ascii	"\277\320\014n\370e\027^\237\240\360\370\373\255m\005"
 304      F865175E 
 304      9FA0F0F8 
 304      FBAD6D05 
 305 05df 61FFDB1D 		.ascii	"a\377\333\035\266\203\204\321]\356\221C\257\306\237"
 305      B68384D1 
 305      5DEE9143 
 305      AFC69F
 306 05ee F70AFE91 		.ascii	"\367\012\376\221\035\310?\341[@_a\372\027\246\013Lw"
 306      1DC83FE1 
ARM GAS  /tmp/ccpKz2wI.s 			page 23


 306      5B405F61 
 306      FA17A60B 
 306      4C77
 307 0600 4A54AF66 		.ascii	"JT\257fz-\323\335L\377\205\351\347\230^\317\364\337"
 307      7A2DD3DD 
 307      4CFF85E9 
 307      E7985ECF 
 307      F4DF
 308 0612 987E81E9 		.ascii	"\230~\201\351\015Lobz\013\323\333\230\336\316t\226\351"
 308      0D4C6F62 
 308      7A0BD3DB 
 308      98DECE74 
 308      96E9
 309 0624 9DA0AD26 		.ascii	"\235\240\255&J\324E\373\206\036F\275\220\334\374\332"
 309      4AD445FB 
 309      861E46BD 
 309      90DCFCDA 
 310 0634 F3C12EBF 		.ascii	"\363\301.\277\365\277m\210\377\337\246[h\207\236'\222"
 310      F5BF6D88 
 310      FFDFA65B 
 310      68879E27 
 310      92
 311 0645 64590CF3 		.ascii	"dY\014\363\026\216\013\226\376wJ4\363n)$\360\032)\342"
 311      168E0B96 
 311      FE774A34 
 311      F36E2924 
 311      F01A29E2 
 312 0659 B547E835 		.ascii	"\265G\3505V\304\353\025\241\027\275f\213\274^\025z\355"
 312      56C4EB15 
 312      A117BD66 
 312      8BBC5E15 
 312      7AED
 313 066b 2C32D76B 		.ascii	",2\327kB\257o\213\314\265W\350u\260\310\\\373$\367\352"
 313      42AF6F8B 
 313      CCB557E8 
 313      75B0C85C 
 313      FB24F7EA 
 314 067f 6DEF2960 		.ascii	"m\357)`\262&`\255\316\250\343\177\367\357S\311\025\221"
 314      B22660AD 
 314      CEA8E37F 
 314      F7EF53C9 
 314      1591
 315 0691 68737245 		.ascii	"hsrE\362\321F\271\366\376\232\332\232\271\221H[:\322"
 315      F2D146B9 
 315      F6FE9ADA 
 315      9AB99148 
 315      5B3AD2
 316 06a4 ACA4222B 		.ascii	"\254\244\"+\333\332\325t\244qY\303\234\272\310\222%"
 316      DBDAD574 
 316      A47159C3 
 316      9CBAC892 
 316      25
 317 06b5 0B22CB16 		.ascii	"\013\"\313\0267<S\033I\253r*\325T\323\214\"\002\327"
 317      373C531B 
 317      49AB722A 
 317      D554D38C 
 317      2202D7
ARM GAS  /tmp/ccpKz2wI.s 			page 24


 318 06c8 7635926C 		.ascii	"v5\222l\215\247:\232\022\221xszUZ]\2652\221\006\373"
 318      8DA73A9A 
 318      12917873 
 318      7A555A5D 
 318      B5329106 
 319 06dd 20ED275B 		.ascii	" \355'[\022\262Z\261\350\221\307\302QtS\244#\335n\331"
 319      12B25AB1 
 319      E891C7C2 
 319      517453A4 
 319      23DD6ED9 
 320 06f1 B6269EA5 		.ascii	"\266&\236\245\200i\265)\331\252\202y\240\003\236s\352"
 320      8069B529 
 320      D9AA8279 
 320      A0039E73 
 320      EA
 321 0702 64F55E2F 		.ascii	"d\365^/\263\026%\336\234lMD\344\246\304\223JGJ\225\315"
 321      B31625DE 
 321      9C6C4D44 
 321      E4A6C493 
 321      4A474A95 
 322 0717 59A6C9B2 		.ascii	"Y\246\311\262\3518S\247*\247U\245]\225\225\224\322\336"
 322      E93853A7 
 322      2AA755A5 
 322      5D959594 
 322      D2DE
 323 0729 E2A704AE 		.ascii	"\342\247\004\256\265\306\333V\352\3033\314\221\204\352"
 323      B5C6DB56 
 323      EAC333CC 
 323      9184EA
 324 0738 1C78CA1C 		.ascii	"\034x\312\034\230\"?\334\326\226\232e\014'\323\372\250"
 324      98223FDC 
 324      D6969A65 
 324      0C27D3FA 
 324      A8
 325 0749 ACC4D5E4 		.ascii	"\254\304\325\3443\211[\213$1\335\036\207\230j\342\250"
 325      33895B8B 
 325      2431DD1E 
 325      87986AE2 
 325      A8
 326 075a 22AD2E6E 		.ascii	"\"\255.nM\252\225i\265\221\362\231O\375\247*+XJBt\260"
 326      4DAA9569 
 326      B591F299 
 326      4FFDA72A 
 326      2B584A42 
 327 0770 6D251B9B 		.ascii	"m%\033\233\006\375\204jv\027\031\335\22093@\314.1\361"
 327      06FD846A 
 327      761719DD 
 327      90393340 
 327      CC2E31F1 
 328 0784 900D7FBC 		.ascii	"\220\015\177\274Yi\017\306\233\033W\245\353\225\224"
 328      59690FC6 
 328      9B1B57A5 
 328      EB9594
 329 0793 1A90E527 		.ascii	"\032\220\345';Z\343\262<\335\354\324<0\267\356\201\351"
 329      3B5AE3B2 
 329      3CDDECD4 
 329      3C30B7EE 
ARM GAS  /tmp/ccpKz2wI.s 			page 25


 329      81E9
 330 07a5 3C27C4BF 		.ascii	"<'\304\277\23337d\323q\276\371]\310f\207\376x\025e\324"
 330      9B333764 
 330      D371BEF9 
 330      5DC86687 
 330      FE781565 
 331 07ba 42D728D9 		.ascii	"B\327(\331\002,C\326\017Y\365Ec\265 u\376\306\206h\314"
 331      022C43D6 
 331      0F59F545 
 331      63B52075 
 331      FEC68668 
 332 07cf BF       		.ascii	"\277"
 333 07d0 60F1C298 		.ascii	"`\361\302\230\324\030\363-\\\024\233\022\2156\304j\231"
 333      D418F32D 
 333      5C149B12 
 333      8D36C46A 
 333      99
 334 07e1 AEF347A3 		.ascii	"\256\363G\243\013c\276\350#\313|K\033\243\276\371\261"
 334      0B63BEE8 
 334      23CB7C4B 
 334      1BA3BEF9 
 334      B1
 335 07f2 982F1685 		.ascii	"\230/\026\205\337\340\360\360\202e1\337\002\352\331"
 335      DFE0F0F0 
 335      826531DF 
 335      02EAD9
 336 0801 303F263D 		.ascii	"0?&=\252{\315\001\373\345\261_\001\242xu\034"
 336      AA7BCD01 
 336      FBE5B15F 
 336      01A27875 
 336      1C
 337              		.text
 338              		.section	.gnu.lto_.symtab.2528668fe3ba3748,"",%progbits
 339 0000 7374496E 		.ascii	"stInit\000\000\000\000\000\000\000\000\000\000\000\000"
 339      69740000 
 339      00000000 
 339      00000000 
 339      0000
 340 0012 C5000000 		.ascii	"\305\000\000\000stStartAlarm\000\000\000\000\000\000"
 340      73745374 
 340      61727441 
 340      6C61726D 
 340      00000000 
 341 0028 00000000 		.ascii	"\000\000\000\000\000\000\310\000\000\000stStopAlarm"
 341      0000C800 
 341      00007374 
 341      53746F70 
 341      416C6172 
 342 003d 00000000 		.ascii	"\000\000\000\000\000\000\000\000\000\000\000\000\315"
 342      00000000 
 342      00000000 
 342      CD
 343 004a 00000073 		.ascii	"\000\000\000stSetAlarm\000\000\000\000\000\000\000\000"
 343      74536574 
 343      416C6172 
 343      6D000000 
 343      00000000 
ARM GAS  /tmp/ccpKz2wI.s 			page 26


 344 005f 00000000 		.ascii	"\000\000\000\000\320\000\000\000stGetAlarm\000\000\000"
 344      D0000000 
 344      73744765 
 344      74416C61 
 344      726D0000 
 345 0074 00000000 		.ascii	"\000\000\000\000\000\000\000\000\000\324\000\000\000"
 345      00000000 
 345      00D40000 
 345      00
 346 0081 73745F6C 		.ascii	"st_lld_init\000\000\002\000\000\000\000\000\000\000"
 346      6C645F69 
 346      6E697400 
 346      00020000 
 346      00000000 
 347 0096 0000D700 		.ascii	"\000\000\327\000\000\000chSysHalt\000\000\002\000\000"
 347      00006368 
 347      53797348 
 347      616C7400 
 347      00020000 
 348 00aa 00000000 		.ascii	"\000\000\000\000\000\000\000\331\000\000\000"
 348      000000D9 
 348      000000
 349              		.text
 350              		.section	.gnu.lto_.opts,"",%progbits
 351 0000 272D6D63 		.ascii	"'-mcpu=cortex-m4' '-mno-thumb-interwork' '-mthumb' "
 351      70753D63 
 351      6F727465 
 351      782D6D34 
 351      2720272D 
 352 0033 272D6767 		.ascii	"'-ggdb' '-O0' '-fomit-frame-pointer' '-falign-funct"
 352      64622720 
 352      272D4F30 
 352      2720272D 
 352      666F6D69 
 353 0066 696F6E73 		.ascii	"ions=16' '-ffunction-sections' '-fdata-sections' '-"
 353      3D313627 
 353      20272D66 
 353      66756E63 
 353      74696F6E 
 354 0099 666E6F2D 		.ascii	"fno-common' '-flto'\000"
 354      636F6D6D 
 354      6F6E2720 
 354      272D666C 
 354      746F2700 
 355              		.text
 356              		.cfi_sections	.debug_frame
 357              		.section	.text.st_lld_start_alarm,"ax",%progbits
 358              		.align	2
 359              		.p2align 4,,15
 360              		.thumb
 361              		.thumb_func
 362              		.type	st_lld_start_alarm, %function
 363              	st_lld_start_alarm:
 364              	.LFB137:
 365              		.file 1 "lib/ChibiOS_16.1.4//os/hal/ports/STM32/LLD/TIMv1/st_lld.h"
 366              		.loc 1 153 0
 367              		.cfi_startproc
ARM GAS  /tmp/ccpKz2wI.s 			page 27


 368              		@ args = 0, pretend = 0, frame = 8
 369              		@ frame_needed = 0, uses_anonymous_args = 0
 370              		@ link register save eliminated.
 371 0000 82B0     		sub	sp, sp, #8
 372              		.cfi_def_cfa_offset 8
 373 0002 0190     		str	r0, [sp, #4]
 374              		.loc 1 155 0
 375 0004 4FF08043 		mov	r3, #1073741824
 376 0008 019A     		ldr	r2, [sp, #4]
 377 000a 5A63     		str	r2, [r3, #52]
 378              		.loc 1 156 0
 379 000c 4FF08043 		mov	r3, #1073741824
 380 0010 0022     		movs	r2, #0
 381 0012 1A61     		str	r2, [r3, #16]
 382              		.loc 1 157 0
 383 0014 4FF08043 		mov	r3, #1073741824
 384 0018 0222     		movs	r2, #2
 385 001a DA60     		str	r2, [r3, #12]
 386              		.loc 1 158 0
 387 001c 02B0     		add	sp, sp, #8
 388              		@ sp needed
 389 001e 7047     		bx	lr
 390              		.cfi_endproc
 391              	.LFE137:
 392              		.size	st_lld_start_alarm, .-st_lld_start_alarm
 393              		.section	.text.st_lld_stop_alarm,"ax",%progbits
 394              		.align	2
 395              		.p2align 4,,15
 396              		.thumb
 397              		.thumb_func
 398              		.type	st_lld_stop_alarm, %function
 399              	st_lld_stop_alarm:
 400              	.LFB138:
 401              		.loc 1 165 0
 402              		.cfi_startproc
 403              		@ args = 0, pretend = 0, frame = 0
 404              		@ frame_needed = 0, uses_anonymous_args = 0
 405              		@ link register save eliminated.
 406              		.loc 1 167 0
 407 0000 4FF08043 		mov	r3, #1073741824
 408 0004 0022     		movs	r2, #0
 409 0006 DA60     		str	r2, [r3, #12]
 410              		.loc 1 168 0
 411 0008 7047     		bx	lr
 412              		.cfi_endproc
 413              	.LFE138:
 414              		.size	st_lld_stop_alarm, .-st_lld_stop_alarm
 415 000a 00BFAFF3 		.section	.text.st_lld_set_alarm,"ax",%progbits
 415      0080
 416              		.align	2
 417              		.p2align 4,,15
 418              		.thumb
 419              		.thumb_func
 420              		.type	st_lld_set_alarm, %function
 421              	st_lld_set_alarm:
 422              	.LFB139:
 423              		.loc 1 177 0
ARM GAS  /tmp/ccpKz2wI.s 			page 28


 424              		.cfi_startproc
 425              		@ args = 0, pretend = 0, frame = 8
 426              		@ frame_needed = 0, uses_anonymous_args = 0
 427              		@ link register save eliminated.
 428 0000 82B0     		sub	sp, sp, #8
 429              		.cfi_def_cfa_offset 8
 430 0002 0190     		str	r0, [sp, #4]
 431              		.loc 1 179 0
 432 0004 4FF08043 		mov	r3, #1073741824
 433 0008 019A     		ldr	r2, [sp, #4]
 434 000a 5A63     		str	r2, [r3, #52]
 435              		.loc 1 180 0
 436 000c 02B0     		add	sp, sp, #8
 437              		@ sp needed
 438 000e 7047     		bx	lr
 439              		.cfi_endproc
 440              	.LFE139:
 441              		.size	st_lld_set_alarm, .-st_lld_set_alarm
 442              		.section	.text.st_lld_get_alarm,"ax",%progbits
 443              		.align	2
 444              		.p2align 4,,15
 445              		.thumb
 446              		.thumb_func
 447              		.type	st_lld_get_alarm, %function
 448              	st_lld_get_alarm:
 449              	.LFB140:
 450              		.loc 1 189 0
 451              		.cfi_startproc
 452              		@ args = 0, pretend = 0, frame = 0
 453              		@ frame_needed = 0, uses_anonymous_args = 0
 454              		@ link register save eliminated.
 455              		.loc 1 191 0
 456 0000 4FF08043 		mov	r3, #1073741824
 457 0004 5B6B     		ldr	r3, [r3, #52]
 458              		.loc 1 192 0
 459 0006 1846     		mov	r0, r3
 460 0008 7047     		bx	lr
 461              		.cfi_endproc
 462              	.LFE140:
 463              		.size	st_lld_get_alarm, .-st_lld_get_alarm
 464 000a 00BFAFF3 		.section	.text.st_lld_is_alarm_active,"ax",%progbits
 464      0080
 465              		.align	2
 466              		.p2align 4,,15
 467              		.thumb
 468              		.thumb_func
 469              		.type	st_lld_is_alarm_active, %function
 470              	st_lld_is_alarm_active:
 471              	.LFB141:
 472              		.loc 1 203 0
 473              		.cfi_startproc
 474              		@ args = 0, pretend = 0, frame = 0
 475              		@ frame_needed = 0, uses_anonymous_args = 0
 476              		@ link register save eliminated.
 477              		.loc 1 205 0
 478 0000 4FF08043 		mov	r3, #1073741824
 479 0004 DB68     		ldr	r3, [r3, #12]
ARM GAS  /tmp/ccpKz2wI.s 			page 29


 480 0006 03F00203 		and	r3, r3, #2
 481 000a 002B     		cmp	r3, #0
 482 000c 0CBF     		ite	eq
 483 000e 0023     		moveq	r3, #0
 484 0010 0123     		movne	r3, #1
 485 0012 DBB2     		uxtb	r3, r3
 486              		.loc 1 206 0
 487 0014 1846     		mov	r0, r3
 488 0016 7047     		bx	lr
 489              		.cfi_endproc
 490              	.LFE141:
 491              		.size	st_lld_is_alarm_active, .-st_lld_is_alarm_active
 492 0018 AFF30080 		.section	.text.stInit,"ax",%progbits
 492      AFF30080 
 493              		.align	2
 494              		.p2align 4,,15
 495              		.global	stInit
 496              		.thumb
 497              		.thumb_func
 498              		.type	stInit, %function
 499              	stInit:
 500              	.LFB272:
 501              		.file 2 "lib/ChibiOS_16.1.4//os/hal/src/st.c"
 502              		.loc 2 60 0
 503              		.cfi_startproc
 504              		@ args = 0, pretend = 0, frame = 0
 505              		@ frame_needed = 0, uses_anonymous_args = 0
 506 0000 08B5     		push	{r3, lr}
 507              		.cfi_def_cfa_offset 8
 508              		.cfi_offset 3, -8
 509              		.cfi_offset 14, -4
 510              		.loc 2 62 0
 511 0002 FFF7FEFF 		bl	st_lld_init
 512              		.loc 2 63 0
 513 0006 08BD     		pop	{r3, pc}
 514              		.cfi_endproc
 515              	.LFE272:
 516              		.size	stInit, .-stInit
 517 0008 AFF30080 		.section	.text.stStartAlarm,"ax",%progbits
 517      AFF30080 
 518              		.align	2
 519              		.p2align 4,,15
 520              		.global	stStartAlarm
 521              		.thumb
 522              		.thumb_func
 523              		.type	stStartAlarm, %function
 524              	stStartAlarm:
 525              	.LFB273:
 526              		.loc 2 77 0
 527              		.cfi_startproc
 528              		@ args = 0, pretend = 0, frame = 8
 529              		@ frame_needed = 0, uses_anonymous_args = 0
 530 0000 00B5     		push	{lr}
 531              		.cfi_def_cfa_offset 4
 532              		.cfi_offset 14, -4
 533 0002 83B0     		sub	sp, sp, #12
 534              		.cfi_def_cfa_offset 16
ARM GAS  /tmp/ccpKz2wI.s 			page 30


 535 0004 0190     		str	r0, [sp, #4]
 536              		.loc 2 79 0
 537 0006 FFF7FEFF 		bl	st_lld_is_alarm_active
 538 000a 0346     		mov	r3, r0
 539 000c 002B     		cmp	r3, #0
 540 000e 05D0     		beq	.L10
 541              		.loc 2 79 0 is_stmt 0 discriminator 1
 542 0010 40F20000 		movw	r0, #:lower16:__func__.7427
 543 0014 C0F20000 		movt	r0, #:upper16:__func__.7427
 544 0018 FFF7FEFF 		bl	chSysHalt
 545              	.L10:
 546              		.loc 2 81 0 is_stmt 1
 547 001c 0198     		ldr	r0, [sp, #4]
 548 001e FFF7FEFF 		bl	st_lld_start_alarm
 549              		.loc 2 82 0
 550 0022 03B0     		add	sp, sp, #12
 551              		@ sp needed
 552 0024 5DF804FB 		ldr	pc, [sp], #4
 553              		.cfi_endproc
 554              	.LFE273:
 555              		.size	stStartAlarm, .-stStartAlarm
 556 0028 AFF30080 		.section	.text.stStopAlarm,"ax",%progbits
 556      AFF30080 
 557              		.align	2
 558              		.p2align 4,,15
 559              		.global	stStopAlarm
 560              		.thumb
 561              		.thumb_func
 562              		.type	stStopAlarm, %function
 563              	stStopAlarm:
 564              	.LFB274:
 565              		.loc 2 91 0
 566              		.cfi_startproc
 567              		@ args = 0, pretend = 0, frame = 0
 568              		@ frame_needed = 0, uses_anonymous_args = 0
 569 0000 08B5     		push	{r3, lr}
 570              		.cfi_def_cfa_offset 8
 571              		.cfi_offset 3, -8
 572              		.cfi_offset 14, -4
 573              		.loc 2 93 0
 574 0002 FFF7FEFF 		bl	st_lld_stop_alarm
 575              		.loc 2 94 0
 576 0006 08BD     		pop	{r3, pc}
 577              		.cfi_endproc
 578              	.LFE274:
 579              		.size	stStopAlarm, .-stStopAlarm
 580 0008 AFF30080 		.section	.text.stSetAlarm,"ax",%progbits
 580      AFF30080 
 581              		.align	2
 582              		.p2align 4,,15
 583              		.global	stSetAlarm
 584              		.thumb
 585              		.thumb_func
 586              		.type	stSetAlarm, %function
 587              	stSetAlarm:
 588              	.LFB275:
 589              		.loc 2 105 0
ARM GAS  /tmp/ccpKz2wI.s 			page 31


 590              		.cfi_startproc
 591              		@ args = 0, pretend = 0, frame = 8
 592              		@ frame_needed = 0, uses_anonymous_args = 0
 593 0000 00B5     		push	{lr}
 594              		.cfi_def_cfa_offset 4
 595              		.cfi_offset 14, -4
 596 0002 83B0     		sub	sp, sp, #12
 597              		.cfi_def_cfa_offset 16
 598 0004 0190     		str	r0, [sp, #4]
 599              		.loc 2 107 0
 600 0006 FFF7FEFF 		bl	st_lld_is_alarm_active
 601 000a 0346     		mov	r3, r0
 602 000c 83F00103 		eor	r3, r3, #1
 603 0010 DBB2     		uxtb	r3, r3
 604 0012 002B     		cmp	r3, #0
 605 0014 05D0     		beq	.L13
 606              		.loc 2 107 0 is_stmt 0 discriminator 1
 607 0016 40F20000 		movw	r0, #:lower16:__func__.7434
 608 001a C0F20000 		movt	r0, #:upper16:__func__.7434
 609 001e FFF7FEFF 		bl	chSysHalt
 610              	.L13:
 611              		.loc 2 109 0 is_stmt 1
 612 0022 0198     		ldr	r0, [sp, #4]
 613 0024 FFF7FEFF 		bl	st_lld_set_alarm
 614              		.loc 2 110 0
 615 0028 03B0     		add	sp, sp, #12
 616              		@ sp needed
 617 002a 5DF804FB 		ldr	pc, [sp], #4
 618              		.cfi_endproc
 619              	.LFE275:
 620              		.size	stSetAlarm, .-stSetAlarm
 621 002e 00BF     		.section	.text.stGetAlarm,"ax",%progbits
 622              		.align	2
 623              		.p2align 4,,15
 624              		.global	stGetAlarm
 625              		.thumb
 626              		.thumb_func
 627              		.type	stGetAlarm, %function
 628              	stGetAlarm:
 629              	.LFB276:
 630              		.loc 2 121 0
 631              		.cfi_startproc
 632              		@ args = 0, pretend = 0, frame = 0
 633              		@ frame_needed = 0, uses_anonymous_args = 0
 634 0000 08B5     		push	{r3, lr}
 635              		.cfi_def_cfa_offset 8
 636              		.cfi_offset 3, -8
 637              		.cfi_offset 14, -4
 638              		.loc 2 123 0
 639 0002 FFF7FEFF 		bl	st_lld_is_alarm_active
 640 0006 0346     		mov	r3, r0
 641 0008 83F00103 		eor	r3, r3, #1
 642 000c DBB2     		uxtb	r3, r3
 643 000e 002B     		cmp	r3, #0
 644 0010 05D0     		beq	.L15
 645              		.loc 2 123 0 is_stmt 0 discriminator 1
 646 0012 40F20000 		movw	r0, #:lower16:__func__.7438
ARM GAS  /tmp/ccpKz2wI.s 			page 32


 647 0016 C0F20000 		movt	r0, #:upper16:__func__.7438
 648 001a FFF7FEFF 		bl	chSysHalt
 649              	.L15:
 650              		.loc 2 125 0 is_stmt 1
 651 001e FFF7FEFF 		bl	st_lld_get_alarm
 652 0022 0346     		mov	r3, r0
 653              		.loc 2 126 0
 654 0024 1846     		mov	r0, r3
 655 0026 08BD     		pop	{r3, pc}
 656              		.cfi_endproc
 657              	.LFE276:
 658              		.size	stGetAlarm, .-stGetAlarm
 659 0028 AFF30080 		.section	.rodata.__func__.7427,"a",%progbits
 659      AFF30080 
 660              		.align	2
 661              		.type	__func__.7427, %object
 662              		.size	__func__.7427, 13
 663              	__func__.7427:
 664 0000 73745374 		.ascii	"stStartAlarm\000"
 664      61727441 
 664      6C61726D 
 664      00
 665 000d 000000   		.section	.rodata.__func__.7434,"a",%progbits
 666              		.align	2
 667              		.type	__func__.7434, %object
 668              		.size	__func__.7434, 11
 669              	__func__.7434:
 670 0000 73745365 		.ascii	"stSetAlarm\000"
 670      74416C61 
 670      726D00
 671 000b 00       		.section	.rodata.__func__.7438,"a",%progbits
 672              		.align	2
 673              		.type	__func__.7438, %object
 674              		.size	__func__.7438, 11
 675              	__func__.7438:
 676 0000 73744765 		.ascii	"stGetAlarm\000"
 676      74416C61 
 676      726D00
 677 000b 00       		.text
 678              	.Letext0:
 679              		.file 3 "/usr/include/newlib/machine/_default_types.h"
 680              		.file 4 "/usr/include/newlib/stdint.h"
 681              		.file 5 "lib/ChibiOS_16.1.4//os/rt/ports/ARMCMx/compilers/GCC/chtypes.h"
 682              		.file 6 "lib/ChibiOS_16.1.4//os/rt/include/chsystypes.h"
 683              		.file 7 "lib/ChibiOS_16.1.4//os/rt/include/chschd.h"
 684              		.file 8 "lib/ChibiOS_16.1.4//os/rt/ports/ARMCMx/chcore.h"
 685              		.file 9 "lib/ChibiOS_16.1.4//os/rt/ports/ARMCMx/chcore_v7m.h"
 686              		.file 10 "lib/ChibiOS_16.1.4//os/hal/ports/STM32/LLD/TIMv1/stm32_tim.h"
 687              		.file 11 "lib/ChibiOS_16.1.4//os/rt/include/chdebug.h"
 688              		.file 12 "lib/ChibiOS_16.1.4//os/rt/include/chtm.h"
 689              		.file 13 "lib/ChibiOS_16.1.4//os/rt/include/chstats.h"
 690              		.file 14 "lib/ChibiOS_16.1.4//os/rt/include/chsem.h"
 691              		.file 15 "lib/ChibiOS_16.1.4//os/rt/include/chmtx.h"
 692              		.file 16 "lib/ChibiOS_16.1.4//os/ext/CMSIS/include/core_cm4.h"
 693              		.section	.debug_info,"",%progbits
 694              	.Ldebug_info0:
 695 0000 730A0000 		.4byte	0xa73
ARM GAS  /tmp/ccpKz2wI.s 			page 33


 696 0004 0400     		.2byte	0x4
 697 0006 00000000 		.4byte	.Ldebug_abbrev0
 698 000a 04       		.byte	0x4
 699 000b 01       		.uleb128 0x1
 700 000c C9020000 		.4byte	.LASF153
 701 0010 01       		.byte	0x1
 702 0011 11040000 		.4byte	.LASF154
 703 0015 27010000 		.4byte	.LASF155
 704 0019 00000000 		.4byte	.Ldebug_ranges0+0
 705 001d 00000000 		.4byte	0
 706 0021 00000000 		.4byte	.Ldebug_line0
 707 0025 02       		.uleb128 0x2
 708 0026 04       		.byte	0x4
 709 0027 05       		.byte	0x5
 710 0028 696E7400 		.ascii	"int\000"
 711 002c 03       		.uleb128 0x3
 712 002d 04       		.byte	0x4
 713 002e 07       		.byte	0x7
 714 002f 44020000 		.4byte	.LASF0
 715 0033 03       		.uleb128 0x3
 716 0034 01       		.byte	0x1
 717 0035 06       		.byte	0x6
 718 0036 1B010000 		.4byte	.LASF1
 719 003a 04       		.uleb128 0x4
 720 003b 3C000000 		.4byte	.LASF5
 721 003f 03       		.byte	0x3
 722 0040 1C       		.byte	0x1c
 723 0041 45000000 		.4byte	0x45
 724 0045 03       		.uleb128 0x3
 725 0046 01       		.byte	0x1
 726 0047 08       		.byte	0x8
 727 0048 EA040000 		.4byte	.LASF2
 728 004c 03       		.uleb128 0x3
 729 004d 02       		.byte	0x2
 730 004e 05       		.byte	0x5
 731 004f 02050000 		.4byte	.LASF3
 732 0053 03       		.uleb128 0x3
 733 0054 02       		.byte	0x2
 734 0055 07       		.byte	0x7
 735 0056 AA010000 		.4byte	.LASF4
 736 005a 04       		.uleb128 0x4
 737 005b 9D030000 		.4byte	.LASF6
 738 005f 03       		.byte	0x3
 739 0060 37       		.byte	0x37
 740 0061 65000000 		.4byte	0x65
 741 0065 03       		.uleb128 0x3
 742 0066 04       		.byte	0x4
 743 0067 05       		.byte	0x5
 744 0068 67010000 		.4byte	.LASF7
 745 006c 04       		.uleb128 0x4
 746 006d 04060000 		.4byte	.LASF8
 747 0071 03       		.byte	0x3
 748 0072 38       		.byte	0x38
 749 0073 77000000 		.4byte	0x77
 750 0077 03       		.uleb128 0x3
 751 0078 04       		.byte	0x4
 752 0079 07       		.byte	0x7
ARM GAS  /tmp/ccpKz2wI.s 			page 34


 753 007a A9050000 		.4byte	.LASF9
 754 007e 03       		.uleb128 0x3
 755 007f 08       		.byte	0x8
 756 0080 05       		.byte	0x5
 757 0081 8C010000 		.4byte	.LASF10
 758 0085 04       		.uleb128 0x4
 759 0086 8C040000 		.4byte	.LASF11
 760 008a 03       		.byte	0x3
 761 008b 4E       		.byte	0x4e
 762 008c 90000000 		.4byte	0x90
 763 0090 03       		.uleb128 0x3
 764 0091 08       		.byte	0x8
 765 0092 07       		.byte	0x7
 766 0093 8B000000 		.4byte	.LASF12
 767 0097 04       		.uleb128 0x4
 768 0098 29050000 		.4byte	.LASF13
 769 009c 04       		.byte	0x4
 770 009d 2A       		.byte	0x2a
 771 009e 3A000000 		.4byte	0x3a
 772 00a2 04       		.uleb128 0x4
 773 00a3 E2040000 		.4byte	.LASF14
 774 00a7 04       		.byte	0x4
 775 00a8 41       		.byte	0x41
 776 00a9 5A000000 		.4byte	0x5a
 777 00ad 04       		.uleb128 0x4
 778 00ae 78050000 		.4byte	.LASF15
 779 00b2 04       		.byte	0x4
 780 00b3 42       		.byte	0x42
 781 00b4 6C000000 		.4byte	0x6c
 782 00b8 04       		.uleb128 0x4
 783 00b9 26000000 		.4byte	.LASF16
 784 00bd 04       		.byte	0x4
 785 00be 4E       		.byte	0x4e
 786 00bf 85000000 		.4byte	0x85
 787 00c3 04       		.uleb128 0x4
 788 00c4 3B060000 		.4byte	.LASF17
 789 00c8 05       		.byte	0x5
 790 00c9 39       		.byte	0x39
 791 00ca AD000000 		.4byte	0xad
 792 00ce 04       		.uleb128 0x4
 793 00cf F9000000 		.4byte	.LASF18
 794 00d3 05       		.byte	0x5
 795 00d4 3A       		.byte	0x3a
 796 00d5 B8000000 		.4byte	0xb8
 797 00d9 04       		.uleb128 0x4
 798 00da 70010000 		.4byte	.LASF19
 799 00de 05       		.byte	0x5
 800 00df 3C       		.byte	0x3c
 801 00e0 97000000 		.4byte	0x97
 802 00e4 04       		.uleb128 0x4
 803 00e5 78010000 		.4byte	.LASF20
 804 00e9 05       		.byte	0x5
 805 00ea 3D       		.byte	0x3d
 806 00eb 97000000 		.4byte	0x97
 807 00ef 04       		.uleb128 0x4
 808 00f0 A2040000 		.4byte	.LASF21
 809 00f4 05       		.byte	0x5
ARM GAS  /tmp/ccpKz2wI.s 			page 35


 810 00f5 3E       		.byte	0x3e
 811 00f6 97000000 		.4byte	0x97
 812 00fa 04       		.uleb128 0x4
 813 00fb CB040000 		.4byte	.LASF22
 814 00ff 05       		.byte	0x5
 815 0100 40       		.byte	0x40
 816 0101 AD000000 		.4byte	0xad
 817 0105 04       		.uleb128 0x4
 818 0106 9D020000 		.4byte	.LASF23
 819 010a 05       		.byte	0x5
 820 010b 41       		.byte	0x41
 821 010c A2000000 		.4byte	0xa2
 822 0110 04       		.uleb128 0x4
 823 0111 91030000 		.4byte	.LASF24
 824 0115 05       		.byte	0x5
 825 0116 43       		.byte	0x43
 826 0117 AD000000 		.4byte	0xad
 827 011b 04       		.uleb128 0x4
 828 011c 33020000 		.4byte	.LASF25
 829 0120 05       		.byte	0x5
 830 0121 45       		.byte	0x45
 831 0122 A2000000 		.4byte	0xa2
 832 0126 04       		.uleb128 0x4
 833 0127 A8020000 		.4byte	.LASF26
 834 012b 05       		.byte	0x5
 835 012c 46       		.byte	0x46
 836 012d AD000000 		.4byte	0xad
 837 0131 04       		.uleb128 0x4
 838 0132 E6050000 		.4byte	.LASF27
 839 0136 06       		.byte	0x6
 840 0137 33       		.byte	0x33
 841 0138 AD000000 		.4byte	0xad
 842 013c 04       		.uleb128 0x4
 843 013d D1050000 		.4byte	.LASF28
 844 0141 06       		.byte	0x6
 845 0142 3F       		.byte	0x3f
 846 0143 47010000 		.4byte	0x147
 847 0147 05       		.uleb128 0x5
 848 0148 8B020000 		.4byte	.LASF50
 849 014c 60       		.byte	0x60
 850 014d 07       		.byte	0x7
 851 014e C2       		.byte	0xc2
 852 014f 4D020000 		.4byte	0x24d
 853 0153 06       		.uleb128 0x6
 854 0154 22050000 		.4byte	.LASF29
 855 0158 07       		.byte	0x7
 856 0159 C3       		.byte	0xc3
 857 015a 58020000 		.4byte	0x258
 858 015e 00       		.byte	0
 859 015f 06       		.uleb128 0x6
 860 0160 C4040000 		.4byte	.LASF30
 861 0164 07       		.byte	0x7
 862 0165 C5       		.byte	0xc5
 863 0166 58020000 		.4byte	0x258
 864 016a 04       		.byte	0x4
 865 016b 06       		.uleb128 0x6
 866 016c 02010000 		.4byte	.LASF31
ARM GAS  /tmp/ccpKz2wI.s 			page 36


 867 0170 07       		.byte	0x7
 868 0171 C7       		.byte	0xc7
 869 0172 FA000000 		.4byte	0xfa
 870 0176 08       		.byte	0x8
 871 0177 06       		.uleb128 0x6
 872 0178 08070000 		.4byte	.LASF32
 873 017c 07       		.byte	0x7
 874 017d C8       		.byte	0xc8
 875 017e E6040000 		.4byte	0x4e6
 876 0182 0C       		.byte	0xc
 877 0183 06       		.uleb128 0x6
 878 0184 9A010000 		.4byte	.LASF33
 879 0188 07       		.byte	0x7
 880 0189 CA       		.byte	0xca
 881 018a 58020000 		.4byte	0x258
 882 018e 10       		.byte	0x10
 883 018f 06       		.uleb128 0x6
 884 0190 41040000 		.4byte	.LASF34
 885 0194 07       		.byte	0x7
 886 0195 CB       		.byte	0xcb
 887 0196 58020000 		.4byte	0x258
 888 019a 14       		.byte	0x14
 889 019b 06       		.uleb128 0x6
 890 019c A7060000 		.4byte	.LASF35
 891 01a0 07       		.byte	0x7
 892 01a1 D2       		.byte	0xd2
 893 01a2 AC080000 		.4byte	0x8ac
 894 01a6 18       		.byte	0x18
 895 01a7 06       		.uleb128 0x6
 896 01a8 39020000 		.4byte	.LASF36
 897 01ac 07       		.byte	0x7
 898 01ad D8       		.byte	0xd8
 899 01ae BE080000 		.4byte	0x8be
 900 01b2 1C       		.byte	0x1c
 901 01b3 06       		.uleb128 0x6
 902 01b4 0C050000 		.4byte	.LASF37
 903 01b8 07       		.byte	0x7
 904 01b9 DD       		.byte	0xdd
 905 01ba E4000000 		.4byte	0xe4
 906 01be 20       		.byte	0x20
 907 01bf 06       		.uleb128 0x6
 908 01c0 D2060000 		.4byte	.LASF38
 909 01c4 07       		.byte	0x7
 910 01c5 E1       		.byte	0xe1
 911 01c6 D9000000 		.4byte	0xd9
 912 01ca 21       		.byte	0x21
 913 01cb 06       		.uleb128 0x6
 914 01cc 75060000 		.4byte	.LASF39
 915 01d0 07       		.byte	0x7
 916 01d1 E6       		.byte	0xe6
 917 01d2 EF000000 		.4byte	0xef
 918 01d6 22       		.byte	0x22
 919 01d7 07       		.uleb128 0x7
 920 01d8 705F7500 		.ascii	"p_u\000"
 921 01dc 07       		.byte	0x7
 922 01dd 3101     		.2byte	0x131
 923 01df E7070000 		.4byte	0x7e7
ARM GAS  /tmp/ccpKz2wI.s 			page 37


 924 01e3 24       		.byte	0x24
 925 01e4 08       		.uleb128 0x8
 926 01e5 C5030000 		.4byte	.LASF40
 927 01e9 07       		.byte	0x7
 928 01ea 3601     		.2byte	0x136
 929 01ec 5E020000 		.4byte	0x25e
 930 01f0 28       		.byte	0x28
 931 01f1 08       		.uleb128 0x8
 932 01f2 60020000 		.4byte	.LASF41
 933 01f6 07       		.byte	0x7
 934 01f7 3C01     		.2byte	0x13c
 935 01f9 82020000 		.4byte	0x282
 936 01fd 2C       		.byte	0x2c
 937 01fe 08       		.uleb128 0x8
 938 01ff 35060000 		.4byte	.LASF42
 939 0203 07       		.byte	0x7
 940 0204 4001     		.2byte	0x140
 941 0206 05010000 		.4byte	0x105
 942 020a 34       		.byte	0x34
 943 020b 08       		.uleb128 0x8
 944 020c 6D050000 		.4byte	.LASF43
 945 0210 07       		.byte	0x7
 946 0211 4601     		.2byte	0x146
 947 0213 10010000 		.4byte	0x110
 948 0217 38       		.byte	0x38
 949 0218 08       		.uleb128 0x8
 950 0219 F8040000 		.4byte	.LASF44
 951 021d 07       		.byte	0x7
 952 021e 4D01     		.2byte	0x14d
 953 0220 A6080000 		.4byte	0x8a6
 954 0224 3C       		.byte	0x3c
 955 0225 08       		.uleb128 0x8
 956 0226 F0050000 		.4byte	.LASF45
 957 022a 07       		.byte	0x7
 958 022b 5101     		.2byte	0x151
 959 022d FA000000 		.4byte	0xfa
 960 0231 40       		.byte	0x40
 961 0232 08       		.uleb128 0x8
 962 0233 95020000 		.4byte	.LASF46
 963 0237 07       		.byte	0x7
 964 0238 5801     		.2byte	0x158
 965 023a 35030000 		.4byte	0x335
 966 023e 44       		.byte	0x44
 967 023f 08       		.uleb128 0x8
 968 0240 31050000 		.4byte	.LASF47
 969 0244 07       		.byte	0x7
 970 0245 5E01     		.2byte	0x15e
 971 0247 98070000 		.4byte	0x798
 972 024b 48       		.byte	0x48
 973 024c 00       		.byte	0
 974 024d 04       		.uleb128 0x4
 975 024e D8030000 		.4byte	.LASF48
 976 0252 06       		.byte	0x6
 977 0253 44       		.byte	0x44
 978 0254 58020000 		.4byte	0x258
 979 0258 09       		.uleb128 0x9
 980 0259 04       		.byte	0x4
ARM GAS  /tmp/ccpKz2wI.s 			page 38


 981 025a 3C010000 		.4byte	0x13c
 982 025e 04       		.uleb128 0x4
 983 025f AE060000 		.4byte	.LASF49
 984 0263 06       		.byte	0x6
 985 0264 49       		.byte	0x49
 986 0265 69020000 		.4byte	0x269
 987 0269 05       		.uleb128 0x5
 988 026a 99050000 		.4byte	.LASF51
 989 026e 04       		.byte	0x4
 990 026f 07       		.byte	0x7
 991 0270 B0       		.byte	0xb0
 992 0271 82020000 		.4byte	0x282
 993 0275 06       		.uleb128 0x6
 994 0276 22050000 		.4byte	.LASF29
 995 027a 07       		.byte	0x7
 996 027b B1       		.byte	0xb1
 997 027c 58020000 		.4byte	0x258
 998 0280 00       		.byte	0
 999 0281 00       		.byte	0
 1000 0282 04       		.uleb128 0x4
 1001 0283 5C060000 		.4byte	.LASF52
 1002 0287 06       		.byte	0x6
 1003 0288 50       		.byte	0x50
 1004 0289 8D020000 		.4byte	0x28d
 1005 028d 05       		.uleb128 0x5
 1006 028e 52000000 		.4byte	.LASF53
 1007 0292 08       		.byte	0x8
 1008 0293 07       		.byte	0x7
 1009 0294 B7       		.byte	0xb7
 1010 0295 B2020000 		.4byte	0x2b2
 1011 0299 06       		.uleb128 0x6
 1012 029a 22050000 		.4byte	.LASF29
 1013 029e 07       		.byte	0x7
 1014 029f B8       		.byte	0xb8
 1015 02a0 58020000 		.4byte	0x258
 1016 02a4 00       		.byte	0
 1017 02a5 06       		.uleb128 0x6
 1018 02a6 C4040000 		.4byte	.LASF30
 1019 02aa 07       		.byte	0x7
 1020 02ab B9       		.byte	0xb9
 1021 02ac 58020000 		.4byte	0x258
 1022 02b0 04       		.byte	0x4
 1023 02b1 00       		.byte	0
 1024 02b2 04       		.uleb128 0x4
 1025 02b3 07000000 		.4byte	.LASF54
 1026 02b7 06       		.byte	0x6
 1027 02b8 57       		.byte	0x57
 1028 02b9 BD020000 		.4byte	0x2bd
 1029 02bd 0A       		.uleb128 0xa
 1030 02be 83030000 		.4byte	.LASF55
 1031 02c2 1C       		.byte	0x1c
 1032 02c3 07       		.byte	0x7
 1033 02c4 9001     		.2byte	0x190
 1034 02c6 19030000 		.4byte	0x319
 1035 02ca 08       		.uleb128 0x8
 1036 02cb 88050000 		.4byte	.LASF56
 1037 02cf 07       		.byte	0x7
ARM GAS  /tmp/ccpKz2wI.s 			page 39


 1038 02d0 9101     		.2byte	0x191
 1039 02d2 82020000 		.4byte	0x282
 1040 02d6 00       		.byte	0
 1041 02d7 08       		.uleb128 0x8
 1042 02d8 14050000 		.4byte	.LASF57
 1043 02dc 07       		.byte	0x7
 1044 02dd 9201     		.2byte	0x192
 1045 02df FA000000 		.4byte	0xfa
 1046 02e3 08       		.byte	0x8
 1047 02e4 08       		.uleb128 0x8
 1048 02e5 50040000 		.4byte	.LASF58
 1049 02e9 07       		.byte	0x7
 1050 02ea 9401     		.2byte	0x194
 1051 02ec E6040000 		.4byte	0x4e6
 1052 02f0 0C       		.byte	0xc
 1053 02f1 08       		.uleb128 0x8
 1054 02f2 DC010000 		.4byte	.LASF59
 1055 02f6 07       		.byte	0x7
 1056 02f7 9701     		.2byte	0x197
 1057 02f9 58020000 		.4byte	0x258
 1058 02fd 10       		.byte	0x10
 1059 02fe 08       		.uleb128 0x8
 1060 02ff 84040000 		.4byte	.LASF60
 1061 0303 07       		.byte	0x7
 1062 0304 9801     		.2byte	0x198
 1063 0306 58020000 		.4byte	0x258
 1064 030a 14       		.byte	0x14
 1065 030b 08       		.uleb128 0x8
 1066 030c 7A040000 		.4byte	.LASF61
 1067 0310 07       		.byte	0x7
 1068 0311 9B01     		.2byte	0x19b
 1069 0313 58020000 		.4byte	0x258
 1070 0317 18       		.byte	0x18
 1071 0318 00       		.byte	0
 1072 0319 04       		.uleb128 0x4
 1073 031a FB050000 		.4byte	.LASF62
 1074 031e 06       		.byte	0x6
 1075 031f 5C       		.byte	0x5c
 1076 0320 24030000 		.4byte	0x324
 1077 0324 09       		.uleb128 0x9
 1078 0325 04       		.byte	0x4
 1079 0326 2A030000 		.4byte	0x32a
 1080 032a 0B       		.uleb128 0xb
 1081 032b 35030000 		.4byte	0x335
 1082 032f 0C       		.uleb128 0xc
 1083 0330 35030000 		.4byte	0x335
 1084 0334 00       		.byte	0
 1085 0335 0D       		.uleb128 0xd
 1086 0336 04       		.byte	0x4
 1087 0337 04       		.uleb128 0x4
 1088 0338 B4040000 		.4byte	.LASF63
 1089 033c 06       		.byte	0x6
 1090 033d 61       		.byte	0x61
 1091 033e 42030000 		.4byte	0x342
 1092 0342 0A       		.uleb128 0xa
 1093 0343 39050000 		.4byte	.LASF64
 1094 0347 14       		.byte	0x14
ARM GAS  /tmp/ccpKz2wI.s 			page 40


 1095 0348 07       		.byte	0x7
 1096 0349 6B01     		.2byte	0x16b
 1097 034b 91030000 		.4byte	0x391
 1098 034f 08       		.uleb128 0x8
 1099 0350 51020000 		.4byte	.LASF65
 1100 0354 07       		.byte	0x7
 1101 0355 6C01     		.2byte	0x16c
 1102 0357 C4080000 		.4byte	0x8c4
 1103 035b 00       		.byte	0
 1104 035c 08       		.uleb128 0x8
 1105 035d FB010000 		.4byte	.LASF66
 1106 0361 07       		.byte	0x7
 1107 0362 6D01     		.2byte	0x16d
 1108 0364 C4080000 		.4byte	0x8c4
 1109 0368 04       		.byte	0x4
 1110 0369 08       		.uleb128 0x8
 1111 036a 90050000 		.4byte	.LASF67
 1112 036e 07       		.byte	0x7
 1113 036f 6E01     		.2byte	0x16e
 1114 0371 31010000 		.4byte	0x131
 1115 0375 08       		.byte	0x8
 1116 0376 08       		.uleb128 0x8
 1117 0377 0E070000 		.4byte	.LASF68
 1118 037b 07       		.byte	0x7
 1119 037c 6F01     		.2byte	0x16f
 1120 037e 19030000 		.4byte	0x319
 1121 0382 0C       		.byte	0xc
 1122 0383 08       		.uleb128 0x8
 1123 0384 55060000 		.4byte	.LASF69
 1124 0388 07       		.byte	0x7
 1125 0389 7101     		.2byte	0x171
 1126 038b 35030000 		.4byte	0x335
 1127 038f 10       		.byte	0x10
 1128 0390 00       		.byte	0
 1129 0391 04       		.uleb128 0x4
 1130 0392 D1000000 		.4byte	.LASF70
 1131 0396 06       		.byte	0x6
 1132 0397 66       		.byte	0x66
 1133 0398 9C030000 		.4byte	0x39c
 1134 039c 0A       		.uleb128 0xa
 1135 039d EB030000 		.4byte	.LASF71
 1136 03a1 10       		.byte	0x10
 1137 03a2 07       		.byte	0x7
 1138 03a3 7B01     		.2byte	0x17b
 1139 03a5 DE030000 		.4byte	0x3de
 1140 03a9 08       		.uleb128 0x8
 1141 03aa 51020000 		.4byte	.LASF65
 1142 03ae 07       		.byte	0x7
 1143 03af 7C01     		.2byte	0x17c
 1144 03b1 C4080000 		.4byte	0x8c4
 1145 03b5 00       		.byte	0
 1146 03b6 08       		.uleb128 0x8
 1147 03b7 FB010000 		.4byte	.LASF66
 1148 03bb 07       		.byte	0x7
 1149 03bc 7E01     		.2byte	0x17e
 1150 03be C4080000 		.4byte	0x8c4
 1151 03c2 04       		.byte	0x4
ARM GAS  /tmp/ccpKz2wI.s 			page 41


 1152 03c3 08       		.uleb128 0x8
 1153 03c4 90050000 		.4byte	.LASF67
 1154 03c8 07       		.byte	0x7
 1155 03c9 8001     		.2byte	0x180
 1156 03cb 31010000 		.4byte	0x131
 1157 03cf 08       		.byte	0x8
 1158 03d0 08       		.uleb128 0x8
 1159 03d1 35040000 		.4byte	.LASF72
 1160 03d5 07       		.byte	0x7
 1161 03d6 8801     		.2byte	0x188
 1162 03d8 31010000 		.4byte	0x131
 1163 03dc 0C       		.byte	0xc
 1164 03dd 00       		.byte	0
 1165 03de 04       		.uleb128 0x4
 1166 03df 63000000 		.4byte	.LASF73
 1167 03e3 06       		.byte	0x6
 1168 03e4 6B       		.byte	0x6b
 1169 03e5 E9030000 		.4byte	0x3e9
 1170 03e9 0E       		.uleb128 0xe
 1171 03ea 03020000 		.4byte	.LASF74
 1172 03ee 1404     		.2byte	0x414
 1173 03f0 07       		.byte	0x7
 1174 03f1 A201     		.2byte	0x1a2
 1175 03f3 2C040000 		.4byte	0x42c
 1176 03f7 08       		.uleb128 0x8
 1177 03f8 0F060000 		.4byte	.LASF75
 1178 03fc 07       		.byte	0x7
 1179 03fd AA01     		.2byte	0x1aa
 1180 03ff CA080000 		.4byte	0x8ca
 1181 0403 00       		.byte	0
 1182 0404 08       		.uleb128 0x8
 1183 0405 7C060000 		.4byte	.LASF76
 1184 0409 07       		.byte	0x7
 1185 040a AF01     		.2byte	0x1af
 1186 040c 1B010000 		.4byte	0x11b
 1187 0410 04       		.byte	0x4
 1188 0411 08       		.uleb128 0x8
 1189 0412 1B020000 		.4byte	.LASF77
 1190 0416 07       		.byte	0x7
 1191 0417 B301     		.2byte	0x1b3
 1192 0419 1B010000 		.4byte	0x11b
 1193 041d 08       		.byte	0x8
 1194 041e 08       		.uleb128 0x8
 1195 041f C5060000 		.4byte	.LASF78
 1196 0423 07       		.byte	0x7
 1197 0424 B901     		.2byte	0x1b9
 1198 0426 2A070000 		.4byte	0x72a
 1199 042a 0C       		.byte	0xc
 1200 042b 00       		.byte	0
 1201 042c 04       		.uleb128 0x4
 1202 042d AF020000 		.4byte	.LASF79
 1203 0431 06       		.byte	0x6
 1204 0432 70       		.byte	0x70
 1205 0433 37040000 		.4byte	0x437
 1206 0437 0E       		.uleb128 0xe
 1207 0438 5D010000 		.4byte	.LASF80
 1208 043c D805     		.2byte	0x5d8
ARM GAS  /tmp/ccpKz2wI.s 			page 42


 1209 043e 07       		.byte	0x7
 1210 043f C201     		.2byte	0x1c2
 1211 0441 A4040000 		.4byte	0x4a4
 1212 0445 08       		.uleb128 0x8
 1213 0446 84060000 		.4byte	.LASF81
 1214 044a 07       		.byte	0x7
 1215 044b C601     		.2byte	0x1c6
 1216 044d B2020000 		.4byte	0x2b2
 1217 0451 00       		.byte	0
 1218 0452 08       		.uleb128 0x8
 1219 0453 56010000 		.4byte	.LASF82
 1220 0457 07       		.byte	0x7
 1221 0458 CA01     		.2byte	0x1ca
 1222 045a 91030000 		.4byte	0x391
 1223 045e 1C       		.byte	0x1c
 1224 045f 07       		.uleb128 0x7
 1225 0460 64626700 		.ascii	"dbg\000"
 1226 0464 07       		.byte	0x7
 1227 0465 CE01     		.2byte	0x1ce
 1228 0467 DE030000 		.4byte	0x3de
 1229 046b 2C       		.byte	0x2c
 1230 046c 0F       		.uleb128 0xf
 1231 046d C6000000 		.4byte	.LASF83
 1232 0471 07       		.byte	0x7
 1233 0472 D201     		.2byte	0x1d2
 1234 0474 3C010000 		.4byte	0x13c
 1235 0478 4004     		.2byte	0x440
 1236 047a 10       		.uleb128 0x10
 1237 047b 746D00   		.ascii	"tm\000"
 1238 047e 07       		.byte	0x7
 1239 047f D701     		.2byte	0x1d7
 1240 0481 4A070000 		.4byte	0x74a
 1241 0485 A004     		.2byte	0x4a0
 1242 0487 0F       		.uleb128 0xf
 1243 0488 2F000000 		.4byte	.LASF84
 1244 048c 07       		.byte	0x7
 1245 048d DD01     		.2byte	0x1dd
 1246 048f DC070000 		.4byte	0x7dc
 1247 0493 A804     		.2byte	0x4a8
 1248 0495 0F       		.uleb128 0xf
 1249 0496 24020000 		.4byte	.LASF85
 1250 049a 07       		.byte	0x7
 1251 049b E301     		.2byte	0x1e3
 1252 049d CF080000 		.4byte	0x8cf
 1253 04a1 E004     		.2byte	0x4e0
 1254 04a3 00       		.byte	0
 1255 04a4 03       		.uleb128 0x3
 1256 04a5 04       		.byte	0x4
 1257 04a6 07       		.byte	0x7
 1258 04a7 CF030000 		.4byte	.LASF86
 1259 04ab 11       		.uleb128 0x11
 1260 04ac AD000000 		.4byte	0xad
 1261 04b0 12       		.uleb128 0x12
 1262 04b1 AD000000 		.4byte	0xad
 1263 04b5 C0040000 		.4byte	0x4c0
 1264 04b9 13       		.uleb128 0x13
 1265 04ba A4040000 		.4byte	0x4a4
ARM GAS  /tmp/ccpKz2wI.s 			page 43


 1266 04be 01       		.byte	0x1
 1267 04bf 00       		.byte	0
 1268 04c0 12       		.uleb128 0x12
 1269 04c1 AD000000 		.4byte	0xad
 1270 04c5 D0040000 		.4byte	0x4d0
 1271 04c9 13       		.uleb128 0x13
 1272 04ca A4040000 		.4byte	0x4a4
 1273 04ce 03       		.byte	0x3
 1274 04cf 00       		.byte	0
 1275 04d0 04       		.uleb128 0x4
 1276 04d1 F2010000 		.4byte	.LASF87
 1277 04d5 08       		.byte	0x8
 1278 04d6 65       		.byte	0x65
 1279 04d7 35030000 		.4byte	0x335
 1280 04db 04       		.uleb128 0x4
 1281 04dc BA030000 		.4byte	.LASF88
 1282 04e0 08       		.byte	0x8
 1283 04e1 6D       		.byte	0x6d
 1284 04e2 B8000000 		.4byte	0xb8
 1285 04e6 05       		.uleb128 0x5
 1286 04e7 2D060000 		.4byte	.LASF89
 1287 04eb 04       		.byte	0x4
 1288 04ec 08       		.byte	0x8
 1289 04ed 89       		.byte	0x89
 1290 04ee FF040000 		.4byte	0x4ff
 1291 04f2 14       		.uleb128 0x14
 1292 04f3 72313300 		.ascii	"r13\000"
 1293 04f7 08       		.byte	0x8
 1294 04f8 8A       		.byte	0x8a
 1295 04f9 7A050000 		.4byte	0x57a
 1296 04fd 00       		.byte	0
 1297 04fe 00       		.byte	0
 1298 04ff 05       		.uleb128 0x5
 1299 0500 46000000 		.4byte	.LASF90
 1300 0504 24       		.byte	0x24
 1301 0505 09       		.byte	0x9
 1302 0506 FD       		.byte	0xfd
 1303 0507 7A050000 		.4byte	0x57a
 1304 050b 07       		.uleb128 0x7
 1305 050c 723400   		.ascii	"r4\000"
 1306 050f 09       		.byte	0x9
 1307 0510 1001     		.2byte	0x110
 1308 0512 D0040000 		.4byte	0x4d0
 1309 0516 00       		.byte	0
 1310 0517 07       		.uleb128 0x7
 1311 0518 723500   		.ascii	"r5\000"
 1312 051b 09       		.byte	0x9
 1313 051c 1101     		.2byte	0x111
 1314 051e D0040000 		.4byte	0x4d0
 1315 0522 04       		.byte	0x4
 1316 0523 07       		.uleb128 0x7
 1317 0524 723600   		.ascii	"r6\000"
 1318 0527 09       		.byte	0x9
 1319 0528 1201     		.2byte	0x112
 1320 052a D0040000 		.4byte	0x4d0
 1321 052e 08       		.byte	0x8
 1322 052f 07       		.uleb128 0x7
ARM GAS  /tmp/ccpKz2wI.s 			page 44


 1323 0530 723700   		.ascii	"r7\000"
 1324 0533 09       		.byte	0x9
 1325 0534 1301     		.2byte	0x113
 1326 0536 D0040000 		.4byte	0x4d0
 1327 053a 0C       		.byte	0xc
 1328 053b 07       		.uleb128 0x7
 1329 053c 723800   		.ascii	"r8\000"
 1330 053f 09       		.byte	0x9
 1331 0540 1401     		.2byte	0x114
 1332 0542 D0040000 		.4byte	0x4d0
 1333 0546 10       		.byte	0x10
 1334 0547 07       		.uleb128 0x7
 1335 0548 723900   		.ascii	"r9\000"
 1336 054b 09       		.byte	0x9
 1337 054c 1501     		.2byte	0x115
 1338 054e D0040000 		.4byte	0x4d0
 1339 0552 14       		.byte	0x14
 1340 0553 07       		.uleb128 0x7
 1341 0554 72313000 		.ascii	"r10\000"
 1342 0558 09       		.byte	0x9
 1343 0559 1601     		.2byte	0x116
 1344 055b D0040000 		.4byte	0x4d0
 1345 055f 18       		.byte	0x18
 1346 0560 07       		.uleb128 0x7
 1347 0561 72313100 		.ascii	"r11\000"
 1348 0565 09       		.byte	0x9
 1349 0566 1701     		.2byte	0x117
 1350 0568 D0040000 		.4byte	0x4d0
 1351 056c 1C       		.byte	0x1c
 1352 056d 07       		.uleb128 0x7
 1353 056e 6C7200   		.ascii	"lr\000"
 1354 0571 09       		.byte	0x9
 1355 0572 1801     		.2byte	0x118
 1356 0574 D0040000 		.4byte	0x4d0
 1357 0578 20       		.byte	0x20
 1358 0579 00       		.byte	0
 1359 057a 09       		.uleb128 0x9
 1360 057b 04       		.byte	0x4
 1361 057c FF040000 		.4byte	0x4ff
 1362 0580 15       		.uleb128 0x15
 1363 0581 60       		.byte	0x60
 1364 0582 0A       		.byte	0xa
 1365 0583 A101     		.2byte	0x1a1
 1366 0585 8C060000 		.4byte	0x68c
 1367 0589 07       		.uleb128 0x7
 1368 058a 43523100 		.ascii	"CR1\000"
 1369 058e 0A       		.byte	0xa
 1370 058f A201     		.2byte	0x1a2
 1371 0591 AB040000 		.4byte	0x4ab
 1372 0595 00       		.byte	0
 1373 0596 07       		.uleb128 0x7
 1374 0597 43523200 		.ascii	"CR2\000"
 1375 059b 0A       		.byte	0xa
 1376 059c A301     		.2byte	0x1a3
 1377 059e AB040000 		.4byte	0x4ab
 1378 05a2 04       		.byte	0x4
 1379 05a3 08       		.uleb128 0x8
ARM GAS  /tmp/ccpKz2wI.s 			page 45


 1380 05a4 77020000 		.4byte	.LASF91
 1381 05a8 0A       		.byte	0xa
 1382 05a9 A401     		.2byte	0x1a4
 1383 05ab AB040000 		.4byte	0x4ab
 1384 05af 08       		.byte	0x8
 1385 05b0 08       		.uleb128 0x8
 1386 05b1 14000000 		.4byte	.LASF92
 1387 05b5 0A       		.byte	0xa
 1388 05b6 A501     		.2byte	0x1a5
 1389 05b8 AB040000 		.4byte	0x4ab
 1390 05bc 0C       		.byte	0xc
 1391 05bd 07       		.uleb128 0x7
 1392 05be 535200   		.ascii	"SR\000"
 1393 05c1 0A       		.byte	0xa
 1394 05c2 A601     		.2byte	0x1a6
 1395 05c4 AB040000 		.4byte	0x4ab
 1396 05c8 10       		.byte	0x10
 1397 05c9 07       		.uleb128 0x7
 1398 05ca 45475200 		.ascii	"EGR\000"
 1399 05ce 0A       		.byte	0xa
 1400 05cf A701     		.2byte	0x1a7
 1401 05d1 AB040000 		.4byte	0x4ab
 1402 05d5 14       		.byte	0x14
 1403 05d6 08       		.uleb128 0x8
 1404 05d7 09010000 		.4byte	.LASF93
 1405 05db 0A       		.byte	0xa
 1406 05dc A801     		.2byte	0x1a8
 1407 05de AB040000 		.4byte	0x4ab
 1408 05e2 18       		.byte	0x18
 1409 05e3 08       		.uleb128 0x8
 1410 05e4 0F010000 		.4byte	.LASF94
 1411 05e8 0A       		.byte	0xa
 1412 05e9 A901     		.2byte	0x1a9
 1413 05eb AB040000 		.4byte	0x4ab
 1414 05ef 1C       		.byte	0x1c
 1415 05f0 08       		.uleb128 0x8
 1416 05f1 81010000 		.4byte	.LASF95
 1417 05f5 0A       		.byte	0xa
 1418 05f6 AA01     		.2byte	0x1aa
 1419 05f8 AB040000 		.4byte	0x4ab
 1420 05fc 20       		.byte	0x20
 1421 05fd 07       		.uleb128 0x7
 1422 05fe 434E5400 		.ascii	"CNT\000"
 1423 0602 0A       		.byte	0xa
 1424 0603 AB01     		.2byte	0x1ab
 1425 0605 AB040000 		.4byte	0x4ab
 1426 0609 24       		.byte	0x24
 1427 060a 07       		.uleb128 0x7
 1428 060b 50534300 		.ascii	"PSC\000"
 1429 060f 0A       		.byte	0xa
 1430 0610 AC01     		.2byte	0x1ac
 1431 0612 AB040000 		.4byte	0x4ab
 1432 0616 28       		.byte	0x28
 1433 0617 07       		.uleb128 0x7
 1434 0618 41525200 		.ascii	"ARR\000"
 1435 061c 0A       		.byte	0xa
 1436 061d AD01     		.2byte	0x1ad
ARM GAS  /tmp/ccpKz2wI.s 			page 46


 1437 061f AB040000 		.4byte	0x4ab
 1438 0623 2C       		.byte	0x2c
 1439 0624 07       		.uleb128 0x7
 1440 0625 52435200 		.ascii	"RCR\000"
 1441 0629 0A       		.byte	0xa
 1442 062a AE01     		.2byte	0x1ae
 1443 062c AB040000 		.4byte	0x4ab
 1444 0630 30       		.byte	0x30
 1445 0631 07       		.uleb128 0x7
 1446 0632 43435200 		.ascii	"CCR\000"
 1447 0636 0A       		.byte	0xa
 1448 0637 AF01     		.2byte	0x1af
 1449 0639 8C060000 		.4byte	0x68c
 1450 063d 34       		.byte	0x34
 1451 063e 08       		.uleb128 0x8
 1452 063f F4000000 		.4byte	.LASF96
 1453 0643 0A       		.byte	0xa
 1454 0644 B001     		.2byte	0x1b0
 1455 0646 AB040000 		.4byte	0x4ab
 1456 064a 44       		.byte	0x44
 1457 064b 07       		.uleb128 0x7
 1458 064c 44435200 		.ascii	"DCR\000"
 1459 0650 0A       		.byte	0xa
 1460 0651 B101     		.2byte	0x1b1
 1461 0653 AB040000 		.4byte	0x4ab
 1462 0657 48       		.byte	0x48
 1463 0658 08       		.uleb128 0x8
 1464 0659 CC050000 		.4byte	.LASF97
 1465 065d 0A       		.byte	0xa
 1466 065e B201     		.2byte	0x1b2
 1467 0660 AB040000 		.4byte	0x4ab
 1468 0664 4C       		.byte	0x4c
 1469 0665 07       		.uleb128 0x7
 1470 0666 4F5200   		.ascii	"OR\000"
 1471 0669 0A       		.byte	0xa
 1472 066a B301     		.2byte	0x1b3
 1473 066c AB040000 		.4byte	0x4ab
 1474 0670 50       		.byte	0x50
 1475 0671 08       		.uleb128 0x8
 1476 0672 15010000 		.4byte	.LASF98
 1477 0676 0A       		.byte	0xa
 1478 0677 B401     		.2byte	0x1b4
 1479 0679 AB040000 		.4byte	0x4ab
 1480 067d 54       		.byte	0x54
 1481 067e 08       		.uleb128 0x8
 1482 067f 68050000 		.4byte	.LASF99
 1483 0683 0A       		.byte	0xa
 1484 0684 B501     		.2byte	0x1b5
 1485 0686 91060000 		.4byte	0x691
 1486 068a 58       		.byte	0x58
 1487 068b 00       		.byte	0
 1488 068c 11       		.uleb128 0x11
 1489 068d C0040000 		.4byte	0x4c0
 1490 0691 11       		.uleb128 0x11
 1491 0692 B0040000 		.4byte	0x4b0
 1492 0696 16       		.uleb128 0x16
 1493 0697 6C030000 		.4byte	.LASF100
ARM GAS  /tmp/ccpKz2wI.s 			page 47


 1494 069b 0A       		.byte	0xa
 1495 069c B601     		.2byte	0x1b6
 1496 069e 80050000 		.4byte	0x580
 1497 06a2 17       		.uleb128 0x17
 1498 06a3 10       		.byte	0x10
 1499 06a4 0B       		.byte	0xb
 1500 06a5 51       		.byte	0x51
 1501 06a6 DB060000 		.4byte	0x6db
 1502 06aa 06       		.uleb128 0x6
 1503 06ab 46010000 		.4byte	.LASF101
 1504 06af 0B       		.byte	0xb
 1505 06b0 55       		.byte	0x55
 1506 06b1 31010000 		.4byte	0x131
 1507 06b5 00       		.byte	0
 1508 06b6 06       		.uleb128 0x6
 1509 06b7 86010000 		.4byte	.LASF102
 1510 06bb 0B       		.byte	0xb
 1511 06bc 59       		.byte	0x59
 1512 06bd 58020000 		.4byte	0x258
 1513 06c1 04       		.byte	0x4
 1514 06c2 06       		.uleb128 0x6
 1515 06c3 FE060000 		.4byte	.LASF103
 1516 06c7 0B       		.byte	0xb
 1517 06c8 5D       		.byte	0x5d
 1518 06c9 35030000 		.4byte	0x335
 1519 06cd 08       		.byte	0x8
 1520 06ce 06       		.uleb128 0x6
 1521 06cf B4000000 		.4byte	.LASF104
 1522 06d3 0B       		.byte	0xb
 1523 06d4 61       		.byte	0x61
 1524 06d5 97000000 		.4byte	0x97
 1525 06d9 0C       		.byte	0xc
 1526 06da 00       		.byte	0
 1527 06db 04       		.uleb128 0x4
 1528 06dc 02040000 		.4byte	.LASF105
 1529 06e0 0B       		.byte	0xb
 1530 06e1 62       		.byte	0x62
 1531 06e2 A2060000 		.4byte	0x6a2
 1532 06e6 18       		.uleb128 0x18
 1533 06e7 0804     		.2byte	0x408
 1534 06e9 0B       		.byte	0xb
 1535 06ea 67       		.byte	0x67
 1536 06eb 14070000 		.4byte	0x714
 1537 06ef 06       		.uleb128 0x6
 1538 06f0 D4010000 		.4byte	.LASF106
 1539 06f4 0B       		.byte	0xb
 1540 06f5 6B       		.byte	0x6b
 1541 06f6 2C000000 		.4byte	0x2c
 1542 06fa 00       		.byte	0
 1543 06fb 06       		.uleb128 0x6
 1544 06fc 00000000 		.4byte	.LASF107
 1545 0700 0B       		.byte	0xb
 1546 0701 6F       		.byte	0x6f
 1547 0702 14070000 		.4byte	0x714
 1548 0706 04       		.byte	0x4
 1549 0707 06       		.uleb128 0x6
 1550 0708 AA040000 		.4byte	.LASF108
ARM GAS  /tmp/ccpKz2wI.s 			page 48


 1551 070c 0B       		.byte	0xb
 1552 070d 73       		.byte	0x73
 1553 070e 1A070000 		.4byte	0x71a
 1554 0712 08       		.byte	0x8
 1555 0713 00       		.byte	0
 1556 0714 09       		.uleb128 0x9
 1557 0715 04       		.byte	0x4
 1558 0716 DB060000 		.4byte	0x6db
 1559 071a 12       		.uleb128 0x12
 1560 071b DB060000 		.4byte	0x6db
 1561 071f 2A070000 		.4byte	0x72a
 1562 0723 13       		.uleb128 0x13
 1563 0724 A4040000 		.4byte	0x4a4
 1564 0728 3F       		.byte	0x3f
 1565 0729 00       		.byte	0
 1566 072a 04       		.uleb128 0x4
 1567 072b A2000000 		.4byte	.LASF109
 1568 072f 0B       		.byte	0xb
 1569 0730 74       		.byte	0x74
 1570 0731 E6060000 		.4byte	0x6e6
 1571 0735 17       		.uleb128 0x17
 1572 0736 04       		.byte	0x4
 1573 0737 0C       		.byte	0xc
 1574 0738 38       		.byte	0x38
 1575 0739 4A070000 		.4byte	0x74a
 1576 073d 06       		.uleb128 0x6
 1577 073e 19060000 		.4byte	.LASF110
 1578 0742 0C       		.byte	0xc
 1579 0743 3C       		.byte	0x3c
 1580 0744 C3000000 		.4byte	0xc3
 1581 0748 00       		.byte	0
 1582 0749 00       		.byte	0
 1583 074a 04       		.uleb128 0x4
 1584 074b 64040000 		.4byte	.LASF111
 1585 074f 0C       		.byte	0xc
 1586 0750 3D       		.byte	0x3d
 1587 0751 35070000 		.4byte	0x735
 1588 0755 17       		.uleb128 0x17
 1589 0756 18       		.byte	0x18
 1590 0757 0C       		.byte	0xc
 1591 0758 48       		.byte	0x48
 1592 0759 98070000 		.4byte	0x798
 1593 075d 06       		.uleb128 0x6
 1594 075e DA050000 		.4byte	.LASF112
 1595 0762 0C       		.byte	0xc
 1596 0763 49       		.byte	0x49
 1597 0764 C3000000 		.4byte	0xc3
 1598 0768 00       		.byte	0
 1599 0769 06       		.uleb128 0x6
 1600 076a 72000000 		.4byte	.LASF113
 1601 076e 0C       		.byte	0xc
 1602 076f 4A       		.byte	0x4a
 1603 0770 C3000000 		.4byte	0xc3
 1604 0774 04       		.byte	0x4
 1605 0775 06       		.uleb128 0x6
 1606 0776 A3020000 		.4byte	.LASF114
 1607 077a 0C       		.byte	0xc
ARM GAS  /tmp/ccpKz2wI.s 			page 49


 1608 077b 4B       		.byte	0x4b
 1609 077c C3000000 		.4byte	0xc3
 1610 0780 08       		.byte	0x8
 1611 0781 14       		.uleb128 0x14
 1612 0782 6E00     		.ascii	"n\000"
 1613 0784 0C       		.byte	0xc
 1614 0785 4C       		.byte	0x4c
 1615 0786 26010000 		.4byte	0x126
 1616 078a 0C       		.byte	0xc
 1617 078b 06       		.uleb128 0x6
 1618 078c 97040000 		.4byte	.LASF115
 1619 0790 0C       		.byte	0xc
 1620 0791 4D       		.byte	0x4d
 1621 0792 CE000000 		.4byte	0xce
 1622 0796 10       		.byte	0x10
 1623 0797 00       		.byte	0
 1624 0798 04       		.uleb128 0x4
 1625 0799 78000000 		.4byte	.LASF116
 1626 079d 0C       		.byte	0xc
 1627 079e 4E       		.byte	0x4e
 1628 079f 55070000 		.4byte	0x755
 1629 07a3 17       		.uleb128 0x17
 1630 07a4 38       		.byte	0x38
 1631 07a5 0D       		.byte	0xd
 1632 07a6 38       		.byte	0x38
 1633 07a7 DC070000 		.4byte	0x7dc
 1634 07ab 06       		.uleb128 0x6
 1635 07ac 6B020000 		.4byte	.LASF117
 1636 07b0 0D       		.byte	0xd
 1637 07b1 39       		.byte	0x39
 1638 07b2 26010000 		.4byte	0x126
 1639 07b6 00       		.byte	0
 1640 07b7 06       		.uleb128 0x6
 1641 07b8 D3040000 		.4byte	.LASF118
 1642 07bc 0D       		.byte	0xd
 1643 07bd 3A       		.byte	0x3a
 1644 07be 26010000 		.4byte	0x126
 1645 07c2 04       		.byte	0x4
 1646 07c3 06       		.uleb128 0x6
 1647 07c4 EB060000 		.4byte	.LASF119
 1648 07c8 0D       		.byte	0xd
 1649 07c9 3B       		.byte	0x3b
 1650 07ca 98070000 		.4byte	0x798
 1651 07ce 08       		.byte	0x8
 1652 07cf 06       		.uleb128 0x6
 1653 07d0 78030000 		.4byte	.LASF120
 1654 07d4 0D       		.byte	0xd
 1655 07d5 3D       		.byte	0x3d
 1656 07d6 98070000 		.4byte	0x798
 1657 07da 20       		.byte	0x20
 1658 07db 00       		.byte	0
 1659 07dc 04       		.uleb128 0x4
 1660 07dd 7C020000 		.4byte	.LASF121
 1661 07e1 0D       		.byte	0xd
 1662 07e2 3F       		.byte	0x3f
 1663 07e3 A3070000 		.4byte	0x7a3
 1664 07e7 19       		.uleb128 0x19
ARM GAS  /tmp/ccpKz2wI.s 			page 50


 1665 07e8 04       		.byte	0x4
 1666 07e9 07       		.byte	0x7
 1667 07ea FA       		.byte	0xfa
 1668 07eb 44080000 		.4byte	0x844
 1669 07ef 1A       		.uleb128 0x1a
 1670 07f0 1F000000 		.4byte	.LASF122
 1671 07f4 07       		.byte	0x7
 1672 07f5 0101     		.2byte	0x101
 1673 07f7 05010000 		.4byte	0x105
 1674 07fb 1A       		.uleb128 0x1a
 1675 07fc BD000000 		.4byte	.LASF123
 1676 0800 07       		.byte	0x7
 1677 0801 0801     		.2byte	0x108
 1678 0803 05010000 		.4byte	0x105
 1679 0807 1A       		.uleb128 0x1a
 1680 0808 A0060000 		.4byte	.LASF124
 1681 080c 07       		.byte	0x7
 1682 080d 0F01     		.2byte	0x10f
 1683 080f 35030000 		.4byte	0x335
 1684 0813 1A       		.uleb128 0x1a
 1685 0814 19000000 		.4byte	.LASF125
 1686 0818 07       		.byte	0x7
 1687 0819 1601     		.2byte	0x116
 1688 081b 44080000 		.4byte	0x844
 1689 081f 1A       		.uleb128 0x1a
 1690 0820 59020000 		.4byte	.LASF126
 1691 0824 07       		.byte	0x7
 1692 0825 1E01     		.2byte	0x11e
 1693 0827 6F080000 		.4byte	0x86f
 1694 082b 1A       		.uleb128 0x1a
 1695 082c 81050000 		.4byte	.LASF127
 1696 0830 07       		.byte	0x7
 1697 0831 2701     		.2byte	0x127
 1698 0833 A6080000 		.4byte	0x8a6
 1699 0837 1A       		.uleb128 0x1a
 1700 0838 1B050000 		.4byte	.LASF128
 1701 083c 07       		.byte	0x7
 1702 083d 2F01     		.2byte	0x12f
 1703 083f 10010000 		.4byte	0x110
 1704 0843 00       		.byte	0
 1705 0844 09       		.uleb128 0x9
 1706 0845 04       		.byte	0x4
 1707 0846 4D020000 		.4byte	0x24d
 1708 084a 05       		.uleb128 0x5
 1709 084b 5B050000 		.4byte	.LASF129
 1710 084f 0C       		.byte	0xc
 1711 0850 0E       		.byte	0xe
 1712 0851 34       		.byte	0x34
 1713 0852 6F080000 		.4byte	0x86f
 1714 0856 06       		.uleb128 0x6
 1715 0857 A2010000 		.4byte	.LASF130
 1716 085b 0E       		.byte	0xe
 1717 085c 35       		.byte	0x35
 1718 085d 82020000 		.4byte	0x282
 1719 0861 00       		.byte	0
 1720 0862 06       		.uleb128 0x6
 1721 0863 71020000 		.4byte	.LASF131
ARM GAS  /tmp/ccpKz2wI.s 			page 51


 1722 0867 0E       		.byte	0xe
 1723 0868 37       		.byte	0x37
 1724 0869 1B010000 		.4byte	0x11b
 1725 086d 08       		.byte	0x8
 1726 086e 00       		.byte	0
 1727 086f 09       		.uleb128 0x9
 1728 0870 04       		.byte	0x4
 1729 0871 4A080000 		.4byte	0x84a
 1730 0875 05       		.uleb128 0x5
 1731 0876 6C060000 		.4byte	.LASF132
 1732 087a 10       		.byte	0x10
 1733 087b 0F       		.byte	0xf
 1734 087c 39       		.byte	0x39
 1735 087d A6080000 		.4byte	0x8a6
 1736 0881 06       		.uleb128 0x6
 1737 0882 4E010000 		.4byte	.LASF133
 1738 0886 0F       		.byte	0xf
 1739 0887 3A       		.byte	0x3a
 1740 0888 82020000 		.4byte	0x282
 1741 088c 00       		.byte	0
 1742 088d 06       		.uleb128 0x6
 1743 088e F6060000 		.4byte	.LASF134
 1744 0892 0F       		.byte	0xf
 1745 0893 3C       		.byte	0x3c
 1746 0894 58020000 		.4byte	0x258
 1747 0898 08       		.byte	0x8
 1748 0899 06       		.uleb128 0x6
 1749 089a DF050000 		.4byte	.LASF135
 1750 089e 0F       		.byte	0xf
 1751 089f 3E       		.byte	0x3e
 1752 08a0 EA080000 		.4byte	0x8ea
 1753 08a4 0C       		.byte	0xc
 1754 08a5 00       		.byte	0
 1755 08a6 09       		.uleb128 0x9
 1756 08a7 04       		.byte	0x4
 1757 08a8 75080000 		.4byte	0x875
 1758 08ac 09       		.uleb128 0x9
 1759 08ad 04       		.byte	0x4
 1760 08ae B2080000 		.4byte	0x8b2
 1761 08b2 1B       		.uleb128 0x1b
 1762 08b3 B7080000 		.4byte	0x8b7
 1763 08b7 03       		.uleb128 0x3
 1764 08b8 01       		.byte	0x1
 1765 08b9 08       		.byte	0x8
 1766 08ba C7050000 		.4byte	.LASF136
 1767 08be 09       		.uleb128 0x9
 1768 08bf 04       		.byte	0x4
 1769 08c0 DB040000 		.4byte	0x4db
 1770 08c4 09       		.uleb128 0x9
 1771 08c5 04       		.byte	0x4
 1772 08c6 37030000 		.4byte	0x337
 1773 08ca 11       		.uleb128 0x11
 1774 08cb AC080000 		.4byte	0x8ac
 1775 08cf 12       		.uleb128 0x12
 1776 08d0 DB040000 		.4byte	0x4db
 1777 08d4 DF080000 		.4byte	0x8df
 1778 08d8 13       		.uleb128 0x13
ARM GAS  /tmp/ccpKz2wI.s 			page 52


 1779 08d9 A4040000 		.4byte	0x4a4
 1780 08dd 1E       		.byte	0x1e
 1781 08de 00       		.byte	0
 1782 08df 04       		.uleb128 0x4
 1783 08e0 13020000 		.4byte	.LASF137
 1784 08e4 0F       		.byte	0xf
 1785 08e5 34       		.byte	0x34
 1786 08e6 75080000 		.4byte	0x875
 1787 08ea 09       		.uleb128 0x9
 1788 08eb 04       		.byte	0x4
 1789 08ec DF080000 		.4byte	0x8df
 1790 08f0 03       		.uleb128 0x3
 1791 08f1 01       		.byte	0x1
 1792 08f2 02       		.byte	0x2
 1793 08f3 DC040000 		.4byte	.LASF138
 1794 08f7 1C       		.uleb128 0x1c
 1795 08f8 A7030000 		.4byte	.LASF139
 1796 08fc 01       		.byte	0x1
 1797 08fd 99       		.byte	0x99
 1798 08fe 00000000 		.4byte	.LFB137
 1799 0902 20000000 		.4byte	.LFE137-.LFB137
 1800 0906 01       		.uleb128 0x1
 1801 0907 9C       		.byte	0x9c
 1802 0908 1B090000 		.4byte	0x91b
 1803 090c 1D       		.uleb128 0x1d
 1804 090d 75040000 		.4byte	.LASF141
 1805 0911 01       		.byte	0x1
 1806 0912 99       		.byte	0x99
 1807 0913 31010000 		.4byte	0x131
 1808 0917 02       		.uleb128 0x2
 1809 0918 91       		.byte	0x91
 1810 0919 7C       		.sleb128 -4
 1811 091a 00       		.byte	0
 1812 091b 1E       		.uleb128 0x1e
 1813 091c 43060000 		.4byte	.LASF156
 1814 0920 01       		.byte	0x1
 1815 0921 A5       		.byte	0xa5
 1816 0922 00000000 		.4byte	.LFB138
 1817 0926 0A000000 		.4byte	.LFE138-.LFB138
 1818 092a 01       		.uleb128 0x1
 1819 092b 9C       		.byte	0x9c
 1820 092c 1C       		.uleb128 0x1c
 1821 092d DA060000 		.4byte	.LASF140
 1822 0931 01       		.byte	0x1
 1823 0932 B1       		.byte	0xb1
 1824 0933 00000000 		.4byte	.LFB139
 1825 0937 10000000 		.4byte	.LFE139-.LFB139
 1826 093b 01       		.uleb128 0x1
 1827 093c 9C       		.byte	0x9c
 1828 093d 50090000 		.4byte	0x950
 1829 0941 1D       		.uleb128 0x1d
 1830 0942 75040000 		.4byte	.LASF141
 1831 0946 01       		.byte	0x1
 1832 0947 B1       		.byte	0xb1
 1833 0948 31010000 		.4byte	0x131
 1834 094c 02       		.uleb128 0x2
 1835 094d 91       		.byte	0x91
ARM GAS  /tmp/ccpKz2wI.s 			page 53


 1836 094e 7C       		.sleb128 -4
 1837 094f 00       		.byte	0
 1838 0950 1F       		.uleb128 0x1f
 1839 0951 4A050000 		.4byte	.LASF142
 1840 0955 01       		.byte	0x1
 1841 0956 BD       		.byte	0xbd
 1842 0957 31010000 		.4byte	0x131
 1843 095b 00000000 		.4byte	.LFB140
 1844 095f 0A000000 		.4byte	.LFE140-.LFB140
 1845 0963 01       		.uleb128 0x1
 1846 0964 9C       		.byte	0x9c
 1847 0965 1F       		.uleb128 0x1f
 1848 0966 BD010000 		.4byte	.LASF143
 1849 096a 01       		.byte	0x1
 1850 096b CB       		.byte	0xcb
 1851 096c F0080000 		.4byte	0x8f0
 1852 0970 00000000 		.4byte	.LFB141
 1853 0974 18000000 		.4byte	.LFE141-.LFB141
 1854 0978 01       		.uleb128 0x1
 1855 0979 9C       		.byte	0x9c
 1856 097a 20       		.uleb128 0x20
 1857 097b 49040000 		.4byte	.LASF145
 1858 097f 02       		.byte	0x2
 1859 0980 3C       		.byte	0x3c
 1860 0981 00000000 		.4byte	.LFB272
 1861 0985 08000000 		.4byte	.LFE272-.LFB272
 1862 0989 01       		.uleb128 0x1
 1863 098a 9C       		.byte	0x9c
 1864 098b 21       		.uleb128 0x21
 1865 098c 20060000 		.4byte	.LASF147
 1866 0990 02       		.byte	0x2
 1867 0991 4D       		.byte	0x4d
 1868 0992 00000000 		.4byte	.LFB273
 1869 0996 28000000 		.4byte	.LFE273-.LFB273
 1870 099a 01       		.uleb128 0x1
 1871 099b 9C       		.byte	0x9c
 1872 099c BE090000 		.4byte	0x9be
 1873 09a0 1D       		.uleb128 0x1d
 1874 09a1 BD060000 		.4byte	.LASF144
 1875 09a5 02       		.byte	0x2
 1876 09a6 4D       		.byte	0x4d
 1877 09a7 31010000 		.4byte	0x131
 1878 09ab 02       		.uleb128 0x2
 1879 09ac 91       		.byte	0x91
 1880 09ad 74       		.sleb128 -12
 1881 09ae 22       		.uleb128 0x22
 1882 09af BB020000 		.4byte	.LASF149
 1883 09b3 CE090000 		.4byte	0x9ce
 1884 09b7 05       		.uleb128 0x5
 1885 09b8 03       		.byte	0x3
 1886 09b9 00000000 		.4byte	__func__.7427
 1887 09bd 00       		.byte	0
 1888 09be 12       		.uleb128 0x12
 1889 09bf B7080000 		.4byte	0x8b7
 1890 09c3 CE090000 		.4byte	0x9ce
 1891 09c7 13       		.uleb128 0x13
 1892 09c8 A4040000 		.4byte	0x4a4
ARM GAS  /tmp/ccpKz2wI.s 			page 54


 1893 09cc 0C       		.byte	0xc
 1894 09cd 00       		.byte	0
 1895 09ce 1B       		.uleb128 0x1b
 1896 09cf BE090000 		.4byte	0x9be
 1897 09d3 20       		.uleb128 0x20
 1898 09d4 BB050000 		.4byte	.LASF146
 1899 09d8 02       		.byte	0x2
 1900 09d9 5B       		.byte	0x5b
 1901 09da 00000000 		.4byte	.LFB274
 1902 09de 08000000 		.4byte	.LFE274-.LFB274
 1903 09e2 01       		.uleb128 0x1
 1904 09e3 9C       		.byte	0x9c
 1905 09e4 21       		.uleb128 0x21
 1906 09e5 8A060000 		.4byte	.LASF148
 1907 09e9 02       		.byte	0x2
 1908 09ea 69       		.byte	0x69
 1909 09eb 00000000 		.4byte	.LFB275
 1910 09ef 2E000000 		.4byte	.LFE275-.LFB275
 1911 09f3 01       		.uleb128 0x1
 1912 09f4 9C       		.byte	0x9c
 1913 09f5 170A0000 		.4byte	0xa17
 1914 09f9 1D       		.uleb128 0x1d
 1915 09fa BD060000 		.4byte	.LASF144
 1916 09fe 02       		.byte	0x2
 1917 09ff 69       		.byte	0x69
 1918 0a00 31010000 		.4byte	0x131
 1919 0a04 02       		.uleb128 0x2
 1920 0a05 91       		.byte	0x91
 1921 0a06 74       		.sleb128 -12
 1922 0a07 22       		.uleb128 0x22
 1923 0a08 E4010000 		.4byte	.LASF150
 1924 0a0c 270A0000 		.4byte	0xa27
 1925 0a10 05       		.uleb128 0x5
 1926 0a11 03       		.byte	0x3
 1927 0a12 00000000 		.4byte	__func__.7434
 1928 0a16 00       		.byte	0
 1929 0a17 12       		.uleb128 0x12
 1930 0a18 B7080000 		.4byte	0x8b7
 1931 0a1c 270A0000 		.4byte	0xa27
 1932 0a20 13       		.uleb128 0x13
 1933 0a21 A4040000 		.4byte	0x4a4
 1934 0a25 0A       		.byte	0xa
 1935 0a26 00       		.byte	0
 1936 0a27 1B       		.uleb128 0x1b
 1937 0a28 170A0000 		.4byte	0xa17
 1938 0a2c 23       		.uleb128 0x23
 1939 0a2d 95060000 		.4byte	.LASF157
 1940 0a31 02       		.byte	0x2
 1941 0a32 79       		.byte	0x79
 1942 0a33 31010000 		.4byte	0x131
 1943 0a37 00000000 		.4byte	.LFB276
 1944 0a3b 28000000 		.4byte	.LFE276-.LFB276
 1945 0a3f 01       		.uleb128 0x1
 1946 0a40 9C       		.byte	0x9c
 1947 0a41 550A0000 		.4byte	0xa55
 1948 0a45 22       		.uleb128 0x22
 1949 0a46 56040000 		.4byte	.LASF151
ARM GAS  /tmp/ccpKz2wI.s 			page 55


 1950 0a4a 550A0000 		.4byte	0xa55
 1951 0a4e 05       		.uleb128 0x5
 1952 0a4f 03       		.byte	0x3
 1953 0a50 00000000 		.4byte	__func__.7438
 1954 0a54 00       		.byte	0
 1955 0a55 1B       		.uleb128 0x1b
 1956 0a56 170A0000 		.4byte	0xa17
 1957 0a5a 24       		.uleb128 0x24
 1958 0a5b E7000000 		.4byte	.LASF152
 1959 0a5f 10       		.byte	0x10
 1960 0a60 FA06     		.2byte	0x6fa
 1961 0a62 660A0000 		.4byte	0xa66
 1962 0a66 11       		.uleb128 0x11
 1963 0a67 A2000000 		.4byte	0xa2
 1964 0a6b 25       		.uleb128 0x25
 1965 0a6c 636800   		.ascii	"ch\000"
 1966 0a6f 07       		.byte	0x7
 1967 0a70 0902     		.2byte	0x209
 1968 0a72 2C040000 		.4byte	0x42c
 1969 0a76 00       		.byte	0
 1970              		.section	.debug_abbrev,"",%progbits
 1971              	.Ldebug_abbrev0:
 1972 0000 01       		.uleb128 0x1
 1973 0001 11       		.uleb128 0x11
 1974 0002 01       		.byte	0x1
 1975 0003 25       		.uleb128 0x25
 1976 0004 0E       		.uleb128 0xe
 1977 0005 13       		.uleb128 0x13
 1978 0006 0B       		.uleb128 0xb
 1979 0007 03       		.uleb128 0x3
 1980 0008 0E       		.uleb128 0xe
 1981 0009 1B       		.uleb128 0x1b
 1982 000a 0E       		.uleb128 0xe
 1983 000b 55       		.uleb128 0x55
 1984 000c 17       		.uleb128 0x17
 1985 000d 11       		.uleb128 0x11
 1986 000e 01       		.uleb128 0x1
 1987 000f 10       		.uleb128 0x10
 1988 0010 17       		.uleb128 0x17
 1989 0011 00       		.byte	0
 1990 0012 00       		.byte	0
 1991 0013 02       		.uleb128 0x2
 1992 0014 24       		.uleb128 0x24
 1993 0015 00       		.byte	0
 1994 0016 0B       		.uleb128 0xb
 1995 0017 0B       		.uleb128 0xb
 1996 0018 3E       		.uleb128 0x3e
 1997 0019 0B       		.uleb128 0xb
 1998 001a 03       		.uleb128 0x3
 1999 001b 08       		.uleb128 0x8
 2000 001c 00       		.byte	0
 2001 001d 00       		.byte	0
 2002 001e 03       		.uleb128 0x3
 2003 001f 24       		.uleb128 0x24
 2004 0020 00       		.byte	0
 2005 0021 0B       		.uleb128 0xb
 2006 0022 0B       		.uleb128 0xb
ARM GAS  /tmp/ccpKz2wI.s 			page 56


 2007 0023 3E       		.uleb128 0x3e
 2008 0024 0B       		.uleb128 0xb
 2009 0025 03       		.uleb128 0x3
 2010 0026 0E       		.uleb128 0xe
 2011 0027 00       		.byte	0
 2012 0028 00       		.byte	0
 2013 0029 04       		.uleb128 0x4
 2014 002a 16       		.uleb128 0x16
 2015 002b 00       		.byte	0
 2016 002c 03       		.uleb128 0x3
 2017 002d 0E       		.uleb128 0xe
 2018 002e 3A       		.uleb128 0x3a
 2019 002f 0B       		.uleb128 0xb
 2020 0030 3B       		.uleb128 0x3b
 2021 0031 0B       		.uleb128 0xb
 2022 0032 49       		.uleb128 0x49
 2023 0033 13       		.uleb128 0x13
 2024 0034 00       		.byte	0
 2025 0035 00       		.byte	0
 2026 0036 05       		.uleb128 0x5
 2027 0037 13       		.uleb128 0x13
 2028 0038 01       		.byte	0x1
 2029 0039 03       		.uleb128 0x3
 2030 003a 0E       		.uleb128 0xe
 2031 003b 0B       		.uleb128 0xb
 2032 003c 0B       		.uleb128 0xb
 2033 003d 3A       		.uleb128 0x3a
 2034 003e 0B       		.uleb128 0xb
 2035 003f 3B       		.uleb128 0x3b
 2036 0040 0B       		.uleb128 0xb
 2037 0041 01       		.uleb128 0x1
 2038 0042 13       		.uleb128 0x13
 2039 0043 00       		.byte	0
 2040 0044 00       		.byte	0
 2041 0045 06       		.uleb128 0x6
 2042 0046 0D       		.uleb128 0xd
 2043 0047 00       		.byte	0
 2044 0048 03       		.uleb128 0x3
 2045 0049 0E       		.uleb128 0xe
 2046 004a 3A       		.uleb128 0x3a
 2047 004b 0B       		.uleb128 0xb
 2048 004c 3B       		.uleb128 0x3b
 2049 004d 0B       		.uleb128 0xb
 2050 004e 49       		.uleb128 0x49
 2051 004f 13       		.uleb128 0x13
 2052 0050 38       		.uleb128 0x38
 2053 0051 0B       		.uleb128 0xb
 2054 0052 00       		.byte	0
 2055 0053 00       		.byte	0
 2056 0054 07       		.uleb128 0x7
 2057 0055 0D       		.uleb128 0xd
 2058 0056 00       		.byte	0
 2059 0057 03       		.uleb128 0x3
 2060 0058 08       		.uleb128 0x8
 2061 0059 3A       		.uleb128 0x3a
 2062 005a 0B       		.uleb128 0xb
 2063 005b 3B       		.uleb128 0x3b
ARM GAS  /tmp/ccpKz2wI.s 			page 57


 2064 005c 05       		.uleb128 0x5
 2065 005d 49       		.uleb128 0x49
 2066 005e 13       		.uleb128 0x13
 2067 005f 38       		.uleb128 0x38
 2068 0060 0B       		.uleb128 0xb
 2069 0061 00       		.byte	0
 2070 0062 00       		.byte	0
 2071 0063 08       		.uleb128 0x8
 2072 0064 0D       		.uleb128 0xd
 2073 0065 00       		.byte	0
 2074 0066 03       		.uleb128 0x3
 2075 0067 0E       		.uleb128 0xe
 2076 0068 3A       		.uleb128 0x3a
 2077 0069 0B       		.uleb128 0xb
 2078 006a 3B       		.uleb128 0x3b
 2079 006b 05       		.uleb128 0x5
 2080 006c 49       		.uleb128 0x49
 2081 006d 13       		.uleb128 0x13
 2082 006e 38       		.uleb128 0x38
 2083 006f 0B       		.uleb128 0xb
 2084 0070 00       		.byte	0
 2085 0071 00       		.byte	0
 2086 0072 09       		.uleb128 0x9
 2087 0073 0F       		.uleb128 0xf
 2088 0074 00       		.byte	0
 2089 0075 0B       		.uleb128 0xb
 2090 0076 0B       		.uleb128 0xb
 2091 0077 49       		.uleb128 0x49
 2092 0078 13       		.uleb128 0x13
 2093 0079 00       		.byte	0
 2094 007a 00       		.byte	0
 2095 007b 0A       		.uleb128 0xa
 2096 007c 13       		.uleb128 0x13
 2097 007d 01       		.byte	0x1
 2098 007e 03       		.uleb128 0x3
 2099 007f 0E       		.uleb128 0xe
 2100 0080 0B       		.uleb128 0xb
 2101 0081 0B       		.uleb128 0xb
 2102 0082 3A       		.uleb128 0x3a
 2103 0083 0B       		.uleb128 0xb
 2104 0084 3B       		.uleb128 0x3b
 2105 0085 05       		.uleb128 0x5
 2106 0086 01       		.uleb128 0x1
 2107 0087 13       		.uleb128 0x13
 2108 0088 00       		.byte	0
 2109 0089 00       		.byte	0
 2110 008a 0B       		.uleb128 0xb
 2111 008b 15       		.uleb128 0x15
 2112 008c 01       		.byte	0x1
 2113 008d 27       		.uleb128 0x27
 2114 008e 19       		.uleb128 0x19
 2115 008f 01       		.uleb128 0x1
 2116 0090 13       		.uleb128 0x13
 2117 0091 00       		.byte	0
 2118 0092 00       		.byte	0
 2119 0093 0C       		.uleb128 0xc
 2120 0094 05       		.uleb128 0x5
ARM GAS  /tmp/ccpKz2wI.s 			page 58


 2121 0095 00       		.byte	0
 2122 0096 49       		.uleb128 0x49
 2123 0097 13       		.uleb128 0x13
 2124 0098 00       		.byte	0
 2125 0099 00       		.byte	0
 2126 009a 0D       		.uleb128 0xd
 2127 009b 0F       		.uleb128 0xf
 2128 009c 00       		.byte	0
 2129 009d 0B       		.uleb128 0xb
 2130 009e 0B       		.uleb128 0xb
 2131 009f 00       		.byte	0
 2132 00a0 00       		.byte	0
 2133 00a1 0E       		.uleb128 0xe
 2134 00a2 13       		.uleb128 0x13
 2135 00a3 01       		.byte	0x1
 2136 00a4 03       		.uleb128 0x3
 2137 00a5 0E       		.uleb128 0xe
 2138 00a6 0B       		.uleb128 0xb
 2139 00a7 05       		.uleb128 0x5
 2140 00a8 3A       		.uleb128 0x3a
 2141 00a9 0B       		.uleb128 0xb
 2142 00aa 3B       		.uleb128 0x3b
 2143 00ab 05       		.uleb128 0x5
 2144 00ac 01       		.uleb128 0x1
 2145 00ad 13       		.uleb128 0x13
 2146 00ae 00       		.byte	0
 2147 00af 00       		.byte	0
 2148 00b0 0F       		.uleb128 0xf
 2149 00b1 0D       		.uleb128 0xd
 2150 00b2 00       		.byte	0
 2151 00b3 03       		.uleb128 0x3
 2152 00b4 0E       		.uleb128 0xe
 2153 00b5 3A       		.uleb128 0x3a
 2154 00b6 0B       		.uleb128 0xb
 2155 00b7 3B       		.uleb128 0x3b
 2156 00b8 05       		.uleb128 0x5
 2157 00b9 49       		.uleb128 0x49
 2158 00ba 13       		.uleb128 0x13
 2159 00bb 38       		.uleb128 0x38
 2160 00bc 05       		.uleb128 0x5
 2161 00bd 00       		.byte	0
 2162 00be 00       		.byte	0
 2163 00bf 10       		.uleb128 0x10
 2164 00c0 0D       		.uleb128 0xd
 2165 00c1 00       		.byte	0
 2166 00c2 03       		.uleb128 0x3
 2167 00c3 08       		.uleb128 0x8
 2168 00c4 3A       		.uleb128 0x3a
 2169 00c5 0B       		.uleb128 0xb
 2170 00c6 3B       		.uleb128 0x3b
 2171 00c7 05       		.uleb128 0x5
 2172 00c8 49       		.uleb128 0x49
 2173 00c9 13       		.uleb128 0x13
 2174 00ca 38       		.uleb128 0x38
 2175 00cb 05       		.uleb128 0x5
 2176 00cc 00       		.byte	0
 2177 00cd 00       		.byte	0
ARM GAS  /tmp/ccpKz2wI.s 			page 59


 2178 00ce 11       		.uleb128 0x11
 2179 00cf 35       		.uleb128 0x35
 2180 00d0 00       		.byte	0
 2181 00d1 49       		.uleb128 0x49
 2182 00d2 13       		.uleb128 0x13
 2183 00d3 00       		.byte	0
 2184 00d4 00       		.byte	0
 2185 00d5 12       		.uleb128 0x12
 2186 00d6 01       		.uleb128 0x1
 2187 00d7 01       		.byte	0x1
 2188 00d8 49       		.uleb128 0x49
 2189 00d9 13       		.uleb128 0x13
 2190 00da 01       		.uleb128 0x1
 2191 00db 13       		.uleb128 0x13
 2192 00dc 00       		.byte	0
 2193 00dd 00       		.byte	0
 2194 00de 13       		.uleb128 0x13
 2195 00df 21       		.uleb128 0x21
 2196 00e0 00       		.byte	0
 2197 00e1 49       		.uleb128 0x49
 2198 00e2 13       		.uleb128 0x13
 2199 00e3 2F       		.uleb128 0x2f
 2200 00e4 0B       		.uleb128 0xb
 2201 00e5 00       		.byte	0
 2202 00e6 00       		.byte	0
 2203 00e7 14       		.uleb128 0x14
 2204 00e8 0D       		.uleb128 0xd
 2205 00e9 00       		.byte	0
 2206 00ea 03       		.uleb128 0x3
 2207 00eb 08       		.uleb128 0x8
 2208 00ec 3A       		.uleb128 0x3a
 2209 00ed 0B       		.uleb128 0xb
 2210 00ee 3B       		.uleb128 0x3b
 2211 00ef 0B       		.uleb128 0xb
 2212 00f0 49       		.uleb128 0x49
 2213 00f1 13       		.uleb128 0x13
 2214 00f2 38       		.uleb128 0x38
 2215 00f3 0B       		.uleb128 0xb
 2216 00f4 00       		.byte	0
 2217 00f5 00       		.byte	0
 2218 00f6 15       		.uleb128 0x15
 2219 00f7 13       		.uleb128 0x13
 2220 00f8 01       		.byte	0x1
 2221 00f9 0B       		.uleb128 0xb
 2222 00fa 0B       		.uleb128 0xb
 2223 00fb 3A       		.uleb128 0x3a
 2224 00fc 0B       		.uleb128 0xb
 2225 00fd 3B       		.uleb128 0x3b
 2226 00fe 05       		.uleb128 0x5
 2227 00ff 01       		.uleb128 0x1
 2228 0100 13       		.uleb128 0x13
 2229 0101 00       		.byte	0
 2230 0102 00       		.byte	0
 2231 0103 16       		.uleb128 0x16
 2232 0104 16       		.uleb128 0x16
 2233 0105 00       		.byte	0
 2234 0106 03       		.uleb128 0x3
ARM GAS  /tmp/ccpKz2wI.s 			page 60


 2235 0107 0E       		.uleb128 0xe
 2236 0108 3A       		.uleb128 0x3a
 2237 0109 0B       		.uleb128 0xb
 2238 010a 3B       		.uleb128 0x3b
 2239 010b 05       		.uleb128 0x5
 2240 010c 49       		.uleb128 0x49
 2241 010d 13       		.uleb128 0x13
 2242 010e 00       		.byte	0
 2243 010f 00       		.byte	0
 2244 0110 17       		.uleb128 0x17
 2245 0111 13       		.uleb128 0x13
 2246 0112 01       		.byte	0x1
 2247 0113 0B       		.uleb128 0xb
 2248 0114 0B       		.uleb128 0xb
 2249 0115 3A       		.uleb128 0x3a
 2250 0116 0B       		.uleb128 0xb
 2251 0117 3B       		.uleb128 0x3b
 2252 0118 0B       		.uleb128 0xb
 2253 0119 01       		.uleb128 0x1
 2254 011a 13       		.uleb128 0x13
 2255 011b 00       		.byte	0
 2256 011c 00       		.byte	0
 2257 011d 18       		.uleb128 0x18
 2258 011e 13       		.uleb128 0x13
 2259 011f 01       		.byte	0x1
 2260 0120 0B       		.uleb128 0xb
 2261 0121 05       		.uleb128 0x5
 2262 0122 3A       		.uleb128 0x3a
 2263 0123 0B       		.uleb128 0xb
 2264 0124 3B       		.uleb128 0x3b
 2265 0125 0B       		.uleb128 0xb
 2266 0126 01       		.uleb128 0x1
 2267 0127 13       		.uleb128 0x13
 2268 0128 00       		.byte	0
 2269 0129 00       		.byte	0
 2270 012a 19       		.uleb128 0x19
 2271 012b 17       		.uleb128 0x17
 2272 012c 01       		.byte	0x1
 2273 012d 0B       		.uleb128 0xb
 2274 012e 0B       		.uleb128 0xb
 2275 012f 3A       		.uleb128 0x3a
 2276 0130 0B       		.uleb128 0xb
 2277 0131 3B       		.uleb128 0x3b
 2278 0132 0B       		.uleb128 0xb
 2279 0133 01       		.uleb128 0x1
 2280 0134 13       		.uleb128 0x13
 2281 0135 00       		.byte	0
 2282 0136 00       		.byte	0
 2283 0137 1A       		.uleb128 0x1a
 2284 0138 0D       		.uleb128 0xd
 2285 0139 00       		.byte	0
 2286 013a 03       		.uleb128 0x3
 2287 013b 0E       		.uleb128 0xe
 2288 013c 3A       		.uleb128 0x3a
 2289 013d 0B       		.uleb128 0xb
 2290 013e 3B       		.uleb128 0x3b
 2291 013f 05       		.uleb128 0x5
ARM GAS  /tmp/ccpKz2wI.s 			page 61


 2292 0140 49       		.uleb128 0x49
 2293 0141 13       		.uleb128 0x13
 2294 0142 00       		.byte	0
 2295 0143 00       		.byte	0
 2296 0144 1B       		.uleb128 0x1b
 2297 0145 26       		.uleb128 0x26
 2298 0146 00       		.byte	0
 2299 0147 49       		.uleb128 0x49
 2300 0148 13       		.uleb128 0x13
 2301 0149 00       		.byte	0
 2302 014a 00       		.byte	0
 2303 014b 1C       		.uleb128 0x1c
 2304 014c 2E       		.uleb128 0x2e
 2305 014d 01       		.byte	0x1
 2306 014e 03       		.uleb128 0x3
 2307 014f 0E       		.uleb128 0xe
 2308 0150 3A       		.uleb128 0x3a
 2309 0151 0B       		.uleb128 0xb
 2310 0152 3B       		.uleb128 0x3b
 2311 0153 0B       		.uleb128 0xb
 2312 0154 27       		.uleb128 0x27
 2313 0155 19       		.uleb128 0x19
 2314 0156 11       		.uleb128 0x11
 2315 0157 01       		.uleb128 0x1
 2316 0158 12       		.uleb128 0x12
 2317 0159 06       		.uleb128 0x6
 2318 015a 40       		.uleb128 0x40
 2319 015b 18       		.uleb128 0x18
 2320 015c 9742     		.uleb128 0x2117
 2321 015e 19       		.uleb128 0x19
 2322 015f 01       		.uleb128 0x1
 2323 0160 13       		.uleb128 0x13
 2324 0161 00       		.byte	0
 2325 0162 00       		.byte	0
 2326 0163 1D       		.uleb128 0x1d
 2327 0164 05       		.uleb128 0x5
 2328 0165 00       		.byte	0
 2329 0166 03       		.uleb128 0x3
 2330 0167 0E       		.uleb128 0xe
 2331 0168 3A       		.uleb128 0x3a
 2332 0169 0B       		.uleb128 0xb
 2333 016a 3B       		.uleb128 0x3b
 2334 016b 0B       		.uleb128 0xb
 2335 016c 49       		.uleb128 0x49
 2336 016d 13       		.uleb128 0x13
 2337 016e 02       		.uleb128 0x2
 2338 016f 18       		.uleb128 0x18
 2339 0170 00       		.byte	0
 2340 0171 00       		.byte	0
 2341 0172 1E       		.uleb128 0x1e
 2342 0173 2E       		.uleb128 0x2e
 2343 0174 00       		.byte	0
 2344 0175 03       		.uleb128 0x3
 2345 0176 0E       		.uleb128 0xe
 2346 0177 3A       		.uleb128 0x3a
 2347 0178 0B       		.uleb128 0xb
 2348 0179 3B       		.uleb128 0x3b
ARM GAS  /tmp/ccpKz2wI.s 			page 62


 2349 017a 0B       		.uleb128 0xb
 2350 017b 27       		.uleb128 0x27
 2351 017c 19       		.uleb128 0x19
 2352 017d 11       		.uleb128 0x11
 2353 017e 01       		.uleb128 0x1
 2354 017f 12       		.uleb128 0x12
 2355 0180 06       		.uleb128 0x6
 2356 0181 40       		.uleb128 0x40
 2357 0182 18       		.uleb128 0x18
 2358 0183 9742     		.uleb128 0x2117
 2359 0185 19       		.uleb128 0x19
 2360 0186 00       		.byte	0
 2361 0187 00       		.byte	0
 2362 0188 1F       		.uleb128 0x1f
 2363 0189 2E       		.uleb128 0x2e
 2364 018a 00       		.byte	0
 2365 018b 03       		.uleb128 0x3
 2366 018c 0E       		.uleb128 0xe
 2367 018d 3A       		.uleb128 0x3a
 2368 018e 0B       		.uleb128 0xb
 2369 018f 3B       		.uleb128 0x3b
 2370 0190 0B       		.uleb128 0xb
 2371 0191 27       		.uleb128 0x27
 2372 0192 19       		.uleb128 0x19
 2373 0193 49       		.uleb128 0x49
 2374 0194 13       		.uleb128 0x13
 2375 0195 11       		.uleb128 0x11
 2376 0196 01       		.uleb128 0x1
 2377 0197 12       		.uleb128 0x12
 2378 0198 06       		.uleb128 0x6
 2379 0199 40       		.uleb128 0x40
 2380 019a 18       		.uleb128 0x18
 2381 019b 9742     		.uleb128 0x2117
 2382 019d 19       		.uleb128 0x19
 2383 019e 00       		.byte	0
 2384 019f 00       		.byte	0
 2385 01a0 20       		.uleb128 0x20
 2386 01a1 2E       		.uleb128 0x2e
 2387 01a2 00       		.byte	0
 2388 01a3 3F       		.uleb128 0x3f
 2389 01a4 19       		.uleb128 0x19
 2390 01a5 03       		.uleb128 0x3
 2391 01a6 0E       		.uleb128 0xe
 2392 01a7 3A       		.uleb128 0x3a
 2393 01a8 0B       		.uleb128 0xb
 2394 01a9 3B       		.uleb128 0x3b
 2395 01aa 0B       		.uleb128 0xb
 2396 01ab 27       		.uleb128 0x27
 2397 01ac 19       		.uleb128 0x19
 2398 01ad 11       		.uleb128 0x11
 2399 01ae 01       		.uleb128 0x1
 2400 01af 12       		.uleb128 0x12
 2401 01b0 06       		.uleb128 0x6
 2402 01b1 40       		.uleb128 0x40
 2403 01b2 18       		.uleb128 0x18
 2404 01b3 9642     		.uleb128 0x2116
 2405 01b5 19       		.uleb128 0x19
ARM GAS  /tmp/ccpKz2wI.s 			page 63


 2406 01b6 00       		.byte	0
 2407 01b7 00       		.byte	0
 2408 01b8 21       		.uleb128 0x21
 2409 01b9 2E       		.uleb128 0x2e
 2410 01ba 01       		.byte	0x1
 2411 01bb 3F       		.uleb128 0x3f
 2412 01bc 19       		.uleb128 0x19
 2413 01bd 03       		.uleb128 0x3
 2414 01be 0E       		.uleb128 0xe
 2415 01bf 3A       		.uleb128 0x3a
 2416 01c0 0B       		.uleb128 0xb
 2417 01c1 3B       		.uleb128 0x3b
 2418 01c2 0B       		.uleb128 0xb
 2419 01c3 27       		.uleb128 0x27
 2420 01c4 19       		.uleb128 0x19
 2421 01c5 11       		.uleb128 0x11
 2422 01c6 01       		.uleb128 0x1
 2423 01c7 12       		.uleb128 0x12
 2424 01c8 06       		.uleb128 0x6
 2425 01c9 40       		.uleb128 0x40
 2426 01ca 18       		.uleb128 0x18
 2427 01cb 9642     		.uleb128 0x2116
 2428 01cd 19       		.uleb128 0x19
 2429 01ce 01       		.uleb128 0x1
 2430 01cf 13       		.uleb128 0x13
 2431 01d0 00       		.byte	0
 2432 01d1 00       		.byte	0
 2433 01d2 22       		.uleb128 0x22
 2434 01d3 34       		.uleb128 0x34
 2435 01d4 00       		.byte	0
 2436 01d5 03       		.uleb128 0x3
 2437 01d6 0E       		.uleb128 0xe
 2438 01d7 49       		.uleb128 0x49
 2439 01d8 13       		.uleb128 0x13
 2440 01d9 34       		.uleb128 0x34
 2441 01da 19       		.uleb128 0x19
 2442 01db 02       		.uleb128 0x2
 2443 01dc 18       		.uleb128 0x18
 2444 01dd 00       		.byte	0
 2445 01de 00       		.byte	0
 2446 01df 23       		.uleb128 0x23
 2447 01e0 2E       		.uleb128 0x2e
 2448 01e1 01       		.byte	0x1
 2449 01e2 3F       		.uleb128 0x3f
 2450 01e3 19       		.uleb128 0x19
 2451 01e4 03       		.uleb128 0x3
 2452 01e5 0E       		.uleb128 0xe
 2453 01e6 3A       		.uleb128 0x3a
 2454 01e7 0B       		.uleb128 0xb
 2455 01e8 3B       		.uleb128 0x3b
 2456 01e9 0B       		.uleb128 0xb
 2457 01ea 27       		.uleb128 0x27
 2458 01eb 19       		.uleb128 0x19
 2459 01ec 49       		.uleb128 0x49
 2460 01ed 13       		.uleb128 0x13
 2461 01ee 11       		.uleb128 0x11
 2462 01ef 01       		.uleb128 0x1
ARM GAS  /tmp/ccpKz2wI.s 			page 64


 2463 01f0 12       		.uleb128 0x12
 2464 01f1 06       		.uleb128 0x6
 2465 01f2 40       		.uleb128 0x40
 2466 01f3 18       		.uleb128 0x18
 2467 01f4 9642     		.uleb128 0x2116
 2468 01f6 19       		.uleb128 0x19
 2469 01f7 01       		.uleb128 0x1
 2470 01f8 13       		.uleb128 0x13
 2471 01f9 00       		.byte	0
 2472 01fa 00       		.byte	0
 2473 01fb 24       		.uleb128 0x24
 2474 01fc 34       		.uleb128 0x34
 2475 01fd 00       		.byte	0
 2476 01fe 03       		.uleb128 0x3
 2477 01ff 0E       		.uleb128 0xe
 2478 0200 3A       		.uleb128 0x3a
 2479 0201 0B       		.uleb128 0xb
 2480 0202 3B       		.uleb128 0x3b
 2481 0203 05       		.uleb128 0x5
 2482 0204 49       		.uleb128 0x49
 2483 0205 13       		.uleb128 0x13
 2484 0206 3F       		.uleb128 0x3f
 2485 0207 19       		.uleb128 0x19
 2486 0208 3C       		.uleb128 0x3c
 2487 0209 19       		.uleb128 0x19
 2488 020a 00       		.byte	0
 2489 020b 00       		.byte	0
 2490 020c 25       		.uleb128 0x25
 2491 020d 34       		.uleb128 0x34
 2492 020e 00       		.byte	0
 2493 020f 03       		.uleb128 0x3
 2494 0210 08       		.uleb128 0x8
 2495 0211 3A       		.uleb128 0x3a
 2496 0212 0B       		.uleb128 0xb
 2497 0213 3B       		.uleb128 0x3b
 2498 0214 05       		.uleb128 0x5
 2499 0215 49       		.uleb128 0x49
 2500 0216 13       		.uleb128 0x13
 2501 0217 3F       		.uleb128 0x3f
 2502 0218 19       		.uleb128 0x19
 2503 0219 3C       		.uleb128 0x3c
 2504 021a 19       		.uleb128 0x19
 2505 021b 00       		.byte	0
 2506 021c 00       		.byte	0
 2507 021d 00       		.byte	0
 2508              		.section	.debug_aranges,"",%progbits
 2509 0000 64000000 		.4byte	0x64
 2510 0004 0200     		.2byte	0x2
 2511 0006 00000000 		.4byte	.Ldebug_info0
 2512 000a 04       		.byte	0x4
 2513 000b 00       		.byte	0
 2514 000c 0000     		.2byte	0
 2515 000e 0000     		.2byte	0
 2516 0010 00000000 		.4byte	.LFB137
 2517 0014 20000000 		.4byte	.LFE137-.LFB137
 2518 0018 00000000 		.4byte	.LFB138
 2519 001c 0A000000 		.4byte	.LFE138-.LFB138
ARM GAS  /tmp/ccpKz2wI.s 			page 65


 2520 0020 00000000 		.4byte	.LFB139
 2521 0024 10000000 		.4byte	.LFE139-.LFB139
 2522 0028 00000000 		.4byte	.LFB140
 2523 002c 0A000000 		.4byte	.LFE140-.LFB140
 2524 0030 00000000 		.4byte	.LFB141
 2525 0034 18000000 		.4byte	.LFE141-.LFB141
 2526 0038 00000000 		.4byte	.LFB272
 2527 003c 08000000 		.4byte	.LFE272-.LFB272
 2528 0040 00000000 		.4byte	.LFB273
 2529 0044 28000000 		.4byte	.LFE273-.LFB273
 2530 0048 00000000 		.4byte	.LFB274
 2531 004c 08000000 		.4byte	.LFE274-.LFB274
 2532 0050 00000000 		.4byte	.LFB275
 2533 0054 2E000000 		.4byte	.LFE275-.LFB275
 2534 0058 00000000 		.4byte	.LFB276
 2535 005c 28000000 		.4byte	.LFE276-.LFB276
 2536 0060 00000000 		.4byte	0
 2537 0064 00000000 		.4byte	0
 2538              		.section	.debug_ranges,"",%progbits
 2539              	.Ldebug_ranges0:
 2540 0000 00000000 		.4byte	.LFB137
 2541 0004 20000000 		.4byte	.LFE137
 2542 0008 00000000 		.4byte	.LFB138
 2543 000c 0A000000 		.4byte	.LFE138
 2544 0010 00000000 		.4byte	.LFB139
 2545 0014 10000000 		.4byte	.LFE139
 2546 0018 00000000 		.4byte	.LFB140
 2547 001c 0A000000 		.4byte	.LFE140
 2548 0020 00000000 		.4byte	.LFB141
 2549 0024 18000000 		.4byte	.LFE141
 2550 0028 00000000 		.4byte	.LFB272
 2551 002c 08000000 		.4byte	.LFE272
 2552 0030 00000000 		.4byte	.LFB273
 2553 0034 28000000 		.4byte	.LFE273
 2554 0038 00000000 		.4byte	.LFB274
 2555 003c 08000000 		.4byte	.LFE274
 2556 0040 00000000 		.4byte	.LFB275
 2557 0044 2E000000 		.4byte	.LFE275
 2558 0048 00000000 		.4byte	.LFB276
 2559 004c 28000000 		.4byte	.LFE276
 2560 0050 00000000 		.4byte	0
 2561 0054 00000000 		.4byte	0
 2562              		.section	.debug_line,"",%progbits
 2563              	.Ldebug_line0:
 2564 0000 E7020000 		.section	.debug_str,"MS",%progbits,1
 2564      02000A02 
 2564      00000201 
 2564      FB0E0D00 
 2564      01010101 
 2565              	.LASF107:
 2566 0000 74625F70 		.ascii	"tb_ptr\000"
 2566      747200
 2567              	.LASF54:
 2568 0007 72656164 		.ascii	"ready_list_t\000"
 2568      795F6C69 
 2568      73745F74 
 2568      00
ARM GAS  /tmp/ccpKz2wI.s 			page 66


 2569              	.LASF92:
 2570 0014 44494552 		.ascii	"DIER\000"
 2570      00
 2571              	.LASF125:
 2572 0019 77747472 		.ascii	"wttrp\000"
 2572      7000
 2573              	.LASF122:
 2574 001f 7264796D 		.ascii	"rdymsg\000"
 2574      736700
 2575              	.LASF16:
 2576 0026 75696E74 		.ascii	"uint64_t\000"
 2576      36345F74 
 2576      00
 2577              	.LASF84:
 2578 002f 6B65726E 		.ascii	"kernel_stats\000"
 2578      656C5F73 
 2578      74617473 
 2578      00
 2579              	.LASF5:
 2580 003c 5F5F7569 		.ascii	"__uint8_t\000"
 2580      6E74385F 
 2580      7400
 2581              	.LASF90:
 2582 0046 706F7274 		.ascii	"port_intctx\000"
 2582      5F696E74 
 2582      63747800 
 2583              	.LASF53:
 2584 0052 63685F74 		.ascii	"ch_threads_queue\000"
 2584      68726561 
 2584      64735F71 
 2584      75657565 
 2584      00
 2585              	.LASF73:
 2586 0063 73797374 		.ascii	"system_debug_t\000"
 2586      656D5F64 
 2586      65627567 
 2586      5F7400
 2587              	.LASF113:
 2588 0072 776F7273 		.ascii	"worst\000"
 2588      7400
 2589              	.LASF116:
 2590 0078 74696D65 		.ascii	"time_measurement_t\000"
 2590      5F6D6561 
 2590      73757265 
 2590      6D656E74 
 2590      5F7400
 2591              	.LASF12:
 2592 008b 6C6F6E67 		.ascii	"long long unsigned int\000"
 2592      206C6F6E 
 2592      6720756E 
 2592      7369676E 
 2592      65642069 
 2593              	.LASF109:
 2594 00a2 63685F74 		.ascii	"ch_trace_buffer_t\000"
 2594      72616365 
 2594      5F627566 
 2594      6665725F 
ARM GAS  /tmp/ccpKz2wI.s 			page 67


 2594      7400
 2595              	.LASF104:
 2596 00b4 73655F73 		.ascii	"se_state\000"
 2596      74617465 
 2596      00
 2597              	.LASF123:
 2598 00bd 65786974 		.ascii	"exitcode\000"
 2598      636F6465 
 2598      00
 2599              	.LASF83:
 2600 00c6 6D61696E 		.ascii	"mainthread\000"
 2600      74687265 
 2600      616400
 2601              	.LASF70:
 2602 00d1 76697274 		.ascii	"virtual_timers_list_t\000"
 2602      75616C5F 
 2602      74696D65 
 2602      72735F6C 
 2602      6973745F 
 2603              	.LASF152:
 2604 00e7 49544D5F 		.ascii	"ITM_RxBuffer\000"
 2604      52784275 
 2604      66666572 
 2604      00
 2605              	.LASF96:
 2606 00f4 42445452 		.ascii	"BDTR\000"
 2606      00
 2607              	.LASF18:
 2608 00f9 72747469 		.ascii	"rttime_t\000"
 2608      6D655F74 
 2608      00
 2609              	.LASF31:
 2610 0102 705F7072 		.ascii	"p_prio\000"
 2610      696F00
 2611              	.LASF93:
 2612 0109 43434D52 		.ascii	"CCMR1\000"
 2612      3100
 2613              	.LASF94:
 2614 010f 43434D52 		.ascii	"CCMR2\000"
 2614      3200
 2615              	.LASF98:
 2616 0115 43434D52 		.ascii	"CCMR3\000"
 2616      3300
 2617              	.LASF1:
 2618 011b 7369676E 		.ascii	"signed char\000"
 2618      65642063 
 2618      68617200 
 2619              	.LASF155:
 2620 0127 2F686F6D 		.ascii	"/home/jerker/git/AutoTux/stm32\000"
 2620      652F6A65 
 2620      726B6572 
 2620      2F676974 
 2620      2F417574 
 2621              	.LASF101:
 2622 0146 73655F74 		.ascii	"se_time\000"
 2622      696D6500 
 2623              	.LASF133:
ARM GAS  /tmp/ccpKz2wI.s 			page 68


 2624 014e 6D5F7175 		.ascii	"m_queue\000"
 2624      65756500 
 2625              	.LASF82:
 2626 0156 76746C69 		.ascii	"vtlist\000"
 2626      737400
 2627              	.LASF80:
 2628 015d 63685F73 		.ascii	"ch_system\000"
 2628      79737465 
 2628      6D00
 2629              	.LASF7:
 2630 0167 6C6F6E67 		.ascii	"long int\000"
 2630      20696E74 
 2630      00
 2631              	.LASF19:
 2632 0170 746D6F64 		.ascii	"tmode_t\000"
 2632      655F7400 
 2633              	.LASF20:
 2634 0178 74737461 		.ascii	"tstate_t\000"
 2634      74655F74 
 2634      00
 2635              	.LASF95:
 2636 0181 43434552 		.ascii	"CCER\000"
 2636      00
 2637              	.LASF102:
 2638 0186 73655F74 		.ascii	"se_tp\000"
 2638      7000
 2639              	.LASF10:
 2640 018c 6C6F6E67 		.ascii	"long long int\000"
 2640      206C6F6E 
 2640      6720696E 
 2640      7400
 2641              	.LASF33:
 2642 019a 705F6E65 		.ascii	"p_newer\000"
 2642      77657200 
 2643              	.LASF130:
 2644 01a2 735F7175 		.ascii	"s_queue\000"
 2644      65756500 
 2645              	.LASF4:
 2646 01aa 73686F72 		.ascii	"short unsigned int\000"
 2646      7420756E 
 2646      7369676E 
 2646      65642069 
 2646      6E7400
 2647              	.LASF143:
 2648 01bd 73745F6C 		.ascii	"st_lld_is_alarm_active\000"
 2648      6C645F69 
 2648      735F616C 
 2648      61726D5F 
 2648      61637469 
 2649              	.LASF106:
 2650 01d4 74625F73 		.ascii	"tb_size\000"
 2650      697A6500 
 2651              	.LASF59:
 2652 01dc 725F6E65 		.ascii	"r_newer\000"
 2652      77657200 
 2653              	.LASF150:
 2654 01e4 5F5F6675 		.ascii	"__func__.7434\000"
ARM GAS  /tmp/ccpKz2wI.s 			page 69


 2654      6E635F5F 
 2654      2E373433 
 2654      3400
 2655              	.LASF87:
 2656 01f2 72656761 		.ascii	"regarm_t\000"
 2656      726D5F74 
 2656      00
 2657              	.LASF66:
 2658 01fb 76745F70 		.ascii	"vt_prev\000"
 2658      72657600 
 2659              	.LASF74:
 2660 0203 63685F73 		.ascii	"ch_system_debug\000"
 2660      79737465 
 2660      6D5F6465 
 2660      62756700 
 2661              	.LASF137:
 2662 0213 6D757465 		.ascii	"mutex_t\000"
 2662      785F7400 
 2663              	.LASF77:
 2664 021b 6C6F636B 		.ascii	"lock_cnt\000"
 2664      5F636E74 
 2664      00
 2665              	.LASF85:
 2666 0224 69646C65 		.ascii	"idle_thread_wa\000"
 2666      5F746872 
 2666      6561645F 
 2666      776100
 2667              	.LASF25:
 2668 0233 636E745F 		.ascii	"cnt_t\000"
 2668      7400
 2669              	.LASF36:
 2670 0239 705F7374 		.ascii	"p_stklimit\000"
 2670      6B6C696D 
 2670      697400
 2671              	.LASF0:
 2672 0244 756E7369 		.ascii	"unsigned int\000"
 2672      676E6564 
 2672      20696E74 
 2672      00
 2673              	.LASF65:
 2674 0251 76745F6E 		.ascii	"vt_next\000"
 2674      65787400 
 2675              	.LASF126:
 2676 0259 77747365 		.ascii	"wtsemp\000"
 2676      6D7000
 2677              	.LASF41:
 2678 0260 705F6D73 		.ascii	"p_msgqueue\000"
 2678      67717565 
 2678      756500
 2679              	.LASF117:
 2680 026b 6E5F6972 		.ascii	"n_irq\000"
 2680      7100
 2681              	.LASF131:
 2682 0271 735F636E 		.ascii	"s_cnt\000"
 2682      7400
 2683              	.LASF91:
 2684 0277 534D4352 		.ascii	"SMCR\000"
ARM GAS  /tmp/ccpKz2wI.s 			page 70


 2684      00
 2685              	.LASF121:
 2686 027c 6B65726E 		.ascii	"kernel_stats_t\000"
 2686      656C5F73 
 2686      74617473 
 2686      5F7400
 2687              	.LASF50:
 2688 028b 63685F74 		.ascii	"ch_thread\000"
 2688      68726561 
 2688      6400
 2689              	.LASF46:
 2690 0295 705F6D70 		.ascii	"p_mpool\000"
 2690      6F6F6C00 
 2691              	.LASF23:
 2692 029d 6D73675F 		.ascii	"msg_t\000"
 2692      7400
 2693              	.LASF114:
 2694 02a3 6C617374 		.ascii	"last\000"
 2694      00
 2695              	.LASF26:
 2696 02a8 75636E74 		.ascii	"ucnt_t\000"
 2696      5F7400
 2697              	.LASF79:
 2698 02af 63685F73 		.ascii	"ch_system_t\000"
 2698      79737465 
 2698      6D5F7400 
 2699              	.LASF149:
 2700 02bb 5F5F6675 		.ascii	"__func__.7427\000"
 2700      6E635F5F 
 2700      2E373432 
 2700      3700
 2701              	.LASF153:
 2702 02c9 474E5520 		.ascii	"GNU C 4.8.2 -mcpu=cortex-m4 -mno-thumb-interwork -m"
 2702      4320342E 
 2702      382E3220 
 2702      2D6D6370 
 2702      753D636F 
 2703 02fc 7468756D 		.ascii	"thumb -ggdb -O0 -fomit-frame-pointer -falign-functi"
 2703      62202D67 
 2703      67646220 
 2703      2D4F3020 
 2703      2D666F6D 
 2704 032f 6F6E733D 		.ascii	"ons=16 -ffunction-sections -fdata-sections -fno-com"
 2704      3136202D 
 2704      6666756E 
 2704      6374696F 
 2704      6E2D7365 
 2705 0362 6D6F6E20 		.ascii	"mon -flto\000"
 2705      2D666C74 
 2705      6F00
 2706              	.LASF100:
 2707 036c 73746D33 		.ascii	"stm32_tim_t\000"
 2707      325F7469 
 2707      6D5F7400 
 2708              	.LASF120:
 2709 0378 6D5F6372 		.ascii	"m_crit_isr\000"
 2709      69745F69 
ARM GAS  /tmp/ccpKz2wI.s 			page 71


 2709      737200
 2710              	.LASF55:
 2711 0383 63685F72 		.ascii	"ch_ready_list\000"
 2711      65616479 
 2711      5F6C6973 
 2711      7400
 2712              	.LASF24:
 2713 0391 6576656E 		.ascii	"eventmask_t\000"
 2713      746D6173 
 2713      6B5F7400 
 2714              	.LASF6:
 2715 039d 5F5F696E 		.ascii	"__int32_t\000"
 2715      7433325F 
 2715      7400
 2716              	.LASF139:
 2717 03a7 73745F6C 		.ascii	"st_lld_start_alarm\000"
 2717      6C645F73 
 2717      74617274 
 2717      5F616C61 
 2717      726D00
 2718              	.LASF88:
 2719 03ba 73746B61 		.ascii	"stkalign_t\000"
 2719      6C69676E 
 2719      5F7400
 2720              	.LASF40:
 2721 03c5 705F7761 		.ascii	"p_waiting\000"
 2721      6974696E 
 2721      6700
 2722              	.LASF86:
 2723 03cf 73697A65 		.ascii	"sizetype\000"
 2723      74797065 
 2723      00
 2724              	.LASF48:
 2725 03d8 74687265 		.ascii	"thread_reference_t\000"
 2725      61645F72 
 2725      65666572 
 2725      656E6365 
 2725      5F7400
 2726              	.LASF71:
 2727 03eb 63685F76 		.ascii	"ch_virtual_timers_list\000"
 2727      69727475 
 2727      616C5F74 
 2727      696D6572 
 2727      735F6C69 
 2728              	.LASF105:
 2729 0402 63685F73 		.ascii	"ch_swc_event_t\000"
 2729      77635F65 
 2729      76656E74 
 2729      5F7400
 2730              	.LASF154:
 2731 0411 6C69622F 		.ascii	"lib/ChibiOS_16.1.4//os/hal/src/st.c\000"
 2731      43686962 
 2731      694F535F 
 2731      31362E31 
 2731      2E342F2F 
 2732              	.LASF72:
 2733 0435 76745F6C 		.ascii	"vt_lasttime\000"
ARM GAS  /tmp/ccpKz2wI.s 			page 72


 2733      61737474 
 2733      696D6500 
 2734              	.LASF34:
 2735 0441 705F6F6C 		.ascii	"p_older\000"
 2735      64657200 
 2736              	.LASF145:
 2737 0449 7374496E 		.ascii	"stInit\000"
 2737      697400
 2738              	.LASF58:
 2739 0450 725F6374 		.ascii	"r_ctx\000"
 2739      7800
 2740              	.LASF151:
 2741 0456 5F5F6675 		.ascii	"__func__.7438\000"
 2741      6E635F5F 
 2741      2E373433 
 2741      3800
 2742              	.LASF111:
 2743 0464 746D5F63 		.ascii	"tm_calibration_t\000"
 2743      616C6962 
 2743      72617469 
 2743      6F6E5F74 
 2743      00
 2744              	.LASF141:
 2745 0475 74696D65 		.ascii	"time\000"
 2745      00
 2746              	.LASF61:
 2747 047a 725F6375 		.ascii	"r_current\000"
 2747      7272656E 
 2747      7400
 2748              	.LASF60:
 2749 0484 725F6F6C 		.ascii	"r_older\000"
 2749      64657200 
 2750              	.LASF11:
 2751 048c 5F5F7569 		.ascii	"__uint64_t\000"
 2751      6E743634 
 2751      5F7400
 2752              	.LASF115:
 2753 0497 63756D75 		.ascii	"cumulative\000"
 2753      6C617469 
 2753      766500
 2754              	.LASF21:
 2755 04a2 74726566 		.ascii	"trefs_t\000"
 2755      735F7400 
 2756              	.LASF108:
 2757 04aa 74625F62 		.ascii	"tb_buffer\000"
 2757      75666665 
 2757      7200
 2758              	.LASF63:
 2759 04b4 76697274 		.ascii	"virtual_timer_t\000"
 2759      75616C5F 
 2759      74696D65 
 2759      725F7400 
 2760              	.LASF30:
 2761 04c4 705F7072 		.ascii	"p_prev\000"
 2761      657600
 2762              	.LASF22:
 2763 04cb 74707269 		.ascii	"tprio_t\000"
ARM GAS  /tmp/ccpKz2wI.s 			page 73


 2763      6F5F7400 
 2764              	.LASF118:
 2765 04d3 6E5F6374 		.ascii	"n_ctxswc\000"
 2765      78737763 
 2765      00
 2766              	.LASF138:
 2767 04dc 5F426F6F 		.ascii	"_Bool\000"
 2767      6C00
 2768              	.LASF14:
 2769 04e2 696E7433 		.ascii	"int32_t\000"
 2769      325F7400 
 2770              	.LASF2:
 2771 04ea 756E7369 		.ascii	"unsigned char\000"
 2771      676E6564 
 2771      20636861 
 2771      7200
 2772              	.LASF44:
 2773 04f8 705F6D74 		.ascii	"p_mtxlist\000"
 2773      786C6973 
 2773      7400
 2774              	.LASF3:
 2775 0502 73686F72 		.ascii	"short int\000"
 2775      7420696E 
 2775      7400
 2776              	.LASF37:
 2777 050c 705F7374 		.ascii	"p_state\000"
 2777      61746500 
 2778              	.LASF57:
 2779 0514 725F7072 		.ascii	"r_prio\000"
 2779      696F00
 2780              	.LASF128:
 2781 051b 65776D61 		.ascii	"ewmask\000"
 2781      736B00
 2782              	.LASF29:
 2783 0522 705F6E65 		.ascii	"p_next\000"
 2783      787400
 2784              	.LASF13:
 2785 0529 75696E74 		.ascii	"uint8_t\000"
 2785      385F7400 
 2786              	.LASF47:
 2787 0531 705F7374 		.ascii	"p_stats\000"
 2787      61747300 
 2788              	.LASF64:
 2789 0539 63685F76 		.ascii	"ch_virtual_timer\000"
 2789      69727475 
 2789      616C5F74 
 2789      696D6572 
 2789      00
 2790              	.LASF142:
 2791 054a 73745F6C 		.ascii	"st_lld_get_alarm\000"
 2791      6C645F67 
 2791      65745F61 
 2791      6C61726D 
 2791      00
 2792              	.LASF129:
 2793 055b 63685F73 		.ascii	"ch_semaphore\000"
 2793      656D6170 
ARM GAS  /tmp/ccpKz2wI.s 			page 74


 2793      686F7265 
 2793      00
 2794              	.LASF99:
 2795 0568 43435852 		.ascii	"CCXR\000"
 2795      00
 2796              	.LASF43:
 2797 056d 705F6570 		.ascii	"p_epending\000"
 2797      656E6469 
 2797      6E6700
 2798              	.LASF15:
 2799 0578 75696E74 		.ascii	"uint32_t\000"
 2799      33325F74 
 2799      00
 2800              	.LASF127:
 2801 0581 77746D74 		.ascii	"wtmtxp\000"
 2801      787000
 2802              	.LASF56:
 2803 0588 725F7175 		.ascii	"r_queue\000"
 2803      65756500 
 2804              	.LASF67:
 2805 0590 76745F64 		.ascii	"vt_delta\000"
 2805      656C7461 
 2805      00
 2806              	.LASF51:
 2807 0599 63685F74 		.ascii	"ch_threads_list\000"
 2807      68726561 
 2807      64735F6C 
 2807      69737400 
 2808              	.LASF9:
 2809 05a9 6C6F6E67 		.ascii	"long unsigned int\000"
 2809      20756E73 
 2809      69676E65 
 2809      6420696E 
 2809      7400
 2810              	.LASF146:
 2811 05bb 73745374 		.ascii	"stStopAlarm\000"
 2811      6F70416C 
 2811      61726D00 
 2812              	.LASF136:
 2813 05c7 63686172 		.ascii	"char\000"
 2813      00
 2814              	.LASF97:
 2815 05cc 444D4152 		.ascii	"DMAR\000"
 2815      00
 2816              	.LASF28:
 2817 05d1 74687265 		.ascii	"thread_t\000"
 2817      61645F74 
 2817      00
 2818              	.LASF112:
 2819 05da 62657374 		.ascii	"best\000"
 2819      00
 2820              	.LASF135:
 2821 05df 6D5F6E65 		.ascii	"m_next\000"
 2821      787400
 2822              	.LASF27:
 2823 05e6 73797374 		.ascii	"systime_t\000"
 2823      696D655F 
ARM GAS  /tmp/ccpKz2wI.s 			page 75


 2823      7400
 2824              	.LASF45:
 2825 05f0 705F7265 		.ascii	"p_realprio\000"
 2825      616C7072 
 2825      696F00
 2826              	.LASF62:
 2827 05fb 76746675 		.ascii	"vtfunc_t\000"
 2827      6E635F74 
 2827      00
 2828              	.LASF8:
 2829 0604 5F5F7569 		.ascii	"__uint32_t\000"
 2829      6E743332 
 2829      5F7400
 2830              	.LASF75:
 2831 060f 70616E69 		.ascii	"panic_msg\000"
 2831      635F6D73 
 2831      6700
 2832              	.LASF110:
 2833 0619 6F666673 		.ascii	"offset\000"
 2833      657400
 2834              	.LASF147:
 2835 0620 73745374 		.ascii	"stStartAlarm\000"
 2835      61727441 
 2835      6C61726D 
 2835      00
 2836              	.LASF89:
 2837 062d 636F6E74 		.ascii	"context\000"
 2837      65787400 
 2838              	.LASF42:
 2839 0635 705F6D73 		.ascii	"p_msg\000"
 2839      6700
 2840              	.LASF17:
 2841 063b 7274636E 		.ascii	"rtcnt_t\000"
 2841      745F7400 
 2842              	.LASF156:
 2843 0643 73745F6C 		.ascii	"st_lld_stop_alarm\000"
 2843      6C645F73 
 2843      746F705F 
 2843      616C6172 
 2843      6D00
 2844              	.LASF69:
 2845 0655 76745F70 		.ascii	"vt_par\000"
 2845      617200
 2846              	.LASF52:
 2847 065c 74687265 		.ascii	"threads_queue_t\000"
 2847      6164735F 
 2847      71756575 
 2847      655F7400 
 2848              	.LASF132:
 2849 066c 63685F6D 		.ascii	"ch_mutex\000"
 2849      75746578 
 2849      00
 2850              	.LASF39:
 2851 0675 705F7265 		.ascii	"p_refs\000"
 2851      667300
 2852              	.LASF76:
 2853 067c 6973725F 		.ascii	"isr_cnt\000"
ARM GAS  /tmp/ccpKz2wI.s 			page 76


 2853      636E7400 
 2854              	.LASF81:
 2855 0684 726C6973 		.ascii	"rlist\000"
 2855      7400
 2856              	.LASF148:
 2857 068a 73745365 		.ascii	"stSetAlarm\000"
 2857      74416C61 
 2857      726D00
 2858              	.LASF157:
 2859 0695 73744765 		.ascii	"stGetAlarm\000"
 2859      74416C61 
 2859      726D00
 2860              	.LASF124:
 2861 06a0 77746F62 		.ascii	"wtobjp\000"
 2861      6A7000
 2862              	.LASF35:
 2863 06a7 705F6E61 		.ascii	"p_name\000"
 2863      6D6500
 2864              	.LASF49:
 2865 06ae 74687265 		.ascii	"threads_list_t\000"
 2865      6164735F 
 2865      6C697374 
 2865      5F7400
 2866              	.LASF144:
 2867 06bd 61627374 		.ascii	"abstime\000"
 2867      696D6500 
 2868              	.LASF78:
 2869 06c5 74726163 		.ascii	"trace_buffer\000"
 2869      655F6275 
 2869      66666572 
 2869      00
 2870              	.LASF38:
 2871 06d2 705F666C 		.ascii	"p_flags\000"
 2871      61677300 
 2872              	.LASF140:
 2873 06da 73745F6C 		.ascii	"st_lld_set_alarm\000"
 2873      6C645F73 
 2873      65745F61 
 2873      6C61726D 
 2873      00
 2874              	.LASF119:
 2875 06eb 6D5F6372 		.ascii	"m_crit_thd\000"
 2875      69745F74 
 2875      686400
 2876              	.LASF134:
 2877 06f6 6D5F6F77 		.ascii	"m_owner\000"
 2877      6E657200 
 2878              	.LASF103:
 2879 06fe 73655F77 		.ascii	"se_wtobjp\000"
 2879      746F626A 
 2879      7000
 2880              	.LASF32:
 2881 0708 705F6374 		.ascii	"p_ctx\000"
 2881      7800
 2882              	.LASF68:
 2883 070e 76745F66 		.ascii	"vt_func\000"
 2883      756E6300 
ARM GAS  /tmp/ccpKz2wI.s 			page 77


 2884              		.comm	__gnu_lto_v1,1,1
 2885              		.ident	"GCC: (4.8.2-14ubuntu1+6) 4.8.2"
ARM GAS  /tmp/ccpKz2wI.s 			page 78


DEFINED SYMBOLS
                            *ABS*:0000000000000000 st.c
     /tmp/ccpKz2wI.s:358    .text.st_lld_start_alarm:0000000000000000 $t
     /tmp/ccpKz2wI.s:363    .text.st_lld_start_alarm:0000000000000000 st_lld_start_alarm
     /tmp/ccpKz2wI.s:394    .text.st_lld_stop_alarm:0000000000000000 $t
     /tmp/ccpKz2wI.s:399    .text.st_lld_stop_alarm:0000000000000000 st_lld_stop_alarm
     /tmp/ccpKz2wI.s:416    .text.st_lld_set_alarm:0000000000000000 $t
     /tmp/ccpKz2wI.s:421    .text.st_lld_set_alarm:0000000000000000 st_lld_set_alarm
     /tmp/ccpKz2wI.s:443    .text.st_lld_get_alarm:0000000000000000 $t
     /tmp/ccpKz2wI.s:448    .text.st_lld_get_alarm:0000000000000000 st_lld_get_alarm
     /tmp/ccpKz2wI.s:465    .text.st_lld_is_alarm_active:0000000000000000 $t
     /tmp/ccpKz2wI.s:470    .text.st_lld_is_alarm_active:0000000000000000 st_lld_is_alarm_active
     /tmp/ccpKz2wI.s:493    .text.stInit:0000000000000000 $t
     /tmp/ccpKz2wI.s:499    .text.stInit:0000000000000000 stInit
     /tmp/ccpKz2wI.s:518    .text.stStartAlarm:0000000000000000 $t
     /tmp/ccpKz2wI.s:524    .text.stStartAlarm:0000000000000000 stStartAlarm
     /tmp/ccpKz2wI.s:663    .rodata.__func__.7427:0000000000000000 __func__.7427
     /tmp/ccpKz2wI.s:557    .text.stStopAlarm:0000000000000000 $t
     /tmp/ccpKz2wI.s:563    .text.stStopAlarm:0000000000000000 stStopAlarm
     /tmp/ccpKz2wI.s:581    .text.stSetAlarm:0000000000000000 $t
     /tmp/ccpKz2wI.s:587    .text.stSetAlarm:0000000000000000 stSetAlarm
     /tmp/ccpKz2wI.s:669    .rodata.__func__.7434:0000000000000000 __func__.7434
     /tmp/ccpKz2wI.s:622    .text.stGetAlarm:0000000000000000 $t
     /tmp/ccpKz2wI.s:628    .text.stGetAlarm:0000000000000000 stGetAlarm
     /tmp/ccpKz2wI.s:675    .rodata.__func__.7438:0000000000000000 __func__.7438
     /tmp/ccpKz2wI.s:660    .rodata.__func__.7427:0000000000000000 $d
     /tmp/ccpKz2wI.s:666    .rodata.__func__.7434:0000000000000000 $d
     /tmp/ccpKz2wI.s:672    .rodata.__func__.7438:0000000000000000 $d
                            *COM*:0000000000000001 __gnu_lto_v1
                     .debug_frame:0000000000000010 $d

UNDEFINED SYMBOLS
st_lld_init
chSysHalt
