ARM GAS  /tmp/ccBrbIdT.s 			page 1


   1              		.syntax unified
   2              		.cpu cortex-m4
   3              		.fpu softvfp
   4              		.eabi_attribute 20, 1
   5              		.eabi_attribute 21, 1
   6              		.eabi_attribute 23, 3
   7              		.eabi_attribute 24, 1
   8              		.eabi_attribute 25, 1
   9              		.eabi_attribute 26, 1
  10              		.eabi_attribute 30, 6
  11              		.eabi_attribute 34, 1
  12              		.eabi_attribute 18, 4
  13              		.thumb
  14              		.file	"st.c"
  15              		.text
  16              	.Ltext0:
  17              		.section	.gnu.lto_.inline.5f3a24a6d5f30b73,"",%progbits
  18 0000 789C6362 		.ascii	"x\234cb`b\300\006\336Bi.\006\0066V\006\006&\216\011"
  18      6062C006 
  18      DE42692E 
  18      06063656 
  18      0606268E 
  19 0015 7E0C2C10 		.ascii	"~\014,\020\265\214\014,\314@\021\226\017z0\021&\014"
  19      B58C0C2C 
  19      CC401196 
  19      0F7A3011 
  19      260C
  20 0027 11660C11 		.ascii	"\021f\014\021\026\014sX\031Xx\200\"L\013\344\341&\003"
  20      160C7358 
  20      19587880 
  20      224C0BE4 
  20      E12603
  21 003a 6D636063 		.ascii	"mc`c\340V\005\012\263\035\260\203\033\317\215Bp`\327"
  21      E056050A 
  21      B31DB083 
  21      1BCF8D42 
  21      7060D7
  22 004d C7C9C0A3 		.ascii	"\307\311\300\243\206j\001\232>nB\012\030\000\362\223"
  22      866A019A 
  22      3E6E420A 
  22      1800F293 
  23 005d 0C6B     		.ascii	"\014k"
  24              		.text
  25              		.section	.gnu.lto_st_lld_start_alarm.5f3a24a6d5f30b73,"",%progbits
  26 0000 789C6362 		.ascii	"x\234cb`b@\007\"@\254\016\0246\001q\230\031\030\201"
  26      60624007 
  26      2240AC0E 
  26      14360171 
  26      98191881 
  27 0014 4C462646 		.ascii	"LF&FF \207\221\241\236\211\261>\222\021,\241\304\260"
  27      46208791 
  27      A19E89B1 
  27      3E92112C 
  27      A1C4B0
  28 0027 B0A161D2 		.ascii	"\260\241a\322\203\247\353~2\316\234r\240eA\303\237\377"
  28      83A7EB7E 
  28      32CE9C72 
ARM GAS  /tmp/ccBrbIdT.s 			page 2


  28      A06541C3 
  28      9FFF
  29 0039 FF191933 		.ascii	"\377\031\0313A\222\311\214\014\021@\026\243\002\230"
  29      4192C98C 
  29      0C114016 
  29      A30298
  30 0048 62624135 		.ascii	"bbA5\037\242\361\300\217S=\\\023\032;\032\376\377\257"
  30      1FA2F1C0 
  30      8F533D5C 
  30      131A3B1A 
  30      FEFFAF
  31 005b 275ED32F 		.ascii	"'^\323/\2224\255g:\360\340\377\3779\327\367<\336\307"
  31      9234AD67 
  31      3AF0E0FF 
  31      FF39D7F7 
  31      3CDEC7
  32 006e 28C4CAC8 		.ascii	"(\304\312\310\000\324\302\304\230\313\010\364\024\220"
  32      00D4C2C4 
  32      98CB08F4 
  32      1490
  33 007c C5C20036 		.ascii	"\305\302\0006\201\201\225\241\245\241a\202\002\330,"
  33      818195A1 
  33      A5A16182 
  33      02D82C
  34 008b 20080193 		.ascii	" \010\001\223\241 _3\237eh\332\361\003\350\277D\306"
  34      A1205F33 
  34      9F6568DA 
  34      F103E8BF 
  34      44C6
  35 009d 258CAC0C 		.ascii	"%\214\254\014\351\214\214 K\030\032\200\000d\321Y\206"
  35      E98C8C20 
  35      4B181A80 
  35      0064D159 
  35      86
  36 00ae 43A727F0 		.ascii	"C\247'\360A\344t\031\3264\26446Df22k3\254\0021\3553"
  36      41E47419 
  36      D634B434 
  36      36446632 
  36      326B33AC 
  37 00c6 19596633 		.ascii	"\031Yf3\314\002j`\205i\004\203$(\015\022a\203\2734\035"
  37      CC026A60 
  37      85690483 
  37      24280D12 
  37      6183BB34 
  38 00db 641FC8BA 		.ascii	"d\037\310\272\216\365p\333\230\321m\333\001\263\015"
  38      8EF570DB 
  38      98D16DDB 
  38      01B30D
  39 00ea 610533DC 		.ascii	"a\0053\334\012fd+\030\341V030@\014^\2010\230\205$\203"
  39      0A66642B 
  39      18E15630 
  39      3330400C 
  39      5E813098 
  40 0101 59900D66 		.ascii	"Y\220\015fB\030\014b^dh|\260O\025\242\027\006B@\266"
  40      42180C62 
  40      5E64687C 
  40      B04F15A2 
ARM GAS  /tmp/ccBrbIdT.s 			page 3


  40      17064240 
  41 0116 83248DF4 		.ascii	"\203$\215\364\364\364\341(\277X?#1G\277 \277\250\244"
  41      F4F4E128 
  41      BF583F23 
  41      3147BF20 
  41      BFA8A4
  42 0129 583F38C4 		.ascii	"X?8\304\327\330H\337\307\307E?\304\323\267\314P\277"
  42      D7D848DF 
  42      C7C7453F 
  42      C4D3B7CC 
  42      50BF
  43 013b B8243E27 		.ascii	"\270$>''E/\203\001\000u\260\210\201"
  43      27452F83 
  43      010075B0 
  43      8881
  44              		.text
  45              		.section	.gnu.lto_st_lld_stop_alarm.5f3a24a6d5f30b73,"",%progbits
  46 0000 789C6362 		.ascii	"x\234cb`b@\007\"@\374\034\210M@\034f\006F\240\012F&"
  46      60624007 
  46      2240FC1C 
  46      884D401C 
  46      660646A0 
  47 0017 46462087 		.ascii	"FF \207\221\241\236\211\261>\022\304d`TbX\330\3200\351"
  47      91A19E89 
  47      B13E12C4 
  47      64605462 
  47      58D8D030 
  48 002c C1D3CD3F 		.ascii	"\301\323\315?\031gN9\320\262\240\341\317\377\377\214"
  48      19674E39 
  48      D0B2A0E1 
  48      CFFFFF8C 
  49 003c 8C9920C9 		.ascii	"\214\231 \311dF\206\010 \213Q\001L1\261\240\232\277"
  49      64468608 
  49      208B5101 
  49      4C31B1A0 
  49      9ABF
  50 004e 9EE9C083 		.ascii	"\236\351\300\203\377\377\357\334\374\360\350\006\243"
  50      FFFFEFDC 
  50      FCF0E806 
  50      A3
  51 005b 10132303 		.ascii	"\020\023#\003X\013\003+CKC\303\004\005\260f \010\001"
  51      580B032B 
  51      434B43C3 
  51      0405B066 
  51      200801
  52 006e 93A120CB 		.ascii	"\223\241 \313\231\31724\355\370\001\264&\221q\021#+"
  52      99CF3234 
  52      EDF801B4 
  52      26917111 
  52      232B
  53 0080 433A2323 		.ascii	"C:##\310T\206\006 \000\231|\226\341\320\216\013\334"
  53      C8548606 
  53      2000997C 
  53      96E1D08E 
  53      0BDC
  54 0092 10396D86 		.ascii	"\0209m\206U\015-\215\015\366\231\214\314\263\031f\001"
  54      550D2D8D 
ARM GAS  /tmp/ccBrbIdT.s 			page 4


  54      0DF6998C 
  54      CCB31966 
  54      01
  55 00a3 55B1C054 		.ascii	"U\261\300T\203A\022\224\006\2110\203\030\027\031\032"
  55      83411294 
  55      06893083 
  55      1817191A 
  56 00b3 1FDC5085 		.ascii	"\037\334P\205\350\205\201\020\220WA\241b\244\247\247"
  56      E8858110 
  56      905741A1 
  56      62A4A7A7 
  57 00c3 0F47F9C5 		.ascii	"\017G\371\305\372\031\2119\372\005\371E%\305\372\301"
  57      FA198939 
  57      FA05F945 
  57      25C5FAC1 
  58 00d3 21BEC646 		.ascii	"!\276\306F\372>>.\372!\236\276e\206\372\305%\36199)"
  58      FA3E3E2E 
  58      FA219EBE 
  58      6586FAC5 
  58      25F13939 
  59 00e8 7A190C00 		.ascii	"z\031\014\000\030EE\255"
  59      184545AD 
  60              		.text
  61              		.section	.gnu.lto_st_lld_set_alarm.5f3a24a6d5f30b73,"",%progbits
  62 0000 789C6362 		.ascii	"x\234cb`b@\007\"@\314\310\310\300`\002\342030\002U0"
  62      60624007 
  62      2240CCC8 
  62      C8C06002 
  62      E2303330 
  63 0017 32810418 		.ascii	"2\201\004\030\030\031\352\231\030\353#AL\006F%\206\205"
  63      1819EA99 
  63      18EB2341 
  63      4C064625 
  63      8685
  64 0029 0D0D931E 		.ascii	"\015\015\223\036<\335\365\223q\346\224\003-\013\032"
  64      3CDDF593 
  64      71E69403 
  64      2D0B1A
  65 0038 FEFCFFCF 		.ascii	"\376\374\377\317\310\230\011\222Lfd\210\000\262\030"
  65      C8980992 
  65      4C666488 
  65      00B218
  66 0047 15C01413 		.ascii	"\025\300\024\023\013\252\371\353\231\016<\370\377\177"
  66      0BAAF9EB 
  66      990E3CF8 
  66      FF7F
  67 0055 CEDD2D8F 		.ascii	"\316\335-\217\3370\012132\000\26501\346\202\015eehi"
  67      DF300A31 
  67      333200B5 
  67      3031E682 
  67      0D656568 
  68 006a 6898A000 		.ascii	"h\230\240\0006\001\010B\300d(\310\005\314g\031\232v"
  68      36010842 
  68      C06428C8 
  68      05CC6719 
  68      9A76
  69 007c FC00DA95 		.ascii	"\374\000\332\225\310\270\210\221\225!\235\221\021d4"
ARM GAS  /tmp/ccBrbIdT.s 			page 5


  69      C8B88891 
  69      95219D91 
  69      116434
  70 008b 43031080 		.ascii	"C\003\020\200\214?\313p\350\364\004>\210\234.\303\232"
  70      8C3FCB70 
  70      E8F4043E 
  70      889C2EC3 
  70      9A
  71 009c 8696C686 		.ascii	"\206\226\306\206\310LFfm\206U \246}&#\313l\206Y@\015"
  71      C84C4666 
  71      6D865520 
  71      A67D2623 
  71      CB6C8659 
  72 00b2 AC308D60 		.ascii	"\2540\215`\220\004\245A\"lp\367\245\203\354\273\310"
  72      9004A541 
  72      226C70F7 
  72      A583ECBB 
  72      C8
  73 00c3 D0F8E08D 		.ascii	"\320\370\340\215*\304@\030\010\001\005\002(\274\214"
  73      2AC44018 
  73      08010502 
  73      28BC8C
  74 00d2 F4F4F4E1 		.ascii	"\364\364\364\341(\277X?#1G\277 \277\250\244X?8\304\327"
  74      28BF583F 
  74      233147BF 
  74      20BFA8A4 
  74      583F38C4 
  75 00e7 D848DFC7 		.ascii	"\330H\337\307\307E?\304\323\267\314P\277\270$>''E/\203"
  75      C7453FC4 
  75      D3B7CC50 
  75      BFB8243E 
  75      2727452F 
  76 00fc 010075AF 		.ascii	"\001\000u\257H\342"
  76      48E2
  77              		.text
  78              		.section	.gnu.lto_st_lld_get_alarm.5f3a24a6d5f30b73,"",%progbits
  79 0000 789C6362 		.ascii	"x\234cb`b@\007\322@\354\301\310\300`\002\342\26000\002"
  79      60624007 
  79      D240ECC1 
  79      C8C06002 
  79      E2B03030 
  80 0015 55303231 		.ascii	"U0212\003IfF\2400\003#C=\0233c}$\210\315\300\244\304"
  80      32034966 
  80      46A03003 
  80      23433D13 
  80      33637D24 
  81 002e B0B0A161 		.ascii	"\260\260\241a\326\203\247\373gJv-h\232\320\360\357\377"
  81      D683A7FB 
  81      674A762D 
  81      689AD0F0 
  81      EFFF
  82 0040 7FC64C90 		.ascii	"\177\306L\220T2#C\004\220\305\250\000\246\230XP-\001"
  82      54322343 
  82      0490C5A8 
  82      00A69858 
  82      502D01
  83 0053 6B9BD430 		.ascii	"k\233\3240\371i\300\211\206\226\003\377\377\333g\202"
ARM GAS  /tmp/ccBrbIdT.s 			page 6


  83      F969C089 
  83      869603FF 
  83      FFDB6782 
  84 0063 6CC0AF67 		.ascii	"l\300\257g=\323\201\007\377\377\337\271\277\340q\007"
  84      3DD38107 
  84      FFFFDFB9 
  84      BFE07107 
  85 0073 A3303323 		.ascii	"\24303#\003P\013\023\003\330.\006V\206\226\206\206\011"
  85      03500B13 
  85      03D82E06 
  85      56869686 
  85      8609
  86 0085 0A601380 		.ascii	"\012`\023\200 \004L\206\202\234\316|\226\241i\307\217"
  86      20044C86 
  86      829CCE7C 
  86      96A169C7 
  86      8F
  87 0096 FD275912 		.ascii	"\375'Y\022\031\0273\2622\24432\202\214fn\000\002\220"
  87      191733B2 
  87      32A43332 
  87      828C666E 
  87      000290
  88 00a9 F167190E 		.ascii	"\361g\031\016\335)\200I1\3512\254ihil0\315dd\321fX\005"
  88      DD298049 
  88      31E932AC 
  88      6968696C 
  88      30CD6464 
  89 00c1 624E062A 		.ascii	"bN\006*f\235\3150\013H\261\301\364\202\035\223\304\010"
  89      669DCD30 
  89      0B48B1C1 
  89      F4821D93 
  89      C408
  90 00d3 71144884 		.ascii	"q\024H\204\035-\004CAj\230O34r00\244\200\324]dh<\300"
  90      1D2D0443 
  90      416A984F 
  90      33347230 
  90      30A480D4 
  91 00ec 0CB705A2 		.ascii	"\014\267\005\242(\004\024\230 \266\221\236\236>\034"
  91      28041498 
  91      20B6919E 
  91      9E3E1C
  92 00fb E517EB67 		.ascii	"\345\027\353g$\346\350\027\344\027\225\024\353\007\207"
  92      24E6E817 
  92      E4179514 
  92      EB0787
  93 010a F81A1BE9 		.ascii	"\370\032\033\351\373\370\270\350\207x\372\226\031\352"
  93      FBF8B8E8 
  93      8778FA96 
  93      19EA
  94 0118 1797C4E7 		.ascii	"\027\227\304\347\344\244\350e0\000\000\237\241U%"
  94      E4A4E865 
  94      3000009F 
  94      A15525
  95              		.text
  96              		.section	.gnu.lto_st_lld_is_alarm_active.5f3a24a6d5f30b73,"",%progbits
  97 0000 789C6362 		.ascii	"x\234cb`b@\007\322@|\211\221\201\301\004\304aa`\004"
  97      60624007 
ARM GAS  /tmp/ccBrbIdT.s 			page 7


  97      D2407C89 
  97      9181C104 
  97      C4616160 
  98 0015 AA606462 		.ascii	"\252`dbd\006\222\314\214@a\006F\206z&f\306\372HF\260"
  98      640692CC 
  98      8C406106 
  98      46867A26 
  98      66C6FA48 
  99 002b BC12C3C2 		.ascii	"\274\022\303\302\206\206Y\017\226>\237)\336\365\240"
  99      8686590F 
  99      963E9F29 
  99      DEF5A0
 100 003a 6142C3BF 		.ascii	"aB\303\277\377\377\0313AR\311\214\014\021@\026#\007"
 100      FFFF1933 
 100      4152C98C 
 100      0C114016 
 100      2307
 101 004c 98626244 		.ascii	"\230bbD\265\004\254mR\303\337'\001'\032Z\016\374\377"
 101      B504AC6D 
 101      52C3DF27 
 101      01271A5A 
 101      0EFCFF
 102 005f 6F9F09B2 		.ascii	"o\237\011\262\001\246G\001\242\207\005\253\236M+\032"
 102      01A64701 
 102      A28705AB 
 102      9E4D2B1A 
 103 006f 381734FC 		.ascii	"8\0274\374\371\377\2379\223\221\205H=\263\237\"\354"
 103      F9FF9F39 
 103      93918548 
 103      3DB39F22 
 103      EC
 104 0080 21A8673D 		.ascii	"!\250g=\323\201\007\377\377\357\371\274\344\361<FaV"
 104      D38107FF 
 104      FFEFF9BC 
 104      E4F13C46 
 104      6156
 105 0092 4606A0D3 		.ascii	"F\006\240\323\230\200\004\0133\210`a\000\373\216\201"
 105      9880040B 
 105      33886061 
 105      00FB8E81 
 106 00a2 95A1A5A1 		.ascii	"\225\241\245\241a\202\002\330, \010\001\223\241\240"
 106      618202D8 
 106      2C200801 
 106      93A1A0
 107 00b1 C0623ECB 		.ascii	"\300b>\313\320\264c\307\363\217\314\211\214K\031Y\031"
 107      D0B463C7 
 107      F38FCC89 
 107      8C4B1959 
 107      19
 108 00c2 D2191941 		.ascii	"\322\031\031A\22607\000\001\310\242\263\014\207\242"
 108      96303700 
 108      01C8A2B3 
 108      0C87A2
 109 00d1 60324CDA 		.ascii	"`2L\332\014\253\032Z\200\262\254\263\031f\001)6\230"
 109      0CAB1A5A 
 109      80B2ACB3 
 109      19660129 
ARM GAS  /tmp/ccBrbIdT.s 			page 8


 109      3698
 110 00e3 62B03B92 		.ascii	"b\260;\222\340av\226\241yw\3636&\2306f\240N\2202\026"
 110      E0617696 
 110      A17977F3 
 110      36269836 
 110      66A04E90 
 111 00f9 2688DC8D 		.ascii	"&\210\334\215f>\230\024\013P\026,\005\323\032\0122\214"
 111      663E9814 
 111      0B50162C 
 111      05D31A0A 
 111      328C
 112 010b F9344323 		.ascii	"\3714C#\007\003C\012\310\300\213\014\214p\305\020%!"
 112      0703430A 
 112      C8C08B0C 
 112      8C70C510 
 112      2521
 113 011d A0680519 		.ascii	"\240h\005\031e\244\247\247\017G\371\305\372\031\211"
 113      65A4A7A7 
 113      0F47F9C5 
 113      FA1989
 114 012c 39FA05F9 		.ascii	"9\372\005\371E%\305\372\301!\276\306F\372>>.\372!\236"
 114      4525C5FA 
 114      C121BEC6 
 114      46FA3E3E 
 114      2EFA219E 
 115 0140 BE6586FA 		.ascii	"\276e\206\372\305%\36199)z\031\014\000\206/q\257"
 115      C525F139 
 115      39297A19 
 115      0C00862F 
 115      71AF
 116              		.text
 117              		.section	.gnu.lto_stInit.5f3a24a6d5f30b73,"",%progbits
 118 0000 789C6362 		.ascii	"x\234cb`b@\007\"@\\\014\304r \0163\003#P\005#\023##"
 118      60624007 
 118      22405C0C 
 118      C472200E 
 118      33032350 
 119 0019 90C3C850 		.ascii	"\220\303\310P\317\304X\037\311\010V\266\236\351\300"
 119      CFC4581F 
 119      C90856B6 
 119      9EE9C0
 120 0028 83FFFFD7 		.ascii	"\203\377\377\327\375X\373\260\036,\311\312\320\322\320"
 120      FD58FBB0 
 120      1E2CC9CA 
 120      D0D2D0
 121 0037 30418181 		.ascii	"0A\201\201!\031,\037\002&CA\272\231\31734?\370g\223"
 121      21192C1F 
 121      02264341 
 121      BA99CF33 
 121      343FF867 
 122 004c C8B89091 		.ascii	"\310\270\220\221\025(V\315\360\253\241\243A \223\021"
 122      152856CD 
 122      F0ABA1A3 
 122      41209311 
 123 005c A8126254 		.ascii	"\250\022bT&\210\276\310\320\370\340?\023L\021\004\204"
 123      2688BEC8 
 123      D0F8E03F 
ARM GAS  /tmp/ccBrbIdT.s 			page 9


 123      134C1104 
 123      84
 124 006d 8024402E 		.ascii	"\200$@.\224\321\323\323\207\243\374b\375\214\304\034"
 124      94D1D3D3 
 124      87A3FC62 
 124      FD8CC41C 
 125 007d FDE2A264 		.ascii	"\375\342\242d\375\342\022\275d\006\000\030'\"^"
 125      FDE212BD 
 125      64060018 
 125      27225E
 126              		.text
 127              		.section	.gnu.lto_stStartAlarm.5f3a24a6d5f30b73,"",%progbits
 128 0000 789C6550 		.ascii	"x\234eP-O\0041\024\234i\267\307\021\014(\020\204\020"
 128      2D4F0431 
 128      149C69B7 
 128      C7110C28 
 128      108410
 129 0013 F0BBFF04 		.ascii	"\360\273\377\004u\227\034\362Rq4aC\302\342\020W\302"
 129      75971CF2 
 129      52713461 
 129      43C2E210 
 129      57C2
 130 0025 0A82BAA0 		.ascii	"\012\202\272\240p\004P\234A`\220H\034\301#6$\004\303"
 130      7004509C 
 130      41609048 
 130      1CC12336 
 130      2404C3
 131 0038 2F40B0BC 		.ascii	"/@\260\274\356\356-\001&\355{\375\230\367fZ\005\205"
 131      EEEE2D01 
 131      26ED7BFD 
 131      98F7665A 
 131      0585
 132 004a BF48646E 		.ascii	"\277Hdn\021X\013\233\016(\014*j\211ZE\200WFB\024Q\022"
 132      11580B9B 
 132      0E280C2A 
 132      6A895A45 
 132      80574642 
 133 0061 0D850862 		.ascii	"\015\205\010b\254td8\336\016;\250\015\\z\177V\274\275"
 133      AC746438 
 133      DE0E3BA8 
 133      0D5C7A7F 
 133      56BCBD
 134 0074 9F2F9F16 		.ascii	"\237/\237\026~\342\277\312\222.\\Yb +v\253\244\370["
 134      7EE2BFCA 
 134      922E5C59 
 134      62202B76 
 134      ABA4F85B 
 135 0088 38256ED5 		.ascii	"8%n\325CQ\226/w\367\257S.iB\252\024\323J\304 \367~\262"
 135      4351962F 
 135      77F7AF53 
 135      2E6942AA 
 135      14D34AC4 
 136 00a0 9E367D04 		.ascii	"\2366}\004\275&\212A\335\017\006\365\023\216\213\013"
 136      BD268A41 
 136      DD0F06F5 
 136      138E8B0B 
 137 00b0 3BE49598 		.ascii	";\344\225\230\033\221\207\370\364'~\321Q[\326Z\216\362"
ARM GAS  /tmp/ccBrbIdT.s 			page 10


 137      1B9187F8 
 137      F4277ED1 
 137      515BD65A 
 137      8EF2
 138 00c2 8247E41F 		.ascii	"\202G\344\037lI\203\332\332\017\372\201#\255\242\232"
 138      6C4983DA 
 138      DA0FFA81 
 138      23ADA29A 
 139 00d2 02B46D8C 		.ascii	"\002\264m\214e\375]\341d\305\261#f\032\222\343\334\254"
 139      65FD5DE1 
 139      64C5B123 
 139      661A92E3 
 139      DCAC
 140 00e4 DA54D579 		.ascii	"\332T\325yqs\275\360\257C\327\006\237\202\021\225\343"
 140      7173BDF0 
 140      AF43D706 
 140      9F821195 
 140      E3
 141 00f5 3CF08CA3 		.ascii	"<\360\214\243b\2729\343\325\350\005\263Ah5\216\223v"
 141      62BA39E3 
 141      D5E805B3 
 141      4168358E 
 141      9376
 142 0107 EC65C9CE 		.ascii	"\354e\311\316p7\311\366m\222\035\304\026\337J\352L\210"
 142      7037C9F6 
 142      6D921DC4 
 142      16DF4AEA 
 142      4C88
 143              		.text
 144              		.section	.gnu.lto_stStopAlarm.5f3a24a6d5f30b73,"",%progbits
 145 0000 789C6362 		.ascii	"x\234cb`b@\007\"@\\\006\304r \0163\003#P\005#\023##"
 145      60624007 
 145      22405C06 
 145      C472200E 
 145      33032350 
 146 0019 90C3C850 		.ascii	"\220\303\310P\317\304X\037\311\010V\266\236\351\300"
 146      CFC4581F 
 146      C90856B6 
 146      9EE9C0
 147 0028 83FFFFD7 		.ascii	"\203\377\377\327}k\233\363\206q6\023H\214\225\241\245"
 147      7D6B9BF3 
 147      86713613 
 147      488C95A1 
 147      A5
 148 0039 A1618202 		.ascii	"\241a\202\002\003C2XE\010\230\014\005\351g>\317\320"
 148      03433258 
 148      4508980C 
 148      05E9673E 
 148      CFD0
 149 004b FC606F33 		.ascii	"\374`o3w\"\343BFV\240`5\303\257\206\216\006\201LF\240"
 149      7722E342 
 149      4656A060 
 149      35C3AF86 
 149      8E06814C 
 150 0061 52886999 		.ascii	"R\210i\231 \372\"C\343\203}\3120E\020\020\002\222\000"
 150      20FA2243 
 150      E3837DCA 
ARM GAS  /tmp/ccBrbIdT.s 			page 11


 150      30451010 
 150      029200
 151 0074 3952464F 		.ascii	"9RFOO\037\216\362\213\3653\022s\364\213\213\222\365"
 151      4F1F8EF2 
 151      8BF53312 
 151      73F48B8B 
 151      92F5
 152 0086 8B4BF492 		.ascii	"\213K\364\222\031\000\214\012\"\356"
 152      19008C0A 
 152      22EE
 153              		.text
 154              		.section	.gnu.lto_stSetAlarm.5f3a24a6d5f30b73,"",%progbits
 155 0000 789C8D50 		.ascii	"x\234\215P\277/\004A\030}of\367\034\025\025\205\210"
 155      BF2F0441 
 155      187D6F66 
 155      F71C1515 
 155      8588
 156 0012 D0DFFE33 		.ascii	"\320\337\3763w\311)/S\254Ml$V\247\270\301\025\242\272"
 156      77C9292F 
 156      53AC4D6C 
 156      2456A7B8 
 156      C115A2BA 
 157 0026 A8441444 		.ascii	"\250D\024D\243BO\241\324\210\250\305eCtj\205\210\365"
 157      A3424FA1 
 157      D488A8C5 
 157      6543746A 
 157      8588F5
 158 0039 CDFE1234 		.ascii	"\315\376\0224^f\276\371\365\336\367}o\024\024~#\220"
 158      5E66BEF9 
 158      F5DEF77D 
 158      6F14147E 
 158      2390
 159 004b 794060CE 		.ascii	"y@`\316\035\032\2400\250\250%j\345\001V\371\022<\217"
 159      1D1AA030 
 159      A8A8256A 
 159      E50156F9 
 159      123C8F
 160 005e B2D0A710 		.ascii	"\262\320\247\020A\364\225\366|\366\227\334\011z\001"
 160      41F495F6 
 160      7CF697DC 
 160      097A01
 161 006d C7D6EEA5 		.ascii	"\307\326\356\245/o\373\323\273\251\035\332\317,c\344"
 161      2F6FFBD3 
 161      BBA91DDA 
 161      CF2C63E4 
 162 007d 9E0CD195 		.ascii	"\236\014\321\225\035\233\371\242\370\263p!\263g\247"
 162      1D9BF9A2 
 162      F8B37021 
 162      B367A7
 163 008c 561FD98F 		.ascii	"V\037\331\217,\323\377\320\304\304\271\272N\263\354"
 163      2CD3FFD0 
 163      C4C4B9BA 
 163      4EB3EC
 164 009b F0F2E269 		.ascii	"\360\362\342i\304)\217\020\225rA3\316\273\3631\260v"
 164      C4298F10 
 164      95724133 
 164      CEBBF331 
ARM GAS  /tmp/ccBrbIdT.s 			page 12


 164      B076
 165 00ad 381F97C9 		.ascii	"8\037\227\311\004\3552\2123\335q\316\364\035\266\323"
 165      04ED328A 
 165      33DD71CE 
 165      F41DB6D3 
 166 00bd 07D3E389 		.ascii	"\007\323\343\211\270\012\311\015\274\333\035;\031Q\033"
 166      B80AC90D 
 166      BCDB1D3B 
 166      19511B
 167 00cc 1605238A 		.ascii	"\026\005#\212\365[l]\351\212\244B\367t\203\301+\353"
 167      F55B6C5D 
 167      E98AA442 
 167      F77483C1 
 167      2BEB
 168 00de AB6E61F3 		.ascii	"\253na\363\033\035'\223\354^A\001\352\314\276a\361\365"
 168      1B1D2793 
 168      EC5E4101 
 168      EACCBE61 
 168      F1F5
 169 00f0 EE662662 		.ascii	"\356f&bC\372+I\021\307*\265\237\253\007\351\343\363"
 169      43FA2B49 
 169      11C72AB5 
 169      9FAB07E9 
 169      E3F3
 170 0102 C49F0C4D 		.ascii	"\304\237\014M\343Z\027\204\224\237\032\007\356\261\231"
 170      E35A1784 
 170      949F1A07 
 170      EEB199
 171 0111 8E162B5E 		.ascii	"\216\026+^\201\266k\322\025\232m\265\202z\254&\301r"
 171      81B66BD2 
 171      159A6DB5 
 171      827AAC26 
 171      C172
 172 0123 6F2548D6 		.ascii	"o%H\326L\220\254\267\014\276\000\012Y]H"
 172      4C90ACB7 
 172      0CBE000A 
 172      595D48
 173              		.text
 174              		.section	.gnu.lto_stGetAlarm.5f3a24a6d5f30b73,"",%progbits
 175 0000 789C8D51 		.ascii	"x\234\215Q\261J\003A\020}\263\273w\321TZi!\022\374\200"
 175      B14A0341 
 175      107DB3BB 
 175      77D1545A 
 175      692112FC 
 176 0015 5CE79718 		.ascii	"\\\347\227\030\210eX!\036\030\004\317\316\"\033M\021"
 176      88655821 
 176      1E1804CF 
 176      CE221B4D 
 176      11
 177 0026 C4225889 		.ascii	"\304\"X\211XD\260\260\322\037\020L\247 \"~\201gaga\035"
 177      5844B0B0 
 177      D21F104C 
 177      A720227E 
 177      81676167 
 178 003c 35EBECED 		.ascii	"5\353\354\355\345$V\016\273\263\273\263\357\315\274"
 178      E524560E 
 178      BBB3BBB3 
ARM GAS  /tmp/ccBrbIdT.s 			page 13


 178      EFCDBC
 179 004b 9D1510F8 		.ascii	"\235\025\020\370k\253<_\010Xv\207\022\210\021$H\262"
 179      6BAB3C5F 
 179      08587687 
 179      12881124 
 179      48B2
 180 005d 97420146 		.ascii	"\227B\001F\004\354\224\"^(\240\220}H\014\007\241-\244"
 180      04EC9422 
 180      5E28A090 
 180      7D480C07 
 180      A12DA4
 181 0070 0A426AAF 		.ascii	"\012Bj\257\273#\324\012\316\2159N\337\306'\013\207\251"
 181      BB23D40A 
 181      CE8D394E 
 181      DFC6270B 
 181      87A9
 182 0082 E99BB1B5 		.ascii	"\351\233\261\265\024\273+M\250\363\216f\262E\320t}O"
 182      14BB2B4D 
 182      A8F38E66 
 182      B245D074 
 182      7D4F
 183 0094 33579746 		.ascii	"3W\227F\016\314\227\265\362\277\234\323\341\350\356"
 183      0ECC97B5 
 183      F2BF9CD3 
 183      E1E8EE
 184 00a3 A8DCEFF4 		.ascii	"\250\334\357\364\214\265\355\330)\236\220*\236\244\246"
 184      8CB5EDD8 
 184      299E902A 
 184      9EA4A6
 185 00b2 492DC2B5 		.ascii	"I-\302\265\030\246\326\236\335~\274\216i^\021\270\224"
 185      18A6D69E 
 185      DD7EBC8E 
 185      695E11B8 
 185      94
 186 00c3 704E22E3 		.ascii	"pN\"\343#@\327\230~\245\225+`[\313=wE\326\034F>\341"
 186      2340D798 
 186      7EA5952B 
 186      605BCB3D 
 186      7745D61C 
 187 00da 20FDD40D 		.ascii	" \375\324\015\272\340\2164\211\36602=3\027\223\322\344"
 187      BAE08E34 
 187      89F63032 
 187      3D331793 
 187      D2E4
 188 00ec 55C6AE55 		.ascii	"U\306\256U\217\330\277\221\023\220h\272\253{t\337\251"
 188      8FD8BF91 
 188      139068BA 
 188      AB7B74DF 
 188      A9
 189 00fd 08D57D6F 		.ascii	"\010\325}o~\255F*\313\256<\004(2\207\232\374\267\271"
 189      7EAD462A 
 189      CBAE3C04 
 189      2832879A 
 189      FCB7B9
 190 0110 C8624C25 		.ascii	"\310bL%\326\227\203bnP\316\016\274\266\301wQV\026\031"
 190      D6978362 
 190      6E50CE0E 
ARM GAS  /tmp/ccBrbIdT.s 			page 14


 190      BCB6C177 
 190      51561619 
 191 0124 6675F63C 		.ascii	"fu\366<\207/O\360\374\223\362\001\035\346o8u\317(\264"
 191      872F4FF0 
 191      FC93F201 
 191      1DE66F38 
 191      75CF28B4 
 192 0138 79283F9A 		.ascii	"y(?\232\303\256\360R\265\032\025c;\2116\033[Q\262\243"
 192      C3AEF052 
 192      B51A1563 
 192      3B89361B 
 192      5B51B2A3 
 193 014c A364B7AA 		.ascii	"\243d\267\252\361\003\025\005i\340"
 193      F1031505 
 193      69E0
 194              		.text
 195              		.section	.gnu.lto_.symbol_nodes.5f3a24a6d5f30b73,"",%progbits
 196 0000 789C4D8A 		.ascii	"x\234M\212I\016\202@\020E\177\375\006\244\355\310\035"
 196      490E8240 
 196      10457FFD 
 196      06A4EDC8 
 196      1D
 197 0011 3C9A2729 		.ascii	"<\232')\202\033\234\022\034p8\217{\227\256\035\356a"
 197      821B9C12 
 197      1C70388F 
 197      7B97AE1D 
 197      EE61
 198 0023 84A6A35D 		.ascii	"\204\246\243]\233\227\367\352\023\304T0\034\027\242"
 198      9B97F7EA 
 198      13C45430 
 198      1C17A2
 199 0032 40730354 		.ascii	"@s\003T\333z\306\245\250D\272\022e\244kQ\023\351F4\211"
 199      DB7AC6A5 
 199      A844BA12 
 199      65A46B51 
 199      13E94634 
 200 0047 B4A1A641 		.ascii	"\264\241\246A\357\265pK\315\376\232\236\210D\015w\324"
 200      EFB5704B 
 200      CDFE9A9E 
 200      88440D77 
 200      D4
 201 0058 5134DA53 		.ascii	"Q4\332S\363ht\246\364\243\003\325F\365BvUZ\352x\250"
 201      F36874A6 
 201      F4A303D5 
 201      46F54276 
 201      555AEA78 
 202 006d 652972A4 		.ascii	"e)r\244\272\237\231t\202\371\343#&KPy\026\270z\002\257"
 202      BA9F9974 
 202      82F9E323 
 202      264B5079 
 202      16B87A02 
 203 0082 9EB90CDD 		.ascii	"\236\271\014\335\206\277-\360\366$\252gG\027\272\013"
 203      86BF2DF0 
 203      F624AA67 
 203      4717BA0B 
 204 0092 DD19DFF1 		.ascii	"\335\031\337\361\0053\263X\257"
 204      0533B358 
ARM GAS  /tmp/ccBrbIdT.s 			page 15


 204      AF
 205              		.text
 206              		.section	.gnu.lto_.refs.5f3a24a6d5f30b73,"",%progbits
 207 0000 789C6362 		.ascii	"x\234cb`b\340e\200\000F6&vFN&.Fn&\036\006\000\003%\000"
 207      6062E065 
 207      80004636 
 207      2676464E 
 207      262E466E 
 208 001b 52       		.ascii	"R"
 209              		.text
 210              		.section	.gnu.lto_.decls.5f3a24a6d5f30b73,"",%progbits
 211 0000 789CB557 		.ascii	"x\234\265W}l[\325\025\277\367\331M\355:\315J\267U\231"
 211      7D6C5BD5 
 211      15BFF7D9 
 211      4DED3ACD 
 211      4AB75599 
 212 0014 C4874163 		.ascii	"\304\207Ac\260n\3044\0011\376A-n\325TjX\345\024\251"
 212      B06EC434 
 212      0131FE41 
 212      2D6ED554 
 212      6A58E514 
 213 0029 D234790F 		.ascii	"\3224y\017\307,\226\234\244\213_\230\372\327n\322\224"
 213      C72C969C 
 213      A48B5F98 
 213      FAD76ED2 
 213      94
 214 003a 42A160A8 		.ascii	"B\241`\250Z\265Q?\234\322h)\037\001\005\224\242\264"
 214      5AB5513F 
 214      9CD26829 
 214      1F010594 
 214      A2B4
 215 004c 4B1EB07E 		.ascii	"K\036\260~\260\252\314+\331J\233\215\270e|\014&\201"
 215      B0AACC2B 
 215      D94A9B8D 
 215      B8657C0C 
 215      2681
 216 005e 1A515AB5 		.ascii	"\032QZ\265`\316\275\357\353\276\233w\035\033\211+\337"
 216      60CEBDEF 
 216      EBBE9B77 
 216      1D1B892B 
 216      DF
 217 006f F3AEAFCF 		.ascii	"\363\256\257\317\371\235\3379\367\334w\257\025\244\240"
 217      F99DDF39 
 217      F7DC77AF 
 217      15A4A0
 218 007e D53E848A 		.ascii	"\325>\204\212\320\366,B\350\257\012B!\204\320}\310i"
 218      D0F62C42 
 218      E8AF0A42 
 218      2184D07D 
 218      C869
 219 0090 D5D0FBA1 		.ascii	"\325\320\373\241\017C\037\201>\012}\014\372Q\350'\240"
 219      0F431F81 
 219      3E0A7D0C 
 219      FA51E827 
 219      A0
 220 00a1 9F829E87 		.ascii	"\237\202\236\207>\001\375\014\364\263\320\001\022]\200"
 220      3E01FD0C 
ARM GAS  /tmp/ccBrbIdT.s 			page 16


 220      F4B3D001 
 220      125D80
 221 00b0 FE3FE89F 		.ascii	"\376?\350\237#w\243Xs\241_\204^c\342_\201\376#\214\320"
 221      2377A358 
 221      73A15F84 
 221      5E63E25F 
 221      81FE238C 
 222 00c5 343CFDA6 		.ascii	"4<\375\246\375\017\341;\206^\20416\355\350\363e\001"
 222      FD0FE13B 
 222      865E8431 
 222      36EDE8F3 
 222      6501
 223 00d7 8FF29AE3 		.ascii	"\217\362\232\343\2017m\352[\366\303hf\033)\203\013\266"
 223      81376DEA 
 223      5BF6C368 
 223      661B2983 
 223      0BB6
 224 00e9 B898FAF4 		.ascii	"\270\230\372\364\371\272\200Cs\022\200~\200\303\271"
 224      F9BA8043 
 224      7312807E 
 224      80C3B9
 225 00f8 380BD6A8 		.ascii	"8\013\326\250\371\3756\354\306\03239\351\002\326\\I"
 225      F9FD36EC 
 225      C61A3339 
 225      E902D65C 
 225      49
 226 0109 5C63E6F3 		.ascii	"\\c\346\363v\001\207\256\017,'\3729\314\277j\316)\346"
 226      760187AE 
 226      0F2C27FA 
 226      39CCBF6A 
 226      CE29E6
 227 011c FC198F5C 		.ascii	"\374\031\217\\\320\265\234'\370]\014\266\343\360\374"
 227      D0B59C27 
 227      F85D0CB6 
 227      E3F0FC
 228 012b 053C7F09 		.ascii	"\005<\177\011\375\034\214\357\200\347~\323\306o\332"
 228      FD1C8CEF 
 228      80E77ED3 
 228      C66FDA
 229 013a 510E74DD 		.ascii	"Q\016t\335\373M\037t\355\377&\340\237\222\360\241\363"
 229      FB4D1F74 
 229      EDFF26E0 
 229      9F92F0A1 
 229      F3
 230 014b 5E6B939F 		.ascii	"^k\223\237\205O\235\204O\236\3433b\372\240uxZ\300\247"
 230      854F9D84 
 230      4F9EE333 
 230      62FAA075 
 230      785AC0A7 
 231 015f F51A12F0 		.ascii	"\365\032\022\360\017H|D\340y\230\3631\301\371\0305}"
 231      0F487C44 
 231      E07998F3 
 231      31C1F918 
 231      357D
 232 0171 D03ABF53 		.ascii	"\320:\277SX\203\233\320^\242\347\013\003C\347\225]D"
 232      58839BD0 
 232      5EA2E70B 
ARM GAS  /tmp/ccBrbIdT.s 			page 17


 232      0343E795 
 232      5D44
 233 0183 EF25B0CD 		.ascii	"\357%\260\315\010\016/B\333\011\264\334\243\204`M\305"
 233      080E2F42 
 233      DB09B4DC 
 233      A384604D 
 233      C5
 234 0194 F7FD18AD 		.ascii	"\367\375\030\255\303*\256\011\2420\033T\007\231\017"
 234      C32AAE09 
 234      A2301B54 
 234      07990F
 235 01a3 8454BC1F 		.ascii	"\204T\274\037/b#\037\363\200\202\3501Bz\250a\343\011"
 235      2F62231F 
 235      F38082E8 
 235      31427AA8 
 235      61E309
 236 01b6 A0EC6575 		.ascii	"\240\354eu+:@H\2660\371\322\273\012!\001\025\037\300"
 236      2B3A4048 
 236      B630F9D2 
 236      BB0A2101 
 236      151FC0
 237 01c9 41B0FD2D 		.ascii	"A\260\375-F\213\321A\360\231%\344B\203@\022U\006\375"
 237      468BD141 
 237      F09925E4 
 237      42834012 
 237      5506FD
 238 01dc 97CD47DF 		.ascii	"\227\315G\337\300=@]\305\203\014\374I\330\245*\3763"
 238      C03D405D 
 238      C5830CFC 
 238      49D8A52A 
 238      FE33
 239 01ee 5E5C31D4 		.ascii	"^\\1\324\344\226#\3672\226/0\240\267\004 \025\317\015"
 239      E49623F7 
 239      32962F30 
 239      A0B70420 
 239      15CF0D
 240 0201 F21CD977 		.ascii	"\362\034\331wK\201\242\261\237\315\001}\205\375\000"
 240      4B81A2B1 
 240      9FCD017D 
 240      85FD00
 241 0210 7DCFEA2A 		.ascii	"}\317\352*~\320g\033(\350\035\201\360O\321s\204<\013"
 241      7ED0671B 
 241      28E81D81 
 241      F04FD173 
 241      843C0B
 242 0223 CBFD7615 		.ascii	"\313\375v\025,\267\337\312\376y\246\326\217o\362\314"
 242      2CB7DFCA 
 242      FE79A6D6 
 242      8F6FF2CC 
 243 0233 85A105ED 		.ascii	"\205\241\005\355gh\200\226\305Y\262\246\226\025\005"
 243      67688096 
 243      C559B2A6 
 243      961505
 244 0242 328D5C1C 		.ascii	"2\215\\\034\207\2602\263\300\364\276\223\325\331\356"
 244      87B032B3 
 244      C0F4BE93 
 244      D5D9EE
ARM GAS  /tmp/ccBrbIdT.s 			page 18


 245 0251 42B1B82F 		.ascii	"B\261\270/\267\240\374\342z\325,.'(\005}$Dd\263\"\203"
 245      B7A0FCE2 
 245      7AD52C2E 
 245      2728057D 
 245      244464B3 
 246 0267 C467B31A 		.ascii	"\304g\263\032\026Y\275\346\311\352\264\303\312(e\005"
 246      1659BDE6 
 246      C9EAB4C3 
 246      CA286505 
 247 0277 5DF6CC18 		.ascii	"]\366\314\030\031O6\032iP\361+\000\245\342\221\357\222"
 247      194F361A 
 247      6950F12B 
 247      00A5E291 
 247      EF92
 248 0289 AC1191D6 		.ascii	"\254\021\221\326!OZWO\356\376\011\311\365\350\305\342"
 248      214F5A57 
 248      4FEEFE09 
 248      C9F5E8C5 
 248      E2
 249 029a B81E4642 		.ascii	"\270\036FB\276(\274,a\207=\022\366\270\342\231\260\036"
 249      BE28BC2C 
 249      61873D12 
 249      F6B8E299 
 249      B01E
 250 02ac 323C4882 		.ascii	"2<H\202\026[\025\217J\3421\361\216x\022=\364\324\016"
 250      165B158F 
 250      4AE231F1 
 250      8E78123D 
 250      F4D40E
 251 02bf 19D100DA 		.ascii	"\031\321\000\332L\235\0246\221n\374\007{\217\005,h\272"
 251      4C9D1436 
 251      916EFC07 
 251      7B8F052C 
 251      68BA
 252 02d1 C3D91EA3 		.ascii	"\303\331\036\243\033^Q\261\216\003\300\265O\361\332"
 252      1B5E51B1 
 252      8E03C0B5 
 252      4FF1DA
 253 02e0 F98C0055 		.ascii	"\371\214\000U\240\215\332\033ck\204\275w05\032\367\310"
 253      A08DDA1B 
 253      636B84BD 
 253      7730351A 
 253      F7C8
 254 02f2 474E968F 		.ascii	"GN\226\217!V@\006\266\212\307\234|\270H\233xo\315\314"
 254      21564006 
 254      B68AC79C 
 254      7CB8489B 
 254      786FCDCC 
 255 0306 474E2F4C 		.ascii	"GN/Lm\033\253r^\243f\005+h\302\333\245P\263G\305\342"
 255      6D1BAB72 
 255      5EA36605 
 255      2B68C2DB 
 255      A550B347 
 256 031c 3836D347 		.ascii	"86\323G!\257\217\0363k6l\225\354\244\342Y\262W[\032"
 256      21AF8F1E 
 256      336B366C 
 256      95ECA4E2 
ARM GAS  /tmp/ccBrbIdT.s 			page 19


 256      59B2575B 
 257 0331 ADFDFD09 		.ascii	"\255\375\375\011\3238Qf\311n%\233\026`\233\326\011\221"
 257      D3385166 
 257      C96E259B 
 257      16609BD6 
 257      0991
 258 0343 D6DB9EB4 		.ascii	"\326\333\236\264.q\264\214\250\277(+\352S\"\374;\236"
 258      2E71B48C 
 258      A8BF282B 
 258      EA5322FC 
 258      3B9E
 259 0355 F0C3C7C5 		.ascii	"\360\303\307\305\250\257yG\375U\213\275QO\262\215\232"
 259      A8AF7947 
 259      FD558BBD 
 259      514FB28D 
 259      9A
 260 0366 FF4E51E7 		.ascii	"\377NQ\347EZ\377\360\2445}|\253\265\001\226\232\373"
 260      455AFFF0 
 260      A4357D7C 
 260      ABB50196 
 260      9AFB
 261 0378 4F419B7D 		.ascii	"OA\233}e\355\270\211\322;\356\237\036\016\263\205\017"
 261      65EDB889 
 261      D23BEE9F 
 261      1E0EB385 
 261      0F
 262 0389 BFD1F12E 		.ascii	"\277\321\361.\362&\255\260?\331\365\365\354\014\207"
 262      F226ADB0 
 262      3FD9F5F5 
 262      EC0C87
 263 0398 06C47B9E 		.ascii	"\006\304{\236\020\327\372\316\370m\210\362_\306\347"
 263      10D7FACE 
 263      F86D88F2 
 263      5FC6E7
 264 03a7 DC277D08 		.ascii	"\334'}\010mq\316P\363@-\014\350\265;kf\333\354\2662"
 264      6D71CE50 
 264      F3402D0C 
 264      E8B53B6B 
 264      66DBECB6 
 265 03bc A9ADF5D6 		.ascii	"\251\255\365\326U\361\373\370V\220S\306\002\261\237"
 265      55F1FBF8 
 265      569053C6 
 265      02B19F
 266 03cb 8CB1352A 		.ascii	"\214\2615*b\272\225\337\360I_\027\245Me1\376\033\207"
 266      62BA95DF 
 266      F0495F17 
 266      A54D6531 
 266      FE1B87
 267 03de 1C08D741 		.ascii	"\034\010\327AzL\222\342\363\356\024\337\202\372I>_\230"
 267      7A4C92E2 
 267      F3EE14DF 
 267      82FA493E 
 267      5F98
 268 03f0 7AF7EF4B 		.ascii	"z\367\357K\272\263zo\216\\+\0261\276\016ei\222\303;"
 268      BAB37A6F 
 268      8E5C2B16 
 268      31BE0E65 
ARM GAS  /tmp/ccBrbIdT.s 			page 20


 268      6992C33B 
 269 0404 6B54FC1F 		.ascii	"kT\374\037\347\365\335j\271\237\317ly\255)\251\226\212"
 269      E7F5DD6A 
 269      B99FCF6C 
 269      79AD29A9 
 269      968A
 270 0416 FF0B78B4 		.ascii	"\377\013x\264\261<\022s\005\230\206,\254\017\271dT\007"
 270      B13C1273 
 270      0598862C 
 270      AC0FB964 
 270      5407
 271 0428 9D41B52B 		.ascii	"\235A\265+\024K\013\242\315\373\204\367\205@BAg\315"
 271      144B0BA2 
 271      CDFB84F7 
 271      85404241 
 271      67CD
 272 043a D4DF883E 		.ascii	"\324\337\210>\366\355\241\027\244\017\030+#~}\3448\011"
 272      F6EDA117 
 272      A40F182B 
 272      237E7DE4 
 272      3809
 273 044c 64BB1FA3 		.ascii	"d\273\037\243\025&\211}\235\005\030*\025\273\240\245"
 273      1526897D 
 273      9D05182A 
 273      15BBA0A5 
 274 045c E2CF2A8E 		.ascii	"\342\317*\216\375\377\222\330\347\271b\267\264`\370"
 274      FDFF92D8 
 274      E7B962B7 
 274      B460F8
 275 046b 91F8D610 		.ascii	"\221\370\326\020H(\350K;\366\215~\026\373\247|\354\227"
 275      4828E84B 
 275      3BF68D7E 
 275      16FBA77C 
 275      EC97
 276 047d 9CD88D5F 		.ascii	"\234\330\215_,\310\211\022\220O\373-\310=<\244k\223"
 276      2CC88912 
 276      904FFB2D 
 276      C83D3CA4 
 276      6B93
 277 048f 2D44CFB0 		.ascii	"-D\317\260\034qWVRe\001\375\016\331w\326\341\017\276"
 277      1C715756 
 277      526501FD 
 277      0ED977D6 
 277      E10FBE
 278 04a2 686777D6 		.ascii	"hgw\326i\274\020\240\247\374\356\312\235\025\206&\341"
 278      69BC10A0 
 278      A7FCEECA 
 278      9D158626 
 278      E1
 279 04b3 12981A46 		.ascii	"\022\230\032F\306\276\325\267MV\023\2771\217<6\202\331"
 279      C6BED5B7 
 279      4D5613BF 
 279      318F3C36 
 279      82D9
 280 04c5 6E4639D2 		.ascii	"nF9\322\273Q\337>I\357/ob\266J\033K\336\263U|\220m\365"
 280      BB51DF3E 
 280      49EF2F6F 
ARM GAS  /tmp/ccBrbIdT.s 			page 21


 280      62B64A1B 
 280      4BDEB355 
 281 04dd D96FB60A 		.ascii	"\331o\266\012\372\214EB)x!\331\013l\255vMP\240\265c"
 281      FA8C4542 
 281      297821D9 
 281      0B6CAD76 
 281      4D50A0B5 
 282 04f2 B23AABAA 		.ascii	"\262:\253\252\370\012;\022?\257\030,\354\002\333\311"
 282      F80A3B12 
 282      3FAF182C 
 282      EC02DBC9 
 283 0502 834D9703 		.ascii	"\203M\227\003\026\2203\353\343\301.W\014\346f\266\233"
 283      169033EB 
 283      E3C12E57 
 283      0CE666B6 
 283      9B
 284 0513 07FBBA1C 		.ascii	"\007\373\272\034\260\005rf{y02\247R07\263Wx\260\336"
 284      B0057266 
 284      7B793032 
 284      A7523037 
 284      B35778B0 
 285 0528 72C06AE5 		.ascii	"r\300j\345\314\206y\260-\025\203\271\231\275\306\203"
 285      CC8679B0 
 285      2D1583B9 
 285      99BDC683 
 286 0538 65CB010B 		.ascii	"e\313\001\013\313\231\215\360`\333+\006s3{\235\007\333"
 286      CB998DF0 
 286      60DB2B06 
 286      73337B9D 
 286      07DB
 287 054a 550ED8ED 		.ascii	"U\016\330\355rf\243<\330\236\212\301\334\314\216\360"
 287      7266A33C 
 287      D89E8AC1 
 287      DCCC8EF0 
 288 055a 60FDE580 		.ascii	"`\375\345\200\335)c\326\255\217\375&\253Z\207\000}\243"
 288      DD2963D6 
 288      AD8FFD26 
 288      AB5A8700 
 288      7DA3
 289 056c 5F710E01 		.ascii	"_q\016\001\270H\273J\213W\033\224\253\251x\273R\351"
 289      B848BB4A 
 289      8B571B94 
 289      ABA978BB 
 289      52E9
 290 057e 61B143F1 		.ascii	"a\261C\361>,\234\233\000\257\005a\017\210a\273Yx\305"
 290      3E2C9C9B 
 290      00AF0561 
 290      0F8861BB 
 290      5978C5
 291 0591 ED4E629E 		.ascii	"\355Nb\236O\342\301r\222\270T\016v\232\007\033*\007"
 291      4FE2C172 
 291      92B8540E 
 291      769A071B 
 291      2A07
 292 05a3 AC515E2B 		.ascii	"\254Q^+\023<\330p\305`nf\377\342\301\016\225\003\266"
 292      133CD870 
 292      C5606E66 
ARM GAS  /tmp/ccBrbIdT.s 			page 22


 292      FFE2C10E 
 292      9503B6
 293 05b6 46CEEC3D 		.ascii	"F\316\354=\036l\264b0\236Y\267~\316)\274\334R\241\362"
 293      1E6CB462 
 293      309E59B7 
 293      7ECE29BC 
 293      DC52A1F2 
 294 05ca 96BADFB6 		.ascii	"\226\272\337\266.\265A\251\032\334\360+.\274\001I\341"
 294      2EB541A9 
 294      1ADCF02B 
 294      2EBC0149 
 294      E1
 295 05db F1F75B47 		.ascii	"\361\367[G\013\302\326\305\260]$\314\341:\217\034z5"
 295      0BC2D6C5 
 295      B05D24CC 
 295      E13A8F1C 
 295      7A35
 296 05ed FEBC57F1 		.ascii	"\376\274W\361W\354@\276\214o\006y\225\311\257\231,2"
 296      57EC40BE 
 296      8C6F0679 
 296      95C9AF99 
 296      2C32
 297 05ff D9AD50B9 		.ascii	"\331\255P\271\221\311MLnf\362q&\237`r+\223O3\371\014"
 297      91C94D4C 
 297      6E66F271 
 297      269F6072 
 297      2B934F33 
 298 0615 93DB98DC 		.ascii	"\223\333\230\334\311d\037\223\273\231\334\313d\216\311"
 298      C9641F93 
 298      BB99DCCB 
 298      648EC9
 299 0624 FD20ED26 		.ascii	"\375 \355&K\324E\347\206\036F\373 \271\205M\027\202"
 299      4BD445E7 
 299      861E46FB 
 299      20B9854D 
 299      1782
 300 0636 3D7EFB7F 		.ascii	"=~\373\177\333(\377\277\315\320\320\217<E\024\305\326"
 300      DB28FFBF 
 300      CDD0D08F 
 300      3C4514C5 
 300      D6
 301 0647 18E3355C 		.ascii	"\030\3435\\\027,\343\357\224\314\363A%$\261\032/a\365"
 301      172CE3EF 
 301      94CCF341 
 301      2524B11A 
 301      2F61F5
 302 065a BCD4EA5C 		.ascii	"\274\324\352\\\011\253\027\244V\364\232-\263zQj\265"
 302      09AB17A4 
 302      56F49A2D 
 302      B37A516A 
 302      B5
 303 066b BF84AF97 		.ascii	"\277\204\257\227\244V\237\226\3605$\265:\\\302\327\313"
 303      A4569F96 
 303      F03524B5 
 303      3A5CC2D7 
 303      CB
 304 067c 8AB87AEF 		.ascii	"\212\270z\357o+b\322\033\260Wg\302\365\277\273\276\256"
ARM GAS  /tmp/ccBrbIdT.s 			page 23


 304      6F2B62D2 
 304      1BB05767 
 304      C2F5BFBB 
 304      BEAE
 305 068e 2E627F3A 		.ascii	".b\177:2\221V5\035Y\337\321\251e\"\315k\233\032\352"
 305      32915635 
 305      1D59DFD1 
 305      A96522CD 
 305      6B9B1AEA 
 306 06a2 23AB572F 		.ascii	"#\253W/\217\254]\325\364\310\222HF\213\247\323-u\255"
 306      8FAC5DD5 
 306      F4C89248 
 306      468BA7D3 
 306      2D75AD
 307 06b5 E836C1A4 		.ascii	"\3506\301\244S\213\244\332\023\351\256\226d$\321\232"
 307      538BA4DA 
 307      13E9AE96 
 307      6424D19A 
 308 06c5 D990D136 		.ascii	"\331\220\3216\254Of@/H\307\251\266d\\\253Z\371\300\203"
 308      AC4F6640 
 308      2F48C7A9 
 308      B6645CAB 
 308      5AF9C083 
 309 06d9 E128BA21 		.ascii	"\341(\272!\322\225\351\264u\333\223\177L\247\036\002"
 309      D295E9B4 
 309      75DB937F 
 309      4CA71E02 
 310 06e9 D89654BB 		.ascii	"\330\226T\273\006\352\201.x6\324\307\265;\274\324\332"
 310      06EA812E 
 310      7836D4C7 
 310      B53BBCD4 
 310      DA
 311 06fa D4446BAA 		.ascii	"\324Dk\252=\031\211\267$\037V\273\322Z\334\3622/\036"
 311      3D1989B7 
 311      241F56BB 
 311      D25ADCF2 
 311      322F1E
 312 070d B70C171A 		.ascii	"\267\014\027\032\024\343\031M\355\324\342jZ\355l\363"
 312      14E3194D 
 312      EDD4E26A 
 312      5AED6CF3 
 313 071d 5302D7D9 		.ascii	"S\002\327\331\363\035\353\215\351\005\326LRsO\374\336"
 313      F31DEB8D 
 313      E905D64C 
 313      52734FFC 
 313      DE
 314 072e 9A9813BF 		.ascii	"\232\230\023\277\277\243#\275\310\234Ne\214\331\270"
 314      BFA323BD 
 314      C89C4E65 
 314      8CD9B8
 315 073d 9AD0528F 		.ascii	"\232\320R\217$\257\367HZ\2463\001\261\324%PUF[\325\236"
 315      24AFF748 
 315      5AA63301 
 315      B1D42550 
 315      55465BD5 
 316 0752 D2AA335A 		.ascii	"\322\2523Z3\345\261\214\332\315U\037b\251\010\321\311"
 316      33E5B18C 
ARM GAS  /tmp/ccBrbIdT.s 			page 24


 316      DACD551F 
 316      62A908D1 
 316      C9
 317 0763 8EF56C6E 		.ascii	"\216\365ln\036\214\223\2325\\i\016C\226G\200\270e\226"
 317      1E8C939A 
 317      355C690E 
 317      43964780 
 317      B86596
 318 0776 4443F4FE 		.ascii	"DC\364\376D\253\332\031L\2646o\3104\252i-\020\217?\334"
 318      44ABDA19 
 318      4CB4366F 
 318      C834AA69 
 318      2D108F3F 
 319 078b D59E88C7 		.ascii	"\325\236\210\307\347[\203\272{\356\252\277g>\317\005"
 319      E75B83BA 
 319      7BEEAABF 
 319      673ECF05 
 320 079b F1BF35DC 		.ascii	"\361\2775\334\025rh\270\177\371U\310a\205\356\256\240"
 320      157268B8 
 320      7FF955C8 
 320      6185EEAE 
 320      A0
 321 07ac 4CDAE85A 		.ascii	"L\332\350Z\244\332\200]\310\376\022\327|\321\330\022"
 321      A4DA805D 
 321      C8FE12D7 
 321      7CD1D812 
 322 07bc E8F5FEE6 		.ascii	"\350\365\376\346\246h\314\277|\325\212\230\322\034\363"
 322      A668CCBF 
 322      7CD58A98 
 322      D21CF3
 323 07cb AD58199B 		.ascii	"\255X\031\233\023"
 323      13
 324 07d0 8D36C596 		.ascii	"\2156\305\2260Y\357\217FW\304|\321\007\326\372\3264"
 324      3059EF8F 
 324      4657C47C 
 324      D107D6FA 
 324      D634
 325 07e2 477DCB62 		.ascii	"G}\313b1_,\012\337\301\340\376\345kc\276\345\324\262"
 325      315F2C0A 
 325      DFC1E0FE 
 325      E56B63BE 
 325      E5D4B2
 326 07f5 69594CF9 		.ascii	"iYL\371\265a\325\000\372\353b\337\002~\244c\232"
 326      B561D500 
 326      FAEB62DF 
 326      027EA463 
 326      9A
 327              		.text
 328              		.section	.gnu.lto_.symtab.5f3a24a6d5f30b73,"",%progbits
 329 0000 7374496E 		.ascii	"stInit\000\000\000\000\000\000\000\000\000\000\000\000"
 329      69740000 
 329      00000000 
 329      00000000 
 329      0000
 330 0012 C5000000 		.ascii	"\305\000\000\000stStartAlarm\000\000\000\000\000\000"
 330      73745374 
 330      61727441 
ARM GAS  /tmp/ccBrbIdT.s 			page 25


 330      6C61726D 
 330      00000000 
 331 0028 00000000 		.ascii	"\000\000\000\000\000\000\310\000\000\000stStopAlarm"
 331      0000C800 
 331      00007374 
 331      53746F70 
 331      416C6172 
 332 003d 00000000 		.ascii	"\000\000\000\000\000\000\000\000\000\000\000\000\315"
 332      00000000 
 332      00000000 
 332      CD
 333 004a 00000073 		.ascii	"\000\000\000stSetAlarm\000\000\000\000\000\000\000\000"
 333      74536574 
 333      416C6172 
 333      6D000000 
 333      00000000 
 334 005f 00000000 		.ascii	"\000\000\000\000\320\000\000\000stGetAlarm\000\000\000"
 334      D0000000 
 334      73744765 
 334      74416C61 
 334      726D0000 
 335 0074 00000000 		.ascii	"\000\000\000\000\000\000\000\000\000\324\000\000\000"
 335      00000000 
 335      00D40000 
 335      00
 336 0081 73745F6C 		.ascii	"st_lld_init\000\000\002\000\000\000\000\000\000\000"
 336      6C645F69 
 336      6E697400 
 336      00020000 
 336      00000000 
 337 0096 0000D700 		.ascii	"\000\000\327\000\000\000chSysHalt\000\000\002\000\000"
 337      00006368 
 337      53797348 
 337      616C7400 
 337      00020000 
 338 00aa 00000000 		.ascii	"\000\000\000\000\000\000\000\331\000\000\000"
 338      000000D9 
 338      000000
 339              		.text
 340              		.section	.gnu.lto_.opts,"",%progbits
 341 0000 272D6D63 		.ascii	"'-mcpu=cortex-m4' '-mno-thumb-interwork' '-mthumb' "
 341      70753D63 
 341      6F727465 
 341      782D6D34 
 341      2720272D 
 342 0033 272D6767 		.ascii	"'-ggdb' '-O0' '-fomit-frame-pointer' '-falign-funct"
 342      64622720 
 342      272D4F30 
 342      2720272D 
 342      666F6D69 
 343 0066 696F6E73 		.ascii	"ions=16' '-ffunction-sections' '-fdata-sections' '-"
 343      3D313627 
 343      20272D66 
 343      66756E63 
 343      74696F6E 
 344 0099 666E6F2D 		.ascii	"fno-common' '-flto'\000"
 344      636F6D6D 
ARM GAS  /tmp/ccBrbIdT.s 			page 26


 344      6F6E2720 
 344      272D666C 
 344      746F2700 
 345              		.text
 346              		.cfi_sections	.debug_frame
 347              		.section	.text.st_lld_start_alarm,"ax",%progbits
 348              		.align	2
 349              		.p2align 4,,15
 350              		.thumb
 351              		.thumb_func
 352              		.type	st_lld_start_alarm, %function
 353              	st_lld_start_alarm:
 354              	.LFB137:
 355              		.file 1 "../../../../os/hal/ports/STM32/LLD/TIMv1/st_lld.h"
 356              		.loc 1 153 0
 357              		.cfi_startproc
 358              		@ args = 0, pretend = 0, frame = 8
 359              		@ frame_needed = 0, uses_anonymous_args = 0
 360              		@ link register save eliminated.
 361 0000 82B0     		sub	sp, sp, #8
 362              		.cfi_def_cfa_offset 8
 363 0002 0190     		str	r0, [sp, #4]
 364              		.loc 1 155 0
 365 0004 4FF08043 		mov	r3, #1073741824
 366 0008 019A     		ldr	r2, [sp, #4]
 367 000a 5A63     		str	r2, [r3, #52]
 368              		.loc 1 156 0
 369 000c 4FF08043 		mov	r3, #1073741824
 370 0010 0022     		movs	r2, #0
 371 0012 1A61     		str	r2, [r3, #16]
 372              		.loc 1 157 0
 373 0014 4FF08043 		mov	r3, #1073741824
 374 0018 0222     		movs	r2, #2
 375 001a DA60     		str	r2, [r3, #12]
 376              		.loc 1 158 0
 377 001c 02B0     		add	sp, sp, #8
 378              		@ sp needed
 379 001e 7047     		bx	lr
 380              		.cfi_endproc
 381              	.LFE137:
 382              		.size	st_lld_start_alarm, .-st_lld_start_alarm
 383              		.section	.text.st_lld_stop_alarm,"ax",%progbits
 384              		.align	2
 385              		.p2align 4,,15
 386              		.thumb
 387              		.thumb_func
 388              		.type	st_lld_stop_alarm, %function
 389              	st_lld_stop_alarm:
 390              	.LFB138:
 391              		.loc 1 165 0
 392              		.cfi_startproc
 393              		@ args = 0, pretend = 0, frame = 0
 394              		@ frame_needed = 0, uses_anonymous_args = 0
 395              		@ link register save eliminated.
 396              		.loc 1 167 0
 397 0000 4FF08043 		mov	r3, #1073741824
 398 0004 0022     		movs	r2, #0
ARM GAS  /tmp/ccBrbIdT.s 			page 27


 399 0006 DA60     		str	r2, [r3, #12]
 400              		.loc 1 168 0
 401 0008 7047     		bx	lr
 402              		.cfi_endproc
 403              	.LFE138:
 404              		.size	st_lld_stop_alarm, .-st_lld_stop_alarm
 405 000a 00BFAFF3 		.section	.text.st_lld_set_alarm,"ax",%progbits
 405      0080
 406              		.align	2
 407              		.p2align 4,,15
 408              		.thumb
 409              		.thumb_func
 410              		.type	st_lld_set_alarm, %function
 411              	st_lld_set_alarm:
 412              	.LFB139:
 413              		.loc 1 177 0
 414              		.cfi_startproc
 415              		@ args = 0, pretend = 0, frame = 8
 416              		@ frame_needed = 0, uses_anonymous_args = 0
 417              		@ link register save eliminated.
 418 0000 82B0     		sub	sp, sp, #8
 419              		.cfi_def_cfa_offset 8
 420 0002 0190     		str	r0, [sp, #4]
 421              		.loc 1 179 0
 422 0004 4FF08043 		mov	r3, #1073741824
 423 0008 019A     		ldr	r2, [sp, #4]
 424 000a 5A63     		str	r2, [r3, #52]
 425              		.loc 1 180 0
 426 000c 02B0     		add	sp, sp, #8
 427              		@ sp needed
 428 000e 7047     		bx	lr
 429              		.cfi_endproc
 430              	.LFE139:
 431              		.size	st_lld_set_alarm, .-st_lld_set_alarm
 432              		.section	.text.st_lld_get_alarm,"ax",%progbits
 433              		.align	2
 434              		.p2align 4,,15
 435              		.thumb
 436              		.thumb_func
 437              		.type	st_lld_get_alarm, %function
 438              	st_lld_get_alarm:
 439              	.LFB140:
 440              		.loc 1 189 0
 441              		.cfi_startproc
 442              		@ args = 0, pretend = 0, frame = 0
 443              		@ frame_needed = 0, uses_anonymous_args = 0
 444              		@ link register save eliminated.
 445              		.loc 1 191 0
 446 0000 4FF08043 		mov	r3, #1073741824
 447 0004 5B6B     		ldr	r3, [r3, #52]
 448              		.loc 1 192 0
 449 0006 1846     		mov	r0, r3
 450 0008 7047     		bx	lr
 451              		.cfi_endproc
 452              	.LFE140:
 453              		.size	st_lld_get_alarm, .-st_lld_get_alarm
 454 000a 00BFAFF3 		.section	.text.st_lld_is_alarm_active,"ax",%progbits
ARM GAS  /tmp/ccBrbIdT.s 			page 28


 454      0080
 455              		.align	2
 456              		.p2align 4,,15
 457              		.thumb
 458              		.thumb_func
 459              		.type	st_lld_is_alarm_active, %function
 460              	st_lld_is_alarm_active:
 461              	.LFB141:
 462              		.loc 1 203 0
 463              		.cfi_startproc
 464              		@ args = 0, pretend = 0, frame = 0
 465              		@ frame_needed = 0, uses_anonymous_args = 0
 466              		@ link register save eliminated.
 467              		.loc 1 205 0
 468 0000 4FF08043 		mov	r3, #1073741824
 469 0004 DB68     		ldr	r3, [r3, #12]
 470 0006 03F00203 		and	r3, r3, #2
 471 000a 002B     		cmp	r3, #0
 472 000c 0CBF     		ite	eq
 473 000e 0023     		moveq	r3, #0
 474 0010 0123     		movne	r3, #1
 475 0012 DBB2     		uxtb	r3, r3
 476              		.loc 1 206 0
 477 0014 1846     		mov	r0, r3
 478 0016 7047     		bx	lr
 479              		.cfi_endproc
 480              	.LFE141:
 481              		.size	st_lld_is_alarm_active, .-st_lld_is_alarm_active
 482 0018 AFF30080 		.section	.text.stInit,"ax",%progbits
 482      AFF30080 
 483              		.align	2
 484              		.p2align 4,,15
 485              		.global	stInit
 486              		.thumb
 487              		.thumb_func
 488              		.type	stInit, %function
 489              	stInit:
 490              	.LFB272:
 491              		.file 2 "../../../../os/hal/src/st.c"
 492              		.loc 2 60 0
 493              		.cfi_startproc
 494              		@ args = 0, pretend = 0, frame = 0
 495              		@ frame_needed = 0, uses_anonymous_args = 0
 496 0000 08B5     		push	{r3, lr}
 497              		.cfi_def_cfa_offset 8
 498              		.cfi_offset 3, -8
 499              		.cfi_offset 14, -4
 500              		.loc 2 62 0
 501 0002 FFF7FEFF 		bl	st_lld_init
 502              		.loc 2 63 0
 503 0006 08BD     		pop	{r3, pc}
 504              		.cfi_endproc
 505              	.LFE272:
 506              		.size	stInit, .-stInit
 507 0008 AFF30080 		.section	.text.stStartAlarm,"ax",%progbits
 507      AFF30080 
 508              		.align	2
ARM GAS  /tmp/ccBrbIdT.s 			page 29


 509              		.p2align 4,,15
 510              		.global	stStartAlarm
 511              		.thumb
 512              		.thumb_func
 513              		.type	stStartAlarm, %function
 514              	stStartAlarm:
 515              	.LFB273:
 516              		.loc 2 77 0
 517              		.cfi_startproc
 518              		@ args = 0, pretend = 0, frame = 8
 519              		@ frame_needed = 0, uses_anonymous_args = 0
 520 0000 00B5     		push	{lr}
 521              		.cfi_def_cfa_offset 4
 522              		.cfi_offset 14, -4
 523 0002 83B0     		sub	sp, sp, #12
 524              		.cfi_def_cfa_offset 16
 525 0004 0190     		str	r0, [sp, #4]
 526              		.loc 2 79 0
 527 0006 FFF7FEFF 		bl	st_lld_is_alarm_active
 528 000a 0346     		mov	r3, r0
 529 000c 002B     		cmp	r3, #0
 530 000e 05D0     		beq	.L10
 531              		.loc 2 79 0 is_stmt 0 discriminator 1
 532 0010 40F20000 		movw	r0, #:lower16:__func__.7427
 533 0014 C0F20000 		movt	r0, #:upper16:__func__.7427
 534 0018 FFF7FEFF 		bl	chSysHalt
 535              	.L10:
 536              		.loc 2 81 0 is_stmt 1
 537 001c 0198     		ldr	r0, [sp, #4]
 538 001e FFF7FEFF 		bl	st_lld_start_alarm
 539              		.loc 2 82 0
 540 0022 03B0     		add	sp, sp, #12
 541              		@ sp needed
 542 0024 5DF804FB 		ldr	pc, [sp], #4
 543              		.cfi_endproc
 544              	.LFE273:
 545              		.size	stStartAlarm, .-stStartAlarm
 546 0028 AFF30080 		.section	.text.stStopAlarm,"ax",%progbits
 546      AFF30080 
 547              		.align	2
 548              		.p2align 4,,15
 549              		.global	stStopAlarm
 550              		.thumb
 551              		.thumb_func
 552              		.type	stStopAlarm, %function
 553              	stStopAlarm:
 554              	.LFB274:
 555              		.loc 2 91 0
 556              		.cfi_startproc
 557              		@ args = 0, pretend = 0, frame = 0
 558              		@ frame_needed = 0, uses_anonymous_args = 0
 559 0000 08B5     		push	{r3, lr}
 560              		.cfi_def_cfa_offset 8
 561              		.cfi_offset 3, -8
 562              		.cfi_offset 14, -4
 563              		.loc 2 93 0
 564 0002 FFF7FEFF 		bl	st_lld_stop_alarm
ARM GAS  /tmp/ccBrbIdT.s 			page 30


 565              		.loc 2 94 0
 566 0006 08BD     		pop	{r3, pc}
 567              		.cfi_endproc
 568              	.LFE274:
 569              		.size	stStopAlarm, .-stStopAlarm
 570 0008 AFF30080 		.section	.text.stSetAlarm,"ax",%progbits
 570      AFF30080 
 571              		.align	2
 572              		.p2align 4,,15
 573              		.global	stSetAlarm
 574              		.thumb
 575              		.thumb_func
 576              		.type	stSetAlarm, %function
 577              	stSetAlarm:
 578              	.LFB275:
 579              		.loc 2 105 0
 580              		.cfi_startproc
 581              		@ args = 0, pretend = 0, frame = 8
 582              		@ frame_needed = 0, uses_anonymous_args = 0
 583 0000 00B5     		push	{lr}
 584              		.cfi_def_cfa_offset 4
 585              		.cfi_offset 14, -4
 586 0002 83B0     		sub	sp, sp, #12
 587              		.cfi_def_cfa_offset 16
 588 0004 0190     		str	r0, [sp, #4]
 589              		.loc 2 107 0
 590 0006 FFF7FEFF 		bl	st_lld_is_alarm_active
 591 000a 0346     		mov	r3, r0
 592 000c 83F00103 		eor	r3, r3, #1
 593 0010 DBB2     		uxtb	r3, r3
 594 0012 002B     		cmp	r3, #0
 595 0014 05D0     		beq	.L13
 596              		.loc 2 107 0 is_stmt 0 discriminator 1
 597 0016 40F20000 		movw	r0, #:lower16:__func__.7434
 598 001a C0F20000 		movt	r0, #:upper16:__func__.7434
 599 001e FFF7FEFF 		bl	chSysHalt
 600              	.L13:
 601              		.loc 2 109 0 is_stmt 1
 602 0022 0198     		ldr	r0, [sp, #4]
 603 0024 FFF7FEFF 		bl	st_lld_set_alarm
 604              		.loc 2 110 0
 605 0028 03B0     		add	sp, sp, #12
 606              		@ sp needed
 607 002a 5DF804FB 		ldr	pc, [sp], #4
 608              		.cfi_endproc
 609              	.LFE275:
 610              		.size	stSetAlarm, .-stSetAlarm
 611 002e 00BF     		.section	.text.stGetAlarm,"ax",%progbits
 612              		.align	2
 613              		.p2align 4,,15
 614              		.global	stGetAlarm
 615              		.thumb
 616              		.thumb_func
 617              		.type	stGetAlarm, %function
 618              	stGetAlarm:
 619              	.LFB276:
 620              		.loc 2 121 0
ARM GAS  /tmp/ccBrbIdT.s 			page 31


 621              		.cfi_startproc
 622              		@ args = 0, pretend = 0, frame = 0
 623              		@ frame_needed = 0, uses_anonymous_args = 0
 624 0000 08B5     		push	{r3, lr}
 625              		.cfi_def_cfa_offset 8
 626              		.cfi_offset 3, -8
 627              		.cfi_offset 14, -4
 628              		.loc 2 123 0
 629 0002 FFF7FEFF 		bl	st_lld_is_alarm_active
 630 0006 0346     		mov	r3, r0
 631 0008 83F00103 		eor	r3, r3, #1
 632 000c DBB2     		uxtb	r3, r3
 633 000e 002B     		cmp	r3, #0
 634 0010 05D0     		beq	.L15
 635              		.loc 2 123 0 is_stmt 0 discriminator 1
 636 0012 40F20000 		movw	r0, #:lower16:__func__.7438
 637 0016 C0F20000 		movt	r0, #:upper16:__func__.7438
 638 001a FFF7FEFF 		bl	chSysHalt
 639              	.L15:
 640              		.loc 2 125 0 is_stmt 1
 641 001e FFF7FEFF 		bl	st_lld_get_alarm
 642 0022 0346     		mov	r3, r0
 643              		.loc 2 126 0
 644 0024 1846     		mov	r0, r3
 645 0026 08BD     		pop	{r3, pc}
 646              		.cfi_endproc
 647              	.LFE276:
 648              		.size	stGetAlarm, .-stGetAlarm
 649 0028 AFF30080 		.section	.rodata.__func__.7427,"a",%progbits
 649      AFF30080 
 650              		.align	2
 651              		.type	__func__.7427, %object
 652              		.size	__func__.7427, 13
 653              	__func__.7427:
 654 0000 73745374 		.ascii	"stStartAlarm\000"
 654      61727441 
 654      6C61726D 
 654      00
 655 000d 000000   		.section	.rodata.__func__.7434,"a",%progbits
 656              		.align	2
 657              		.type	__func__.7434, %object
 658              		.size	__func__.7434, 11
 659              	__func__.7434:
 660 0000 73745365 		.ascii	"stSetAlarm\000"
 660      74416C61 
 660      726D00
 661 000b 00       		.section	.rodata.__func__.7438,"a",%progbits
 662              		.align	2
 663              		.type	__func__.7438, %object
 664              		.size	__func__.7438, 11
 665              	__func__.7438:
 666 0000 73744765 		.ascii	"stGetAlarm\000"
 666      74416C61 
 666      726D00
 667 000b 00       		.text
 668              	.Letext0:
 669              		.file 3 "/usr/include/newlib/machine/_default_types.h"
ARM GAS  /tmp/ccBrbIdT.s 			page 32


 670              		.file 4 "/usr/include/newlib/stdint.h"
 671              		.file 5 "../../../../os/rt/ports/ARMCMx/compilers/GCC/chtypes.h"
 672              		.file 6 "../../../../os/rt/include/chsystypes.h"
 673              		.file 7 "../../../../os/rt/include/chschd.h"
 674              		.file 8 "../../../../os/rt/ports/ARMCMx/chcore.h"
 675              		.file 9 "../../../../os/rt/ports/ARMCMx/chcore_v7m.h"
 676              		.file 10 "../../../../os/hal/ports/STM32/LLD/TIMv1/stm32_tim.h"
 677              		.file 11 "../../../../os/rt/include/chdebug.h"
 678              		.file 12 "../../../../os/rt/include/chtm.h"
 679              		.file 13 "../../../../os/rt/include/chstats.h"
 680              		.file 14 "../../../../os/rt/include/chsem.h"
 681              		.file 15 "../../../../os/rt/include/chmtx.h"
 682              		.file 16 "../../../../os/ext/CMSIS/include/core_cm4.h"
 683              		.section	.debug_info,"",%progbits
 684              	.Ldebug_info0:
 685 0000 730A0000 		.4byte	0xa73
 686 0004 0400     		.2byte	0x4
 687 0006 00000000 		.4byte	.Ldebug_abbrev0
 688 000a 04       		.byte	0x4
 689 000b 01       		.uleb128 0x1
 690 000c 0A030000 		.4byte	.LASF153
 691 0010 01       		.byte	0x1
 692 0011 DC010000 		.4byte	.LASF154
 693 0015 A5020000 		.4byte	.LASF155
 694 0019 00000000 		.4byte	.Ldebug_ranges0+0
 695 001d 00000000 		.4byte	0
 696 0021 00000000 		.4byte	.Ldebug_line0
 697 0025 02       		.uleb128 0x2
 698 0026 04       		.byte	0x4
 699 0027 05       		.byte	0x5
 700 0028 696E7400 		.ascii	"int\000"
 701 002c 03       		.uleb128 0x3
 702 002d 04       		.byte	0x4
 703 002e 07       		.byte	0x7
 704 002f 41020000 		.4byte	.LASF0
 705 0033 03       		.uleb128 0x3
 706 0034 01       		.byte	0x1
 707 0035 06       		.byte	0x6
 708 0036 1B010000 		.4byte	.LASF1
 709 003a 04       		.uleb128 0x4
 710 003b 3C000000 		.4byte	.LASF5
 711 003f 03       		.byte	0x3
 712 0040 1C       		.byte	0x1c
 713 0041 45000000 		.4byte	0x45
 714 0045 03       		.uleb128 0x3
 715 0046 01       		.byte	0x1
 716 0047 08       		.byte	0x8
 717 0048 07050000 		.4byte	.LASF2
 718 004c 03       		.uleb128 0x3
 719 004d 02       		.byte	0x2
 720 004e 05       		.byte	0x5
 721 004f 1F050000 		.4byte	.LASF3
 722 0053 03       		.uleb128 0x3
 723 0054 02       		.byte	0x2
 724 0055 07       		.byte	0x7
 725 0056 8B010000 		.4byte	.LASF4
 726 005a 04       		.uleb128 0x4
ARM GAS  /tmp/ccBrbIdT.s 			page 33


 727 005b DE030000 		.4byte	.LASF6
 728 005f 03       		.byte	0x3
 729 0060 37       		.byte	0x37
 730 0061 65000000 		.4byte	0x65
 731 0065 03       		.uleb128 0x3
 732 0066 04       		.byte	0x4
 733 0067 05       		.byte	0x5
 734 0068 48010000 		.4byte	.LASF7
 735 006c 04       		.uleb128 0x4
 736 006d 21060000 		.4byte	.LASF8
 737 0071 03       		.byte	0x3
 738 0072 38       		.byte	0x38
 739 0073 77000000 		.4byte	0x77
 740 0077 03       		.uleb128 0x3
 741 0078 04       		.byte	0x4
 742 0079 07       		.byte	0x7
 743 007a C6050000 		.4byte	.LASF9
 744 007e 03       		.uleb128 0x3
 745 007f 08       		.byte	0x8
 746 0080 05       		.byte	0x5
 747 0081 6D010000 		.4byte	.LASF10
 748 0085 04       		.uleb128 0x4
 749 0086 A9040000 		.4byte	.LASF11
 750 008a 03       		.byte	0x3
 751 008b 4E       		.byte	0x4e
 752 008c 90000000 		.4byte	0x90
 753 0090 03       		.uleb128 0x3
 754 0091 08       		.byte	0x8
 755 0092 07       		.byte	0x7
 756 0093 8B000000 		.4byte	.LASF12
 757 0097 04       		.uleb128 0x4
 758 0098 46050000 		.4byte	.LASF13
 759 009c 04       		.byte	0x4
 760 009d 2A       		.byte	0x2a
 761 009e 3A000000 		.4byte	0x3a
 762 00a2 04       		.uleb128 0x4
 763 00a3 FF040000 		.4byte	.LASF14
 764 00a7 04       		.byte	0x4
 765 00a8 41       		.byte	0x41
 766 00a9 5A000000 		.4byte	0x5a
 767 00ad 04       		.uleb128 0x4
 768 00ae 95050000 		.4byte	.LASF15
 769 00b2 04       		.byte	0x4
 770 00b3 42       		.byte	0x42
 771 00b4 6C000000 		.4byte	0x6c
 772 00b8 04       		.uleb128 0x4
 773 00b9 26000000 		.4byte	.LASF16
 774 00bd 04       		.byte	0x4
 775 00be 4E       		.byte	0x4e
 776 00bf 85000000 		.4byte	0x85
 777 00c3 04       		.uleb128 0x4
 778 00c4 58060000 		.4byte	.LASF17
 779 00c8 05       		.byte	0x5
 780 00c9 39       		.byte	0x39
 781 00ca AD000000 		.4byte	0xad
 782 00ce 04       		.uleb128 0x4
 783 00cf F9000000 		.4byte	.LASF18
ARM GAS  /tmp/ccBrbIdT.s 			page 34


 784 00d3 05       		.byte	0x5
 785 00d4 3A       		.byte	0x3a
 786 00d5 B8000000 		.4byte	0xb8
 787 00d9 04       		.uleb128 0x4
 788 00da 51010000 		.4byte	.LASF19
 789 00de 05       		.byte	0x5
 790 00df 3C       		.byte	0x3c
 791 00e0 97000000 		.4byte	0x97
 792 00e4 04       		.uleb128 0x4
 793 00e5 59010000 		.4byte	.LASF20
 794 00e9 05       		.byte	0x5
 795 00ea 3D       		.byte	0x3d
 796 00eb 97000000 		.4byte	0x97
 797 00ef 04       		.uleb128 0x4
 798 00f0 BF040000 		.4byte	.LASF21
 799 00f4 05       		.byte	0x5
 800 00f5 3E       		.byte	0x3e
 801 00f6 97000000 		.4byte	0x97
 802 00fa 04       		.uleb128 0x4
 803 00fb E8040000 		.4byte	.LASF22
 804 00ff 05       		.byte	0x5
 805 0100 40       		.byte	0x40
 806 0101 AD000000 		.4byte	0xad
 807 0105 04       		.uleb128 0x4
 808 0106 9A020000 		.4byte	.LASF23
 809 010a 05       		.byte	0x5
 810 010b 41       		.byte	0x41
 811 010c A2000000 		.4byte	0xa2
 812 0110 04       		.uleb128 0x4
 813 0111 D2030000 		.4byte	.LASF24
 814 0115 05       		.byte	0x5
 815 0116 43       		.byte	0x43
 816 0117 AD000000 		.4byte	0xad
 817 011b 04       		.uleb128 0x4
 818 011c 30020000 		.4byte	.LASF25
 819 0120 05       		.byte	0x5
 820 0121 45       		.byte	0x45
 821 0122 A2000000 		.4byte	0xa2
 822 0126 04       		.uleb128 0x4
 823 0127 E9020000 		.4byte	.LASF26
 824 012b 05       		.byte	0x5
 825 012c 46       		.byte	0x46
 826 012d AD000000 		.4byte	0xad
 827 0131 04       		.uleb128 0x4
 828 0132 03060000 		.4byte	.LASF27
 829 0136 06       		.byte	0x6
 830 0137 33       		.byte	0x33
 831 0138 AD000000 		.4byte	0xad
 832 013c 04       		.uleb128 0x4
 833 013d EE050000 		.4byte	.LASF28
 834 0141 06       		.byte	0x6
 835 0142 3F       		.byte	0x3f
 836 0143 47010000 		.4byte	0x147
 837 0147 05       		.uleb128 0x5
 838 0148 88020000 		.4byte	.LASF50
 839 014c 60       		.byte	0x60
 840 014d 07       		.byte	0x7
ARM GAS  /tmp/ccBrbIdT.s 			page 35


 841 014e C2       		.byte	0xc2
 842 014f 4D020000 		.4byte	0x24d
 843 0153 06       		.uleb128 0x6
 844 0154 3F050000 		.4byte	.LASF29
 845 0158 07       		.byte	0x7
 846 0159 C3       		.byte	0xc3
 847 015a 58020000 		.4byte	0x258
 848 015e 00       		.byte	0
 849 015f 06       		.uleb128 0x6
 850 0160 E1040000 		.4byte	.LASF30
 851 0164 07       		.byte	0x7
 852 0165 C5       		.byte	0xc5
 853 0166 58020000 		.4byte	0x258
 854 016a 04       		.byte	0x4
 855 016b 06       		.uleb128 0x6
 856 016c 02010000 		.4byte	.LASF31
 857 0170 07       		.byte	0x7
 858 0171 C7       		.byte	0xc7
 859 0172 FA000000 		.4byte	0xfa
 860 0176 08       		.byte	0x8
 861 0177 06       		.uleb128 0x6
 862 0178 25070000 		.4byte	.LASF32
 863 017c 07       		.byte	0x7
 864 017d C8       		.byte	0xc8
 865 017e E6040000 		.4byte	0x4e6
 866 0182 0C       		.byte	0xc
 867 0183 06       		.uleb128 0x6
 868 0184 7B010000 		.4byte	.LASF33
 869 0188 07       		.byte	0x7
 870 0189 CA       		.byte	0xca
 871 018a 58020000 		.4byte	0x258
 872 018e 10       		.byte	0x10
 873 018f 06       		.uleb128 0x6
 874 0190 5E040000 		.4byte	.LASF34
 875 0194 07       		.byte	0x7
 876 0195 CB       		.byte	0xcb
 877 0196 58020000 		.4byte	0x258
 878 019a 14       		.byte	0x14
 879 019b 06       		.uleb128 0x6
 880 019c C4060000 		.4byte	.LASF35
 881 01a0 07       		.byte	0x7
 882 01a1 D2       		.byte	0xd2
 883 01a2 AC080000 		.4byte	0x8ac
 884 01a6 18       		.byte	0x18
 885 01a7 06       		.uleb128 0x6
 886 01a8 36020000 		.4byte	.LASF36
 887 01ac 07       		.byte	0x7
 888 01ad D8       		.byte	0xd8
 889 01ae BE080000 		.4byte	0x8be
 890 01b2 1C       		.byte	0x1c
 891 01b3 06       		.uleb128 0x6
 892 01b4 29050000 		.4byte	.LASF37
 893 01b8 07       		.byte	0x7
 894 01b9 DD       		.byte	0xdd
 895 01ba E4000000 		.4byte	0xe4
 896 01be 20       		.byte	0x20
 897 01bf 06       		.uleb128 0x6
ARM GAS  /tmp/ccBrbIdT.s 			page 36


 898 01c0 EF060000 		.4byte	.LASF38
 899 01c4 07       		.byte	0x7
 900 01c5 E1       		.byte	0xe1
 901 01c6 D9000000 		.4byte	0xd9
 902 01ca 21       		.byte	0x21
 903 01cb 06       		.uleb128 0x6
 904 01cc 92060000 		.4byte	.LASF39
 905 01d0 07       		.byte	0x7
 906 01d1 E6       		.byte	0xe6
 907 01d2 EF000000 		.4byte	0xef
 908 01d6 22       		.byte	0x22
 909 01d7 07       		.uleb128 0x7
 910 01d8 705F7500 		.ascii	"p_u\000"
 911 01dc 07       		.byte	0x7
 912 01dd 3101     		.2byte	0x131
 913 01df E7070000 		.4byte	0x7e7
 914 01e3 24       		.byte	0x24
 915 01e4 08       		.uleb128 0x8
 916 01e5 06040000 		.4byte	.LASF40
 917 01e9 07       		.byte	0x7
 918 01ea 3601     		.2byte	0x136
 919 01ec 5E020000 		.4byte	0x25e
 920 01f0 28       		.byte	0x28
 921 01f1 08       		.uleb128 0x8
 922 01f2 5D020000 		.4byte	.LASF41
 923 01f6 07       		.byte	0x7
 924 01f7 3C01     		.2byte	0x13c
 925 01f9 82020000 		.4byte	0x282
 926 01fd 2C       		.byte	0x2c
 927 01fe 08       		.uleb128 0x8
 928 01ff 52060000 		.4byte	.LASF42
 929 0203 07       		.byte	0x7
 930 0204 4001     		.2byte	0x140
 931 0206 05010000 		.4byte	0x105
 932 020a 34       		.byte	0x34
 933 020b 08       		.uleb128 0x8
 934 020c 8A050000 		.4byte	.LASF43
 935 0210 07       		.byte	0x7
 936 0211 4601     		.2byte	0x146
 937 0213 10010000 		.4byte	0x110
 938 0217 38       		.byte	0x38
 939 0218 08       		.uleb128 0x8
 940 0219 15050000 		.4byte	.LASF44
 941 021d 07       		.byte	0x7
 942 021e 4D01     		.2byte	0x14d
 943 0220 A6080000 		.4byte	0x8a6
 944 0224 3C       		.byte	0x3c
 945 0225 08       		.uleb128 0x8
 946 0226 0D060000 		.4byte	.LASF45
 947 022a 07       		.byte	0x7
 948 022b 5101     		.2byte	0x151
 949 022d FA000000 		.4byte	0xfa
 950 0231 40       		.byte	0x40
 951 0232 08       		.uleb128 0x8
 952 0233 92020000 		.4byte	.LASF46
 953 0237 07       		.byte	0x7
 954 0238 5801     		.2byte	0x158
ARM GAS  /tmp/ccBrbIdT.s 			page 37


 955 023a 35030000 		.4byte	0x335
 956 023e 44       		.byte	0x44
 957 023f 08       		.uleb128 0x8
 958 0240 4E050000 		.4byte	.LASF47
 959 0244 07       		.byte	0x7
 960 0245 5E01     		.2byte	0x15e
 961 0247 98070000 		.4byte	0x798
 962 024b 48       		.byte	0x48
 963 024c 00       		.byte	0
 964 024d 04       		.uleb128 0x4
 965 024e 19040000 		.4byte	.LASF48
 966 0252 06       		.byte	0x6
 967 0253 44       		.byte	0x44
 968 0254 58020000 		.4byte	0x258
 969 0258 09       		.uleb128 0x9
 970 0259 04       		.byte	0x4
 971 025a 3C010000 		.4byte	0x13c
 972 025e 04       		.uleb128 0x4
 973 025f CB060000 		.4byte	.LASF49
 974 0263 06       		.byte	0x6
 975 0264 49       		.byte	0x49
 976 0265 69020000 		.4byte	0x269
 977 0269 05       		.uleb128 0x5
 978 026a B6050000 		.4byte	.LASF51
 979 026e 04       		.byte	0x4
 980 026f 07       		.byte	0x7
 981 0270 B0       		.byte	0xb0
 982 0271 82020000 		.4byte	0x282
 983 0275 06       		.uleb128 0x6
 984 0276 3F050000 		.4byte	.LASF29
 985 027a 07       		.byte	0x7
 986 027b B1       		.byte	0xb1
 987 027c 58020000 		.4byte	0x258
 988 0280 00       		.byte	0
 989 0281 00       		.byte	0
 990 0282 04       		.uleb128 0x4
 991 0283 79060000 		.4byte	.LASF52
 992 0287 06       		.byte	0x6
 993 0288 50       		.byte	0x50
 994 0289 8D020000 		.4byte	0x28d
 995 028d 05       		.uleb128 0x5
 996 028e 52000000 		.4byte	.LASF53
 997 0292 08       		.byte	0x8
 998 0293 07       		.byte	0x7
 999 0294 B7       		.byte	0xb7
 1000 0295 B2020000 		.4byte	0x2b2
 1001 0299 06       		.uleb128 0x6
 1002 029a 3F050000 		.4byte	.LASF29
 1003 029e 07       		.byte	0x7
 1004 029f B8       		.byte	0xb8
 1005 02a0 58020000 		.4byte	0x258
 1006 02a4 00       		.byte	0
 1007 02a5 06       		.uleb128 0x6
 1008 02a6 E1040000 		.4byte	.LASF30
 1009 02aa 07       		.byte	0x7
 1010 02ab B9       		.byte	0xb9
 1011 02ac 58020000 		.4byte	0x258
ARM GAS  /tmp/ccBrbIdT.s 			page 38


 1012 02b0 04       		.byte	0x4
 1013 02b1 00       		.byte	0
 1014 02b2 04       		.uleb128 0x4
 1015 02b3 07000000 		.4byte	.LASF54
 1016 02b7 06       		.byte	0x6
 1017 02b8 57       		.byte	0x57
 1018 02b9 BD020000 		.4byte	0x2bd
 1019 02bd 0A       		.uleb128 0xa
 1020 02be C4030000 		.4byte	.LASF55
 1021 02c2 1C       		.byte	0x1c
 1022 02c3 07       		.byte	0x7
 1023 02c4 9001     		.2byte	0x190
 1024 02c6 19030000 		.4byte	0x319
 1025 02ca 08       		.uleb128 0x8
 1026 02cb A5050000 		.4byte	.LASF56
 1027 02cf 07       		.byte	0x7
 1028 02d0 9101     		.2byte	0x191
 1029 02d2 82020000 		.4byte	0x282
 1030 02d6 00       		.byte	0
 1031 02d7 08       		.uleb128 0x8
 1032 02d8 31050000 		.4byte	.LASF57
 1033 02dc 07       		.byte	0x7
 1034 02dd 9201     		.2byte	0x192
 1035 02df FA000000 		.4byte	0xfa
 1036 02e3 08       		.byte	0x8
 1037 02e4 08       		.uleb128 0x8
 1038 02e5 6D040000 		.4byte	.LASF58
 1039 02e9 07       		.byte	0x7
 1040 02ea 9401     		.2byte	0x194
 1041 02ec E6040000 		.4byte	0x4e6
 1042 02f0 0C       		.byte	0xc
 1043 02f1 08       		.uleb128 0x8
 1044 02f2 BD010000 		.4byte	.LASF59
 1045 02f6 07       		.byte	0x7
 1046 02f7 9701     		.2byte	0x197
 1047 02f9 58020000 		.4byte	0x258
 1048 02fd 10       		.byte	0x10
 1049 02fe 08       		.uleb128 0x8
 1050 02ff A1040000 		.4byte	.LASF60
 1051 0303 07       		.byte	0x7
 1052 0304 9801     		.2byte	0x198
 1053 0306 58020000 		.4byte	0x258
 1054 030a 14       		.byte	0x14
 1055 030b 08       		.uleb128 0x8
 1056 030c 97040000 		.4byte	.LASF61
 1057 0310 07       		.byte	0x7
 1058 0311 9B01     		.2byte	0x19b
 1059 0313 58020000 		.4byte	0x258
 1060 0317 18       		.byte	0x18
 1061 0318 00       		.byte	0
 1062 0319 04       		.uleb128 0x4
 1063 031a 18060000 		.4byte	.LASF62
 1064 031e 06       		.byte	0x6
 1065 031f 5C       		.byte	0x5c
 1066 0320 24030000 		.4byte	0x324
 1067 0324 09       		.uleb128 0x9
 1068 0325 04       		.byte	0x4
ARM GAS  /tmp/ccBrbIdT.s 			page 39


 1069 0326 2A030000 		.4byte	0x32a
 1070 032a 0B       		.uleb128 0xb
 1071 032b 35030000 		.4byte	0x335
 1072 032f 0C       		.uleb128 0xc
 1073 0330 35030000 		.4byte	0x335
 1074 0334 00       		.byte	0
 1075 0335 0D       		.uleb128 0xd
 1076 0336 04       		.byte	0x4
 1077 0337 04       		.uleb128 0x4
 1078 0338 D1040000 		.4byte	.LASF63
 1079 033c 06       		.byte	0x6
 1080 033d 61       		.byte	0x61
 1081 033e 42030000 		.4byte	0x342
 1082 0342 0A       		.uleb128 0xa
 1083 0343 56050000 		.4byte	.LASF64
 1084 0347 14       		.byte	0x14
 1085 0348 07       		.byte	0x7
 1086 0349 6B01     		.2byte	0x16b
 1087 034b 91030000 		.4byte	0x391
 1088 034f 08       		.uleb128 0x8
 1089 0350 4E020000 		.4byte	.LASF65
 1090 0354 07       		.byte	0x7
 1091 0355 6C01     		.2byte	0x16c
 1092 0357 C4080000 		.4byte	0x8c4
 1093 035b 00       		.byte	0
 1094 035c 08       		.uleb128 0x8
 1095 035d 08020000 		.4byte	.LASF66
 1096 0361 07       		.byte	0x7
 1097 0362 6D01     		.2byte	0x16d
 1098 0364 C4080000 		.4byte	0x8c4
 1099 0368 04       		.byte	0x4
 1100 0369 08       		.uleb128 0x8
 1101 036a AD050000 		.4byte	.LASF67
 1102 036e 07       		.byte	0x7
 1103 036f 6E01     		.2byte	0x16e
 1104 0371 31010000 		.4byte	0x131
 1105 0375 08       		.byte	0x8
 1106 0376 08       		.uleb128 0x8
 1107 0377 2B070000 		.4byte	.LASF68
 1108 037b 07       		.byte	0x7
 1109 037c 6F01     		.2byte	0x16f
 1110 037e 19030000 		.4byte	0x319
 1111 0382 0C       		.byte	0xc
 1112 0383 08       		.uleb128 0x8
 1113 0384 72060000 		.4byte	.LASF69
 1114 0388 07       		.byte	0x7
 1115 0389 7101     		.2byte	0x171
 1116 038b 35030000 		.4byte	0x335
 1117 038f 10       		.byte	0x10
 1118 0390 00       		.byte	0
 1119 0391 04       		.uleb128 0x4
 1120 0392 D1000000 		.4byte	.LASF70
 1121 0396 06       		.byte	0x6
 1122 0397 66       		.byte	0x66
 1123 0398 9C030000 		.4byte	0x39c
 1124 039c 0A       		.uleb128 0xa
 1125 039d 2C040000 		.4byte	.LASF71
ARM GAS  /tmp/ccBrbIdT.s 			page 40


 1126 03a1 10       		.byte	0x10
 1127 03a2 07       		.byte	0x7
 1128 03a3 7B01     		.2byte	0x17b
 1129 03a5 DE030000 		.4byte	0x3de
 1130 03a9 08       		.uleb128 0x8
 1131 03aa 4E020000 		.4byte	.LASF65
 1132 03ae 07       		.byte	0x7
 1133 03af 7C01     		.2byte	0x17c
 1134 03b1 C4080000 		.4byte	0x8c4
 1135 03b5 00       		.byte	0
 1136 03b6 08       		.uleb128 0x8
 1137 03b7 08020000 		.4byte	.LASF66
 1138 03bb 07       		.byte	0x7
 1139 03bc 7E01     		.2byte	0x17e
 1140 03be C4080000 		.4byte	0x8c4
 1141 03c2 04       		.byte	0x4
 1142 03c3 08       		.uleb128 0x8
 1143 03c4 AD050000 		.4byte	.LASF67
 1144 03c8 07       		.byte	0x7
 1145 03c9 8001     		.2byte	0x180
 1146 03cb 31010000 		.4byte	0x131
 1147 03cf 08       		.byte	0x8
 1148 03d0 08       		.uleb128 0x8
 1149 03d1 52040000 		.4byte	.LASF72
 1150 03d5 07       		.byte	0x7
 1151 03d6 8801     		.2byte	0x188
 1152 03d8 31010000 		.4byte	0x131
 1153 03dc 0C       		.byte	0xc
 1154 03dd 00       		.byte	0
 1155 03de 04       		.uleb128 0x4
 1156 03df 63000000 		.4byte	.LASF73
 1157 03e3 06       		.byte	0x6
 1158 03e4 6B       		.byte	0x6b
 1159 03e5 E9030000 		.4byte	0x3e9
 1160 03e9 0E       		.uleb128 0xe
 1161 03ea F8010000 		.4byte	.LASF74
 1162 03ee 1404     		.2byte	0x414
 1163 03f0 07       		.byte	0x7
 1164 03f1 A201     		.2byte	0x1a2
 1165 03f3 2C040000 		.4byte	0x42c
 1166 03f7 08       		.uleb128 0x8
 1167 03f8 2C060000 		.4byte	.LASF75
 1168 03fc 07       		.byte	0x7
 1169 03fd AA01     		.2byte	0x1aa
 1170 03ff CA080000 		.4byte	0x8ca
 1171 0403 00       		.byte	0
 1172 0404 08       		.uleb128 0x8
 1173 0405 99060000 		.4byte	.LASF76
 1174 0409 07       		.byte	0x7
 1175 040a AF01     		.2byte	0x1af
 1176 040c 1B010000 		.4byte	0x11b
 1177 0410 04       		.byte	0x4
 1178 0411 08       		.uleb128 0x8
 1179 0412 18020000 		.4byte	.LASF77
 1180 0416 07       		.byte	0x7
 1181 0417 B301     		.2byte	0x1b3
 1182 0419 1B010000 		.4byte	0x11b
ARM GAS  /tmp/ccBrbIdT.s 			page 41


 1183 041d 08       		.byte	0x8
 1184 041e 08       		.uleb128 0x8
 1185 041f E2060000 		.4byte	.LASF78
 1186 0423 07       		.byte	0x7
 1187 0424 B901     		.2byte	0x1b9
 1188 0426 2A070000 		.4byte	0x72a
 1189 042a 0C       		.byte	0xc
 1190 042b 00       		.byte	0
 1191 042c 04       		.uleb128 0x4
 1192 042d F0020000 		.4byte	.LASF79
 1193 0431 06       		.byte	0x6
 1194 0432 70       		.byte	0x70
 1195 0433 37040000 		.4byte	0x437
 1196 0437 0E       		.uleb128 0xe
 1197 0438 3E010000 		.4byte	.LASF80
 1198 043c D805     		.2byte	0x5d8
 1199 043e 07       		.byte	0x7
 1200 043f C201     		.2byte	0x1c2
 1201 0441 A4040000 		.4byte	0x4a4
 1202 0445 08       		.uleb128 0x8
 1203 0446 A1060000 		.4byte	.LASF81
 1204 044a 07       		.byte	0x7
 1205 044b C601     		.2byte	0x1c6
 1206 044d B2020000 		.4byte	0x2b2
 1207 0451 00       		.byte	0
 1208 0452 08       		.uleb128 0x8
 1209 0453 37010000 		.4byte	.LASF82
 1210 0457 07       		.byte	0x7
 1211 0458 CA01     		.2byte	0x1ca
 1212 045a 91030000 		.4byte	0x391
 1213 045e 1C       		.byte	0x1c
 1214 045f 07       		.uleb128 0x7
 1215 0460 64626700 		.ascii	"dbg\000"
 1216 0464 07       		.byte	0x7
 1217 0465 CE01     		.2byte	0x1ce
 1218 0467 DE030000 		.4byte	0x3de
 1219 046b 2C       		.byte	0x2c
 1220 046c 0F       		.uleb128 0xf
 1221 046d C6000000 		.4byte	.LASF83
 1222 0471 07       		.byte	0x7
 1223 0472 D201     		.2byte	0x1d2
 1224 0474 3C010000 		.4byte	0x13c
 1225 0478 4004     		.2byte	0x440
 1226 047a 10       		.uleb128 0x10
 1227 047b 746D00   		.ascii	"tm\000"
 1228 047e 07       		.byte	0x7
 1229 047f D701     		.2byte	0x1d7
 1230 0481 4A070000 		.4byte	0x74a
 1231 0485 A004     		.2byte	0x4a0
 1232 0487 0F       		.uleb128 0xf
 1233 0488 2F000000 		.4byte	.LASF84
 1234 048c 07       		.byte	0x7
 1235 048d DD01     		.2byte	0x1dd
 1236 048f DC070000 		.4byte	0x7dc
 1237 0493 A804     		.2byte	0x4a8
 1238 0495 0F       		.uleb128 0xf
 1239 0496 21020000 		.4byte	.LASF85
ARM GAS  /tmp/ccBrbIdT.s 			page 42


 1240 049a 07       		.byte	0x7
 1241 049b E301     		.2byte	0x1e3
 1242 049d CF080000 		.4byte	0x8cf
 1243 04a1 E004     		.2byte	0x4e0
 1244 04a3 00       		.byte	0
 1245 04a4 03       		.uleb128 0x3
 1246 04a5 04       		.byte	0x4
 1247 04a6 07       		.byte	0x7
 1248 04a7 10040000 		.4byte	.LASF86
 1249 04ab 11       		.uleb128 0x11
 1250 04ac AD000000 		.4byte	0xad
 1251 04b0 12       		.uleb128 0x12
 1252 04b1 AD000000 		.4byte	0xad
 1253 04b5 C0040000 		.4byte	0x4c0
 1254 04b9 13       		.uleb128 0x13
 1255 04ba A4040000 		.4byte	0x4a4
 1256 04be 01       		.byte	0x1
 1257 04bf 00       		.byte	0
 1258 04c0 12       		.uleb128 0x12
 1259 04c1 AD000000 		.4byte	0xad
 1260 04c5 D0040000 		.4byte	0x4d0
 1261 04c9 13       		.uleb128 0x13
 1262 04ca A4040000 		.4byte	0x4a4
 1263 04ce 03       		.byte	0x3
 1264 04cf 00       		.byte	0
 1265 04d0 04       		.uleb128 0x4
 1266 04d1 D3010000 		.4byte	.LASF87
 1267 04d5 08       		.byte	0x8
 1268 04d6 65       		.byte	0x65
 1269 04d7 35030000 		.4byte	0x335
 1270 04db 04       		.uleb128 0x4
 1271 04dc FB030000 		.4byte	.LASF88
 1272 04e0 08       		.byte	0x8
 1273 04e1 6D       		.byte	0x6d
 1274 04e2 B8000000 		.4byte	0xb8
 1275 04e6 05       		.uleb128 0x5
 1276 04e7 4A060000 		.4byte	.LASF89
 1277 04eb 04       		.byte	0x4
 1278 04ec 08       		.byte	0x8
 1279 04ed 89       		.byte	0x89
 1280 04ee FF040000 		.4byte	0x4ff
 1281 04f2 14       		.uleb128 0x14
 1282 04f3 72313300 		.ascii	"r13\000"
 1283 04f7 08       		.byte	0x8
 1284 04f8 8A       		.byte	0x8a
 1285 04f9 7A050000 		.4byte	0x57a
 1286 04fd 00       		.byte	0
 1287 04fe 00       		.byte	0
 1288 04ff 05       		.uleb128 0x5
 1289 0500 46000000 		.4byte	.LASF90
 1290 0504 24       		.byte	0x24
 1291 0505 09       		.byte	0x9
 1292 0506 FD       		.byte	0xfd
 1293 0507 7A050000 		.4byte	0x57a
 1294 050b 07       		.uleb128 0x7
 1295 050c 723400   		.ascii	"r4\000"
 1296 050f 09       		.byte	0x9
ARM GAS  /tmp/ccBrbIdT.s 			page 43


 1297 0510 1001     		.2byte	0x110
 1298 0512 D0040000 		.4byte	0x4d0
 1299 0516 00       		.byte	0
 1300 0517 07       		.uleb128 0x7
 1301 0518 723500   		.ascii	"r5\000"
 1302 051b 09       		.byte	0x9
 1303 051c 1101     		.2byte	0x111
 1304 051e D0040000 		.4byte	0x4d0
 1305 0522 04       		.byte	0x4
 1306 0523 07       		.uleb128 0x7
 1307 0524 723600   		.ascii	"r6\000"
 1308 0527 09       		.byte	0x9
 1309 0528 1201     		.2byte	0x112
 1310 052a D0040000 		.4byte	0x4d0
 1311 052e 08       		.byte	0x8
 1312 052f 07       		.uleb128 0x7
 1313 0530 723700   		.ascii	"r7\000"
 1314 0533 09       		.byte	0x9
 1315 0534 1301     		.2byte	0x113
 1316 0536 D0040000 		.4byte	0x4d0
 1317 053a 0C       		.byte	0xc
 1318 053b 07       		.uleb128 0x7
 1319 053c 723800   		.ascii	"r8\000"
 1320 053f 09       		.byte	0x9
 1321 0540 1401     		.2byte	0x114
 1322 0542 D0040000 		.4byte	0x4d0
 1323 0546 10       		.byte	0x10
 1324 0547 07       		.uleb128 0x7
 1325 0548 723900   		.ascii	"r9\000"
 1326 054b 09       		.byte	0x9
 1327 054c 1501     		.2byte	0x115
 1328 054e D0040000 		.4byte	0x4d0
 1329 0552 14       		.byte	0x14
 1330 0553 07       		.uleb128 0x7
 1331 0554 72313000 		.ascii	"r10\000"
 1332 0558 09       		.byte	0x9
 1333 0559 1601     		.2byte	0x116
 1334 055b D0040000 		.4byte	0x4d0
 1335 055f 18       		.byte	0x18
 1336 0560 07       		.uleb128 0x7
 1337 0561 72313100 		.ascii	"r11\000"
 1338 0565 09       		.byte	0x9
 1339 0566 1701     		.2byte	0x117
 1340 0568 D0040000 		.4byte	0x4d0
 1341 056c 1C       		.byte	0x1c
 1342 056d 07       		.uleb128 0x7
 1343 056e 6C7200   		.ascii	"lr\000"
 1344 0571 09       		.byte	0x9
 1345 0572 1801     		.2byte	0x118
 1346 0574 D0040000 		.4byte	0x4d0
 1347 0578 20       		.byte	0x20
 1348 0579 00       		.byte	0
 1349 057a 09       		.uleb128 0x9
 1350 057b 04       		.byte	0x4
 1351 057c FF040000 		.4byte	0x4ff
 1352 0580 15       		.uleb128 0x15
 1353 0581 60       		.byte	0x60
ARM GAS  /tmp/ccBrbIdT.s 			page 44


 1354 0582 0A       		.byte	0xa
 1355 0583 A101     		.2byte	0x1a1
 1356 0585 8C060000 		.4byte	0x68c
 1357 0589 07       		.uleb128 0x7
 1358 058a 43523100 		.ascii	"CR1\000"
 1359 058e 0A       		.byte	0xa
 1360 058f A201     		.2byte	0x1a2
 1361 0591 AB040000 		.4byte	0x4ab
 1362 0595 00       		.byte	0
 1363 0596 07       		.uleb128 0x7
 1364 0597 43523200 		.ascii	"CR2\000"
 1365 059b 0A       		.byte	0xa
 1366 059c A301     		.2byte	0x1a3
 1367 059e AB040000 		.4byte	0x4ab
 1368 05a2 04       		.byte	0x4
 1369 05a3 08       		.uleb128 0x8
 1370 05a4 74020000 		.4byte	.LASF91
 1371 05a8 0A       		.byte	0xa
 1372 05a9 A401     		.2byte	0x1a4
 1373 05ab AB040000 		.4byte	0x4ab
 1374 05af 08       		.byte	0x8
 1375 05b0 08       		.uleb128 0x8
 1376 05b1 14000000 		.4byte	.LASF92
 1377 05b5 0A       		.byte	0xa
 1378 05b6 A501     		.2byte	0x1a5
 1379 05b8 AB040000 		.4byte	0x4ab
 1380 05bc 0C       		.byte	0xc
 1381 05bd 07       		.uleb128 0x7
 1382 05be 535200   		.ascii	"SR\000"
 1383 05c1 0A       		.byte	0xa
 1384 05c2 A601     		.2byte	0x1a6
 1385 05c4 AB040000 		.4byte	0x4ab
 1386 05c8 10       		.byte	0x10
 1387 05c9 07       		.uleb128 0x7
 1388 05ca 45475200 		.ascii	"EGR\000"
 1389 05ce 0A       		.byte	0xa
 1390 05cf A701     		.2byte	0x1a7
 1391 05d1 AB040000 		.4byte	0x4ab
 1392 05d5 14       		.byte	0x14
 1393 05d6 08       		.uleb128 0x8
 1394 05d7 09010000 		.4byte	.LASF93
 1395 05db 0A       		.byte	0xa
 1396 05dc A801     		.2byte	0x1a8
 1397 05de AB040000 		.4byte	0x4ab
 1398 05e2 18       		.byte	0x18
 1399 05e3 08       		.uleb128 0x8
 1400 05e4 0F010000 		.4byte	.LASF94
 1401 05e8 0A       		.byte	0xa
 1402 05e9 A901     		.2byte	0x1a9
 1403 05eb AB040000 		.4byte	0x4ab
 1404 05ef 1C       		.byte	0x1c
 1405 05f0 08       		.uleb128 0x8
 1406 05f1 62010000 		.4byte	.LASF95
 1407 05f5 0A       		.byte	0xa
 1408 05f6 AA01     		.2byte	0x1aa
 1409 05f8 AB040000 		.4byte	0x4ab
 1410 05fc 20       		.byte	0x20
ARM GAS  /tmp/ccBrbIdT.s 			page 45


 1411 05fd 07       		.uleb128 0x7
 1412 05fe 434E5400 		.ascii	"CNT\000"
 1413 0602 0A       		.byte	0xa
 1414 0603 AB01     		.2byte	0x1ab
 1415 0605 AB040000 		.4byte	0x4ab
 1416 0609 24       		.byte	0x24
 1417 060a 07       		.uleb128 0x7
 1418 060b 50534300 		.ascii	"PSC\000"
 1419 060f 0A       		.byte	0xa
 1420 0610 AC01     		.2byte	0x1ac
 1421 0612 AB040000 		.4byte	0x4ab
 1422 0616 28       		.byte	0x28
 1423 0617 07       		.uleb128 0x7
 1424 0618 41525200 		.ascii	"ARR\000"
 1425 061c 0A       		.byte	0xa
 1426 061d AD01     		.2byte	0x1ad
 1427 061f AB040000 		.4byte	0x4ab
 1428 0623 2C       		.byte	0x2c
 1429 0624 07       		.uleb128 0x7
 1430 0625 52435200 		.ascii	"RCR\000"
 1431 0629 0A       		.byte	0xa
 1432 062a AE01     		.2byte	0x1ae
 1433 062c AB040000 		.4byte	0x4ab
 1434 0630 30       		.byte	0x30
 1435 0631 07       		.uleb128 0x7
 1436 0632 43435200 		.ascii	"CCR\000"
 1437 0636 0A       		.byte	0xa
 1438 0637 AF01     		.2byte	0x1af
 1439 0639 8C060000 		.4byte	0x68c
 1440 063d 34       		.byte	0x34
 1441 063e 08       		.uleb128 0x8
 1442 063f F4000000 		.4byte	.LASF96
 1443 0643 0A       		.byte	0xa
 1444 0644 B001     		.2byte	0x1b0
 1445 0646 AB040000 		.4byte	0x4ab
 1446 064a 44       		.byte	0x44
 1447 064b 07       		.uleb128 0x7
 1448 064c 44435200 		.ascii	"DCR\000"
 1449 0650 0A       		.byte	0xa
 1450 0651 B101     		.2byte	0x1b1
 1451 0653 AB040000 		.4byte	0x4ab
 1452 0657 48       		.byte	0x48
 1453 0658 08       		.uleb128 0x8
 1454 0659 E9050000 		.4byte	.LASF97
 1455 065d 0A       		.byte	0xa
 1456 065e B201     		.2byte	0x1b2
 1457 0660 AB040000 		.4byte	0x4ab
 1458 0664 4C       		.byte	0x4c
 1459 0665 07       		.uleb128 0x7
 1460 0666 4F5200   		.ascii	"OR\000"
 1461 0669 0A       		.byte	0xa
 1462 066a B301     		.2byte	0x1b3
 1463 066c AB040000 		.4byte	0x4ab
 1464 0670 50       		.byte	0x50
 1465 0671 08       		.uleb128 0x8
 1466 0672 15010000 		.4byte	.LASF98
 1467 0676 0A       		.byte	0xa
ARM GAS  /tmp/ccBrbIdT.s 			page 46


 1468 0677 B401     		.2byte	0x1b4
 1469 0679 AB040000 		.4byte	0x4ab
 1470 067d 54       		.byte	0x54
 1471 067e 08       		.uleb128 0x8
 1472 067f 85050000 		.4byte	.LASF99
 1473 0683 0A       		.byte	0xa
 1474 0684 B501     		.2byte	0x1b5
 1475 0686 91060000 		.4byte	0x691
 1476 068a 58       		.byte	0x58
 1477 068b 00       		.byte	0
 1478 068c 11       		.uleb128 0x11
 1479 068d C0040000 		.4byte	0x4c0
 1480 0691 11       		.uleb128 0x11
 1481 0692 B0040000 		.4byte	0x4b0
 1482 0696 16       		.uleb128 0x16
 1483 0697 AD030000 		.4byte	.LASF100
 1484 069b 0A       		.byte	0xa
 1485 069c B601     		.2byte	0x1b6
 1486 069e 80050000 		.4byte	0x580
 1487 06a2 17       		.uleb128 0x17
 1488 06a3 10       		.byte	0x10
 1489 06a4 0B       		.byte	0xb
 1490 06a5 51       		.byte	0x51
 1491 06a6 DB060000 		.4byte	0x6db
 1492 06aa 06       		.uleb128 0x6
 1493 06ab 27010000 		.4byte	.LASF101
 1494 06af 0B       		.byte	0xb
 1495 06b0 55       		.byte	0x55
 1496 06b1 31010000 		.4byte	0x131
 1497 06b5 00       		.byte	0
 1498 06b6 06       		.uleb128 0x6
 1499 06b7 67010000 		.4byte	.LASF102
 1500 06bb 0B       		.byte	0xb
 1501 06bc 59       		.byte	0x59
 1502 06bd 58020000 		.4byte	0x258
 1503 06c1 04       		.byte	0x4
 1504 06c2 06       		.uleb128 0x6
 1505 06c3 1B070000 		.4byte	.LASF103
 1506 06c7 0B       		.byte	0xb
 1507 06c8 5D       		.byte	0x5d
 1508 06c9 35030000 		.4byte	0x335
 1509 06cd 08       		.byte	0x8
 1510 06ce 06       		.uleb128 0x6
 1511 06cf B4000000 		.4byte	.LASF104
 1512 06d3 0B       		.byte	0xb
 1513 06d4 61       		.byte	0x61
 1514 06d5 97000000 		.4byte	0x97
 1515 06d9 0C       		.byte	0xc
 1516 06da 00       		.byte	0
 1517 06db 04       		.uleb128 0x4
 1518 06dc 43040000 		.4byte	.LASF105
 1519 06e0 0B       		.byte	0xb
 1520 06e1 62       		.byte	0x62
 1521 06e2 A2060000 		.4byte	0x6a2
 1522 06e6 18       		.uleb128 0x18
 1523 06e7 0804     		.2byte	0x408
 1524 06e9 0B       		.byte	0xb
ARM GAS  /tmp/ccBrbIdT.s 			page 47


 1525 06ea 67       		.byte	0x67
 1526 06eb 14070000 		.4byte	0x714
 1527 06ef 06       		.uleb128 0x6
 1528 06f0 B5010000 		.4byte	.LASF106
 1529 06f4 0B       		.byte	0xb
 1530 06f5 6B       		.byte	0x6b
 1531 06f6 2C000000 		.4byte	0x2c
 1532 06fa 00       		.byte	0
 1533 06fb 06       		.uleb128 0x6
 1534 06fc 00000000 		.4byte	.LASF107
 1535 0700 0B       		.byte	0xb
 1536 0701 6F       		.byte	0x6f
 1537 0702 14070000 		.4byte	0x714
 1538 0706 04       		.byte	0x4
 1539 0707 06       		.uleb128 0x6
 1540 0708 C7040000 		.4byte	.LASF108
 1541 070c 0B       		.byte	0xb
 1542 070d 73       		.byte	0x73
 1543 070e 1A070000 		.4byte	0x71a
 1544 0712 08       		.byte	0x8
 1545 0713 00       		.byte	0
 1546 0714 09       		.uleb128 0x9
 1547 0715 04       		.byte	0x4
 1548 0716 DB060000 		.4byte	0x6db
 1549 071a 12       		.uleb128 0x12
 1550 071b DB060000 		.4byte	0x6db
 1551 071f 2A070000 		.4byte	0x72a
 1552 0723 13       		.uleb128 0x13
 1553 0724 A4040000 		.4byte	0x4a4
 1554 0728 3F       		.byte	0x3f
 1555 0729 00       		.byte	0
 1556 072a 04       		.uleb128 0x4
 1557 072b A2000000 		.4byte	.LASF109
 1558 072f 0B       		.byte	0xb
 1559 0730 74       		.byte	0x74
 1560 0731 E6060000 		.4byte	0x6e6
 1561 0735 17       		.uleb128 0x17
 1562 0736 04       		.byte	0x4
 1563 0737 0C       		.byte	0xc
 1564 0738 38       		.byte	0x38
 1565 0739 4A070000 		.4byte	0x74a
 1566 073d 06       		.uleb128 0x6
 1567 073e 36060000 		.4byte	.LASF110
 1568 0742 0C       		.byte	0xc
 1569 0743 3C       		.byte	0x3c
 1570 0744 C3000000 		.4byte	0xc3
 1571 0748 00       		.byte	0
 1572 0749 00       		.byte	0
 1573 074a 04       		.uleb128 0x4
 1574 074b 81040000 		.4byte	.LASF111
 1575 074f 0C       		.byte	0xc
 1576 0750 3D       		.byte	0x3d
 1577 0751 35070000 		.4byte	0x735
 1578 0755 17       		.uleb128 0x17
 1579 0756 18       		.byte	0x18
 1580 0757 0C       		.byte	0xc
 1581 0758 48       		.byte	0x48
ARM GAS  /tmp/ccBrbIdT.s 			page 48


 1582 0759 98070000 		.4byte	0x798
 1583 075d 06       		.uleb128 0x6
 1584 075e F7050000 		.4byte	.LASF112
 1585 0762 0C       		.byte	0xc
 1586 0763 49       		.byte	0x49
 1587 0764 C3000000 		.4byte	0xc3
 1588 0768 00       		.byte	0
 1589 0769 06       		.uleb128 0x6
 1590 076a 72000000 		.4byte	.LASF113
 1591 076e 0C       		.byte	0xc
 1592 076f 4A       		.byte	0x4a
 1593 0770 C3000000 		.4byte	0xc3
 1594 0774 04       		.byte	0x4
 1595 0775 06       		.uleb128 0x6
 1596 0776 A0020000 		.4byte	.LASF114
 1597 077a 0C       		.byte	0xc
 1598 077b 4B       		.byte	0x4b
 1599 077c C3000000 		.4byte	0xc3
 1600 0780 08       		.byte	0x8
 1601 0781 14       		.uleb128 0x14
 1602 0782 6E00     		.ascii	"n\000"
 1603 0784 0C       		.byte	0xc
 1604 0785 4C       		.byte	0x4c
 1605 0786 26010000 		.4byte	0x126
 1606 078a 0C       		.byte	0xc
 1607 078b 06       		.uleb128 0x6
 1608 078c B4040000 		.4byte	.LASF115
 1609 0790 0C       		.byte	0xc
 1610 0791 4D       		.byte	0x4d
 1611 0792 CE000000 		.4byte	0xce
 1612 0796 10       		.byte	0x10
 1613 0797 00       		.byte	0
 1614 0798 04       		.uleb128 0x4
 1615 0799 78000000 		.4byte	.LASF116
 1616 079d 0C       		.byte	0xc
 1617 079e 4E       		.byte	0x4e
 1618 079f 55070000 		.4byte	0x755
 1619 07a3 17       		.uleb128 0x17
 1620 07a4 38       		.byte	0x38
 1621 07a5 0D       		.byte	0xd
 1622 07a6 38       		.byte	0x38
 1623 07a7 DC070000 		.4byte	0x7dc
 1624 07ab 06       		.uleb128 0x6
 1625 07ac 68020000 		.4byte	.LASF117
 1626 07b0 0D       		.byte	0xd
 1627 07b1 39       		.byte	0x39
 1628 07b2 26010000 		.4byte	0x126
 1629 07b6 00       		.byte	0
 1630 07b7 06       		.uleb128 0x6
 1631 07b8 F0040000 		.4byte	.LASF118
 1632 07bc 0D       		.byte	0xd
 1633 07bd 3A       		.byte	0x3a
 1634 07be 26010000 		.4byte	0x126
 1635 07c2 04       		.byte	0x4
 1636 07c3 06       		.uleb128 0x6
 1637 07c4 08070000 		.4byte	.LASF119
 1638 07c8 0D       		.byte	0xd
ARM GAS  /tmp/ccBrbIdT.s 			page 49


 1639 07c9 3B       		.byte	0x3b
 1640 07ca 98070000 		.4byte	0x798
 1641 07ce 08       		.byte	0x8
 1642 07cf 06       		.uleb128 0x6
 1643 07d0 B9030000 		.4byte	.LASF120
 1644 07d4 0D       		.byte	0xd
 1645 07d5 3D       		.byte	0x3d
 1646 07d6 98070000 		.4byte	0x798
 1647 07da 20       		.byte	0x20
 1648 07db 00       		.byte	0
 1649 07dc 04       		.uleb128 0x4
 1650 07dd 79020000 		.4byte	.LASF121
 1651 07e1 0D       		.byte	0xd
 1652 07e2 3F       		.byte	0x3f
 1653 07e3 A3070000 		.4byte	0x7a3
 1654 07e7 19       		.uleb128 0x19
 1655 07e8 04       		.byte	0x4
 1656 07e9 07       		.byte	0x7
 1657 07ea FA       		.byte	0xfa
 1658 07eb 44080000 		.4byte	0x844
 1659 07ef 1A       		.uleb128 0x1a
 1660 07f0 1F000000 		.4byte	.LASF122
 1661 07f4 07       		.byte	0x7
 1662 07f5 0101     		.2byte	0x101
 1663 07f7 05010000 		.4byte	0x105
 1664 07fb 1A       		.uleb128 0x1a
 1665 07fc BD000000 		.4byte	.LASF123
 1666 0800 07       		.byte	0x7
 1667 0801 0801     		.2byte	0x108
 1668 0803 05010000 		.4byte	0x105
 1669 0807 1A       		.uleb128 0x1a
 1670 0808 BD060000 		.4byte	.LASF124
 1671 080c 07       		.byte	0x7
 1672 080d 0F01     		.2byte	0x10f
 1673 080f 35030000 		.4byte	0x335
 1674 0813 1A       		.uleb128 0x1a
 1675 0814 19000000 		.4byte	.LASF125
 1676 0818 07       		.byte	0x7
 1677 0819 1601     		.2byte	0x116
 1678 081b 44080000 		.4byte	0x844
 1679 081f 1A       		.uleb128 0x1a
 1680 0820 56020000 		.4byte	.LASF126
 1681 0824 07       		.byte	0x7
 1682 0825 1E01     		.2byte	0x11e
 1683 0827 6F080000 		.4byte	0x86f
 1684 082b 1A       		.uleb128 0x1a
 1685 082c 9E050000 		.4byte	.LASF127
 1686 0830 07       		.byte	0x7
 1687 0831 2701     		.2byte	0x127
 1688 0833 A6080000 		.4byte	0x8a6
 1689 0837 1A       		.uleb128 0x1a
 1690 0838 38050000 		.4byte	.LASF128
 1691 083c 07       		.byte	0x7
 1692 083d 2F01     		.2byte	0x12f
 1693 083f 10010000 		.4byte	0x110
 1694 0843 00       		.byte	0
 1695 0844 09       		.uleb128 0x9
ARM GAS  /tmp/ccBrbIdT.s 			page 50


 1696 0845 04       		.byte	0x4
 1697 0846 4D020000 		.4byte	0x24d
 1698 084a 05       		.uleb128 0x5
 1699 084b 78050000 		.4byte	.LASF129
 1700 084f 0C       		.byte	0xc
 1701 0850 0E       		.byte	0xe
 1702 0851 34       		.byte	0x34
 1703 0852 6F080000 		.4byte	0x86f
 1704 0856 06       		.uleb128 0x6
 1705 0857 83010000 		.4byte	.LASF130
 1706 085b 0E       		.byte	0xe
 1707 085c 35       		.byte	0x35
 1708 085d 82020000 		.4byte	0x282
 1709 0861 00       		.byte	0
 1710 0862 06       		.uleb128 0x6
 1711 0863 6E020000 		.4byte	.LASF131
 1712 0867 0E       		.byte	0xe
 1713 0868 37       		.byte	0x37
 1714 0869 1B010000 		.4byte	0x11b
 1715 086d 08       		.byte	0x8
 1716 086e 00       		.byte	0
 1717 086f 09       		.uleb128 0x9
 1718 0870 04       		.byte	0x4
 1719 0871 4A080000 		.4byte	0x84a
 1720 0875 05       		.uleb128 0x5
 1721 0876 89060000 		.4byte	.LASF132
 1722 087a 10       		.byte	0x10
 1723 087b 0F       		.byte	0xf
 1724 087c 39       		.byte	0x39
 1725 087d A6080000 		.4byte	0x8a6
 1726 0881 06       		.uleb128 0x6
 1727 0882 2F010000 		.4byte	.LASF133
 1728 0886 0F       		.byte	0xf
 1729 0887 3A       		.byte	0x3a
 1730 0888 82020000 		.4byte	0x282
 1731 088c 00       		.byte	0
 1732 088d 06       		.uleb128 0x6
 1733 088e 13070000 		.4byte	.LASF134
 1734 0892 0F       		.byte	0xf
 1735 0893 3C       		.byte	0x3c
 1736 0894 58020000 		.4byte	0x258
 1737 0898 08       		.byte	0x8
 1738 0899 06       		.uleb128 0x6
 1739 089a FC050000 		.4byte	.LASF135
 1740 089e 0F       		.byte	0xf
 1741 089f 3E       		.byte	0x3e
 1742 08a0 EA080000 		.4byte	0x8ea
 1743 08a4 0C       		.byte	0xc
 1744 08a5 00       		.byte	0
 1745 08a6 09       		.uleb128 0x9
 1746 08a7 04       		.byte	0x4
 1747 08a8 75080000 		.4byte	0x875
 1748 08ac 09       		.uleb128 0x9
 1749 08ad 04       		.byte	0x4
 1750 08ae B2080000 		.4byte	0x8b2
 1751 08b2 1B       		.uleb128 0x1b
 1752 08b3 B7080000 		.4byte	0x8b7
ARM GAS  /tmp/ccBrbIdT.s 			page 51


 1753 08b7 03       		.uleb128 0x3
 1754 08b8 01       		.byte	0x1
 1755 08b9 08       		.byte	0x8
 1756 08ba E4050000 		.4byte	.LASF136
 1757 08be 09       		.uleb128 0x9
 1758 08bf 04       		.byte	0x4
 1759 08c0 DB040000 		.4byte	0x4db
 1760 08c4 09       		.uleb128 0x9
 1761 08c5 04       		.byte	0x4
 1762 08c6 37030000 		.4byte	0x337
 1763 08ca 11       		.uleb128 0x11
 1764 08cb AC080000 		.4byte	0x8ac
 1765 08cf 12       		.uleb128 0x12
 1766 08d0 DB040000 		.4byte	0x4db
 1767 08d4 DF080000 		.4byte	0x8df
 1768 08d8 13       		.uleb128 0x13
 1769 08d9 A4040000 		.4byte	0x4a4
 1770 08dd 1E       		.byte	0x1e
 1771 08de 00       		.byte	0
 1772 08df 04       		.uleb128 0x4
 1773 08e0 10020000 		.4byte	.LASF137
 1774 08e4 0F       		.byte	0xf
 1775 08e5 34       		.byte	0x34
 1776 08e6 75080000 		.4byte	0x875
 1777 08ea 09       		.uleb128 0x9
 1778 08eb 04       		.byte	0x4
 1779 08ec DF080000 		.4byte	0x8df
 1780 08f0 03       		.uleb128 0x3
 1781 08f1 01       		.byte	0x1
 1782 08f2 02       		.byte	0x2
 1783 08f3 F9040000 		.4byte	.LASF138
 1784 08f7 1C       		.uleb128 0x1c
 1785 08f8 E8030000 		.4byte	.LASF139
 1786 08fc 01       		.byte	0x1
 1787 08fd 99       		.byte	0x99
 1788 08fe 00000000 		.4byte	.LFB137
 1789 0902 20000000 		.4byte	.LFE137-.LFB137
 1790 0906 01       		.uleb128 0x1
 1791 0907 9C       		.byte	0x9c
 1792 0908 1B090000 		.4byte	0x91b
 1793 090c 1D       		.uleb128 0x1d
 1794 090d 92040000 		.4byte	.LASF141
 1795 0911 01       		.byte	0x1
 1796 0912 99       		.byte	0x99
 1797 0913 31010000 		.4byte	0x131
 1798 0917 02       		.uleb128 0x2
 1799 0918 91       		.byte	0x91
 1800 0919 7C       		.sleb128 -4
 1801 091a 00       		.byte	0
 1802 091b 1E       		.uleb128 0x1e
 1803 091c 60060000 		.4byte	.LASF156
 1804 0920 01       		.byte	0x1
 1805 0921 A5       		.byte	0xa5
 1806 0922 00000000 		.4byte	.LFB138
 1807 0926 0A000000 		.4byte	.LFE138-.LFB138
 1808 092a 01       		.uleb128 0x1
 1809 092b 9C       		.byte	0x9c
ARM GAS  /tmp/ccBrbIdT.s 			page 52


 1810 092c 1C       		.uleb128 0x1c
 1811 092d F7060000 		.4byte	.LASF140
 1812 0931 01       		.byte	0x1
 1813 0932 B1       		.byte	0xb1
 1814 0933 00000000 		.4byte	.LFB139
 1815 0937 10000000 		.4byte	.LFE139-.LFB139
 1816 093b 01       		.uleb128 0x1
 1817 093c 9C       		.byte	0x9c
 1818 093d 50090000 		.4byte	0x950
 1819 0941 1D       		.uleb128 0x1d
 1820 0942 92040000 		.4byte	.LASF141
 1821 0946 01       		.byte	0x1
 1822 0947 B1       		.byte	0xb1
 1823 0948 31010000 		.4byte	0x131
 1824 094c 02       		.uleb128 0x2
 1825 094d 91       		.byte	0x91
 1826 094e 7C       		.sleb128 -4
 1827 094f 00       		.byte	0
 1828 0950 1F       		.uleb128 0x1f
 1829 0951 67050000 		.4byte	.LASF142
 1830 0955 01       		.byte	0x1
 1831 0956 BD       		.byte	0xbd
 1832 0957 31010000 		.4byte	0x131
 1833 095b 00000000 		.4byte	.LFB140
 1834 095f 0A000000 		.4byte	.LFE140-.LFB140
 1835 0963 01       		.uleb128 0x1
 1836 0964 9C       		.byte	0x9c
 1837 0965 1F       		.uleb128 0x1f
 1838 0966 9E010000 		.4byte	.LASF143
 1839 096a 01       		.byte	0x1
 1840 096b CB       		.byte	0xcb
 1841 096c F0080000 		.4byte	0x8f0
 1842 0970 00000000 		.4byte	.LFB141
 1843 0974 18000000 		.4byte	.LFE141-.LFB141
 1844 0978 01       		.uleb128 0x1
 1845 0979 9C       		.byte	0x9c
 1846 097a 20       		.uleb128 0x20
 1847 097b 66040000 		.4byte	.LASF145
 1848 097f 02       		.byte	0x2
 1849 0980 3C       		.byte	0x3c
 1850 0981 00000000 		.4byte	.LFB272
 1851 0985 08000000 		.4byte	.LFE272-.LFB272
 1852 0989 01       		.uleb128 0x1
 1853 098a 9C       		.byte	0x9c
 1854 098b 21       		.uleb128 0x21
 1855 098c 3D060000 		.4byte	.LASF147
 1856 0990 02       		.byte	0x2
 1857 0991 4D       		.byte	0x4d
 1858 0992 00000000 		.4byte	.LFB273
 1859 0996 28000000 		.4byte	.LFE273-.LFB273
 1860 099a 01       		.uleb128 0x1
 1861 099b 9C       		.byte	0x9c
 1862 099c BE090000 		.4byte	0x9be
 1863 09a0 1D       		.uleb128 0x1d
 1864 09a1 DA060000 		.4byte	.LASF144
 1865 09a5 02       		.byte	0x2
 1866 09a6 4D       		.byte	0x4d
ARM GAS  /tmp/ccBrbIdT.s 			page 53


 1867 09a7 31010000 		.4byte	0x131
 1868 09ab 02       		.uleb128 0x2
 1869 09ac 91       		.byte	0x91
 1870 09ad 74       		.sleb128 -12
 1871 09ae 22       		.uleb128 0x22
 1872 09af FC020000 		.4byte	.LASF149
 1873 09b3 CE090000 		.4byte	0x9ce
 1874 09b7 05       		.uleb128 0x5
 1875 09b8 03       		.byte	0x3
 1876 09b9 00000000 		.4byte	__func__.7427
 1877 09bd 00       		.byte	0
 1878 09be 12       		.uleb128 0x12
 1879 09bf B7080000 		.4byte	0x8b7
 1880 09c3 CE090000 		.4byte	0x9ce
 1881 09c7 13       		.uleb128 0x13
 1882 09c8 A4040000 		.4byte	0x4a4
 1883 09cc 0C       		.byte	0xc
 1884 09cd 00       		.byte	0
 1885 09ce 1B       		.uleb128 0x1b
 1886 09cf BE090000 		.4byte	0x9be
 1887 09d3 20       		.uleb128 0x20
 1888 09d4 D8050000 		.4byte	.LASF146
 1889 09d8 02       		.byte	0x2
 1890 09d9 5B       		.byte	0x5b
 1891 09da 00000000 		.4byte	.LFB274
 1892 09de 08000000 		.4byte	.LFE274-.LFB274
 1893 09e2 01       		.uleb128 0x1
 1894 09e3 9C       		.byte	0x9c
 1895 09e4 21       		.uleb128 0x21
 1896 09e5 A7060000 		.4byte	.LASF148
 1897 09e9 02       		.byte	0x2
 1898 09ea 69       		.byte	0x69
 1899 09eb 00000000 		.4byte	.LFB275
 1900 09ef 2E000000 		.4byte	.LFE275-.LFB275
 1901 09f3 01       		.uleb128 0x1
 1902 09f4 9C       		.byte	0x9c
 1903 09f5 170A0000 		.4byte	0xa17
 1904 09f9 1D       		.uleb128 0x1d
 1905 09fa DA060000 		.4byte	.LASF144
 1906 09fe 02       		.byte	0x2
 1907 09ff 69       		.byte	0x69
 1908 0a00 31010000 		.4byte	0x131
 1909 0a04 02       		.uleb128 0x2
 1910 0a05 91       		.byte	0x91
 1911 0a06 74       		.sleb128 -12
 1912 0a07 22       		.uleb128 0x22
 1913 0a08 C5010000 		.4byte	.LASF150
 1914 0a0c 270A0000 		.4byte	0xa27
 1915 0a10 05       		.uleb128 0x5
 1916 0a11 03       		.byte	0x3
 1917 0a12 00000000 		.4byte	__func__.7434
 1918 0a16 00       		.byte	0
 1919 0a17 12       		.uleb128 0x12
 1920 0a18 B7080000 		.4byte	0x8b7
 1921 0a1c 270A0000 		.4byte	0xa27
 1922 0a20 13       		.uleb128 0x13
 1923 0a21 A4040000 		.4byte	0x4a4
ARM GAS  /tmp/ccBrbIdT.s 			page 54


 1924 0a25 0A       		.byte	0xa
 1925 0a26 00       		.byte	0
 1926 0a27 1B       		.uleb128 0x1b
 1927 0a28 170A0000 		.4byte	0xa17
 1928 0a2c 23       		.uleb128 0x23
 1929 0a2d B2060000 		.4byte	.LASF157
 1930 0a31 02       		.byte	0x2
 1931 0a32 79       		.byte	0x79
 1932 0a33 31010000 		.4byte	0x131
 1933 0a37 00000000 		.4byte	.LFB276
 1934 0a3b 28000000 		.4byte	.LFE276-.LFB276
 1935 0a3f 01       		.uleb128 0x1
 1936 0a40 9C       		.byte	0x9c
 1937 0a41 550A0000 		.4byte	0xa55
 1938 0a45 22       		.uleb128 0x22
 1939 0a46 73040000 		.4byte	.LASF151
 1940 0a4a 550A0000 		.4byte	0xa55
 1941 0a4e 05       		.uleb128 0x5
 1942 0a4f 03       		.byte	0x3
 1943 0a50 00000000 		.4byte	__func__.7438
 1944 0a54 00       		.byte	0
 1945 0a55 1B       		.uleb128 0x1b
 1946 0a56 170A0000 		.4byte	0xa17
 1947 0a5a 24       		.uleb128 0x24
 1948 0a5b E7000000 		.4byte	.LASF152
 1949 0a5f 10       		.byte	0x10
 1950 0a60 FA06     		.2byte	0x6fa
 1951 0a62 660A0000 		.4byte	0xa66
 1952 0a66 11       		.uleb128 0x11
 1953 0a67 A2000000 		.4byte	0xa2
 1954 0a6b 25       		.uleb128 0x25
 1955 0a6c 636800   		.ascii	"ch\000"
 1956 0a6f 07       		.byte	0x7
 1957 0a70 0902     		.2byte	0x209
 1958 0a72 2C040000 		.4byte	0x42c
 1959 0a76 00       		.byte	0
 1960              		.section	.debug_abbrev,"",%progbits
 1961              	.Ldebug_abbrev0:
 1962 0000 01       		.uleb128 0x1
 1963 0001 11       		.uleb128 0x11
 1964 0002 01       		.byte	0x1
 1965 0003 25       		.uleb128 0x25
 1966 0004 0E       		.uleb128 0xe
 1967 0005 13       		.uleb128 0x13
 1968 0006 0B       		.uleb128 0xb
 1969 0007 03       		.uleb128 0x3
 1970 0008 0E       		.uleb128 0xe
 1971 0009 1B       		.uleb128 0x1b
 1972 000a 0E       		.uleb128 0xe
 1973 000b 55       		.uleb128 0x55
 1974 000c 17       		.uleb128 0x17
 1975 000d 11       		.uleb128 0x11
 1976 000e 01       		.uleb128 0x1
 1977 000f 10       		.uleb128 0x10
 1978 0010 17       		.uleb128 0x17
 1979 0011 00       		.byte	0
 1980 0012 00       		.byte	0
ARM GAS  /tmp/ccBrbIdT.s 			page 55


 1981 0013 02       		.uleb128 0x2
 1982 0014 24       		.uleb128 0x24
 1983 0015 00       		.byte	0
 1984 0016 0B       		.uleb128 0xb
 1985 0017 0B       		.uleb128 0xb
 1986 0018 3E       		.uleb128 0x3e
 1987 0019 0B       		.uleb128 0xb
 1988 001a 03       		.uleb128 0x3
 1989 001b 08       		.uleb128 0x8
 1990 001c 00       		.byte	0
 1991 001d 00       		.byte	0
 1992 001e 03       		.uleb128 0x3
 1993 001f 24       		.uleb128 0x24
 1994 0020 00       		.byte	0
 1995 0021 0B       		.uleb128 0xb
 1996 0022 0B       		.uleb128 0xb
 1997 0023 3E       		.uleb128 0x3e
 1998 0024 0B       		.uleb128 0xb
 1999 0025 03       		.uleb128 0x3
 2000 0026 0E       		.uleb128 0xe
 2001 0027 00       		.byte	0
 2002 0028 00       		.byte	0
 2003 0029 04       		.uleb128 0x4
 2004 002a 16       		.uleb128 0x16
 2005 002b 00       		.byte	0
 2006 002c 03       		.uleb128 0x3
 2007 002d 0E       		.uleb128 0xe
 2008 002e 3A       		.uleb128 0x3a
 2009 002f 0B       		.uleb128 0xb
 2010 0030 3B       		.uleb128 0x3b
 2011 0031 0B       		.uleb128 0xb
 2012 0032 49       		.uleb128 0x49
 2013 0033 13       		.uleb128 0x13
 2014 0034 00       		.byte	0
 2015 0035 00       		.byte	0
 2016 0036 05       		.uleb128 0x5
 2017 0037 13       		.uleb128 0x13
 2018 0038 01       		.byte	0x1
 2019 0039 03       		.uleb128 0x3
 2020 003a 0E       		.uleb128 0xe
 2021 003b 0B       		.uleb128 0xb
 2022 003c 0B       		.uleb128 0xb
 2023 003d 3A       		.uleb128 0x3a
 2024 003e 0B       		.uleb128 0xb
 2025 003f 3B       		.uleb128 0x3b
 2026 0040 0B       		.uleb128 0xb
 2027 0041 01       		.uleb128 0x1
 2028 0042 13       		.uleb128 0x13
 2029 0043 00       		.byte	0
 2030 0044 00       		.byte	0
 2031 0045 06       		.uleb128 0x6
 2032 0046 0D       		.uleb128 0xd
 2033 0047 00       		.byte	0
 2034 0048 03       		.uleb128 0x3
 2035 0049 0E       		.uleb128 0xe
 2036 004a 3A       		.uleb128 0x3a
 2037 004b 0B       		.uleb128 0xb
ARM GAS  /tmp/ccBrbIdT.s 			page 56


 2038 004c 3B       		.uleb128 0x3b
 2039 004d 0B       		.uleb128 0xb
 2040 004e 49       		.uleb128 0x49
 2041 004f 13       		.uleb128 0x13
 2042 0050 38       		.uleb128 0x38
 2043 0051 0B       		.uleb128 0xb
 2044 0052 00       		.byte	0
 2045 0053 00       		.byte	0
 2046 0054 07       		.uleb128 0x7
 2047 0055 0D       		.uleb128 0xd
 2048 0056 00       		.byte	0
 2049 0057 03       		.uleb128 0x3
 2050 0058 08       		.uleb128 0x8
 2051 0059 3A       		.uleb128 0x3a
 2052 005a 0B       		.uleb128 0xb
 2053 005b 3B       		.uleb128 0x3b
 2054 005c 05       		.uleb128 0x5
 2055 005d 49       		.uleb128 0x49
 2056 005e 13       		.uleb128 0x13
 2057 005f 38       		.uleb128 0x38
 2058 0060 0B       		.uleb128 0xb
 2059 0061 00       		.byte	0
 2060 0062 00       		.byte	0
 2061 0063 08       		.uleb128 0x8
 2062 0064 0D       		.uleb128 0xd
 2063 0065 00       		.byte	0
 2064 0066 03       		.uleb128 0x3
 2065 0067 0E       		.uleb128 0xe
 2066 0068 3A       		.uleb128 0x3a
 2067 0069 0B       		.uleb128 0xb
 2068 006a 3B       		.uleb128 0x3b
 2069 006b 05       		.uleb128 0x5
 2070 006c 49       		.uleb128 0x49
 2071 006d 13       		.uleb128 0x13
 2072 006e 38       		.uleb128 0x38
 2073 006f 0B       		.uleb128 0xb
 2074 0070 00       		.byte	0
 2075 0071 00       		.byte	0
 2076 0072 09       		.uleb128 0x9
 2077 0073 0F       		.uleb128 0xf
 2078 0074 00       		.byte	0
 2079 0075 0B       		.uleb128 0xb
 2080 0076 0B       		.uleb128 0xb
 2081 0077 49       		.uleb128 0x49
 2082 0078 13       		.uleb128 0x13
 2083 0079 00       		.byte	0
 2084 007a 00       		.byte	0
 2085 007b 0A       		.uleb128 0xa
 2086 007c 13       		.uleb128 0x13
 2087 007d 01       		.byte	0x1
 2088 007e 03       		.uleb128 0x3
 2089 007f 0E       		.uleb128 0xe
 2090 0080 0B       		.uleb128 0xb
 2091 0081 0B       		.uleb128 0xb
 2092 0082 3A       		.uleb128 0x3a
 2093 0083 0B       		.uleb128 0xb
 2094 0084 3B       		.uleb128 0x3b
ARM GAS  /tmp/ccBrbIdT.s 			page 57


 2095 0085 05       		.uleb128 0x5
 2096 0086 01       		.uleb128 0x1
 2097 0087 13       		.uleb128 0x13
 2098 0088 00       		.byte	0
 2099 0089 00       		.byte	0
 2100 008a 0B       		.uleb128 0xb
 2101 008b 15       		.uleb128 0x15
 2102 008c 01       		.byte	0x1
 2103 008d 27       		.uleb128 0x27
 2104 008e 19       		.uleb128 0x19
 2105 008f 01       		.uleb128 0x1
 2106 0090 13       		.uleb128 0x13
 2107 0091 00       		.byte	0
 2108 0092 00       		.byte	0
 2109 0093 0C       		.uleb128 0xc
 2110 0094 05       		.uleb128 0x5
 2111 0095 00       		.byte	0
 2112 0096 49       		.uleb128 0x49
 2113 0097 13       		.uleb128 0x13
 2114 0098 00       		.byte	0
 2115 0099 00       		.byte	0
 2116 009a 0D       		.uleb128 0xd
 2117 009b 0F       		.uleb128 0xf
 2118 009c 00       		.byte	0
 2119 009d 0B       		.uleb128 0xb
 2120 009e 0B       		.uleb128 0xb
 2121 009f 00       		.byte	0
 2122 00a0 00       		.byte	0
 2123 00a1 0E       		.uleb128 0xe
 2124 00a2 13       		.uleb128 0x13
 2125 00a3 01       		.byte	0x1
 2126 00a4 03       		.uleb128 0x3
 2127 00a5 0E       		.uleb128 0xe
 2128 00a6 0B       		.uleb128 0xb
 2129 00a7 05       		.uleb128 0x5
 2130 00a8 3A       		.uleb128 0x3a
 2131 00a9 0B       		.uleb128 0xb
 2132 00aa 3B       		.uleb128 0x3b
 2133 00ab 05       		.uleb128 0x5
 2134 00ac 01       		.uleb128 0x1
 2135 00ad 13       		.uleb128 0x13
 2136 00ae 00       		.byte	0
 2137 00af 00       		.byte	0
 2138 00b0 0F       		.uleb128 0xf
 2139 00b1 0D       		.uleb128 0xd
 2140 00b2 00       		.byte	0
 2141 00b3 03       		.uleb128 0x3
 2142 00b4 0E       		.uleb128 0xe
 2143 00b5 3A       		.uleb128 0x3a
 2144 00b6 0B       		.uleb128 0xb
 2145 00b7 3B       		.uleb128 0x3b
 2146 00b8 05       		.uleb128 0x5
 2147 00b9 49       		.uleb128 0x49
 2148 00ba 13       		.uleb128 0x13
 2149 00bb 38       		.uleb128 0x38
 2150 00bc 05       		.uleb128 0x5
 2151 00bd 00       		.byte	0
ARM GAS  /tmp/ccBrbIdT.s 			page 58


 2152 00be 00       		.byte	0
 2153 00bf 10       		.uleb128 0x10
 2154 00c0 0D       		.uleb128 0xd
 2155 00c1 00       		.byte	0
 2156 00c2 03       		.uleb128 0x3
 2157 00c3 08       		.uleb128 0x8
 2158 00c4 3A       		.uleb128 0x3a
 2159 00c5 0B       		.uleb128 0xb
 2160 00c6 3B       		.uleb128 0x3b
 2161 00c7 05       		.uleb128 0x5
 2162 00c8 49       		.uleb128 0x49
 2163 00c9 13       		.uleb128 0x13
 2164 00ca 38       		.uleb128 0x38
 2165 00cb 05       		.uleb128 0x5
 2166 00cc 00       		.byte	0
 2167 00cd 00       		.byte	0
 2168 00ce 11       		.uleb128 0x11
 2169 00cf 35       		.uleb128 0x35
 2170 00d0 00       		.byte	0
 2171 00d1 49       		.uleb128 0x49
 2172 00d2 13       		.uleb128 0x13
 2173 00d3 00       		.byte	0
 2174 00d4 00       		.byte	0
 2175 00d5 12       		.uleb128 0x12
 2176 00d6 01       		.uleb128 0x1
 2177 00d7 01       		.byte	0x1
 2178 00d8 49       		.uleb128 0x49
 2179 00d9 13       		.uleb128 0x13
 2180 00da 01       		.uleb128 0x1
 2181 00db 13       		.uleb128 0x13
 2182 00dc 00       		.byte	0
 2183 00dd 00       		.byte	0
 2184 00de 13       		.uleb128 0x13
 2185 00df 21       		.uleb128 0x21
 2186 00e0 00       		.byte	0
 2187 00e1 49       		.uleb128 0x49
 2188 00e2 13       		.uleb128 0x13
 2189 00e3 2F       		.uleb128 0x2f
 2190 00e4 0B       		.uleb128 0xb
 2191 00e5 00       		.byte	0
 2192 00e6 00       		.byte	0
 2193 00e7 14       		.uleb128 0x14
 2194 00e8 0D       		.uleb128 0xd
 2195 00e9 00       		.byte	0
 2196 00ea 03       		.uleb128 0x3
 2197 00eb 08       		.uleb128 0x8
 2198 00ec 3A       		.uleb128 0x3a
 2199 00ed 0B       		.uleb128 0xb
 2200 00ee 3B       		.uleb128 0x3b
 2201 00ef 0B       		.uleb128 0xb
 2202 00f0 49       		.uleb128 0x49
 2203 00f1 13       		.uleb128 0x13
 2204 00f2 38       		.uleb128 0x38
 2205 00f3 0B       		.uleb128 0xb
 2206 00f4 00       		.byte	0
 2207 00f5 00       		.byte	0
 2208 00f6 15       		.uleb128 0x15
ARM GAS  /tmp/ccBrbIdT.s 			page 59


 2209 00f7 13       		.uleb128 0x13
 2210 00f8 01       		.byte	0x1
 2211 00f9 0B       		.uleb128 0xb
 2212 00fa 0B       		.uleb128 0xb
 2213 00fb 3A       		.uleb128 0x3a
 2214 00fc 0B       		.uleb128 0xb
 2215 00fd 3B       		.uleb128 0x3b
 2216 00fe 05       		.uleb128 0x5
 2217 00ff 01       		.uleb128 0x1
 2218 0100 13       		.uleb128 0x13
 2219 0101 00       		.byte	0
 2220 0102 00       		.byte	0
 2221 0103 16       		.uleb128 0x16
 2222 0104 16       		.uleb128 0x16
 2223 0105 00       		.byte	0
 2224 0106 03       		.uleb128 0x3
 2225 0107 0E       		.uleb128 0xe
 2226 0108 3A       		.uleb128 0x3a
 2227 0109 0B       		.uleb128 0xb
 2228 010a 3B       		.uleb128 0x3b
 2229 010b 05       		.uleb128 0x5
 2230 010c 49       		.uleb128 0x49
 2231 010d 13       		.uleb128 0x13
 2232 010e 00       		.byte	0
 2233 010f 00       		.byte	0
 2234 0110 17       		.uleb128 0x17
 2235 0111 13       		.uleb128 0x13
 2236 0112 01       		.byte	0x1
 2237 0113 0B       		.uleb128 0xb
 2238 0114 0B       		.uleb128 0xb
 2239 0115 3A       		.uleb128 0x3a
 2240 0116 0B       		.uleb128 0xb
 2241 0117 3B       		.uleb128 0x3b
 2242 0118 0B       		.uleb128 0xb
 2243 0119 01       		.uleb128 0x1
 2244 011a 13       		.uleb128 0x13
 2245 011b 00       		.byte	0
 2246 011c 00       		.byte	0
 2247 011d 18       		.uleb128 0x18
 2248 011e 13       		.uleb128 0x13
 2249 011f 01       		.byte	0x1
 2250 0120 0B       		.uleb128 0xb
 2251 0121 05       		.uleb128 0x5
 2252 0122 3A       		.uleb128 0x3a
 2253 0123 0B       		.uleb128 0xb
 2254 0124 3B       		.uleb128 0x3b
 2255 0125 0B       		.uleb128 0xb
 2256 0126 01       		.uleb128 0x1
 2257 0127 13       		.uleb128 0x13
 2258 0128 00       		.byte	0
 2259 0129 00       		.byte	0
 2260 012a 19       		.uleb128 0x19
 2261 012b 17       		.uleb128 0x17
 2262 012c 01       		.byte	0x1
 2263 012d 0B       		.uleb128 0xb
 2264 012e 0B       		.uleb128 0xb
 2265 012f 3A       		.uleb128 0x3a
ARM GAS  /tmp/ccBrbIdT.s 			page 60


 2266 0130 0B       		.uleb128 0xb
 2267 0131 3B       		.uleb128 0x3b
 2268 0132 0B       		.uleb128 0xb
 2269 0133 01       		.uleb128 0x1
 2270 0134 13       		.uleb128 0x13
 2271 0135 00       		.byte	0
 2272 0136 00       		.byte	0
 2273 0137 1A       		.uleb128 0x1a
 2274 0138 0D       		.uleb128 0xd
 2275 0139 00       		.byte	0
 2276 013a 03       		.uleb128 0x3
 2277 013b 0E       		.uleb128 0xe
 2278 013c 3A       		.uleb128 0x3a
 2279 013d 0B       		.uleb128 0xb
 2280 013e 3B       		.uleb128 0x3b
 2281 013f 05       		.uleb128 0x5
 2282 0140 49       		.uleb128 0x49
 2283 0141 13       		.uleb128 0x13
 2284 0142 00       		.byte	0
 2285 0143 00       		.byte	0
 2286 0144 1B       		.uleb128 0x1b
 2287 0145 26       		.uleb128 0x26
 2288 0146 00       		.byte	0
 2289 0147 49       		.uleb128 0x49
 2290 0148 13       		.uleb128 0x13
 2291 0149 00       		.byte	0
 2292 014a 00       		.byte	0
 2293 014b 1C       		.uleb128 0x1c
 2294 014c 2E       		.uleb128 0x2e
 2295 014d 01       		.byte	0x1
 2296 014e 03       		.uleb128 0x3
 2297 014f 0E       		.uleb128 0xe
 2298 0150 3A       		.uleb128 0x3a
 2299 0151 0B       		.uleb128 0xb
 2300 0152 3B       		.uleb128 0x3b
 2301 0153 0B       		.uleb128 0xb
 2302 0154 27       		.uleb128 0x27
 2303 0155 19       		.uleb128 0x19
 2304 0156 11       		.uleb128 0x11
 2305 0157 01       		.uleb128 0x1
 2306 0158 12       		.uleb128 0x12
 2307 0159 06       		.uleb128 0x6
 2308 015a 40       		.uleb128 0x40
 2309 015b 18       		.uleb128 0x18
 2310 015c 9742     		.uleb128 0x2117
 2311 015e 19       		.uleb128 0x19
 2312 015f 01       		.uleb128 0x1
 2313 0160 13       		.uleb128 0x13
 2314 0161 00       		.byte	0
 2315 0162 00       		.byte	0
 2316 0163 1D       		.uleb128 0x1d
 2317 0164 05       		.uleb128 0x5
 2318 0165 00       		.byte	0
 2319 0166 03       		.uleb128 0x3
 2320 0167 0E       		.uleb128 0xe
 2321 0168 3A       		.uleb128 0x3a
 2322 0169 0B       		.uleb128 0xb
ARM GAS  /tmp/ccBrbIdT.s 			page 61


 2323 016a 3B       		.uleb128 0x3b
 2324 016b 0B       		.uleb128 0xb
 2325 016c 49       		.uleb128 0x49
 2326 016d 13       		.uleb128 0x13
 2327 016e 02       		.uleb128 0x2
 2328 016f 18       		.uleb128 0x18
 2329 0170 00       		.byte	0
 2330 0171 00       		.byte	0
 2331 0172 1E       		.uleb128 0x1e
 2332 0173 2E       		.uleb128 0x2e
 2333 0174 00       		.byte	0
 2334 0175 03       		.uleb128 0x3
 2335 0176 0E       		.uleb128 0xe
 2336 0177 3A       		.uleb128 0x3a
 2337 0178 0B       		.uleb128 0xb
 2338 0179 3B       		.uleb128 0x3b
 2339 017a 0B       		.uleb128 0xb
 2340 017b 27       		.uleb128 0x27
 2341 017c 19       		.uleb128 0x19
 2342 017d 11       		.uleb128 0x11
 2343 017e 01       		.uleb128 0x1
 2344 017f 12       		.uleb128 0x12
 2345 0180 06       		.uleb128 0x6
 2346 0181 40       		.uleb128 0x40
 2347 0182 18       		.uleb128 0x18
 2348 0183 9742     		.uleb128 0x2117
 2349 0185 19       		.uleb128 0x19
 2350 0186 00       		.byte	0
 2351 0187 00       		.byte	0
 2352 0188 1F       		.uleb128 0x1f
 2353 0189 2E       		.uleb128 0x2e
 2354 018a 00       		.byte	0
 2355 018b 03       		.uleb128 0x3
 2356 018c 0E       		.uleb128 0xe
 2357 018d 3A       		.uleb128 0x3a
 2358 018e 0B       		.uleb128 0xb
 2359 018f 3B       		.uleb128 0x3b
 2360 0190 0B       		.uleb128 0xb
 2361 0191 27       		.uleb128 0x27
 2362 0192 19       		.uleb128 0x19
 2363 0193 49       		.uleb128 0x49
 2364 0194 13       		.uleb128 0x13
 2365 0195 11       		.uleb128 0x11
 2366 0196 01       		.uleb128 0x1
 2367 0197 12       		.uleb128 0x12
 2368 0198 06       		.uleb128 0x6
 2369 0199 40       		.uleb128 0x40
 2370 019a 18       		.uleb128 0x18
 2371 019b 9742     		.uleb128 0x2117
 2372 019d 19       		.uleb128 0x19
 2373 019e 00       		.byte	0
 2374 019f 00       		.byte	0
 2375 01a0 20       		.uleb128 0x20
 2376 01a1 2E       		.uleb128 0x2e
 2377 01a2 00       		.byte	0
 2378 01a3 3F       		.uleb128 0x3f
 2379 01a4 19       		.uleb128 0x19
ARM GAS  /tmp/ccBrbIdT.s 			page 62


 2380 01a5 03       		.uleb128 0x3
 2381 01a6 0E       		.uleb128 0xe
 2382 01a7 3A       		.uleb128 0x3a
 2383 01a8 0B       		.uleb128 0xb
 2384 01a9 3B       		.uleb128 0x3b
 2385 01aa 0B       		.uleb128 0xb
 2386 01ab 27       		.uleb128 0x27
 2387 01ac 19       		.uleb128 0x19
 2388 01ad 11       		.uleb128 0x11
 2389 01ae 01       		.uleb128 0x1
 2390 01af 12       		.uleb128 0x12
 2391 01b0 06       		.uleb128 0x6
 2392 01b1 40       		.uleb128 0x40
 2393 01b2 18       		.uleb128 0x18
 2394 01b3 9642     		.uleb128 0x2116
 2395 01b5 19       		.uleb128 0x19
 2396 01b6 00       		.byte	0
 2397 01b7 00       		.byte	0
 2398 01b8 21       		.uleb128 0x21
 2399 01b9 2E       		.uleb128 0x2e
 2400 01ba 01       		.byte	0x1
 2401 01bb 3F       		.uleb128 0x3f
 2402 01bc 19       		.uleb128 0x19
 2403 01bd 03       		.uleb128 0x3
 2404 01be 0E       		.uleb128 0xe
 2405 01bf 3A       		.uleb128 0x3a
 2406 01c0 0B       		.uleb128 0xb
 2407 01c1 3B       		.uleb128 0x3b
 2408 01c2 0B       		.uleb128 0xb
 2409 01c3 27       		.uleb128 0x27
 2410 01c4 19       		.uleb128 0x19
 2411 01c5 11       		.uleb128 0x11
 2412 01c6 01       		.uleb128 0x1
 2413 01c7 12       		.uleb128 0x12
 2414 01c8 06       		.uleb128 0x6
 2415 01c9 40       		.uleb128 0x40
 2416 01ca 18       		.uleb128 0x18
 2417 01cb 9642     		.uleb128 0x2116
 2418 01cd 19       		.uleb128 0x19
 2419 01ce 01       		.uleb128 0x1
 2420 01cf 13       		.uleb128 0x13
 2421 01d0 00       		.byte	0
 2422 01d1 00       		.byte	0
 2423 01d2 22       		.uleb128 0x22
 2424 01d3 34       		.uleb128 0x34
 2425 01d4 00       		.byte	0
 2426 01d5 03       		.uleb128 0x3
 2427 01d6 0E       		.uleb128 0xe
 2428 01d7 49       		.uleb128 0x49
 2429 01d8 13       		.uleb128 0x13
 2430 01d9 34       		.uleb128 0x34
 2431 01da 19       		.uleb128 0x19
 2432 01db 02       		.uleb128 0x2
 2433 01dc 18       		.uleb128 0x18
 2434 01dd 00       		.byte	0
 2435 01de 00       		.byte	0
 2436 01df 23       		.uleb128 0x23
ARM GAS  /tmp/ccBrbIdT.s 			page 63


 2437 01e0 2E       		.uleb128 0x2e
 2438 01e1 01       		.byte	0x1
 2439 01e2 3F       		.uleb128 0x3f
 2440 01e3 19       		.uleb128 0x19
 2441 01e4 03       		.uleb128 0x3
 2442 01e5 0E       		.uleb128 0xe
 2443 01e6 3A       		.uleb128 0x3a
 2444 01e7 0B       		.uleb128 0xb
 2445 01e8 3B       		.uleb128 0x3b
 2446 01e9 0B       		.uleb128 0xb
 2447 01ea 27       		.uleb128 0x27
 2448 01eb 19       		.uleb128 0x19
 2449 01ec 49       		.uleb128 0x49
 2450 01ed 13       		.uleb128 0x13
 2451 01ee 11       		.uleb128 0x11
 2452 01ef 01       		.uleb128 0x1
 2453 01f0 12       		.uleb128 0x12
 2454 01f1 06       		.uleb128 0x6
 2455 01f2 40       		.uleb128 0x40
 2456 01f3 18       		.uleb128 0x18
 2457 01f4 9642     		.uleb128 0x2116
 2458 01f6 19       		.uleb128 0x19
 2459 01f7 01       		.uleb128 0x1
 2460 01f8 13       		.uleb128 0x13
 2461 01f9 00       		.byte	0
 2462 01fa 00       		.byte	0
 2463 01fb 24       		.uleb128 0x24
 2464 01fc 34       		.uleb128 0x34
 2465 01fd 00       		.byte	0
 2466 01fe 03       		.uleb128 0x3
 2467 01ff 0E       		.uleb128 0xe
 2468 0200 3A       		.uleb128 0x3a
 2469 0201 0B       		.uleb128 0xb
 2470 0202 3B       		.uleb128 0x3b
 2471 0203 05       		.uleb128 0x5
 2472 0204 49       		.uleb128 0x49
 2473 0205 13       		.uleb128 0x13
 2474 0206 3F       		.uleb128 0x3f
 2475 0207 19       		.uleb128 0x19
 2476 0208 3C       		.uleb128 0x3c
 2477 0209 19       		.uleb128 0x19
 2478 020a 00       		.byte	0
 2479 020b 00       		.byte	0
 2480 020c 25       		.uleb128 0x25
 2481 020d 34       		.uleb128 0x34
 2482 020e 00       		.byte	0
 2483 020f 03       		.uleb128 0x3
 2484 0210 08       		.uleb128 0x8
 2485 0211 3A       		.uleb128 0x3a
 2486 0212 0B       		.uleb128 0xb
 2487 0213 3B       		.uleb128 0x3b
 2488 0214 05       		.uleb128 0x5
 2489 0215 49       		.uleb128 0x49
 2490 0216 13       		.uleb128 0x13
 2491 0217 3F       		.uleb128 0x3f
 2492 0218 19       		.uleb128 0x19
 2493 0219 3C       		.uleb128 0x3c
ARM GAS  /tmp/ccBrbIdT.s 			page 64


 2494 021a 19       		.uleb128 0x19
 2495 021b 00       		.byte	0
 2496 021c 00       		.byte	0
 2497 021d 00       		.byte	0
 2498              		.section	.debug_aranges,"",%progbits
 2499 0000 64000000 		.4byte	0x64
 2500 0004 0200     		.2byte	0x2
 2501 0006 00000000 		.4byte	.Ldebug_info0
 2502 000a 04       		.byte	0x4
 2503 000b 00       		.byte	0
 2504 000c 0000     		.2byte	0
 2505 000e 0000     		.2byte	0
 2506 0010 00000000 		.4byte	.LFB137
 2507 0014 20000000 		.4byte	.LFE137-.LFB137
 2508 0018 00000000 		.4byte	.LFB138
 2509 001c 0A000000 		.4byte	.LFE138-.LFB138
 2510 0020 00000000 		.4byte	.LFB139
 2511 0024 10000000 		.4byte	.LFE139-.LFB139
 2512 0028 00000000 		.4byte	.LFB140
 2513 002c 0A000000 		.4byte	.LFE140-.LFB140
 2514 0030 00000000 		.4byte	.LFB141
 2515 0034 18000000 		.4byte	.LFE141-.LFB141
 2516 0038 00000000 		.4byte	.LFB272
 2517 003c 08000000 		.4byte	.LFE272-.LFB272
 2518 0040 00000000 		.4byte	.LFB273
 2519 0044 28000000 		.4byte	.LFE273-.LFB273
 2520 0048 00000000 		.4byte	.LFB274
 2521 004c 08000000 		.4byte	.LFE274-.LFB274
 2522 0050 00000000 		.4byte	.LFB275
 2523 0054 2E000000 		.4byte	.LFE275-.LFB275
 2524 0058 00000000 		.4byte	.LFB276
 2525 005c 28000000 		.4byte	.LFE276-.LFB276
 2526 0060 00000000 		.4byte	0
 2527 0064 00000000 		.4byte	0
 2528              		.section	.debug_ranges,"",%progbits
 2529              	.Ldebug_ranges0:
 2530 0000 00000000 		.4byte	.LFB137
 2531 0004 20000000 		.4byte	.LFE137
 2532 0008 00000000 		.4byte	.LFB138
 2533 000c 0A000000 		.4byte	.LFE138
 2534 0010 00000000 		.4byte	.LFB139
 2535 0014 10000000 		.4byte	.LFE139
 2536 0018 00000000 		.4byte	.LFB140
 2537 001c 0A000000 		.4byte	.LFE140
 2538 0020 00000000 		.4byte	.LFB141
 2539 0024 18000000 		.4byte	.LFE141
 2540 0028 00000000 		.4byte	.LFB272
 2541 002c 08000000 		.4byte	.LFE272
 2542 0030 00000000 		.4byte	.LFB273
 2543 0034 28000000 		.4byte	.LFE273
 2544 0038 00000000 		.4byte	.LFB274
 2545 003c 08000000 		.4byte	.LFE274
 2546 0040 00000000 		.4byte	.LFB275
 2547 0044 2E000000 		.4byte	.LFE275
 2548 0048 00000000 		.4byte	.LFB276
 2549 004c 28000000 		.4byte	.LFE276
 2550 0050 00000000 		.4byte	0
ARM GAS  /tmp/ccBrbIdT.s 			page 65


 2551 0054 00000000 		.4byte	0
 2552              		.section	.debug_line,"",%progbits
 2553              	.Ldebug_line0:
 2554 0000 B7020000 		.section	.debug_str,"MS",%progbits,1
 2554      0200DA01 
 2554      00000201 
 2554      FB0E0D00 
 2554      01010101 
 2555              	.LASF107:
 2556 0000 74625F70 		.ascii	"tb_ptr\000"
 2556      747200
 2557              	.LASF54:
 2558 0007 72656164 		.ascii	"ready_list_t\000"
 2558      795F6C69 
 2558      73745F74 
 2558      00
 2559              	.LASF92:
 2560 0014 44494552 		.ascii	"DIER\000"
 2560      00
 2561              	.LASF125:
 2562 0019 77747472 		.ascii	"wttrp\000"
 2562      7000
 2563              	.LASF122:
 2564 001f 7264796D 		.ascii	"rdymsg\000"
 2564      736700
 2565              	.LASF16:
 2566 0026 75696E74 		.ascii	"uint64_t\000"
 2566      36345F74 
 2566      00
 2567              	.LASF84:
 2568 002f 6B65726E 		.ascii	"kernel_stats\000"
 2568      656C5F73 
 2568      74617473 
 2568      00
 2569              	.LASF5:
 2570 003c 5F5F7569 		.ascii	"__uint8_t\000"
 2570      6E74385F 
 2570      7400
 2571              	.LASF90:
 2572 0046 706F7274 		.ascii	"port_intctx\000"
 2572      5F696E74 
 2572      63747800 
 2573              	.LASF53:
 2574 0052 63685F74 		.ascii	"ch_threads_queue\000"
 2574      68726561 
 2574      64735F71 
 2574      75657565 
 2574      00
 2575              	.LASF73:
 2576 0063 73797374 		.ascii	"system_debug_t\000"
 2576      656D5F64 
 2576      65627567 
 2576      5F7400
 2577              	.LASF113:
 2578 0072 776F7273 		.ascii	"worst\000"
 2578      7400
 2579              	.LASF116:
ARM GAS  /tmp/ccBrbIdT.s 			page 66


 2580 0078 74696D65 		.ascii	"time_measurement_t\000"
 2580      5F6D6561 
 2580      73757265 
 2580      6D656E74 
 2580      5F7400
 2581              	.LASF12:
 2582 008b 6C6F6E67 		.ascii	"long long unsigned int\000"
 2582      206C6F6E 
 2582      6720756E 
 2582      7369676E 
 2582      65642069 
 2583              	.LASF109:
 2584 00a2 63685F74 		.ascii	"ch_trace_buffer_t\000"
 2584      72616365 
 2584      5F627566 
 2584      6665725F 
 2584      7400
 2585              	.LASF104:
 2586 00b4 73655F73 		.ascii	"se_state\000"
 2586      74617465 
 2586      00
 2587              	.LASF123:
 2588 00bd 65786974 		.ascii	"exitcode\000"
 2588      636F6465 
 2588      00
 2589              	.LASF83:
 2590 00c6 6D61696E 		.ascii	"mainthread\000"
 2590      74687265 
 2590      616400
 2591              	.LASF70:
 2592 00d1 76697274 		.ascii	"virtual_timers_list_t\000"
 2592      75616C5F 
 2592      74696D65 
 2592      72735F6C 
 2592      6973745F 
 2593              	.LASF152:
 2594 00e7 49544D5F 		.ascii	"ITM_RxBuffer\000"
 2594      52784275 
 2594      66666572 
 2594      00
 2595              	.LASF96:
 2596 00f4 42445452 		.ascii	"BDTR\000"
 2596      00
 2597              	.LASF18:
 2598 00f9 72747469 		.ascii	"rttime_t\000"
 2598      6D655F74 
 2598      00
 2599              	.LASF31:
 2600 0102 705F7072 		.ascii	"p_prio\000"
 2600      696F00
 2601              	.LASF93:
 2602 0109 43434D52 		.ascii	"CCMR1\000"
 2602      3100
 2603              	.LASF94:
 2604 010f 43434D52 		.ascii	"CCMR2\000"
 2604      3200
 2605              	.LASF98:
ARM GAS  /tmp/ccBrbIdT.s 			page 67


 2606 0115 43434D52 		.ascii	"CCMR3\000"
 2606      3300
 2607              	.LASF1:
 2608 011b 7369676E 		.ascii	"signed char\000"
 2608      65642063 
 2608      68617200 
 2609              	.LASF101:
 2610 0127 73655F74 		.ascii	"se_time\000"
 2610      696D6500 
 2611              	.LASF133:
 2612 012f 6D5F7175 		.ascii	"m_queue\000"
 2612      65756500 
 2613              	.LASF82:
 2614 0137 76746C69 		.ascii	"vtlist\000"
 2614      737400
 2615              	.LASF80:
 2616 013e 63685F73 		.ascii	"ch_system\000"
 2616      79737465 
 2616      6D00
 2617              	.LASF7:
 2618 0148 6C6F6E67 		.ascii	"long int\000"
 2618      20696E74 
 2618      00
 2619              	.LASF19:
 2620 0151 746D6F64 		.ascii	"tmode_t\000"
 2620      655F7400 
 2621              	.LASF20:
 2622 0159 74737461 		.ascii	"tstate_t\000"
 2622      74655F74 
 2622      00
 2623              	.LASF95:
 2624 0162 43434552 		.ascii	"CCER\000"
 2624      00
 2625              	.LASF102:
 2626 0167 73655F74 		.ascii	"se_tp\000"
 2626      7000
 2627              	.LASF10:
 2628 016d 6C6F6E67 		.ascii	"long long int\000"
 2628      206C6F6E 
 2628      6720696E 
 2628      7400
 2629              	.LASF33:
 2630 017b 705F6E65 		.ascii	"p_newer\000"
 2630      77657200 
 2631              	.LASF130:
 2632 0183 735F7175 		.ascii	"s_queue\000"
 2632      65756500 
 2633              	.LASF4:
 2634 018b 73686F72 		.ascii	"short unsigned int\000"
 2634      7420756E 
 2634      7369676E 
 2634      65642069 
 2634      6E7400
 2635              	.LASF143:
 2636 019e 73745F6C 		.ascii	"st_lld_is_alarm_active\000"
 2636      6C645F69 
 2636      735F616C 
ARM GAS  /tmp/ccBrbIdT.s 			page 68


 2636      61726D5F 
 2636      61637469 
 2637              	.LASF106:
 2638 01b5 74625F73 		.ascii	"tb_size\000"
 2638      697A6500 
 2639              	.LASF59:
 2640 01bd 725F6E65 		.ascii	"r_newer\000"
 2640      77657200 
 2641              	.LASF150:
 2642 01c5 5F5F6675 		.ascii	"__func__.7434\000"
 2642      6E635F5F 
 2642      2E373433 
 2642      3400
 2643              	.LASF87:
 2644 01d3 72656761 		.ascii	"regarm_t\000"
 2644      726D5F74 
 2644      00
 2645              	.LASF154:
 2646 01dc 2E2E2F2E 		.ascii	"../../../../os/hal/src/st.c\000"
 2646      2E2F2E2E 
 2646      2F2E2E2F 
 2646      6F732F68 
 2646      616C2F73 
 2647              	.LASF74:
 2648 01f8 63685F73 		.ascii	"ch_system_debug\000"
 2648      79737465 
 2648      6D5F6465 
 2648      62756700 
 2649              	.LASF66:
 2650 0208 76745F70 		.ascii	"vt_prev\000"
 2650      72657600 
 2651              	.LASF137:
 2652 0210 6D757465 		.ascii	"mutex_t\000"
 2652      785F7400 
 2653              	.LASF77:
 2654 0218 6C6F636B 		.ascii	"lock_cnt\000"
 2654      5F636E74 
 2654      00
 2655              	.LASF85:
 2656 0221 69646C65 		.ascii	"idle_thread_wa\000"
 2656      5F746872 
 2656      6561645F 
 2656      776100
 2657              	.LASF25:
 2658 0230 636E745F 		.ascii	"cnt_t\000"
 2658      7400
 2659              	.LASF36:
 2660 0236 705F7374 		.ascii	"p_stklimit\000"
 2660      6B6C696D 
 2660      697400
 2661              	.LASF0:
 2662 0241 756E7369 		.ascii	"unsigned int\000"
 2662      676E6564 
 2662      20696E74 
 2662      00
 2663              	.LASF65:
 2664 024e 76745F6E 		.ascii	"vt_next\000"
ARM GAS  /tmp/ccBrbIdT.s 			page 69


 2664      65787400 
 2665              	.LASF126:
 2666 0256 77747365 		.ascii	"wtsemp\000"
 2666      6D7000
 2667              	.LASF41:
 2668 025d 705F6D73 		.ascii	"p_msgqueue\000"
 2668      67717565 
 2668      756500
 2669              	.LASF117:
 2670 0268 6E5F6972 		.ascii	"n_irq\000"
 2670      7100
 2671              	.LASF131:
 2672 026e 735F636E 		.ascii	"s_cnt\000"
 2672      7400
 2673              	.LASF91:
 2674 0274 534D4352 		.ascii	"SMCR\000"
 2674      00
 2675              	.LASF121:
 2676 0279 6B65726E 		.ascii	"kernel_stats_t\000"
 2676      656C5F73 
 2676      74617473 
 2676      5F7400
 2677              	.LASF50:
 2678 0288 63685F74 		.ascii	"ch_thread\000"
 2678      68726561 
 2678      6400
 2679              	.LASF46:
 2680 0292 705F6D70 		.ascii	"p_mpool\000"
 2680      6F6F6C00 
 2681              	.LASF23:
 2682 029a 6D73675F 		.ascii	"msg_t\000"
 2682      7400
 2683              	.LASF114:
 2684 02a0 6C617374 		.ascii	"last\000"
 2684      00
 2685              	.LASF155:
 2686 02a5 2F686F6D 		.ascii	"/home/jerker/chibios/ChibiOS_16.1.4/testhal/STM32/S"
 2686      652F6A65 
 2686      726B6572 
 2686      2F636869 
 2686      62696F73 
 2687 02d8 544D3332 		.ascii	"TM32F4xx/USB_CDC\000"
 2687      46347878 
 2687      2F555342 
 2687      5F434443 
 2687      00
 2688              	.LASF26:
 2689 02e9 75636E74 		.ascii	"ucnt_t\000"
 2689      5F7400
 2690              	.LASF79:
 2691 02f0 63685F73 		.ascii	"ch_system_t\000"
 2691      79737465 
 2691      6D5F7400 
 2692              	.LASF149:
 2693 02fc 5F5F6675 		.ascii	"__func__.7427\000"
 2693      6E635F5F 
 2693      2E373432 
ARM GAS  /tmp/ccBrbIdT.s 			page 70


 2693      3700
 2694              	.LASF153:
 2695 030a 474E5520 		.ascii	"GNU C 4.8.2 -mcpu=cortex-m4 -mno-thumb-interwork -m"
 2695      4320342E 
 2695      382E3220 
 2695      2D6D6370 
 2695      753D636F 
 2696 033d 7468756D 		.ascii	"thumb -ggdb -O0 -fomit-frame-pointer -falign-functi"
 2696      62202D67 
 2696      67646220 
 2696      2D4F3020 
 2696      2D666F6D 
 2697 0370 6F6E733D 		.ascii	"ons=16 -ffunction-sections -fdata-sections -fno-com"
 2697      3136202D 
 2697      6666756E 
 2697      6374696F 
 2697      6E2D7365 
 2698 03a3 6D6F6E20 		.ascii	"mon -flto\000"
 2698      2D666C74 
 2698      6F00
 2699              	.LASF100:
 2700 03ad 73746D33 		.ascii	"stm32_tim_t\000"
 2700      325F7469 
 2700      6D5F7400 
 2701              	.LASF120:
 2702 03b9 6D5F6372 		.ascii	"m_crit_isr\000"
 2702      69745F69 
 2702      737200
 2703              	.LASF55:
 2704 03c4 63685F72 		.ascii	"ch_ready_list\000"
 2704      65616479 
 2704      5F6C6973 
 2704      7400
 2705              	.LASF24:
 2706 03d2 6576656E 		.ascii	"eventmask_t\000"
 2706      746D6173 
 2706      6B5F7400 
 2707              	.LASF6:
 2708 03de 5F5F696E 		.ascii	"__int32_t\000"
 2708      7433325F 
 2708      7400
 2709              	.LASF139:
 2710 03e8 73745F6C 		.ascii	"st_lld_start_alarm\000"
 2710      6C645F73 
 2710      74617274 
 2710      5F616C61 
 2710      726D00
 2711              	.LASF88:
 2712 03fb 73746B61 		.ascii	"stkalign_t\000"
 2712      6C69676E 
 2712      5F7400
 2713              	.LASF40:
 2714 0406 705F7761 		.ascii	"p_waiting\000"
 2714      6974696E 
 2714      6700
 2715              	.LASF86:
 2716 0410 73697A65 		.ascii	"sizetype\000"
ARM GAS  /tmp/ccBrbIdT.s 			page 71


 2716      74797065 
 2716      00
 2717              	.LASF48:
 2718 0419 74687265 		.ascii	"thread_reference_t\000"
 2718      61645F72 
 2718      65666572 
 2718      656E6365 
 2718      5F7400
 2719              	.LASF71:
 2720 042c 63685F76 		.ascii	"ch_virtual_timers_list\000"
 2720      69727475 
 2720      616C5F74 
 2720      696D6572 
 2720      735F6C69 
 2721              	.LASF105:
 2722 0443 63685F73 		.ascii	"ch_swc_event_t\000"
 2722      77635F65 
 2722      76656E74 
 2722      5F7400
 2723              	.LASF72:
 2724 0452 76745F6C 		.ascii	"vt_lasttime\000"
 2724      61737474 
 2724      696D6500 
 2725              	.LASF34:
 2726 045e 705F6F6C 		.ascii	"p_older\000"
 2726      64657200 
 2727              	.LASF145:
 2728 0466 7374496E 		.ascii	"stInit\000"
 2728      697400
 2729              	.LASF58:
 2730 046d 725F6374 		.ascii	"r_ctx\000"
 2730      7800
 2731              	.LASF151:
 2732 0473 5F5F6675 		.ascii	"__func__.7438\000"
 2732      6E635F5F 
 2732      2E373433 
 2732      3800
 2733              	.LASF111:
 2734 0481 746D5F63 		.ascii	"tm_calibration_t\000"
 2734      616C6962 
 2734      72617469 
 2734      6F6E5F74 
 2734      00
 2735              	.LASF141:
 2736 0492 74696D65 		.ascii	"time\000"
 2736      00
 2737              	.LASF61:
 2738 0497 725F6375 		.ascii	"r_current\000"
 2738      7272656E 
 2738      7400
 2739              	.LASF60:
 2740 04a1 725F6F6C 		.ascii	"r_older\000"
 2740      64657200 
 2741              	.LASF11:
 2742 04a9 5F5F7569 		.ascii	"__uint64_t\000"
 2742      6E743634 
 2742      5F7400
ARM GAS  /tmp/ccBrbIdT.s 			page 72


 2743              	.LASF115:
 2744 04b4 63756D75 		.ascii	"cumulative\000"
 2744      6C617469 
 2744      766500
 2745              	.LASF21:
 2746 04bf 74726566 		.ascii	"trefs_t\000"
 2746      735F7400 
 2747              	.LASF108:
 2748 04c7 74625F62 		.ascii	"tb_buffer\000"
 2748      75666665 
 2748      7200
 2749              	.LASF63:
 2750 04d1 76697274 		.ascii	"virtual_timer_t\000"
 2750      75616C5F 
 2750      74696D65 
 2750      725F7400 
 2751              	.LASF30:
 2752 04e1 705F7072 		.ascii	"p_prev\000"
 2752      657600
 2753              	.LASF22:
 2754 04e8 74707269 		.ascii	"tprio_t\000"
 2754      6F5F7400 
 2755              	.LASF118:
 2756 04f0 6E5F6374 		.ascii	"n_ctxswc\000"
 2756      78737763 
 2756      00
 2757              	.LASF138:
 2758 04f9 5F426F6F 		.ascii	"_Bool\000"
 2758      6C00
 2759              	.LASF14:
 2760 04ff 696E7433 		.ascii	"int32_t\000"
 2760      325F7400 
 2761              	.LASF2:
 2762 0507 756E7369 		.ascii	"unsigned char\000"
 2762      676E6564 
 2762      20636861 
 2762      7200
 2763              	.LASF44:
 2764 0515 705F6D74 		.ascii	"p_mtxlist\000"
 2764      786C6973 
 2764      7400
 2765              	.LASF3:
 2766 051f 73686F72 		.ascii	"short int\000"
 2766      7420696E 
 2766      7400
 2767              	.LASF37:
 2768 0529 705F7374 		.ascii	"p_state\000"
 2768      61746500 
 2769              	.LASF57:
 2770 0531 725F7072 		.ascii	"r_prio\000"
 2770      696F00
 2771              	.LASF128:
 2772 0538 65776D61 		.ascii	"ewmask\000"
 2772      736B00
 2773              	.LASF29:
 2774 053f 705F6E65 		.ascii	"p_next\000"
 2774      787400
ARM GAS  /tmp/ccBrbIdT.s 			page 73


 2775              	.LASF13:
 2776 0546 75696E74 		.ascii	"uint8_t\000"
 2776      385F7400 
 2777              	.LASF47:
 2778 054e 705F7374 		.ascii	"p_stats\000"
 2778      61747300 
 2779              	.LASF64:
 2780 0556 63685F76 		.ascii	"ch_virtual_timer\000"
 2780      69727475 
 2780      616C5F74 
 2780      696D6572 
 2780      00
 2781              	.LASF142:
 2782 0567 73745F6C 		.ascii	"st_lld_get_alarm\000"
 2782      6C645F67 
 2782      65745F61 
 2782      6C61726D 
 2782      00
 2783              	.LASF129:
 2784 0578 63685F73 		.ascii	"ch_semaphore\000"
 2784      656D6170 
 2784      686F7265 
 2784      00
 2785              	.LASF99:
 2786 0585 43435852 		.ascii	"CCXR\000"
 2786      00
 2787              	.LASF43:
 2788 058a 705F6570 		.ascii	"p_epending\000"
 2788      656E6469 
 2788      6E6700
 2789              	.LASF15:
 2790 0595 75696E74 		.ascii	"uint32_t\000"
 2790      33325F74 
 2790      00
 2791              	.LASF127:
 2792 059e 77746D74 		.ascii	"wtmtxp\000"
 2792      787000
 2793              	.LASF56:
 2794 05a5 725F7175 		.ascii	"r_queue\000"
 2794      65756500 
 2795              	.LASF67:
 2796 05ad 76745F64 		.ascii	"vt_delta\000"
 2796      656C7461 
 2796      00
 2797              	.LASF51:
 2798 05b6 63685F74 		.ascii	"ch_threads_list\000"
 2798      68726561 
 2798      64735F6C 
 2798      69737400 
 2799              	.LASF9:
 2800 05c6 6C6F6E67 		.ascii	"long unsigned int\000"
 2800      20756E73 
 2800      69676E65 
 2800      6420696E 
 2800      7400
 2801              	.LASF146:
 2802 05d8 73745374 		.ascii	"stStopAlarm\000"
ARM GAS  /tmp/ccBrbIdT.s 			page 74


 2802      6F70416C 
 2802      61726D00 
 2803              	.LASF136:
 2804 05e4 63686172 		.ascii	"char\000"
 2804      00
 2805              	.LASF97:
 2806 05e9 444D4152 		.ascii	"DMAR\000"
 2806      00
 2807              	.LASF28:
 2808 05ee 74687265 		.ascii	"thread_t\000"
 2808      61645F74 
 2808      00
 2809              	.LASF112:
 2810 05f7 62657374 		.ascii	"best\000"
 2810      00
 2811              	.LASF135:
 2812 05fc 6D5F6E65 		.ascii	"m_next\000"
 2812      787400
 2813              	.LASF27:
 2814 0603 73797374 		.ascii	"systime_t\000"
 2814      696D655F 
 2814      7400
 2815              	.LASF45:
 2816 060d 705F7265 		.ascii	"p_realprio\000"
 2816      616C7072 
 2816      696F00
 2817              	.LASF62:
 2818 0618 76746675 		.ascii	"vtfunc_t\000"
 2818      6E635F74 
 2818      00
 2819              	.LASF8:
 2820 0621 5F5F7569 		.ascii	"__uint32_t\000"
 2820      6E743332 
 2820      5F7400
 2821              	.LASF75:
 2822 062c 70616E69 		.ascii	"panic_msg\000"
 2822      635F6D73 
 2822      6700
 2823              	.LASF110:
 2824 0636 6F666673 		.ascii	"offset\000"
 2824      657400
 2825              	.LASF147:
 2826 063d 73745374 		.ascii	"stStartAlarm\000"
 2826      61727441 
 2826      6C61726D 
 2826      00
 2827              	.LASF89:
 2828 064a 636F6E74 		.ascii	"context\000"
 2828      65787400 
 2829              	.LASF42:
 2830 0652 705F6D73 		.ascii	"p_msg\000"
 2830      6700
 2831              	.LASF17:
 2832 0658 7274636E 		.ascii	"rtcnt_t\000"
 2832      745F7400 
 2833              	.LASF156:
 2834 0660 73745F6C 		.ascii	"st_lld_stop_alarm\000"
ARM GAS  /tmp/ccBrbIdT.s 			page 75


 2834      6C645F73 
 2834      746F705F 
 2834      616C6172 
 2834      6D00
 2835              	.LASF69:
 2836 0672 76745F70 		.ascii	"vt_par\000"
 2836      617200
 2837              	.LASF52:
 2838 0679 74687265 		.ascii	"threads_queue_t\000"
 2838      6164735F 
 2838      71756575 
 2838      655F7400 
 2839              	.LASF132:
 2840 0689 63685F6D 		.ascii	"ch_mutex\000"
 2840      75746578 
 2840      00
 2841              	.LASF39:
 2842 0692 705F7265 		.ascii	"p_refs\000"
 2842      667300
 2843              	.LASF76:
 2844 0699 6973725F 		.ascii	"isr_cnt\000"
 2844      636E7400 
 2845              	.LASF81:
 2846 06a1 726C6973 		.ascii	"rlist\000"
 2846      7400
 2847              	.LASF148:
 2848 06a7 73745365 		.ascii	"stSetAlarm\000"
 2848      74416C61 
 2848      726D00
 2849              	.LASF157:
 2850 06b2 73744765 		.ascii	"stGetAlarm\000"
 2850      74416C61 
 2850      726D00
 2851              	.LASF124:
 2852 06bd 77746F62 		.ascii	"wtobjp\000"
 2852      6A7000
 2853              	.LASF35:
 2854 06c4 705F6E61 		.ascii	"p_name\000"
 2854      6D6500
 2855              	.LASF49:
 2856 06cb 74687265 		.ascii	"threads_list_t\000"
 2856      6164735F 
 2856      6C697374 
 2856      5F7400
 2857              	.LASF144:
 2858 06da 61627374 		.ascii	"abstime\000"
 2858      696D6500 
 2859              	.LASF78:
 2860 06e2 74726163 		.ascii	"trace_buffer\000"
 2860      655F6275 
 2860      66666572 
 2860      00
 2861              	.LASF38:
 2862 06ef 705F666C 		.ascii	"p_flags\000"
 2862      61677300 
 2863              	.LASF140:
 2864 06f7 73745F6C 		.ascii	"st_lld_set_alarm\000"
ARM GAS  /tmp/ccBrbIdT.s 			page 76


 2864      6C645F73 
 2864      65745F61 
 2864      6C61726D 
 2864      00
 2865              	.LASF119:
 2866 0708 6D5F6372 		.ascii	"m_crit_thd\000"
 2866      69745F74 
 2866      686400
 2867              	.LASF134:
 2868 0713 6D5F6F77 		.ascii	"m_owner\000"
 2868      6E657200 
 2869              	.LASF103:
 2870 071b 73655F77 		.ascii	"se_wtobjp\000"
 2870      746F626A 
 2870      7000
 2871              	.LASF32:
 2872 0725 705F6374 		.ascii	"p_ctx\000"
 2872      7800
 2873              	.LASF68:
 2874 072b 76745F66 		.ascii	"vt_func\000"
 2874      756E6300 
 2875              		.comm	__gnu_lto_v1,1,1
 2876              		.ident	"GCC: (4.8.2-14ubuntu1+6) 4.8.2"
ARM GAS  /tmp/ccBrbIdT.s 			page 77


DEFINED SYMBOLS
                            *ABS*:0000000000000000 st.c
     /tmp/ccBrbIdT.s:348    .text.st_lld_start_alarm:0000000000000000 $t
     /tmp/ccBrbIdT.s:353    .text.st_lld_start_alarm:0000000000000000 st_lld_start_alarm
     /tmp/ccBrbIdT.s:384    .text.st_lld_stop_alarm:0000000000000000 $t
     /tmp/ccBrbIdT.s:389    .text.st_lld_stop_alarm:0000000000000000 st_lld_stop_alarm
     /tmp/ccBrbIdT.s:406    .text.st_lld_set_alarm:0000000000000000 $t
     /tmp/ccBrbIdT.s:411    .text.st_lld_set_alarm:0000000000000000 st_lld_set_alarm
     /tmp/ccBrbIdT.s:433    .text.st_lld_get_alarm:0000000000000000 $t
     /tmp/ccBrbIdT.s:438    .text.st_lld_get_alarm:0000000000000000 st_lld_get_alarm
     /tmp/ccBrbIdT.s:455    .text.st_lld_is_alarm_active:0000000000000000 $t
     /tmp/ccBrbIdT.s:460    .text.st_lld_is_alarm_active:0000000000000000 st_lld_is_alarm_active
     /tmp/ccBrbIdT.s:483    .text.stInit:0000000000000000 $t
     /tmp/ccBrbIdT.s:489    .text.stInit:0000000000000000 stInit
     /tmp/ccBrbIdT.s:508    .text.stStartAlarm:0000000000000000 $t
     /tmp/ccBrbIdT.s:514    .text.stStartAlarm:0000000000000000 stStartAlarm
     /tmp/ccBrbIdT.s:653    .rodata.__func__.7427:0000000000000000 __func__.7427
     /tmp/ccBrbIdT.s:547    .text.stStopAlarm:0000000000000000 $t
     /tmp/ccBrbIdT.s:553    .text.stStopAlarm:0000000000000000 stStopAlarm
     /tmp/ccBrbIdT.s:571    .text.stSetAlarm:0000000000000000 $t
     /tmp/ccBrbIdT.s:577    .text.stSetAlarm:0000000000000000 stSetAlarm
     /tmp/ccBrbIdT.s:659    .rodata.__func__.7434:0000000000000000 __func__.7434
     /tmp/ccBrbIdT.s:612    .text.stGetAlarm:0000000000000000 $t
     /tmp/ccBrbIdT.s:618    .text.stGetAlarm:0000000000000000 stGetAlarm
     /tmp/ccBrbIdT.s:665    .rodata.__func__.7438:0000000000000000 __func__.7438
     /tmp/ccBrbIdT.s:650    .rodata.__func__.7427:0000000000000000 $d
     /tmp/ccBrbIdT.s:656    .rodata.__func__.7434:0000000000000000 $d
     /tmp/ccBrbIdT.s:662    .rodata.__func__.7438:0000000000000000 $d
                            *COM*:0000000000000001 __gnu_lto_v1
                     .debug_frame:0000000000000010 $d

UNDEFINED SYMBOLS
st_lld_init
chSysHalt
