ARM GAS  /tmp/ccBrbIdT.s 			page 1


   1              		.syntax unified
   2              		.cpu cortex-m4
   3              		.fpu softvfp
   4              		.eabi_attribute 20, 1
   5              		.eabi_attribute 21, 1
   6              		.eabi_attribute 23, 3
   7              		.eabi_attribute 24, 1
   8              		.eabi_attribute 25, 1
   9              		.eabi_attribute 26, 1
  10              		.eabi_attribute 30, 6
  11              		.eabi_attribute 34, 1
  12              		.eabi_attribute 18, 4
  13              		.thumb
  14              		.file	"st.c"
  15              		.text
  16              	.Ltext0:
  17              		.section	.gnu.lto_.inline.5f3a24a6d5f30b73,"",%progbits
  18 0000 789C6362 		.ascii	"x\234cb`b\300\006\336Bi.\006\0066V\006\006&\216\011"
  18      6062C006 
  18      DE42692E 
  18      06063656 
  18      0606268E 
  19 0015 7E0C2C10 		.ascii	"~\014,\020\265\214\014,\314@\021\226\017z0\021&\014"
  19      B58C0C2C 
  19      CC401196 
  19      0F7A3011 
  19      260C
  20 0027 11660C11 		.ascii	"\021f\014\021\026\014sX\031Xx\200\"L\013\344\341&\003"
  20      160C7358 
  20      19587880 
  20      224C0BE4 
  20      E12603
  21 003a 6D636063 		.ascii	"mc`c\340V\005\012\263\035\260\203\033\317\215Bp`\327"
  21      E056050A 
  21      B31DB083 
  21      1BCF8D42 
  21      7060D7
  22 004d C7C9C0A3 		.ascii	"\307\311\300\243\206j\001\232>nB\012\030\000\362\223"
  22      866A019A 
  22      3E6E420A 
  22      1800F293 
  23 005d 0C6B     		.ascii	"\014k"
  24              		.text
  25              		.section	.gnu.lto_st_lld_start_alarm.5f3a24a6d5f30b73,"",%progbits
  26 0000 789C6362 		.ascii	"x\234cb`b@\007\"@\254\016\0246\001q\230\031\030\201"
  26      60624007 
  26      2240AC0E 
  26      14360171 
  26      98191881 
  27 0014 4C462646 		.ascii	"LF&FF \207\221\241\236\211\261>\222\021,\241\304\260"
  27      46208791 
  27      A19E89B1 
  27      3E92112C 
  27      A1C4B0
  28 0027 B0A161D2 		.ascii	"\260\241a\322\203\247\353~2\316\234r\240eA\303\237\377"
  28      83A7EB7E 
  28      32CE9C72 
ARM GAS  /tmp/ccBrbIdT.s 			page 2


  28      A06541C3 
  28      9FFF
  29 0039 FF191933 		.ascii	"\377\031\0313A\222\311\214\014\021@\026\243\002\230"
  29      4192C98C 
  29      0C114016 
  29      A30298
  30 0048 62624135 		.ascii	"bbA5\037\242\361\300\217S=\\\023\032;\032\376\377\257"
  30      1FA2F1C0 
  30      8F533D5C 
  30      131A3B1A 
  30      FEFFAF
  31 005b 275ED32F 		.ascii	"'^\323/\2224\255g:\360\340\377\3779\327\367<\336\307"
  31      9234AD67 
  31      3AF0E0FF 
  31      FF39D7F7 
  31      3CDEC7
  32 006e 28C4CAC8 		.ascii	"(\304\312\310\000\324\302\304\230\313\010\364\024\220"
  32      00D4C2C4 
  32      98CB08F4 
  32      1490
  33 007c C5C20036 		.ascii	"\305\302\0006\201\201\225\241\245\241a\202\002\330,"
  33      818195A1 
  33      A5A16182 
  33      02D82C
  34 008b 20080193 		.ascii	" \010\001\223\241 _3\237eh\332\361\003\350\277D\306"
  34      A1205F33 
  34      9F6568DA 
  34      F103E8BF 
  34      44C6
  35 009d 258CAC0C 		.ascii	"%\214\254\014\351\214\214 K\030\032\200\000d\321Y\206"
  35      E98C8C20 
  35      4B181A80 
  35      0064D159 
  35      86
  36 00ae 43A727F0 		.ascii	"C\247'\360A\344t\031\3264\26446Df22k3\254\0021\3553"
  36      41E47419 
  36      D634B434 
  36      36446632 
  36      326B33AC 
  37 00c6 19596633 		.ascii	"\031Yf3\314\002j`\205i\004\203$(\015\022a\203\2734\035"
  37      CC026A60 
  37      85690483 
  37      24280D12 
  37      6183BB34 
  38 00db 641FC8BA 		.ascii	"d\037\310\272\216\365p\333\230\321m\333\001\263\015"
  38      8EF570DB 
  38      98D16DDB 
  38      01B30D
  39 00ea 610533DC 		.ascii	"a\0053\334\012fd+\030\341V030@\014^\2010\230\205$\203"
  39      0A66642B 
  39      18E15630 
  39      3330400C 
  39      5E813098 
  40 0101 59900D66 		.ascii	"Y\220\015fB\030\014b^dh|\260O\025\242\027\006B@\266"
  40      42180C62 
  40      5E64687C 
  40      B04F15A2 
ARM GAS  /tmp/ccBrbIdT.s 			page 3


  40      17064240 
  41 0116 83248DF4 		.ascii	"\203$\215\364\364\364\341(\277X?#1G\277 \277\250\244"
  41      F4F4E128 
  41      BF583F23 
  41      3147BF20 
  41      BFA8A4
  42 0129 583F38C4 		.ascii	"X?8\304\327\330H\337\307\307E?\304\323\267\314P\277"
  42      D7D848DF 
  42      C7C7453F 
  42      C4D3B7CC 
  42      50BF
  43 013b B8243E27 		.ascii	"\270$>''E/\203\001\000u\260\210\201"
  43      27452F83 
  43      010075B0 
  43      8881
  44              		.text
  45              		.section	.gnu.lto_st_lld_stop_alarm.5f3a24a6d5f30b73,"",%progbits
  46 0000 789C6362 		.ascii	"x\234cb`b@\007\"@\374\034\210M@\034f\006F\240\012F&"
  46      60624007 
  46      2240FC1C 
  46      884D401C 
  46      660646A0 
  47 0017 46462087 		.ascii	"FF \207\221\241\236\211\261>\022\304d`TbX\330\3200\351"
  47      91A19E89 
  47      B13E12C4 
  47      64605462 
  47      58D8D030 
  48 002c C1D3CD3F 		.ascii	"\301\323\315?\031gN9\320\262\240\341\317\377\377\214"
  48      19674E39 
  48      D0B2A0E1 
  48      CFFFFF8C 
  49 003c 8C9920C9 		.ascii	"\214\231 \311dF\206\010 \213Q\001L1\261\240\232\277"
  49      64468608 
  49      208B5101 
  49      4C31B1A0 
  49      9ABF
  50 004e 9EE9C083 		.ascii	"\236\351\300\203\377\377\357\334\374\360\350\006\243"
  50      FFFFEFDC 
  50      FCF0E806 
  50      A3
  51 005b 10132303 		.ascii	"\020\023#\003X\013\003+CKC\303\004\005\260f \010\001"
  51      580B032B 
  51      434B43C3 
  51      0405B066 
  51      200801
  52 006e 93A120CB 		.ascii	"\223\241 \313\231\31724\355\370\001\264&\221q\021#+"
  52      99CF3234 
  52      EDF801B4 
  52      26917111 
  52      232B
  53 0080 433A2323 		.ascii	"C:##\310T\206\006 \000\231|\226\341\320\216\013\334"
  53      C8548606 
  53      2000997C 
  53      96E1D08E 
  53      0BDC
  54 0092 10396D86 		.ascii	"\0209m\206U\015-\215\015\366\231\214\314\263\031f\001"
  54      550D2D8D 
ARM GAS  /tmp/ccBrbIdT.s 			page 4


  54      0DF6998C 
  54      CCB31966 
  54      01
  55 00a3 55B1C054 		.ascii	"U\261\300T\203A\022\224\006\2110\203\030\027\031\032"
  55      83411294 
  55      06893083 
  55      1817191A 
  56 00b3 1FDC5085 		.ascii	"\037\334P\205\350\205\201\020\220WA\241b\244\247\247"
  56      E8858110 
  56      905741A1 
  56      62A4A7A7 
  57 00c3 0F47F9C5 		.ascii	"\017G\371\305\372\031\2119\372\005\371E%\305\372\301"
  57      FA198939 
  57      FA05F945 
  57      25C5FAC1 
  58 00d3 21BEC646 		.ascii	"!\276\306F\372>>.\372!\236\276e\206\372\305%\36199)"
  58      FA3E3E2E 
  58      FA219EBE 
  58      6586FAC5 
  58      25F13939 
  59 00e8 7A190C00 		.ascii	"z\031\014\000\030EE\255"
  59      184545AD 
  60              		.text
  61              		.section	.gnu.lto_st_lld_set_alarm.5f3a24a6d5f30b73,"",%progbits
  62 0000 789C6362 		.ascii	"x\234cb`b@\007\"@\314\310\310\300`\002\342030\002U0"
  62      60624007 
  62      2240CCC8 
  62      C8C06002 
  62      E2303330 
  63 0017 32810418 		.ascii	"2\201\004\030\030\031\352\231\030\353#AL\006F%\206\205"
  63      1819EA99 
  63      18EB2341 
  63      4C064625 
  63      8685
  64 0029 0D0D931E 		.ascii	"\015\015\223\036<\335\365\223q\346\224\003-\013\032"
  64      3CDDF593 
  64      71E69403 
  64      2D0B1A
  65 0038 FEFCFFCF 		.ascii	"\376\374\377\317\310\230\011\222Lfd\210\000\262\030"
  65      C8980992 
  65      4C666488 
  65      00B218
  66 0047 15C01413 		.ascii	"\025\300\024\023\013\252\371\353\231\016<\370\377\177"
  66      0BAAF9EB 
  66      990E3CF8 
  66      FF7F
  67 0055 CEDD2D8F 		.ascii	"\316\335-\217\3370\012132\000\26501\346\202\015eehi"
  67      DF300A31 
  67      333200B5 
  67      3031E682 
  67      0D656568 
  68 006a 6898A000 		.ascii	"h\230\240\0006\001\010B\300d(\310\005\314g\031\232v"
  68      36010842 
  68      C06428C8 
  68      05CC6719 
  68      9A76
  69 007c FC00DA95 		.ascii	"\374\000\332\225\310\270\210\221\225!\235\221\021d4"
ARM GAS  /tmp/ccBrbIdT.s 			page 5


  69      C8B88891 
  69      95219D91 
  69      116434
  70 008b 43031080 		.ascii	"C\003\020\200\214?\313p\350\364\004>\210\234.\303\232"
  70      8C3FCB70 
  70      E8F4043E 
  70      889C2EC3 
  70      9A
  71 009c 8696C686 		.ascii	"\206\226\306\206\310LFfm\206U \246}&#\313l\206Y@\015"
  71      C84C4666 
  71      6D865520 
  71      A67D2623 
  71      CB6C8659 
  72 00b2 AC308D60 		.ascii	"\2540\215`\220\004\245A\"lp\367\245\203\354\273\310"
  72      9004A541 
  72      226C70F7 
  72      A583ECBB 
  72      C8
  73 00c3 D0F8E08D 		.ascii	"\320\370\340\215*\304@\030\010\001\005\002(\274\214"
  73      2AC44018 
  73      08010502 
  73      28BC8C
  74 00d2 F4F4F4E1 		.ascii	"\364\364\364\341(\277X?#1G\277 \277\250\244X?8\304\327"
  74      28BF583F 
  74      233147BF 
  74      20BFA8A4 
  74      583F38C4 
  75 00e7 D848DFC7 		.ascii	"\330H\337\307\307E?\304\323\267\314P\277\270$>''E/\203"
  75      C7453FC4 
  75      D3B7CC50 
  75      BFB8243E 
  75      2727452F 
  76 00fc 010075AF 		.ascii	"\001\000u\257H\342"
  76      48E2
  77              		.text
  78              		.section	.gnu.lto_st_lld_get_alarm.5f3a24a6d5f30b73,"",%progbits
  79 0000 789C6362 		.ascii	"x\234cb`b@\007\322@\354\301\310\300`\002\342\26000\002"
  79      60624007 
  79      D240ECC1 
  79      C8C06002 
  79      E2B03030 
  80 0015 55303231 		.ascii	"U0212\003IfF\2400\003#C=\0233c}$\210\315\300\244\304"
  80      32034966 
  80      46A03003 
  80      23433D13 
  80      33637D24 
  81 002e B0B0A161 		.ascii	"\260\260\241a\326\203\247\373gJv-h\232\320\360\357\377"
  81      D683A7FB 
  81      674A762D 
  81      689AD0F0 
  81      EFFF
  82 0040 7FC64C90 		.ascii	"\177\306L\220T2#C\004\220\305\250\000\246\230XP-\001"
  82      54322343 
  82      0490C5A8 
  82      00A69858 
  82      502D01
  83 0053 6B9BD430 		.ascii	"k\233\3240\371i\300\211\206\226\003\377\377\333g\202"
ARM GAS  /tmp/ccBrbIdT.s 			page 6


  83      F969C089 
  83      869603FF 
  83      FFDB6782 
  84 0063 6CC0AF67 		.ascii	"l\300\257g=\323\201\007\377\377\337\271\277\340q\007"
  84      3DD38107 
  84      FFFFDFB9 
  84      BFE07107 
  85 0073 A3303323 		.ascii	"\24303#\003P\013\023\003\330.\006V\206\226\206\206\011"
  85      03500B13 
  85      03D82E06 
  85      56869686 
  85      8609
  86 0085 0A601380 		.ascii	"\012`\023\200 \004L\206\202\234\316|\226\241i\307\217"
  86      20044C86 
  86      829CCE7C 
  86      96A169C7 
  86      8F
  87 0096 FD275912 		.ascii	"\375'Y\022\031\0273\2622\24432\202\214fn\000\002\220"
  87      191733B2 
  87      32A43332 
  87      828C666E 
  87      000290
  88 00a9 F167190E 		.ascii	"\361g\031\016\335)\200I1\3512\254ihil0\315dd\321fX\005"
  88      DD298049 
  88      31E932AC 
  88      6968696C 
  88      30CD6464 
  89 00c1 624E062A 		.ascii	"bN\006*f\235\3150\013H\261\301\364\202\035\223\304\010"
  89      669DCD30 
  89      0B48B1C1 
  89      F4821D93 
  89      C408
  90 00d3 71144884 		.ascii	"q\024H\204\035-\004CAj\230O34r00\244\200\324]dh<\300"
  90      1D2D0443 
  90      416A984F 
  90      33347230 
  90      30A480D4 
  91 00ec 0CB705A2 		.ascii	"\014\267\005\242(\004\024\230 \266\221\236\236>\034"
  91      28041498 
  91      20B6919E 
  91      9E3E1C
  92 00fb E517EB67 		.ascii	"\345\027\353g$\346\350\027\344\027\225\024\353\007\207"
  92      24E6E817 
  92      E4179514 
  92      EB0787
  93 010a F81A1BE9 		.ascii	"\370\032\033\351\373\370\270\350\207x\372\226\031\352"
  93      FBF8B8E8 
  93      8778FA96 
  93      19EA
  94 0118 1797C4E7 		.ascii	"\027\227\304\347\344\244\350e0\000\000\237\241U%"
  94      E4A4E865 
  94      3000009F 
  94      A15525
  95              		.text
  96              		.section	.gnu.lto_st_lld_is_alarm_active.5f3a24a6d5f30b73,"",%progbits
  97 0000 789C6362 		.ascii	"x\234cb`b@\007\322@|\211\221\201\301\004\304aa`\004"
  97      60624007 
ARM GAS  /tmp/ccBrbIdT.s 			page 7


  97      D2407C89 
  97      9181C104 
  97      C4616160 
  98 0015 AA606462 		.ascii	"\252`dbd\006\222\314\214@a\006F\206z&f\306\372HF\260"
  98      640692CC 
  98      8C406106 
  98      46867A26 
  98      66C6FA48 
  99 002b BC12C3C2 		.ascii	"\274\022\303\302\206\206Y\017\226>\237)\336\365\240"
  99      8686590F 
  99      963E9F29 
  99      DEF5A0
 100 003a 6142C3BF 		.ascii	"aB\303\277\377\377\0313AR\311\214\014\021@\026#\007"
 100      FFFF1933 
 100      4152C98C 
 100      0C114016 
 100      2307
 101 004c 98626244 		.ascii	"\230bbD\265\004\254mR\303\337'\001'\032Z\016\374\377"
 101      B504AC6D 
 101      52C3DF27 
 101      01271A5A 
 101      0EFCFF
 102 005f 6F9F09B2 		.ascii	"o\237\011\262\001\246G\001\242\207\005\253\236M+\032"
 102      01A64701 
 102      A28705AB 
 102      9E4D2B1A 
 103 006f 381734FC 		.ascii	"8\0274\374\371\377\2379\223\221\205H=\263\237\"\354"
 103      F9FF9F39 
 103      93918548 
 103      3DB39F22 
 103      EC
 104 0080 21A8673D 		.ascii	"!\250g=\323\201\007\377\377\357\371\274\344\361<FaV"
 104      D38107FF 
 104      FFEFF9BC 
 104      E4F13C46 
 104      6156
 105 0092 4606A0D3 		.ascii	"F\006\240\323\230\200\004\0133\210`a\000\373\216\201"
 105      9880040B 
 105      33886061 
 105      00FB8E81 
 106 00a2 95A1A5A1 		.ascii	"\225\241\245\241a\202\002\330, \010\001\223\241\240"
 106      618202D8 
 106      2C200801 
 106      93A1A0
 107 00b1 C0623ECB 		.ascii	"\300b>\313\320\264c\307\363\217\314\211\214K\031Y\031"
 107      D0B463C7 
 107      F38FCC89 
 107      8C4B1959 
 107      19
 108 00c2 D2191941 		.ascii	"\322\031\031A\22607\000\001\310\242\263\014\207\242"
 108      96303700 
 108      01C8A2B3 
 108      0C87A2
 109 00d1 60324CDA 		.ascii	"`2L\332\014\253\032Z\200\262\254\263\031f\001)6\230"
 109      0CAB1A5A 
 109      80B2ACB3 
 109      19660129 
ARM GAS  /tmp/ccBrbIdT.s 			page 8


 109      3698
 110 00e3 62B03B92 		.ascii	"b\260;\222\340av\226\241yw\3636&\2306f\240N\2202\026"
 110      E0617696 
 110      A17977F3 
 110      36269836 
 110      66A04E90 
 111 00f9 2688DC8D 		.ascii	"&\210\334\215f>\230\024\013P\026,\005\323\032\0122\214"
 111      663E9814 
 111      0B50162C 
 111      05D31A0A 
 111      328C
 112 010b F9344323 		.ascii	"\3714C#\007\003C\012\310\300\213\014\214p\305\020%!"
 112      0703430A 
 112      C8C08B0C 
 112      8C70C510 
 112      2521
 113 011d A0680519 		.ascii	"\240h\005\031e\244\247\247\017G\371\305\372\031\211"
 113      65A4A7A7 
 113      0F47F9C5 
 113      FA1989
 114 012c 39FA05F9 		.ascii	"9\372\005\371E%\305\372\301!\276\306F\372>>.\372!\236"
 114      4525C5FA 
 114      C121BEC6 
 114      46FA3E3E 
 114      2EFA219E 
 115 0140 BE6586FA 		.ascii	"\276e\206\372\305%\36199)z\031\014\000\206/q\257"
 115      C525F139 
 115      39297A19 
 115      0C00862F 
 115      71AF
 116              		.text
 117              		.section	.gnu.lto_stInit.5f3a24a6d5f30b73,"",%progbits
 118 0000 789C6362 		.ascii	"x\234cb`b@\007\"@\\\014\304r \0163\003#P\005#\023##"
 118      60624007 
 118      22405C0C 
 118      C472200E 
 118      33032350 
 119 0019 90C3C850 		.ascii	"\220\303\310P\317\304X\037\311\010V\266\236\351\300"
 119      CFC4581F 
 119      C90856B6 
 119      9EE9C0
 120 0028 83FFFFD7 		.ascii	"\203\377\377\327\375X\373\260\036,\311\312\320\322\320"
 120      FD58FBB0 
 120      1E2CC9CA 
 120      D0D2D0
 121 0037 30418181 		.ascii	"0A\201\201!\031,\037\002&CA\272\231\31734?\370g\223"
 121      21192C1F 
 121      02264341 
 121      BA99CF33 
 121      343FF867 
 122 004c C8B89091 		.ascii	"\310\270\220\221\025(V\315\360\253\241\243A \223\021"
 122      152856CD 
 122      F0ABA1A3 
 122      41209311 
 123 005c A8126254 		.ascii	"\250\022bT&\210\276\310\320\370\340?\023L\021\004\204"
 123      2688BEC8 
 123      D0F8E03F 
ARM GAS  /tmp/ccBrbIdT.s 			page 9


 123      134C1104 
 123      84
 124 006d 8024402E 		.ascii	"\200$@.\224\321\323\323\207\243\374b\375\214\304\034"
 124      94D1D3D3 
 124      87A3FC62 
 124      FD8CC41C 
 125 007d FDE2A264 		.ascii	"\375\342\242d\375\342\022\275d\006\000\030'\"^"
 125      FDE212BD 
 125      64060018 
 125      27225E
 126              		.text
 127              		.section	.gnu.lto_stStartAlarm.5f3a24a6d5f30b73,"",%progbits
 128 0000 789C6550 		.ascii	"x\234eP-O\0041\024\234i\267\307\021\014(\020\204\020"
 128      2D4F0431 
 128      149C69B7 
 128      C7110C28 
 128      108410
 129 0013 F0BBFF04 		.ascii	"\360\273\377\004u\227\034\362Rq4aC\302\342\020W\302"
 129      75971CF2 
 129      52713461 
 129      43C2E210 
 129      57C2
 130 0025 0A82BAA0 		.ascii	"\012\202\272\240p\004P\234A`\220H\034\301#6$\004\303"
 130      7004509C 
 130      41609048 
 130      1CC12336 
 130      2404C3
 131 0038 2F40B0BC 		.ascii	"/@\260\274\356\356-\001&\355{\375\230\367fZ\005\205"
 131      EEEE2D01 
 131      26ED7BFD 
 131      98F7665A 
 131      0585
 132 004a BF48646E 		.ascii	"\277Hdn\021X\013\233\016(\014*j\211ZE\200WFB\024Q\022"
 132      11580B9B 
 132      0E280C2A 
 132      6A895A45 
 132      80574642 
 133 0061 0D850862 		.ascii	"\015\205\010b\254td8\336\016;\250\015\\z\177V\274\275"
 133      AC746438 
 133      DE0E3BA8 
 133      0D5C7A7F 
 133      56BCBD
 134 0074 9F2F9F16 		.ascii	"\237/\237\026~\342\277\312\222.\\Yb +v\253\244\370["
 134      7EE2BFCA 
 134      922E5C59 
 134      62202B76 
 134      ABA4F85B 
 135 0088 38256ED5 		.ascii	"8%n\325CQ\226/w\367\257S.iB\252\024\323J\304 \367~\262"
 135      4351962F 
 135      77F7AF53 
 135      2E6942AA 
 135      14D34AC4 
 136 00a0 9E367D04 		.ascii	"\2366}\004\275&\212A\335\017\006\365\023\216\213\013"
 136      BD268A41 
 136      DD0F06F5 
 136      138E8B0B 
 137 00b0 3BE49598 		.ascii	";\344\225\230\033\221\207\370\364'~\321Q[\326Z\216\362"
ARM GAS  /tmp/ccBrbIdT.s 			page 10


 137      1B9187F8 
 137      F4277ED1 
 137      515BD65A 
 137      8EF2
 138 00c2 8247E41F 		.ascii	"\202G\344\037lI\203\332\332\017\372\201#\255\242\232"
 138      6C4983DA 
 138      DA0FFA81 
 138      23ADA29A 
 139 00d2 02B46D8C 		.ascii	"\002\264m\214e\375]\341d\305\261#f\032\222\343\334\254"
 139      65FD5DE1 
 139      64C5B123 
 139      661A92E3 
 139      DCAC
 140 00e4 DA54D579 		.ascii	"\332T\325yqs\275\360\257C\327\006\237\202\021\225\343"
 140      7173BDF0 
 140      AF43D706 
 140      9F821195 
 140      E3
 141 00f5 3CF08CA3 		.ascii	"<\360\214\243b\2729\343\325\350\005\263Ah5\216\223v"
 141      62BA39E3 
 141      D5E805B3 
 141      4168358E 
 141      9376
 142 0107 EC65C9CE 		.ascii	"\354e\311\316p7\311\366m\222\035\304\026\337J\352L\210"
 142      7037C9F6 
 142      6D921DC4 
 142      16DF4AEA 
 142      4C88
 143              		.text
 144              		.section	.gnu.lto_stStopAlarm.5f3a24a6d5f30b73,"",%progbits
 145 0000 789C6362 		.ascii	"x\234cb`b@\007\"@\\\006\304r \0163\003#P\005#\023##"
 145      60624007 
 145      22405C06 
 145      C472200E 
 145      33032350 
 146 0019 90C3C850 		.ascii	"\220\303\310P\317\304X\037\311\010V\266\236\351\300"
 146      CFC4581F 
 146      C90856B6 
 146      9EE9C0
 147 0028 83FFFFD7 		.ascii	"\203\377\377\327}k\233\363\206q6\023H\214\225\241\245"
 147      7D6B9BF3 
 147      86713613 
 147      488C95A1 
 147      A5
 148 0039 A1618202 		.ascii	"\241a\202\002\003C2XE\010\230\014\005\351g>\317\320"
 148      03433258 
 148      4508980C 
 148      05E9673E 
 148      CFD0
 149 004b FC606F33 		.ascii	"\374`o3w\"\343BFV\240`5\303\257\206\216\006\201LF\240"
 149      7722E342 
 149      4656A060 
 149      35C3AF86 
 149      8E06814C 
 150 0061 52886999 		.ascii	"R\210i\231 \372\"C\343\203}\3120E\020\020\002\222\000"
 150      20FA2243 
 150      E3837DCA 
ARM GAS  /tmp/ccBrbIdT.s 			page 11


 150      30451010 
 150      029200
 151 0074 3952464F 		.ascii	"9RFOO\037\216\362\213\3653\022s\364\213\213\222\365"
 151      4F1F8EF2 
 151      8BF53312 
 151      73F48B8B 
 151      92F5
 152 0086 8B4BF492 		.ascii	"\213K\364\222\031\000\214\012\"\356"
 152      19008C0A 
 152      22EE
 153              		.text
 154              		.section	.gnu.lto_stSetAlarm.5f3a24a6d5f30b73,"",%progbits
 155 0000 789C8D50 		.ascii	"x\234\215P\277/\004A\030}of\367\034\025\025\205\210"
 155      BF2F0441 
 155      187D6F66 
 155      F71C1515 
 155      8588
 156 0012 D0DFFE33 		.ascii	"\320\337\3763w\311)/S\254Ml$V\247\270\301\025\242\272"
 156      77C9292F 
 156      53AC4D6C 
 156      2456A7B8 
 156      C115A2BA 
 157 0026 A8441444 		.ascii	"\250D\024D\243BO\241\324\210\250\305eCtj\205\210\365"
 157      A3424FA1 
 157      D488A8C5 
 157      6543746A 
 157      8588F5
 158 0039 CDFE1234 		.ascii	"\315\376\0224^f\276\371\365\336\367}o\024\024~#\220"
 158      5E66BEF9 
 158      F5DEF77D 
 158      6F14147E 
 158      2390
 159 004b 794060CE 		.ascii	"y@`\316\035\032\2400\250\250%j\345\001V\371\022<\217"
 159      1D1AA030 
 159      A8A8256A 
 159      E50156F9 
 159      123C8F
 160 005e B2D0A710 		.ascii	"\262\320\247\020A\364\225\366|\366\227\334\011z\001"
 160      41F495F6 
 160      7CF697DC 
 160      097A01
 161 006d C7D6EEA5 		.ascii	"\307\326\356\245/o\373\323\273\251\035\332\317,c\344"
 161      2F6FFBD3 
 161      BBA91DDA 
 161      CF2C63E4 
 162 007d 9E0CD195 		.ascii	"\236\014\321\225\035\233\371\242\370\263p!\263g\247"
 162      1D9BF9A2 
 162      F8B37021 
 162      B367A7
 163 008c 561FD98F 		.ascii	"V\037\331\217,\323\377\320\304\304\271\272N\263\354"
 163      2CD3FFD0 
 163      C4C4B9BA 
 163      4EB3EC
 164 009b F0F2E269 		.ascii	"\360\362\342i\304)\217\020\225rA3\316\273\3631\260v"
 164      C4298F10 
 164      95724133 
 164      CEBBF331 
ARM GAS  /tmp/ccBrbIdT.s 			page 12


 164      B076
 165 00ad 381F97C9 		.ascii	"8\037\227\311\004\3552\2123\335q\316\364\035\266\323"
 165      04ED328A 
 165      33DD71CE 
 165      F41DB6D3 
 166 00bd 07D3E389 		.ascii	"\007\323\343\211\270\012\311\015\274\333\035;\031Q\033"
 166      B80AC90D 
 166      BCDB1D3B 
 166      19511B
 167 00cc 1605238A 		.ascii	"\026\005#\212\365[l]\351\212\244B\367t\203\301+\353"
 167      F55B6C5D 
 167      E98AA442 
 167      F77483C1 
 167      2BEB
 168 00de AB6E61F3 		.ascii	"\253na\363\033\035'\223\354^A\001\352\314\276a\361\365"
 168      1B1D2793 
 168      EC5E4101 
 168      EACCBE61 
 168      F1F5
 169 00f0 EE662662 		.ascii	"\356f&bC\372+I\021\307*\265\237\253\007\351\343\363"
 169      43FA2B49 
 169      11C72AB5 
 169      9FAB07E9 
 169      E3F3
 170 0102 C49F0C4D 		.ascii	"\304\237\014M\343Z\027\204\224\237\032\007\356\261\231"
 170      E35A1784 
 170      949F1A07 
 170      EEB199
 171 0111 8E162B5E 		.ascii	"\216\026+^\201\266k\322\025\232m\265\202z\254&\301r"
 171      81B66BD2 
 171      159A6DB5 
 171      827AAC26 
 171      C172
 172 0123 6F2548D6 		.ascii	"o%H\326L\220\254\267\014\276\000\012Y]H"
 172      4C90ACB7 
 172      0CBE000A 
 172      595D48
 173              		.text
 174              		.section	.gnu.lto_stGetAlarm.5f3a24a6d5f30b73,"",%progbits
 175 0000 789C8D51 		.ascii	"x\234\215Q\261J\003A\020}\263\273w\321TZi!\022\374\200"
 175      B14A0341 
 175      107DB3BB 
 175      77D1545A 
 175      692112FC 
 176 0015 5CE79718 		.ascii	"\\\347\227\030\210eX!\036\030\004\317\316\"\033M\021"
 176      88655821 
 176      1E1804CF 
 176      CE221B4D 
 176      11
 177 0026 C4225889 		.ascii	"\304\"X\211XD\260\260\322\037\020L\247 \"~\201gaga\035"
 177      5844B0B0 
 177      D21F104C 
 177      A720227E 
 177      81676167 
 178 003c 35EBECED 		.ascii	"5\353\354\355\345$V\016\273\263\273\263\357\315\274"
 178      E524560E 
 178      BBB3BBB3 
ARM GAS  /tmp/ccBrbIdT.s 			page 13


 178      EFCDBC
 179 004b 9D1510F8 		.ascii	"\235\025\020\370k\253<_\010Xv\207\022\210\021$H\262"
 179      6BAB3C5F 
 179      08587687 
 179      12881124 
 179      48B2
 180 005d 97420146 		.ascii	"\227B\001F\004\354\224\"^(\240\220}H\014\007\241-\244"
 180      04EC9422 
 180      5E28A090 
 180      7D480C07 
 180      A12DA4
 181 0070 0A426AAF 		.ascii	"\012Bj\257\273#\324\012\316\2159N\337\306'\013\207\251"
 181      BB23D40A 
 181      CE8D394E 
 181      DFC6270B 
 181      87A9
 182 0082 E99BB1B5 		.ascii	"\351\233\261\265\024\273+M\250\363\216f\262E\320t}O"
 182      14BB2B4D 
 182      A8F38E66 
 182      B245D074 
 182      7D4F
 183 0094 33579746 		.ascii	"3W\227F\016\314\227\265\362\277\234\323\341\350\356"
 183      0ECC97B5 
 183      F2BF9CD3 
 183      E1E8EE
 184 00a3 A8DCEFF4 		.ascii	"\250\334\357\364\214\265\355\330)\236\220*\236\244\246"
 184      8CB5EDD8 
 184      299E902A 
 184      9EA4A6
 185 00b2 492DC2B5 		.ascii	"I-\302\265\030\246\326\236\335~\274\216i^\021\270\224"
 185      18A6D69E 
 185      DD7EBC8E 
 185      695E11B8 
 185      94
 186 00c3 704E22E3 		.ascii	"pN\"\343#@\327\230~\245\225+`[\313=wE\326\034F>\341"
 186      2340D798 
 186      7EA5952B 
 186      605BCB3D 
 186      7745D61C 
 187 00da 20FDD40D 		.ascii	" \375\324\015\272\340\2164\211\36602=3\027\223\322\344"
 187      BAE08E34 
 187      89F63032 
 187      3D331793 
 187      D2E4
 188 00ec 55C6AE55 		.ascii	"U\306\256U\217\330\277\221\023\220h\272\253{t\337\251"
 188      8FD8BF91 
 188      139068BA 
 188      AB7B74DF 
 188      A9
 189 00fd 08D57D6F 		.ascii	"\010\325}o~\255F*\313\256<\004(2\207\232\374\267\271"
 189      7EAD462A 
 189      CBAE3C04 
 189      2832879A 
 189      FCB7B9
 190 0110 C8624C25 		.ascii	"\310bL%\326\227\203bnP\316\016\274\266\301wQV\026\031"
 190      D6978362 
 190      6E50CE0E 
ARM GAS  /tmp/ccBrbIdT.s 			page 14


 190      BCB6C177 
 190      51561619 
 191 0124 6675F63C 		.ascii	"fu\366<\207/O\360\374\223\362\001\035\346o8u\317(\264"
 191      872F4FF0 
 191      FC93F201 
 191      1DE66F38 
 191      75CF28B4 
 192 0138 79283F9A 		.ascii	"y(?\232\303\256\360R\265\032\025c;\2116\033[Q\262\243"
 192      C3AEF052 
 192      B51A1563 
 192      3B89361B 
 192      5B51B2A3 
 193 014c A364B7AA 		.ascii	"\243d\267\252\361\003\025\005i\340"
 193      F1031505 
 193      69E0
 194              		.text
 195              		.section	.gnu.lto_.symbol_nodes.5f3a24a6d5f30b73,"",%progbits
 196 0000 789C4D8A 		.ascii	"x\234M\212I\016\202@\020E\177\375\006\244\355\310\035"
 196      490E8240 
 196      10457FFD 
 196      06A4EDC8 
 196      1D
 197 0011 3C9A2729 		.ascii	"<\232')\202\033\234\022\034p8\217{\227\256\035\356a"
 197      821B9C12 
 197      1C70388F 
 197      7B97AE1D 
 197      EE61
 198 0023 84A6A35D 		.ascii	"\204\246\243]\233\227\367\352\023\304T0\034\027\242"
 198      9B97F7EA 
 198      13C45430 
 198      1C17A2
 199 0032 40730354 		.ascii	"@s\003T\333z\306\245\250D\272\022e\244kQ\023\351F4\211"
 199      DB7AC6A5 
 199      A844BA12 
 199      65A46B51 
 199      13E94634 
 200 0047 B4A1A641 		.ascii	"\264\241\246A\357\265pK\315\376\232\236\210D\015w\324"
 200      EFB5704B 
 200      CDFE9A9E 
 200      88440D77 
 200      D4
 201 0058 5134DA53 		.ascii	"Q4\332S\363ht\246\364\243\003\325F\365BvUZ\352x\250"
 201      F36874A6 
 201      F4A303D5 
 201      46F54276 
 201      555AEA78 
 202 006d 652972A4 		.ascii	"e)r\244\272\237\231t\202\371\343#&KPy\026\270z\002\257"
 202      BA9F9974 
 202      82F9E323 
 202      264B5079 
 202      16B87A02 
 203 0082 9EB90CDD 		.ascii	"\236\271\014\335\206\277-\360\366$\252gG\027\272\013"
 203      86BF2DF0 
 203      F624AA67 
 203      4717BA0B 
 204 0092 DD19DFF1 		.ascii	"\335\031\337\361\0053\263X\257"
 204      0533B358 
ARM GAS  /tmp/ccBrbIdT.s 			page 15


 204      AF
 205              		.text
 206              		.section	.gnu.lto_.refs.5f3a24a6d5f30b73,"",%progbits
 207 0000 789C6362 		.ascii	"x\234cb`b\340e\200\000F6&vFN&.Fn&\036\006\000\003%\000"
 207      6062E065 
 207      80004636 
 207      2676464E 
 207      262E466E 
 208 001b 52       		.ascii	"R"
 209              		.text
 210              		.section	.gnu.lto_.decls.5f3a24a6d5f30b73,"",%progbits
 211 0000 789CB557 		.ascii	"x\234\265W}l[\325\025\277\367\331M\355:\315J\267U\231"
 211      7D6C5BD5 
 211      15BFF7D9 
 211      4DED3ACD 
 211      4AB75599 
 212 0014 C4874163 		.ascii	"\304\207Ac\260n\3044\0011\376A-n\325TjX\345\024\251"
 212      B06EC434 
 212      0131FE41 
 212      2D6ED554 
 212      6A58E514 
 213 0029 D234790F 		.ascii	"\3224y\017\307,\226\234\244\213_\230\372\327n\322\224"
 213      C72C969C 
 213      A48B5F98 
 213      FAD76ED2 
 213      94
 214 003a 42A160A8 		.ascii	"B\241`\250Z\265Q?\234\322h)\037\001\005\224\242\264"
 214      5AB5513F 
 214      9CD26829 
 214      1F010594 
 214      A2B4
 215 004c 4B1EB07E 		.ascii	"K\036\260~\260\252\314+\331J\233\215\270e|\014&\201"
 215      B0AACC2B 
 215      D94A9B8D 
 215      B8657C0C 
 215      2681
 216 005e 1A515AB5 		.ascii	"\032QZ\265`\316\275\357\353\276\233w\035\033\211+\337"
 216      60CEBDEF 
 216      EBBE9B77 
 216      1D1B892B 
 216      DF
 217 006f F3AEAFCF 		.ascii	"\363\256\257\317\371\235\3379\367\334w\257\025\244\240"
 217      F99DDF39 
 217      F7DC77AF 
 217      15A4A0
 218 007e D53E848A 		.ascii	"\325>\204\212\320\366,B\350\257\012B!\204\320}\310i"
 218      D0F62C42 
 218      E8AF0A42 
 218      2184D07D 
 218      C869
 219 0090 D5D0FBA1 		.ascii	"\325\320\373\241\017C\037\201>\012}\014\372Q\350'\240"
 219      0F431F81 
 219      3E0A7D0C 
 219      FA51E827 
 219      A0
 220 00a1 9F829E87 		.ascii	"\237\202\236\207>\001\375\014\364\263\320\001\022]\200"
 220      3E01FD0C 
ARM GAS  /tmp/ccBrbIdT.s 			page 16


 220      F4B3D001 
 220      125D80
 221 00b0 FE3FE89F 		.ascii	"\376?\350\237#w\243Xs\241_\204^c\342_\201\376#\214\320"
 221      2377A358 
 221      73A15F84 
 221      5E63E25F 
 221      81FE238C 
 222 00c5 343CFDA6 		.ascii	"4<\375\246\375\017\341;\206^\20416\355\350\363e\001"
 222      FD0FE13B 
 222      865E8431 
 222      36EDE8F3 
 222      6501
 223 00d7 8FF29AE3 		.ascii	"\217\362\232\343\2017m\352[\366\303hf\033)\203\013\266"
 223      81376DEA 
 223      5BF6C368 
 223      661B2983 
 223      0BB6
 224 00e9 B898FAF4 		.ascii	"\270\230\372\364\371\272\200Cs\022\200~\200\303\271"
 224      F9BA8043 
 224      7312807E 
 224      80C3B9
 225 00f8 380BD6A8 		.ascii	"8\013\326\250\371\3756\354\306\03239\351\002\326\\I"
 225      F9FD36EC 
 225      C61A3339 
 225      E902D65C 
 225      49
 226 0109 5C63E6F3 		.ascii	"\\c\346\363v\001\207\256\017,'\3729\314\277j\316)\346"
 226      760187AE 
 226      0F2C27FA 
 226      39CCBF6A 
 226      CE29E6
 227 011c FC198F5C 		.ascii	"\374\031\217\\\320\265\234'\370]\014\266\343\360\374"
 227      D0B59C27 
 227      F85D0CB6 
 227      E3F0FC
 228 012b 053C7F09 		.ascii	"\005<\177\011\375\034\214\357\200\347~\323\306o\332"
 228      FD1C8CEF 
 228      80E77ED3 
 228      C66FDA
 229 013a 510E74DD 		.ascii	"Q\016t\335\373M\037t\355\377&\340\237\222\360\241\363"
 229      FB4D1F74 
 229      EDFF26E0 
 229      9F92F0A1 
 229      F3
 230 014b 5E6B939F 		.ascii	"^k\223\237\205O\235\204O\236\3433b\372\240uxZ\300\247"
 230      854F9D84 
 230      4F9EE333 
 230      62FAA075 
 230      785AC0A7 
 231 015f F51A12F0 		.ascii	"\365\032\022\360\017H|D\340y\230\3631\301\371\0305}"
 231      0F487C44 
 231      E07998F3 
 231      31C1F918 
 231      357D
 232 0171 D03ABF53 		.ascii	"\320:\277SX\203\233\320^\242\347\013\003C\347\225]D"
 232      58839BD0 
 232      5EA2E70B 
ARM GAS  /tmp/ccBrbIdT.s 			page 17


 232      0343E795 
 232      5D44
 233 0183 EF25B0CD 		.ascii	"\357%\260\315\010\016/B\333\011\264\334\243\204`M\305"
 233      080E2F42 
 233      DB09B4DC 
 233      A384604D 
 233      C5
 234 0194 F7FD18AD 		.ascii	"\367\375\030\255\303*\256\011\2420\033T\007\231\017"
 234      C32AAE09 
 234      A2301B54 
 234      07990F
 235 01a3 8454BC1F 		.ascii	"\204T\274\037/b#\037\363\200\202\3501Bz\250a\343\011"
 235      2F62231F 
 235      F38082E8 
 235      31427AA8 
 235      61E309
 236 01b6 A0EC6575 		.ascii	"\240\354eu+:@H\2660\371\322\273\012!\001\025\037\300"
 236      2B3A4048 
 236      B630F9D2 
 236      BB0A2101 
 236      151FC0
 237 01c9 41B0FD2D 		.ascii	"A\260\375-F\213\321A\360\231%\344B\203@\022U\006\375"
 237      468BD141 
 237      F09925E4 
 237      42834012 
 237      5506FD
 238 01dc 97CD47DF 		.ascii	"\227\315G\337\300=@]\305\203\014\374I\330\245*\3763"
 238      C03D405D 
 238      C5830CFC 
 238      49D8A52A 
 238      FE33
 239 01ee 5E5C31D4 		.ascii	"^\\1\324\344\226#\3672\226/0\240\267\004 \025\317\015"
 239      E49623F7 
 239      32962F30 
 239      A0B70420 
 239      15CF0D
 240 0201 F21CD977 		.ascii	"\362\034\331wK\201\242\261\237\315\001}\205\375\000"
 240      4B81A2B1 
 240      9FCD017D 
 240      85FD00
 241 0210 7DCFEA2A 		.ascii	"}\317\352*~\320g\033(\350\035\201\360O\321s\204<\013"
 241      7ED0671B 
 241      28E81D81 
 241      F04FD173 
 241      843C0B
 242 0223 CBFD7615 		.ascii	"\313\375v\025,\267\337\312\376y\246\326\217o\362\314"
 242      2CB7DFCA 
 242      FE79A6D6 
 242      8F6FF2CC 
 243 0233 85A105ED 		.ascii	"\205\241\005\355gh\200\226\305Y\262\246\226\025\005"
 243      67688096 
 243      C559B2A6 
 243      961505
 244 0242 328D5C1C 		.ascii	"2\215\\\034\207\2602\263\300\364\276\223\325\331\356"
 244      87B032B3 
 244      C0F4BE93 
 244      D5D9EE
ARM GAS  /tmp/ccBrbIdT.s 			page 18


 245 0251 42B1B82F 		.ascii	"B\261\270/\267\240\374\342z\325,.'(\005}$Dd\263\"\203"
 245      B7A0FCE2 
 245      7AD52C2E 
 245      2728057D 
 245      244464B3 
 246 0267 C467B31A 		.ascii	"\304g\263\032\026Y\275\346\311\352\264\303\312(e\005"
 246      1659BDE6 
 246      C9EAB4C3 
 246      CA286505 
 247 0277 5DF6CC18 		.ascii	"]\366\314\030\031O6\032iP\361+\000\245\342\221\357\222"
 247      194F361A 
 247      6950F12B 
 247      00A5E291 
 247      EF92
 248 0289 AC1191D6 		.ascii	"\254\021\221\326!OZWO\356\376\011\311\365\350\305\342"
 248      214F5A57 
 248      4FEEFE09 
 248      C9F5E8C5 
 248      E2
 249 029a B81E4642 		.ascii	"\270\036FB\276(\274,a\207=\022\366\270\342\231\260\036"
 249      BE28BC2C 
 249      61873D12 
 249      F6B8E299 
 249      B01E
 250 02ac 323C4882 		.ascii	"2<H\202\026[\025\217J\3421\361\216x\022=\364\324\016"
 250      165B158F 
 250      4AE231F1 
 250      8E78123D 
 250      F4D40E
 251 02bf 19D100DA 		.ascii	"\031\321\000\332L\235\0246\221n\374\007{\217\005,h\272"
 251      4C9D1436 
 251      916EFC07 
 251      7B8F052C 
 251      68BA
 252 02d1 C3D91EA3 		.ascii	"\303\331\036\243\033^Q\261\216\003\300\265O\361\332"
 252      1B5E51B1 
 252      8E03C0B5 
 252      4FF1DA
 253 02e0 F98C0055 		.ascii	"\371\214\000U\240\215\332\033ck\204\275w05\032\367\310"
 253      A08DDA1B 
 253      636B84BD 
 253      7730351A 
 253      F7C8
 254 02f2 474E968F 		.ascii	"GN\226\217!V@\006\266\212\307\234|\270H\233xo\315\314"
 254      21564006 
 254      B68AC79C 
 254      7CB8489B 
 254      786FCDCC 
 255 0306 474E2F4C 		.ascii	"GN/Lm\033\253r^\243f\005+h\302\333\245P\263G\305\342"
 255      6D1BAB72 
 255      5EA36605 
 255      2B68C2DB 
 255      A550B347 
 256 031c 3836D347 		.ascii	"86\323G!\257\217\0363k6l\225\354\244\342Y\262W[\032"
 256      21AF8F1E 
 256      336B366C 
 256      95ECA4E2 
ARM GAS  /tmp/ccBrbIdT.s 			page 19


 256      59B2575B 
 257 0331 ADFDFD09 		.ascii	"\255\375\375\011\3238Qf\311n%\233\026`\233\326\011\221"
 257      D3385166 
 257      C96E259B 
 257      16609BD6 
 257      0991
 258 0343 D6DB9EB4 		.ascii	"\326\333\236\264.q\264\214\250\277(+\352S\"\374;\236"
 258      2E71B48C 
 258      A8BF282B 
 258      EA5322FC 
 258      3B9E
 259 0355 F0C3C7C5 		.ascii	"\360\303\307\305\250\257yG\375U\213\275QO\262\215\232"
 259      A8AF7947 
 259      FD558BBD 
 259      514FB28D 
 259      9A
 260 0366 FF4E51E7 		.ascii	"\377NQ\347EZ\377\360\2445}|\253\265\001\226\232\373"
 260      455AFFF0 
 260      A4357D7C 
 260      ABB50196 
 260      9AFB
 261 0378 4F419B7D 		.ascii	"OA\233}e\355\270\211\322;\356\237\036\016\263\205\017"
 261      65EDB889 
 261      D23BEE9F 
 261      1E0EB385 
 261      0F
 262 0389 BFD1F12E 		.ascii	"\277\321\361.\362&\255\260?\331\365\365\354\014\207"
 262      F226ADB0 
 262      3FD9F5F5 
 262      EC0C87
 263 0398 06C47B9E 		.ascii	"\006\304{\236\020\327\372\316\370m\210\362_\306\347"
 263      10D7FACE 
 263      F86D88F2 
 263      5FC6E7
 264 03a7 DC277D08 		.ascii	"\334'}\010mq\316P\363@-\014\350\265;kf\333\354\2662"
 264      6D71CE50 
 264      F3402D0C 
 264      E8B53B6B 
 264      66DBECB6 
 265 03bc A9ADF5D6 		.ascii	"\251\255\365\326U\361\373\370V\220S\306\002\261\237"
 265      55F1FBF8 
 265      569053C6 
 265      02B19F
 266 03cb 8CB1352A 		.ascii	"\214\2615*b\272\225\337\360I_\027\245Me1\376\033\207"
 266      62BA95DF 
 266      F0495F17 
 266      A54D6531 
 266      FE1B87
 267 03de 1C08D741 		.ascii	"\034\010\327AzL\222\342\363\356\024\337\202\372I>_\230"
 267      7A4C92E2 
 267      F3EE14DF 
 267      82FA493E 
 267      5F98
 268 03f0 7AF7EF4B 		.ascii	"z\367\357K\272\263zo\216\\+\0261\276\016ei\222\303;"
 268      BAB37A6F 
 268      8E5C2B16 
 268      31BE0E65 
ARM GAS  /tmp/ccBrbIdT.s 			page 20


 268      6992C33B 
 269 0404 6B54FC1F 		.ascii	"kT\374\037\347\365\335j\271\237\317ly\255)\251\226\212"
 269      E7F5DD6A 
 269      B99FCF6C 
 269      79AD29A9 
 269      968A
 270 0416 FF0B78B4 		.ascii	"\377\013x\264\261<\022s\005\230\206,\254\017\271dT\007"
 270      B13C1273 
 270      0598862C 
 270      AC0FB964 
 270      5407
 271 0428 9D41B52B 		.ascii	"\235A\265+\024K\013\242\315\373\204\367\205@BAg\315"
 271      144B0BA2 
 271      CDFB84F7 
 271      85404241 
 271      67CD
 272 043a D4DF883E 		.ascii	"\324\337\210>\366\355\241\027\244\017\030+#~}\3448\011"
 272      F6EDA117 
 272      A40F182B 
 272      237E7DE4 
 272      3809
 273 044c 64BB1FA3 		.ascii	"d\273\037\243\025&\211}\235\005\030*\025\273\240\245"
 273      1526897D 
 273      9D05182A 
 273      15BBA0A5 
 274 045c E2CF2A8E 		.ascii	"\342\317*\216\375\377\222\330\347\271b\267\264`\370"
 274      FDFF92D8 
 274      E7B962B7 
 274      B460F8
 275 046b 91F8D610 		.ascii	"\221\370\326\020H(\350K;\366\215~\026\373\247|\354\227"
 275      4828E84B 
 275      3BF68D7E 
 275      16FBA77C 
 275      EC97
 276 047d 9CD88D5F 		.ascii	"\234\330\215_,\310\211\022\220O\373-\310=<\244k\223"
 276      2CC88912 
 276      904FFB2D 
 276      C83D3CA4 
 276      6B93
 277 048f 2D44CFB0 		.ascii	"-D\317\260\034qWVRe\001\375\016\331w\326\341\017\276"
 277      1C715756 
 277      526501FD 
 277      0ED977D6 
 277      E10FBE
 278 04a2 686777D6 		.ascii	"hgw\326i\274\020\240\247\374\356\312\235\025\206&\341"
 278      69BC10A0 
 278      A7FCEECA 
 278      9D158626 
 278      E1
 279 04b3 12981A46 		.ascii	"\022\230\032F\306\276\325\267MV\023\2771\217<6\202\331"
 279      C6BED5B7 
 279      4D5613BF 
 279      318F3C36 
 279      82D9
 280 04c5 6E4639D2 		.ascii	"nF9\322\273Q\337>I\357/ob\266J\033K\336\263U|\220m\365"
 280      BB51DF3E 
 280      49EF2F6F 
ARM GAS  /tmp/ccBrbIdT.s 			page 21


 280      62B64A1B 
 280      4BDEB355 
 281 04dd D96FB60A 		.ascii	"\331o\266\012\372\214EB)x!\331\013l\255vMP\240\265c"
 281      FA8C4542 
 281      297821D9 
 281      0B6CAD76 
 281      4D50A0B5 
 282 04f2 B23AABAA 		.ascii	"\262:\253\252\370\012;\022?\257\030,\354\002\333\311"
 282      F80A3B12 
 282      3FAF182C 
 282      EC02DBC9 
 283 0502 834D9703 		.ascii	"\203M\227\003\026\2203\353\343\301.W\014\346f\266\233"
 283      169033EB 
 283      E3C12E57 
 283      0CE666B6 
 283      9B
 284 0513 07FBBA1C 		.ascii	"\007\373\272\034\260\005rf{y02\247R07\263Wx\260\336"
 284      B0057266 
 284      7B793032 
 284      A7523037 
 284      B35778B0 
 285 0528 72C06AE5 		.ascii	"r\300j\345\314\206y\260-\025\203\271\231\275\306\203"
 285      CC8679B0 
 285      2D1583B9 
 285      99BDC683 
 286 0538 65CB010B 		.ascii	"e\313\001\013\313\231\215\360`\333+\006s3{\235\007\333"
 286      CB998DF0 
 286      60DB2B06 
 286      73337B9D 
 286      07DB
 287 054a 550ED8ED 		.ascii	"U\016\330\355rf\243<\330\236\212\301\334\314\216\360"
 287      7266A33C 
 287      D89E8AC1 
 287      DCCC8EF0 
 288 055a 60FDE580 		.ascii	"`\375\345\200\335)c\326\255\217\375&\253Z\207\000}\243"
 288      DD2963D6 
 288      AD8FFD26 
 288      AB5A8700 
 288      7DA3
 289 056c 5F710E01 		.ascii	"_q\016\001\270H\273J\213W\033\224\253\251x\273R\351"
 289      B848BB4A 
 289      8B571B94 
 289      ABA978BB 
 289      52E9
 290 057e 61B143F1 		.ascii	"a\261C\361>,\234\233\000\257\005a\017\210a\273Yx\305"
 290      3E2C9C9B 
 290      00AF0561 
 290      0F8861BB 
 290      5978C5
 291 0591 ED4E629E 		.ascii	"\355Nb\236O\342\301r\222\270T\016v\232\007\033*\007"
 291      4FE2C172 
 291      92B8540E 
 291      769A071B 
 291      2A07
 292 05a3 AC515E2B 		.ascii	"\254Q^+\023<\330p\305`nf\377\342\301\016\225\003\266"
 292      133CD870 
 292      C5606E66 
ARM GAS  /tmp/ccBrbIdT.s 			page 22


 292      FFE2C10E 
 292      9503B6
 293 05b6 46CEEC3D 		.ascii	"F\316\354=\036l\264b0\236Y\267~\316)\274\334R\241\362"
 293      1E6CB462 
 293      309E59B7 
 293      7ECE29BC 
 293      DC52A1F2 
 294 05ca 96BADFB6 		.ascii	"\226\272\337\266.\265A\251\032\334\360+.\274\001I\341"
 294      2EB541A9 
 294      1ADCF02B 
 294      2EBC0149 
 294      E1
 295 05db F1F75B47 		.ascii	"\361\367[G\013\302\326\305\260]$\314\341:\217\034z5"
 295      0BC2D6C5 
 295      B05D24CC 
 295      E13A8F1C 
 295      7A35
 296 05ed FEBC57F1 		.ascii	"\376\274W\361W\354@\276\214o\006y\225\311\257\231,2"
 296      57EC40BE 
 296      8C6F0679 
 296      95C9AF99 
 296      2C32
 297 05ff D9AD50B9 		.ascii	"\331\255P\271\221\311MLnf\362q&\237`r+\223O3\371\014"
 297      91C94D4C 
 297      6E66F271 
 297      269F6072 
 297      2B934F33 
 298 0615 93DB98DC 		.ascii	"\223\333\230\334\311d\037\223\273\231\334\313d\216\311"
 298      C9641F93 
 298      BB99DCCB 
 298      648EC9
 299 0624 FD20ED26 		.ascii	"\375 \355&K\324E\347\206\036F\373 \271\205M\027\202"
 299      4BD445E7 
 299      861E46FB 
 299      20B9854D 
 299      1782
 300 0636 3D7EFB7F 		.ascii	"=~\373\177\333(\377\277\315\320\320\217<E\024\305\326"
 300      DB28FFBF 
 300      CDD0D08F 
 300      3C4514C5 
 300      D6
 301 0647 18E3355C 		.ascii	"\030\3435\\\027,\343\357\224\314\363A%$\261\032/a\365"
 301      172CE3EF 
 301      94CCF341 
 301      2524B11A 
 301      2F61F5
 302 065a BCD4EA5C 		.ascii	"\274\324\352\\\011\253\027\244V\364\232-\263zQj\265"
 302      09AB17A4 
 302      56F49A2D 
 302      B37A516A 
 302      B5
 303 066b BF84AF97 		.ascii	"\277\204\257\227\244V\237\226\3605$\265:\\\302\327\313"
 303      A4569F96 
 303      F03524B5 
 303      3A5CC2D7 
 303      CB
 304 067c 8AB87AEF 		.ascii	"\212\270z\357o+b\322\033\260Wg\302\365\277\273\276\256"
ARM GAS  /tmp/ccBrbIdT.s 			page 23


 304      6F2B62D2 
 304      1BB05767 
 304      C2F5BFBB 
 304      BEAE
 305 068e 2E627F3A 		.ascii	".b\177:2\221V5\035Y\337\321\251e\"\315k\233\032\352"
 305      32915635 
 305      1D59DFD1 
 305      A96522CD 
 305      6B9B1AEA 
 306 06a2 23AB572F 		.ascii	"#\253W/\217\254]\325\364\310\222HF\213\247\323-u\255"
 306      8FAC5DD5 
 306      F4C89248 
 306      468BA7D3 
 306      2D75AD
 307 06b5 E836C1A4 		.ascii	"\3506\301\244S\213\244\332\023\351\256\226d$\321\232"
 307      538BA4DA 
 307      13E9AE96 
 307      6424D19A 
 308 06c5 D990D136 		.ascii	"\331\220\3216\254Of@/H\307\251\266d\\\253Z\371\300\203"
 308      AC4F6640 
 308      2F48C7A9 
 308      B6645CAB 
 308      5AF9C083 
 309 06d9 E128BA21 		.ascii	"\341(\272!\322\225\351\264u\333\223\177L\247\036\002"
 309      D295E9B4 
 309      75DB937F 
 309      4CA71E02 
 310 06e9 D89654BB 		.ascii	"\330\226T\273\006\352\201.x6\324\307\265;\274\324\332"
 310      06EA812E 
 310      7836D4C7 
 310      B53BBCD4 
 310      DA
 311 06fa D4446BAA 		.ascii	"\324Dk\252=\031\211\267$\037V\273\322Z\334\3622/\036"
 311      3D1989B7 
 311      241F56BB 
 311      D25ADCF2 
 311      322F1E
 312 070d B70C171A 		.ascii	"\267\014\027\032\024\343\031M\355\324\342jZ\355l\363"
 312      14E3194D 
 312      EDD4E26A 
 312      5AED6CF3 
 313 071d 5302D7D9 		.ascii	"S\002\327\331\363\035\353\215\351\005\326LRsO\374\336"
 313      F31DEB8D 
 313      E905D64C 
 313      52734FFC 
 313      DE
 314 072e 9A9813BF 		.ascii	"\232\230\023\277\277\243#\275\310\234Ne\214\331\270"
 314      BFA323BD 
 314      C89C4E65 
 314      8CD9B8
 315 073d 9AD0528F 		.ascii	"\232\320R\217$\257\367HZ\2463\001\261\324%PUF[\325\236"
 315      24AFF748 
 315      5AA63301 
 315      B1D42550 
 315      55465BD5 
 316 0752 D2AA335A 		.ascii	"\322\2523Z3\345\261\214\332\315U\037b\251\010\321\311"
 316      33E5B18C 
ARM GAS  /tmp/ccBrbIdT.s 			page 24


 316      DACD551F 
 316      62A908D1 
 316      C9
 317 0763 8EF56C6E 		.ascii	"\216\365ln\036\214\223\2325\\i\016C\226G\200\270e\226"
 317      1E8C939A 
 317      355C690E 
 317      43964780 
 317      B86596
 318 0776 4443F4FE 		.ascii	"DC\364\376D\253\332\031L\2646o\3104\252i-\020\217?\334"
 318      44ABDA19 
 318      4CB4366F 
 318      C834AA69 
 318      2D108F3F 
 319 078b D59E88C7 		.ascii	"\325\236\210\307\347[\203\272{\356\252\277g>\317\005"
 319      E75B83BA 
 319      7BEEAABF 
 319      673ECF05 
 320 079b F1BF35DC 		.ascii	"\361\2775\334\025rh\270\177\371U\310a\205\356\256\240"
 320      157268B8 
 320      7FF955C8 
 320      6185EEAE 
 320      A0
 321 07ac 4CDAE85A 		.ascii	"L\332\350Z\244\332\200]\310\376\022\327|\321\330\022"
 321      A4DA805D 
 321      C8FE12D7 
 321      7CD1D812 
 322 07bc E8F5FEE6 		.ascii	"\350\365\376\346\246h\314\277|\325\212\230\322\034\363"
 322      A668CCBF 
 322      7CD58A98 
 322      D21CF3
 323 07cb AD58199B 		.ascii	"\255X\031\233\023"
 323      13
 324 07d0 8D36C596 		.ascii	"\2156\305\2260Y\357\217FW\304|\321\007\326\372\3264"
 324      3059EF8F 
 324      4657C47C 
 324      D107D6FA 
 324      D634
 325 07e2 477DCB62 		.ascii	"G}\313b1_,\012\337\301\340\376\345kc\276\345\324\262"
 325      315F2C0A 
 325      DFC1E0FE 
 325      E56B63BE 
 325      E5D4B2
 326 07f5 69594CF9 		.ascii	"iYL\371\265a\325\000\372\353b\337\002~\244c\232"
 326      B561D500 
 326      FAEB62DF 
 326      027EA463 
 326      9A
 327              		.text
 328              		.section	.gnu.lto_.symtab.5f3a24a6d5f30b73,"",%progbits
 329 0000 7374496E 		.ascii	"stInit\000\000\000\000\000\000\000\000\000\000\000\000"
 329      69740000 
 329      00000000 
 329      00000000 
 329      0000
 330 0012 C5000000 		.ascii	"\305\000\000\000stStartAlarm\000\000\000\000\000\000"
 330      73745374 
 330      61727441 
ARM GAS  /tmp/ccBrbIdT.s 			page 25


 330      6C61726D 
 330      00000000 
 331 0028 00000000 		.ascii	"\000\000\000\000\000\000\310\000\000\000stStopAlarm"
 331      0000C800 
 331      00007374 
 331      53746F70 
 331      416C6172 
 332 003d 00000000 		.ascii	"\000\000\000\000\000\000\000\000\000\000\000\000\315"
 332      00000000 
 332      00000000 
 332      CD
 333 004a 00000073 		.ascii	"\000\000\000stSetAlarm\000\000\000\000\000\000\000\000"
 333      74536574 
 333      416C6172 
 333      6D000000 
 333      00000000 
 334 005f 00000000 		.ascii	"\000\000\000\000\320\000\000\000stGetAlarm\000\000\000"
 334      D0000000 
 334      73744765 
 334      74416C61 
 334      726D0000 
 335 0074 00000000 		.ascii	"\000\000\000\000\000\000\000\000\000\324\000\000\000"
 335      00000000 
 335      00D40000 
 335      00
 336 0081 73745F6C 		.ascii	"st_lld_init\000\000\002\000\000\000\000\000\000\000"
 336      6C645F69 
 336      6E697400 
 336      00020000 
 336      00000000 
 337 0096 0000D700 		.ascii	"\000\000\327\000\000\000chSysHalt\000\000\002\000\000"
 337      00006368 
 337      53797348 
 337      616C7400 
 337      00020000 
 338 00aa 00000000 		.ascii	"\000\000\000\000\000\000\000\331\000\000\000"
 338      000000D9 
 338      000000
 339              		.text
 340              		.section	.gnu.lto_.opts,"",%progbits
 341 0000 272D6D63 		.ascii	"'-mcpu=cortex-m4' '-mno-thumb-interwork' '-mthumb' "
 341      70753D63 
 341      6F727465 
 341      782D6D34 
 341      2720272D 
 342 0033 272D6767 		.ascii	"'-ggdb' '-O0' '-fomit-frame-pointer' '-falign-funct"
 342      64622720 
 342      272D4F30 
 342      2720272D 
 342      666F6D69 
 343 0066 696F6E73 		.ascii	"ions=16' '-ffunction-sections' '-fdata-sections' '-"
 343      3D313627 
 343      20272D66 
 343      66756E63 
 343      74696F6E 
 344 0099 666E6F2D 		.ascii	"fno-common' '-flto'\000"
 344      636F6D6D 
ARM GAS  /tmp/ccBrbIdT.s 			page 26


 344      6F6E2720 
 344      272D666C 
 344      746F2700 
 345              		.text
 346              		.cfi_sections	.debug_frame
 347              		.section	.text.st_lld_start_alarm,"ax",%progbits
 348              		.align	2
 349              		.p2align 4,,15
 350              		.thumb
 351              		.thumb_func
 352              		.type	st_lld_start_alarm, %function
 353              	st_lld_start_alarm:
 354              	.LFB137:
 355              		.file 1 "../../../../os/hal/ports/STM32/LLD/TIMv1/st_lld.h"
 356              		.loc 1 153 0
 357              		.cfi_startproc
 358              		@ args = 0, pretend = 0, frame = 8
 359              		@ frame_needed = 0, uses_anonymous_args = 0
 360              		@ link register save eliminated.
 361 0000 82B0     		sub	sp, sp, #8
 362              		.cfi_def_cfa_offset 8
 363 0002 0190     		str	r0, [sp, #4]
 364              		.loc 1 155 0
 365 0004 4FF08043 		mov	r3, #1073741824
 366 0008 019A     		ldr	r2, [sp, #4]
 367 000a 5A63     		str	r2, [r3, #52]
 368              		.loc 1 156 0
 369 000c 4FF08043 		mov	r3, #1073741824
 370 0010 0022     		movs	r2, #0
 371 0012 1A61     		str	r2, [r3, #16]
 372              		.loc 1 157 0
 373 0014 4FF08043 		mov	r3, #1073741824
 374 0018 0222     		movs	r2, #2
 375 001a DA60     		str	r2, [r3, #12]
 376              		.loc 1 158 0
 377 001c 02B0     		add	sp, sp, #8
 378              		@ sp needed
 379 001e 7047     		bx	lr
 380              		.cfi_endproc
 381              	.LFE137:
 382              		.size	st_lld_start_alarm, .-st_lld_start_alarm
 383              		.section	.text.st_lld_stop_alarm,"ax",%progbits
 384              		.align	2
 385              		.p2align 4,,15
 386              		.thumb
 387              		.thumb_func
 388              		.type	st_lld_stop_alarm, %function
 389              	st_lld_stop_alarm:
 390              	.LFB138:
 391              		.loc 1 165 0
 392              		.cfi_startproc
 393              		@ args = 0, pretend = 0, frame = 0
 394              		@ frame_needed = 0, uses_anonymous_args = 0
 395              		@ link register save eliminated.
 396              		.loc 1 167 0
 397 0000 4FF08043 		mov	r3, #1073741824
 398 0004 0022     		movs	r2, #0
ARM GAS  /tmp/ccBrbIdT.s 			page 27


 399 0006 DA60     		str	r2, [r3, #12]
 400              		.loc 1 168 0
 401 0008 7047     		bx	lr
 402              		.cfi_endproc
 403              	.LFE138:
 404              		.size	st_lld_stop_alarm, .-st_lld_stop_alarm
 405 000a 00BFAFF3 		.section	.text.st_lld_set_alarm,"ax",%progbits
 405      0080
 406              		.align	2
 407              		.p2align 4,,15
 408              		.thumb
 409              		.thumb_func
 410              		.type	st_lld_set_alarm, %function
 411              	st_lld_set_alarm:
 412              	.LFB139:
 413              		.loc 1 177 0
 414              		.cfi_startproc
 415              		@ args = 0, pretend = 0, frame = 8
 416              		@ frame_needed = 0, uses_anonymous_args = 0
 417              		@ link register save eliminated.
 418 0000 82B0     		sub	sp, sp, #8
 419              		.cfi_def_cfa_offset 8
 420 0002 0190     		str	r0, [sp, #4]
 421              		.loc 1 179 0
 422 0004 4FF08043 		mov	r3, #1073741824
 423 0008 019A     		ldr	r2, [sp, #4]
 424 000a 5A63     		str	r2, [r3, #52]
 425              		.loc 1 180 0
 426 000c 02B0     		add	sp, sp, #8
 427              		@ sp needed
 428 000e 7047     		bx	lr
 429              		.cfi_endproc
 430              	.LFE139:
 431              		.size	st_lld_set_alarm, .-st_lld_set_alarm
 432              		.section	.text.st_lld_get_alarm,"ax",%progbits
 433              		.align	2
 434              		.p2align 4,,15
 435              		.thumb
 436              		.thumb_func
 437              		.type	st_lld_get_alarm, %function
 438              	st_lld_get_alarm:
 439              	.LFB140:
 440              		.loc 1 189 0
 441              		.cfi_startproc
 442              		@ args = 0, pretend = 0, frame = 0
 443              		@ frame_needed = 0, uses_anonymous_args = 0
 444              		@ link register save eliminated.
 445              		.loc 1 191 0
 446 0000 4FF08043 		mov	r3, #1073741824
 447 0004 5B6B     		ldr	r3, [r3, #52]
 448              		.loc 1 192 0
 449 0006 1846     		mov	r0, r3
 450 0008 7047     		bx	lr
 451              		.cfi_endproc
 452              	.LFE140:
 453              		.size	st_lld_get_alarm, .-st_lld_get_alarm
 454 000a 00BFAFF3 		.section	.text.st_lld_is_alarm_active,"ax",%progbits
ARM GAS  /tmp/ccBrbIdT.s 			page 28


 454      0080
 455              		.align	2
 456              		.p2align 4,,15
 457              		.thumb
 458              		.thumb_func
 459              		.type	st_lld_is_alarm_active, %function
 460              	st_lld_is_alarm_active:
 461              	.LFB141:
 462              		.loc 1 203 0
 463              		.cfi_startproc
 464              		@ args = 0, pretend = 0, frame = 0
 465              		@ frame_needed = 0, uses_anonymous_args = 0
 466              		@ link register save eliminated.
 467              		.loc 1 205 0
 468 0000 4FF08043 		mov	r3, #1073741824
 469 0004 DB68     		ldr	r3, [r3, #12]
 470 0006 03F00203 		and	r3, r3, #2
 471 000a 002B     		cmp	r3, #0
 472 000c 0CBF     		ite	eq
 473 000e 0023     		moveq	r3, #0
 474 0010 0123     		movne	r3, #1
 475 0012 DBB2     		uxtb	r3, r3
 476              		.loc 1 206 0
 477 0014 1846     		mov	r0, r3
 478 0016 7047     		bx	lr
 479              		.cfi_endproc
 480              	.LFE141:
 481              		.size	st_lld_is_alarm_active, .-st_lld_is_alarm_active
 482 0018 AFF30080 		.section	.text.stInit,"ax",%progbits
 482      AFF30080 
 483              		.align	2
 484              		.p2align 4,,15
 485              		.global	stInit
 486              		.thumb
 487              		.thumb_func
 488              		.type	stInit, %function
 489              	stInit:
 490              	.LFB272:
 491              		.file 2 "../../../../os/hal/src/st.c"
 492              		.loc 2 60 0
 493              		.cfi_startproc
 494              		@ args = 0, pretend = 0, frame = 0
 495              		@ frame_needed = 0, uses_anonymous_args = 0
 496 0000 08B5     		push	{r3, lr}
 497              		.cfi_def_cfa_offset 8
 498              		.cfi_offset 3, -8
 499              		.cfi_offset 14, -4
 500              		.loc 2 62 0
 501 0002 FFF7FEFF 		bl	st_lld_init
 502              		.loc 2 63 0
 503 0006 08BD     		pop	{r3, pc}
 504              		.cfi_endproc
 505              	.LFE272:
 506              		.size	stInit, .-stInit
 507 0008 AFF30080 		.section	.text.stStartAlarm,"ax",%progbits
 507      AFF30080 
 508              		.align	2
ARM GAS  /tmp/ccBrbIdT.s 			page 29


 509              		.p2align 4,,15
 510              		.global	stStartAlarm
 511              		.thumb
 512              		.thumb_func
 513              		.type	stStartAlarm, %function
 514              	stStartAlarm:
 515              	.LFB273:
 516              		.loc 2 77 0
 517              		.cfi_startproc
 518              		@ args = 0, pretend = 0, frame = 8
 519              		@ frame_needed = 0, uses_anonymous_args = 0
 520 0000 00B5     		push	{lr}
 521              		.cfi_def_cfa_offset 4
 522              		.cfi_offset 14, -4
 523 0002 83B0     		sub	sp, sp, #12
 524              		.cfi_def_cfa_offset 16
 525 0004 0190     		str	r0, [sp, #4]
 526              		.loc 2 79 0
 527 0006 FFF7FEFF 		bl	st_lld_is_alarm_active
 528 000a 0346     		mov	r3, r0
 529 000c 002B     		cmp	r3, #0
 530 000e 05D0     		beq	.L10
 531              		.loc 2 79 0 is_stmt 0 discriminator 1
 532 0010 40F20000 		movw	r0, #:lower16:__func__.7427
 533 0014 C0F20000 		movt	r0, #:upper16:__func__.7427
 534 0018 FFF7FEFF 		bl	chSysHalt
 535              	.L10:
 536              		.loc 2 81 0 is_stmt 1
 537 001c 0198     		ldr	r0, [sp, #4]
 538 001e FFF7FEFF 		bl	st_lld_start_alarm
 539              		.loc 2 82 0
 540 0022 03B0     		add	sp, sp, #12
 541              		@ sp needed
 542 0024 5DF804FB 		ldr	pc, [sp], #4
 543              		.cfi_endproc
 544              	.LFE273:
 545              		.size	stStartAlarm, .-stStartAlarm
 546 0028 AFF30080 		.section	.text.stStopAlarm,"ax",%progbits
 546      AFF30080 
 547              		.align	2
 548              		.p2align 4,,15
 549              		.global	stStopAlarm
 550              		.thumb
 551              		.thumb_func
 552              		.type	stStopAlarm, %function
 553              	stStopAlarm:
 554              	.LFB274:
 555              		.loc 2 91 0
 556              		.cfi_startproc
 557              		@ args = 0, pretend = 0, frame = 0
 558              		@ frame_needed = 0, uses_anonymous_args = 0
 559 0000 08B5     		push	{r3, lr}
 560              		.cfi_def_cfa_offset 8
 561              		.cfi_offset 3, -8
 562              		.cfi_offset 14, -4
 563              		.loc 2 93 0
 564 0002 FFF7FEFF 		bl	st_lld_stop_alarm
ARM GAS  /tmp/ccBrbIdT.s 			page 30


 565              		.loc 2 94 0
 566 0006 08BD     		pop	{r3, pc}
 567              		.cfi_endproc
 568              	.LFE274:
 569              		.size	stStopAlarm, .-stStopAlarm
 570 0008 AFF30080 		.section	.text.stSetAlarm,"ax",%progbits
 570      AFF30080 
 571              		.align	2
 572              		.p2align 4,,15
 573              		.global	stSetAlarm
 574              		.thumb
 575              		.thumb_func
 576              		.type	stSetAlarm, %function
 577              	stSetAlarm:
 578              	.LFB275:
 579              		.loc 2 105 0
 580              		.cfi_startproc
 581              		@ args = 0, pretend = 0, frame = 8
 582              		@ frame_needed = 0, uses_anonymous_args = 0
 583 0000 00B5     		push	{lr}
 584              		.cfi_def_cfa_offset 4
 585              		.cfi_offset 14, -4
 586 0002 83B0     		sub	sp, sp, #12
 587              		.cfi_def_cfa_offset 16
 588 0004 0190     		str	r0, [sp, #4]
 589              		.loc 2 107 0
 590 0006 FFF7FEFF 		bl	st_lld_is_alarm_active
 591 000a 0346     		mov	r3, r0
 592 000c 83F00103 		eor	r3, r3, #1
 593 0010 DBB2     		uxtb	r3, r3
 594 0012 002B     		cmp	r3, #0
 595 0014 05D0     		beq	.L13
 596              		.loc 2 107 0 is_stmt 0 discriminator 1
 597 0016 40F20000 		movw	r0, #:lower16:__func__.7434
 598 001a C0F20000 		movt	r0, #:upper16:__func__.7434
 599 001e FFF7FEFF 		bl	chSysHalt
 600              	.L13:
 601              		.loc 2 109 0 is_stmt 1
 602 0022 0198     		ldr	r0, [sp, #4]
 603 0024 FFF7FEFF 		bl	st_lld_set_alarm
 604              		.loc 2 110 0
 605 0028 03B0     		add	sp, sp, #12
 606              		@ sp needed
 607 002a 5DF804FB 		ldr	pc, [sp], #4
 608              		.cfi_endproc
 609              	.LFE275:
 610              		.size	stSetAlarm, .-stSetAlarm
 611 002e 00BF     		.section	.text.stGetAlarm,"ax",%progbits
 612              		.align	2
 613              		.p2align 4,,15
 614              		.global	stGetAlarm
 615              		.thumb
 616              		.thumb_func
 617              		.type	stGetAlarm, %function
 618              	stGetAlarm:
 619              	.LFB276:
 620              		.loc 2 121 0
ARM GAS  /tmp/ccBrbIdT.s 			page 31


 621              		.cfi_startproc
 622              		@ args = 0, pretend = 0, frame = 0
 623              		@ frame_needed = 0, uses_anonymous_args = 0
 624 0000 08B5     		push	{r3, lr}
 625              		.cfi_def_cfa_offset 8
 626              		.cfi_offset 3, -8
 627              		.cfi_offset 14, -4
 628              		.loc 2 123 0
 629 0002 FFF7FEFF 		bl	st_lld_is_alarm_active
 630 0006 0346     		mov	r3, r0
 631 0008 83F00103 		eor	r3, r3, #1
 632 000c DBB2     		uxtb	r3, r3
 633 000e 002B     		cmp	r3, #0
 634 0010 05D0     		beq	.L15
 635              		.loc 2 123 0 is_stmt 0 discriminator 1
 636 0012 40F20000 		movw	r0, #:lower16:__func__.7438
 637 0016 C0F20000 		movt	r0, #:upper16:__func__.7438
 638 001a FFF7FEFF 		bl	chSysHalt
 639              	.L15:
 640              		.loc 2 125 0 is_stmt 1
 641 001e FFF7FEFF 		bl	st_lld_get_alarm
 642 0022 0346     		mov	r3, r0
 643              		.loc 2 126 0
 644 0024 1846     		mov	r0, r3
 645 0026 08BD     		pop	{r3, pc}
 646              		.cfi_endproc
 647              	.LFE276:
 648              		.size	stGetAlarm, .-stGetAlarm
 649 0028 AFF30080 		.section	.rodata.__func__.7427,"a",%progbits
 649      AFF30080 
 650              		.align	2
 651              		.type	__func__.7427, %object
 652              		.size	__func__.7427, 13
 653              	__func__.7427:
 654 0000 73745374 		.ascii	"stStartAlarm\000"
 654      61727441 
 654      6C61726D 
 654      00
 655 000d 000000   		.section	.rodata.__func__.7434,"a",%progbits
 656              		.align	2
 657              		.type	__func__.7434, %object
 658              		.size	__func__.7434, 11
 659              	__func__.7434:
 660 0000 73745365 		.ascii	"stSetAlarm\000"
 660      74416C61 
 660      726D00
 661 000b 00       		.section	.rodata.__func__.7438,"a",%progbits
 662              		.align	2
 663              		.type	__func__.7438, %object
 664              		.size	__func__.7438, 11
 665              	__func__.7438:
 666 0000 73744765 		.ascii	"stGetAlarm\000"
 666      74416C61 
 666      726D00
 667 000b 00       		.text
 668              	.Letext0:
 669              		.file 3 "/usr/include/newlib/machine/_default_types.h"
ARM GAS  /tmp/ccBrbIdT.s 			page 32


 670              		.file 4 "/usr/include/newlib/stdint.h"
 671              		.file 5 "../../../../os/rt/ports/ARMCMx/compilers/GCC/chtypes.h"
 672              		.file 6 "../../../../os/rt/include/chsystypes.h"
 673              		.file 7 "../../../../os/rt/include/chschd.h"
 674              		.file 8 "../../../../os/rt/ports/ARMCMx/chcore.h"
 675              		.file 9 "../../../../os/rt/ports/ARMCMx/chcore_v7m.h"
 676              		.file 10 "../../../../os/hal/ports/STM32/LLD/TIMv1/stm32_tim.h"
 677              		.file 11 "../../../../os/rt/include/chdebug.h"
 678              		.file 12 "../../../../os/rt/include/chtm.h"
 679              		.file 13 "../../../../os/rt/include/chstats.h"
 680              		.file 14 "../../../../os/rt/include/chsem.h"
 681              		.file 15 "../../../../os/rt/include/chmtx.h"
 682              		.file 16 "../../../../os/ext/CMSIS/include/core_cm4.h"