ARM GAS  /tmp/cc6DU3Wg.s 			page 1


   1              		.syntax unified
   2              		.cpu cortex-m4
   3              		.fpu softvfp
   4              		.eabi_attribute 20, 1
   5              		.eabi_attribute 21, 1
   6              		.eabi_attribute 23, 3
   7              		.eabi_attribute 24, 1
   8              		.eabi_attribute 25, 1
   9              		.eabi_attribute 26, 1
  10              		.eabi_attribute 30, 6
  11              		.eabi_attribute 34, 1
  12              		.eabi_attribute 18, 4
  13              		.thumb
  14              		.file	"st_lld.c"
  15              		.text
  16              	.Ltext0:
  17              		.section	.gnu.lto_.inline.1144c840e79bdd9c,"",%progbits
  18 0000 789C6362 		.ascii	"x\234cb`b\300\0064\031!47\003\003\0133\003\003\023\313"
  18      6062C006 
  18      34192134 
  18      3703030B 
  18      33030313 
  19 0015 073D0616 		.ascii	"\007=\006\026\210ZF\014\021&\006\026\036 \311\264@\036"
  19      885A460C 
  19      11260616 
  19      1E20C9B4 
  19      401E
  20 0027 AE860B48 		.ascii	"\256\206\013H0c\027fa`S\300\"\214 X\261\353c\303.\314"
  20      30631766 
  20      616053C0 
  20      228C2058 
  20      B1EB63C3 
  21 003d 4EC8380E 		.ascii	"N\3108\016\354\3728\031\370\317\202\334\316\263!\027"
  21      ECFA3819 
  21      F8CF82DC 
  21      CEB32117 
  22 004d 87466C04 		.ascii	"\207Fl\004\027\203\210\014P\223\\\303/F\230.f\036\020"
  22      1783880C 
  22      50935CC3 
  22      2F46982E 
  22      661E10
  23 0060 09003748 		.ascii	"\011\0007H\015\241"
  23      0DA1
  24              		.text
  25              		.section	.gnu.lto_port_lock.1144c840e79bdd9c,"",%progbits
  26 0000 789C6362 		.ascii	"x\234cb`b@\007\"@,\314\310\3000\001\304af`\004\252`"
  26      60624007 
  26      22402CCC 
  26      C8C03001 
  26      C4616660 
  27 0017 6462040A 		.ascii	"db\004\012002\32431\326G\202\230\014\214J\014\013\033"
  27      303032D4 
  27      3331D647 
  27      82980C8C 
  27      4A0C0B1B 
  28 002b 1A263D68 		.ascii	"\032&=h}\366\230if\303\201\226\005\015\177\376\377g"
  28      7DF69869 
ARM GAS  /tmp/cc6DU3Wg.s 			page 2


  28      66C38196 
  28      050D7FFE 
  28      FF67
  29 003d 64CC6404 		.ascii	"d\314d\004\232h\316\310\220\314\310\020\001\3440*\200"
  29      9A68CEC8 
  29      90CCC810 
  29      01E4302A 
  29      80
  30 004e 29261654 		.ascii	")&\026T+\3263\035x\360\377\377\211\316\347{\201&3$2"
  30      2BD6331D 
  30      78F0FFFF 
  30      89CEE77B 
  30      81263324 
  31 0063 2E049A06 		.ascii	".\004\232\006\004\254\014-\015\015\023\024\030@\272"
  31      04AC0C2D 
  31      0D0D1314 
  31      1840BA
  32 0072 8120044C 		.ascii	"\201 \004L\206\202\034\300|\226\241i\007\220Ngd\004"
  32      86821CC0 
  32      7C96A169 
  32      07904E67 
  32      6404
  33 0084 99C70054 		.ascii	"\231\307\000T\303p\216\241\351\343\337\031\217%\340"
  33      C3708EA1 
  33      E9E3DF19 
  33      8F25E0
  34 0093 BAC08C86 		.ascii	"\272\300\214\206\003\335W\332YaF&2.fd\005\032\007q2"
  34      03DD57DA 
  34      59614626 
  34      322E6664 
  34      051A0771 
  35 00a8 10963283 		.ascii	"\020\2262\203|\314\014\361\266\034C\033\343\334\206"
  35      7CCC0CF1 
  35      B61C431B 
  35      E3DC86
  36 00b7 190E998C 		.ascii	"\031\016\231\214\314 n:X\031\\\256\023*\007u\373E\206"
  36      CC206E3A 
  36      58195CAE 
  36      132A0775 
  36      FB4586
  37 00ca C6073BF5 		.ascii	"\306\007;\365!\006\302@\010H\007H\271INf\222\276sFf"
  37      2106C240 
  37      08480748 
  37      B9494E66 
  37      92BE7346 
  38 00df 52A67F70 		.ascii	"R\246\177p\274\241\231\236\241\236\211\276~~\261~Q\211"
  38      BCA1999E 
  38      A19E89BE 
  38      7E7EB17E 
  38      5189
  39 00f1 7E417E51 		.ascii	"~A~QI\261\276c\220\257\263o\205~rFr~Qj|\231y\256^\006"
  39      49B1BE63 
  39      90AFB36F 
  39      857E7246 
  39      727E516A 
  40 010b 036B5962 		.ascii	"\003kYbNi\2529\016\255\251\025%\372\316\276\301\236"
  40      4E69AA39 
ARM GAS  /tmp/cc6DU3Wg.s 			page 3


  40      0EADA915 
  40      25FACEBE 
  40      C19E
  41 011d C1FA9979 		.ascii	"\301\372\231y\3119\245)\251\372`\255\311\271n\245y\311"
  41      C939A529 
  41      A9FA60AD 
  41      C9B96EA5 
  41      79C9
  42 012f 40DD02BE 		.ascii	"@\335\002\276\301A\012I\211\305\251\005E\231:\012\252"
  42      C1410A49 
  42      89C5A905 
  42      45993A0A 
  42      AA
  43 0140 060C4C45 		.ascii	"\006\014LE\014\354\271\251\271\371E\225\014\000\027"
  43      0CECB9A9 
  43      B9F94595 
  43      0C0017
  44 014f 1D670F   		.ascii	"\035g\017"
  45              		.text
  46              		.section	.gnu.lto_port_unlock.1144c840e79bdd9c,"",%progbits
  47 0000 789C6362 		.ascii	"x\234cb`b@\007\"@,\314\310\3000\001\304af`\004\252`"
  47      60624007 
  47      22402CCC 
  47      C8C03001 
  47      C4616660 
  48 0017 6462040A 		.ascii	"db\004\012002\32431\326G\202\230\014\214J\014\013\033"
  48      303032D4 
  48      3331D647 
  48      82980C8C 
  48      4A0C0B1B 
  49 002b 1A263D68 		.ascii	"\032&=h\375\364\230if\303\201\226\005\015\177\376\377"
  49      FDF49869 
  49      66C38196 
  49      050D7FFE 
  49      FF
  50 003c 6764CC64 		.ascii	"gd\314d\004\232h\316\310\220\314\310\020\001\3440*\200"
  50      049A68CE 
  50      C890CCC8 
  50      1001E430 
  50      2A80
  51 004e 29261654 		.ascii	")&\026T+\3263\035x\360\377\377\213\316\375\373\200&"
  51      2BD6331D 
  51      78F0FFFF 
  51      8BCEFDFB 
  51      8026
  52 0060 3324322E 		.ascii	"3$2.\004\232\006\004\254\014-\015\015\023\024\030@\272"
  52      049A0604 
  52      AC0C2D0D 
  52      0D131418 
  52      40BA
  53 0072 8120044C 		.ascii	"\201 \004L\206\202\034\300|\226\241i\007\220Ngd\004"
  53      86821CC0 
  53      7C96A169 
  53      07904E67 
  53      6404
  54 0084 990736E4 		.ascii	"\231\0076\344\034C\323\307\2773\036K\300u\201\031\015"
  54      1C43D3C7 
ARM GAS  /tmp/cc6DU3Wg.s 			page 4


  54      BF331E4B 
  54      C0758119 
  54      0D
  55 0095 074E3F6D 		.ascii	"\007N?mg\205\031\231\310\270\230\221\025h\034\304\311"
  55      67851999 
  55      C8B89891 
  55      15681CC4 
  55      C9
  56 00a6 4058CA0C 		.ascii	"@X\312\014\36213\304\333r\014m\214s\033f8d22\203\270"
  56      F23133C4 
  56      DB720C6D 
  56      8C731B66 
  56      38643232 
  57 00bc E9606570 		.ascii	"\351`ep\271N\250\034\324\355\027\031\032\037\234\327"
  57      B94EA81C 
  57      D4ED1719 
  57      1A1F9CD7 
  58 00cc 87180803 		.ascii	"\207\030\010\003! \035 \345&9\231I\372\316\031\231I"
  58      21201D20 
  58      E5263999 
  58      49FACE19 
  58      9949
  59 00de 99FEC1F1 		.ascii	"\231\376\301\361\206fz\206z&\372\372\371\305\372E%\372"
  59      86667A86 
  59      7A26FAFA 
  59      F9C5FA45 
  59      25FA
  60 00f0 05F94525 		.ascii	"\005\371E%\305\372\216A\276\316\276\025\372\311\031"
  60      C5FA8E41 
  60      BECEBE15 
  60      FAC919
  61 00ff C9F945A9 		.ascii	"\311\371E\251\361e\346\271z\031\014\254e\2119\245\251"
  61      F165E6B9 
  61      7A190CAC 
  61      658939A5 
  61      A9
  62 0110 E638B4A6 		.ascii	"\3468\264\246V\224\350;\373\006{\006\353g\346%\347\224"
  62      5694E83B 
  62      FB067B06 
  62      EB67E625 
  62      E794
  63 0122 A6A4EA83 		.ascii	"\246\244\352\203\265&\347\272\225\346%\003u\013\370"
  63      B526E7BA 
  63      95E62503 
  63      750BF8
  64 0131 06072924 		.ascii	"\006\007)$%\026\247\026\024e\352(\250\03200\0251\260"
  64      2516A716 
  64      1465EA28 
  64      A81A3030 
  64      1531B0
  65 0144 E7A6E6E6 		.ascii	"\347\246\346\346\027U2\000\000]Vg["
  65      17553200 
  65      005D5667 
  65      5B
  66              		.text
  67              		.section	.gnu.lto_port_lock_from_isr.1144c840e79bdd9c,"",%progbits
  68 0000 789C6362 		.ascii	"x\234cb`b@\007\"@\\\006\304f \0163\003#P\005#\023##"
ARM GAS  /tmp/cc6DU3Wg.s 			page 5


  68      60624007 
  68      22405C06 
  68      C466200E 
  68      33032350 
  69 0019 90C3C850 		.ascii	"\220\303\310P\317\304X\037\311\010V\266\236\351\300"
  69      CFC4581F 
  69      C90856B6 
  69      9EE9C0
  70 0028 83FFFFD7 		.ascii	"\203\377\377\327\355\273\277n\015\343?&\220\030+CKC"
  70      EDBBBF6E 
  70      0DE33F26 
  70      90182B43 
  70      4B43
  71 003a C3040506 		.ascii	"\303\004\005\006\206d\260\212\0200\031\012\322\317|"
  71      8664B08A 
  71      1030190A 
  71      D2CF7C
  72 0049 9EA1F9C1 		.ascii	"\236\241\371\301\313~\366D\306\205\214\254@\301j\206"
  72      CB7EF644 
  72      C6858CAC 
  72      40C16A86 
  73 0059 5F0D1D0D 		.ascii	"_\015\035\015\002\231\214@\245\020\3232A\364E\206\306"
  73      02998C40 
  73      A510D332 
  73      41F44586 
  73      C6
  74 006a 07AFF461 		.ascii	"\007\257\364a\212  \004$\001r\244INf\222\276sFfR\246"
  74      8A202004 
  74      240172A4 
  74      494E6692 
  74      BE734666 
  75 0080 7F70BCA1 		.ascii	"\177p\274\241\231\236\241\236\211\276~~\261~Q\211~A"
  75      999EA19E 
  75      89BE7E7E 
  75      B17E5189 
  75      7E41
  76 0092 7E5149B1 		.ascii	"~QI\261\276c\220\257\263o\205~rFr~Qj|\231y\256^\006"
  76      BE6390AF 
  76      B36F857E 
  76      7246727E 
  76      516A7C99 
  77 00aa 0300EC4B 		.ascii	"\003\000\354K-C"
  77      2D43
  78              		.text
  79              		.section	.gnu.lto_port_unlock_from_isr.1144c840e79bdd9c,"",%progbits
  80 0000 789C6362 		.ascii	"x\234cb`b@\007\"@\\\006\304f \0163\003#P\005#\023##"
  80      60624007 
  80      22405C06 
  80      C466200E 
  80      33032350 
  81 0019 90C3C850 		.ascii	"\220\303\310P\317\304X\037\311\010V\266\236\351\300"
  81      CFC4581F 
  81      C90856B6 
  81      9EE9C0
  82 0028 83FFFFD7 		.ascii	"\203\377\377\327}\271\277\376\016\343\177&\220\030+"
  82      7DB9BFFE 
  82      0EE37F26 
ARM GAS  /tmp/cc6DU3Wg.s 			page 6


  82      90182B
  83 0037 434B43C3 		.ascii	"CKC\303\004\005\006\206d\260\212\0200\031\012\322\317"
  83      04050686 
  83      64B08A10 
  83      30190AD2 
  83      CF
  84 0048 7C9EA1F9 		.ascii	"|\236\241\371\301\237\363\354\211\214\013\031Y\201\202"
  84      C19FF3EC 
  84      898C0B19 
  84      598182
  85 0057 D50CBF1A 		.ascii	"\325\014\277\032:\032\0042\031\201J!\246e\202\350\213"
  85      3A1A0432 
  85      19814A21 
  85      A66582E8 
  85      8B
  86 0068 0C8D0FFE 		.ascii	"\014\215\017\376\352\303\024A@\010H\002\344H\223\234"
  86      EAC31441 
  86      40084802 
  86      E448939C 
  87 0078 CC247DE7 		.ascii	"\314$}\347\214\314\244L\377\340xC3=C=\023}\375\374b"
  87      8CCCA44C 
  87      FFE07843 
  87      333D433D 
  87      137DFDFC 
  88 008d FDA212FD 		.ascii	"\375\242\022\375\202\374\242\222b}\307 _g\337\012\375"
  88      82FCA292 
  88      627DC720 
  88      5F67DF0A 
  88      FD
  89 009e E48CE4FC 		.ascii	"\344\214\344\374\242\324\3702\363\\\275\014\006\000"
  89      A2D4F832 
  89      F35CBD0C 
  89      0600
  90 00ac 57192E11 		.ascii	"W\031.\021"
  91              		.text
  92              		.section	.gnu.lto_chSysLockFromISR.1144c840e79bdd9c,"",%progbits
  93 0000 789C6362 		.ascii	"x\234cb`b@\007\"@|\010\210u@\034f\006F\240\012F&FF "
  93      60624007 
  93      22407C08 
  93      8875401C 
  93      660646A0 
  94 001a 8791A19E 		.ascii	"\207\221\241\236\211\261>\222\021\254l=\323\201\007"
  94      89B13E92 
  94      11AC6C3D 
  94      D38107
  95 0029 FFFFAF9B 		.ascii	"\377\377\257\233rk\355\037\306\027L 1V\206\226\206\206"
  95      726BED1F 
  95      C6174C20 
  95      31568696 
  95      8686
  96 003b 090A0C0C 		.ascii	"\011\012\014\014\311`\025!`2\024\244\237\371<C\363\203"
  96      C9601521 
  96      603214A4 
  96      9FF93C43 
  96      F383
  97 004d 9EB5DC89 		.ascii	"\236\265\334\211\214\013\031Y\201\202\325\014\277\032"
  97      8C0B1959 
ARM GAS  /tmp/cc6DU3Wg.s 			page 7


  97      8182D50C 
  97      BF1A
  98 005b 3A1A0432 		.ascii	":\032\0042\031\201J!\246e\202h\220\252\336^!l\252\230"
  98      19814A21 
  98      A6658268 
  98      90AADE5E 
  98      216CAA98 
  99 006f 5055F5BD 		.ascii	"PU\365\275\345\303\246\212\031\241\352\"C\343\203~]"
  99      E5C3A68A 
  99      19A1EA22 
  99      43E3837E 
  99      5D
 100 0080 98220808 		.ascii	"\230\"\010\010\001I\200L\322\312\311L\322w\316\310L"
 100      0149804C 
 100      D2CAC94C 
 100      D277CEC8 
 100      4C
 101 0091 CAF40F8E 		.ascii	"\312\364\017\21674\3233\3243\321\327\317/\326/*\321"
 101      3734D333 
 101      D433D1D7 
 101      CF2FD62F 
 101      2AD1
 102 00a3 CFCC4BCE 		.ascii	"\317\314K\316)MI\325O\316(\256,\326\313`\000\000Kz;"
 102      294D49D5 
 102      4FCE28AE 
 102      2CD6CB60 
 102      00004B7A 
 103 00b8 7B       		.ascii	"{"
 104              		.text
 105              		.section	.gnu.lto_osalSysLockFromISR.1144c840e79bdd9c,"",%progbits
 106 0000 789C6362 		.ascii	"x\234cb`b@\007\"@\\\011\304: \0163\003#P\005#\023##"
 106      60624007 
 106      22405C09 
 106      C43A200E 
 106      33032350 
 107 0019 90C3C850 		.ascii	"\220\303\310P\317\304X\037\311\010V\266\236\351\300"
 107      CFC4581F 
 107      C90856B6 
 107      9EE9C0
 108 0028 83FFFFD7 		.ascii	"\203\377\377\327Mz\364\342(c\317F\026\220 +CKC\303\004"
 108      4D7AF4E2 
 108      2863CF46 
 108      1690202B 
 108      434B43C3 
 109 003d 05068664 		.ascii	"\005\006\206d\260\222\0200\031\0122\200\371<C\363\203"
 109      B0921030 
 109      190A3280 
 109      F93C43F3 
 109      83
 110 004e EE8D6B18 		.ascii	"\356\215k\030\023\031\0272\262\002E\253\031~5t4\010"
 110      13191732 
 110      B20245AB 
 110      197E3574 
 110      3408
 111 0060 643202D5 		.ascii	"d2\002\325B\314\313\004\321\027\031\032\037\000\015"
 111      42CCCB04 
 111      D117191A 
ARM GAS  /tmp/cc6DU3Wg.s 			page 8


 111      1F000D
 112 006f 83A98280 		.ascii	"\203\251\202\200\020\220\014\310\235Z9\231I\372\316"
 112      10900CC8 
 112      9D5A3999 
 112      49FACE
 113 007e 19994999 		.ascii	"\031\231I\231\376\301\361\206fz\206z&\372\372\371\305"
 113      FEC1F186 
 113      667A867A 
 113      26FAFAF9 
 113      C5
 114 008f FA198939 		.ascii	"\372\031\2119@\012H\024\225\200i\275\014\006\000\327"
 114      400A4814 
 114      958069BD 
 114      0C0600D7 
 115 009f 762AB5   		.ascii	"v*\265"
 116              		.text
 117              		.section	.gnu.lto_osalOsTimerHandlerI.1144c840e79bdd9c,"",%progbits
 118 0000 789C6362 		.ascii	"x\234cb`b@\007\"@\\\011\304: \0163\003#P\005#\023##"
 118      60624007 
 118      22405C09 
 118      C43A200E 
 118      33032350 
 119 0019 90C3C850 		.ascii	"\220\303\310P\317\304X\037\311\010V\266\236\351\300"
 119      CFC4581F 
 119      C90856B6 
 119      9EE9C0
 120 0028 83FFFFD7 		.ascii	"\203\377\377\327\315{\366\341(\343\254\315, AV\206\226"
 120      CD7BF6E1 
 120      28E3ACCD 
 120      2C204156 
 120      8696
 121 003a 8686090A 		.ascii	"\206\206\011\012\014\014\311`%!`2\024d\000\363y\206"
 121      0C0CC960 
 121      25216032 
 121      146400F3 
 121      7986
 122 004c E6073337 		.ascii	"\346\00737oaLd\\\310\310\012\024\255f\370\325\320\321"
 122      6F614C64 
 122      5CC8C80A 
 122      14AD66F8 
 122      D5D0D1
 123 005f 2090C908 		.ascii	" \220\311\010T\0131/\023D_dh|\0004\014\246\012\002B"
 123      540B312F 
 123      13445F64 
 123      687C0034 
 123      0CA60A02 
 124 0074 40322077 		.ascii	"@2 wj\345d&\351;gd&e\372\007\307\033\232\351\031\352"
 124      6AE56426 
 124      E93B6764 
 124      2665FA07 
 124      C71B9AE9 
 125 008a 99E8EBE7 		.ascii	"\231\350\353\347\027\353g$\346\000) QT\002\246\3652"
 125      17EB6724 
 125      E6002920 
 125      515402A6 
 125      F532
 126 009c 1800FD04 		.ascii	"\030\000\375\004+\005"
ARM GAS  /tmp/cc6DU3Wg.s 			page 9


 126      2B05
 127              		.text
 128              		.section	.gnu.lto_chSysUnlockFromISR.1144c840e79bdd9c,"",%progbits
 129 0000 789C6362 		.ascii	"x\234cb`b@\007\"@|\010\210u@\034f\006F\240\012F&FF "
 129      60624007 
 129      22407C08 
 129      8875401C 
 129      660646A0 
 130 001a 8791A19E 		.ascii	"\207\221\241\236\211\261>\222\021\254l=\323\201\007"
 130      89B13E92 
 130      11AC6C3D 
 130      D38107
 131 0029 FFFFAFBB 		.ascii	"\377\377\257\273sk\335\036\306\327L 1V\206\226\206\206"
 131      736BDD1E 
 131      C6D74C20 
 131      31568696 
 131      8686
 132 003b 090A0C0C 		.ascii	"\011\012\014\014\311`\025!`2\024\244\237\371<C\363\203"
 132      C9601521 
 132      603214A4 
 132      9FF93C43 
 132      F383
 133 004d 1D6BF913 		.ascii	"\035k\371\023\031\0272\262\002\005\253\031~5t4\010d"
 133      191732B2 
 133      0205AB19 
 133      7E357434 
 133      0864
 134 005f 32029542 		.ascii	"2\002\225BL\313\004\321 U;\337bU\305\204\252j\327[n"
 134      4CCB04D1 
 134      20553BDF 
 134      6255C584 
 134      AA6AD75B 
 135 0074 6CAA9811 		.ascii	"l\252\230\021\252.24>\330\255\013S\004\001! \011\220"
 135      AA2E3234 
 135      3ED8AD0B 
 135      53040121 
 135      200990
 136 0087 495A3999 		.ascii	"IZ9\231I\372\316\031\231I\231\376\301\361\206fz\206"
 136      49FACE19 
 136      994999FE 
 136      C1F18666 
 136      7A86
 137 0099 7A26FAFA 		.ascii	"z&\372\372\371\305\372E%\372\231y\3119\245)\251\372"
 137      F9C5FA45 
 137      25FA9979 
 137      C939A529 
 137      A9FA
 138 00ab C919C595 		.ascii	"\311\031\305\225\305z\031\014\000\342'<\225"
 138      C57A190C 
 138      00E2273C 
 138      95
 139              		.text
 140              		.section	.gnu.lto_osalSysUnlockFromISR.1144c840e79bdd9c,"",%progbits
 141 0000 789C6362 		.ascii	"x\234cb`b@\007\"@\\\011\304: \0163\003#P\005#\023##"
 141      60624007 
 141      22405C09 
 141      C43A200E 
ARM GAS  /tmp/cc6DU3Wg.s 			page 10


 141      33032350 
 142 0019 90C3C850 		.ascii	"\220\303\310P\317\304X\037\311\010V\266\236\351\300"
 142      CFC4581F 
 142      C90856B6 
 142      9EE9C0
 143 0028 83FFFFD7 		.ascii	"\203\377\377\327\355x\364\343(\343\374\215, AV\206\226"
 143      ED78F4E3 
 143      28E3FC8D 
 143      2C204156 
 143      8696
 144 003a 8686090A 		.ascii	"\206\206\011\012\014\014\311`%!`2\024d\000\363y\206"
 144      0C0CC960 
 144      25216032 
 144      146400F3 
 144      7986
 145 004c E607F336 		.ascii	"\346\007\3636naLd\\\310\310\012\024\255f\370\325\320"
 145      6E614C64 
 145      5CC8C80A 
 145      14AD66F8 
 145      D5D0
 146 005e D12090C9 		.ascii	"\321 \220\311\010T\0131/\023D_dh|\0004\014\246\012\002"
 146      08540B31 
 146      2F13445F 
 146      64687C00 
 146      340CA60A 
 147 0073 42403220 		.ascii	"B@2 wj\345d&\351;gd&e\372\007\307\033\232\351\031\352"
 147      776AE564 
 147      26E93B67 
 147      642665FA 
 147      07C71B9A 
 148 008a 99E8EBE7 		.ascii	"\231\350\353\347\027\353g$\346\000) QT\002\246\3652"
 148      17EB6724 
 148      E6002920 
 148      515402A6 
 148      F532
 149 009c 18001288 		.ascii	"\030\000\022\210+,"
 149      2B2C
 150              		.text
 151              		.section	.gnu.lto_VectorB0.1144c840e79bdd9c,"",%progbits
 152 0000 789C8D51 		.ascii	"x\234\215Q1H\\A\020\235\331\335;\021I\020\254\354\304"
 152      31485C41 
 152      109DD9DD 
 152      3B114910 
 152      ACECC4
 153 0013 462170CB 		.ascii	"F!p\313\251X\004\301B\033AQ\270\023\2224\342]@?\034"
 153      A95804C1 
 153      421B4151 
 153      B8139234 
 153      E25D403F 
 154 0028 2839B1B1 		.ascii	"(9\261\261p\317\373\220`%b\2436Z\210b#\244\022\322\034"
 154      70CFFB90 
 154      602562A3 
 154      365A8862 
 154      23A412D2 
 155 003d 8180298E 		.ascii	"\201\200)\216K\272t\371BP\004;\033\343\211?3\373\363"
 155      4BBA74F9 
 155      4250043B 
ARM GAS  /tmp/cc6DU3Wg.s 			page 11


 155      1BE3893F 
 155      33FBF3
 156 0050 BD533F78 		.ascii	"\275S?x\003\177fw\346\315\374\267o\004\010xl\335\364"
 156      037F6677 
 156      E6CDFCB7 
 156      6F040878 
 156      6CDDF4
 157 0063 F54A8001 		.ascii	"\365J\200\001\276\304\000\011\201BP\302\010ENI\244\200"
 157      BEC40009 
 157      814250C2 
 157      08454E49 
 157      A480
 158 0075 0A91CA08 		.ascii	"\012\221\312\010\313B*\\~\313\027P\235\260k\314\272"
 158      CB422A5C 
 158      7ECB1750 
 158      9DB06BCC 
 158      BA
 159 0086 F7AD7A2A 		.ascii	"\367\255z*67J\356\216\271\365}D\207\213Y\2047t\302\016"
 159      36374AEE 
 159      8EB9F57D 
 159      44878B59 
 159      843774C2 
 160 009b 1B7852BD 		.ascii	"\033xR\275\005\215\346\363\201i\266M\322A\331`\317\325"
 160      058DE6F3 
 160      8169B64D 
 160      D241D960 
 160      CFD5
 161 00ad 9F8913E3 		.ascii	"\237\211\023\343\226|\177\260\341\236\322\357\312F\373"
 161      967C7FB0 
 161      E19ED2EF 
 161      CA46FB
 162 00bc EACECA9A 		.ascii	"\352\316\312\232\271#~\015\320;\022%\317\367o\253\327"
 162      B9237E0D 
 162      D03B1225 
 162      CFF76FAB 
 162      D7
 163 00cd A73EB6C5 		.ascii	"\247>\266\305\020\250E\220\223\222\235\002;\201\244"
 163      10A84590 
 163      93929D02 
 163      3B81A4
 164 00dc 728D59EB 		.ascii	"r\215Y\353\260\263\310\322\326O\262|\262\002E\357bf"
 164      B0B3C8D2 
 164      D64FB27C 
 164      B20245EF 
 164      6266
 165 00ee 1AF73046 		.ascii	"\032\3670F\271%\2701\237L\253\203*kE\004\032@\371\012"
 165      B925B831 
 165      9F4CAB83 
 165      2A6B4504 
 165      1A40F90A 
 166 0102 C82884A8 		.ascii	"\310(\204\250!\312\260r\374\213\264\015`3\210\314\025"
 166      21CAB072 
 166      FC8BB40D 
 166      603388CC 
 166      15
 167 0113 0C19F32D 		.ascii	"\014\031\363-\303\327waE\274\202C\343R5\276\015[\024"
 167      C3D77761 
ARM GAS  /tmp/cc6DU3Wg.s 			page 12


 167      45BC8243 
 167      E35235BE 
 167      0D5B14
 168 0126 9A42B0B5 		.ascii	"\232B\260\265\014\206\017+C\361K\361\014\3036I\235\014"
 168      0C860F2B 
 168      43F14BF1 
 168      0CC33649 
 168      9D0C
 169 0138 93FCD313 		.ascii	"\223\374\323\023p/\013/\356K6_/\312$_%s\272\256~\277"
 169      702F0B2F 
 169      EE4B365F 
 169      2FCA245F 
 169      2573BAAE 
 170 014e E7A41E73 		.ascii	"\347\244\036s:\376\321\022\324,\245\202I\325\223ROI"
 170      3AFED112 
 170      D42CA582 
 170      49D59352 
 170      4F49
 171 0160 7126CE07 		.ascii	"q&\316\007\026\355\357yK\224&\262^\265\242w\363\361"
 171      16EDEF79 
 171      4B9426B2 
 171      5EB5A277 
 171      F3F1
 172 0172 65144A3D 		.ascii	"e\024J=DU\367#Q\261\032*x\225\372\277\260\273\310\205"
 172      4455F723 
 172      51B11A2A 
 172      7895FABF 
 172      B0BBC885 
 173 0186 C59F5D58 		.ascii	"\305\237]XS\015\361\023\012\236\337\025\202\002K\363"
 173      530DF113 
 173      0A9EDF15 
 173      82024BF3 
 174 0196 CE59DFD7 		.ascii	"\316Y\337\3279'\243\207f\235\2143\236\232J\366'\222"
 174      3927A387 
 174      669D8C33 
 174      9E9A4AF6 
 174      2792
 175 01a8 893EADE7 		.ascii	"\211>\255\347\362zv:\247\347\347>,\344u*=\326\333\243"
 175      F27A763A 
 175      A7E7E73E 
 175      2CE4752A 
 175      3DD6DBA3 
 176 01bc 47478775 		.ascii	"GG\207uzdl1\251\363\013S\271\334\373D\026\376\001\205"
 176      7A646C31 
 176      A9F30B53 
 176      B9DCFB44 
 176      16FE0185 
 177 01d0 B8C929   		.ascii	"\270\311)"
 178              		.text
 179              		.section	.gnu.lto_st_lld_init.1144c840e79bdd9c,"",%progbits
 180 0000 789CDD95 		.ascii	"x\234\335\225Mh\023A\024\307\337\354\354&\331\315\247"
 180      4D681341 
 180      14C7DFEC 
 180      EC26D9CD 
 180      A7
 181 0011 D08B1F87 		.ascii	"\320\213\037\207\342M\304,\321\"\"\202\210^\012-\036"
 181      E24DC42C 
ARM GAS  /tmp/cc6DU3Wg.s 			page 13


 181      D1222282 
 181      885E0A2D 
 181      1E
 182 0022 9A42EBA5 		.ascii	"\232B\353\2454\021\332\205@\245)^<dR+,\"\030\364V/\365"
 182      3411DA85 
 182      40A5295E 
 182      3C64522B 
 182      2C2218F4 
 183 0039 2084542C 		.ascii	" \204T,\010B\004\017\301\223\036J\261'o\246\267x+\""
 183      0842040F 
 183      C1931E4A 
 183      B1276FA6 
 183      B7782B22 
 184 004d 5242719D 		.ascii	"RBq\235\267\337I*d\027\352\301\201\374\367\343\275\377"
 184      B7DF492A 
 184      6417EAC1 
 184      81FCF7E3 
 184      BDFF
 185 005f EFCD1B66 		.ascii	"\357\315\033f6\002\010\320?N\363\337\214\014p\015\037"
 185      360208D0 
 185      3F4EF3DF 
 185      8C0C700D 
 185      1F
 186 0070 44203C83 		.ascii	"D <\203\010\204r\245\204\360W\004*\002%\225Y\274\207"
 186      088472A5 
 186      84F05704 
 186      2A022595 
 186      59BC87
 187 0083 91B3F092 		.ascii	"\221\263\360\222\261g\355W\215\365\223\2177Vk\354\267"
 187      B167ED57 
 187      8DF5938F 
 187      37566BEC 
 187      B7
 188 0094 61100D43 		.ascii	"a\020\015CE\0023\374\216\214\232\027A\354-b\331\330"
 188      450233FC 
 188      8E8C9A17 
 188      41EC2D62 
 188      D9D8
 189 00a6 DB3A9337 		.ascii	"\333:\2237\330\241a\320p\036\372\217<\377A?\255\257"
 189      D8A161D0 
 189      701EFA8F 
 189      3CFF413F 
 189      ADAF
 190 00b8 BB4F945A 		.ascii	"\273O\224ZUg\206Q\321\210\030\242P\030\317q6\364m\367"
 190      55678651 
 190      D18818A2 
 190      5018CF71 
 190      36F46DF7 
 191 00cc A97FCF49 		.ascii	"\251\177\317IC\332\366\375\3530\254\351G\030\323\317"
 191      43DAF6FD 
 191      EB30ACE9 
 191      4718D3CF 
 192 00dc 30A65F61 		.ascii	"0\246_aL\007aL\3350\246\303@\246-\241\3256\214\017\317"
 192      4C07614C 
 192      DD30A6C3 
 192      40A62DA1 
 192      D5368C0F 
ARM GAS  /tmp/cc6DU3Wg.s 			page 14


 193 00f1 F7F63A64 		.ascii	"\367\366:d\344\004\001~*\004\024\312\205\212(\022\027"
 193      E404017E 
 193      2A0414CA 
 193      858A2812 
 193      17
 194 0102 318212C5 		.ascii	"1\202\022\305\307\030\212\314ERP\342(\011\224$J\012"
 194      C7188ACC 
 194      455250E2 
 194      28099424 
 194      4A0A
 195 0114 258D9201 		.ascii	"%\215\222\001\263:H\260\306Xm\324\234\007\037yS\247"
 195      B33A48B0 
 195      C6586DD4 
 195      9C071F79 
 195      53A7
 196 0126 F19B45B7 		.ascii	"\361\233E\267a\265\331l\234\232'\357x\346\002!8?`\373"
 196      61B5D96C 
 196      9C9A27EF 
 196      78E60221 
 196      383F60FB 
 197 013a 3AC339F2 		.ascii	":\3039\362\340\025'\"\364E>\336q\"\364<4\330Z5\243\221"
 197      E0152722 
 197      F4453EDE 
 197      7122F43C 
 197      34D85A35 
 198 0150 C80B58E7 		.ascii	"\310\013X\347YQ'\333\034\005\342\364\271\015\017\337"
 198      595127DB 
 198      1C05E2F4 
 198      B90D0FDF 
 199 0160 53C72572 		.ascii	"S\307%r#&Qb\341\306\255\300\021,2\310Z \366\022N\343"
 199      23265162 
 199      E1C6ADC0 
 199      112C32C8 
 199      5A20F612 
 200 0176 39309BD0 		.ascii	"90\233\3207\005\007-\241Ad\255\032K\3655\021\351\213"
 200      3705072D 
 200      A14164AD 
 200      1A4BF535 
 200      11E98B
 201 0189 784D44FB 		.ascii	"xMD\373\013\307\234l\27309\252\011\236\024\035\242\211"
 201      0BC79C6C 
 201      BB3039AA 
 201      099E141D 
 201      A289
 202 019b 9833A71E 		.ascii	"\2303\247\036\026\267\233\263k\036lv\211C\2241Ob|\330"
 202      16B79BB3 
 202      6B1E6C76 
 202      89439431 
 202      4F627CD8 
 203 01af CBDCACA5 		.ascii	"\313\334\254\245\374Pv\335\245\312N\266M\265\376\244"
 203      FC5076DD 
 203      A5CA4EB6 
 203      4DB5FEA4 
 204 01bf F04D64E7 		.ascii	"\360Md\347\206\325xS\177\343\256\212\022\210\254\370"
 204      86D57853 
 204      7FE3AE8A 
 204      1288ACF8 
ARM GAS  /tmp/cc6DU3Wg.s 			page 15


 205 01cf C9D4231B 		.ascii	"\311\324#\033|\244mx\335\203\307\003\301\343~\270\350"
 205      7CA46D78 
 205      DD83C703 
 205      C1E37EB8 
 205      E8
 206 01e0 C1C1067F 		.ascii	"\301\301\006\177\362\300\211\277\202/\300k\004\317r"
 206      F2C089BF 
 206      822FC06B 
 206      04CF72
 207 01ef 9F574371 		.ascii	"\237WCqk$\3745$\267F\334=u=\025;^\305d\240V\222\376"
 207      6B24FC35 
 207      24B746DC 
 207      3D753D15 
 207      3B5EC564 
 208 0207 329141B0 		.ascii	"2\221A\260\276\345\202S\201\300)?8:\010\256{\340t p"
 208      BEE58253 
 208      81C0293F 
 208      383A08AE 
 208      7BE07420 
 209 021c DA0F8EB9 		.ascii	"\332\017\216\271`{\013\363\305\367\300\231@\340\214"
 209      607B0BF3 
 209      C5F7C099 
 209      40E08C
 210 022b 1F2CF782 		.ascii	"\037,\367\202w\340Q\373\363w\3052\003<\200.\323\031"
 210      77E051FB 
 210      F377C532 
 210      033C802E 
 210      D319
 211 023d 3F2089A2 		.ascii	"? \211\242}\03003y\306\272\340\347\215\237\317/Pmw\316"
 211      7D183033 
 211      79C6BAE0 
 211      E78D9FCF 
 211      2F506D77 
 212 0252 39166BE4 		.ascii	"9\026k\3441\0357\372\325\222VPo.j\005\355\366\324\\"
 212      311D37FA 
 212      D5925650 
 212      6F2E6A05 
 212      EDF6D45C 
 213 0266 EE723697 		.ascii	"\356r6\227\035S\325\245\262\2728_R\357--\257\224\325"
 213      1D53D5A5 
 213      B2BA385F 
 213      52EF2D2D 
 213      AF94D5
 214 0279 A9FCE4A5 		.ascii	"\251\374\344\245\213\352\304\304-5?>y?\247\226W\346"
 214      8BEAC4C4 
 214      2D353F3E 
 214      793FA796 
 214      57E6
 215 028b 4AA5BBD9 		.ascii	"J\245\273\331\"\374\001s>\032\333"
 215      22FC0173 
 215      3E1ADB
 216              		.text
 217              		.section	.gnu.lto_.symbol_nodes.1144c840e79bdd9c,"",%progbits
 218 0000 789C4DCA 		.ascii	"x\234M\312\271N\303P\020\205\3413\347\332\261\235}\353"
 218      B94EC350 
 218      1085E133 
 218      E7DAB19D 
ARM GAS  /tmp/cc6DU3Wg.s 			page 16


 218      7DEB
 219 0012 F36C3CC9 		.ascii	"\363l<\3111\216\004\251PX\302\332A\005\217\221\224H"
 219      318E04A9 
 219      5058C2DA 
 219      41058F91 
 219      9448
 220 0024 94D448B4 		.ascii	"\224\324H\264\351\241@,\366\265\270w\232_\337\314\020"
 220      E9A1402C 
 220      F6B5B877 
 220      9A5FDFCC 
 220      10
 221 0035 C4B3C10F 		.ascii	"\304\263\301\017\177 `\375\002H\233\325\001K\223E<4"
 221      7F2060FD 
 221      02489BD5 
 221      014B9345 
 221      3C34
 222 0047 31626572 		.ascii	"1ber\021\037MI\304\017S\032\361\313\324\211\370d\312"
 222      111F4D49 
 222      C40F531A 
 222      F1CBD489 
 222      F864CA
 223 005a 227E9AF2 		.ascii	"\"~\232\362\210k\252h\371\2722\236R\335@\273\242z\236"
 223      886BAA68 
 223      F9BA329E 
 223      52DD40BB 
 223      A27A9E
 224 006d 65697649 		.ascii	"eivI\365\203\256\251A\320-5\014\272\241FA\033j\034t"
 224      F583AEA9 
 224      41D02D35 
 224      0CBAA146 
 224      411B6A1C 
 225 0082 414D82CE 		.ascii	"AM\202\316\251i\320\0315\013\272\243\346\377r\004\252"
 225      A969D019 
 225      350BBAA3 
 225      E6FF7204 
 225      AA
 226 0093 B76F73CE 		.ascii	"\267os\316|\023\266\355\343\241i\017\273\272i\342\367"
 226      7C13B6ED 
 226      E3A1690F 
 226      BBBA69E2 
 226      F7
 227 00a4 9D019675 		.ascii	"\235\001\226u\263Q\333\241\377\313\034\266u\363\314"
 227      B351DBA1 
 227      FFCB1CB6 
 227      75F3CC
 228 00b3 FF15337F 		.ascii	"\377\0253\177/\246\376^\244\250\216\366\013Wtp\3374"
 228      2FA6FE5E 
 228      A4A88EF6 
 228      0B577470 
 228      DF34
 229 00c5 C7B6E904 		.ascii	"\307\266\351\004\357M\307X\036\377\265;\307\356d\277"
 229      EF4DC758 
 229      1EFFB53B 
 229      C7EE64BF 
 230 00d5 C02F5998 		.ascii	"\300/Y\230\217\250"
 230      8FA8
 231              		.text
ARM GAS  /tmp/cc6DU3Wg.s 			page 17


 232              		.section	.gnu.lto_.refs.1144c840e79bdd9c,"",%progbits
 233 0000 789C6362 		.ascii	"x\234cb`b`d\200\002\000\000F\000\006"
 233      60626064 
 233      80020000 
 233      460006
 234              		.text
 235              		.section	.gnu.lto_.decls.1144c840e79bdd9c,"",%progbits
 236 0000 789C9D99 		.ascii	"x\234\235\231{p\023\307\031\300wO~bc\210!\031\247\323"
 236      7B7013C7 
 236      19C0774F 
 236      7E626388 
 236      2119A7D3 
 237 0014 0EA6D3B4 		.ascii	"\016\246\323\264\035\246E\330\246\220\351\264\031\033"
 237      1DA645D8 
 237      A690E9B4 
 237      191B
 238 0022 D906776C 		.ascii	"\331\006wl\360\234L\206I\377P\016\371\300\232\3122\221"
 238      F09C4C86 
 238      49FF500E 
 238      F9C09ACA 
 238      3291
 239 0034 6462FECA 		.ascii	"db\376\312\021\023\240I\230\212g\200\202qL0\201\232"
 239      1113A049 
 239      988A6780 
 239      82714C30 
 239      819A
 240 0046 471C200E 		.ascii	"G\034 \016\246\256 \2048@\035\307\001\023\236u^\206"
 240      A6AE2084 
 240      38401DC7 
 240      01139E75 
 240      5E86
 241 0058 242431CF 		.ascii	"$$1\317\230\220\326\335\335{\350\366tk\337q3\337w\253"
 241      9890D6DD 
 241      DD7BE8F6 
 241      746BDF71 
 241      33DF77AB 
 242 006c BBFD7EDF 		.ascii	"\273\375~\337\267\337~w\273\2228\300\201|\007\000C\350"
 242      B7DF7E77 
 242      BB9238C0 
 242      817C0700 
 242      43E8
 243 007e 983D1180 		.ascii	"\230=\021\200\243\211\000\244\003\000\236\000\261\343"
 243      A38900A4 
 243      03009E00 
 243      B1E3
 244 008c 6124AF22 		.ascii	"a$\257\"iF\262\013I\013\222}HZ\221\034D\322\206\244"
 244      6946B20B 
 244      490B927D 
 244      485A911C 
 244      44D286A4 
 245 00a0 1D490792 		.ascii	"\035I\007\222\243H\216#9\201\244\023\311I$\247\221t"
 245      A3488E23 
 245      3981A413 
 245      C94924A7 
 245      9174
 246 00b2 21E946D2 		.ascii	"!\351F\322\203\344\014\222^\020\177`\037\310=8\217$"
 246      83E40C92 
ARM GAS  /tmp/cc6DU3Wg.s 			page 18


 246      5E107F60 
 246      1FC83D38 
 246      8F24
 247 00c4 03C8717C 		.ascii	"\003\310q|\202\244_\271\317)}\256\231\3306[\260mf\330"
 247      82A45FB9 
 247      CF297DAE 
 247      99D8365B 
 247      B06D66D8 
 248 00d8 EE52EEDF 		.ascii	"\356R\356\337@\322\244\353\277K\361g<Z\030\375[\024"
 248      40D2A4EB 
 248      BF4BF167 
 248      3C5A18FD 
 248      5B14
 249 00ea 1FC6639F 		.ascii	"\037\306c\237I\377\004\345:\366\201su\334\304\256\225"
 249      49FF04E5 
 249      3AF68173 
 249      75DCC4AE 
 249      95
 250 00fb E1A755B1 		.ascii	"\341\247U\2615\036\007\031\375\361\365N\223\376m\214"
 250      351E0719 
 250      FDF1F54E 
 250      93FE6D8C 
 251 010b B8F0753C 		.ascii	"\270\360u<g'\2251\031\217v\206\237v\305\326x\340\272"
 251      67279531 
 251      198F7686 
 251      9F76C5D6 
 251      78E0BA
 252 011e 48417213 		.ascii	"HAr\023\304\346&Yg\177\017\311-$\020\013\224\373b\033"
 252      C4E62659 
 252      677F0FC9 
 252      2D24100B 
 252      94FB621B 
 253 0132 5C273D20 		.ascii	"\\'= Vg\230\217k\250\313\304\007\256\2731H~\011i\037"
 253      5667988F 
 253      6BA8CBC4 
 253      07AEBB31 
 253      487E0969 
 254 0147 5550F68B 		.ascii	"UP\366\213}\374\012\265}P\3665\036\312c\255\205r\315"
 254      7DFC0AB5 
 254      7D50F635 
 254      1ECA63AD 
 254      8572CD
 255 015a 9C43320A 		.ascii	"\234C2\012\311\237\320\347g\220\214F2\006I\"\222qH\206"
 255      C99FD0E7 
 255      67908C46 
 255      32064922 
 255      92714886 
 256 016e D0BDFB48 		.ascii	"\320\275\373H\034\250=\250\214\027\3734\253\343\011"
 256      1CA83DA8 
 256      8C17FB34 
 256      ABE309
 257 017d A0418A76 		.ascii	"\240A\212v\367\275\320\377\031\267I\212.\223\320\243"
 257      F7BDD0FF 
 257      19B7498A 
 257      2E93D0A3 
 258 018d 25C1EC47 		.ascii	"%\301\354G\300z\011\035\215\313%\011\206\005\370\304"
 258      C07A091D 
ARM GAS  /tmp/cc6DU3Wg.s 			page 19


 258      8DCB2509 
 258      8605F8C4 
 259 019d C3601E14 		.ascii	"\303`\036\024`F*\310&\215\364T\022\017\000\002l\202"
 259      60462AC8 
 259      268DF454 
 259      120F0002 
 259      6C82
 260 01af 8F28ADB9 		.ascii	"\217(\255\271\0165\273\323!\230\004v!\373\210$5\375"
 260      0E35BBD3 
 260      21980476 
 260      21FB8824 
 260      35FD
 261 01c1 1C9A7845 		.ascii	"\034\232xEc\007;\260\007\351u\311A\370\230\360*\234"
 261      63073BB0 
 261      07E975C9 
 261      41F898F0 
 261      2A9C
 262 01d3 A0EF22C0 		.ascii	"\240\357\"\300\355\220\213\2175\032\371Ozdi\337\320"
 262      ED908B8F 
 262      351AF94F 
 262      7A6469DF 
 262      D0
 263 01e4 D0B6C6B1 		.ascii	"\320\266\306\261\262\177\016\314\202\250\367kp\322\260"
 263      B27F0ECC 
 263      82A8F76B 
 263      70D2B0
 264 01f3 F866237E 		.ascii	"\370f#~\247)\276#\036_a\005\277\313\210\337m\212\277"
 264      A729BE23 
 264      1E5F6105 
 264      BFCB88DF 
 264      6D8ABF
 265 0206 1D8F5F68 		.ascii	"\035\217_h\005\337b\304\3571\303\367\015\256x7I7\221"
 265      05DF62C4 
 265      EF31C3F7 
 265      0DAE7837 
 265      493791
 266 0219 AA8B9DD0 		.ascii	"\252\213\235\320\212\217}F\037\373M}\014\234:\236e\342"
 266      8A8F7D46 
 266      1FFB4D7D 
 266      0C9C3A9E 
 266      65E2
 267 022b E3334B3E 		.ascii	"\3433K>Z\215>\3364MSC\177'\224\326H?\016\015\325/\343"
 267      5A8D3EDE 
 267      344D5343 
 267      7F2794D6 
 267      483F0E0D 
 268 0242 80EAE2AE 		.ascii	"\200\352\342\256%\027\007\215.\0161Ru\316,U/rV|\264"
 268      2517078D 
 268      2E0E3152 
 268      75CE2C55 
 268      2F72567C 
 269 0257 197DBC6D 		.ascii	"\031}\274m\236\252\227\272\314R\265\325\222\217v\243"
 269      9EAA97BA 
 269      CC52B5D5 
 269      928F76A3 
 270 0267 8F23F13E 		.ascii	"\217#\361>\032\243}g?\372n\\\314\207\226\253o,\371\350"
 270      1AA37D67 
ARM GAS  /tmp/cc6DU3Wg.s 			page 20


 270      3FFA6E5C 
 270      CC8796AB 
 270      6F2CF9E8 
 271 027b 30FAF897 		.ascii	"0\372\370\227\231\217\350[kN\251\323\221\020\233\015"
 271      998FE85B 
 271      6B4EA9D3 
 271      91109B0D 
 272 028b 4B1E8E1A 		.ascii	"K\036\216\032=\034\213\367\320\027\351[\277\371r=\\"
 272      3D1C8BF7 
 272      D017E95B 
 272      BFF9723D 
 272      5C
 273 029c 5DDFD829 		.ascii	"]\337\330)\015\014\015\215\321|\354s\030}\310\220wM"
 273      0D0C0D8D 
 273      D17CEC73 
 273      187DC890 
 273      774D
 274 02ae 21FBAF9C 		.ascii	"!\373\257\234\201\233\244c8\025\317i\210;\014\304{\246"
 274      819BA463 
 274      3815CF69 
 274      883B0CC4 
 274      7BA6
 275 02c0 88C11597 		.ascii	"\210\301\025\227\022\342\020k\023\314\021\357\233G\321"
 275      12E2106B 
 275      13CC11EF 
 275      9B47D1
 276 02cf 70363E8A 		.ascii	"p6>\212f\006\342\224)b\335\205\313\2168\304;\014\304"
 276      6606E294 
 276      2962DD85 
 276      CB8E38C4 
 276      3B0CC4
 277 02e2 BF4D119F 		.ascii	"\277M\021\237\177\177\022\256$S\346\320\010W\030\204"
 277      7F7F12AE 
 277      2453E6D0 
 277      08571884 
 278 02f2 0F18415C 		.ascii	"\017\030A\\\211\017\342\006\003\361\241\031\":\330\365"
 278      890FE206 
 278      03F1A119 
 278      223AD8F5 
 279 0302 B204C9FB 		.ascii	"\262\004\311\373n\202\012X\236h\016\370\2101\243]\361"
 279      6E820A58 
 279      9E680EF8 
 279      8831A35D 
 279      F1
 280 0313 B9FC3B03 		.ascii	"\271\374;\003q\326\024\321\361\365\300\243\032\302\372"
 280      71D614D1 
 280      F1F5C0A3 
 280      1AC2FA
 281 0322 CA764E59 		.ascii	"\312vNY\331\034d\375\004\251`\245$=\217\015gu\242E\333"
 281      D91C64FD 
 281      04A960A5 
 281      243D8F0D 
 281      6775A245 
 282 0337 CCEA31F0 		.ascii	"\314\3521\360\032Z\363\372\266~\327\235\325\"I\350\365"
 282      1A5AF3FA 
 282      B67ED79D 
 282      D52249E8 
ARM GAS  /tmp/cc6DU3Wg.s 			page 21


 282      F5
 283 0348 7E1EA622 		.ascii	"~\036\246\"\343eIt\264\326I\3557\243\257\300z\024\251"
 283      E3654974 
 283      B4D649ED 
 283      37A3AFC0 
 283      7A14A9
 284 035b 002F1154 		.ascii	"\000/\021T\273\001%\300\344T:\005\350\263\332\001\363"
 284      BB0125C0 
 284      E4543A05 
 284      E8B3DA01 
 284      F3
 285 036c C86DA581 		.ascii	"\310m\245\201\267\315c\200\335\356\312\360\345\301\000"
 285      B7CD6380 
 285      DDEECAF0 
 285      E5C100
 286 037b FD420FF0 		.ascii	"\375B\017\360Z\177\"\311|*\372\350\251x\010DH\332\363"
 286      5A7F22C9 
 286      7C2AFAE8 
 286      A9780844 
 286      48DAF3
 287 038e 376628C3 		.ascii	"7f(\303\357\333!eei\243OQG\017\325\321\343\315\003'"
 287      EFDB2165 
 287      6569A34F 
 287      51470FD5 
 287      D1E3CD03 
 288 03a3 C04FC9B8 		.ascii	"\300O\311\270\317%\231\357\"\200\334\001(Q\313m\265"
 288      CF2599EF 
 288      2280DC01 
 288      2851CB6D 
 288      B5
 289 03b4 350435FC 		.ascii	"5\0045\374X\025\317)V\237\300\207bs!)sAz\260\312\341"
 289      5815CF29 
 289      569FC087 
 289      62732129 
 289      73417AB0 
 290 03ca 0B9D9FF4 		.ascii	"\013\235\237\364\324XC\015L\031a\366\306\014\331\273"
 290      D458430D 
 290      4C1961F6 
 290      C60CD9BB 
 291 03da C2795CED 		.ascii	"\302y\\\355\227\254p\372m{\276\312\360\234\244xV\226"
 291      97AC70FA 
 291      6D7BBECA 
 291      F09CA478 
 291      5696
 292 03ec 9A7B77BB 		.ascii	"\232{w\273_\206\253\367-\227\360\343\366\334\266h$\301"
 292      5F86ABF7 
 292      2D97F0E3 
 292      F6DCB668 
 292      24C1
 293 03fe 7AAD7F49 		.ascii	"z\255\177I\327\272<\331\206\231^\227\254\237i\322\223"
 293      D7BA3CD9 
 293      86995E97 
 293      AC9F69D2 
 293      93
 294 040f 034DC9CA 		.ascii	"\003M\311\312\370\177\001\266Kh\201\370\360Dz\004\252"
 294      F87F01B6 
 294      4B6881F8 
ARM GAS  /tmp/cc6DU3Wg.s 			page 22


 294      F0447A04 
 294      AA
 295 0420 85BF9F58 		.ascii	"\205\277\237X\\C\357\1773\277ZE)\213\306\255\245\345"
 295      5C43EF7F 
 295      33BF5A45 
 295      298BC6AD 
 295      A5E5
 296 0432 59DAA271 		.ascii	"Y\332\242q\315\270h|M\327S\032x1\366\014\311\257\005"
 296      CDB8687C 
 296      4DD7531A 
 296      7831F60C 
 296      C9AF05
 297 0445 D6D86EC0 		.ascii	"\326\330n\3004S\253L\260\232L\230\356\031\224\222T\343"
 297      3453AB4C 
 297      B09A4C98 
 297      EE199492 
 297      54E3
 298 0457 A781F610 		.ascii	"\247\201\366\020^\276?\020\220\237\301[0\023\215\352"
 298      5EBE3F10 
 298      909FC15B 
 298      30138DEA 
 299 0467 76325DF1 		.ascii	"v2]\361#rp\020w\221\251l$\027wt\355\305t)A\276\016L"
 299      23727010 
 299      7791A96C 
 299      24177774 
 299      EDC57429 
 300 047f 1E20E598 		.ascii	"\036 \345\230\010\032\245e\365\321\365\027\267<*5\036"
 300      081AA565 
 300      F5D1F517 
 300      B73C2A35 
 300      1E
 301 0490 83A466EA 		.ascii	"\203\244f\352\207}s\010\360\002|\314\322\203\315\001"
 301      877D7308 
 301      F0027CCC 
 301      D283CD01 
 302 04a0 29052AA1 		.ascii	")\005*\241\231\221\264rSk/#\325\020\326\206\213\351"
 302      9991B472 
 302      536B2F23 
 302      D510D686 
 302      8BE9
 303 04b2 114180F7 		.ascii	"\021A\200\367\344\267\234mX6\005\333\250\207\255\264"
 303      E4B79C6D 
 303      583605DB 
 303      A887ADB4 
 304 04c2 024B6147 		.ascii	"\002KaG\266Y\017[e\033FG\266E\017[c\0056\226\035Y\203"
 304      B6590F5B 
 304      651B4647 
 304      B6450F5B 
 304      63053696 
 305 04d9 1EB6DE36 		.ascii	"\036\266\3366\214\216l\277\036\266\311\012,\213\035"
 305      8C8E6CBF 
 305      1EB6C90A 
 305      2C8B1D
 306 04e8 59AB1EB6 		.ascii	"Y\253\036\266\3156\214\216\354\200\036\266\303\012,"
 306      CD368C8E 
 306      EC801EB6 
 306      C30A2C
ARM GAS  /tmp/cc6DU3Wg.s 			page 23


 307 04f7 9B1DD921 		.ascii	"\233\035\331!=l\267m\030\035Y\233\036\266\327\012\354"
 307      3D6CB76D 
 307      181D599B 
 307      1EB6D70A 
 307      EC
 308 0508 D7ECC80E 		.ascii	"\327\354\310\016\353a\255\266atdG\364\260CV`SX\221-"
 308      EB61ADB6 
 308      61746447 
 308      F4B04356 
 308      60535891 
 309 051d 8D76FC39 		.ascii	"\215v\3749\"\250K\022~C\336\213-I\350;\002UZ\372n\347"
 309      22A84B12 
 309      7E43DE8B 
 309      2D49E83B 
 309      02555AFA 
 310 0533 D9DD04B8 		.ascii	"\331\335\004\270\236\263\273tm\340\314\227\256\330\272"
 310      9EB3BB74 
 310      6DE0CC97 
 310      AED8BA
 311 0542 A2EF8586 		.ascii	"\242\357\205\206}\3308l:\012\263q\323I\354\326'\261"
 311      7DD8386C 
 311      3A0AB371 
 311      D349ECD6 
 311      27B1
 312 0554 C34A12F3 		.ascii	"\303J\022\363\331\260\036=\354\035+\260Y\354Z9\243\207"
 312      D9B01E3D 
 312      EC1D2BB0 
 312      59EC5A39 
 312      A387
 313 0566 BD671B46 		.ascii	"\275g\033FG\326\253\207\235\266\002+gG\366\261\036\366"
 313      47D6AB87 
 313      9DB6022B 
 313      6747F6B1 
 313      1EF6
 314 0578 816D983E 		.ascii	"\201m\230>\262\245\321\013\261\302k\3147T^>\375\266"
 314      B2A5D10B 
 314      B1C26BCC 
 314      37545E3E 
 314      FDB6
 315 058a A5BA9D67 		.ascii	"\245\272\235gvC\353\230Rx\261]\230\361#\007\316\032"
 315      7643EB98 
 315      5278B15D 
 315      98F12307 
 315      CE1A
 316 059c E3A6284A 		.ascii	"\343\246(Js\236I\022\314\016\375\202-\300\357\311\212"
 316      739E4912 
 316      CC0EFD82 
 316      2DC0EFC9 
 316      8A
 317 05ad 3A082722 		.ascii	":\010'\"}\237\350\377\022=D\364R\016\353z\242_ z\005"
 317      7D9FE8FF 
 317      123D44F4 
 317      520EEB7A 
 317      A25F207A 
 318 05c2 D17F25FA 		.ascii	"\321\177%\372%\242W\021\3757\242W\023\275\226\350\215"
 318      25A25711 
 318      FD37A257 
ARM GAS  /tmp/cc6DU3Wg.s 			page 24


 318      13BD96E8 
 318      8D
 319 05d3 446F267A 		.ascii	"Do&z\013\321\015D7\022\335\204\264v\260\036\261\233"
 319      0BD10D44 
 319      3712DD84 
 319      B476B01E 
 319      B19B
 320 05e5 D6B73751 		.ascii	"\326\2677Qm\227\275R\333fG\372\3564\337{\035\276A\276"
 320      6D97BD52 
 320      DB6647FA 
 320      EE34DF7B 
 320      1DBE41BE 
 321 05f9 AFECE4F0 		.ascii	"\257\354\344\360\006\347\225\324\02178\006\022\371\265"
 321      06E795D4 
 321      11373806 
 321      12F9B5
 322 0608 8B33EC70 		.ascii	"\2133\354p\266^\355\204\222\224\"\337\031y\217\363\306"
 322      B65EED84 
 322      929422DF 
 322      19798FF3 
 322      C6
 323 0619 D54EF20B 		.ascii	"\325N\362\013\244C-\304\355$\014l\374`\273\223V\354"
 323      A4432DC4 
 323      ED240C6C 
 323      FC60BB93 
 323      56EC
 324 062b 7F4DBA8A 		.ascii	"\177M\272\212k\266\215\313\246p\007h\334^+\270av(\207"
 324      6BB68DCB 
 324      A6700768 
 324      DC5E2BB8 
 324      61762887 
 325 063f 68DC9BB6 		.ascii	"h\334\233\266qttm4\356-+\270av)\207i\\\3246\216\216"
 325      7174746D 
 325      34EE2D2B 
 325      B8617629 
 325      87695CD4 
 326 0656 EE088D7B 		.ascii	"\356\010\215{\337\012\216\265S\221\236\217v\2508\371"
 326      DF0A8EB5 
 326      53919E8F 
 326      76A838F9 
 327 0666 6B468F6D 		.ascii	"kF\217m\034\035]7\035\335%+\270lv\356zh\334\027\266"
 327      1C1D5D37 
 327      1DDD252B 
 327      B86C76EE 
 327      7A68DC17 
 328 067b 71BAE8D0 		.ascii	"q\272\350\320ct\346j\012\241\341w \007\2765\322\314"
 328      6374E66A 
 328      0AA1E177 
 328      2007BE35 
 328      D2CC
 329 068d DE72C36C 		.ascii	"\336r\303lXz\351\340\006\255\004\307\334e\240\225\203"
 329      587AE9E0 
 329      06AD04C7 
 329      DC65A095 
 329      83
 330 069e C649A3EC 		.ascii	"\306I\243\354\342\350\231\270@\343VZ\301=\316\256\223"
 330      E2E899B8 
ARM GAS  /tmp/cc6DU3Wg.s 			page 25


 330      40E3565A 
 330      C13DCEAE 
 330      93
 331 06af 4B749D44 		.ascii	"Kt\235Dl\343\350\350\256\320\321m\266\202\313g\347n"
 331      6CE3E8E8 
 331      AED0D16D 
 331      B682CB67 
 331      E76E
 332 06c1 80C635D9 		.ascii	"\200\3065\331\306\321ur\223\252\223\335F\232Y\235\014"
 332      C6D17572 
 332      93AA93DD 
 332      469A599D 
 332      0C
 333 06d2 B359B94D 		.ascii	"\263Y\271M\007w\300Jp\303\3540\356\322\270\016\3338"
 333      0777C04A 
 333      70C3EC30 
 333      EED2B80E 
 333      DB38
 334 06e4 7A260669 		.ascii	"z&\006i\\\247\025\234\331\322\257\324\311\017\206\367"
 334      5CA7159C 
 334      D9D2AFD4 
 334      C90F86F7 
 335 06f4 896D1C1D 		.ascii	"\211m\034\035\335\217\206\367\211\025\334\323\354\334"
 335      DD8F86F7 
 335      8915DCD3 
 335      ECDC
 336 0702 FD8FC6F5 		.ascii	"\375\217\306\365\333\306\321u\022\371J_'\003V\352\244"
 336      DBC6D175 
 336      12F94A5F 
 336      270356EA 
 336      A4
 337 0713 8A1DDC9A 		.ascii	"\212\035\334\232\257\250\340~\260\022\334\"6n\035\215"
 337      AFA8E07E 
 337      B012DC22 
 337      366E1D8D 
 338 0723 1BB28DA3 		.ascii	"\033\262\215\243\307\272\201\032k}\232\205\261\326\261"
 338      C7BA811A 
 338      6B7D9A85 
 338      B1D6B1
 339 0732 83DB4807 		.ascii	"\203\333H\007\267\312\2103\013N\202l\336f\232\267\326"
 339      B7CA8833 
 339      0B4E826C 
 339      DE669AB7 
 339      D6
 340 0743 3E2F1B30 		.ascii	">/\0330\017\375\206L\200\377\340\360\016\266\205\354"
 340      0FFD864C 
 340      80FFE0F0 
 340      0EB685EC 
 341 0753 2AF712BD 		.ascii	"*\367\022\275\237\350V\242\017\020}\210\3506\242\017"
 341      9FE856A2 
 341      0F107D88 
 341      E836A20F 
 342 0763 137D84E8 		.ascii	"\023}\204\350\016\242\243D\037#\3728\321'\210\356$\372"
 342      0EA2A344 
 342      1F23FA38 
 342      D12788EE 
 342      24FA
ARM GAS  /tmp/cc6DU3Wg.s 			page 26


 343 0775 24D1A789 		.ascii	"$\321\247\211\356\"\272\233\350\036\242\317\020\335"
 343      EE22BA9B 
 343      E81EA2CF 
 343      10DD
 344 0783 4BF4C744 		.ascii	"K\364\307D_ \372\022\321W\210\356#\372S\242?'\272\337"
 344      5F20FA12 
 344      D15788EE 
 344      23FA53A2 
 344      3F27BADF 
 345 0797 CAEEB799 		.ascii	"\312\356\267\231\263\376\343\036\365MR\336\374F\317"
 345      B3FEE31E 
 345      F54D52DE 
 345      FC46CF
 346 07a6 6EC07FCA 		.ascii	"n\300\177\312}I\366\275\015i#\377\260\027\367\235\370"
 346      7D49F6BD 
 346      0D6923FF 
 346      B017F79D 
 346      F8
 347 07b7 BA71DBFB 		.ascii	"\272q\333\373v/\371a\357\272\245M\357?{\327\221\037"
 347      762FF961 
 347      EFBAA54D 
 347      EF3F7BD7 
 347      911F
 348 07c9 F6D41AD8 		.ascii	"\366\324\032\330CB\270"
 348      4342B8
 349 07d0 FEC07BDE 		.ascii	"\376\300{\336\216^\355\233\234\000\367p\234MX6\005\353"
 349      8E5EED9B 
 349      9C00F770 
 349      9C4D5836 
 349      05EB
 350 07e2 EED57D2D 		.ascii	"\356\325}-<`%\262a\366\273=zX\273m\330\260\225~]W\351"
 350      3C6025B2 
 350      61F6BB3D 
 350      7A58BB6D 
 350      D8B0957E 
 351 07f9 DF904AFF 		.ascii	"\337\220J\377\226T\320\000\3217\210\276e\245\232\256"
 351      9654D000 
 351      D13788BE 
 351      65A59AAE 
 352 0809 31AA49FE 		.ascii	"1\252I\3763\210eu'f\005\246\372}\363\235\256*\337|\337"
 352      33886575 
 352      276605A6 
 352      FA7DF39D 
 352      AE2ADF7C 
 353 081e 1CB72767 		.ascii	"\034\267'g\332\344\234\311S\235\316\232\2203\030v.\252"
 353      DAE49CC9 
 353      539DCE9A 
 353      90331876 
 353      2EAA
 354 0830 098643CE 		.ascii	"\011\206C\316\002\276\314UV\347\364Vyk\202\242g\361"
 354      02BECC55 
 354      56E7F456 
 354      796B82A2 
 354      67F1
 355 0842 F4EAC955 		.ascii	"\364\352\311U \025\337\362\370k\274\177I\2329{n\266"
 355      2015DFF2 
 355      F86BBC7F 
ARM GAS  /tmp/cc6DU3Wg.s 			page 27


 355      499A397B 
 355      6EB6
 356 0854 0BA4910B 		.ascii	"\013\244\221\013\265\001|)S\273\351Y\020\254\251\366"
 356      B5017C29 
 356      53BBE959 
 356      10ACA9F6 
 357 0864 F842C1F1 		.ascii	"\370B\301\361\272\333\332\305Il\317\276\200\327_[)\""
 357      BADBDAC5 
 357      496CCFBE 
 357      80D75F5B 
 357      2922
 358 0876 A7A12521 		.ascii	"\247\241%!\344o\254\267\312\275$T\212\254\213\221q\211"
 358      E46FACB7 
 358      CABD2454 
 358      8AAC8B91 
 358      7189
 359 0888 9B67D956 		.ascii	"\233g\331V\011~tB\012A\360\031\331f\3423m=\016_\232"
 359      097E7442 
 359      0A41F019 
 359      D966E233 
 359      6D3D0E5F 
 360 089d 13AAF055 		.ascii	"\023\252\360U\213\301YB\240\322/\006K2\211\213\271$"
 360      8BC15942 
 360      A0D22F06 
 360      4B32898B 
 360      B924
 361 08af 44A5DB78 		.ascii	"D\245\333x\305\222\272\370\373a<\313\011sW\224\345\345"
 361      C592BAF8 
 361      FB613CCB 
 361      09735794 
 361      E5E5
 362 08c1 3A4B4B0B 		.ascii	":KK\013\235\025%e\213s\234!\224\014\177\345d/HyR\364"
 362      9D152565 
 362      8B739C21 
 362      940C7FE5 
 362      642F4879 
 363 08d7 866B8233 		.ascii	"\206k\2023\246\244\311\227<\276\200/\374\033+Y\250\024"
 363      A6A4C997 
 363      3CBE802F 
 363      FC1B2B59 
 363      A814
 364 08e9 E7D72E44 		.ascii	"\347\327.Dc\311\362T\316_\350\361V\211(\215T.-QBa!\214"
 364      63C9F254 
 364      CE5FE8F1 
 364      5689288D 
 364      542E2D51 
 365 0901 B3F9330F 		.ascii	"\263\3713\017ia\215f\245Z\024B\265hf\275A_\030\243\344"
 365      69618D66 
 365      A55A1442 
 365      B56866BD 
 365      415F18A3 
 366 0916 4450B9F9 		.ascii	"DP\271\371\251fP\263(\256\377Ot1\031f8\323C\346\335"
 366      A96650B3 
 366      28AEFF4F 
 366      74311966 
 366      38D343E6 
 367 092b 177CC623 		.ascii	"\027|\306#.\362\371k\026\326\212\343\365#\020\205\305"
ARM GAS  /tmp/cc6DU3Wg.s 			page 28


 367      2EF2F96B 
 367      16D68AE3 
 367      F5231085 
 367      C5
 368 093c 22290FDD 		.ascii	"\")\017\335E1\020\026\203\370\3428\305)\212?\210\\\212"
 368      45311016 
 368      83F8E238 
 368      C5298A3F 
 368      885C8A
 369 094f 18336DC4 		.ascii	"\0303m\304\344{k\252\253k\002j\321\006\026\373\274x"
 369      E47B6BAA 
 369      AB6B026A 
 369      D10616FB 
 369      BC78
 370 0961 C0CEDA50 		.ascii	"\300\316\332PPKD@|\026cB\341J_ \214\356\246\324\242"
 370      504B4440 
 370      7C166342 
 370      E14A5F20 
 370      8CEEA6D4 
 371 0976 735EAE27 		.ascii	"s^\256'\374[\263n\325\202\267\312\027\020\235\236Jq"
 371      FC5BB36E 
 371      D582B7CA 
 371      17109D9E 
 371      4A71
 372 0988 8150EB0F 		.ascii	"\201P\353\017{\302K\026\2118\213\243<\036\325p,\366"
 372      7BC24B16 
 372      89388BA3 
 372      3C1ED570 
 372      2CF6
 373 099a 531410E6 		.ascii	"S\024\020\346\373Ey\212\023\274UBp:#X\261.\354t\225"
 373      FB45798A 
 373      13BC5542 
 373      703A2358 
 373      B12EEC74 
 374 09af B94BDCB1 		.ascii	"\271K\334\261\251\301O\226\267\272\2706\200\243\035"
 374      A9C14F96 
 374      B7BAB836 
 374      80A31D
 375 09be EDF184C4 		.ascii	"\355\361\204\304\260gF\201\273\250\234/\031-\370\237"
 375      B0674681 
 375      BBA89C2F 
 375      192DF89F 
 376 09ce 1596E034 		.ascii	"\025\226\3404\370Q\030\211\213\005\177\255\370\307\007"
 376      F8511889 
 376      8B057FAD 
 376      F8C707
 377 09dd A8C16A1C 		.ascii	"\250\301j\034\250\017?\274i\332\007O\330\341\342s\220"
 377      A80F3FBC 
 377      69DA074F 
 377      D8E1E273 
 377      90
 378 09ee E426B8CB 		.ascii	"\344&\270\313\\|BaI\021\317\271yG\321L>\321\345*\343"
 378      5C7C4261 
 378      4911CFB9 
 378      7947D14C 
 378      3ED1E52A 
 379 0a03 7388CE4D 		.ascii	"s\210\316Mp\271\212x\207kv\205\243\334\355r\024\360"
ARM GAS  /tmp/cc6DU3Wg.s 			page 29


 379      70B98A78 
 379      876B7685 
 379      A3DCED72 
 379      14F0
 380 0a15 BC8377A1 		.ascii	"\274\203w\241\317\310`Fa\005\357(\304\226e\005<7G\266"
 380      CFC86046 
 380      6105EF28 
 380      C4966505 
 380      3C3747B6 
 381 0a29 CA43FDE7 		.ascii	"\312C\375\347\361\177\030q\364\356\0129\314\342\251"
 381      F17F1871 
 381      F4EE0A39 
 381      CCE2A9
 382 0a38 75757280 		.ascii	"uur\200\013\246N\231^W\207C\344].O\005Jt\241\270\200"
 382      0BA64E99 
 382      5E578743 
 382      E45D2E4F 
 382      054A74A1 
 383 0a4e 73F1C9E5 		.ascii	"s\361\311\345\245\245\256\342\231|\002V\016W\011\237"
 383      A5A5AEE2 
 383      997C0256 
 383      0E57099F 
 384 0a5e 52306B46 		.ascii	"R0kF\016\357\256 \215\\\265\221\207\033\251|\221\273"
 384      0EEFAE20 
 384      8D5CB591 
 384      871BA97C 
 384      91BB
 385 0a70 887FB2A8 		.ascii	"\210\177\262\250pJJA\271\332\251\\\356\244\335\313I"
 385      704A4A41 
 385      B9DAA95C 
 385      EEA4DDCB 
 385      49
 386 0a81 C680A2D9 		.ascii	"\306\200\242\331<>\347*\347<t\326z\344&ckr\247\234\364"
 386      3C3EE72A 
 386      E73C74D6 
 386      7AE42663 
 386      6B72A79C 
 387 0a96 D0EEE4A5 		.ascii	"\320\356\344\245b\333\322r|\015[k\255<\271\245\366\233"
 387      62DBD272 
 387      7C0D5B6B 
 387      AD3CB9A5 
 387      F69B
 388 0aa8 9A8A09CA 		.ascii	"\232\212\011\312\335r\265\237z\367w(w8\211\356\330\245"
 388      DD72B59F 
 388      7AF77728 
 388      773889EE 
 388      D8A5
 389 0aba 69896EB7 		.ascii	"i\211n\267k&?\012\015\266$\327\215\207\232Q8cf\231k"
 389      6B263F0A 
 389      0DB624D7 
 389      8D879A51 
 389      38636699 
 390 0acf AE9A89A4 		.ascii	"\256\232\211\244\222B\327\234\302\242$\314-~\012\237"
 390      9242D79C 
 390      C2A224CC 
 390      2D7E0A9F 
 391 0adf 728B9FFA 		.ascii	"r\213\237\372?o\371O\266"
ARM GAS  /tmp/cc6DU3Wg.s 			page 30


 391      3F6FF94F 
 391      B6
 392              		.text
 393              		.section	.gnu.lto_.symtab.1144c840e79bdd9c,"",%progbits
 394 0000 56656374 		.ascii	"VectorB0\000\000\000\000\000\000\000\000\000\000\000"
 394      6F724230 
 394      00000000 
 394      00000000 
 394      000000
 395 0013 00BE0000 		.ascii	"\000\276\000\000\000st_lld_init\000\000\000\000\000"
 395      0073745F 
 395      6C6C645F 
 395      696E6974 
 395      00000000 
 396 0028 00000000 		.ascii	"\000\000\000\000\000\000\000\301\000\000\000_dbg_ch"
 396      000000C1 
 396      0000005F 
 396      6462675F 
 396      6368
 397 003a 65636B5F 		.ascii	"eck_lock_from_isr\000\000\002\000\000\000\000\000\000"
 397      6C6F636B 
 397      5F66726F 
 397      6D5F6973 
 397      72000002 
 398 0054 000000C4 		.ascii	"\000\000\000\304\000\000\000_stats_start_measure_cr"
 398      0000005F 
 398      73746174 
 398      735F7374 
 398      6172745F 
 399 0072 69745F69 		.ascii	"it_isr\000\000\002\000\000\000\000\000\000\000\000\000"
 399      73720000 
 399      02000000 
 399      00000000 
 399      0000
 400 0084 C6000000 		.ascii	"\306\000\000\000chSysTimerHandlerI\000\000\002\000\000"
 400      63685379 
 400      7354696D 
 400      65724861 
 400      6E646C65 
 401 009f 00000000 		.ascii	"\000\000\000\000\000\000\000\310\000\000\000_stats_"
 401      000000C8 
 401      0000005F 
 401      73746174 
 401      735F
 402 00b1 73746F70 		.ascii	"stop_measure_crit_isr\000\000\002\000\000\000\000\000"
 402      5F6D6561 
 402      73757265 
 402      5F637269 
 402      745F6973 
 403 00ce 00000000 		.ascii	"\000\000\000\000\312\000\000\000_dbg_check_unlock_f"
 403      CA000000 
 403      5F646267 
 403      5F636865 
 403      636B5F75 
 404 00e9 726F6D5F 		.ascii	"rom_isr\000\000\002\000\000\000\000\000\000\000\000"
 404      69737200 
 404      00020000 
ARM GAS  /tmp/cc6DU3Wg.s 			page 31


 404      00000000 
 404      0000
 405 00fb 00CC0000 		.ascii	"\000\314\000\000\000_port_irq_epilogue\000\000\002\000"
 405      005F706F 
 405      72745F69 
 405      72715F65 
 405      70696C6F 
 406 0116 00000000 		.ascii	"\000\000\000\000\000\000\000\000\316\000\000\000_db"
 406      00000000 
 406      CE000000 
 406      5F6462
 407 0125 675F6368 		.ascii	"g_check_leave_isr\000\000\002\000\000\000\000\000\000"
 407      65636B5F 
 407      6C656176 
 407      655F6973 
 407      72000002 
 408 013f 000000D0 		.ascii	"\000\000\000\320\000\000\000_dbg_check_enter_isr\000"
 408      0000005F 
 408      6462675F 
 408      63686563 
 408      6B5F656E 
 409 015b 00020000 		.ascii	"\000\002\000\000\000\000\000\000\000\000\000\322\000"
 409      00000000 
 409      000000D2 
 409      00
 410 0168 00005F73 		.ascii	"\000\000_stats_increase_irq\000\000\002\000\000\000"
 410      74617473 
 410      5F696E63 
 410      72656173 
 410      655F6972 
 411 0183 00000000 		.ascii	"\000\000\000\000\000\000\324\000\000\000nvicEnableV"
 411      0000D400 
 411      00006E76 
 411      6963456E 
 411      61626C65 
 412 0198 6563746F 		.ascii	"ector\000\000\002\000\000\000\000\000\000\000\000\000"
 412      72000002 
 412      00000000 
 412      00000000 
 412      00
 413 01a9 D6000000 		.ascii	"\326\000\000\000"
 414              		.text
 415              		.section	.gnu.lto_.opts,"",%progbits
 416 0000 272D6D63 		.ascii	"'-mcpu=cortex-m4' '-mno-thumb-interwork' '-mthumb' "
 416      70753D63 
 416      6F727465 
 416      782D6D34 
 416      2720272D 
 417 0033 272D6767 		.ascii	"'-ggdb' '-O0' '-fomit-frame-pointer' '-falign-funct"
 417      64622720 
 417      272D4F30 
 417      2720272D 
 417      666F6D69 
 418 0066 696F6E73 		.ascii	"ions=16' '-ffunction-sections' '-fdata-sections' '-"
 418      3D313627 
 418      20272D66 
 418      66756E63 
ARM GAS  /tmp/cc6DU3Wg.s 			page 32


 418      74696F6E 
 419 0099 666E6F2D 		.ascii	"fno-common' '-flto'\000"
 419      636F6D6D 
 419      6F6E2720 
 419      272D666C 
 419      746F2700 
 420              		.text
 421              		.cfi_sections	.debug_frame
 422              		.section	.text.port_lock,"ax",%progbits
 423              		.align	2
 424              		.p2align 4,,15
 425              		.thumb
 426              		.thumb_func
 427              		.type	port_lock, %function
 428              	port_lock:
 429              	.LFB127:
 430              		.file 1 "lib/ChibiOS_16.1.4//os/rt/ports/ARMCMx/chcore_v7m.h"
 431              		.loc 1 456 0
 432              		.cfi_startproc
 433              		@ args = 0, pretend = 0, frame = 8
 434              		@ frame_needed = 0, uses_anonymous_args = 0
 435              		@ link register save eliminated.
 436 0000 82B0     		sub	sp, sp, #8
 437              		.cfi_def_cfa_offset 8
 438 0002 2023     		movs	r3, #32
 439 0004 0193     		str	r3, [sp, #4]
 440              	.LBB6:
 441              	.LBB7:
 442              		.file 2 "lib/ChibiOS_16.1.4//os/ext/CMSIS/include/core_cmFunc.h"
 443              		.loc 2 548 0
 444 0006 019B     		ldr	r3, [sp, #4]
 445              	@ 548 "lib/ChibiOS_16.1.4//os/ext/CMSIS/include/core_cmFunc.h" 1
 446 0008 83F31188 		MSR basepri, r3
 447              	@ 0 "" 2
 448              		.thumb
 449              	.LBE7:
 450              	.LBE6:
 451              		.loc 1 473 0
 452 000c 02B0     		add	sp, sp, #8
 453              		@ sp needed
 454 000e 7047     		bx	lr
 455              		.cfi_endproc
 456              	.LFE127:
 457              		.size	port_lock, .-port_lock
 458              		.section	.text.port_unlock,"ax",%progbits
 459              		.align	2
 460              		.p2align 4,,15
 461              		.thumb
 462              		.thumb_func
 463              		.type	port_unlock, %function
 464              	port_unlock:
 465              	.LFB128:
 466              		.loc 1 480 0
 467              		.cfi_startproc
 468              		@ args = 0, pretend = 0, frame = 8
 469              		@ frame_needed = 0, uses_anonymous_args = 0
 470              		@ link register save eliminated.
ARM GAS  /tmp/cc6DU3Wg.s 			page 33


 471 0000 82B0     		sub	sp, sp, #8
 472              		.cfi_def_cfa_offset 8
 473 0002 0023     		movs	r3, #0
 474 0004 0193     		str	r3, [sp, #4]
 475              	.LBB8:
 476              	.LBB9:
 477              		.loc 2 548 0
 478 0006 019B     		ldr	r3, [sp, #4]
 479              	@ 548 "lib/ChibiOS_16.1.4//os/ext/CMSIS/include/core_cmFunc.h" 1
 480 0008 83F31188 		MSR basepri, r3
 481              	@ 0 "" 2
 482              		.thumb
 483              	.LBE9:
 484              	.LBE8:
 485              		.loc 1 487 0
 486 000c 02B0     		add	sp, sp, #8
 487              		@ sp needed
 488 000e 7047     		bx	lr
 489              		.cfi_endproc
 490              	.LFE128:
 491              		.size	port_unlock, .-port_unlock
 492              		.section	.text.port_lock_from_isr,"ax",%progbits
 493              		.align	2
 494              		.p2align 4,,15
 495              		.thumb
 496              		.thumb_func
 497              		.type	port_lock_from_isr, %function
 498              	port_lock_from_isr:
 499              	.LFB129:
 500              		.loc 1 495 0
 501              		.cfi_startproc
 502              		@ args = 0, pretend = 0, frame = 0
 503              		@ frame_needed = 0, uses_anonymous_args = 0
 504 0000 08B5     		push	{r3, lr}
 505              		.cfi_def_cfa_offset 8
 506              		.cfi_offset 3, -8
 507              		.cfi_offset 14, -4
 508              		.loc 1 497 0
 509 0002 FFF7FEFF 		bl	port_lock
 510              		.loc 1 498 0
 511 0006 08BD     		pop	{r3, pc}
 512              		.cfi_endproc
 513              	.LFE129:
 514              		.size	port_lock_from_isr, .-port_lock_from_isr
 515 0008 AFF30080 		.section	.text.port_unlock_from_isr,"ax",%progbits
 515      AFF30080 
 516              		.align	2
 517              		.p2align 4,,15
 518              		.thumb
 519              		.thumb_func
 520              		.type	port_unlock_from_isr, %function
 521              	port_unlock_from_isr:
 522              	.LFB130:
 523              		.loc 1 506 0
 524              		.cfi_startproc
 525              		@ args = 0, pretend = 0, frame = 0
 526              		@ frame_needed = 0, uses_anonymous_args = 0
ARM GAS  /tmp/cc6DU3Wg.s 			page 34


 527 0000 08B5     		push	{r3, lr}
 528              		.cfi_def_cfa_offset 8
 529              		.cfi_offset 3, -8
 530              		.cfi_offset 14, -4
 531              		.loc 1 508 0
 532 0002 FFF7FEFF 		bl	port_unlock
 533              		.loc 1 509 0
 534 0006 08BD     		pop	{r3, pc}
 535              		.cfi_endproc
 536              	.LFE130:
 537              		.size	port_unlock_from_isr, .-port_unlock_from_isr
 538 0008 AFF30080 		.section	.text.chSysLockFromISR,"ax",%progbits
 538      AFF30080 
 539              		.align	2
 540              		.p2align 4,,15
 541              		.thumb
 542              		.thumb_func
 543              		.type	chSysLockFromISR, %function
 544              	chSysLockFromISR:
 545              	.LFB169:
 546              		.file 3 "lib/ChibiOS_16.1.4//os/rt/include/chsys.h"
 547              		.loc 3 386 0
 548              		.cfi_startproc
 549              		@ args = 0, pretend = 0, frame = 0
 550              		@ frame_needed = 0, uses_anonymous_args = 0
 551 0000 08B5     		push	{r3, lr}
 552              		.cfi_def_cfa_offset 8
 553              		.cfi_offset 3, -8
 554              		.cfi_offset 14, -4
 555              		.loc 3 388 0
 556 0002 FFF7FEFF 		bl	port_lock_from_isr
 557              		.loc 3 389 0
 558 0006 FFF7FEFF 		bl	_stats_start_measure_crit_isr
 559              		.loc 3 390 0
 560 000a FFF7FEFF 		bl	_dbg_check_lock_from_isr
 561              		.loc 3 391 0
 562 000e 08BD     		pop	{r3, pc}
 563              		.cfi_endproc
 564              	.LFE169:
 565              		.size	chSysLockFromISR, .-chSysLockFromISR
 566              		.section	.text.chSysUnlockFromISR,"ax",%progbits
 567              		.align	2
 568              		.p2align 4,,15
 569              		.thumb
 570              		.thumb_func
 571              		.type	chSysUnlockFromISR, %function
 572              	chSysUnlockFromISR:
 573              	.LFB170:
 574              		.loc 3 406 0
 575              		.cfi_startproc
 576              		@ args = 0, pretend = 0, frame = 0
 577              		@ frame_needed = 0, uses_anonymous_args = 0
 578 0000 08B5     		push	{r3, lr}
 579              		.cfi_def_cfa_offset 8
 580              		.cfi_offset 3, -8
 581              		.cfi_offset 14, -4
 582              		.loc 3 408 0
ARM GAS  /tmp/cc6DU3Wg.s 			page 35


 583 0002 FFF7FEFF 		bl	_dbg_check_unlock_from_isr
 584              		.loc 3 409 0
 585 0006 FFF7FEFF 		bl	_stats_stop_measure_crit_isr
 586              		.loc 3 410 0
 587 000a FFF7FEFF 		bl	port_unlock_from_isr
 588              		.loc 3 411 0
 589 000e 08BD     		pop	{r3, pc}
 590              		.cfi_endproc
 591              	.LFE170:
 592              		.size	chSysUnlockFromISR, .-chSysUnlockFromISR
 593              		.section	.text.osalSysLockFromISR,"ax",%progbits
 594              		.align	2
 595              		.p2align 4,,15
 596              		.thumb
 597              		.thumb_func
 598              		.type	osalSysLockFromISR, %function
 599              	osalSysLockFromISR:
 600              	.LFB247:
 601              		.file 4 "lib/ChibiOS_16.1.4//os/hal/osal/rt/osal.h"
 602              		.loc 4 513 0
 603              		.cfi_startproc
 604              		@ args = 0, pretend = 0, frame = 0
 605              		@ frame_needed = 0, uses_anonymous_args = 0
 606 0000 08B5     		push	{r3, lr}
 607              		.cfi_def_cfa_offset 8
 608              		.cfi_offset 3, -8
 609              		.cfi_offset 14, -4
 610              		.loc 4 515 0
 611 0002 FFF7FEFF 		bl	chSysLockFromISR
 612              		.loc 4 516 0
 613 0006 08BD     		pop	{r3, pc}
 614              		.cfi_endproc
 615              	.LFE247:
 616              		.size	osalSysLockFromISR, .-osalSysLockFromISR
 617 0008 AFF30080 		.section	.text.osalSysUnlockFromISR,"ax",%progbits
 617      AFF30080 
 618              		.align	2
 619              		.p2align 4,,15
 620              		.thumb
 621              		.thumb_func
 622              		.type	osalSysUnlockFromISR, %function
 623              	osalSysUnlockFromISR:
 624              	.LFB248:
 625              		.loc 4 524 0
 626              		.cfi_startproc
 627              		@ args = 0, pretend = 0, frame = 0
 628              		@ frame_needed = 0, uses_anonymous_args = 0
 629 0000 08B5     		push	{r3, lr}
 630              		.cfi_def_cfa_offset 8
 631              		.cfi_offset 3, -8
 632              		.cfi_offset 14, -4
 633              		.loc 4 526 0
 634 0002 FFF7FEFF 		bl	chSysUnlockFromISR
 635              		.loc 4 527 0
 636 0006 08BD     		pop	{r3, pc}
 637              		.cfi_endproc
 638              	.LFE248:
ARM GAS  /tmp/cc6DU3Wg.s 			page 36


 639              		.size	osalSysUnlockFromISR, .-osalSysUnlockFromISR
 640 0008 AFF30080 		.section	.text.osalOsTimerHandlerI,"ax",%progbits
 640      AFF30080 
 641              		.align	2
 642              		.p2align 4,,15
 643              		.thumb
 644              		.thumb_func
 645              		.type	osalOsTimerHandlerI, %function
 646              	osalOsTimerHandlerI:
 647              	.LFB252:
 648              		.loc 4 583 0
 649              		.cfi_startproc
 650              		@ args = 0, pretend = 0, frame = 0
 651              		@ frame_needed = 0, uses_anonymous_args = 0
 652 0000 08B5     		push	{r3, lr}
 653              		.cfi_def_cfa_offset 8
 654              		.cfi_offset 3, -8
 655              		.cfi_offset 14, -4
 656              		.loc 4 585 0
 657 0002 FFF7FEFF 		bl	chSysTimerHandlerI
 658              		.loc 4 586 0
 659 0006 08BD     		pop	{r3, pc}
 660              		.cfi_endproc
 661              	.LFE252:
 662              		.size	osalOsTimerHandlerI, .-osalOsTimerHandlerI
 663 0008 AFF30080 		.section	.text.VectorB0,"ax",%progbits
 663      AFF30080 
 664              		.align	2
 665              		.p2align 4,,15
 666              		.global	VectorB0
 667              		.thumb
 668              		.thumb_func
 669              		.type	VectorB0, %function
 670              	VectorB0:
 671              	.LFB272:
 672              		.file 5 "lib/ChibiOS_16.1.4//os/hal/ports/STM32/LLD/TIMv1/st_lld.c"
 673              		.loc 5 239 0
 674              		.cfi_startproc
 675              		@ args = 0, pretend = 0, frame = 0
 676              		@ frame_needed = 0, uses_anonymous_args = 0
 677 0000 08B5     		push	{r3, lr}
 678              		.cfi_def_cfa_offset 8
 679              		.cfi_offset 3, -8
 680              		.cfi_offset 14, -4
 681              		.loc 5 241 0
 682 0002 FFF7FEFF 		bl	_stats_increase_irq
 683 0006 FFF7FEFF 		bl	_dbg_check_enter_isr
 684              		.loc 5 246 0
 685 000a 4FF08043 		mov	r3, #1073741824
 686 000e 1B69     		ldr	r3, [r3, #16]
 687 0010 03F00203 		and	r3, r3, #2
 688 0014 002B     		cmp	r3, #0
 689 0016 09D0     		beq	.L11
 690              		.loc 5 247 0
 691 0018 4FF08043 		mov	r3, #1073741824
 692 001c 0022     		movs	r2, #0
 693 001e 1A61     		str	r2, [r3, #16]
ARM GAS  /tmp/cc6DU3Wg.s 			page 37


 694              		.loc 5 249 0
 695 0020 FFF7FEFF 		bl	osalSysLockFromISR
 696              		.loc 5 250 0
 697 0024 FFF7FEFF 		bl	osalOsTimerHandlerI
 698              		.loc 5 251 0
 699 0028 FFF7FEFF 		bl	osalSysUnlockFromISR
 700              	.L11:
 701              		.loc 5 254 0
 702 002c FFF7FEFF 		bl	_dbg_check_leave_isr
 703 0030 FFF7FEFF 		bl	_port_irq_epilogue
 704              		.loc 5 255 0
 705 0034 08BD     		pop	{r3, pc}
 706              		.cfi_endproc
 707              	.LFE272:
 708              		.size	VectorB0, .-VectorB0
 709 0036 00BFAFF3 		.section	.text.st_lld_init,"ax",%progbits
 709      0080AFF3 
 709      0080
 710              		.align	2
 711              		.p2align 4,,15
 712              		.global	st_lld_init
 713              		.thumb
 714              		.thumb_func
 715              		.type	st_lld_init, %function
 716              	st_lld_init:
 717              	.LFB273:
 718              		.loc 5 267 0
 719              		.cfi_startproc
 720              		@ args = 0, pretend = 0, frame = 0
 721              		@ frame_needed = 0, uses_anonymous_args = 0
 722 0000 08B5     		push	{r3, lr}
 723              		.cfi_def_cfa_offset 8
 724              		.cfi_offset 3, -8
 725              		.cfi_offset 14, -4
 726              		.loc 5 273 0
 727 0002 4FF46053 		mov	r3, #14336
 728 0006 C4F20203 		movt	r3, 16386
 729 000a 4FF46052 		mov	r2, #14336
 730 000e C4F20202 		movt	r2, 16386
 731 0012 126C     		ldr	r2, [r2, #64]
 732 0014 42F00102 		orr	r2, r2, #1
 733 0018 1A64     		str	r2, [r3, #64]
 734              		.loc 5 276 0
 735 001a 4FF40053 		mov	r3, #8192
 736 001e CEF20403 		movt	r3, 57348
 737 0022 4FF40052 		mov	r2, #8192
 738 0026 CEF20402 		movt	r2, 57348
 739 002a 9268     		ldr	r2, [r2, #8]
 740 002c 42F00102 		orr	r2, r2, #1
 741 0030 9A60     		str	r2, [r3, #8]
 742              		.loc 5 279 0
 743 0032 4FF08043 		mov	r3, #1073741824
 744 0036 42F2CF02 		movw	r2, #8399
 745 003a 9A62     		str	r2, [r3, #40]
 746              		.loc 5 280 0
 747 003c 4FF08043 		mov	r3, #1073741824
 748 0040 4FF0FF32 		mov	r2, #-1
ARM GAS  /tmp/cc6DU3Wg.s 			page 38


 749 0044 DA62     		str	r2, [r3, #44]
 750              		.loc 5 281 0
 751 0046 4FF08043 		mov	r3, #1073741824
 752 004a 0022     		movs	r2, #0
 753 004c 9A61     		str	r2, [r3, #24]
 754              		.loc 5 282 0
 755 004e 4FF08043 		mov	r3, #1073741824
 756 0052 0022     		movs	r2, #0
 757 0054 5A63     		str	r2, [r3, #52]
 758              		.loc 5 283 0
 759 0056 4FF08043 		mov	r3, #1073741824
 760 005a 0022     		movs	r2, #0
 761 005c DA60     		str	r2, [r3, #12]
 762              		.loc 5 284 0
 763 005e 4FF08043 		mov	r3, #1073741824
 764 0062 0022     		movs	r2, #0
 765 0064 5A60     		str	r2, [r3, #4]
 766              		.loc 5 285 0
 767 0066 4FF08043 		mov	r3, #1073741824
 768 006a 0122     		movs	r2, #1
 769 006c 5A61     		str	r2, [r3, #20]
 770              		.loc 5 286 0
 771 006e 4FF08043 		mov	r3, #1073741824
 772 0072 0122     		movs	r2, #1
 773 0074 1A60     		str	r2, [r3]
 774              		.loc 5 289 0
 775 0076 1C20     		movs	r0, #28
 776 0078 0821     		movs	r1, #8
 777 007a FFF7FEFF 		bl	nvicEnableVector
 778              		.loc 5 304 0
 779 007e 08BD     		pop	{r3, pc}
 780              		.cfi_endproc
 781              	.LFE273:
 782              		.size	st_lld_init, .-st_lld_init
 783              		.text
 784              	.Letext0:
 785              		.file 6 "/usr/include/newlib/machine/_default_types.h"
 786              		.file 7 "/usr/include/newlib/stdint.h"
 787              		.file 8 "lib/ChibiOS_16.1.4//os/rt/ports/ARMCMx/compilers/GCC/chtypes.h"
 788              		.file 9 "lib/ChibiOS_16.1.4//os/rt/include/chsystypes.h"
 789              		.file 10 "lib/ChibiOS_16.1.4//os/rt/include/chschd.h"
 790              		.file 11 "lib/ChibiOS_16.1.4//os/ext/CMSIS/ST/STM32F4xx/stm32f407xx.h"
 791              		.file 12 "lib/ChibiOS_16.1.4//os/rt/ports/ARMCMx/chcore.h"
 792              		.file 13 "lib/ChibiOS_16.1.4//os/hal/ports/STM32/LLD/TIMv1/stm32_tim.h"
 793              		.file 14 "lib/ChibiOS_16.1.4//os/rt/include/chdebug.h"
 794              		.file 15 "lib/ChibiOS_16.1.4//os/rt/include/chtm.h"
 795              		.file 16 "lib/ChibiOS_16.1.4//os/rt/include/chstats.h"
 796              		.file 17 "lib/ChibiOS_16.1.4//os/rt/include/chsem.h"
 797              		.file 18 "lib/ChibiOS_16.1.4//os/rt/include/chmtx.h"
 798              		.file 19 "lib/ChibiOS_16.1.4//os/ext/CMSIS/include/core_cm4.h"