ARM GAS  /tmp/ccmuHrxB.s 			page 1


   1              		.syntax unified
   2              		.cpu cortex-m4
   3              		.fpu softvfp
   4              		.eabi_attribute 20, 1
   5              		.eabi_attribute 21, 1
   6              		.eabi_attribute 23, 3
   7              		.eabi_attribute 24, 1
   8              		.eabi_attribute 25, 1
   9              		.eabi_attribute 26, 1
  10              		.eabi_attribute 30, 6
  11              		.eabi_attribute 34, 1
  12              		.eabi_attribute 18, 4
  13              		.thumb
  14              		.file	"st_lld.c"
  15              		.text
  16              	.Ltext0:
  17              		.section	.gnu.lto_.inline.bb5ce2027af05553,"",%progbits
  18 0000 789C6362 		.ascii	"x\234cb`b\300\0064\031!47\003\003\0133\003\003\023\313"
  18      6062C006 
  18      34192134 
  18      3703030B 
  18      33030313 
  19 0015 073D0616 		.ascii	"\007=\006\026\210ZF\014\021&\006\026\036 \311\264@\036"
  19      885A460C 
  19      11260616 
  19      1E20C9B4 
  19      401E
  20 0027 AE860B48 		.ascii	"\256\206\013H0c\027fa`S\300\"\214 X\261\353c\303.\314"
  20      30631766 
  20      616053C0 
  20      228C2058 
  20      B1EB63C3 
  21 003d 4EC8380E 		.ascii	"N\3108\016\354\3728\031\370\317\202\334\316\263!\027"
  21      ECFA3819 
  21      F8CF82DC 
  21      CEB32117 
  22 004d 87466C04 		.ascii	"\207Fl\004\027\203\210\014P\223\\\303/F\230.f\036\020"
  22      1783880C 
  22      50935CC3 
  22      2F46982E 
  22      661E10
  23 0060 09003748 		.ascii	"\011\0007H\015\241"
  23      0DA1
  24              		.text
  25              		.section	.gnu.lto_port_lock.bb5ce2027af05553,"",%progbits
  26 0000 789C6362 		.ascii	"x\234cb`b@\007\"@,\310\310\300\320\000\342030\002U0"
  26      60624007 
  26      22402CC8 
  26      C8C0D000 
  26      E2303330 
  27 0017 32310205 		.ascii	"21\002\005\030\030\031\352\231\030\353#AL\006F%\206"
  27      181819EA 
  27      9918EB23 
  27      414C0646 
  27      2586
  28 0029 850D0D93 		.ascii	"\205\015\015\223\036\264>{\3144\263\341@\313\202\206"
  28      1EB43E7B 
ARM GAS  /tmp/ccmuHrxB.s 			page 2


  28      CC34B3E1 
  28      40CB8286 
  29 0039 3FFFFF33 		.ascii	"?\377\37732f2\002M\324gdHfd\210\000r\030\025\300\024"
  29      32663202 
  29      4DD46764 
  29      48666488 
  29      00721815 
  30 004f 130BAA15 		.ascii	"\023\013\252\025\353\231\016<\370\377\377D\347\363\275"
  30      EB990E3C 
  30      F8FFFF44 
  30      E7F3BD
  31 005e 40931912 		.ascii	"@\223\031\022\031\027\002M\003\002V\206\226\206\206"
  31      1917024D 
  31      03025686 
  31      968686
  32 006d 090A0C20 		.ascii	"\011\012\014 \335@\020\002&CA\016`>\313\320\264\003"
  32      DD401002 
  32      2643410E 
  32      603ECBD0 
  32      B403
  33 007f 48A73332 		.ascii	"H\24732\202\314c\000\252a8\307\320\364\361\355\214\307"
  33      82CC6300 
  33      AA6138C7 
  33      D0F4F1ED 
  33      8CC7
  34 0091 12705D60 		.ascii	"\022p]`F\303\201\356+\355\2540#\023\031\0273\262\002"
  34      46C381EE 
  34      2BEDAC30 
  34      23131917 
  34      33B202
  35 00a4 8D833819 		.ascii	"\215\2038\031\010S\231A>f\206x[\216\241ln\303\014\207"
  35      08539941 
  35      3E668678 
  35      5B8EA16C 
  35      6EC30C87 
  36 00b8 4C466610 		.ascii	"LFf\020/\035\254\012.U\011\221\202\272\374\"C\343\203"
  36      2F1DAC0A 
  36      2E550991 
  36      82BAFC22 
  36      43E383
  37 00cb 9DFA10E3 		.ascii	"\235\372\020\343` \004\244\001\244ZGOO\037\216\362\213"
  37      602004A4 
  37      01A45A47 
  37      4F4F1F8E 
  37      F28B
  38 00dd F58B4AF4 		.ascii	"\365\213J\364\013\362\213J\212\365\035\203|\235}+\364"
  38      0BF28B4A 
  38      8AF51D83 
  38      7C9D7D2B 
  38      F4
  39 00ee 933392F3 		.ascii	"\2233\222\363\213R\343\313\314s\3652\030X\313\022sJ"
  39      8B52E3CB 
  39      CC73F532 
  39      1858CB12 
  39      734A
  40 0100 53F5D1B4 		.ascii	"S\365\321\264\244V\224\350;\373\006{\006\353g\346%\347"
  40      A45694E8 
ARM GAS  /tmp/ccmuHrxB.s 			page 3


  40      3BFB067B 
  40      06EB67E6 
  40      25E7
  41 0112 94A6A4EA 		.ascii	"\224\246\244\352\203\265$\347\272\225\346%\003u\011"
  41      83B524E7 
  41      BA95E625 
  41      037509
  42 0121 F8060729 		.ascii	"\370\006\007)$%\026\247\026\024e\352(\250\03200\025"
  42      242516A7 
  42      161465EA 
  42      28A81A30 
  42      3015
  43 0133 31B0E7A6 		.ascii	"1\260\347\246\346\346\027U2\000\000%\366_c"
  43      E6E61755 
  43      32000025 
  43      F65F63
  44              		.text
  45              		.section	.gnu.lto_port_unlock.bb5ce2027af05553,"",%progbits
  46 0000 789C6362 		.ascii	"x\234cb`b@\007\"@,\310\310\300\320\000\342030\002U0"
  46      60624007 
  46      22402CC8 
  46      C8C0D000 
  46      E2303330 
  47 0017 32310205 		.ascii	"21\002\005\030\030\031\352\231\030\353#AL\006F%\206"
  47      181819EA 
  47      9918EB23 
  47      414C0646 
  47      2586
  48 0029 850D0D93 		.ascii	"\205\015\015\223\036\264~z\3144\263\341@\313\202\206"
  48      1EB47E7A 
  48      CC34B3E1 
  48      40CB8286 
  49 0039 3FFFFF33 		.ascii	"?\377\37732f2\002M\324gdHfd\210\000r\030\025\300\024"
  49      32663202 
  49      4DD46764 
  49      48666488 
  49      00721815 
  50 004f 130BAA15 		.ascii	"\023\013\252\025\353\231\016<\370\377\377E\347\376}"
  50      EB990E3C 
  50      F8FFFF45 
  50      E7FE7D
  51 005e 40931912 		.ascii	"@\223\031\022\031\027\002M\003\002V\206\226\206\206"
  51      1917024D 
  51      03025686 
  51      968686
  52 006d 090A0C20 		.ascii	"\011\012\014 \335@\020\002&CA\016`>\313\320\264\003"
  52      DD401002 
  52      2643410E 
  52      603ECBD0 
  52      B403
  53 007f 48A73332 		.ascii	"H\24732\202\314\003\033r\216\241\351\343\333\031\217"
  53      82CC031B 
  53      728EA1E9 
  53      E3DB198F 
  54 008f 25E0BAC0 		.ascii	"%\340\272\300\214\206\003\247\237\266\263\302\214Ld"
  54      8C8603A7 
  54      9FB6B3C2 
ARM GAS  /tmp/ccmuHrxB.s 			page 4


  54      8C4C64
  55 009e 5CCCC80A 		.ascii	"\\\314\310\0124\016\342d Le\006\371\230\031\342m9\206"
  55      340EE264 
  55      204C6506 
  55      F99819E2 
  55      6D3986
  56 00b1 B2B90D33 		.ascii	"\262\271\0153\0342\031\231A\274t\260*\270T%D\012\352"
  56      1C321999 
  56      41BC74B0 
  56      2AB85425 
  56      440AEA
  57 00c4 F28B0C8D 		.ascii	"\362\213\014\215\017\316\353C\214\203\201\020\220\006"
  57      0FCEEB43 
  57      8C838110 
  57      9006
  58 00d2 906A1D3D 		.ascii	"\220j\035==}8\312/\326/*\321/\310/*)\326w\014\362u\366"
  58      3D7D38CA 
  58      2FD62F2A 
  58      D12FC82F 
  58      2A29D677 
  59 00ea ADD04FCE 		.ascii	"\255\320O\316H\316/J\215/3\317\325\313``-K\314)M\325"
  59      48CE2F4A 
  59      8D2F33CF 
  59      D5CB6060 
  59      2D4BCC29 
  60 0100 47D3925A 		.ascii	"G\323\222ZQ\242\357\354\033\354\031\254\237\231\227"
  60      51A2EFEC 
  60      1BEC19AC 
  60      9F9997
  61 010f 9C539A92 		.ascii	"\234S\232\222\252\017\326\222\234\353V\232\227\014\324"
  61      AA0FD692 
  61      9CEB569A 
  61      970CD4
  62 011e 25E01B1C 		.ascii	"%\340\033\034\244\220\224X\234ZP\224\251\243\240j\300"
  62      A4909458 
  62      9C5A5094 
  62      A9A3A06A 
  62      C0
  63 012f C054C4C0 		.ascii	"\300T\304\300\236\233\232\233_T\311\000\000g\003_\257"
  63      9E9B9A9B 
  63      5F54C900 
  63      0067035F 
  63      AF
  64              		.text
  65              		.section	.gnu.lto_port_lock_from_isr.bb5ce2027af05553,"",%progbits
  66 0000 789C6362 		.ascii	"x\234cb`b@\007\"@\\\006\304z \0163\003#P\005#\023##"
  66      60624007 
  66      22405C06 
  66      C47A200E 
  66      33032350 
  67 0019 90C3C850 		.ascii	"\220\303\310P\317\304X\037\311\010V\266\236\351\300"
  67      CFC4581F 
  67      C90856B6 
  67      9EE9C0
  68 0028 83FFFFD7 		.ascii	"\203\377\377\327\355\273\277n\015\343?&\220\030+CKC"
  68      EDBBBF6E 
  68      0DE33F26 
ARM GAS  /tmp/ccmuHrxB.s 			page 5


  68      90182B43 
  68      4B43
  69 003a C3040506 		.ascii	"\303\004\005\006\206d\260\212\0200\031\012\322\317|"
  69      8664B08A 
  69      1030190A 
  69      D2CF7C
  70 0049 9EA1F9C1 		.ascii	"\236\241\371\301\313~\366D\306\205\214\254@\301j\206"
  70      CB7EF644 
  70      C6858CAC 
  70      40C16A86 
  71 0059 5F0D1D0D 		.ascii	"_\015\035\015\002\231\214@\245\020\3232A\364E\206\306"
  71      02998C40 
  71      A510D332 
  71      41F44586 
  71      C6
  72 006a 07AFF461 		.ascii	"\007\257\364a\212  \004$\001r\244\216\236\236>\034\345"
  72      8A202004 
  72      240172A4 
  72      8E9E9E3E 
  72      1CE5
  73 007c 17EB1795 		.ascii	"\027\353\027\225\350\027\344\027\225\024\353;\006\371"
  73      E817E417 
  73      9514EB3B 
  73      06F9
  74 008a 3AFB56E8 		.ascii	":\373V\350'g$\347\027\245\306\227\231\347\352e0\000"
  74      276724E7 
  74      17A5C697 
  74      99E7EA65 
  74      3000
  75 009c 00577E29 		.ascii	"\000W~)\223"
  75      93
  76              		.text
  77              		.section	.gnu.lto_port_unlock_from_isr.bb5ce2027af05553,"",%progbits
  78 0000 789C6362 		.ascii	"x\234cb`b@\007\"@\\\006\304z \0163\003#P\005#\023##"
  78      60624007 
  78      22405C06 
  78      C47A200E 
  78      33032350 
  79 0019 90C3C850 		.ascii	"\220\303\310P\317\304X\037\311\010V\266\236\351\300"
  79      CFC4581F 
  79      C90856B6 
  79      9EE9C0
  80 0028 83FFFFD7 		.ascii	"\203\377\377\327}\271\277\376\016\343\177&\220\030+"
  80      7DB9BFFE 
  80      0EE37F26 
  80      90182B
  81 0037 434B43C3 		.ascii	"CKC\303\004\005\006\206d\260\212\0200\031\012\322\317"
  81      04050686 
  81      64B08A10 
  81      30190AD2 
  81      CF
  82 0048 7C9EA1F9 		.ascii	"|\236\241\371\301\237\363\354\211\214\013\031Y\201\202"
  82      C19FF3EC 
  82      898C0B19 
  82      598182
  83 0057 D50CBF1A 		.ascii	"\325\014\277\032:\032\0042\031\201J!\246e\202\350\213"
  83      3A1A0432 
ARM GAS  /tmp/ccmuHrxB.s 			page 6


  83      19814A21 
  83      A66582E8 
  83      8B
  84 0068 0C8D0FFE 		.ascii	"\014\215\017\376\352\303\024A@\010H\002\344H\035==}"
  84      EAC31441 
  84      40084802 
  84      E4481D3D 
  84      3D7D
  85 007a 38CA2FD6 		.ascii	"8\312/\326/*\321/\310/*)\326w\014\362u\366\255\320O"
  85      2F2AD12F 
  85      C82F2A29 
  85      D6770CF2 
  85      75F6ADD0 
  86 008f CE48CE2F 		.ascii	"\316H\316/J\215/3\317\325\313`\000\000\273\315*a"
  86      4A8D2F33 
  86      CFD5CB60 
  86      0000BBCD 
  86      2A61
  87              		.text
  88              		.section	.gnu.lto_chSysLockFromISR.bb5ce2027af05553,"",%progbits
  89 0000 789C6362 		.ascii	"x\234cb`b@\007\"@|\010\210U@\034f\006F\240\012F&FF "
  89      60624007 
  89      22407C08 
  89      8855401C 
  89      660646A0 
  90 001a 8791A19E 		.ascii	"\207\221\241\236\211\261>\222\021\254l=\323\201\007"
  90      89B13E92 
  90      11AC6C3D 
  90      D38107
  91 0029 FFFFAF9B 		.ascii	"\377\377\257\233rk\355\037\306\027L 1V\206\226\206\206"
  91      726BED1F 
  91      C6174C20 
  91      31568696 
  91      8686
  92 003b 090A0C0C 		.ascii	"\011\012\014\014\311`\025!`2\024\244\237\371<C\363\203"
  92      C9601521 
  92      603214A4 
  92      9FF93C43 
  92      F383
  93 004d 9EB5DC89 		.ascii	"\236\265\334\211\214\013\031Y\201\202\325\014\277\032"
  93      8C0B1959 
  93      8182D50C 
  93      BF1A
  94 005b 3A1A0432 		.ascii	":\032\0042\031\201J!\246e\202h\220\252\336^!l\252\230"
  94      19814A21 
  94      A6658268 
  94      90AADE5E 
  94      216CAA98 
  95 006f 5055F5BD 		.ascii	"PU\365\275\345\303\246\212\031\241\352\"C\343\203~]"
  95      E5C3A68A 
  95      19A1EA22 
  95      43E3837E 
  95      5D
  96 0080 98220808 		.ascii	"\230\"\010\010\001I\200LR\322\323\323\207\243\374b\375"
  96      0149804C 
  96      52D2D3D3 
  96      87A3FC62 
ARM GAS  /tmp/ccmuHrxB.s 			page 7


  96      FD
  97 0091 A212FDCC 		.ascii	"\242\022\375\314\274\344\234\322\224T\375\344\214\342"
  97      BCE49CD2 
  97      9454FDE4 
  97      8CE2
  98 009f CA62BD0C 		.ascii	"\312b\275\014\006\000M\3567\313"
  98      06004DEE 
  98      37CB
  99              		.text
 100              		.section	.gnu.lto_osalSysLockFromISR.bb5ce2027af05553,"",%progbits
 101 0000 789C6362 		.ascii	"x\234cb`b@\007\"@\\\011\304* \0163\003#P\005#\023##"
 101      60624007 
 101      22405C09 
 101      C42A200E 
 101      33032350 
 102 0019 90C3C850 		.ascii	"\220\303\310P\317\304X\037\311\010V\266\236\351\300"
 102      CFC4581F 
 102      C90856B6 
 102      9EE9C0
 103 0028 83FFFFD7 		.ascii	"\203\377\377\327Mz\364\342(c\317F\026\220 +CKC\303\004"
 103      4D7AF4E2 
 103      2863CF46 
 103      1690202B 
 103      434B43C3 
 104 003d 05068664 		.ascii	"\005\006\206d\260\222\0200\031\0122\200\371<C\363\203"
 104      B0921030 
 104      190A3280 
 104      F93C43F3 
 104      83
 105 004e EE8D6B18 		.ascii	"\356\215k\030\023\031\0272\262\002E\253\031~5t4\010"
 105      13191732 
 105      B20245AB 
 105      197E3574 
 105      3408
 106 0060 643202D5 		.ascii	"d2\002\325B\314\313\004\321\027\031\032\037\000\015"
 106      42CCCB04 
 106      D117191A 
 106      1F000D
 107 006f 83A98280 		.ascii	"\203\251\202\200\020\220\014\310\235Jzz\372p\224_\254"
 107      10900CC8 
 107      9D4A7A7A 
 107      FA70945F 
 107      AC
 108 0080 9F919803 		.ascii	"\237\221\230\003\244\200DQ\011\230\326\313`\000\000"
 108      A4804451 
 108      0998D6CB 
 108      600000
 109 008f 60112705 		.ascii	"`\021'\005"
 110              		.text
 111              		.section	.gnu.lto_osalOsTimerHandlerI.bb5ce2027af05553,"",%progbits
 112 0000 789C6362 		.ascii	"x\234cb`b@\007\"@\\\011\304* \0163\003#P\005#\023##"
 112      60624007 
 112      22405C09 
 112      C42A200E 
 112      33032350 
 113 0019 90C3C850 		.ascii	"\220\303\310P\317\304X\037\311\010V\266\236\351\300"
 113      CFC4581F 
ARM GAS  /tmp/ccmuHrxB.s 			page 8


 113      C90856B6 
 113      9EE9C0
 114 0028 83FFFFD7 		.ascii	"\203\377\377\327\315{\366\341(\343\254\315, AV\206\226"
 114      CD7BF6E1 
 114      28E3ACCD 
 114      2C204156 
 114      8696
 115 003a 8686090A 		.ascii	"\206\206\011\012\014\014\311`%!`2\024d\000\363y\206"
 115      0C0CC960 
 115      25216032 
 115      146400F3 
 115      7986
 116 004c E6073337 		.ascii	"\346\00737oaLd\\\310\310\012\024\255f\370\325\320\321"
 116      6F614C64 
 116      5CC8C80A 
 116      14AD66F8 
 116      D5D0D1
 117 005f 2090C908 		.ascii	" \220\311\010T\0131/\023D_dh|\0004\014\246\012\002B"
 117      540B312F 
 117      13445F64 
 117      687C0034 
 117      0CA60A02 
 118 0074 40322077 		.ascii	"@2 w*\351\351\351\303Q~\261~Fb\016\220\002\022E%`Z/"
 118      2AE9E9E9 
 118      C3517EB1 
 118      7E46620E 
 118      90021245 
 119 008c 83010083 		.ascii	"\203\001\000\203\037'U"
 119      1F2755
 120              		.text
 121              		.section	.gnu.lto_chSysUnlockFromISR.bb5ce2027af05553,"",%progbits
 122 0000 789C6362 		.ascii	"x\234cb`b@\007\"@|\010\210U@\034f\006F\240\012F&FF "
 122      60624007 
 122      22407C08 
 122      8855401C 
 122      660646A0 
 123 001a 8791A19E 		.ascii	"\207\221\241\236\211\261>\222\021\254l=\323\201\007"
 123      89B13E92 
 123      11AC6C3D 
 123      D38107
 124 0029 FFFFAFBB 		.ascii	"\377\377\257\273sk\335\036\306\327L 1V\206\226\206\206"
 124      736BDD1E 
 124      C6D74C20 
 124      31568696 
 124      8686
 125 003b 090A0C0C 		.ascii	"\011\012\014\014\311`\025!`2\024\244\237\371<C\363\203"
 125      C9601521 
 125      603214A4 
 125      9FF93C43 
 125      F383
 126 004d 1D6BF913 		.ascii	"\035k\371\023\031\0272\262\002\005\253\031~5t4\010d"
 126      191732B2 
 126      0205AB19 
 126      7E357434 
 126      0864
 127 005f 32029542 		.ascii	"2\002\225BL\313\004\321 U;\337bU\305\204\252j\327[n"
 127      4CCB04D1 
ARM GAS  /tmp/ccmuHrxB.s 			page 9


 127      20553BDF 
 127      6255C584 
 127      AA6AD75B 
 128 0074 6CAA9811 		.ascii	"l\252\230\021\252.24>\330\255\013S\004\001! \011\220"
 128      AA2E3234 
 128      3ED8AD0B 
 128      53040121 
 128      200990
 129 0087 494A7A7A 		.ascii	"IJzz\372p\224_\254_T\242\237\231\227\234S\232\222\252"
 129      FA70945F 
 129      AC5F54A2 
 129      9F99979C 
 129      539A92AA 
 130 009b 9F9C515C 		.ascii	"\237\234Q\\Y\254\227\301\000\000\333\3138\345"
 130      59AC97C1 
 130      0000DBCB 
 130      38E5
 131              		.text
 132              		.section	.gnu.lto_osalSysUnlockFromISR.bb5ce2027af05553,"",%progbits
 133 0000 789C6362 		.ascii	"x\234cb`b@\007\"@\\\011\304* \0163\003#P\005#\023##"
 133      60624007 
 133      22405C09 
 133      C42A200E 
 133      33032350 
 134 0019 90C3C850 		.ascii	"\220\303\310P\317\304X\037\311\010V\266\236\351\300"
 134      CFC4581F 
 134      C90856B6 
 134      9EE9C0
 135 0028 83FFFFD7 		.ascii	"\203\377\377\327\355x\364\343(\343\374\215, AV\206\226"
 135      ED78F4E3 
 135      28E3FC8D 
 135      2C204156 
 135      8696
 136 003a 8686090A 		.ascii	"\206\206\011\012\014\014\311`%!`2\024d\000\363y\206"
 136      0C0CC960 
 136      25216032 
 136      146400F3 
 136      7986
 137 004c E607F336 		.ascii	"\346\007\3636naLd\\\310\310\012\024\255f\370\325\320"
 137      6E614C64 
 137      5CC8C80A 
 137      14AD66F8 
 137      D5D0
 138 005e D12090C9 		.ascii	"\321 \220\311\010T\0131/\023D_dh|\0004\014\246\012\002"
 138      08540B31 
 138      2F13445F 
 138      64687C00 
 138      340CA60A 
 139 0073 42403220 		.ascii	"B@2 w*\351\351\351\303Q~\261~Fb\016\220\002\022E%`Z"
 139      772AE9E9 
 139      E9C3517E 
 139      B17E4662 
 139      0E900212 
 140 008b 2F830100 		.ascii	"/\203\001\000\227\\'|"
 140      975C277C 
 141              		.text
 142              		.section	.gnu.lto_VectorB0.bb5ce2027af05553,"",%progbits
ARM GAS  /tmp/ccmuHrxB.s 			page 10


 143 0000 789C8D51 		.ascii	"x\234\215QM(DQ\024>\347\336;#\211\224\225\235l(5/?{"
 143      4D284451 
 143      143EE7DE 
 143      3B238994 
 143      959D6C28 
 144 0018 1B1B4529 		.ascii	"\033\033E)\243\260\021\243\230\232\"#\033\013w\314+"
 144      A3B011A3 
 144      989A2223 
 144      1B0B77CC 
 144      2B
 145 0029 B29A6483 		.ascii	"\262\232d\203\015\013\221\215\262R6\223R,\246ag\347"
 145      0D0B918D 
 145      B2523693 
 145      522CA661 
 145      67E7
 146 003b 2991B2B3 		.ascii	")\221\262\263\301\310s\316}\336\314\340\2259\335w\356"
 146      C1C873CE 
 146      7DDECCE0 
 146      9539DD77 
 146      EE
 147 004c BDE77CE7 		.ascii	"\275\347|\347\274\357~G\200\200\337\326J_\247\004\350"
 147      BCEF7E47 
 147      8080DFD6 
 147      4A5FA704 
 147      E8
 148 005d E24B0890 		.ascii	"\342K\010\220\020(\004\005\264P\344\224D\332P!R\032"
 148      10280405 
 148      B450E494 
 148      44DA5021 
 148      521A
 149 006f 61494885 		.ascii	"aIH\205K#|\001\325\014\273Z\257;\347\205;\261\271\221"
 149      4B237C01 
 149      D50CBB5A 
 149      AF3BE785 
 149      3BB1B991 
 150 0083 B577F487 		.ascii	"\265w\364\207\353\"\3069\031C\030\246\0236\231\215;"
 150      EB22C639 
 150      194318A6 
 150      1336998D 
 150      3B
 151 0094 959B57A8 		.ascii	"\225\233W\250\217\017t\265)\222q\224\025\326\274\334"
 151      8F0F74B5 
 151      29927194 
 151      15D6BCDC 
 152 00a4 0F5C683B 		.ascii	"\017\\h;\353\272\335\025\327do\363\033\215k;\313\031"
 152      EBBADD15 
 152      D7646FF3 
 152      1B8D6B3B 
 152      CB19
 153 00b6 FD49FC2A 		.ascii	"\375I\374*\240w$\262\216\353~\024^\357\\l\010!P\211"
 153      A07724B2 
 153      8EEB7E14 
 153      5EEF5C6C 
 153      08215089 
 154 00ca 2027253B 		.ascii	" '%;\005\246\003Iek\235i2\275\310\242\306\017\261|2"
 154      05A60349 
 154      656B9D69 
ARM GAS  /tmp/ccmuHrxB.s 			page 11


 154      32BDC8A2 
 154      C60FB17C 
 155 00df 0F69E769 		.ascii	"\017i\347ij\034\3670D\261Ex\327\253\272>\216*fD\004"
 155      6A1CF730 
 155      44B14578 
 155      D7ABBA3E 
 155      8E2A6644 
 156 00f4 6A40F13C 		.ascii	"j@\361<\310 \204(!r\260|rC\332z\260)D\346\012\232\214"
 156      C8208428 
 156      2172B07C 
 156      7243DA7A 
 156      B02944E6 
 157 010b F9E6E06C 		.ascii	"\371\346\340l\324\317\21068\3246e\303\333\260E[\225"
 157      D4CF8836 
 157      38D43665 
 157      C3DBB045 
 157      5B95
 158 011d 0F363681 		.ascii	"\01766\201\376\303r\220>M?\240_&\251\222a\222\177z\001"
 158      FEC37290 
 158      3E4D3FA0 
 158      5F26A992 
 158      61927F7A 
 159 0132 F673AAB6 		.ascii	"\366s\252\266\2302\361rQ\206\370*\231\323k\341\262\310"
 159      9832F172 
 159      5186F82A 
 159      99D36BE1 
 159      B2C8
 160 0144 49FDE674 		.ascii	"I\375\346trU\343\345\014\245\224\036,'\245\376\222\342"
 160      7255E3E5 
 160      0CA5941E 
 160      2C27A5FE 
 160      92E2
 161 0156 48980F2C 		.ascii	"H\230\017,\332\333cM\220&\262\\\265\264\363\276R\027"
 161      DADB634D 
 161      9026B25C 
 161      B5B4F3BE 
 161      5217
 162 0168 84523F51 		.ascii	"\204R?Q\205\375@T\250\204\362^\245\276\007\366\0318"
 162      85FD4054 
 162      A884F25E 
 162      A5BE07F6 
 162      1938
 163 017a B0F0BF03 		.ascii	"\260\360\277\003\253*!\256!\345\270->\310\263(\317\234"
 163      AB2A21AE 
 163      21E5B82D 
 163      3EC8B328 
 163      CF9C
 164 018c F5ED8844 		.ascii	"\365\355\210D\254\342\232IZ\323\343\011kvfn>i\015F\373"
 164      ACE29A49 
 164      5AD3E309 
 164      6B76666E 
 164      3E690D46 
 165 01a1 3B3BACBE 		.ascii	";;\254\276\276\036+\332\333\277\320n%\347\307\022\211"
 165      BE1E2BDA 
 165      DBBFD06E 
 165      25E7C712 
 165      89
ARM GAS  /tmp/ccmuHrxB.s 			page 12


 166 01b2 C9480CBE 		.ascii	"\311H\014\276\000\355\221\305y"
 166      00ED91C5 
 166      79
 167              		.text
 168              		.section	.gnu.lto_st_lld_init.bb5ce2027af05553,"",%progbits
 169 0000 789CDD95 		.ascii	"x\234\335\225Kh\023Q\024\206\317\231;\223\311L\236B"
 169      4B681351 
 169      1486CF99 
 169      3B93C94C 
 169      9E42
 170 0012 373E16C5 		.ascii	"7>\026\305\235\210\031\254.\334\211\340\246\320\256"
 170      9D8819AC 
 170      2EDC89E0 
 170      A6D0AE
 171 0021 4CA17523 		.ascii	"L\241u#5B\015\004*\246\270q\221\233Za\020\301\240\273"
 171      35420D04 
 171      2AA6B871 
 171      919B5A61 
 171      10C1A0BB 
 172 0035 BAA90B21 		.ascii	"\272\251\013!\244bA\020\"\270\010\256tQ\212]\2713\335"
 172      A4624110 
 172      22B808AE 
 172      74518A5D 
 172      B933DD
 173 0048 C55D1191 		.ascii	"\305]\021\221\022\212\343=\363NR!3\240\013/\311?\217"
 173      128AE33D 
 173      F34E5221 
 173      33A00B2F 
 173      C93F8F
 174 005b 73FEEFDC 		.ascii	"s\376\357\334s\231;#\201\004\303\343\244\370\317k\000"
 174      73993B23 
 174      8104C3E3 
 174      A4F8CF6B 
 174      00
 175 006c 17E94206 		.ascii	"\027\351B\006\024\031(!\023\312\020\305-\204\232\304"
 175      14192821 
 175      13CA10C5 
 175      2D849AC4 
 176 007c B0B640E7 		.ascii	"\260\266@\3470q\032^p\376\264\373\262\265~\374\321\306"
 176      30711A5E 
 176      70FEB4FB 
 176      B2B57EFC 
 176      D1C6
 177 008e 6A83FFB2 		.ascii	"j\203\377\262,,S\250\2040/\316p\322>H\362`\021\307\306"
 177      2C2C53A8 
 177      84302FCE 
 177      70D23E48 
 177      F26011C7 
 178 00a3 DF34B9B6 		.ascii	"\3374\271\266\301\017-\213\305\363\260\177\344\371\017"
 178      C10F2D8B 
 178      C5F3B07F 
 178      E4F90F
 179 00b2 FAE97CD9 		.ascii	"\372\351|\331}\2547\352&\267\254Z\031\345\030\205\342"
 179      7DAC37EA 
 179      26B7AC5A 
 179      19E51885 
 179      E2
ARM GAS  /tmp/ccmuHrxB.s 			page 13


 180 00c3 78FE6643 		.ascii	"x\376fC_w\237\204\2379eL\333~x\035\3065}\217c\372\021"
 180      5F779F84 
 180      9F39654C 
 180      DB7E781D 
 180      C6357D8F 
 181 00da C7F4338E 		.ascii	"\307\3643\216\351 \216\251\037\307t\030\311\264%u\272"
 181      E9208EA9 
 181      1FC77418 
 181      C9B42575 
 181      BA
 182 00eb 96F5FED9 		.ascii	"\226\365\376\331\336^\017'\216!\210]!\2210!L&Q\204\310"
 182      DE5E0F27 
 182      8E21885D 
 182      21913021 
 182      4C265184 
 183 0100 0912952E 		.ascii	"\011\022\225.\223$\232\020E'I\221\244I2$Y\222\034I\036"
 183      93249A10 
 183      45274991 
 183      A4493224 
 183      59921C49 
 184 0115 ECEAA0C0 		.ascii	"\354\352\240\300\032\347\215I{\036b\024m\235\243w\026"
 184      1AE78D49 
 184      7B1E6214 
 184      6D9DA377 
 184      16
 185 0126 DB86D576 		.ascii	"\333\206\325v\273ub\021\337\212\314%D\232\037\360}\223"
 185      BB756211 
 185      DF8ACC25 
 185      449A1FF0 
 185      7D93
 186 0138 D31C45F0 		.ascii	"\323\034E\360\222\027\221\206\"\037\256{\021v\026Z|"
 186      92179186 
 186      221FAE7B 
 186      1176165A 
 186      7C
 187 0149 AD9E2F63 		.ascii	"\255\236/c\3429\254\213,\325\313\266\307M\364\372\334"
 187      E239AC8B 
 187      2CD5CBB6 
 187      C74DF4FA 
 187      DC
 188 015a 8607EF98 		.ascii	"\206\007\357\230\347\222\205\221\222\030:\270i'p\004"
 188      E7928591 
 188      92183AB8 
 188      69277004 
 189 016a 0B47594B 		.ascii	"\013GYK\350.\341\034\355\003\273\011sS\362\320\012\031"
 189      E82EE11C 
 189      ED03BB09 
 189      7353F2D0 
 189      0A19
 190 017c 64DE69F0 		.ascii	"d\336i\360\354P\023\211\241H\320\204:\\8\351e\273\205"
 190      EC501389 
 190      A148D084 
 190      3A5C38E9 
 190      65BB85
 191 018f F1A82644 		.ascii	"\361\250&D\222:F\023IoN\003,a\267g\327>\330\354\243"
 191      923A4613 
 191      496F4E03 
ARM GAS  /tmp/ccmuHrxB.s 			page 14


 191      2C61B767 
 191      D73ED8EC 
 192 01a4 47D4284F 		.ascii	"G\324(O\341b\270\313\334nd\303P~\331\247j^\266Ku>Rt"
 192      E162B8CB 
 192      DC6E64C3 
 192      507ED9A7 
 192      6A5EB64B 
 193 01bc 27B173C5 		.ascii	"'\261s\305i\274m\276\366WE\217D\326\303d\026\220-1r"
 193      69BC6DBE 
 193      F657458F 
 193      44D6C364 
 193      16902D31 
 194 01d1 2EBC19C0 		.ascii	".\274\031\300S\221\340\2510\\\016\340\340\202?\006\340"
 194      5391E0A9 
 194      305C0EE0 
 194      E0823F06 
 194      E0
 195 01e2 F41FC1E7 		.ascii	"\364\037\301\347\340\025\201\027\204/\250\241\3735\322"
 195      E0158117 
 195      842FA8A1 
 195      FB35D2
 196 01f1 E11A8A5F 		.ascii	"\341\032\212_#\345\357\272\201\212\275\240b&R+\231p"
 196      23E5EFBA 
 196      818ABDA0 
 196      6226522B 
 196      9970
 197 0203 99C428D8 		.ascii	"\231\304(\330\334\362\301\331H\340l\030\254\216\202"
 197      DCF2C1D9 
 197      48E06C18 
 197      AC8E82
 198 0212 9B013817 		.ascii	"\233\0018\027\011\234\013\203\223>\330}\204\305\342"
 198      099C0B83 
 198      933ED87D 
 198      84C5E2
 199 0221 07E07C24 		.ascii	"\007\340|$p>\014\326\006\301;\360\260\373\351\233\356"
 199      703E0CD6 
 199      06C13BF0 
 199      B0FBE99B 
 199      EE
 200 0232 9801EE43 		.ascii	"\230\001\356C\237\233\\l\220t\311\335\014\224\2319\345"
 200      9F9B5C6C 
 200      9074C9DD 
 200      0C949939 
 200      E5
 201 0243 1CE8F526 		.ascii	"\034\350\365&\366\347g\250w{g<\2133\212\224N\017\372"
 201      F6E767A8 
 201      777B673C 
 201      8B338A94 
 201      4E0FFA
 202 0256 54A160F8 		.ascii	"T\241`\370\277\345\252q{\261b\334Y\276\273R5\256\025"
 202      BFE5AA71 
 202      7BB162DC 
 202      59BEBB52 
 202      35AE15
 203 0269 672F4C19 		.ascii	"g/L\03133W\215\342\364\354\275\363Fu\345F\245r\253P"
 203      3333578D 
 203      E2F4ECBD 
ARM GAS  /tmp/ccmuHrxB.s 			page 15


 203      F34675E5 
 203      46A572AB 
 204 027e 82DF1D21 		.ascii	"\202\337\035!\027+"
 204      172B
 205              		.text
 206              		.section	.gnu.lto_.symbol_nodes.bb5ce2027af05553,"",%progbits
 207 0000 789C4DCA 		.ascii	"x\234M\312\271N\303P\020\205\3413\347\332\261\235}\353"
 207      B94EC350 
 207      1085E133 
 207      E7DAB19D 
 207      7DEB
 208 0012 F36C3CC9 		.ascii	"\363l<\3111\216\004\251PX\302\332A\005\217\221\224H"
 208      318E04A9 
 208      5058C2DA 
 208      41058F91 
 208      9448
 209 0024 94D448B4 		.ascii	"\224\324H\264\351\241@,\366\265\270w\232_\337\314\020"
 209      E9A1402C 
 209      F6B5B877 
 209      9A5FDFCC 
 209      10
 210 0035 C4B3C10F 		.ascii	"\304\263\301\017\177 `\375\002H\233\325\001K\223E<4"
 210      7F2060FD 
 210      02489BD5 
 210      014B9345 
 210      3C34
 211 0047 31626572 		.ascii	"1ber\021\037MI\304\017S\032\361\313\324\211\370d\312"
 211      111F4D49 
 211      C40F531A 
 211      F1CBD489 
 211      F864CA
 212 005a 227E9AF2 		.ascii	"\"~\232\362\210k\252h\371\2722\236R\335@\273\242z\236"
 212      886BAA68 
 212      F9BA329E 
 212      52DD40BB 
 212      A27A9E
 213 006d 65697649 		.ascii	"eivI\365\203\256\251A\320-5\014\272\241FA\033j\034t"
 213      F583AEA9 
 213      41D02D35 
 213      0CBAA146 
 213      411B6A1C 
 214 0082 414D82CE 		.ascii	"AM\202\316\251i\320\0315\013\272\243\346\377r\004\252"
 214      A969D019 
 214      350BBAA3 
 214      E6FF7204 
 214      AA
 215 0093 B76F73CE 		.ascii	"\267os\316|\023\266\355\343\241i\017\273\272i\342\367"
 215      7C13B6ED 
 215      E3A1690F 
 215      BBBA69E2 
 215      F7
 216 00a4 9D019675 		.ascii	"\235\001\226u\263Q\333\241\377\313\034\266u\363\314"
 216      B351DBA1 
 216      FFCB1CB6 
 216      75F3CC
 217 00b3 FF15337F 		.ascii	"\377\0253\177/\246\376^\244\250\216\366\013Wtp\3374"
 217      2FA6FE5E 
ARM GAS  /tmp/ccmuHrxB.s 			page 16


 217      A4A88EF6 
 217      0B577470 
 217      DF34
 218 00c5 C7B6E904 		.ascii	"\307\266\351\004\357M\307X\036\377\265;\307\356d\277"
 218      EF4DC758 
 218      1EFFB53B 
 218      C7EE64BF 
 219 00d5 C02F5998 		.ascii	"\300/Y\230\217\250"
 219      8FA8
 220              		.text
 221              		.section	.gnu.lto_.refs.bb5ce2027af05553,"",%progbits
 222 0000 789C6362 		.ascii	"x\234cb`b`d\200\002\000\000F\000\006"
 222      60626064 
 222      80020000 
 222      460006
 223              		.text
 224              		.section	.gnu.lto_.decls.bb5ce2027af05553,"",%progbits
 225 0000 789C9D99 		.ascii	"x\234\235\231{T\024\327\031\300\357\235\345\261\253"
 225      7B5414D7 
 225      19C0EF9D 
 225      E5B1AB
 226 000f 88064D0E 		.ascii	"\210\006M\016\351i+\366$mON\353*\230&\177\345\200\013"
 226      E9692BF6 
 226      246D4F4E 
 226      EB2A9826 
 226      7FE5800B 
 227 0023 2839A09C 		.ascii	"(9\240\234Y\314\361\244\177l\306e\224=]\026\335]\014"
 227      59CCF1A4 
 227      7F6CC665 
 227      943D5D16 
 227      DD5D0C
 228 0036 FE955134 		.ascii	"\376\225Q4\332\306\264\353\373Q\253\304$FS\022\015Q"
 228      DAC6B4EB 
 228      FB51ABC4 
 228      24465312 
 228      0D51
 229 0048 4B7CD0D5 		.ascii	"K|\320\325\252\241\250\024\011\242\342\243D-\030\265"
 229      AAA1A814 
 229      09A2E2A3 
 229      442D18B5 
 230 0058 1635F151 		.ascii	"\0265\361Q\323\320{\357<v\356\354\\\234\311\034\276"
 230      D3D07BEF 
 230      3C76EEEC 
 230      5C9CC91C 
 230      BE
 231 0069 6F6667EE 		.ascii	"ofg\356\367\373\276\373\335o\346\336\0318\300\201|\007"
 231      F7FBBEFB 
 231      DD6FE6DE 
 231      1938C081 
 231      7C07
 232 007b 0083682B 		.ascii	"\000\203h+\033\007\300\274T\0002\000\000/\201\304\366"
 232      1B07C0BC 
 232      54003200 
 232      002F81C4 
 232      F6
 233 008c 24927790 		.ascii	"$\222w\220lC\262\003I#\222\235H\232\220\354A\322\214"
 233      6C43B203 
ARM GAS  /tmp/ccmuHrxB.s 			page 17


 233      4923929D 
 233      489A90EC 
 233      41D28C
 234 009f 643F9216 		.ascii	"d?\222\026$\207\220\034Ar\014I+\2226$'\220\264#\351"
 234      2487901C 
 234      41720C49 
 234      2B923624 
 234      2790B423 
 235 00b4 40D289A4 		.ascii	"@\322\211\244\013I7H\336\260\017\344\036\234C\222\011"
 235      0B493748 
 235      DEB00FE4 
 235      1E9C4392 
 235      09
 236 00c5 E438BE44 		.ascii	"\3448\276D\322\247\\\347\2246\327Ll\267Y\260\335\306"
 236      D2A75CE7 
 236      9436D74C 
 236      6CB759B0 
 236      DDC6
 237 00d7 B0DDA15C 		.ascii	"\260\335\241\\\277\215d\253\256\375\016\305\237qkd\264"
 237      BF8D64AB 
 237      AEFD0EC5 
 237      9F716B64 
 237      B4
 238 00e8 6F547C18 		.ascii	"oT|\030\267\235&\355S\224\363\330\007\316\325\021\023"
 238      B79D26ED 
 238      5394F3D8 
 238      07CED511 
 238      13
 239 00f9 BB26869F 		.ascii	"\273&\206\237&\305\326\270\355a\264\307\347[M\33273"
 239      26C5D6B8 
 239      ED61B4C7 
 239      E75B4DDA 
 239      3733
 240 010b E2C2E7F1 		.ascii	"\342\302\347\361\230\265)}2n\373\031~\366+\266\306\015"
 240      98B5297D 
 240      326EFB19 
 240      7EF62BB6 
 240      C60D
 241 011d D78513C9 		.ascii	"\327\205\023\311\035\220\030\233t\235\375C$w\221@,P"
 241      1D90189B 
 241      749DFD43 
 241      24779140 
 241      2C50
 242 012f 6E8B6D70 		.ascii	"n\213mp\235t\202D\235a>\256\241v\023\037\270\356F\""
 242      9D748244 
 242      9D613EAE 
 242      A176131F 
 242      B8EE4622 
 243 0143 F929A47D 		.ascii	"\371)\244}TA\331/\366\3613t\034\200\262\2571P\356k-"
 243      5441D92F 
 243      F6F13374 
 243      1C80B2AF 
 243      3150EE6B 
 244 0158 946BE60C 		.ascii	"\224k\346\014\222aH^F\277\347!\031\201d$\222T$\243\221"
 244      9261485E 
 244      46BFE721 
 244      19816424 
ARM GAS  /tmp/ccmuHrxB.s 			page 18


 244      925424A3 
 245 016d 0CA26B8F 		.ascii	"\014\242k\217\2208\320\361\003\245\277\330\247Y\035"
 245      9038D0F1 
 245      03A5BFD8 
 245      A7591D
 246 017c 8F059BA5 		.ascii	"\217\005\233\245xG\357\222\276+\334\006)\276XB\267\226"
 246      7847EF92 
 246      BE2BDC06 
 246      29BE5842 
 246      B796
 247 018e 04739E02 		.ascii	"\004s\236\002k$\2645\274)I0*\300\227\236\0043\241\000"
 247      6B24B435 
 247      BC294930 
 247      2AC0979E 
 247      0433A100 
 248 01a2 335D2087 		.ascii	"3] \207\034d\270H<\000\010p+|J9\232\341P\263\353\206"
 248      1C64B848 
 248      3C000870 
 248      2B7C4A39 
 248      9AE150B3 
 249 01b8 E039B003 		.ascii	"\3409\260\003\331\307$i\353\217M\234\242\256\203\367"
 249      D9C72469 
 249      EB8F4D9C 
 249      A2AE83F7 
 250 01c8 B10369BB 		.ascii	"\261\003i\273\344 x\014x\007\216\3257\021\340\273\220"
 250      E420780C 
 250      78078ED5 
 250      3711E0BB 
 250      90
 251 01d9 4B0E351E 		.ascii	"K\0165\036\373gFla\357\340\340\226\206Q\262{\364P\200"
 251      FB67466C 
 251      61EFE0E0 
 251      968651B2 
 251      7BF45080 
 252 01ed A8F57BF0 		.ascii	"\250\365{\360\271!\361\333\214\370\017L\361-\311\370"
 252      B921F1DB 
 252      8CF80F4C 
 252      F12DC9F8 
 253 01fd 522BF81D 		.ascii	"R+\370\035F\374\207\246\370\257\223\361>+\370F#\376"
 253      46FC87A6 
 253      F8AF93F1 
 253      3E2BF846 
 253      23FE
 254 020f 23337CEF 		.ascii	"#3|\357\331\245G\323t\343\250\272X\007\255\370\330i"
 254      D9A547D3 
 254      74E3A8BA 
 254      5807ADF8 
 254      D869
 255 0221 F4B1CBD4 		.ascii	"\364\261\313\324\307\256\343G\262M|\034\267\344\243"
 255      C7AEE347 
 255      B24D7C1C 
 255      B7E4A3
 256 0230 C9E8E353 		.ascii	"\311\350\343S\3234m\356k\205\322J\351\333\301\301\372"
 256      D3346DEE 
 256      6B85D24A 
 256      E9DBC1C1 
 256      FA
ARM GAS  /tmp/ccmuHrxB.s 			page 19


 257 0241 C51C505D 		.ascii	"\305\034P]\\\262\344b\217\321\305^F\252\316\230\245"
 257      5CB2E462 
 257      8FD1C55E 
 257      46AACE98 
 257      A5
 258 0252 EA8E251F 		.ascii	"\352\216%\037\315F\037\237\231\247\352\255v\263T-\341"
 258      CD461F9F 
 258      99A7EAAD 
 258      76B3542D 
 258      E1
 259 0263 ACF8D86F 		.ascii	"\254\370\330o\364q \331GC\274\367\233\316\377\214N\370"
 259      F47120D9 
 259      4743BCF7 
 259      9BCEFF8C 
 259      4EF8
 260 0275 D07275D2 		.ascii	"\320ru\322\222\217\026\243\217\277\232\371\210\377e"
 260      928F16A3 
 260      8FBF9AF9 
 260      88FF65
 261 0284 E5717538 		.ascii	"\345qu8R4\017\335\226<\0342z8\234\354\2417\326\273f"
 261      52340FDD 
 261      963C1C32 
 261      7A389CEC 
 261      A137D6BB 
 262 0299 DDC57AB8 		.ascii	"\335\305z\270\242\276\241U\032\030\034\034\251\371X"
 262      A2BEA155 
 262      1A181C1C 
 262      A9F958
 263 02a8 EA30FA90 		.ascii	"\3520\372\220!GM!\261\363]p\203t\030\247\342\015\015"
 263      21474D21 
 263      B1F35D70 
 263      837418A7 
 263      E20D0D
 264 02bb 719481F8 		.ascii	"q\224\201\370\334\024qv\351\205\224$\304\025\006\342"
 264      DC147176 
 264      E9859424 
 264      C41506E2 
 265 02cb EFE651FC 		.ascii	"\357\346Q\374\361tr\024\367\030\210\343\246\210\325"
 265      F1747214 
 265      F71888E3 
 265      A688D5
 266 02da 672E3A92 		.ascii	"g.:\222\020\253R\314\021'M\021W\357\267\301ed\310\034"
 266      10AB52CC 
 266      11274D11 
 266      57EFB7C1 
 266      6564C81C 
 267 02ee 1AE16306 		.ascii	"\032\341c\006\341\037\214 .%\007q\210\2018e\206\210"
 267      E11F8C20 
 267      2E250771 
 267      88813865 
 267      8688
 268 0300 3F685F2E 		.ascii	"?h_.A\362\274\033\253U\015\003\360\005cD\333\223sy\203"
 268      41F2BC1B 
 268      AB550D03 
 268      F0056344 
 268      DB937379 
 269 0315 81386D8A 		.ascii	"\2018m\212\370\256\177\340i\015a}b;\243Ll\0162}\002"
ARM GAS  /tmp/ccmuHrxB.s 			page 20


 269      F8AE7FE0 
 269      690D617D 
 269      623BA34C 
 269      6C0E327D 
 270 032a 17582649 		.ascii	"\027X&I\213\260\341\324V4g\233Y=\013\336CS^\357\301"
 270      8BB0E1D4 
 270      5634679B 
 270      593D0BDE 
 270      43535EEF 
 271 033f 1B1DD98D 		.ascii	"\033\035\331\215\222\204\036\357\347\240\013\031\237"
 271      92841EEF 
 271      E7A00B19 
 271      9F
 272 034c 48A5A3B5 		.ascii	"H\245\243\265N:\177+\276\016\326\243H\005x\201\240\352"
 272      4E3A7F2B 
 272      BE0ED6A3 
 272      48057881 
 272      A0EA
 273 035e D3689400 		.ascii	"\323h\224\000\323]t\012\320o\265\001\346\221\313\312"
 273      D35D740A 
 273      D06FB501 
 273      E691CBCA 
 274 036e 015E358F 		.ascii	"\001^5\217\004v\233+\335\227;\003\364\363<\300S\375"
 274      04769B2B 
 274      DD973B03 
 274      F4F33CC0 
 274      53FD
 275 0380 EFD3CC87 		.ascii	"\357\323\314\207\242\227\036\212'@\214\244=\177}\246"
 275      A2971E8A 
 275      27408CA4 
 275      3D7F7DA6 
 276 0390 D2FDDEF7 		.ascii	"\322\375\336\367\245\354l\255\367N\265\367P\355=^;p"
 276      A5EC6CAD 
 276      F74EB5F7 
 276      50ED3D5E 
 276      3B70
 277 03a2 02BC4CFA 		.ascii	"\002\274L\372\275%\015\002\323Mn\000\224\250\345c\365"
 277      BD250D02 
 277      D34D6E00 
 277      94A8E563 
 277      F5
 278 03b3 68106AF8 		.ascii	"h\020j\370Q*\236S\254\276\204O$\306BR\306\202\264`\225"
 278      512A9E53 
 278      ACBE844F 
 278      24C64252 
 278      C682B460 
 279 03c8 C3BF747E 		.ascii	"\303\277t~2\\\211\00350\245\2079\3533e\357\012\347E"
 279      325C8903 
 279      3530A587 
 279      39EB3365 
 279      EF0AE745 
 280 03dc B55DBAC2 		.ascii	"\265]\272\302\351\263\355\271\237\3419M\361\254L5\033"
 280      E9B3EDB9 
 280      9FE1394D 
 280      F1AC4C35 
 280      1B
 281 03ed EE762C87 		.ascii	"\356v,\207+v\276)\341\333\355\215-\361X\212\365Z\377"
ARM GAS  /tmp/ccmuHrxB.s 			page 21


 281      2B76BE29 
 281      E1DBED8D 
 281      2DF1588A 
 281      F55AFF
 282 0400 8AAE7579 		.ascii	"\212\256uy\260\015#\335E\2154i\311\201\313\352\300<"
 282      B00D23DD 
 282      458D3469 
 282      C981CBEA 
 282      C03C
 283 0412 03DE95D0 		.ascii	"\003\336\225\320\004q\352XF\014\252\205?@,\256\241\347"
 283      0471EA58 
 283      460CAA85 
 283      3F402CAE 
 283      A1E7
 284 0424 BF995FAD 		.ascii	"\277\231_\255\242\224I\343\356\302\362lm\322\270f\234"
 284      A29449E3 
 284      EEC2F26C 
 284      6DD2B866 
 284      9C
 285 0435 346ED0F5 		.ascii	"4n\320\3654\034\374.q\017\311\217\005V\337n\303\341"
 285      341CFC2E 
 285      710FC98F 
 285      0556DF6E 
 285      C3E1
 286 0447 A6565960 		.ascii	"\246VY`\005\0310\335=(\245\251\306\257\001\355&\274"
 286      051930DD 
 286      3D28A5A9 
 286      C6AF01ED 
 286      26BC
 287 0459 787F2024 		.ascii	"x\177 $\337\203wa\026\352Uc:]\361\217\345\340 \356!"
 287      DF837761 
 287      16EA5563 
 287      3A5DF18F 
 287      E5E020EE 
 288 046e 53D9482E 		.ascii	"S\331H.\356\370\252\363\031R\212|\036\230\334@\3126"
 288      EEF8AAF3 
 288      19528A7C 
 288      1E98DC40 
 288      CA36
 289 0480 0E34488B 		.ascii	"\0164H\213\353\343k\316ozZj8\014I\315\324\017\371\344"
 289      EBE36BCE 
 289      6F7A5A6A 
 289      380C49CD 
 289      D40FF9E4 
 290 0494 10600F7C 		.ascii	"\020`\017|\326\322\215\315\201f\322\023\034\202\031"
 290      D6D28DCD 
 290      8166D213 
 290      1C8219
 291 04a3 492B37B5 		.ascii	"I+7\265\3662]\206\260\326\236\317\210\011\002|H\006"
 291      F6325D86 
 291      B0D69ECF 
 291      8809027C 
 291      4806
 292 04b5 FB806D58 		.ascii	"\373\200mX\016\005[\257\207\305\255\300\234\354\310"
 292      0E055BAF 
 292      87C5ADC0 
 292      9CECC8
ARM GAS  /tmp/ccmuHrxB.s 			page 22


 293 04c4 36EA6147 		.ascii	"6\352aGm\303\350\3106\351amV`\243\330\221m\326\303N"
 293      6DC3E8C8 
 293      36E9616D 
 293      5660A3D8 
 293      916DD6C3 
 294 04d9 DA86D191 		.ascii	"\332\206\321\221\355\322\303NY\201e\263#k\322\303\316"
 294      EDD2C34E 
 294      598165B3 
 294      236BD2C3 
 294      CE
 295 04ea D886D191 		.ascii	"\330\206\321\221\355\326\303.Z\201\345\260#\333\253"
 295      EDD6C32E 
 295      5A81E5B0 
 295      23DBAB
 296 04f9 875DB60D 		.ascii	"\207]\266\015\243#k\326\303\372\254\300~\316\216l\237"
 296      A3236BD6 
 296      C3FAACC0 
 296      7ECE8E6C 
 296      9F
 297 050a 1E76DD36 		.ascii	"\036v\3356\214\216\354\200\036v\313\012l\002+\262\205"
 297      8C8EEC80 
 297      1E76CB0A 
 297      6C022BB2 
 297      85
 298 051b F1965FC7 		.ascii	"\361\226_\307\004uJ\302O\310\207\211)\011\275#P\245"
 298      04754AC2 
 298      4FC88789 
 298      2909BD23 
 298      50A5
 299 052d A56F768E 		.ascii	"\245ov\216\335L\200k8\273S\327Z\316|\352J\314+\372V"
 299      DD4C806B 
 299      38BB53D7 
 299      5ACE7CEA 
 299      4ACC2BFA 
 300 0542 F8E5CBD8 		.ascii	"\370\345\313\330m:\012\263~\323I\354\320'\361\236\225"
 300      6D3A0AB3 
 300      7ED349EC 
 300      D027F19E 
 300      95
 301 0553 24E6B361 		.ascii	"$\346\263a\235z\330#+\260\251\354Z\351\322\303\006m"
 301      9D7AD823 
 301      2BB0A9EC 
 301      5AE9D2C3 
 301      066D
 302 0565 C3E8C8BA 		.ascii	"\303\350\310\272\365\260\305N\013\260rvdg\365\260\245"
 302      F5B0C54E 
 302      0BB07276 
 302      6467F5B0 
 302      A5
 303 0576 B661FAC8 		.ascii	"\266a\372\310\026\306{\022\205\327\220o\250\274|\372"
 303      16C67B12 
 303      85D7906F 
 303      A8BC7CFA 
 304 0586 694B353B 		.ascii	"iK5;\307l\206\3461\245\360\022\2530\343O\016\274m\214"
 304      C76C86E6 
 304      31A5F012 
 304      AB30E34F 
ARM GAS  /tmp/ccmuHrxB.s 			page 23


 304      0EBC6D8C 
 305 059a 9BA22887 		.ascii	"\233\242(\2073M\222`\266\351'l\001\336'3\352\0038\016"
 305      334D9260 
 305      B6E9276C 
 305      01DE2733 
 305      EA03380E 
 306 05ae E94744FF 		.ascii	"\351GD\377\217\350A\242\027rX\327\023\275\204\350\245"
 306      8FE841A2 
 306      177258D7 
 306      13BD84E8 
 306      A5
 307 05bf 44FF96E8 		.ascii	"D\377\226\350\267\210~\233\350?\020\275\202\350UD\257"
 307      B7887E9B 
 307      E83F10BD 
 307      82E85544 
 307      AF
 308 05d0 277A23D1 		.ascii	"'z#\321\233\210\336Lt\003\321[\221\3266\326-v\307\372"
 308      9B88DE4C 
 308      7403D15B 
 308      91D636D6 
 308      2D76C7FA 
 309 05e4 F226AEAD 		.ascii	"\362&\256\255\262\227i\313\354X\357\351\255\017\267"
 309      B29769CB 
 309      EC58EFE9 
 309      AD0FB7
 310 05f3 C34FC8FB 		.ascii	"\303O\310\373\312\007\034^\340|\356|\354\002\307@\""
 310      CA071C5E 
 310      E07CEE7C 
 310      EC02C740 
 310      22
 311 0604 5FBB38C3 		.ascii	"_\2738\303\012\347O\375\255P\222\234\362\225\307\257"
 311      0AE74FFD 
 311      AD50929C 
 311      F295C7AF 
 312 0614 713EE96F 		.ascii	"q>\351o%\037 \035j!~A\302\300\306\337ou\322\204\375"
 312      251F201D 
 312      6A217E41 
 312      C2C0C6DF 
 312      6F75D284 
 313 0629 AFCC5071 		.ascii	"\257\314Pq\335\266q9\024n7\215\273d\0057\304\012e/\215"
 313      DDB67139 
 313      146E378D 
 313      BB640537 
 313      C40A652F 
 314 063e BB621B47 		.ascii	"\273b\033GG\327L\343\372\255\340\206X\245\354\243q\003"
 314      47D74CE3 
 314      FAADE086 
 314      58A5ECA3 
 314      7103
 315 0650 B6717474 		.ascii	"\266qtt\007h\334C+8\326JEZ\024oQq\362k\306\"\227]\034"
 315      0768DC43 
 315      2B38D64A 
 315      455A146F 
 315      5171F26B 
 316 0669 1D5D071D 		.ascii	"\035]\007\035\335r+\270\034v\356:i\334\032\3338]t\350"
 316      DD722BB8 
 316      1C76EE3A 
ARM GAS  /tmp/ccmuHrxB.s 			page 24


 316      69DC1ADB 
 316      385D74E8 
 317 067d 36EAEA77 		.ascii	"6\352\352w\022\032~\006r`\263\221f\366\224\033b\301"
 317      121A7E06 
 317      7260B391 
 317      66F6941B 
 317      62C1
 318 068f D24D07B7 		.ascii	"\322M\007\267\335Jp\314U\006\2329h\334.\3338z$zh\\\263"
 318      DD4A70CC 
 318      55069A39 
 318      68DC2EDB 
 318      387A247A 
 319 06a6 15DC8BEC 		.ascii	"\025\334\213\354:\271@\327I\3346\216\216\356\022\035"
 319      3AB940D7 
 319      49DC368E 
 319      8EEE121D 
 320 06b6 5D9B155C 		.ascii	"]\233\025\\>;w\0034\256\3236\216\256\223;T\235\364X"
 320      3E3B7703 
 320      34AED336 
 320      8EAE933B 
 320      549DF458 
 321 06ca A9932116 		.ascii	"\251\223!\026+_\323\301]\265\022\334\020+\214{4\356"
 321      2B5FD3C1 
 321      5DB512DC 
 321      102B8C7B 
 321      34EE
 322 06dc 966D1C3D 		.ascii	"\226m\034=\022\017h\334\003+8\263\251_\251\223\377\032"
 322      120F68DC 
 322      032B38B3 
 322      A95FA993 
 322      FF1A
 323 06ee 9E27C3EC 		.ascii	"\236'\303\354\342\350\350\2765<O\254\340^c\347\356;"
 323      E2E8E8BE 
 323      353C4FAC 
 323      E05E63E7 
 323      EE3B
 324 0700 1AB7D636 		.ascii	"\032\267\3266\216\256\223\330u}\2354\030ifuR\305\016"
 324      8EAE93D8 
 324      757D9D34 
 324      18696675 
 324      52C50E
 325 0713 6EE5752A 		.ascii	"n\345u*\270\017\255\0047\227\215[M\343v\332\306\321"
 325      B80FAD04 
 325      37978D5B 
 325      4DE376DA 
 325      C6D1
 326 0725 7D5D4BF5 		.ascii	"}]K\365\365S+}\255c\007\267\236\016\356\240\225\340"
 326      F5532B7D 
 326      AD6307B7 
 326      9E0EEEA0 
 326      95E0
 327 0737 24C8E66D 		.ascii	"$\310\346m\244y\177\263\317\313\001\314M\277 \023\340"
 327      A4797FB3 
 327      CFCB01CC 
 327      4DBF2013 
 327      E0
 328 0748 9F39BC82 		.ascii	"\2379\274\202m$\253\312\217\211\336Et\023\321\273\211"
ARM GAS  /tmp/ccmuHrxB.s 			page 25


 328      6D24ABCA 
 328      8F89DE45 
 328      7413D1BB 
 328      89
 329 0759 DE4B7433 		.ascii	"\336Kt3\321\373\210>@t\013\321q\242\017\023}\204\350"
 329      D1FB883E 
 329      40740BD1 
 329      71A20F13 
 329      7D84E8
 330 076c 6344B712 		.ascii	"cD\267\022\335F\364\011\242\333\211\356 \272\223\350"
 330      DD46F409 
 330      A2DB89EE 
 330      20BA93E8 
 331 077c 2EA2BB89 		.ascii	".\242\273\211>Kt\017\321\027\210\276Dt/\321\227\211"
 331      3E4B740F 
 331      D11788BE 
 331      44742FD1 
 331      9789
 332 078e BE4A749F 		.ascii	"\276Jt\237\225\325\3576\316\372\307=\352MR^\374\306"
 332      95D5EF36 
 332      CEFAC73D 
 332      EA4D525E 
 332      FCC6
 333 07a0 4FAFC5FF 		.ascii	"O\257\305\377\224\373\212\254{\333\207=\376\303^\322"
 333      94FB8AAC 
 333      7BDB873D 
 333      FEC35ED2 
 334 07b0 3BF14DE3 		.ascii	";\361M\343\262\367\263n\362a\357\246\245E\357\301\356"
 334      B2F7B36E 
 334      F261EFA6 
 334      A545EFC1 
 334      EE
 335 07c1 D5E4C39E 		.ascii	"\325\344\303\236\366\245\204\204p\363{\257y[\272"
 335      F6A58484 
 335      70F37BAF 
 335      795BBA
 336 07d0 B5373901 		.ascii	"\26579\001~\304q6a9\024\254\243[\367Zx\325JdC\254w;"
 336      7EC47136 
 336      613914AC 
 336      A35BF75A 
 336      78D54A64 
 337 07e8 F5B01BB6 		.ascii	"\365\260\033\266aCV\372M]\245\377\233T\372-RA\003D\337"
 337      614356FA 
 337      4D5DA5FF 
 337      9B54FA2D 
 337      52410344 
 338 07fd 26FAAE95 		.ascii	"&\372\256\225j\272\306\250&\371\237A,\253o\022V\340"
 338      6ABAC6A8 
 338      26F99F41 
 338      2CAB6F12 
 338      56E0
 339 080f 17E3C7BB 		.ascii	"\027\343\307\273\265\277\232\210;\034u\317\255\011G"
 339      B5BF9A88 
 339      3B1C75CF 
 339      AD0947
 340 081e 23EE02BE 		.ascii	"#\356\002\276\314SV\347\366W\371k\302\242o\376\013\325"
 340      CC5356E7 
ARM GAS  /tmp/ccmuHrxB.s 			page 26


 340      F657F96B 
 340      C2A26FFE 
 340      0BD5
 341 0830 E3AB800B 		.ascii	"\343\253\200\013_\362\005k\374\277I\2332mF\216\007\014"
 341      5FF2056B 
 341      FCBF499B 
 341      326D468E 
 341      070C
 342 0842 27276A43 		.ascii	"''jC\370T\226v\3217;\\S\355\013D\302ct\227\265\223?"
 342      F8549676 
 342      D1373B5C 
 342      53ED0B44 
 342      C2637497 
 343 0859 49F61808 		.ascii	"I\366\030\010\371\203\265\225\"r\026Y\020A~F\371\253"
 343      F983B595 
 343      22721659 
 343      10417E46 
 343      F9AB
 344 086b BC0B22A5 		.ascii	"\274\013\"\245\310\252\030\031\225xy\243M\225\020D;"
 344      C8AA1819 
 344      957879A3 
 344      4D951044 
 344      3B
 345 087c A49031DE 		.ascii	"\244\2201\336#\233,\274\247\255F\343S\323#\025\201j"
 345      239B2CBC 
 345      A7AD46E3 
 345      53D32315 
 345      816A
 346 088e 313C5508 		.ascii	"1<U\010U\006\305pI\026A\317 !)\315\306(\226\324\311"
 346      5506C570 
 346      491641CF 
 346      202129CD 
 346      C62896D4 
 347 08a3 5C138F72 		.ascii	"\\\023\217rb\274\025ey\271\356\322\322BwEI\331\374\211"
 347      62BC1565 
 347      79B9EED2 
 347      D2427745 
 347      49D9FC89 
 348 08b7 EE08EA74 		.ascii	"\356\010\352t\260r\274\0378_\021\375\321\232\360\344"
 348      B072BC1F 
 348      385F11FD 
 348      D19AF0E4 
 349 08c7 09C3E553 		.ascii	"\011\303\345S\276@(\020}f\250\336V\212\263j\347\240"
 349      BE402810 
 349      7D66A8DE 
 349      568AB36A 
 349      E7A0
 350 08d9 D8B37D95 		.ascii	"\330\263}\225\263\346\370\374U\"J\023\225\253!\255#"
 350      B3E6F8FC 
 350      55224A13 
 350      95AB21AD 
 350      23
 351 08ea 51218AB3 		.ascii	"Q!\212\263\365#\0379\302\032e\273Z\024\"\265h\304\374"
 351      F5231F39 
 351      C21A65BB 
 351      5A1422B5 
 351      68C4FC
ARM GAS  /tmp/ccmuHrxB.s 			page 27


 352 08fd E1401423 		.ascii	"\341@\024#\344\016S9\370\241fP37\251\375\017t\261\030"
 352      E40E5339 
 352      F8A16650 
 352      3337A9FD 
 352      0F74B118 
 353 0911 462ECB47 		.ascii	"F.\313G\3063\020\236\347\023\347\006\2025sj\3051\372"
 353      C633109E 
 353      E713E706 
 353      8235736A 
 353      C531FA
 354 0924 C84561BE 		.ascii	"\310Ea\276H\206]wR\014E\3050>9Zq\212\342\017#\227\""
 354      48865D77 
 354      520C45C5 
 354      303E395A 
 354      718AE20F 
 355 093b C68C6726 		.ascii	"\306\214g&\331_S]]\023R\21304?\340\307\035u\327F\302"
 355      D95F535D 
 355      5D13528B 
 355      30343FE0 
 355      C71D75D7 
 356 0951 5A0242E2 		.ascii	"Z\002B\342\353\301\300,\224\376\312@(\212\256:k\321"
 356      EBC1C02C 
 356      94FECA40 
 356      288AAE3A 
 356      6BD1
 357 0963 3E2FD717 		.ascii	">/\327\027\375\245Y\263j\301_\025\010\211n_\2458[\250"
 357      FDA559B3 
 357      6AC15F15 
 357      08896E5F 
 357      A5385BA8 
 358 0977 0D467DD1 		.ascii	"\015F}\321\005sE\234\275a>\237j8\012\373)\012\011\263"
 358      0573459C 
 358      BD613E9F 
 358      6A380AFB 
 358      290A09B3 
 359 098b 82A23C94 		.ascii	"\202\242<\224)\376*!\3546\004)\326E\335\2362o\21171"
 359      29FE2A21 
 359      EC360429 
 359      D645DD9E 
 359      326F8937 
 360 09a0 14F80EF1 		.ascii	"\024\370\016\361W\027\327\206p\224#|\276\210\030\365"
 360      5717D786 
 360      7094237C 
 360      BE8818F5 
 361 09b0 4D2EF016 		.ascii	"M.\360\026\225\363%#\204\340\353\302\002\334\355 r\237"
 361      95F32523 
 361      84E0EBC2 
 361      02DCED20 
 361      729F
 362 09c2 3A5F08D6 		.ascii	":_\010\326\212\317\333\250\255j\034X\000\337|\303\265"
 362      8ACFDBA8 
 362      AD6A1C58 
 362      00DF7CC3 
 362      B5
 363 09d3 1FBEA8C3 		.ascii	"\037\276\250\303\303OD\222\233\342-\363\360)\205%E<"
 363      C34F4492 
 363      9BE22DF3 
ARM GAS  /tmp/ccmuHrxB.s 			page 28


 363      F0298525 
 363      453C
 364 09e5 E7E51D45 		.ascii	"\347\345\035ES\370T\217\247\214\237Htn\212\307S\304"
 364      53F8548F 
 364      A78C9F48 
 364      746E8AC7 
 364      53C4
 365 09f7 3B3CD32A 		.ascii	";<\323*\034\345^\217\243\200\347\035\274\007\375F\006"
 365      1CE55E8F 
 365      A380E71D 
 365      BC07FD46 
 365      06
 366 0a08 930B2B78 		.ascii	"\223\013+xG!\266,+\340\271\351\262U\036j?\223\237\304"
 366      4721B62C 
 366      2BE0B9E9 
 366      B2551E6A 
 366      3F939FC4 
 367 0a1c ECADB742 		.ascii	"\354\255\267B\016\257xR]\235\034\330\354I\023^\250\253"
 367      0EAF7852 
 367      5D9D1CD8 
 367      EC49135E 
 367      A8AB
 368 0a2e C3A1F11E 		.ascii	"\303\241\361\036\217\257\002%\264P\234\315y\370\364"
 368      8FAF0225 
 368      B4509CCD 
 368      79F8F4
 369 0a3d F2D2524F 		.ascii	"\362\322RO\361\024>\005+\207\247\204w\026L\235<\221"
 369      F1143E05 
 369      2B87A784 
 369      77164C9D 
 369      3C91
 370 0a4f F7569083 		.ascii	"\367V\220\203\\\365 \017\037\270\370\"o\021\377JQ\341"
 370      5CF5200F 
 370      1FB8F822 
 370      6F11FF4A 
 370      51E1
 371 0a61 046741B9 		.ascii	"\004gA\271\332\250\\n\244]\233\230\216\001E\323x\274"
 371      DAA85C6E 
 371      A45D9B98 
 371      8E0145D3 
 371      78BC
 372 0a73 CF55F679 		.ascii	"\317U\366yh\257\265\310M\307\326\344J9i\241]\311sa\333"
 372      68AFB5C8 
 372      4DC7D6E4 
 372      4A3969A1 
 372      5DC97361 
 373 0a88 D2727C0E 		.ascii	"\322r|\016[kGy\362\221\332n\222\013\023\224\253\345"
 373      5B6B4779 
 373      F291DA6E 
 373      920B1394 
 373      ABE5
 374 0a9a 6A3BF5EA 		.ascii	"j;\365\352\363(g8y\336\304\251_\245z\275\236)\3740\324"
 374      F3286738 
 374      79DEC4A9 
 374      5FA57ABD 
 374      9E29FC30 
 375 0aaf D9925C2F 		.ascii	"\331\222\\/\356jf\341\344)e\236\031j&\322J\012=\323"
ARM GAS  /tmp/ccmuHrxB.s 			page 29


 375      EE6A66E1 
 375      E429659E 
 375      196A26D2 
 375      4A0A3DD3 
 376 0ac3 0B8BD230 		.ascii	"\013\213\3220\267\370U\274\313-~\365\377\177\367-d"
 376      B7F855BC 
 376      CB2D7EF5 
 376      FF7FF72D 
 376      64
 377              		.text
 378              		.section	.gnu.lto_.symtab.bb5ce2027af05553,"",%progbits
 379 0000 56656374 		.ascii	"VectorB0\000\000\000\000\000\000\000\000\000\000\000"
 379      6F724230 
 379      00000000 
 379      00000000 
 379      000000
 380 0013 00BE0000 		.ascii	"\000\276\000\000\000st_lld_init\000\000\000\000\000"
 380      0073745F 
 380      6C6C645F 
 380      696E6974 
 380      00000000 
 381 0028 00000000 		.ascii	"\000\000\000\000\000\000\000\301\000\000\000_dbg_ch"
 381      000000C1 
 381      0000005F 
 381      6462675F 
 381      6368
 382 003a 65636B5F 		.ascii	"eck_lock_from_isr\000\000\002\000\000\000\000\000\000"
 382      6C6F636B 
 382      5F66726F 
 382      6D5F6973 
 382      72000002 
 383 0054 000000C4 		.ascii	"\000\000\000\304\000\000\000_stats_start_measure_cr"
 383      0000005F 
 383      73746174 
 383      735F7374 
 383      6172745F 
 384 0072 69745F69 		.ascii	"it_isr\000\000\002\000\000\000\000\000\000\000\000\000"
 384      73720000 
 384      02000000 
 384      00000000 
 384      0000
 385 0084 C6000000 		.ascii	"\306\000\000\000chSysTimerHandlerI\000\000\002\000\000"
 385      63685379 
 385      7354696D 
 385      65724861 
 385      6E646C65 
 386 009f 00000000 		.ascii	"\000\000\000\000\000\000\000\310\000\000\000_stats_"
 386      000000C8 
 386      0000005F 
 386      73746174 
 386      735F
 387 00b1 73746F70 		.ascii	"stop_measure_crit_isr\000\000\002\000\000\000\000\000"
 387      5F6D6561 
 387      73757265 
 387      5F637269 
 387      745F6973 
 388 00ce 00000000 		.ascii	"\000\000\000\000\312\000\000\000_dbg_check_unlock_f"
ARM GAS  /tmp/ccmuHrxB.s 			page 30


 388      CA000000 
 388      5F646267 
 388      5F636865 
 388      636B5F75 
 389 00e9 726F6D5F 		.ascii	"rom_isr\000\000\002\000\000\000\000\000\000\000\000"
 389      69737200 
 389      00020000 
 389      00000000 
 389      0000
 390 00fb 00CC0000 		.ascii	"\000\314\000\000\000_port_irq_epilogue\000\000\002\000"
 390      005F706F 
 390      72745F69 
 390      72715F65 
 390      70696C6F 
 391 0116 00000000 		.ascii	"\000\000\000\000\000\000\000\000\316\000\000\000_db"
 391      00000000 
 391      CE000000 
 391      5F6462
 392 0125 675F6368 		.ascii	"g_check_leave_isr\000\000\002\000\000\000\000\000\000"
 392      65636B5F 
 392      6C656176 
 392      655F6973 
 392      72000002 
 393 013f 000000D0 		.ascii	"\000\000\000\320\000\000\000_dbg_check_enter_isr\000"
 393      0000005F 
 393      6462675F 
 393      63686563 
 393      6B5F656E 
 394 015b 00020000 		.ascii	"\000\002\000\000\000\000\000\000\000\000\000\322\000"
 394      00000000 
 394      000000D2 
 394      00
 395 0168 00005F73 		.ascii	"\000\000_stats_increase_irq\000\000\002\000\000\000"
 395      74617473 
 395      5F696E63 
 395      72656173 
 395      655F6972 
 396 0183 00000000 		.ascii	"\000\000\000\000\000\000\324\000\000\000nvicEnableV"
 396      0000D400 
 396      00006E76 
 396      6963456E 
 396      61626C65 
 397 0198 6563746F 		.ascii	"ector\000\000\002\000\000\000\000\000\000\000\000\000"
 397      72000002 
 397      00000000 
 397      00000000 
 397      00
 398 01a9 D6000000 		.ascii	"\326\000\000\000"
 399              		.text
 400              		.section	.gnu.lto_.opts,"",%progbits
 401 0000 272D6D63 		.ascii	"'-mcpu=cortex-m4' '-mno-thumb-interwork' '-mthumb' "
 401      70753D63 
 401      6F727465 
 401      782D6D34 
 401      2720272D 
 402 0033 272D6767 		.ascii	"'-ggdb' '-O0' '-fomit-frame-pointer' '-falign-funct"
 402      64622720 
ARM GAS  /tmp/ccmuHrxB.s 			page 31


 402      272D4F30 
 402      2720272D 
 402      666F6D69 
 403 0066 696F6E73 		.ascii	"ions=16' '-ffunction-sections' '-fdata-sections' '-"
 403      3D313627 
 403      20272D66 
 403      66756E63 
 403      74696F6E 
 404 0099 666E6F2D 		.ascii	"fno-common' '-flto'\000"
 404      636F6D6D 
 404      6F6E2720 
 404      272D666C 
 404      746F2700 
 405              		.text
 406              		.cfi_sections	.debug_frame
 407              		.section	.text.port_lock,"ax",%progbits
 408              		.align	2
 409              		.p2align 4,,15
 410              		.thumb
 411              		.thumb_func
 412              		.type	port_lock, %function
 413              	port_lock:
 414              	.LFB127:
 415              		.file 1 "../../../../os/rt/ports/ARMCMx/chcore_v7m.h"
 416              		.loc 1 456 0
 417              		.cfi_startproc
 418              		@ args = 0, pretend = 0, frame = 8
 419              		@ frame_needed = 0, uses_anonymous_args = 0
 420              		@ link register save eliminated.
 421 0000 82B0     		sub	sp, sp, #8
 422              		.cfi_def_cfa_offset 8
 423 0002 2023     		movs	r3, #32
 424 0004 0193     		str	r3, [sp, #4]
 425              	.LBB6:
 426              	.LBB7:
 427              		.file 2 "../../../../os/ext/CMSIS/include/core_cmFunc.h"
 428              		.loc 2 548 0
 429 0006 019B     		ldr	r3, [sp, #4]
 430              	@ 548 "../../../../os/ext/CMSIS/include/core_cmFunc.h" 1
 431 0008 83F31188 		MSR basepri, r3
 432              	@ 0 "" 2
 433              		.thumb
 434              	.LBE7:
 435              	.LBE6:
 436              		.loc 1 473 0
 437 000c 02B0     		add	sp, sp, #8
 438              		@ sp needed
 439 000e 7047     		bx	lr
 440              		.cfi_endproc
 441              	.LFE127:
 442              		.size	port_lock, .-port_lock
 443              		.section	.text.port_unlock,"ax",%progbits
 444              		.align	2
 445              		.p2align 4,,15
 446              		.thumb
 447              		.thumb_func
 448              		.type	port_unlock, %function
ARM GAS  /tmp/ccmuHrxB.s 			page 32


 449              	port_unlock:
 450              	.LFB128:
 451              		.loc 1 480 0
 452              		.cfi_startproc
 453              		@ args = 0, pretend = 0, frame = 8
 454              		@ frame_needed = 0, uses_anonymous_args = 0
 455              		@ link register save eliminated.
 456 0000 82B0     		sub	sp, sp, #8
 457              		.cfi_def_cfa_offset 8
 458 0002 0023     		movs	r3, #0
 459 0004 0193     		str	r3, [sp, #4]
 460              	.LBB8:
 461              	.LBB9:
 462              		.loc 2 548 0
 463 0006 019B     		ldr	r3, [sp, #4]
 464              	@ 548 "../../../../os/ext/CMSIS/include/core_cmFunc.h" 1
 465 0008 83F31188 		MSR basepri, r3
 466              	@ 0 "" 2
 467              		.thumb
 468              	.LBE9:
 469              	.LBE8:
 470              		.loc 1 487 0
 471 000c 02B0     		add	sp, sp, #8
 472              		@ sp needed
 473 000e 7047     		bx	lr
 474              		.cfi_endproc
 475              	.LFE128:
 476              		.size	port_unlock, .-port_unlock
 477              		.section	.text.port_lock_from_isr,"ax",%progbits
 478              		.align	2
 479              		.p2align 4,,15
 480              		.thumb
 481              		.thumb_func
 482              		.type	port_lock_from_isr, %function
 483              	port_lock_from_isr:
 484              	.LFB129:
 485              		.loc 1 495 0
 486              		.cfi_startproc
 487              		@ args = 0, pretend = 0, frame = 0
 488              		@ frame_needed = 0, uses_anonymous_args = 0
 489 0000 08B5     		push	{r3, lr}
 490              		.cfi_def_cfa_offset 8
 491              		.cfi_offset 3, -8
 492              		.cfi_offset 14, -4
 493              		.loc 1 497 0
 494 0002 FFF7FEFF 		bl	port_lock
 495              		.loc 1 498 0
 496 0006 08BD     		pop	{r3, pc}
 497              		.cfi_endproc
 498              	.LFE129:
 499              		.size	port_lock_from_isr, .-port_lock_from_isr
 500 0008 AFF30080 		.section	.text.port_unlock_from_isr,"ax",%progbits
 500      AFF30080 
 501              		.align	2
 502              		.p2align 4,,15
 503              		.thumb
 504              		.thumb_func
ARM GAS  /tmp/ccmuHrxB.s 			page 33


 505              		.type	port_unlock_from_isr, %function
 506              	port_unlock_from_isr:
 507              	.LFB130:
 508              		.loc 1 506 0
 509              		.cfi_startproc
 510              		@ args = 0, pretend = 0, frame = 0
 511              		@ frame_needed = 0, uses_anonymous_args = 0
 512 0000 08B5     		push	{r3, lr}
 513              		.cfi_def_cfa_offset 8
 514              		.cfi_offset 3, -8
 515              		.cfi_offset 14, -4
 516              		.loc 1 508 0
 517 0002 FFF7FEFF 		bl	port_unlock
 518              		.loc 1 509 0
 519 0006 08BD     		pop	{r3, pc}
 520              		.cfi_endproc
 521              	.LFE130:
 522              		.size	port_unlock_from_isr, .-port_unlock_from_isr
 523 0008 AFF30080 		.section	.text.chSysLockFromISR,"ax",%progbits
 523      AFF30080 
 524              		.align	2
 525              		.p2align 4,,15
 526              		.thumb
 527              		.thumb_func
 528              		.type	chSysLockFromISR, %function
 529              	chSysLockFromISR:
 530              	.LFB169:
 531              		.file 3 "../../../../os/rt/include/chsys.h"
 532              		.loc 3 386 0
 533              		.cfi_startproc
 534              		@ args = 0, pretend = 0, frame = 0
 535              		@ frame_needed = 0, uses_anonymous_args = 0
 536 0000 08B5     		push	{r3, lr}
 537              		.cfi_def_cfa_offset 8
 538              		.cfi_offset 3, -8
 539              		.cfi_offset 14, -4
 540              		.loc 3 388 0
 541 0002 FFF7FEFF 		bl	port_lock_from_isr
 542              		.loc 3 389 0
 543 0006 FFF7FEFF 		bl	_stats_start_measure_crit_isr
 544              		.loc 3 390 0
 545 000a FFF7FEFF 		bl	_dbg_check_lock_from_isr
 546              		.loc 3 391 0
 547 000e 08BD     		pop	{r3, pc}
 548              		.cfi_endproc
 549              	.LFE169:
 550              		.size	chSysLockFromISR, .-chSysLockFromISR
 551              		.section	.text.chSysUnlockFromISR,"ax",%progbits
 552              		.align	2
 553              		.p2align 4,,15
 554              		.thumb
 555              		.thumb_func
 556              		.type	chSysUnlockFromISR, %function
 557              	chSysUnlockFromISR:
 558              	.LFB170:
 559              		.loc 3 406 0
 560              		.cfi_startproc
ARM GAS  /tmp/ccmuHrxB.s 			page 34


 561              		@ args = 0, pretend = 0, frame = 0
 562              		@ frame_needed = 0, uses_anonymous_args = 0
 563 0000 08B5     		push	{r3, lr}
 564              		.cfi_def_cfa_offset 8
 565              		.cfi_offset 3, -8
 566              		.cfi_offset 14, -4
 567              		.loc 3 408 0
 568 0002 FFF7FEFF 		bl	_dbg_check_unlock_from_isr
 569              		.loc 3 409 0
 570 0006 FFF7FEFF 		bl	_stats_stop_measure_crit_isr
 571              		.loc 3 410 0
 572 000a FFF7FEFF 		bl	port_unlock_from_isr
 573              		.loc 3 411 0
 574 000e 08BD     		pop	{r3, pc}
 575              		.cfi_endproc
 576              	.LFE170:
 577              		.size	chSysUnlockFromISR, .-chSysUnlockFromISR
 578              		.section	.text.osalSysLockFromISR,"ax",%progbits
 579              		.align	2
 580              		.p2align 4,,15
 581              		.thumb
 582              		.thumb_func
 583              		.type	osalSysLockFromISR, %function
 584              	osalSysLockFromISR:
 585              	.LFB247:
 586              		.file 4 "../../../../os/hal/osal/rt/osal.h"
 587              		.loc 4 513 0
 588              		.cfi_startproc
 589              		@ args = 0, pretend = 0, frame = 0
 590              		@ frame_needed = 0, uses_anonymous_args = 0
 591 0000 08B5     		push	{r3, lr}
 592              		.cfi_def_cfa_offset 8
 593              		.cfi_offset 3, -8
 594              		.cfi_offset 14, -4
 595              		.loc 4 515 0
 596 0002 FFF7FEFF 		bl	chSysLockFromISR
 597              		.loc 4 516 0
 598 0006 08BD     		pop	{r3, pc}
 599              		.cfi_endproc
 600              	.LFE247:
 601              		.size	osalSysLockFromISR, .-osalSysLockFromISR
 602 0008 AFF30080 		.section	.text.osalSysUnlockFromISR,"ax",%progbits
 602      AFF30080 
 603              		.align	2
 604              		.p2align 4,,15
 605              		.thumb
 606              		.thumb_func
 607              		.type	osalSysUnlockFromISR, %function
 608              	osalSysUnlockFromISR:
 609              	.LFB248:
 610              		.loc 4 524 0
 611              		.cfi_startproc
 612              		@ args = 0, pretend = 0, frame = 0
 613              		@ frame_needed = 0, uses_anonymous_args = 0
 614 0000 08B5     		push	{r3, lr}
 615              		.cfi_def_cfa_offset 8
 616              		.cfi_offset 3, -8
ARM GAS  /tmp/ccmuHrxB.s 			page 35


 617              		.cfi_offset 14, -4
 618              		.loc 4 526 0
 619 0002 FFF7FEFF 		bl	chSysUnlockFromISR
 620              		.loc 4 527 0
 621 0006 08BD     		pop	{r3, pc}
 622              		.cfi_endproc
 623              	.LFE248:
 624              		.size	osalSysUnlockFromISR, .-osalSysUnlockFromISR
 625 0008 AFF30080 		.section	.text.osalOsTimerHandlerI,"ax",%progbits
 625      AFF30080 
 626              		.align	2
 627              		.p2align 4,,15
 628              		.thumb
 629              		.thumb_func
 630              		.type	osalOsTimerHandlerI, %function
 631              	osalOsTimerHandlerI:
 632              	.LFB252:
 633              		.loc 4 583 0
 634              		.cfi_startproc
 635              		@ args = 0, pretend = 0, frame = 0
 636              		@ frame_needed = 0, uses_anonymous_args = 0
 637 0000 08B5     		push	{r3, lr}
 638              		.cfi_def_cfa_offset 8
 639              		.cfi_offset 3, -8
 640              		.cfi_offset 14, -4
 641              		.loc 4 585 0
 642 0002 FFF7FEFF 		bl	chSysTimerHandlerI
 643              		.loc 4 586 0
 644 0006 08BD     		pop	{r3, pc}
 645              		.cfi_endproc
 646              	.LFE252:
 647              		.size	osalOsTimerHandlerI, .-osalOsTimerHandlerI
 648 0008 AFF30080 		.section	.text.VectorB0,"ax",%progbits
 648      AFF30080 
 649              		.align	2
 650              		.p2align 4,,15
 651              		.global	VectorB0
 652              		.thumb
 653              		.thumb_func
 654              		.type	VectorB0, %function
 655              	VectorB0:
 656              	.LFB272:
 657              		.file 5 "../../../../os/hal/ports/STM32/LLD/TIMv1/st_lld.c"
 658              		.loc 5 239 0
 659              		.cfi_startproc
 660              		@ args = 0, pretend = 0, frame = 0
 661              		@ frame_needed = 0, uses_anonymous_args = 0
 662 0000 08B5     		push	{r3, lr}
 663              		.cfi_def_cfa_offset 8
 664              		.cfi_offset 3, -8
 665              		.cfi_offset 14, -4
 666              		.loc 5 241 0
 667 0002 FFF7FEFF 		bl	_stats_increase_irq
 668 0006 FFF7FEFF 		bl	_dbg_check_enter_isr
 669              		.loc 5 246 0
 670 000a 4FF08043 		mov	r3, #1073741824
 671 000e 1B69     		ldr	r3, [r3, #16]
ARM GAS  /tmp/ccmuHrxB.s 			page 36


 672 0010 03F00203 		and	r3, r3, #2
 673 0014 002B     		cmp	r3, #0
 674 0016 09D0     		beq	.L11
 675              		.loc 5 247 0
 676 0018 4FF08043 		mov	r3, #1073741824
 677 001c 0022     		movs	r2, #0
 678 001e 1A61     		str	r2, [r3, #16]
 679              		.loc 5 249 0
 680 0020 FFF7FEFF 		bl	osalSysLockFromISR
 681              		.loc 5 250 0
 682 0024 FFF7FEFF 		bl	osalOsTimerHandlerI
 683              		.loc 5 251 0
 684 0028 FFF7FEFF 		bl	osalSysUnlockFromISR
 685              	.L11:
 686              		.loc 5 254 0
 687 002c FFF7FEFF 		bl	_dbg_check_leave_isr
 688 0030 FFF7FEFF 		bl	_port_irq_epilogue
 689              		.loc 5 255 0
 690 0034 08BD     		pop	{r3, pc}
 691              		.cfi_endproc
 692              	.LFE272:
 693              		.size	VectorB0, .-VectorB0
 694 0036 00BFAFF3 		.section	.text.st_lld_init,"ax",%progbits
 694      0080AFF3 
 694      0080
 695              		.align	2
 696              		.p2align 4,,15
 697              		.global	st_lld_init
 698              		.thumb
 699              		.thumb_func
 700              		.type	st_lld_init, %function
 701              	st_lld_init:
 702              	.LFB273:
 703              		.loc 5 267 0
 704              		.cfi_startproc
 705              		@ args = 0, pretend = 0, frame = 0
 706              		@ frame_needed = 0, uses_anonymous_args = 0
 707 0000 08B5     		push	{r3, lr}
 708              		.cfi_def_cfa_offset 8
 709              		.cfi_offset 3, -8
 710              		.cfi_offset 14, -4
 711              		.loc 5 273 0
 712 0002 4FF46053 		mov	r3, #14336
 713 0006 C4F20203 		movt	r3, 16386
 714 000a 4FF46052 		mov	r2, #14336
 715 000e C4F20202 		movt	r2, 16386
 716 0012 126C     		ldr	r2, [r2, #64]
 717 0014 42F00102 		orr	r2, r2, #1
 718 0018 1A64     		str	r2, [r3, #64]
 719              		.loc 5 276 0
 720 001a 4FF40053 		mov	r3, #8192
 721 001e CEF20403 		movt	r3, 57348
 722 0022 4FF40052 		mov	r2, #8192
 723 0026 CEF20402 		movt	r2, 57348
 724 002a 9268     		ldr	r2, [r2, #8]
 725 002c 42F00102 		orr	r2, r2, #1
 726 0030 9A60     		str	r2, [r3, #8]
ARM GAS  /tmp/ccmuHrxB.s 			page 37


 727              		.loc 5 279 0
 728 0032 4FF08043 		mov	r3, #1073741824
 729 0036 42F2CF02 		movw	r2, #8399
 730 003a 9A62     		str	r2, [r3, #40]
 731              		.loc 5 280 0
 732 003c 4FF08043 		mov	r3, #1073741824
 733 0040 4FF0FF32 		mov	r2, #-1
 734 0044 DA62     		str	r2, [r3, #44]
 735              		.loc 5 281 0
 736 0046 4FF08043 		mov	r3, #1073741824
 737 004a 0022     		movs	r2, #0
 738 004c 9A61     		str	r2, [r3, #24]
 739              		.loc 5 282 0
 740 004e 4FF08043 		mov	r3, #1073741824
 741 0052 0022     		movs	r2, #0
 742 0054 5A63     		str	r2, [r3, #52]
 743              		.loc 5 283 0
 744 0056 4FF08043 		mov	r3, #1073741824
 745 005a 0022     		movs	r2, #0
 746 005c DA60     		str	r2, [r3, #12]
 747              		.loc 5 284 0
 748 005e 4FF08043 		mov	r3, #1073741824
 749 0062 0022     		movs	r2, #0
 750 0064 5A60     		str	r2, [r3, #4]
 751              		.loc 5 285 0
 752 0066 4FF08043 		mov	r3, #1073741824
 753 006a 0122     		movs	r2, #1
 754 006c 5A61     		str	r2, [r3, #20]
 755              		.loc 5 286 0
 756 006e 4FF08043 		mov	r3, #1073741824
 757 0072 0122     		movs	r2, #1
 758 0074 1A60     		str	r2, [r3]
 759              		.loc 5 289 0
 760 0076 1C20     		movs	r0, #28
 761 0078 0821     		movs	r1, #8
 762 007a FFF7FEFF 		bl	nvicEnableVector
 763              		.loc 5 304 0
 764 007e 08BD     		pop	{r3, pc}
 765              		.cfi_endproc
 766              	.LFE273:
 767              		.size	st_lld_init, .-st_lld_init
 768              		.text
 769              	.Letext0:
 770              		.file 6 "/usr/include/newlib/machine/_default_types.h"
 771              		.file 7 "/usr/include/newlib/stdint.h"
 772              		.file 8 "../../../../os/rt/ports/ARMCMx/compilers/GCC/chtypes.h"
 773              		.file 9 "../../../../os/rt/include/chsystypes.h"
 774              		.file 10 "../../../../os/rt/include/chschd.h"
 775              		.file 11 "../../../../os/ext/CMSIS/ST/STM32F4xx/stm32f407xx.h"
 776              		.file 12 "../../../../os/rt/ports/ARMCMx/chcore.h"
 777              		.file 13 "../../../../os/hal/ports/STM32/LLD/TIMv1/stm32_tim.h"
 778              		.file 14 "../../../../os/rt/include/chdebug.h"
 779              		.file 15 "../../../../os/rt/include/chtm.h"
 780              		.file 16 "../../../../os/rt/include/chstats.h"
 781              		.file 17 "../../../../os/rt/include/chsem.h"
 782              		.file 18 "../../../../os/rt/include/chmtx.h"
 783              		.file 19 "../../../../os/ext/CMSIS/include/core_cm4.h"
ARM GAS  /tmp/ccmuHrxB.s 			page 38


 784              		.section	.debug_info,"",%progbits
 785              	.Ldebug_info0:
 786 0000 0F0C0000 		.4byte	0xc0f
 787 0004 0400     		.2byte	0x4
 788 0006 00000000 		.4byte	.Ldebug_abbrev0
 789 000a 04       		.byte	0x4
 790 000b 01       		.uleb128 0x1
 791 000c 6C030000 		.4byte	.LASF183
 792 0010 01       		.byte	0x1
 793 0011 D5050000 		.4byte	.LASF184
 794 0015 0E030000 		.4byte	.LASF185
 795 0019 00000000 		.4byte	.Ldebug_ranges0+0
 796 001d 00000000 		.4byte	0
 797 0021 00000000 		.4byte	.Ldebug_line0
 798 0025 02       		.uleb128 0x2
 799 0026 04       		.byte	0x4
 800 0027 05       		.byte	0x5
 801 0028 696E7400 		.ascii	"int\000"
 802 002c 03       		.uleb128 0x3
 803 002d 04       		.byte	0x4
 804 002e 07       		.byte	0x7
 805 002f 97020000 		.4byte	.LASF0
 806 0033 03       		.uleb128 0x3
 807 0034 01       		.byte	0x1
 808 0035 06       		.byte	0x6
 809 0036 59010000 		.4byte	.LASF1
 810 003a 04       		.uleb128 0x4
 811 003b 3C000000 		.4byte	.LASF5
 812 003f 06       		.byte	0x6
 813 0040 1C       		.byte	0x1c
 814 0041 45000000 		.4byte	0x45
 815 0045 03       		.uleb128 0x3
 816 0046 01       		.byte	0x1
 817 0047 08       		.byte	0x8
 818 0048 C7050000 		.4byte	.LASF2
 819 004c 03       		.uleb128 0x3
 820 004d 02       		.byte	0x2
 821 004e 05       		.byte	0x5
 822 004f 1E060000 		.4byte	.LASF3
 823 0053 03       		.uleb128 0x3
 824 0054 02       		.byte	0x2
 825 0055 07       		.byte	0x7
 826 0056 FA010000 		.4byte	.LASF4
 827 005a 04       		.uleb128 0x4
 828 005b 45040000 		.4byte	.LASF6
 829 005f 06       		.byte	0x6
 830 0060 37       		.byte	0x37
 831 0061 65000000 		.4byte	0x65
 832 0065 03       		.uleb128 0x3
 833 0066 04       		.byte	0x4
 834 0067 05       		.byte	0x5
 835 0068 A2010000 		.4byte	.LASF7
 836 006c 04       		.uleb128 0x4
 837 006d 41070000 		.4byte	.LASF8
 838 0071 06       		.byte	0x6
 839 0072 38       		.byte	0x38
 840 0073 77000000 		.4byte	0x77
ARM GAS  /tmp/ccmuHrxB.s 			page 39


 841 0077 03       		.uleb128 0x3
 842 0078 04       		.byte	0x4
 843 0079 07       		.byte	0x7
 844 007a D4060000 		.4byte	.LASF9
 845 007e 03       		.uleb128 0x3
 846 007f 08       		.byte	0x8
 847 0080 05       		.byte	0x5
 848 0081 D2010000 		.4byte	.LASF10
 849 0085 04       		.uleb128 0x4
 850 0086 2D050000 		.4byte	.LASF11
 851 008a 06       		.byte	0x6
 852 008b 4E       		.byte	0x4e
 853 008c 90000000 		.4byte	0x90
 854 0090 03       		.uleb128 0x3
 855 0091 08       		.byte	0x8
 856 0092 07       		.byte	0x7
 857 0093 A4000000 		.4byte	.LASF12
 858 0097 04       		.uleb128 0x4
 859 0098 F2070000 		.4byte	.LASF13
 860 009c 07       		.byte	0x7
 861 009d 2A       		.byte	0x2a
 862 009e 3A000000 		.4byte	0x3a
 863 00a2 04       		.uleb128 0x4
 864 00a3 BF050000 		.4byte	.LASF14
 865 00a7 07       		.byte	0x7
 866 00a8 41       		.byte	0x41
 867 00a9 5A000000 		.4byte	0x5a
 868 00ad 04       		.uleb128 0x4
 869 00ae A3060000 		.4byte	.LASF15
 870 00b2 07       		.byte	0x7
 871 00b3 42       		.byte	0x42
 872 00b4 6C000000 		.4byte	0x6c
 873 00b8 04       		.uleb128 0x4
 874 00b9 26000000 		.4byte	.LASF16
 875 00bd 07       		.byte	0x7
 876 00be 4E       		.byte	0x4e
 877 00bf 85000000 		.4byte	0x85
 878 00c3 04       		.uleb128 0x4
 879 00c4 94070000 		.4byte	.LASF17
 880 00c8 08       		.byte	0x8
 881 00c9 39       		.byte	0x39
 882 00ca AD000000 		.4byte	0xad
 883 00ce 04       		.uleb128 0x4
 884 00cf 2D010000 		.4byte	.LASF18
 885 00d3 08       		.byte	0x8
 886 00d4 3A       		.byte	0x3a
 887 00d5 B8000000 		.4byte	0xb8
 888 00d9 04       		.uleb128 0x4
 889 00da 1F080000 		.4byte	.LASF19
 890 00de 08       		.byte	0x8
 891 00df 3C       		.byte	0x3c
 892 00e0 97000000 		.4byte	0x97
 893 00e4 04       		.uleb128 0x4
 894 00e5 BE010000 		.4byte	.LASF20
 895 00e9 08       		.byte	0x8
 896 00ea 3D       		.byte	0x3d
 897 00eb 97000000 		.4byte	0x97
ARM GAS  /tmp/ccmuHrxB.s 			page 40


 898 00ef 04       		.uleb128 0x4
 899 00f0 4A050000 		.4byte	.LASF21
 900 00f4 08       		.byte	0x8
 901 00f5 3E       		.byte	0x3e
 902 00f6 97000000 		.4byte	0x97
 903 00fa 04       		.uleb128 0x4
 904 00fb 95050000 		.4byte	.LASF22
 905 00ff 08       		.byte	0x8
 906 0100 40       		.byte	0x40
 907 0101 AD000000 		.4byte	0xad
 908 0105 04       		.uleb128 0x4
 909 0106 FF020000 		.4byte	.LASF23
 910 010a 08       		.byte	0x8
 911 010b 41       		.byte	0x41
 912 010c A2000000 		.4byte	0xa2
 913 0110 04       		.uleb128 0x4
 914 0111 39040000 		.4byte	.LASF24
 915 0115 08       		.byte	0x8
 916 0116 43       		.byte	0x43
 917 0117 AD000000 		.4byte	0xad
 918 011b 04       		.uleb128 0x4
 919 011c 86020000 		.4byte	.LASF25
 920 0120 08       		.byte	0x8
 921 0121 45       		.byte	0x45
 922 0122 A2000000 		.4byte	0xa2
 923 0126 04       		.uleb128 0x4
 924 0127 52030000 		.4byte	.LASF26
 925 012b 08       		.byte	0x8
 926 012c 46       		.byte	0x46
 927 012d AD000000 		.4byte	0xad
 928 0131 04       		.uleb128 0x4
 929 0132 23070000 		.4byte	.LASF27
 930 0136 09       		.byte	0x9
 931 0137 33       		.byte	0x33
 932 0138 AD000000 		.4byte	0xad
 933 013c 04       		.uleb128 0x4
 934 013d 0E070000 		.4byte	.LASF28
 935 0141 09       		.byte	0x9
 936 0142 3F       		.byte	0x3f
 937 0143 47010000 		.4byte	0x147
 938 0147 05       		.uleb128 0x5
 939 0148 EA020000 		.4byte	.LASF50
 940 014c 60       		.byte	0x60
 941 014d 0A       		.byte	0xa
 942 014e C2       		.byte	0xc2
 943 014f 4D020000 		.4byte	0x24d
 944 0153 06       		.uleb128 0x6
 945 0154 48060000 		.4byte	.LASF29
 946 0158 0A       		.byte	0xa
 947 0159 C3       		.byte	0xc3
 948 015a 58020000 		.4byte	0x258
 949 015e 00       		.byte	0
 950 015f 06       		.uleb128 0x6
 951 0160 84050000 		.4byte	.LASF30
 952 0164 0A       		.byte	0xa
 953 0165 C5       		.byte	0xc5
 954 0166 58020000 		.4byte	0x258
ARM GAS  /tmp/ccmuHrxB.s 			page 41


 955 016a 04       		.byte	0x4
 956 016b 06       		.uleb128 0x6
 957 016c 40010000 		.4byte	.LASF31
 958 0170 0A       		.byte	0xa
 959 0171 C7       		.byte	0xc7
 960 0172 FA000000 		.4byte	0xfa
 961 0176 08       		.byte	0x8
 962 0177 06       		.uleb128 0x6
 963 0178 57080000 		.4byte	.LASF32
 964 017c 0A       		.byte	0xa
 965 017d C8       		.byte	0xc8
 966 017e CA060000 		.4byte	0x6ca
 967 0182 0C       		.byte	0xc
 968 0183 06       		.uleb128 0x6
 969 0184 E0010000 		.4byte	.LASF33
 970 0188 0A       		.byte	0xa
 971 0189 CA       		.byte	0xca
 972 018a 58020000 		.4byte	0x258
 973 018e 10       		.byte	0x10
 974 018f 06       		.uleb128 0x6
 975 0190 F1040000 		.4byte	.LASF34
 976 0194 0A       		.byte	0xa
 977 0195 CB       		.byte	0xcb
 978 0196 58020000 		.4byte	0x258
 979 019a 14       		.byte	0x14
 980 019b 06       		.uleb128 0x6
 981 019c 0B080000 		.4byte	.LASF35
 982 01a0 0A       		.byte	0xa
 983 01a1 D2       		.byte	0xd2
 984 01a2 900A0000 		.4byte	0xa90
 985 01a6 18       		.byte	0x18
 986 01a7 06       		.uleb128 0x6
 987 01a8 8C020000 		.4byte	.LASF36
 988 01ac 0A       		.byte	0xa
 989 01ad D8       		.byte	0xd8
 990 01ae A20A0000 		.4byte	0xaa2
 991 01b2 1C       		.byte	0x1c
 992 01b3 06       		.uleb128 0x6
 993 01b4 28060000 		.4byte	.LASF37
 994 01b8 0A       		.byte	0xa
 995 01b9 DD       		.byte	0xdd
 996 01ba E4000000 		.4byte	0xe4
 997 01be 20       		.byte	0x20
 998 01bf 06       		.uleb128 0x6
 999 01c0 4F060000 		.4byte	.LASF38
 1000 01c4 0A       		.byte	0xa
 1001 01c5 E1       		.byte	0xe1
 1002 01c6 D9000000 		.4byte	0xd9
 1003 01ca 21       		.byte	0x21
 1004 01cb 06       		.uleb128 0x6
 1005 01cc D8070000 		.4byte	.LASF39
 1006 01d0 0A       		.byte	0xa
 1007 01d1 E6       		.byte	0xe6
 1008 01d2 EF000000 		.4byte	0xef
 1009 01d6 22       		.byte	0x22
 1010 01d7 07       		.uleb128 0x7
 1011 01d8 705F7500 		.ascii	"p_u\000"
ARM GAS  /tmp/ccmuHrxB.s 			page 42


 1012 01dc 0A       		.byte	0xa
 1013 01dd 3101     		.2byte	0x131
 1014 01df CB090000 		.4byte	0x9cb
 1015 01e3 24       		.byte	0x24
 1016 01e4 08       		.uleb128 0x8
 1017 01e5 95040000 		.4byte	.LASF40
 1018 01e9 0A       		.byte	0xa
 1019 01ea 3601     		.2byte	0x136
 1020 01ec 5E020000 		.4byte	0x25e
 1021 01f0 28       		.byte	0x28
 1022 01f1 08       		.uleb128 0x8
 1023 01f2 B3020000 		.4byte	.LASF41
 1024 01f6 0A       		.byte	0xa
 1025 01f7 3C01     		.2byte	0x13c
 1026 01f9 82020000 		.4byte	0x282
 1027 01fd 2C       		.byte	0x2c
 1028 01fe 08       		.uleb128 0x8
 1029 01ff 34080000 		.4byte	.LASF42
 1030 0203 0A       		.byte	0xa
 1031 0204 4001     		.2byte	0x140
 1032 0206 05010000 		.4byte	0x105
 1033 020a 34       		.byte	0x34
 1034 020b 08       		.uleb128 0x8
 1035 020c D2040000 		.4byte	.LASF43
 1036 0210 0A       		.byte	0xa
 1037 0211 4601     		.2byte	0x146
 1038 0213 10010000 		.4byte	0x110
 1039 0217 38       		.byte	0x38
 1040 0218 08       		.uleb128 0x8
 1041 0219 14060000 		.4byte	.LASF44
 1042 021d 0A       		.byte	0xa
 1043 021e 4D01     		.2byte	0x14d
 1044 0220 8A0A0000 		.4byte	0xa8a
 1045 0224 3C       		.byte	0x3c
 1046 0225 08       		.uleb128 0x8
 1047 0226 2D070000 		.4byte	.LASF45
 1048 022a 0A       		.byte	0xa
 1049 022b 5101     		.2byte	0x151
 1050 022d FA000000 		.4byte	0xfa
 1051 0231 40       		.byte	0x40
 1052 0232 08       		.uleb128 0x8
 1053 0233 1D020000 		.4byte	.LASF46
 1054 0237 0A       		.byte	0xa
 1055 0238 5801     		.2byte	0x158
 1056 023a 35030000 		.4byte	0x335
 1057 023e 44       		.byte	0x44
 1058 023f 08       		.uleb128 0x8
 1059 0240 57060000 		.4byte	.LASF47
 1060 0244 0A       		.byte	0xa
 1061 0245 5E01     		.2byte	0x15e
 1062 0247 7C090000 		.4byte	0x97c
 1063 024b 48       		.byte	0x48
 1064 024c 00       		.byte	0
 1065 024d 04       		.uleb128 0x4
 1066 024e A8040000 		.4byte	.LASF48
 1067 0252 09       		.byte	0x9
 1068 0253 44       		.byte	0x44
ARM GAS  /tmp/ccmuHrxB.s 			page 43


 1069 0254 58020000 		.4byte	0x258
 1070 0258 09       		.uleb128 0x9
 1071 0259 04       		.byte	0x4
 1072 025a 3C010000 		.4byte	0x13c
 1073 025e 04       		.uleb128 0x4
 1074 025f 6E040000 		.4byte	.LASF49
 1075 0263 09       		.byte	0x9
 1076 0264 49       		.byte	0x49
 1077 0265 69020000 		.4byte	0x269
 1078 0269 05       		.uleb128 0x5
 1079 026a C4060000 		.4byte	.LASF51
 1080 026e 04       		.byte	0x4
 1081 026f 0A       		.byte	0xa
 1082 0270 B0       		.byte	0xb0
 1083 0271 82020000 		.4byte	0x282
 1084 0275 06       		.uleb128 0x6
 1085 0276 48060000 		.4byte	.LASF29
 1086 027a 0A       		.byte	0xa
 1087 027b B1       		.byte	0xb1
 1088 027c 58020000 		.4byte	0x258
 1089 0280 00       		.byte	0
 1090 0281 00       		.byte	0
 1091 0282 04       		.uleb128 0x4
 1092 0283 BC070000 		.4byte	.LASF52
 1093 0287 09       		.byte	0x9
 1094 0288 50       		.byte	0x50
 1095 0289 8D020000 		.4byte	0x28d
 1096 028d 05       		.uleb128 0x5
 1097 028e 52000000 		.4byte	.LASF53
 1098 0292 08       		.byte	0x8
 1099 0293 0A       		.byte	0xa
 1100 0294 B7       		.byte	0xb7
 1101 0295 B2020000 		.4byte	0x2b2
 1102 0299 06       		.uleb128 0x6
 1103 029a 48060000 		.4byte	.LASF29
 1104 029e 0A       		.byte	0xa
 1105 029f B8       		.byte	0xb8
 1106 02a0 58020000 		.4byte	0x258
 1107 02a4 00       		.byte	0
 1108 02a5 06       		.uleb128 0x6
 1109 02a6 84050000 		.4byte	.LASF30
 1110 02aa 0A       		.byte	0xa
 1111 02ab B9       		.byte	0xb9
 1112 02ac 58020000 		.4byte	0x258
 1113 02b0 04       		.byte	0x4
 1114 02b1 00       		.byte	0
 1115 02b2 04       		.uleb128 0x4
 1116 02b3 07000000 		.4byte	.LASF54
 1117 02b7 09       		.byte	0x9
 1118 02b8 57       		.byte	0x57
 1119 02b9 BD020000 		.4byte	0x2bd
 1120 02bd 0A       		.uleb128 0xa
 1121 02be 2B040000 		.4byte	.LASF55
 1122 02c2 1C       		.byte	0x1c
 1123 02c3 0A       		.byte	0xa
 1124 02c4 9001     		.2byte	0x190
 1125 02c6 19030000 		.4byte	0x319
ARM GAS  /tmp/ccmuHrxB.s 			page 44


 1126 02ca 08       		.uleb128 0x8
 1127 02cb B3060000 		.4byte	.LASF56
 1128 02cf 0A       		.byte	0xa
 1129 02d0 9101     		.2byte	0x191
 1130 02d2 82020000 		.4byte	0x282
 1131 02d6 00       		.byte	0
 1132 02d7 08       		.uleb128 0x8
 1133 02d8 3A060000 		.4byte	.LASF57
 1134 02dc 0A       		.byte	0xa
 1135 02dd 9201     		.2byte	0x192
 1136 02df FA000000 		.4byte	0xfa
 1137 02e3 08       		.byte	0x8
 1138 02e4 08       		.uleb128 0x8
 1139 02e5 F9040000 		.4byte	.LASF58
 1140 02e9 0A       		.byte	0xa
 1141 02ea 9401     		.2byte	0x194
 1142 02ec CA060000 		.4byte	0x6ca
 1143 02f0 0C       		.byte	0xc
 1144 02f1 08       		.uleb128 0x8
 1145 02f2 15020000 		.4byte	.LASF59
 1146 02f6 0A       		.byte	0xa
 1147 02f7 9701     		.2byte	0x197
 1148 02f9 58020000 		.4byte	0x258
 1149 02fd 10       		.byte	0x10
 1150 02fe 08       		.uleb128 0x8
 1151 02ff 8C070000 		.4byte	.LASF60
 1152 0303 0A       		.byte	0xa
 1153 0304 9801     		.2byte	0x198
 1154 0306 58020000 		.4byte	0x258
 1155 030a 14       		.byte	0x14
 1156 030b 08       		.uleb128 0x8
 1157 030c 1A050000 		.4byte	.LASF61
 1158 0310 0A       		.byte	0xa
 1159 0311 9B01     		.2byte	0x19b
 1160 0313 58020000 		.4byte	0x258
 1161 0317 18       		.byte	0x18
 1162 0318 00       		.byte	0
 1163 0319 04       		.uleb128 0x4
 1164 031a 38070000 		.4byte	.LASF62
 1165 031e 09       		.byte	0x9
 1166 031f 5C       		.byte	0x5c
 1167 0320 24030000 		.4byte	0x324
 1168 0324 09       		.uleb128 0x9
 1169 0325 04       		.byte	0x4
 1170 0326 2A030000 		.4byte	0x32a
 1171 032a 0B       		.uleb128 0xb
 1172 032b 35030000 		.4byte	0x335
 1173 032f 0C       		.uleb128 0xc
 1174 0330 35030000 		.4byte	0x335
 1175 0334 00       		.byte	0
 1176 0335 0D       		.uleb128 0xd
 1177 0336 04       		.byte	0x4
 1178 0337 04       		.uleb128 0x4
 1179 0338 7D040000 		.4byte	.LASF63
 1180 033c 09       		.byte	0x9
 1181 033d 61       		.byte	0x61
 1182 033e 42030000 		.4byte	0x342
ARM GAS  /tmp/ccmuHrxB.s 			page 45


 1183 0342 0A       		.uleb128 0xa
 1184 0343 67060000 		.4byte	.LASF64
 1185 0347 14       		.byte	0x14
 1186 0348 0A       		.byte	0xa
 1187 0349 6B01     		.2byte	0x16b
 1188 034b 91030000 		.4byte	0x391
 1189 034f 08       		.uleb128 0x8
 1190 0350 A4020000 		.4byte	.LASF65
 1191 0354 0A       		.byte	0xa
 1192 0355 6C01     		.2byte	0x16c
 1193 0357 A80A0000 		.4byte	0xaa8
 1194 035b 00       		.byte	0
 1195 035c 08       		.uleb128 0x8
 1196 035d 2E020000 		.4byte	.LASF66
 1197 0361 0A       		.byte	0xa
 1198 0362 6D01     		.2byte	0x16d
 1199 0364 A80A0000 		.4byte	0xaa8
 1200 0368 04       		.byte	0x4
 1201 0369 08       		.uleb128 0x8
 1202 036a BB060000 		.4byte	.LASF67
 1203 036e 0A       		.byte	0xa
 1204 036f 6E01     		.2byte	0x16e
 1205 0371 31010000 		.4byte	0x131
 1206 0375 08       		.byte	0x8
 1207 0376 08       		.uleb128 0x8
 1208 0377 5D080000 		.4byte	.LASF68
 1209 037b 0A       		.byte	0xa
 1210 037c 6F01     		.2byte	0x16f
 1211 037e 19030000 		.4byte	0x319
 1212 0382 0C       		.byte	0xc
 1213 0383 08       		.uleb128 0x8
 1214 0384 AF070000 		.4byte	.LASF69
 1215 0388 0A       		.byte	0xa
 1216 0389 7101     		.2byte	0x171
 1217 038b 35030000 		.4byte	0x335
 1218 038f 10       		.byte	0x10
 1219 0390 00       		.byte	0
 1220 0391 04       		.uleb128 0x4
 1221 0392 F1000000 		.4byte	.LASF70
 1222 0396 09       		.byte	0x9
 1223 0397 66       		.byte	0x66
 1224 0398 9C030000 		.4byte	0x39c
 1225 039c 0A       		.uleb128 0xa
 1226 039d BB040000 		.4byte	.LASF71
 1227 03a1 10       		.byte	0x10
 1228 03a2 0A       		.byte	0xa
 1229 03a3 7B01     		.2byte	0x17b
 1230 03a5 DE030000 		.4byte	0x3de
 1231 03a9 08       		.uleb128 0x8
 1232 03aa A4020000 		.4byte	.LASF65
 1233 03ae 0A       		.byte	0xa
 1234 03af 7C01     		.2byte	0x17c
 1235 03b1 A80A0000 		.4byte	0xaa8
 1236 03b5 00       		.byte	0
 1237 03b6 08       		.uleb128 0x8
 1238 03b7 2E020000 		.4byte	.LASF66
 1239 03bb 0A       		.byte	0xa
ARM GAS  /tmp/ccmuHrxB.s 			page 46


 1240 03bc 7E01     		.2byte	0x17e
 1241 03be A80A0000 		.4byte	0xaa8
 1242 03c2 04       		.byte	0x4
 1243 03c3 08       		.uleb128 0x8
 1244 03c4 BB060000 		.4byte	.LASF67
 1245 03c8 0A       		.byte	0xa
 1246 03c9 8001     		.2byte	0x180
 1247 03cb 31010000 		.4byte	0x131
 1248 03cf 08       		.byte	0x8
 1249 03d0 08       		.uleb128 0x8
 1250 03d1 E5040000 		.4byte	.LASF72
 1251 03d5 0A       		.byte	0xa
 1252 03d6 8801     		.2byte	0x188
 1253 03d8 31010000 		.4byte	0x131
 1254 03dc 0C       		.byte	0xc
 1255 03dd 00       		.byte	0
 1256 03de 04       		.uleb128 0x4
 1257 03df 63000000 		.4byte	.LASF73
 1258 03e3 09       		.byte	0x9
 1259 03e4 6B       		.byte	0x6b
 1260 03e5 E9030000 		.4byte	0x3e9
 1261 03e9 0E       		.uleb128 0xe
 1262 03ea 50020000 		.4byte	.LASF74
 1263 03ee 1404     		.2byte	0x414
 1264 03f0 0A       		.byte	0xa
 1265 03f1 A201     		.2byte	0x1a2
 1266 03f3 2C040000 		.4byte	0x42c
 1267 03f7 08       		.uleb128 0x8
 1268 03f8 5A070000 		.4byte	.LASF75
 1269 03fc 0A       		.byte	0xa
 1270 03fd AA01     		.2byte	0x1aa
 1271 03ff AE0A0000 		.4byte	0xaae
 1272 0403 00       		.byte	0
 1273 0404 08       		.uleb128 0x8
 1274 0405 DF070000 		.4byte	.LASF76
 1275 0409 0A       		.byte	0xa
 1276 040a AF01     		.2byte	0x1af
 1277 040c 1B010000 		.4byte	0x11b
 1278 0410 04       		.byte	0x4
 1279 0411 08       		.uleb128 0x8
 1280 0412 6E020000 		.4byte	.LASF77
 1281 0416 0A       		.byte	0xa
 1282 0417 B301     		.2byte	0x1b3
 1283 0419 1B010000 		.4byte	0x11b
 1284 041d 08       		.byte	0x8
 1285 041e 08       		.uleb128 0x8
 1286 041f 27080000 		.4byte	.LASF78
 1287 0423 0A       		.byte	0xa
 1288 0424 B901     		.2byte	0x1b9
 1289 0426 0E090000 		.4byte	0x90e
 1290 042a 0C       		.byte	0xc
 1291 042b 00       		.byte	0
 1292 042c 04       		.uleb128 0x4
 1293 042d 60030000 		.4byte	.LASF79
 1294 0431 09       		.byte	0x9
 1295 0432 70       		.byte	0x70
 1296 0433 37040000 		.4byte	0x437
ARM GAS  /tmp/ccmuHrxB.s 			page 47


 1297 0437 0E       		.uleb128 0xe
 1298 0438 98010000 		.4byte	.LASF80
 1299 043c D805     		.2byte	0x5d8
 1300 043e 0A       		.byte	0xa
 1301 043f C201     		.2byte	0x1c2
 1302 0441 A4040000 		.4byte	0x4a4
 1303 0445 08       		.uleb128 0x8
 1304 0446 EC070000 		.4byte	.LASF81
 1305 044a 0A       		.byte	0xa
 1306 044b C601     		.2byte	0x1c6
 1307 044d B2020000 		.4byte	0x2b2
 1308 0451 00       		.byte	0
 1309 0452 08       		.uleb128 0x8
 1310 0453 36020000 		.4byte	.LASF82
 1311 0457 0A       		.byte	0xa
 1312 0458 CA01     		.2byte	0x1ca
 1313 045a 91030000 		.4byte	0x391
 1314 045e 1C       		.byte	0x1c
 1315 045f 07       		.uleb128 0x7
 1316 0460 64626700 		.ascii	"dbg\000"
 1317 0464 0A       		.byte	0xa
 1318 0465 CE01     		.2byte	0x1ce
 1319 0467 DE030000 		.4byte	0x3de
 1320 046b 2C       		.byte	0x2c
 1321 046c 0F       		.uleb128 0xf
 1322 046d E6000000 		.4byte	.LASF83
 1323 0471 0A       		.byte	0xa
 1324 0472 D201     		.2byte	0x1d2
 1325 0474 3C010000 		.4byte	0x13c
 1326 0478 4004     		.2byte	0x440
 1327 047a 10       		.uleb128 0x10
 1328 047b 746D00   		.ascii	"tm\000"
 1329 047e 0A       		.byte	0xa
 1330 047f D701     		.2byte	0x1d7
 1331 0481 2E090000 		.4byte	0x92e
 1332 0485 A004     		.2byte	0x4a0
 1333 0487 0F       		.uleb128 0xf
 1334 0488 2F000000 		.4byte	.LASF84
 1335 048c 0A       		.byte	0xa
 1336 048d DD01     		.2byte	0x1dd
 1337 048f C0090000 		.4byte	0x9c0
 1338 0493 A804     		.2byte	0x4a8
 1339 0495 0F       		.uleb128 0xf
 1340 0496 77020000 		.4byte	.LASF85
 1341 049a 0A       		.byte	0xa
 1342 049b E301     		.2byte	0x1e3
 1343 049d B30A0000 		.4byte	0xab3
 1344 04a1 E004     		.2byte	0x4e0
 1345 04a3 00       		.byte	0
 1346 04a4 03       		.uleb128 0x3
 1347 04a5 04       		.byte	0x4
 1348 04a6 07       		.byte	0x7
 1349 04a7 9F040000 		.4byte	.LASF86
 1350 04ab 11       		.uleb128 0x11
 1351 04ac AD000000 		.4byte	0xad
 1352 04b0 12       		.uleb128 0x12
 1353 04b1 AD000000 		.4byte	0xad
ARM GAS  /tmp/ccmuHrxB.s 			page 48


 1354 04b5 C0040000 		.4byte	0x4c0
 1355 04b9 13       		.uleb128 0x13
 1356 04ba A4040000 		.4byte	0x4a4
 1357 04be 01       		.byte	0x1
 1358 04bf 00       		.byte	0
 1359 04c0 12       		.uleb128 0x12
 1360 04c1 AD000000 		.4byte	0xad
 1361 04c5 D0040000 		.4byte	0x4d0
 1362 04c9 13       		.uleb128 0x13
 1363 04ca A4040000 		.4byte	0x4a4
 1364 04ce 03       		.byte	0x3
 1365 04cf 00       		.byte	0
 1366 04d0 14       		.uleb128 0x14
 1367 04d1 10       		.byte	0x10
 1368 04d2 0B       		.byte	0xb
 1369 04d3 4C01     		.2byte	0x14c
 1370 04d5 0D050000 		.4byte	0x50d
 1371 04d9 08       		.uleb128 0x8
 1372 04da D6000000 		.4byte	.LASF87
 1373 04de 0B       		.byte	0xb
 1374 04df 4E01     		.2byte	0x14e
 1375 04e1 AB040000 		.4byte	0x4ab
 1376 04e5 00       		.byte	0
 1377 04e6 07       		.uleb128 0x7
 1378 04e7 435200   		.ascii	"CR\000"
 1379 04ea 0B       		.byte	0xb
 1380 04eb 4F01     		.2byte	0x14f
 1381 04ed AB040000 		.4byte	0x4ab
 1382 04f1 04       		.byte	0x4
 1383 04f2 08       		.uleb128 0x8
 1384 04f3 43050000 		.4byte	.LASF88
 1385 04f7 0B       		.byte	0xb
 1386 04f8 5001     		.2byte	0x150
 1387 04fa AB040000 		.4byte	0x4ab
 1388 04fe 08       		.byte	0x8
 1389 04ff 08       		.uleb128 0x8
 1390 0500 59030000 		.4byte	.LASF89
 1391 0504 0B       		.byte	0xb
 1392 0505 5101     		.2byte	0x151
 1393 0507 AB040000 		.4byte	0x4ab
 1394 050b 0C       		.byte	0xc
 1395 050c 00       		.byte	0
 1396 050d 15       		.uleb128 0x15
 1397 050e 8A060000 		.4byte	.LASF90
 1398 0512 0B       		.byte	0xb
 1399 0513 5201     		.2byte	0x152
 1400 0515 D0040000 		.4byte	0x4d0
 1401 0519 14       		.uleb128 0x14
 1402 051a 88       		.byte	0x88
 1403 051b 0B       		.byte	0xb
 1404 051c 6602     		.2byte	0x266
 1405 051e A8060000 		.4byte	0x6a8
 1406 0522 07       		.uleb128 0x7
 1407 0523 435200   		.ascii	"CR\000"
 1408 0526 0B       		.byte	0xb
 1409 0527 6802     		.2byte	0x268
 1410 0529 AB040000 		.4byte	0x4ab
ARM GAS  /tmp/ccmuHrxB.s 			page 49


 1411 052d 00       		.byte	0
 1412 052e 08       		.uleb128 0x8
 1413 052f F2010000 		.4byte	.LASF91
 1414 0533 0B       		.byte	0xb
 1415 0534 6902     		.2byte	0x269
 1416 0536 AB040000 		.4byte	0x4ab
 1417 053a 04       		.byte	0x4
 1418 053b 08       		.uleb128 0x8
 1419 053c 1A080000 		.4byte	.LASF92
 1420 0540 0B       		.byte	0xb
 1421 0541 6A02     		.2byte	0x26a
 1422 0543 AB040000 		.4byte	0x4ab
 1423 0547 08       		.byte	0x8
 1424 0548 07       		.uleb128 0x7
 1425 0549 43495200 		.ascii	"CIR\000"
 1426 054d 0B       		.byte	0xb
 1427 054e 6B02     		.2byte	0x26b
 1428 0550 AB040000 		.4byte	0x4ab
 1429 0554 0C       		.byte	0xc
 1430 0555 08       		.uleb128 0x8
 1431 0556 65010000 		.4byte	.LASF93
 1432 055a 0B       		.byte	0xb
 1433 055b 6C02     		.2byte	0x26c
 1434 055d AB040000 		.4byte	0x4ab
 1435 0561 10       		.byte	0x10
 1436 0562 08       		.uleb128 0x8
 1437 0563 F0060000 		.4byte	.LASF94
 1438 0567 0B       		.byte	0xb
 1439 0568 6D02     		.2byte	0x26d
 1440 056a AB040000 		.4byte	0x4ab
 1441 056e 14       		.byte	0x14
 1442 056f 08       		.uleb128 0x8
 1443 0570 05030000 		.4byte	.LASF95
 1444 0574 0B       		.byte	0xb
 1445 0575 6E02     		.2byte	0x26e
 1446 0577 AB040000 		.4byte	0x4ab
 1447 057b 18       		.byte	0x18
 1448 057c 08       		.uleb128 0x8
 1449 057d 52050000 		.4byte	.LASF96
 1450 0581 0B       		.byte	0xb
 1451 0582 6F02     		.2byte	0x26f
 1452 0584 AD000000 		.4byte	0xad
 1453 0588 1C       		.byte	0x1c
 1454 0589 08       		.uleb128 0x8
 1455 058a 24050000 		.4byte	.LASF97
 1456 058e 0B       		.byte	0xb
 1457 058f 7002     		.2byte	0x270
 1458 0591 AB040000 		.4byte	0x4ab
 1459 0595 20       		.byte	0x20
 1460 0596 08       		.uleb128 0x8
 1461 0597 AB010000 		.4byte	.LASF98
 1462 059b 0B       		.byte	0xb
 1463 059c 7102     		.2byte	0x271
 1464 059e AB040000 		.4byte	0x4ab
 1465 05a2 24       		.byte	0x24
 1466 05a3 08       		.uleb128 0x8
 1467 05a4 5C050000 		.4byte	.LASF99
ARM GAS  /tmp/ccmuHrxB.s 			page 50


 1468 05a8 0B       		.byte	0xb
 1469 05a9 7202     		.2byte	0x272
 1470 05ab B0040000 		.4byte	0x4b0
 1471 05af 28       		.byte	0x28
 1472 05b0 08       		.uleb128 0x8
 1473 05b1 12080000 		.4byte	.LASF100
 1474 05b5 0B       		.byte	0xb
 1475 05b6 7302     		.2byte	0x273
 1476 05b8 AB040000 		.4byte	0x4ab
 1477 05bc 30       		.byte	0x30
 1478 05bd 08       		.uleb128 0x8
 1479 05be 7C070000 		.4byte	.LASF101
 1480 05c2 0B       		.byte	0xb
 1481 05c3 7402     		.2byte	0x274
 1482 05c5 AB040000 		.4byte	0x4ab
 1483 05c9 34       		.byte	0x34
 1484 05ca 08       		.uleb128 0x8
 1485 05cb DD040000 		.4byte	.LASF102
 1486 05cf 0B       		.byte	0xb
 1487 05d0 7502     		.2byte	0x275
 1488 05d2 AB040000 		.4byte	0x4ab
 1489 05d6 38       		.byte	0x38
 1490 05d7 08       		.uleb128 0x8
 1491 05d8 66050000 		.4byte	.LASF103
 1492 05dc 0B       		.byte	0xb
 1493 05dd 7602     		.2byte	0x276
 1494 05df AD000000 		.4byte	0xad
 1495 05e3 3C       		.byte	0x3c
 1496 05e4 08       		.uleb128 0x8
 1497 05e5 6B070000 		.4byte	.LASF104
 1498 05e9 0B       		.byte	0xb
 1499 05ea 7702     		.2byte	0x277
 1500 05ec AB040000 		.4byte	0x4ab
 1501 05f0 40       		.byte	0x40
 1502 05f1 08       		.uleb128 0x8
 1503 05f2 5F060000 		.4byte	.LASF105
 1504 05f6 0B       		.byte	0xb
 1505 05f7 7802     		.2byte	0x278
 1506 05f9 AB040000 		.4byte	0x4ab
 1507 05fd 44       		.byte	0x44
 1508 05fe 08       		.uleb128 0x8
 1509 05ff 70050000 		.4byte	.LASF106
 1510 0603 0B       		.byte	0xb
 1511 0604 7902     		.2byte	0x279
 1512 0606 B0040000 		.4byte	0x4b0
 1513 060a 48       		.byte	0x48
 1514 060b 08       		.uleb128 0x8
 1515 060c 36010000 		.4byte	.LASF107
 1516 0610 0B       		.byte	0xb
 1517 0611 7A02     		.2byte	0x27a
 1518 0613 AB040000 		.4byte	0x4ab
 1519 0617 50       		.byte	0x50
 1520 0618 08       		.uleb128 0x8
 1521 0619 FF040000 		.4byte	.LASF108
 1522 061d 0B       		.byte	0xb
 1523 061e 7B02     		.2byte	0x27b
 1524 0620 AB040000 		.4byte	0x4ab
ARM GAS  /tmp/ccmuHrxB.s 			page 51


 1525 0624 54       		.byte	0x54
 1526 0625 08       		.uleb128 0x8
 1527 0626 30060000 		.4byte	.LASF109
 1528 062a 0B       		.byte	0xb
 1529 062b 7C02     		.2byte	0x27c
 1530 062d AB040000 		.4byte	0x4ab
 1531 0631 58       		.byte	0x58
 1532 0632 08       		.uleb128 0x8
 1533 0633 7A050000 		.4byte	.LASF110
 1534 0637 0B       		.byte	0xb
 1535 0638 7D02     		.2byte	0x27d
 1536 063a AD000000 		.4byte	0xad
 1537 063e 5C       		.byte	0x5c
 1538 063f 08       		.uleb128 0x8
 1539 0640 B4010000 		.4byte	.LASF111
 1540 0644 0B       		.byte	0xb
 1541 0645 7E02     		.2byte	0x27e
 1542 0647 AB040000 		.4byte	0x4ab
 1543 064b 60       		.byte	0x60
 1544 064c 08       		.uleb128 0x8
 1545 064d 16040000 		.4byte	.LASF112
 1546 0651 0B       		.byte	0xb
 1547 0652 7F02     		.2byte	0x27f
 1548 0654 AB040000 		.4byte	0x4ab
 1549 0658 64       		.byte	0x64
 1550 0659 08       		.uleb128 0x8
 1551 065a 99060000 		.4byte	.LASF113
 1552 065e 0B       		.byte	0xb
 1553 065f 8002     		.2byte	0x280
 1554 0661 B0040000 		.4byte	0x4b0
 1555 0665 68       		.byte	0x68
 1556 0666 08       		.uleb128 0x8
 1557 0667 E7070000 		.4byte	.LASF114
 1558 066b 0B       		.byte	0xb
 1559 066c 8102     		.2byte	0x281
 1560 066e AB040000 		.4byte	0x4ab
 1561 0672 70       		.byte	0x70
 1562 0673 07       		.uleb128 0x7
 1563 0674 43535200 		.ascii	"CSR\000"
 1564 0678 0B       		.byte	0xb
 1565 0679 8202     		.2byte	0x282
 1566 067b AB040000 		.4byte	0x4ab
 1567 067f 74       		.byte	0x74
 1568 0680 08       		.uleb128 0x8
 1569 0681 8B050000 		.4byte	.LASF115
 1570 0685 0B       		.byte	0xb
 1571 0686 8302     		.2byte	0x283
 1572 0688 B0040000 		.4byte	0x4b0
 1573 068c 78       		.byte	0x78
 1574 068d 08       		.uleb128 0x8
 1575 068e B6070000 		.4byte	.LASF116
 1576 0692 0B       		.byte	0xb
 1577 0693 8402     		.2byte	0x284
 1578 0695 AB040000 		.4byte	0x4ab
 1579 0699 80       		.byte	0x80
 1580 069a 08       		.uleb128 0x8
 1581 069b F4020000 		.4byte	.LASF117
ARM GAS  /tmp/ccmuHrxB.s 			page 52


 1582 069f 0B       		.byte	0xb
 1583 06a0 8502     		.2byte	0x285
 1584 06a2 AB040000 		.4byte	0x4ab
 1585 06a6 84       		.byte	0x84
 1586 06a7 00       		.byte	0
 1587 06a8 15       		.uleb128 0x15
 1588 06a9 BE020000 		.4byte	.LASF118
 1589 06ad 0B       		.byte	0xb
 1590 06ae 8702     		.2byte	0x287
 1591 06b0 19050000 		.4byte	0x519
 1592 06b4 04       		.uleb128 0x4
 1593 06b5 25020000 		.4byte	.LASF119
 1594 06b9 0C       		.byte	0xc
 1595 06ba 65       		.byte	0x65
 1596 06bb 35030000 		.4byte	0x335
 1597 06bf 04       		.uleb128 0x4
 1598 06c0 4F040000 		.4byte	.LASF120
 1599 06c4 0C       		.byte	0xc
 1600 06c5 6D       		.byte	0x6d
 1601 06c6 B8000000 		.4byte	0xb8
 1602 06ca 05       		.uleb128 0x5
 1603 06cb 84070000 		.4byte	.LASF121
 1604 06cf 04       		.byte	0x4
 1605 06d0 0C       		.byte	0xc
 1606 06d1 89       		.byte	0x89
 1607 06d2 E3060000 		.4byte	0x6e3
 1608 06d6 16       		.uleb128 0x16
 1609 06d7 72313300 		.ascii	"r13\000"
 1610 06db 0C       		.byte	0xc
 1611 06dc 8A       		.byte	0x8a
 1612 06dd 5E070000 		.4byte	0x75e
 1613 06e1 00       		.byte	0
 1614 06e2 00       		.byte	0
 1615 06e3 05       		.uleb128 0x5
 1616 06e4 46000000 		.4byte	.LASF122
 1617 06e8 24       		.byte	0x24
 1618 06e9 01       		.byte	0x1
 1619 06ea FD       		.byte	0xfd
 1620 06eb 5E070000 		.4byte	0x75e
 1621 06ef 07       		.uleb128 0x7
 1622 06f0 723400   		.ascii	"r4\000"
 1623 06f3 01       		.byte	0x1
 1624 06f4 1001     		.2byte	0x110
 1625 06f6 B4060000 		.4byte	0x6b4
 1626 06fa 00       		.byte	0
 1627 06fb 07       		.uleb128 0x7
 1628 06fc 723500   		.ascii	"r5\000"
 1629 06ff 01       		.byte	0x1
 1630 0700 1101     		.2byte	0x111
 1631 0702 B4060000 		.4byte	0x6b4
 1632 0706 04       		.byte	0x4
 1633 0707 07       		.uleb128 0x7
 1634 0708 723600   		.ascii	"r6\000"
 1635 070b 01       		.byte	0x1
 1636 070c 1201     		.2byte	0x112
 1637 070e B4060000 		.4byte	0x6b4
 1638 0712 08       		.byte	0x8
ARM GAS  /tmp/ccmuHrxB.s 			page 53


 1639 0713 07       		.uleb128 0x7
 1640 0714 723700   		.ascii	"r7\000"
 1641 0717 01       		.byte	0x1
 1642 0718 1301     		.2byte	0x113
 1643 071a B4060000 		.4byte	0x6b4
 1644 071e 0C       		.byte	0xc
 1645 071f 07       		.uleb128 0x7
 1646 0720 723800   		.ascii	"r8\000"
 1647 0723 01       		.byte	0x1
 1648 0724 1401     		.2byte	0x114
 1649 0726 B4060000 		.4byte	0x6b4
 1650 072a 10       		.byte	0x10
 1651 072b 07       		.uleb128 0x7
 1652 072c 723900   		.ascii	"r9\000"
 1653 072f 01       		.byte	0x1
 1654 0730 1501     		.2byte	0x115
 1655 0732 B4060000 		.4byte	0x6b4
 1656 0736 14       		.byte	0x14
 1657 0737 07       		.uleb128 0x7
 1658 0738 72313000 		.ascii	"r10\000"
 1659 073c 01       		.byte	0x1
 1660 073d 1601     		.2byte	0x116
 1661 073f B4060000 		.4byte	0x6b4
 1662 0743 18       		.byte	0x18
 1663 0744 07       		.uleb128 0x7
 1664 0745 72313100 		.ascii	"r11\000"
 1665 0749 01       		.byte	0x1
 1666 074a 1701     		.2byte	0x117
 1667 074c B4060000 		.4byte	0x6b4
 1668 0750 1C       		.byte	0x1c
 1669 0751 07       		.uleb128 0x7
 1670 0752 6C7200   		.ascii	"lr\000"
 1671 0755 01       		.byte	0x1
 1672 0756 1801     		.2byte	0x118
 1673 0758 B4060000 		.4byte	0x6b4
 1674 075c 20       		.byte	0x20
 1675 075d 00       		.byte	0
 1676 075e 09       		.uleb128 0x9
 1677 075f 04       		.byte	0x4
 1678 0760 E3060000 		.4byte	0x6e3
 1679 0764 14       		.uleb128 0x14
 1680 0765 60       		.byte	0x60
 1681 0766 0D       		.byte	0xd
 1682 0767 A101     		.2byte	0x1a1
 1683 0769 70080000 		.4byte	0x870
 1684 076d 07       		.uleb128 0x7
 1685 076e 43523100 		.ascii	"CR1\000"
 1686 0772 0D       		.byte	0xd
 1687 0773 A201     		.2byte	0x1a2
 1688 0775 AB040000 		.4byte	0x4ab
 1689 0779 00       		.byte	0
 1690 077a 07       		.uleb128 0x7
 1691 077b 43523200 		.ascii	"CR2\000"
 1692 077f 0D       		.byte	0xd
 1693 0780 A301     		.2byte	0x1a3
 1694 0782 AB040000 		.4byte	0x4ab
 1695 0786 04       		.byte	0x4
ARM GAS  /tmp/ccmuHrxB.s 			page 54


 1696 0787 08       		.uleb128 0x8
 1697 0788 D6020000 		.4byte	.LASF123
 1698 078c 0D       		.byte	0xd
 1699 078d A401     		.2byte	0x1a4
 1700 078f AB040000 		.4byte	0x4ab
 1701 0793 08       		.byte	0x8
 1702 0794 08       		.uleb128 0x8
 1703 0795 14000000 		.4byte	.LASF124
 1704 0799 0D       		.byte	0xd
 1705 079a A501     		.2byte	0x1a5
 1706 079c AB040000 		.4byte	0x4ab
 1707 07a0 0C       		.byte	0xc
 1708 07a1 07       		.uleb128 0x7
 1709 07a2 535200   		.ascii	"SR\000"
 1710 07a5 0D       		.byte	0xd
 1711 07a6 A601     		.2byte	0x1a6
 1712 07a8 AB040000 		.4byte	0x4ab
 1713 07ac 10       		.byte	0x10
 1714 07ad 07       		.uleb128 0x7
 1715 07ae 45475200 		.ascii	"EGR\000"
 1716 07b2 0D       		.byte	0xd
 1717 07b3 A701     		.2byte	0x1a7
 1718 07b5 AB040000 		.4byte	0x4ab
 1719 07b9 14       		.byte	0x14
 1720 07ba 08       		.uleb128 0x8
 1721 07bb 47010000 		.4byte	.LASF125
 1722 07bf 0D       		.byte	0xd
 1723 07c0 A801     		.2byte	0x1a8
 1724 07c2 AB040000 		.4byte	0x4ab
 1725 07c6 18       		.byte	0x18
 1726 07c7 08       		.uleb128 0x8
 1727 07c8 4D010000 		.4byte	.LASF126
 1728 07cc 0D       		.byte	0xd
 1729 07cd A901     		.2byte	0x1a9
 1730 07cf AB040000 		.4byte	0x4ab
 1731 07d3 1C       		.byte	0x1c
 1732 07d4 08       		.uleb128 0x8
 1733 07d5 C7010000 		.4byte	.LASF127
 1734 07d9 0D       		.byte	0xd
 1735 07da AA01     		.2byte	0x1aa
 1736 07dc AB040000 		.4byte	0x4ab
 1737 07e0 20       		.byte	0x20
 1738 07e1 07       		.uleb128 0x7
 1739 07e2 434E5400 		.ascii	"CNT\000"
 1740 07e6 0D       		.byte	0xd
 1741 07e7 AB01     		.2byte	0x1ab
 1742 07e9 AB040000 		.4byte	0x4ab
 1743 07ed 24       		.byte	0x24
 1744 07ee 07       		.uleb128 0x7
 1745 07ef 50534300 		.ascii	"PSC\000"
 1746 07f3 0D       		.byte	0xd
 1747 07f4 AC01     		.2byte	0x1ac
 1748 07f6 AB040000 		.4byte	0x4ab
 1749 07fa 28       		.byte	0x28
 1750 07fb 07       		.uleb128 0x7
 1751 07fc 41525200 		.ascii	"ARR\000"
 1752 0800 0D       		.byte	0xd
ARM GAS  /tmp/ccmuHrxB.s 			page 55


 1753 0801 AD01     		.2byte	0x1ad
 1754 0803 AB040000 		.4byte	0x4ab
 1755 0807 2C       		.byte	0x2c
 1756 0808 07       		.uleb128 0x7
 1757 0809 52435200 		.ascii	"RCR\000"
 1758 080d 0D       		.byte	0xd
 1759 080e AE01     		.2byte	0x1ae
 1760 0810 AB040000 		.4byte	0x4ab
 1761 0814 30       		.byte	0x30
 1762 0815 07       		.uleb128 0x7
 1763 0816 43435200 		.ascii	"CCR\000"
 1764 081a 0D       		.byte	0xd
 1765 081b AF01     		.2byte	0x1af
 1766 081d 70080000 		.4byte	0x870
 1767 0821 34       		.byte	0x34
 1768 0822 08       		.uleb128 0x8
 1769 0823 28010000 		.4byte	.LASF128
 1770 0827 0D       		.byte	0xd
 1771 0828 B001     		.2byte	0x1b0
 1772 082a AB040000 		.4byte	0x4ab
 1773 082e 44       		.byte	0x44
 1774 082f 07       		.uleb128 0x7
 1775 0830 44435200 		.ascii	"DCR\000"
 1776 0834 0D       		.byte	0xd
 1777 0835 B101     		.2byte	0x1b1
 1778 0837 AB040000 		.4byte	0x4ab
 1779 083b 48       		.byte	0x48
 1780 083c 08       		.uleb128 0x8
 1781 083d EB060000 		.4byte	.LASF129
 1782 0841 0D       		.byte	0xd
 1783 0842 B201     		.2byte	0x1b2
 1784 0844 AB040000 		.4byte	0x4ab
 1785 0848 4C       		.byte	0x4c
 1786 0849 07       		.uleb128 0x7
 1787 084a 4F5200   		.ascii	"OR\000"
 1788 084d 0D       		.byte	0xd
 1789 084e B301     		.2byte	0x1b3
 1790 0850 AB040000 		.4byte	0x4ab
 1791 0854 50       		.byte	0x50
 1792 0855 08       		.uleb128 0x8
 1793 0856 53010000 		.4byte	.LASF130
 1794 085a 0D       		.byte	0xd
 1795 085b B401     		.2byte	0x1b4
 1796 085d AB040000 		.4byte	0x4ab
 1797 0861 54       		.byte	0x54
 1798 0862 08       		.uleb128 0x8
 1799 0863 85060000 		.4byte	.LASF131
 1800 0867 0D       		.byte	0xd
 1801 0868 B501     		.2byte	0x1b5
 1802 086a 75080000 		.4byte	0x875
 1803 086e 58       		.byte	0x58
 1804 086f 00       		.byte	0
 1805 0870 11       		.uleb128 0x11
 1806 0871 C0040000 		.4byte	0x4c0
 1807 0875 11       		.uleb128 0x11
 1808 0876 B0040000 		.4byte	0x4b0
 1809 087a 15       		.uleb128 0x15
ARM GAS  /tmp/ccmuHrxB.s 			page 56


 1810 087b CC070000 		.4byte	.LASF132
 1811 087f 0D       		.byte	0xd
 1812 0880 B601     		.2byte	0x1b6
 1813 0882 64070000 		.4byte	0x764
 1814 0886 17       		.uleb128 0x17
 1815 0887 10       		.byte	0x10
 1816 0888 0E       		.byte	0xe
 1817 0889 51       		.byte	0x51
 1818 088a BF080000 		.4byte	0x8bf
 1819 088e 06       		.uleb128 0x6
 1820 088f 6E010000 		.4byte	.LASF133
 1821 0893 0E       		.byte	0xe
 1822 0894 55       		.byte	0x55
 1823 0895 31010000 		.4byte	0x131
 1824 0899 00       		.byte	0
 1825 089a 06       		.uleb128 0x6
 1826 089b CC010000 		.4byte	.LASF134
 1827 089f 0E       		.byte	0xe
 1828 08a0 59       		.byte	0x59
 1829 08a1 58020000 		.4byte	0x258
 1830 08a5 04       		.byte	0x4
 1831 08a6 06       		.uleb128 0x6
 1832 08a7 4D080000 		.4byte	.LASF135
 1833 08ab 0E       		.byte	0xe
 1834 08ac 5D       		.byte	0x5d
 1835 08ad 35030000 		.4byte	0x335
 1836 08b1 08       		.byte	0x8
 1837 08b2 06       		.uleb128 0x6
 1838 08b3 CD000000 		.4byte	.LASF136
 1839 08b7 0E       		.byte	0xe
 1840 08b8 61       		.byte	0x61
 1841 08b9 97000000 		.4byte	0x97
 1842 08bd 0C       		.byte	0xc
 1843 08be 00       		.byte	0
 1844 08bf 04       		.uleb128 0x4
 1845 08c0 95000000 		.4byte	.LASF137
 1846 08c4 0E       		.byte	0xe
 1847 08c5 62       		.byte	0x62
 1848 08c6 86080000 		.4byte	0x886
 1849 08ca 18       		.uleb128 0x18
 1850 08cb 0804     		.2byte	0x408
 1851 08cd 0E       		.byte	0xe
 1852 08ce 67       		.byte	0x67
 1853 08cf F8080000 		.4byte	0x8f8
 1854 08d3 06       		.uleb128 0x6
 1855 08d4 0D020000 		.4byte	.LASF138
 1856 08d8 0E       		.byte	0xe
 1857 08d9 6B       		.byte	0x6b
 1858 08da 2C000000 		.4byte	0x2c
 1859 08de 00       		.byte	0
 1860 08df 06       		.uleb128 0x6
 1861 08e0 00000000 		.4byte	.LASF139
 1862 08e4 0E       		.byte	0xe
 1863 08e5 6F       		.byte	0x6f
 1864 08e6 F8080000 		.4byte	0x8f8
 1865 08ea 04       		.byte	0x4
 1866 08eb 06       		.uleb128 0x6
ARM GAS  /tmp/ccmuHrxB.s 			page 57


 1867 08ec E8010000 		.4byte	.LASF140
 1868 08f0 0E       		.byte	0xe
 1869 08f1 73       		.byte	0x73
 1870 08f2 FE080000 		.4byte	0x8fe
 1871 08f6 08       		.byte	0x8
 1872 08f7 00       		.byte	0
 1873 08f8 09       		.uleb128 0x9
 1874 08f9 04       		.byte	0x4
 1875 08fa BF080000 		.4byte	0x8bf
 1876 08fe 12       		.uleb128 0x12
 1877 08ff BF080000 		.4byte	0x8bf
 1878 0903 0E090000 		.4byte	0x90e
 1879 0907 13       		.uleb128 0x13
 1880 0908 A4040000 		.4byte	0x4a4
 1881 090c 3F       		.byte	0x3f
 1882 090d 00       		.byte	0
 1883 090e 04       		.uleb128 0x4
 1884 090f BB000000 		.4byte	.LASF141
 1885 0913 0E       		.byte	0xe
 1886 0914 74       		.byte	0x74
 1887 0915 CA080000 		.4byte	0x8ca
 1888 0919 17       		.uleb128 0x17
 1889 091a 04       		.byte	0x4
 1890 091b 0F       		.byte	0xf
 1891 091c 38       		.byte	0x38
 1892 091d 2E090000 		.4byte	0x92e
 1893 0921 06       		.uleb128 0x6
 1894 0922 64070000 		.4byte	.LASF142
 1895 0926 0F       		.byte	0xf
 1896 0927 3C       		.byte	0x3c
 1897 0928 C3000000 		.4byte	0xc3
 1898 092c 00       		.byte	0
 1899 092d 00       		.byte	0
 1900 092e 04       		.uleb128 0x4
 1901 092f 09050000 		.4byte	.LASF143
 1902 0933 0F       		.byte	0xf
 1903 0934 3D       		.byte	0x3d
 1904 0935 19090000 		.4byte	0x919
 1905 0939 17       		.uleb128 0x17
 1906 093a 18       		.byte	0x18
 1907 093b 0F       		.byte	0xf
 1908 093c 48       		.byte	0x48
 1909 093d 7C090000 		.4byte	0x97c
 1910 0941 06       		.uleb128 0x6
 1911 0942 17070000 		.4byte	.LASF144
 1912 0946 0F       		.byte	0xf
 1913 0947 49       		.byte	0x49
 1914 0948 C3000000 		.4byte	0xc3
 1915 094c 00       		.byte	0
 1916 094d 06       		.uleb128 0x6
 1917 094e 7C000000 		.4byte	.LASF145
 1918 0952 0F       		.byte	0xf
 1919 0953 4A       		.byte	0x4a
 1920 0954 C3000000 		.4byte	0xc3
 1921 0958 04       		.byte	0x4
 1922 0959 06       		.uleb128 0x6
 1923 095a 93010000 		.4byte	.LASF146
ARM GAS  /tmp/ccmuHrxB.s 			page 58


 1924 095e 0F       		.byte	0xf
 1925 095f 4B       		.byte	0x4b
 1926 0960 C3000000 		.4byte	0xc3
 1927 0964 08       		.byte	0x8
 1928 0965 16       		.uleb128 0x16
 1929 0966 6E00     		.ascii	"n\000"
 1930 0968 0F       		.byte	0xf
 1931 0969 4C       		.byte	0x4c
 1932 096a 26010000 		.4byte	0x126
 1933 096e 0C       		.byte	0xc
 1934 096f 06       		.uleb128 0x6
 1935 0970 38050000 		.4byte	.LASF147
 1936 0974 0F       		.byte	0xf
 1937 0975 4D       		.byte	0x4d
 1938 0976 CE000000 		.4byte	0xce
 1939 097a 10       		.byte	0x10
 1940 097b 00       		.byte	0
 1941 097c 04       		.uleb128 0x4
 1942 097d 82000000 		.4byte	.LASF148
 1943 0981 0F       		.byte	0xf
 1944 0982 4E       		.byte	0x4e
 1945 0983 39090000 		.4byte	0x939
 1946 0987 17       		.uleb128 0x17
 1947 0988 38       		.byte	0x38
 1948 0989 10       		.byte	0x10
 1949 098a 38       		.byte	0x38
 1950 098b C0090000 		.4byte	0x9c0
 1951 098f 06       		.uleb128 0x6
 1952 0990 CA020000 		.4byte	.LASF149
 1953 0994 10       		.byte	0x10
 1954 0995 39       		.byte	0x39
 1955 0996 26010000 		.4byte	0x126
 1956 099a 00       		.byte	0
 1957 099b 06       		.uleb128 0x6
 1958 099c B0050000 		.4byte	.LASF150
 1959 09a0 10       		.byte	0x10
 1960 09a1 3A       		.byte	0x3a
 1961 09a2 26010000 		.4byte	0x126
 1962 09a6 04       		.byte	0x4
 1963 09a7 06       		.uleb128 0x6
 1964 09a8 3A080000 		.4byte	.LASF151
 1965 09ac 10       		.byte	0x10
 1966 09ad 3B       		.byte	0x3b
 1967 09ae 7C090000 		.4byte	0x97c
 1968 09b2 08       		.byte	0x8
 1969 09b3 06       		.uleb128 0x6
 1970 09b4 20040000 		.4byte	.LASF152
 1971 09b8 10       		.byte	0x10
 1972 09b9 3D       		.byte	0x3d
 1973 09ba 7C090000 		.4byte	0x97c
 1974 09be 20       		.byte	0x20
 1975 09bf 00       		.byte	0
 1976 09c0 04       		.uleb128 0x4
 1977 09c1 DB020000 		.4byte	.LASF153
 1978 09c5 10       		.byte	0x10
 1979 09c6 3F       		.byte	0x3f
 1980 09c7 87090000 		.4byte	0x987
ARM GAS  /tmp/ccmuHrxB.s 			page 59


 1981 09cb 19       		.uleb128 0x19
 1982 09cc 04       		.byte	0x4
 1983 09cd 0A       		.byte	0xa
 1984 09ce FA       		.byte	0xfa
 1985 09cf 280A0000 		.4byte	0xa28
 1986 09d3 1A       		.uleb128 0x1a
 1987 09d4 1F000000 		.4byte	.LASF154
 1988 09d8 0A       		.byte	0xa
 1989 09d9 0101     		.2byte	0x101
 1990 09db 05010000 		.4byte	0x105
 1991 09df 1A       		.uleb128 0x1a
 1992 09e0 DD000000 		.4byte	.LASF155
 1993 09e4 0A       		.byte	0xa
 1994 09e5 0801     		.2byte	0x108
 1995 09e7 05010000 		.4byte	0x105
 1996 09eb 1A       		.uleb128 0x1a
 1997 09ec 0F040000 		.4byte	.LASF156
 1998 09f0 0A       		.byte	0xa
 1999 09f1 0F01     		.2byte	0x10f
 2000 09f3 35030000 		.4byte	0x335
 2001 09f7 1A       		.uleb128 0x1a
 2002 09f8 19000000 		.4byte	.LASF157
 2003 09fc 0A       		.byte	0xa
 2004 09fd 1601     		.2byte	0x116
 2005 09ff 280A0000 		.4byte	0xa28
 2006 0a03 1A       		.uleb128 0x1a
 2007 0a04 AC020000 		.4byte	.LASF158
 2008 0a08 0A       		.byte	0xa
 2009 0a09 1E01     		.2byte	0x11e
 2010 0a0b 530A0000 		.4byte	0xa53
 2011 0a0f 1A       		.uleb128 0x1a
 2012 0a10 AC060000 		.4byte	.LASF159
 2013 0a14 0A       		.byte	0xa
 2014 0a15 2701     		.2byte	0x127
 2015 0a17 8A0A0000 		.4byte	0xa8a
 2016 0a1b 1A       		.uleb128 0x1a
 2017 0a1c 41060000 		.4byte	.LASF160
 2018 0a20 0A       		.byte	0xa
 2019 0a21 2F01     		.2byte	0x12f
 2020 0a23 10010000 		.4byte	0x110
 2021 0a27 00       		.byte	0
 2022 0a28 09       		.uleb128 0x9
 2023 0a29 04       		.byte	0x4
 2024 0a2a 4D020000 		.4byte	0x24d
 2025 0a2e 05       		.uleb128 0x5
 2026 0a2f 78060000 		.4byte	.LASF161
 2027 0a33 0C       		.byte	0xc
 2028 0a34 11       		.byte	0x11
 2029 0a35 34       		.byte	0x34
 2030 0a36 530A0000 		.4byte	0xa53
 2031 0a3a 06       		.uleb128 0x6
 2032 0a3b 8D040000 		.4byte	.LASF162
 2033 0a3f 11       		.byte	0x11
 2034 0a40 35       		.byte	0x35
 2035 0a41 82020000 		.4byte	0x282
 2036 0a45 00       		.byte	0
 2037 0a46 06       		.uleb128 0x6
ARM GAS  /tmp/ccmuHrxB.s 			page 60


 2038 0a47 D0020000 		.4byte	.LASF163
 2039 0a4b 11       		.byte	0x11
 2040 0a4c 37       		.byte	0x37
 2041 0a4d 1B010000 		.4byte	0x11b
 2042 0a51 08       		.byte	0x8
 2043 0a52 00       		.byte	0
 2044 0a53 09       		.uleb128 0x9
 2045 0a54 04       		.byte	0x4
 2046 0a55 2E0A0000 		.4byte	0xa2e
 2047 0a59 05       		.uleb128 0x5
 2048 0a5a 73070000 		.4byte	.LASF164
 2049 0a5e 10       		.byte	0x10
 2050 0a5f 12       		.byte	0x12
 2051 0a60 39       		.byte	0x39
 2052 0a61 8A0A0000 		.4byte	0xa8a
 2053 0a65 06       		.uleb128 0x6
 2054 0a66 76010000 		.4byte	.LASF165
 2055 0a6a 12       		.byte	0x12
 2056 0a6b 3A       		.byte	0x3a
 2057 0a6c 82020000 		.4byte	0x282
 2058 0a70 00       		.byte	0
 2059 0a71 06       		.uleb128 0x6
 2060 0a72 45080000 		.4byte	.LASF166
 2061 0a76 12       		.byte	0x12
 2062 0a77 3C       		.byte	0x3c
 2063 0a78 58020000 		.4byte	0x258
 2064 0a7c 08       		.byte	0x8
 2065 0a7d 06       		.uleb128 0x6
 2066 0a7e 1C070000 		.4byte	.LASF167
 2067 0a82 12       		.byte	0x12
 2068 0a83 3E       		.byte	0x3e
 2069 0a84 CE0A0000 		.4byte	0xace
 2070 0a88 0C       		.byte	0xc
 2071 0a89 00       		.byte	0
 2072 0a8a 09       		.uleb128 0x9
 2073 0a8b 04       		.byte	0x4
 2074 0a8c 590A0000 		.4byte	0xa59
 2075 0a90 09       		.uleb128 0x9
 2076 0a91 04       		.byte	0x4
 2077 0a92 960A0000 		.4byte	0xa96
 2078 0a96 1B       		.uleb128 0x1b
 2079 0a97 9B0A0000 		.4byte	0xa9b
 2080 0a9b 03       		.uleb128 0x3
 2081 0a9c 01       		.byte	0x1
 2082 0a9d 08       		.byte	0x8
 2083 0a9e E6060000 		.4byte	.LASF168
 2084 0aa2 09       		.uleb128 0x9
 2085 0aa3 04       		.byte	0x4
 2086 0aa4 BF060000 		.4byte	0x6bf
 2087 0aa8 09       		.uleb128 0x9
 2088 0aa9 04       		.byte	0x4
 2089 0aaa 37030000 		.4byte	0x337
 2090 0aae 11       		.uleb128 0x11
 2091 0aaf 900A0000 		.4byte	0xa90
 2092 0ab3 12       		.uleb128 0x12
 2093 0ab4 BF060000 		.4byte	0x6bf
 2094 0ab8 C30A0000 		.4byte	0xac3
ARM GAS  /tmp/ccmuHrxB.s 			page 61


 2095 0abc 13       		.uleb128 0x13
 2096 0abd A4040000 		.4byte	0x4a4
 2097 0ac1 1E       		.byte	0x1e
 2098 0ac2 00       		.byte	0
 2099 0ac3 04       		.uleb128 0x4
 2100 0ac4 60020000 		.4byte	.LASF169
 2101 0ac8 12       		.byte	0x12
 2102 0ac9 34       		.byte	0x34
 2103 0aca 590A0000 		.4byte	0xa59
 2104 0ace 09       		.uleb128 0x9
 2105 0acf 04       		.byte	0x4
 2106 0ad0 C30A0000 		.4byte	0xac3
 2107 0ad4 03       		.uleb128 0x3
 2108 0ad5 01       		.byte	0x1
 2109 0ad6 02       		.byte	0x2
 2110 0ad7 B9050000 		.4byte	.LASF170
 2111 0adb 1C       		.uleb128 0x1c
 2112 0adc 4C070000 		.4byte	.LASF186
 2113 0ae0 02       		.byte	0x2
 2114 0ae1 2202     		.2byte	0x222
 2115 0ae3 03       		.byte	0x3
 2116 0ae4 F50A0000 		.4byte	0xaf5
 2117 0ae8 1D       		.uleb128 0x1d
 2118 0ae9 68020000 		.4byte	.LASF187
 2119 0aed 02       		.byte	0x2
 2120 0aee 2202     		.2byte	0x222
 2121 0af0 AD000000 		.4byte	0xad
 2122 0af4 00       		.byte	0
 2123 0af5 1E       		.uleb128 0x1e
 2124 0af6 72000000 		.4byte	.LASF171
 2125 0afa 01       		.byte	0x1
 2126 0afb C801     		.2byte	0x1c8
 2127 0afd 00000000 		.4byte	.LFB127
 2128 0b01 10000000 		.4byte	.LFE127-.LFB127
 2129 0b05 01       		.uleb128 0x1
 2130 0b06 9C       		.byte	0x9c
 2131 0b07 250B0000 		.4byte	0xb25
 2132 0b0b 1F       		.uleb128 0x1f
 2133 0b0c DB0A0000 		.4byte	0xadb
 2134 0b10 06000000 		.4byte	.LBB6
 2135 0b14 06000000 		.4byte	.LBE6-.LBB6
 2136 0b18 01       		.byte	0x1
 2137 0b19 D001     		.2byte	0x1d0
 2138 0b1b 20       		.uleb128 0x20
 2139 0b1c E80A0000 		.4byte	0xae8
 2140 0b20 02       		.uleb128 0x2
 2141 0b21 91       		.byte	0x91
 2142 0b22 7C       		.sleb128 -4
 2143 0b23 00       		.byte	0
 2144 0b24 00       		.byte	0
 2145 0b25 1E       		.uleb128 0x1e
 2146 0b26 87010000 		.4byte	.LASF172
 2147 0b2a 01       		.byte	0x1
 2148 0b2b E001     		.2byte	0x1e0
 2149 0b2d 00000000 		.4byte	.LFB128
 2150 0b31 10000000 		.4byte	.LFE128-.LFB128
 2151 0b35 01       		.uleb128 0x1
ARM GAS  /tmp/ccmuHrxB.s 			page 62


 2152 0b36 9C       		.byte	0x9c
 2153 0b37 550B0000 		.4byte	0xb55
 2154 0b3b 1F       		.uleb128 0x1f
 2155 0b3c DB0A0000 		.4byte	0xadb
 2156 0b40 06000000 		.4byte	.LBB8
 2157 0b44 06000000 		.4byte	.LBE8-.LBB8
 2158 0b48 01       		.byte	0x1
 2159 0b49 E301     		.2byte	0x1e3
 2160 0b4b 20       		.uleb128 0x20
 2161 0b4c E80A0000 		.4byte	0xae8
 2162 0b50 02       		.uleb128 0x2
 2163 0b51 91       		.byte	0x91
 2164 0b52 7C       		.sleb128 -4
 2165 0b53 00       		.byte	0
 2166 0b54 00       		.byte	0
 2167 0b55 21       		.uleb128 0x21
 2168 0b56 9C070000 		.4byte	.LASF173
 2169 0b5a 01       		.byte	0x1
 2170 0b5b EF01     		.2byte	0x1ef
 2171 0b5d 00000000 		.4byte	.LFB129
 2172 0b61 08000000 		.4byte	.LFE129-.LFB129
 2173 0b65 01       		.uleb128 0x1
 2174 0b66 9C       		.byte	0x9c
 2175 0b67 21       		.uleb128 0x21
 2176 0b68 F9060000 		.4byte	.LASF174
 2177 0b6c 01       		.byte	0x1
 2178 0b6d FA01     		.2byte	0x1fa
 2179 0b6f 00000000 		.4byte	.LFB130
 2180 0b73 08000000 		.4byte	.LFE130-.LFB130
 2181 0b77 01       		.uleb128 0x1
 2182 0b78 9C       		.byte	0x9c
 2183 0b79 21       		.uleb128 0x21
 2184 0b7a FA070000 		.4byte	.LASF175
 2185 0b7e 03       		.byte	0x3
 2186 0b7f 8201     		.2byte	0x182
 2187 0b81 00000000 		.4byte	.LFB169
 2188 0b85 10000000 		.4byte	.LFE169-.LFB169
 2189 0b89 01       		.uleb128 0x1
 2190 0b8a 9C       		.byte	0x9c
 2191 0b8b 21       		.uleb128 0x21
 2192 0b8c 9D050000 		.4byte	.LASF176
 2193 0b90 03       		.byte	0x3
 2194 0b91 9601     		.2byte	0x196
 2195 0b93 00000000 		.4byte	.LFB170
 2196 0b97 10000000 		.4byte	.LFE170-.LFB170
 2197 0b9b 01       		.uleb128 0x1
 2198 0b9c 9C       		.byte	0x9c
 2199 0b9d 21       		.uleb128 0x21
 2200 0b9e 3D020000 		.4byte	.LASF177
 2201 0ba2 04       		.byte	0x4
 2202 0ba3 0102     		.2byte	0x201
 2203 0ba5 00000000 		.4byte	.LFB247
 2204 0ba9 08000000 		.4byte	.LFE247-.LFB247
 2205 0bad 01       		.uleb128 0x1
 2206 0bae 9C       		.byte	0x9c
 2207 0baf 21       		.uleb128 0x21
 2208 0bb0 07010000 		.4byte	.LASF178
ARM GAS  /tmp/ccmuHrxB.s 			page 63


 2209 0bb4 04       		.byte	0x4
 2210 0bb5 0C02     		.2byte	0x20c
 2211 0bb7 00000000 		.4byte	.LFB248
 2212 0bbb 08000000 		.4byte	.LFE248-.LFB248
 2213 0bbf 01       		.uleb128 0x1
 2214 0bc0 9C       		.byte	0x9c
 2215 0bc1 21       		.uleb128 0x21
 2216 0bc2 5A040000 		.4byte	.LASF179
 2217 0bc6 04       		.byte	0x4
 2218 0bc7 4702     		.2byte	0x247
 2219 0bc9 00000000 		.4byte	.LFB252
 2220 0bcd 08000000 		.4byte	.LFE252-.LFB252
 2221 0bd1 01       		.uleb128 0x1
 2222 0bd2 9C       		.byte	0x9c
 2223 0bd3 22       		.uleb128 0x22
 2224 0bd4 7E010000 		.4byte	.LASF180
 2225 0bd8 05       		.byte	0x5
 2226 0bd9 EF       		.byte	0xef
 2227 0bda 00000000 		.4byte	.LFB272
 2228 0bde 36000000 		.4byte	.LFE272-.LFB272
 2229 0be2 01       		.uleb128 0x1
 2230 0be3 9C       		.byte	0x9c
 2231 0be4 23       		.uleb128 0x23
 2232 0be5 1C010000 		.4byte	.LASF181
 2233 0be9 05       		.byte	0x5
 2234 0bea 0B01     		.2byte	0x10b
 2235 0bec 00000000 		.4byte	.LFB273
 2236 0bf0 80000000 		.4byte	.LFE273-.LFB273
 2237 0bf4 01       		.uleb128 0x1
 2238 0bf5 9C       		.byte	0x9c
 2239 0bf6 24       		.uleb128 0x24
 2240 0bf7 07060000 		.4byte	.LASF182
 2241 0bfb 13       		.byte	0x13
 2242 0bfc FA06     		.2byte	0x6fa
 2243 0bfe 020C0000 		.4byte	0xc02
 2244 0c02 11       		.uleb128 0x11
 2245 0c03 A2000000 		.4byte	0xa2
 2246 0c07 25       		.uleb128 0x25
 2247 0c08 636800   		.ascii	"ch\000"
 2248 0c0b 0A       		.byte	0xa
 2249 0c0c 0902     		.2byte	0x209
 2250 0c0e 2C040000 		.4byte	0x42c
 2251 0c12 00       		.byte	0
 2252              		.section	.debug_abbrev,"",%progbits
 2253              	.Ldebug_abbrev0:
 2254 0000 01       		.uleb128 0x1
 2255 0001 11       		.uleb128 0x11
 2256 0002 01       		.byte	0x1
 2257 0003 25       		.uleb128 0x25
 2258 0004 0E       		.uleb128 0xe
 2259 0005 13       		.uleb128 0x13
 2260 0006 0B       		.uleb128 0xb
 2261 0007 03       		.uleb128 0x3
 2262 0008 0E       		.uleb128 0xe
 2263 0009 1B       		.uleb128 0x1b
 2264 000a 0E       		.uleb128 0xe
 2265 000b 55       		.uleb128 0x55
ARM GAS  /tmp/ccmuHrxB.s 			page 64


 2266 000c 17       		.uleb128 0x17
 2267 000d 11       		.uleb128 0x11
 2268 000e 01       		.uleb128 0x1
 2269 000f 10       		.uleb128 0x10
 2270 0010 17       		.uleb128 0x17
 2271 0011 00       		.byte	0
 2272 0012 00       		.byte	0
 2273 0013 02       		.uleb128 0x2
 2274 0014 24       		.uleb128 0x24
 2275 0015 00       		.byte	0
 2276 0016 0B       		.uleb128 0xb
 2277 0017 0B       		.uleb128 0xb
 2278 0018 3E       		.uleb128 0x3e
 2279 0019 0B       		.uleb128 0xb
 2280 001a 03       		.uleb128 0x3
 2281 001b 08       		.uleb128 0x8
 2282 001c 00       		.byte	0
 2283 001d 00       		.byte	0
 2284 001e 03       		.uleb128 0x3
 2285 001f 24       		.uleb128 0x24
 2286 0020 00       		.byte	0
 2287 0021 0B       		.uleb128 0xb
 2288 0022 0B       		.uleb128 0xb
 2289 0023 3E       		.uleb128 0x3e
 2290 0024 0B       		.uleb128 0xb
 2291 0025 03       		.uleb128 0x3
 2292 0026 0E       		.uleb128 0xe
 2293 0027 00       		.byte	0
 2294 0028 00       		.byte	0
 2295 0029 04       		.uleb128 0x4
 2296 002a 16       		.uleb128 0x16
 2297 002b 00       		.byte	0
 2298 002c 03       		.uleb128 0x3
 2299 002d 0E       		.uleb128 0xe
 2300 002e 3A       		.uleb128 0x3a
 2301 002f 0B       		.uleb128 0xb
 2302 0030 3B       		.uleb128 0x3b
 2303 0031 0B       		.uleb128 0xb
 2304 0032 49       		.uleb128 0x49
 2305 0033 13       		.uleb128 0x13
 2306 0034 00       		.byte	0
 2307 0035 00       		.byte	0
 2308 0036 05       		.uleb128 0x5
 2309 0037 13       		.uleb128 0x13
 2310 0038 01       		.byte	0x1
 2311 0039 03       		.uleb128 0x3
 2312 003a 0E       		.uleb128 0xe
 2313 003b 0B       		.uleb128 0xb
 2314 003c 0B       		.uleb128 0xb
 2315 003d 3A       		.uleb128 0x3a
 2316 003e 0B       		.uleb128 0xb
 2317 003f 3B       		.uleb128 0x3b
 2318 0040 0B       		.uleb128 0xb
 2319 0041 01       		.uleb128 0x1
 2320 0042 13       		.uleb128 0x13
 2321 0043 00       		.byte	0
 2322 0044 00       		.byte	0
ARM GAS  /tmp/ccmuHrxB.s 			page 65


 2323 0045 06       		.uleb128 0x6
 2324 0046 0D       		.uleb128 0xd
 2325 0047 00       		.byte	0
 2326 0048 03       		.uleb128 0x3
 2327 0049 0E       		.uleb128 0xe
 2328 004a 3A       		.uleb128 0x3a
 2329 004b 0B       		.uleb128 0xb
 2330 004c 3B       		.uleb128 0x3b
 2331 004d 0B       		.uleb128 0xb
 2332 004e 49       		.uleb128 0x49
 2333 004f 13       		.uleb128 0x13
 2334 0050 38       		.uleb128 0x38
 2335 0051 0B       		.uleb128 0xb
 2336 0052 00       		.byte	0
 2337 0053 00       		.byte	0
 2338 0054 07       		.uleb128 0x7
 2339 0055 0D       		.uleb128 0xd
 2340 0056 00       		.byte	0
 2341 0057 03       		.uleb128 0x3
 2342 0058 08       		.uleb128 0x8
 2343 0059 3A       		.uleb128 0x3a
 2344 005a 0B       		.uleb128 0xb
 2345 005b 3B       		.uleb128 0x3b
 2346 005c 05       		.uleb128 0x5
 2347 005d 49       		.uleb128 0x49
 2348 005e 13       		.uleb128 0x13
 2349 005f 38       		.uleb128 0x38
 2350 0060 0B       		.uleb128 0xb
 2351 0061 00       		.byte	0
 2352 0062 00       		.byte	0
 2353 0063 08       		.uleb128 0x8
 2354 0064 0D       		.uleb128 0xd
 2355 0065 00       		.byte	0
 2356 0066 03       		.uleb128 0x3
 2357 0067 0E       		.uleb128 0xe
 2358 0068 3A       		.uleb128 0x3a
 2359 0069 0B       		.uleb128 0xb
 2360 006a 3B       		.uleb128 0x3b
 2361 006b 05       		.uleb128 0x5
 2362 006c 49       		.uleb128 0x49
 2363 006d 13       		.uleb128 0x13
 2364 006e 38       		.uleb128 0x38
 2365 006f 0B       		.uleb128 0xb
 2366 0070 00       		.byte	0
 2367 0071 00       		.byte	0
 2368 0072 09       		.uleb128 0x9
 2369 0073 0F       		.uleb128 0xf
 2370 0074 00       		.byte	0
 2371 0075 0B       		.uleb128 0xb
 2372 0076 0B       		.uleb128 0xb
 2373 0077 49       		.uleb128 0x49
 2374 0078 13       		.uleb128 0x13
 2375 0079 00       		.byte	0
 2376 007a 00       		.byte	0
 2377 007b 0A       		.uleb128 0xa
 2378 007c 13       		.uleb128 0x13
 2379 007d 01       		.byte	0x1
ARM GAS  /tmp/ccmuHrxB.s 			page 66


 2380 007e 03       		.uleb128 0x3
 2381 007f 0E       		.uleb128 0xe
 2382 0080 0B       		.uleb128 0xb
 2383 0081 0B       		.uleb128 0xb
 2384 0082 3A       		.uleb128 0x3a
 2385 0083 0B       		.uleb128 0xb
 2386 0084 3B       		.uleb128 0x3b
 2387 0085 05       		.uleb128 0x5
 2388 0086 01       		.uleb128 0x1
 2389 0087 13       		.uleb128 0x13
 2390 0088 00       		.byte	0
 2391 0089 00       		.byte	0
 2392 008a 0B       		.uleb128 0xb
 2393 008b 15       		.uleb128 0x15
 2394 008c 01       		.byte	0x1
 2395 008d 27       		.uleb128 0x27
 2396 008e 19       		.uleb128 0x19
 2397 008f 01       		.uleb128 0x1
 2398 0090 13       		.uleb128 0x13
 2399 0091 00       		.byte	0
 2400 0092 00       		.byte	0
 2401 0093 0C       		.uleb128 0xc
 2402 0094 05       		.uleb128 0x5
 2403 0095 00       		.byte	0
 2404 0096 49       		.uleb128 0x49
 2405 0097 13       		.uleb128 0x13
 2406 0098 00       		.byte	0
 2407 0099 00       		.byte	0
 2408 009a 0D       		.uleb128 0xd
 2409 009b 0F       		.uleb128 0xf
 2410 009c 00       		.byte	0
 2411 009d 0B       		.uleb128 0xb
 2412 009e 0B       		.uleb128 0xb
 2413 009f 00       		.byte	0
 2414 00a0 00       		.byte	0
 2415 00a1 0E       		.uleb128 0xe
 2416 00a2 13       		.uleb128 0x13
 2417 00a3 01       		.byte	0x1
 2418 00a4 03       		.uleb128 0x3
 2419 00a5 0E       		.uleb128 0xe
 2420 00a6 0B       		.uleb128 0xb
 2421 00a7 05       		.uleb128 0x5
 2422 00a8 3A       		.uleb128 0x3a
 2423 00a9 0B       		.uleb128 0xb
 2424 00aa 3B       		.uleb128 0x3b
 2425 00ab 05       		.uleb128 0x5
 2426 00ac 01       		.uleb128 0x1
 2427 00ad 13       		.uleb128 0x13
 2428 00ae 00       		.byte	0
 2429 00af 00       		.byte	0
 2430 00b0 0F       		.uleb128 0xf
 2431 00b1 0D       		.uleb128 0xd
 2432 00b2 00       		.byte	0
 2433 00b3 03       		.uleb128 0x3
 2434 00b4 0E       		.uleb128 0xe
 2435 00b5 3A       		.uleb128 0x3a
 2436 00b6 0B       		.uleb128 0xb
ARM GAS  /tmp/ccmuHrxB.s 			page 67


 2437 00b7 3B       		.uleb128 0x3b
 2438 00b8 05       		.uleb128 0x5
 2439 00b9 49       		.uleb128 0x49
 2440 00ba 13       		.uleb128 0x13
 2441 00bb 38       		.uleb128 0x38
 2442 00bc 05       		.uleb128 0x5
 2443 00bd 00       		.byte	0
 2444 00be 00       		.byte	0
 2445 00bf 10       		.uleb128 0x10
 2446 00c0 0D       		.uleb128 0xd
 2447 00c1 00       		.byte	0
 2448 00c2 03       		.uleb128 0x3
 2449 00c3 08       		.uleb128 0x8
 2450 00c4 3A       		.uleb128 0x3a
 2451 00c5 0B       		.uleb128 0xb
 2452 00c6 3B       		.uleb128 0x3b
 2453 00c7 05       		.uleb128 0x5
 2454 00c8 49       		.uleb128 0x49
 2455 00c9 13       		.uleb128 0x13
 2456 00ca 38       		.uleb128 0x38
 2457 00cb 05       		.uleb128 0x5
 2458 00cc 00       		.byte	0
 2459 00cd 00       		.byte	0
 2460 00ce 11       		.uleb128 0x11
 2461 00cf 35       		.uleb128 0x35
 2462 00d0 00       		.byte	0
 2463 00d1 49       		.uleb128 0x49
 2464 00d2 13       		.uleb128 0x13
 2465 00d3 00       		.byte	0
 2466 00d4 00       		.byte	0
 2467 00d5 12       		.uleb128 0x12
 2468 00d6 01       		.uleb128 0x1
 2469 00d7 01       		.byte	0x1
 2470 00d8 49       		.uleb128 0x49
 2471 00d9 13       		.uleb128 0x13
 2472 00da 01       		.uleb128 0x1
 2473 00db 13       		.uleb128 0x13
 2474 00dc 00       		.byte	0
 2475 00dd 00       		.byte	0
 2476 00de 13       		.uleb128 0x13
 2477 00df 21       		.uleb128 0x21
 2478 00e0 00       		.byte	0
 2479 00e1 49       		.uleb128 0x49
 2480 00e2 13       		.uleb128 0x13
 2481 00e3 2F       		.uleb128 0x2f
 2482 00e4 0B       		.uleb128 0xb
 2483 00e5 00       		.byte	0
 2484 00e6 00       		.byte	0
 2485 00e7 14       		.uleb128 0x14
 2486 00e8 13       		.uleb128 0x13
 2487 00e9 01       		.byte	0x1
 2488 00ea 0B       		.uleb128 0xb
 2489 00eb 0B       		.uleb128 0xb
 2490 00ec 3A       		.uleb128 0x3a
 2491 00ed 0B       		.uleb128 0xb
 2492 00ee 3B       		.uleb128 0x3b
 2493 00ef 05       		.uleb128 0x5
ARM GAS  /tmp/ccmuHrxB.s 			page 68


 2494 00f0 01       		.uleb128 0x1
 2495 00f1 13       		.uleb128 0x13
 2496 00f2 00       		.byte	0
 2497 00f3 00       		.byte	0
 2498 00f4 15       		.uleb128 0x15
 2499 00f5 16       		.uleb128 0x16
 2500 00f6 00       		.byte	0
 2501 00f7 03       		.uleb128 0x3
 2502 00f8 0E       		.uleb128 0xe
 2503 00f9 3A       		.uleb128 0x3a
 2504 00fa 0B       		.uleb128 0xb
 2505 00fb 3B       		.uleb128 0x3b
 2506 00fc 05       		.uleb128 0x5
 2507 00fd 49       		.uleb128 0x49
 2508 00fe 13       		.uleb128 0x13
 2509 00ff 00       		.byte	0
 2510 0100 00       		.byte	0
 2511 0101 16       		.uleb128 0x16
 2512 0102 0D       		.uleb128 0xd
 2513 0103 00       		.byte	0
 2514 0104 03       		.uleb128 0x3
 2515 0105 08       		.uleb128 0x8
 2516 0106 3A       		.uleb128 0x3a
 2517 0107 0B       		.uleb128 0xb
 2518 0108 3B       		.uleb128 0x3b
 2519 0109 0B       		.uleb128 0xb
 2520 010a 49       		.uleb128 0x49
 2521 010b 13       		.uleb128 0x13
 2522 010c 38       		.uleb128 0x38
 2523 010d 0B       		.uleb128 0xb
 2524 010e 00       		.byte	0
 2525 010f 00       		.byte	0
 2526 0110 17       		.uleb128 0x17
 2527 0111 13       		.uleb128 0x13
 2528 0112 01       		.byte	0x1
 2529 0113 0B       		.uleb128 0xb
 2530 0114 0B       		.uleb128 0xb
 2531 0115 3A       		.uleb128 0x3a
 2532 0116 0B       		.uleb128 0xb
 2533 0117 3B       		.uleb128 0x3b
 2534 0118 0B       		.uleb128 0xb
 2535 0119 01       		.uleb128 0x1
 2536 011a 13       		.uleb128 0x13
 2537 011b 00       		.byte	0
 2538 011c 00       		.byte	0
 2539 011d 18       		.uleb128 0x18
 2540 011e 13       		.uleb128 0x13
 2541 011f 01       		.byte	0x1
 2542 0120 0B       		.uleb128 0xb
 2543 0121 05       		.uleb128 0x5
 2544 0122 3A       		.uleb128 0x3a
 2545 0123 0B       		.uleb128 0xb
 2546 0124 3B       		.uleb128 0x3b
 2547 0125 0B       		.uleb128 0xb
 2548 0126 01       		.uleb128 0x1
 2549 0127 13       		.uleb128 0x13
 2550 0128 00       		.byte	0
ARM GAS  /tmp/ccmuHrxB.s 			page 69


 2551 0129 00       		.byte	0
 2552 012a 19       		.uleb128 0x19
 2553 012b 17       		.uleb128 0x17
 2554 012c 01       		.byte	0x1
 2555 012d 0B       		.uleb128 0xb
 2556 012e 0B       		.uleb128 0xb
 2557 012f 3A       		.uleb128 0x3a
 2558 0130 0B       		.uleb128 0xb
 2559 0131 3B       		.uleb128 0x3b
 2560 0132 0B       		.uleb128 0xb
 2561 0133 01       		.uleb128 0x1
 2562 0134 13       		.uleb128 0x13
 2563 0135 00       		.byte	0
 2564 0136 00       		.byte	0
 2565 0137 1A       		.uleb128 0x1a
 2566 0138 0D       		.uleb128 0xd
 2567 0139 00       		.byte	0
 2568 013a 03       		.uleb128 0x3
 2569 013b 0E       		.uleb128 0xe
 2570 013c 3A       		.uleb128 0x3a
 2571 013d 0B       		.uleb128 0xb
 2572 013e 3B       		.uleb128 0x3b
 2573 013f 05       		.uleb128 0x5
 2574 0140 49       		.uleb128 0x49
 2575 0141 13       		.uleb128 0x13
 2576 0142 00       		.byte	0
 2577 0143 00       		.byte	0
 2578 0144 1B       		.uleb128 0x1b
 2579 0145 26       		.uleb128 0x26
 2580 0146 00       		.byte	0
 2581 0147 49       		.uleb128 0x49
 2582 0148 13       		.uleb128 0x13
 2583 0149 00       		.byte	0
 2584 014a 00       		.byte	0
 2585 014b 1C       		.uleb128 0x1c
 2586 014c 2E       		.uleb128 0x2e
 2587 014d 01       		.byte	0x1
 2588 014e 03       		.uleb128 0x3
 2589 014f 0E       		.uleb128 0xe
 2590 0150 3A       		.uleb128 0x3a
 2591 0151 0B       		.uleb128 0xb
 2592 0152 3B       		.uleb128 0x3b
 2593 0153 05       		.uleb128 0x5
 2594 0154 27       		.uleb128 0x27
 2595 0155 19       		.uleb128 0x19
 2596 0156 20       		.uleb128 0x20
 2597 0157 0B       		.uleb128 0xb
 2598 0158 01       		.uleb128 0x1
 2599 0159 13       		.uleb128 0x13
 2600 015a 00       		.byte	0
 2601 015b 00       		.byte	0
 2602 015c 1D       		.uleb128 0x1d
 2603 015d 05       		.uleb128 0x5
 2604 015e 00       		.byte	0
 2605 015f 03       		.uleb128 0x3
 2606 0160 0E       		.uleb128 0xe
 2607 0161 3A       		.uleb128 0x3a
ARM GAS  /tmp/ccmuHrxB.s 			page 70


 2608 0162 0B       		.uleb128 0xb
 2609 0163 3B       		.uleb128 0x3b
 2610 0164 05       		.uleb128 0x5
 2611 0165 49       		.uleb128 0x49
 2612 0166 13       		.uleb128 0x13
 2613 0167 00       		.byte	0
 2614 0168 00       		.byte	0
 2615 0169 1E       		.uleb128 0x1e
 2616 016a 2E       		.uleb128 0x2e
 2617 016b 01       		.byte	0x1
 2618 016c 03       		.uleb128 0x3
 2619 016d 0E       		.uleb128 0xe
 2620 016e 3A       		.uleb128 0x3a
 2621 016f 0B       		.uleb128 0xb
 2622 0170 3B       		.uleb128 0x3b
 2623 0171 05       		.uleb128 0x5
 2624 0172 27       		.uleb128 0x27
 2625 0173 19       		.uleb128 0x19
 2626 0174 11       		.uleb128 0x11
 2627 0175 01       		.uleb128 0x1
 2628 0176 12       		.uleb128 0x12
 2629 0177 06       		.uleb128 0x6
 2630 0178 40       		.uleb128 0x40
 2631 0179 18       		.uleb128 0x18
 2632 017a 9742     		.uleb128 0x2117
 2633 017c 19       		.uleb128 0x19
 2634 017d 01       		.uleb128 0x1
 2635 017e 13       		.uleb128 0x13
 2636 017f 00       		.byte	0
 2637 0180 00       		.byte	0
 2638 0181 1F       		.uleb128 0x1f
 2639 0182 1D       		.uleb128 0x1d
 2640 0183 01       		.byte	0x1
 2641 0184 31       		.uleb128 0x31
 2642 0185 13       		.uleb128 0x13
 2643 0186 11       		.uleb128 0x11
 2644 0187 01       		.uleb128 0x1
 2645 0188 12       		.uleb128 0x12
 2646 0189 06       		.uleb128 0x6
 2647 018a 58       		.uleb128 0x58
 2648 018b 0B       		.uleb128 0xb
 2649 018c 59       		.uleb128 0x59
 2650 018d 05       		.uleb128 0x5
 2651 018e 00       		.byte	0
 2652 018f 00       		.byte	0
 2653 0190 20       		.uleb128 0x20
 2654 0191 05       		.uleb128 0x5
 2655 0192 00       		.byte	0
 2656 0193 31       		.uleb128 0x31
 2657 0194 13       		.uleb128 0x13
 2658 0195 02       		.uleb128 0x2
 2659 0196 18       		.uleb128 0x18
 2660 0197 00       		.byte	0
 2661 0198 00       		.byte	0
 2662 0199 21       		.uleb128 0x21
 2663 019a 2E       		.uleb128 0x2e
 2664 019b 00       		.byte	0
ARM GAS  /tmp/ccmuHrxB.s 			page 71


 2665 019c 03       		.uleb128 0x3
 2666 019d 0E       		.uleb128 0xe
 2667 019e 3A       		.uleb128 0x3a
 2668 019f 0B       		.uleb128 0xb
 2669 01a0 3B       		.uleb128 0x3b
 2670 01a1 05       		.uleb128 0x5
 2671 01a2 27       		.uleb128 0x27
 2672 01a3 19       		.uleb128 0x19
 2673 01a4 11       		.uleb128 0x11
 2674 01a5 01       		.uleb128 0x1
 2675 01a6 12       		.uleb128 0x12
 2676 01a7 06       		.uleb128 0x6
 2677 01a8 40       		.uleb128 0x40
 2678 01a9 18       		.uleb128 0x18
 2679 01aa 9642     		.uleb128 0x2116
 2680 01ac 19       		.uleb128 0x19
 2681 01ad 00       		.byte	0
 2682 01ae 00       		.byte	0
 2683 01af 22       		.uleb128 0x22
 2684 01b0 2E       		.uleb128 0x2e
 2685 01b1 00       		.byte	0
 2686 01b2 3F       		.uleb128 0x3f
 2687 01b3 19       		.uleb128 0x19
 2688 01b4 03       		.uleb128 0x3
 2689 01b5 0E       		.uleb128 0xe
 2690 01b6 3A       		.uleb128 0x3a
 2691 01b7 0B       		.uleb128 0xb
 2692 01b8 3B       		.uleb128 0x3b
 2693 01b9 0B       		.uleb128 0xb
 2694 01ba 27       		.uleb128 0x27
 2695 01bb 19       		.uleb128 0x19
 2696 01bc 11       		.uleb128 0x11
 2697 01bd 01       		.uleb128 0x1
 2698 01be 12       		.uleb128 0x12
 2699 01bf 06       		.uleb128 0x6
 2700 01c0 40       		.uleb128 0x40
 2701 01c1 18       		.uleb128 0x18
 2702 01c2 9642     		.uleb128 0x2116
 2703 01c4 19       		.uleb128 0x19
 2704 01c5 00       		.byte	0
 2705 01c6 00       		.byte	0
 2706 01c7 23       		.uleb128 0x23
 2707 01c8 2E       		.uleb128 0x2e
 2708 01c9 00       		.byte	0
 2709 01ca 3F       		.uleb128 0x3f
 2710 01cb 19       		.uleb128 0x19
 2711 01cc 03       		.uleb128 0x3
 2712 01cd 0E       		.uleb128 0xe
 2713 01ce 3A       		.uleb128 0x3a
 2714 01cf 0B       		.uleb128 0xb
 2715 01d0 3B       		.uleb128 0x3b
 2716 01d1 05       		.uleb128 0x5
 2717 01d2 27       		.uleb128 0x27
 2718 01d3 19       		.uleb128 0x19
 2719 01d4 11       		.uleb128 0x11
 2720 01d5 01       		.uleb128 0x1
 2721 01d6 12       		.uleb128 0x12
ARM GAS  /tmp/ccmuHrxB.s 			page 72


 2722 01d7 06       		.uleb128 0x6
 2723 01d8 40       		.uleb128 0x40
 2724 01d9 18       		.uleb128 0x18
 2725 01da 9642     		.uleb128 0x2116
 2726 01dc 19       		.uleb128 0x19
 2727 01dd 00       		.byte	0
 2728 01de 00       		.byte	0
 2729 01df 24       		.uleb128 0x24
 2730 01e0 34       		.uleb128 0x34
 2731 01e1 00       		.byte	0
 2732 01e2 03       		.uleb128 0x3
 2733 01e3 0E       		.uleb128 0xe
 2734 01e4 3A       		.uleb128 0x3a
 2735 01e5 0B       		.uleb128 0xb
 2736 01e6 3B       		.uleb128 0x3b
 2737 01e7 05       		.uleb128 0x5
 2738 01e8 49       		.uleb128 0x49
 2739 01e9 13       		.uleb128 0x13
 2740 01ea 3F       		.uleb128 0x3f
 2741 01eb 19       		.uleb128 0x19
 2742 01ec 3C       		.uleb128 0x3c
 2743 01ed 19       		.uleb128 0x19
 2744 01ee 00       		.byte	0
 2745 01ef 00       		.byte	0
 2746 01f0 25       		.uleb128 0x25
 2747 01f1 34       		.uleb128 0x34
 2748 01f2 00       		.byte	0
 2749 01f3 03       		.uleb128 0x3
 2750 01f4 08       		.uleb128 0x8
 2751 01f5 3A       		.uleb128 0x3a
 2752 01f6 0B       		.uleb128 0xb
 2753 01f7 3B       		.uleb128 0x3b
 2754 01f8 05       		.uleb128 0x5
 2755 01f9 49       		.uleb128 0x49
 2756 01fa 13       		.uleb128 0x13
 2757 01fb 3F       		.uleb128 0x3f
 2758 01fc 19       		.uleb128 0x19
 2759 01fd 3C       		.uleb128 0x3c
 2760 01fe 19       		.uleb128 0x19
 2761 01ff 00       		.byte	0
 2762 0200 00       		.byte	0
 2763 0201 00       		.byte	0
 2764              		.section	.debug_aranges,"",%progbits
 2765 0000 6C000000 		.4byte	0x6c
 2766 0004 0200     		.2byte	0x2
 2767 0006 00000000 		.4byte	.Ldebug_info0
 2768 000a 04       		.byte	0x4
 2769 000b 00       		.byte	0
 2770 000c 0000     		.2byte	0
 2771 000e 0000     		.2byte	0
 2772 0010 00000000 		.4byte	.LFB127
 2773 0014 10000000 		.4byte	.LFE127-.LFB127
 2774 0018 00000000 		.4byte	.LFB128
 2775 001c 10000000 		.4byte	.LFE128-.LFB128
 2776 0020 00000000 		.4byte	.LFB129
 2777 0024 08000000 		.4byte	.LFE129-.LFB129
 2778 0028 00000000 		.4byte	.LFB130
ARM GAS  /tmp/ccmuHrxB.s 			page 73


 2779 002c 08000000 		.4byte	.LFE130-.LFB130
 2780 0030 00000000 		.4byte	.LFB169
 2781 0034 10000000 		.4byte	.LFE169-.LFB169
 2782 0038 00000000 		.4byte	.LFB170
 2783 003c 10000000 		.4byte	.LFE170-.LFB170
 2784 0040 00000000 		.4byte	.LFB247
 2785 0044 08000000 		.4byte	.LFE247-.LFB247
 2786 0048 00000000 		.4byte	.LFB248
 2787 004c 08000000 		.4byte	.LFE248-.LFB248
 2788 0050 00000000 		.4byte	.LFB252
 2789 0054 08000000 		.4byte	.LFE252-.LFB252
 2790 0058 00000000 		.4byte	.LFB272
 2791 005c 36000000 		.4byte	.LFE272-.LFB272
 2792 0060 00000000 		.4byte	.LFB273
 2793 0064 80000000 		.4byte	.LFE273-.LFB273
 2794 0068 00000000 		.4byte	0
 2795 006c 00000000 		.4byte	0
 2796              		.section	.debug_ranges,"",%progbits
 2797              	.Ldebug_ranges0:
 2798 0000 00000000 		.4byte	.LFB127
 2799 0004 10000000 		.4byte	.LFE127
 2800 0008 00000000 		.4byte	.LFB128
 2801 000c 10000000 		.4byte	.LFE128
 2802 0010 00000000 		.4byte	.LFB129
 2803 0014 08000000 		.4byte	.LFE129
 2804 0018 00000000 		.4byte	.LFB130
 2805 001c 08000000 		.4byte	.LFE130
 2806 0020 00000000 		.4byte	.LFB169
 2807 0024 10000000 		.4byte	.LFE169
 2808 0028 00000000 		.4byte	.LFB170
 2809 002c 10000000 		.4byte	.LFE170
 2810 0030 00000000 		.4byte	.LFB247
 2811 0034 08000000 		.4byte	.LFE247
 2812 0038 00000000 		.4byte	.LFB248
 2813 003c 08000000 		.4byte	.LFE248
 2814 0040 00000000 		.4byte	.LFB252
 2815 0044 08000000 		.4byte	.LFE252
 2816 0048 00000000 		.4byte	.LFB272
 2817 004c 36000000 		.4byte	.LFE272
 2818 0050 00000000 		.4byte	.LFB273
 2819 0054 80000000 		.4byte	.LFE273
 2820 0058 00000000 		.4byte	0
 2821 005c 00000000 		.4byte	0
 2822              		.section	.debug_line,"",%progbits
 2823              	.Ldebug_line0:
 2824 0000 36030000 		.section	.debug_str,"MS",%progbits,1
 2824      02003302 
 2824      00000201 
 2824      FB0E0D00 
 2824      01010101 
 2825              	.LASF139:
 2826 0000 74625F70 		.ascii	"tb_ptr\000"
 2826      747200
 2827              	.LASF54:
 2828 0007 72656164 		.ascii	"ready_list_t\000"
 2828      795F6C69 
 2828      73745F74 
ARM GAS  /tmp/ccmuHrxB.s 			page 74


 2828      00
 2829              	.LASF124:
 2830 0014 44494552 		.ascii	"DIER\000"
 2830      00
 2831              	.LASF157:
 2832 0019 77747472 		.ascii	"wttrp\000"
 2832      7000
 2833              	.LASF154:
 2834 001f 7264796D 		.ascii	"rdymsg\000"
 2834      736700
 2835              	.LASF16:
 2836 0026 75696E74 		.ascii	"uint64_t\000"
 2836      36345F74 
 2836      00
 2837              	.LASF84:
 2838 002f 6B65726E 		.ascii	"kernel_stats\000"
 2838      656C5F73 
 2838      74617473 
 2838      00
 2839              	.LASF5:
 2840 003c 5F5F7569 		.ascii	"__uint8_t\000"
 2840      6E74385F 
 2840      7400
 2841              	.LASF122:
 2842 0046 706F7274 		.ascii	"port_intctx\000"
 2842      5F696E74 
 2842      63747800 
 2843              	.LASF53:
 2844 0052 63685F74 		.ascii	"ch_threads_queue\000"
 2844      68726561 
 2844      64735F71 
 2844      75657565 
 2844      00
 2845              	.LASF73:
 2846 0063 73797374 		.ascii	"system_debug_t\000"
 2846      656D5F64 
 2846      65627567 
 2846      5F7400
 2847              	.LASF171:
 2848 0072 706F7274 		.ascii	"port_lock\000"
 2848      5F6C6F63 
 2848      6B00
 2849              	.LASF145:
 2850 007c 776F7273 		.ascii	"worst\000"
 2850      7400
 2851              	.LASF148:
 2852 0082 74696D65 		.ascii	"time_measurement_t\000"
 2852      5F6D6561 
 2852      73757265 
 2852      6D656E74 
 2852      5F7400
 2853              	.LASF137:
 2854 0095 63685F73 		.ascii	"ch_swc_event_t\000"
 2854      77635F65 
 2854      76656E74 
 2854      5F7400
 2855              	.LASF12:
ARM GAS  /tmp/ccmuHrxB.s 			page 75


 2856 00a4 6C6F6E67 		.ascii	"long long unsigned int\000"
 2856      206C6F6E 
 2856      6720756E 
 2856      7369676E 
 2856      65642069 
 2857              	.LASF141:
 2858 00bb 63685F74 		.ascii	"ch_trace_buffer_t\000"
 2858      72616365 
 2858      5F627566 
 2858      6665725F 
 2858      7400
 2859              	.LASF136:
 2860 00cd 73655F73 		.ascii	"se_state\000"
 2860      74617465 
 2860      00
 2861              	.LASF87:
 2862 00d6 4944434F 		.ascii	"IDCODE\000"
 2862      444500
 2863              	.LASF155:
 2864 00dd 65786974 		.ascii	"exitcode\000"
 2864      636F6465 
 2864      00
 2865              	.LASF83:
 2866 00e6 6D61696E 		.ascii	"mainthread\000"
 2866      74687265 
 2866      616400
 2867              	.LASF70:
 2868 00f1 76697274 		.ascii	"virtual_timers_list_t\000"
 2868      75616C5F 
 2868      74696D65 
 2868      72735F6C 
 2868      6973745F 
 2869              	.LASF178:
 2870 0107 6F73616C 		.ascii	"osalSysUnlockFromISR\000"
 2870      53797355 
 2870      6E6C6F63 
 2870      6B46726F 
 2870      6D495352 
 2871              	.LASF181:
 2872 011c 73745F6C 		.ascii	"st_lld_init\000"
 2872      6C645F69 
 2872      6E697400 
 2873              	.LASF128:
 2874 0128 42445452 		.ascii	"BDTR\000"
 2874      00
 2875              	.LASF18:
 2876 012d 72747469 		.ascii	"rttime_t\000"
 2876      6D655F74 
 2876      00
 2877              	.LASF107:
 2878 0136 41484231 		.ascii	"AHB1LPENR\000"
 2878      4C50454E 
 2878      5200
 2879              	.LASF31:
 2880 0140 705F7072 		.ascii	"p_prio\000"
 2880      696F00
 2881              	.LASF125:
ARM GAS  /tmp/ccmuHrxB.s 			page 76


 2882 0147 43434D52 		.ascii	"CCMR1\000"
 2882      3100
 2883              	.LASF126:
 2884 014d 43434D52 		.ascii	"CCMR2\000"
 2884      3200
 2885              	.LASF130:
 2886 0153 43434D52 		.ascii	"CCMR3\000"
 2886      3300
 2887              	.LASF1:
 2888 0159 7369676E 		.ascii	"signed char\000"
 2888      65642063 
 2888      68617200 
 2889              	.LASF93:
 2890 0165 41484231 		.ascii	"AHB1RSTR\000"
 2890      52535452 
 2890      00
 2891              	.LASF133:
 2892 016e 73655F74 		.ascii	"se_time\000"
 2892      696D6500 
 2893              	.LASF165:
 2894 0176 6D5F7175 		.ascii	"m_queue\000"
 2894      65756500 
 2895              	.LASF180:
 2896 017e 56656374 		.ascii	"VectorB0\000"
 2896      6F724230 
 2896      00
 2897              	.LASF172:
 2898 0187 706F7274 		.ascii	"port_unlock\000"
 2898      5F756E6C 
 2898      6F636B00 
 2899              	.LASF146:
 2900 0193 6C617374 		.ascii	"last\000"
 2900      00
 2901              	.LASF80:
 2902 0198 63685F73 		.ascii	"ch_system\000"
 2902      79737465 
 2902      6D00
 2903              	.LASF7:
 2904 01a2 6C6F6E67 		.ascii	"long int\000"
 2904      20696E74 
 2904      00
 2905              	.LASF98:
 2906 01ab 41504232 		.ascii	"APB2RSTR\000"
 2906      52535452 
 2906      00
 2907              	.LASF111:
 2908 01b4 41504231 		.ascii	"APB1LPENR\000"
 2908      4C50454E 
 2908      5200
 2909              	.LASF20:
 2910 01be 74737461 		.ascii	"tstate_t\000"
 2910      74655F74 
 2910      00
 2911              	.LASF127:
 2912 01c7 43434552 		.ascii	"CCER\000"
 2912      00
 2913              	.LASF134:
ARM GAS  /tmp/ccmuHrxB.s 			page 77


 2914 01cc 73655F74 		.ascii	"se_tp\000"
 2914      7000
 2915              	.LASF10:
 2916 01d2 6C6F6E67 		.ascii	"long long int\000"
 2916      206C6F6E 
 2916      6720696E 
 2916      7400
 2917              	.LASF33:
 2918 01e0 705F6E65 		.ascii	"p_newer\000"
 2918      77657200 
 2919              	.LASF140:
 2920 01e8 74625F62 		.ascii	"tb_buffer\000"
 2920      75666665 
 2920      7200
 2921              	.LASF91:
 2922 01f2 504C4C43 		.ascii	"PLLCFGR\000"
 2922      46475200 
 2923              	.LASF4:
 2924 01fa 73686F72 		.ascii	"short unsigned int\000"
 2924      7420756E 
 2924      7369676E 
 2924      65642069 
 2924      6E7400
 2925              	.LASF138:
 2926 020d 74625F73 		.ascii	"tb_size\000"
 2926      697A6500 
 2927              	.LASF59:
 2928 0215 725F6E65 		.ascii	"r_newer\000"
 2928      77657200 
 2929              	.LASF46:
 2930 021d 705F6D70 		.ascii	"p_mpool\000"
 2930      6F6F6C00 
 2931              	.LASF119:
 2932 0225 72656761 		.ascii	"regarm_t\000"
 2932      726D5F74 
 2932      00
 2933              	.LASF66:
 2934 022e 76745F70 		.ascii	"vt_prev\000"
 2934      72657600 
 2935              	.LASF82:
 2936 0236 76746C69 		.ascii	"vtlist\000"
 2936      737400
 2937              	.LASF177:
 2938 023d 6F73616C 		.ascii	"osalSysLockFromISR\000"
 2938      5379734C 
 2938      6F636B46 
 2938      726F6D49 
 2938      535200
 2939              	.LASF74:
 2940 0250 63685F73 		.ascii	"ch_system_debug\000"
 2940      79737465 
 2940      6D5F6465 
 2940      62756700 
 2941              	.LASF169:
 2942 0260 6D757465 		.ascii	"mutex_t\000"
 2942      785F7400 
 2943              	.LASF187:
ARM GAS  /tmp/ccmuHrxB.s 			page 78


 2944 0268 76616C75 		.ascii	"value\000"
 2944      6500
 2945              	.LASF77:
 2946 026e 6C6F636B 		.ascii	"lock_cnt\000"
 2946      5F636E74 
 2946      00
 2947              	.LASF85:
 2948 0277 69646C65 		.ascii	"idle_thread_wa\000"
 2948      5F746872 
 2948      6561645F 
 2948      776100
 2949              	.LASF25:
 2950 0286 636E745F 		.ascii	"cnt_t\000"
 2950      7400
 2951              	.LASF36:
 2952 028c 705F7374 		.ascii	"p_stklimit\000"
 2952      6B6C696D 
 2952      697400
 2953              	.LASF0:
 2954 0297 756E7369 		.ascii	"unsigned int\000"
 2954      676E6564 
 2954      20696E74 
 2954      00
 2955              	.LASF65:
 2956 02a4 76745F6E 		.ascii	"vt_next\000"
 2956      65787400 
 2957              	.LASF158:
 2958 02ac 77747365 		.ascii	"wtsemp\000"
 2958      6D7000
 2959              	.LASF41:
 2960 02b3 705F6D73 		.ascii	"p_msgqueue\000"
 2960      67717565 
 2960      756500
 2961              	.LASF118:
 2962 02be 5243435F 		.ascii	"RCC_TypeDef\000"
 2962      54797065 
 2962      44656600 
 2963              	.LASF149:
 2964 02ca 6E5F6972 		.ascii	"n_irq\000"
 2964      7100
 2965              	.LASF163:
 2966 02d0 735F636E 		.ascii	"s_cnt\000"
 2966      7400
 2967              	.LASF123:
 2968 02d6 534D4352 		.ascii	"SMCR\000"
 2968      00
 2969              	.LASF153:
 2970 02db 6B65726E 		.ascii	"kernel_stats_t\000"
 2970      656C5F73 
 2970      74617473 
 2970      5F7400
 2971              	.LASF50:
 2972 02ea 63685F74 		.ascii	"ch_thread\000"
 2972      68726561 
 2972      6400
 2973              	.LASF117:
 2974 02f4 504C4C49 		.ascii	"PLLI2SCFGR\000"
ARM GAS  /tmp/ccmuHrxB.s 			page 79


 2974      32534346 
 2974      475200
 2975              	.LASF23:
 2976 02ff 6D73675F 		.ascii	"msg_t\000"
 2976      7400
 2977              	.LASF95:
 2978 0305 41484233 		.ascii	"AHB3RSTR\000"
 2978      52535452 
 2978      00
 2979              	.LASF185:
 2980 030e 2F686F6D 		.ascii	"/home/jerker/chibios/ChibiOS_16.1.4/testhal/STM32/S"
 2980      652F6A65 
 2980      726B6572 
 2980      2F636869 
 2980      62696F73 
 2981 0341 544D3332 		.ascii	"TM32F4xx/USB_CDC\000"
 2981      46347878 
 2981      2F555342 
 2981      5F434443 
 2981      00
 2982              	.LASF26:
 2983 0352 75636E74 		.ascii	"ucnt_t\000"
 2983      5F7400
 2984              	.LASF89:
 2985 0359 41504232 		.ascii	"APB2FZ\000"
 2985      465A00
 2986              	.LASF79:
 2987 0360 63685F73 		.ascii	"ch_system_t\000"
 2987      79737465 
 2987      6D5F7400 
 2988              	.LASF183:
 2989 036c 474E5520 		.ascii	"GNU C 4.8.2 -mcpu=cortex-m4 -mno-thumb-interwork -m"
 2989      4320342E 
 2989      382E3220 
 2989      2D6D6370 
 2989      753D636F 
 2990 039f 7468756D 		.ascii	"thumb -ggdb -O0 -fomit-frame-pointer -falign-functi"
 2990      62202D67 
 2990      67646220 
 2990      2D4F3020 
 2990      2D666F6D 
 2991 03d2 6F6E733D 		.ascii	"ons=16 -ffunction-sections -fdata-sections -fno-com"
 2991      3136202D 
 2991      6666756E 
 2991      6374696F 
 2991      6E2D7365 
 2992 0405 6D6F6E20 		.ascii	"mon -flto\000"
 2992      2D666C74 
 2992      6F00
 2993              	.LASF156:
 2994 040f 77746F62 		.ascii	"wtobjp\000"
 2994      6A7000
 2995              	.LASF112:
 2996 0416 41504232 		.ascii	"APB2LPENR\000"
 2996      4C50454E 
 2996      5200
 2997              	.LASF152:
ARM GAS  /tmp/ccmuHrxB.s 			page 80


 2998 0420 6D5F6372 		.ascii	"m_crit_isr\000"
 2998      69745F69 
 2998      737200
 2999              	.LASF55:
 3000 042b 63685F72 		.ascii	"ch_ready_list\000"
 3000      65616479 
 3000      5F6C6973 
 3000      7400
 3001              	.LASF24:
 3002 0439 6576656E 		.ascii	"eventmask_t\000"
 3002      746D6173 
 3002      6B5F7400 
 3003              	.LASF6:
 3004 0445 5F5F696E 		.ascii	"__int32_t\000"
 3004      7433325F 
 3004      7400
 3005              	.LASF120:
 3006 044f 73746B61 		.ascii	"stkalign_t\000"
 3006      6C69676E 
 3006      5F7400
 3007              	.LASF179:
 3008 045a 6F73616C 		.ascii	"osalOsTimerHandlerI\000"
 3008      4F735469 
 3008      6D657248 
 3008      616E646C 
 3008      65724900 
 3009              	.LASF49:
 3010 046e 74687265 		.ascii	"threads_list_t\000"
 3010      6164735F 
 3010      6C697374 
 3010      5F7400
 3011              	.LASF63:
 3012 047d 76697274 		.ascii	"virtual_timer_t\000"
 3012      75616C5F 
 3012      74696D65 
 3012      725F7400 
 3013              	.LASF162:
 3014 048d 735F7175 		.ascii	"s_queue\000"
 3014      65756500 
 3015              	.LASF40:
 3016 0495 705F7761 		.ascii	"p_waiting\000"
 3016      6974696E 
 3016      6700
 3017              	.LASF86:
 3018 049f 73697A65 		.ascii	"sizetype\000"
 3018      74797065 
 3018      00
 3019              	.LASF48:
 3020 04a8 74687265 		.ascii	"thread_reference_t\000"
 3020      61645F72 
 3020      65666572 
 3020      656E6365 
 3020      5F7400
 3021              	.LASF71:
 3022 04bb 63685F76 		.ascii	"ch_virtual_timers_list\000"
 3022      69727475 
 3022      616C5F74 
ARM GAS  /tmp/ccmuHrxB.s 			page 81


 3022      696D6572 
 3022      735F6C69 
 3023              	.LASF43:
 3024 04d2 705F6570 		.ascii	"p_epending\000"
 3024      656E6469 
 3024      6E6700
 3025              	.LASF102:
 3026 04dd 41484233 		.ascii	"AHB3ENR\000"
 3026      454E5200 
 3027              	.LASF72:
 3028 04e5 76745F6C 		.ascii	"vt_lasttime\000"
 3028      61737474 
 3028      696D6500 
 3029              	.LASF34:
 3030 04f1 705F6F6C 		.ascii	"p_older\000"
 3030      64657200 
 3031              	.LASF58:
 3032 04f9 725F6374 		.ascii	"r_ctx\000"
 3032      7800
 3033              	.LASF108:
 3034 04ff 41484232 		.ascii	"AHB2LPENR\000"
 3034      4C50454E 
 3034      5200
 3035              	.LASF143:
 3036 0509 746D5F63 		.ascii	"tm_calibration_t\000"
 3036      616C6962 
 3036      72617469 
 3036      6F6E5F74 
 3036      00
 3037              	.LASF61:
 3038 051a 725F6375 		.ascii	"r_current\000"
 3038      7272656E 
 3038      7400
 3039              	.LASF97:
 3040 0524 41504231 		.ascii	"APB1RSTR\000"
 3040      52535452 
 3040      00
 3041              	.LASF11:
 3042 052d 5F5F7569 		.ascii	"__uint64_t\000"
 3042      6E743634 
 3042      5F7400
 3043              	.LASF147:
 3044 0538 63756D75 		.ascii	"cumulative\000"
 3044      6C617469 
 3044      766500
 3045              	.LASF88:
 3046 0543 41504231 		.ascii	"APB1FZ\000"
 3046      465A00
 3047              	.LASF21:
 3048 054a 74726566 		.ascii	"trefs_t\000"
 3048      735F7400 
 3049              	.LASF96:
 3050 0552 52455345 		.ascii	"RESERVED0\000"
 3050      52564544 
 3050      3000
 3051              	.LASF99:
 3052 055c 52455345 		.ascii	"RESERVED1\000"
ARM GAS  /tmp/ccmuHrxB.s 			page 82


 3052      52564544 
 3052      3100
 3053              	.LASF103:
 3054 0566 52455345 		.ascii	"RESERVED2\000"
 3054      52564544 
 3054      3200
 3055              	.LASF106:
 3056 0570 52455345 		.ascii	"RESERVED3\000"
 3056      52564544 
 3056      3300
 3057              	.LASF110:
 3058 057a 52455345 		.ascii	"RESERVED4\000"
 3058      52564544 
 3058      3400
 3059              	.LASF30:
 3060 0584 705F7072 		.ascii	"p_prev\000"
 3060      657600
 3061              	.LASF115:
 3062 058b 52455345 		.ascii	"RESERVED6\000"
 3062      52564544 
 3062      3600
 3063              	.LASF22:
 3064 0595 74707269 		.ascii	"tprio_t\000"
 3064      6F5F7400 
 3065              	.LASF176:
 3066 059d 63685379 		.ascii	"chSysUnlockFromISR\000"
 3066      73556E6C 
 3066      6F636B46 
 3066      726F6D49 
 3066      535200
 3067              	.LASF150:
 3068 05b0 6E5F6374 		.ascii	"n_ctxswc\000"
 3068      78737763 
 3068      00
 3069              	.LASF170:
 3070 05b9 5F426F6F 		.ascii	"_Bool\000"
 3070      6C00
 3071              	.LASF14:
 3072 05bf 696E7433 		.ascii	"int32_t\000"
 3072      325F7400 
 3073              	.LASF2:
 3074 05c7 756E7369 		.ascii	"unsigned char\000"
 3074      676E6564 
 3074      20636861 
 3074      7200
 3075              	.LASF184:
 3076 05d5 2E2E2F2E 		.ascii	"../../../../os/hal/ports/STM32/LLD/TIMv1/st_lld.c\000"
 3076      2E2F2E2E 
 3076      2F2E2E2F 
 3076      6F732F68 
 3076      616C2F70 
 3077              	.LASF182:
 3078 0607 49544D5F 		.ascii	"ITM_RxBuffer\000"
 3078      52784275 
 3078      66666572 
 3078      00
 3079              	.LASF44:
ARM GAS  /tmp/ccmuHrxB.s 			page 83


 3080 0614 705F6D74 		.ascii	"p_mtxlist\000"
 3080      786C6973 
 3080      7400
 3081              	.LASF3:
 3082 061e 73686F72 		.ascii	"short int\000"
 3082      7420696E 
 3082      7400
 3083              	.LASF37:
 3084 0628 705F7374 		.ascii	"p_state\000"
 3084      61746500 
 3085              	.LASF109:
 3086 0630 41484233 		.ascii	"AHB3LPENR\000"
 3086      4C50454E 
 3086      5200
 3087              	.LASF57:
 3088 063a 725F7072 		.ascii	"r_prio\000"
 3088      696F00
 3089              	.LASF160:
 3090 0641 65776D61 		.ascii	"ewmask\000"
 3090      736B00
 3091              	.LASF29:
 3092 0648 705F6E65 		.ascii	"p_next\000"
 3092      787400
 3093              	.LASF38:
 3094 064f 705F666C 		.ascii	"p_flags\000"
 3094      61677300 
 3095              	.LASF47:
 3096 0657 705F7374 		.ascii	"p_stats\000"
 3096      61747300 
 3097              	.LASF105:
 3098 065f 41504232 		.ascii	"APB2ENR\000"
 3098      454E5200 
 3099              	.LASF64:
 3100 0667 63685F76 		.ascii	"ch_virtual_timer\000"
 3100      69727475 
 3100      616C5F74 
 3100      696D6572 
 3100      00
 3101              	.LASF161:
 3102 0678 63685F73 		.ascii	"ch_semaphore\000"
 3102      656D6170 
 3102      686F7265 
 3102      00
 3103              	.LASF131:
 3104 0685 43435852 		.ascii	"CCXR\000"
 3104      00
 3105              	.LASF90:
 3106 068a 4442474D 		.ascii	"DBGMCU_TypeDef\000"
 3106      43555F54 
 3106      79706544 
 3106      656600
 3107              	.LASF113:
 3108 0699 52455345 		.ascii	"RESERVED5\000"
 3108      52564544 
 3108      3500
 3109              	.LASF15:
 3110 06a3 75696E74 		.ascii	"uint32_t\000"
ARM GAS  /tmp/ccmuHrxB.s 			page 84


 3110      33325F74 
 3110      00
 3111              	.LASF159:
 3112 06ac 77746D74 		.ascii	"wtmtxp\000"
 3112      787000
 3113              	.LASF56:
 3114 06b3 725F7175 		.ascii	"r_queue\000"
 3114      65756500 
 3115              	.LASF67:
 3116 06bb 76745F64 		.ascii	"vt_delta\000"
 3116      656C7461 
 3116      00
 3117              	.LASF51:
 3118 06c4 63685F74 		.ascii	"ch_threads_list\000"
 3118      68726561 
 3118      64735F6C 
 3118      69737400 
 3119              	.LASF9:
 3120 06d4 6C6F6E67 		.ascii	"long unsigned int\000"
 3120      20756E73 
 3120      69676E65 
 3120      6420696E 
 3120      7400
 3121              	.LASF168:
 3122 06e6 63686172 		.ascii	"char\000"
 3122      00
 3123              	.LASF129:
 3124 06eb 444D4152 		.ascii	"DMAR\000"
 3124      00
 3125              	.LASF94:
 3126 06f0 41484232 		.ascii	"AHB2RSTR\000"
 3126      52535452 
 3126      00
 3127              	.LASF174:
 3128 06f9 706F7274 		.ascii	"port_unlock_from_isr\000"
 3128      5F756E6C 
 3128      6F636B5F 
 3128      66726F6D 
 3128      5F697372 
 3129              	.LASF28:
 3130 070e 74687265 		.ascii	"thread_t\000"
 3130      61645F74 
 3130      00
 3131              	.LASF144:
 3132 0717 62657374 		.ascii	"best\000"
 3132      00
 3133              	.LASF167:
 3134 071c 6D5F6E65 		.ascii	"m_next\000"
 3134      787400
 3135              	.LASF27:
 3136 0723 73797374 		.ascii	"systime_t\000"
 3136      696D655F 
 3136      7400
 3137              	.LASF45:
 3138 072d 705F7265 		.ascii	"p_realprio\000"
 3138      616C7072 
 3138      696F00
ARM GAS  /tmp/ccmuHrxB.s 			page 85


 3139              	.LASF62:
 3140 0738 76746675 		.ascii	"vtfunc_t\000"
 3140      6E635F74 
 3140      00
 3141              	.LASF8:
 3142 0741 5F5F7569 		.ascii	"__uint32_t\000"
 3142      6E743332 
 3142      5F7400
 3143              	.LASF186:
 3144 074c 5F5F7365 		.ascii	"__set_BASEPRI\000"
 3144      745F4241 
 3144      53455052 
 3144      4900
 3145              	.LASF75:
 3146 075a 70616E69 		.ascii	"panic_msg\000"
 3146      635F6D73 
 3146      6700
 3147              	.LASF142:
 3148 0764 6F666673 		.ascii	"offset\000"
 3148      657400
 3149              	.LASF104:
 3150 076b 41504231 		.ascii	"APB1ENR\000"
 3150      454E5200 
 3151              	.LASF164:
 3152 0773 63685F6D 		.ascii	"ch_mutex\000"
 3152      75746578 
 3152      00
 3153              	.LASF101:
 3154 077c 41484232 		.ascii	"AHB2ENR\000"
 3154      454E5200 
 3155              	.LASF121:
 3156 0784 636F6E74 		.ascii	"context\000"
 3156      65787400 
 3157              	.LASF60:
 3158 078c 725F6F6C 		.ascii	"r_older\000"
 3158      64657200 
 3159              	.LASF17:
 3160 0794 7274636E 		.ascii	"rtcnt_t\000"
 3160      745F7400 
 3161              	.LASF173:
 3162 079c 706F7274 		.ascii	"port_lock_from_isr\000"
 3162      5F6C6F63 
 3162      6B5F6672 
 3162      6F6D5F69 
 3162      737200
 3163              	.LASF69:
 3164 07af 76745F70 		.ascii	"vt_par\000"
 3164      617200
 3165              	.LASF116:
 3166 07b6 53534347 		.ascii	"SSCGR\000"
 3166      5200
 3167              	.LASF52:
 3168 07bc 74687265 		.ascii	"threads_queue_t\000"
 3168      6164735F 
 3168      71756575 
 3168      655F7400 
 3169              	.LASF132:
ARM GAS  /tmp/ccmuHrxB.s 			page 86


 3170 07cc 73746D33 		.ascii	"stm32_tim_t\000"
 3170      325F7469 
 3170      6D5F7400 
 3171              	.LASF39:
 3172 07d8 705F7265 		.ascii	"p_refs\000"
 3172      667300
 3173              	.LASF76:
 3174 07df 6973725F 		.ascii	"isr_cnt\000"
 3174      636E7400 
 3175              	.LASF114:
 3176 07e7 42444352 		.ascii	"BDCR\000"
 3176      00
 3177              	.LASF81:
 3178 07ec 726C6973 		.ascii	"rlist\000"
 3178      7400
 3179              	.LASF13:
 3180 07f2 75696E74 		.ascii	"uint8_t\000"
 3180      385F7400 
 3181              	.LASF175:
 3182 07fa 63685379 		.ascii	"chSysLockFromISR\000"
 3182      734C6F63 
 3182      6B46726F 
 3182      6D495352 
 3182      00
 3183              	.LASF35:
 3184 080b 705F6E61 		.ascii	"p_name\000"
 3184      6D6500
 3185              	.LASF100:
 3186 0812 41484231 		.ascii	"AHB1ENR\000"
 3186      454E5200 
 3187              	.LASF92:
 3188 081a 43464752 		.ascii	"CFGR\000"
 3188      00
 3189              	.LASF19:
 3190 081f 746D6F64 		.ascii	"tmode_t\000"
 3190      655F7400 
 3191              	.LASF78:
 3192 0827 74726163 		.ascii	"trace_buffer\000"
 3192      655F6275 
 3192      66666572 
 3192      00
 3193              	.LASF42:
 3194 0834 705F6D73 		.ascii	"p_msg\000"
 3194      6700
 3195              	.LASF151:
 3196 083a 6D5F6372 		.ascii	"m_crit_thd\000"
 3196      69745F74 
 3196      686400
 3197              	.LASF166:
 3198 0845 6D5F6F77 		.ascii	"m_owner\000"
 3198      6E657200 
 3199              	.LASF135:
 3200 084d 73655F77 		.ascii	"se_wtobjp\000"
 3200      746F626A 
 3200      7000
 3201              	.LASF32:
 3202 0857 705F6374 		.ascii	"p_ctx\000"
ARM GAS  /tmp/ccmuHrxB.s 			page 87


 3202      7800
 3203              	.LASF68:
 3204 085d 76745F66 		.ascii	"vt_func\000"
 3204      756E6300 
 3205              		.comm	__gnu_lto_v1,1,1
 3206              		.ident	"GCC: (4.8.2-14ubuntu1+6) 4.8.2"
ARM GAS  /tmp/ccmuHrxB.s 			page 88


DEFINED SYMBOLS
                            *ABS*:0000000000000000 st_lld.c
     /tmp/ccmuHrxB.s:408    .text.port_lock:0000000000000000 $t
     /tmp/ccmuHrxB.s:413    .text.port_lock:0000000000000000 port_lock
     /tmp/ccmuHrxB.s:444    .text.port_unlock:0000000000000000 $t
     /tmp/ccmuHrxB.s:449    .text.port_unlock:0000000000000000 port_unlock
     /tmp/ccmuHrxB.s:478    .text.port_lock_from_isr:0000000000000000 $t
     /tmp/ccmuHrxB.s:483    .text.port_lock_from_isr:0000000000000000 port_lock_from_isr
     /tmp/ccmuHrxB.s:501    .text.port_unlock_from_isr:0000000000000000 $t
     /tmp/ccmuHrxB.s:506    .text.port_unlock_from_isr:0000000000000000 port_unlock_from_isr
     /tmp/ccmuHrxB.s:524    .text.chSysLockFromISR:0000000000000000 $t
     /tmp/ccmuHrxB.s:529    .text.chSysLockFromISR:0000000000000000 chSysLockFromISR
     /tmp/ccmuHrxB.s:552    .text.chSysUnlockFromISR:0000000000000000 $t
     /tmp/ccmuHrxB.s:557    .text.chSysUnlockFromISR:0000000000000000 chSysUnlockFromISR
     /tmp/ccmuHrxB.s:579    .text.osalSysLockFromISR:0000000000000000 $t
     /tmp/ccmuHrxB.s:584    .text.osalSysLockFromISR:0000000000000000 osalSysLockFromISR
     /tmp/ccmuHrxB.s:603    .text.osalSysUnlockFromISR:0000000000000000 $t
     /tmp/ccmuHrxB.s:608    .text.osalSysUnlockFromISR:0000000000000000 osalSysUnlockFromISR
     /tmp/ccmuHrxB.s:626    .text.osalOsTimerHandlerI:0000000000000000 $t
     /tmp/ccmuHrxB.s:631    .text.osalOsTimerHandlerI:0000000000000000 osalOsTimerHandlerI
     /tmp/ccmuHrxB.s:649    .text.VectorB0:0000000000000000 $t
     /tmp/ccmuHrxB.s:655    .text.VectorB0:0000000000000000 VectorB0
     /tmp/ccmuHrxB.s:695    .text.st_lld_init:0000000000000000 $t
     /tmp/ccmuHrxB.s:701    .text.st_lld_init:0000000000000000 st_lld_init
                            *COM*:0000000000000001 __gnu_lto_v1
                     .debug_frame:0000000000000010 $d

UNDEFINED SYMBOLS
_stats_start_measure_crit_isr
_dbg_check_lock_from_isr
_dbg_check_unlock_from_isr
_stats_stop_measure_crit_isr
chSysTimerHandlerI
_stats_increase_irq
_dbg_check_enter_isr
_dbg_check_leave_isr
_port_irq_epilogue
nvicEnableVector
