ARM GAS  /tmp/cc6DU3Wg.s 			page 1


   1              		.syntax unified
   2              		.cpu cortex-m4
   3              		.fpu softvfp
   4              		.eabi_attribute 20, 1
   5              		.eabi_attribute 21, 1
   6              		.eabi_attribute 23, 3
   7              		.eabi_attribute 24, 1
   8              		.eabi_attribute 25, 1
   9              		.eabi_attribute 26, 1
  10              		.eabi_attribute 30, 6
  11              		.eabi_attribute 34, 1
  12              		.eabi_attribute 18, 4
  13              		.thumb
  14              		.file	"st_lld.c"
  15              		.text
  16              	.Ltext0:
  17              		.section	.gnu.lto_.inline.1144c840e79bdd9c,"",%progbits
  18 0000 789C6362 		.ascii	"x\234cb`b\300\0064\031!47\003\003\0133\003\003\023\313"
  18      6062C006 
  18      34192134 
  18      3703030B 
  18      33030313 
  19 0015 073D0616 		.ascii	"\007=\006\026\210ZF\014\021&\006\026\036 \311\264@\036"
  19      885A460C 
  19      11260616 
  19      1E20C9B4 
  19      401E
  20 0027 AE860B48 		.ascii	"\256\206\013H0c\027fa`S\300\"\214 X\261\353c\303.\314"
  20      30631766 
  20      616053C0 
  20      228C2058 
  20      B1EB63C3 
  21 003d 4EC8380E 		.ascii	"N\3108\016\354\3728\031\370\317\202\334\316\263!\027"
  21      ECFA3819 
  21      F8CF82DC 
  21      CEB32117 
  22 004d 87466C04 		.ascii	"\207Fl\004\027\203\210\014P\223\\\303/F\230.f\036\020"
  22      1783880C 
  22      50935CC3 
  22      2F46982E 
  22      661E10
  23 0060 09003748 		.ascii	"\011\0007H\015\241"
  23      0DA1
  24              		.text
  25              		.section	.gnu.lto_port_lock.1144c840e79bdd9c,"",%progbits
  26 0000 789C6362 		.ascii	"x\234cb`b@\007\"@,\314\310\3000\001\304af`\004\252`"
  26      60624007 
  26      22402CCC 
  26      C8C03001 
  26      C4616660 
  27 0017 6462040A 		.ascii	"db\004\012002\32431\326G\202\230\014\214J\014\013\033"
  27      303032D4 
  27      3331D647 
  27      82980C8C 
  27      4A0C0B1B 
  28 002b 1A263D68 		.ascii	"\032&=h}\366\230if\303\201\226\005\015\177\376\377g"
  28      7DF69869 
ARM GAS  /tmp/cc6DU3Wg.s 			page 2


  28      66C38196 
  28      050D7FFE 
  28      FF67
  29 003d 64CC6404 		.ascii	"d\314d\004\232h\316\310\220\314\310\020\001\3440*\200"
  29      9A68CEC8 
  29      90CCC810 
  29      01E4302A 
  29      80
  30 004e 29261654 		.ascii	")&\026T+\3263\035x\360\377\377\211\316\347{\201&3$2"
  30      2BD6331D 
  30      78F0FFFF 
  30      89CEE77B 
  30      81263324 
  31 0063 2E049A06 		.ascii	".\004\232\006\004\254\014-\015\015\023\024\030@\272"
  31      04AC0C2D 
  31      0D0D1314 
  31      1840BA
  32 0072 8120044C 		.ascii	"\201 \004L\206\202\034\300|\226\241i\007\220Ngd\004"
  32      86821CC0 
  32      7C96A169 
  32      07904E67 
  32      6404
  33 0084 99C70054 		.ascii	"\231\307\000T\303p\216\241\351\343\337\031\217%\340"
  33      C3708EA1 
  33      E9E3DF19 
  33      8F25E0
  34 0093 BAC08C86 		.ascii	"\272\300\214\206\003\335W\332YaF&2.fd\005\032\007q2"
  34      03DD57DA 
  34      59614626 
  34      322E6664 
  34      051A0771 
  35 00a8 10963283 		.ascii	"\020\2262\203|\314\014\361\266\034C\033\343\334\206"
  35      7CCC0CF1 
  35      B61C431B 
  35      E3DC86
  36 00b7 190E998C 		.ascii	"\031\016\231\214\314 n:X\031\\\256\023*\007u\373E\206"
  36      CC206E3A 
  36      58195CAE 
  36      132A0775 
  36      FB4586
  37 00ca C6073BF5 		.ascii	"\306\007;\365!\006\302@\010H\007H\271INf\222\276sFf"
  37      2106C240 
  37      08480748 
  37      B9494E66 
  37      92BE7346 
  38 00df 52A67F70 		.ascii	"R\246\177p\274\241\231\236\241\236\211\276~~\261~Q\211"
  38      BCA1999E 
  38      A19E89BE 
  38      7E7EB17E 
  38      5189
  39 00f1 7E417E51 		.ascii	"~A~QI\261\276c\220\257\263o\205~rFr~Qj|\231y\256^\006"
  39      49B1BE63 
  39      90AFB36F 
  39      857E7246 
  39      727E516A 
  40 010b 036B5962 		.ascii	"\003kYbNi\2529\016\255\251\025%\372\316\276\301\236"
  40      4E69AA39 
ARM GAS  /tmp/cc6DU3Wg.s 			page 3


  40      0EADA915 
  40      25FACEBE 
  40      C19E
  41 011d C1FA9979 		.ascii	"\301\372\231y\3119\245)\251\372`\255\311\271n\245y\311"
  41      C939A529 
  41      A9FA60AD 
  41      C9B96EA5 
  41      79C9
  42 012f 40DD02BE 		.ascii	"@\335\002\276\301A\012I\211\305\251\005E\231:\012\252"
  42      C1410A49 
  42      89C5A905 
  42      45993A0A 
  42      AA
  43 0140 060C4C45 		.ascii	"\006\014LE\014\354\271\251\271\371E\225\014\000\027"
  43      0CECB9A9 
  43      B9F94595 
  43      0C0017
  44 014f 1D670F   		.ascii	"\035g\017"
  45              		.text
  46              		.section	.gnu.lto_port_unlock.1144c840e79bdd9c,"",%progbits
  47 0000 789C6362 		.ascii	"x\234cb`b@\007\"@,\314\310\3000\001\304af`\004\252`"
  47      60624007 
  47      22402CCC 
  47      C8C03001 
  47      C4616660 
  48 0017 6462040A 		.ascii	"db\004\012002\32431\326G\202\230\014\214J\014\013\033"
  48      303032D4 
  48      3331D647 
  48      82980C8C 
  48      4A0C0B1B 
  49 002b 1A263D68 		.ascii	"\032&=h\375\364\230if\303\201\226\005\015\177\376\377"
  49      FDF49869 
  49      66C38196 
  49      050D7FFE 
  49      FF
  50 003c 6764CC64 		.ascii	"gd\314d\004\232h\316\310\220\314\310\020\001\3440*\200"
  50      049A68CE 
  50      C890CCC8 
  50      1001E430 
  50      2A80
  51 004e 29261654 		.ascii	")&\026T+\3263\035x\360\377\377\213\316\375\373\200&"
  51      2BD6331D 
  51      78F0FFFF 
  51      8BCEFDFB 
  51      8026
  52 0060 3324322E 		.ascii	"3$2.\004\232\006\004\254\014-\015\015\023\024\030@\272"
  52      049A0604 
  52      AC0C2D0D 
  52      0D131418 
  52      40BA
  53 0072 8120044C 		.ascii	"\201 \004L\206\202\034\300|\226\241i\007\220Ngd\004"
  53      86821CC0 
  53      7C96A169 
  53      07904E67 
  53      6404
  54 0084 990736E4 		.ascii	"\231\0076\344\034C\323\307\2773\036K\300u\201\031\015"
  54      1C43D3C7 
ARM GAS  /tmp/cc6DU3Wg.s 			page 4


  54      BF331E4B 
  54      C0758119 
  54      0D
  55 0095 074E3F6D 		.ascii	"\007N?mg\205\031\231\310\270\230\221\025h\034\304\311"
  55      67851999 
  55      C8B89891 
  55      15681CC4 
  55      C9
  56 00a6 4058CA0C 		.ascii	"@X\312\014\36213\304\333r\014m\214s\033f8d22\203\270"
  56      F23133C4 
  56      DB720C6D 
  56      8C731B66 
  56      38643232 
  57 00bc E9606570 		.ascii	"\351`ep\271N\250\034\324\355\027\031\032\037\234\327"
  57      B94EA81C 
  57      D4ED1719 
  57      1A1F9CD7 
  58 00cc 87180803 		.ascii	"\207\030\010\003! \035 \345&9\231I\372\316\031\231I"
  58      21201D20 
  58      E5263999 
  58      49FACE19 
  58      9949
  59 00de 99FEC1F1 		.ascii	"\231\376\301\361\206fz\206z&\372\372\371\305\372E%\372"
  59      86667A86 
  59      7A26FAFA 
  59      F9C5FA45 
  59      25FA
  60 00f0 05F94525 		.ascii	"\005\371E%\305\372\216A\276\316\276\025\372\311\031"
  60      C5FA8E41 
  60      BECEBE15 
  60      FAC919
  61 00ff C9F945A9 		.ascii	"\311\371E\251\361e\346\271z\031\014\254e\2119\245\251"
  61      F165E6B9 
  61      7A190CAC 
  61      658939A5 
  61      A9
  62 0110 E638B4A6 		.ascii	"\3468\264\246V\224\350;\373\006{\006\353g\346%\347\224"
  62      5694E83B 
  62      FB067B06 
  62      EB67E625 
  62      E794
  63 0122 A6A4EA83 		.ascii	"\246\244\352\203\265&\347\272\225\346%\003u\013\370"
  63      B526E7BA 
  63      95E62503 
  63      750BF8
  64 0131 06072924 		.ascii	"\006\007)$%\026\247\026\024e\352(\250\03200\0251\260"
  64      2516A716 
  64      1465EA28 
  64      A81A3030 
  64      1531B0
  65 0144 E7A6E6E6 		.ascii	"\347\246\346\346\027U2\000\000]Vg["
  65      17553200 
  65      005D5667 
  65      5B
  66              		.text
  67              		.section	.gnu.lto_port_lock_from_isr.1144c840e79bdd9c,"",%progbits
  68 0000 789C6362 		.ascii	"x\234cb`b@\007\"@\\\006\304f \0163\003#P\005#\023##"
ARM GAS  /tmp/cc6DU3Wg.s 			page 5


  68      60624007 
  68      22405C06 
  68      C466200E 
  68      33032350 
  69 0019 90C3C850 		.ascii	"\220\303\310P\317\304X\037\311\010V\266\236\351\300"
  69      CFC4581F 
  69      C90856B6 
  69      9EE9C0
  70 0028 83FFFFD7 		.ascii	"\203\377\377\327\355\273\277n\015\343?&\220\030+CKC"
  70      EDBBBF6E 
  70      0DE33F26 
  70      90182B43 
  70      4B43
  71 003a C3040506 		.ascii	"\303\004\005\006\206d\260\212\0200\031\012\322\317|"
  71      8664B08A 
  71      1030190A 
  71      D2CF7C
  72 0049 9EA1F9C1 		.ascii	"\236\241\371\301\313~\366D\306\205\214\254@\301j\206"
  72      CB7EF644 
  72      C6858CAC 
  72      40C16A86 
  73 0059 5F0D1D0D 		.ascii	"_\015\035\015\002\231\214@\245\020\3232A\364E\206\306"
  73      02998C40 
  73      A510D332 
  73      41F44586 
  73      C6
  74 006a 07AFF461 		.ascii	"\007\257\364a\212  \004$\001r\244INf\222\276sFfR\246"
  74      8A202004 
  74      240172A4 
  74      494E6692 
  74      BE734666 
  75 0080 7F70BCA1 		.ascii	"\177p\274\241\231\236\241\236\211\276~~\261~Q\211~A"
  75      999EA19E 
  75      89BE7E7E 
  75      B17E5189 
  75      7E41
  76 0092 7E5149B1 		.ascii	"~QI\261\276c\220\257\263o\205~rFr~Qj|\231y\256^\006"
  76      BE6390AF 
  76      B36F857E 
  76      7246727E 
  76      516A7C99 
  77 00aa 0300EC4B 		.ascii	"\003\000\354K-C"
  77      2D43
  78              		.text
  79              		.section	.gnu.lto_port_unlock_from_isr.1144c840e79bdd9c,"",%progbits
  80 0000 789C6362 		.ascii	"x\234cb`b@\007\"@\\\006\304f \0163\003#P\005#\023##"
  80      60624007 
  80      22405C06 
  80      C466200E 
  80      33032350 
  81 0019 90C3C850 		.ascii	"\220\303\310P\317\304X\037\311\010V\266\236\351\300"
  81      CFC4581F 
  81      C90856B6 
  81      9EE9C0
  82 0028 83FFFFD7 		.ascii	"\203\377\377\327}\271\277\376\016\343\177&\220\030+"
  82      7DB9BFFE 
  82      0EE37F26 
ARM GAS  /tmp/cc6DU3Wg.s 			page 6


  82      90182B
  83 0037 434B43C3 		.ascii	"CKC\303\004\005\006\206d\260\212\0200\031\012\322\317"
  83      04050686 
  83      64B08A10 
  83      30190AD2 
  83      CF
  84 0048 7C9EA1F9 		.ascii	"|\236\241\371\301\237\363\354\211\214\013\031Y\201\202"
  84      C19FF3EC 
  84      898C0B19 
  84      598182
  85 0057 D50CBF1A 		.ascii	"\325\014\277\032:\032\0042\031\201J!\246e\202\350\213"
  85      3A1A0432 
  85      19814A21 
  85      A66582E8 
  85      8B
  86 0068 0C8D0FFE 		.ascii	"\014\215\017\376\352\303\024A@\010H\002\344H\223\234"
  86      EAC31441 
  86      40084802 
  86      E448939C 
  87 0078 CC247DE7 		.ascii	"\314$}\347\214\314\244L\377\340xC3=C=\023}\375\374b"
  87      8CCCA44C 
  87      FFE07843 
  87      333D433D 
  87      137DFDFC 
  88 008d FDA212FD 		.ascii	"\375\242\022\375\202\374\242\222b}\307 _g\337\012\375"
  88      82FCA292 
  88      627DC720 
  88      5F67DF0A 
  88      FD
  89 009e E48CE4FC 		.ascii	"\344\214\344\374\242\324\3702\363\\\275\014\006\000"
  89      A2D4F832 
  89      F35CBD0C 
  89      0600
  90 00ac 57192E11 		.ascii	"W\031.\021"
  91              		.text
  92              		.section	.gnu.lto_chSysLockFromISR.1144c840e79bdd9c,"",%progbits
  93 0000 789C6362 		.ascii	"x\234cb`b@\007\"@|\010\210u@\034f\006F\240\012F&FF "
  93      60624007 
  93      22407C08 
  93      8875401C 
  93      660646A0 
  94 001a 8791A19E 		.ascii	"\207\221\241\236\211\261>\222\021\254l=\323\201\007"
  94      89B13E92 
  94      11AC6C3D 
  94      D38107
  95 0029 FFFFAF9B 		.ascii	"\377\377\257\233rk\355\037\306\027L 1V\206\226\206\206"
  95      726BED1F 
  95      C6174C20 
  95      31568696 
  95      8686
  96 003b 090A0C0C 		.ascii	"\011\012\014\014\311`\025!`2\024\244\237\371<C\363\203"
  96      C9601521 
  96      603214A4 
  96      9FF93C43 
  96      F383
  97 004d 9EB5DC89 		.ascii	"\236\265\334\211\214\013\031Y\201\202\325\014\277\032"
  97      8C0B1959 
ARM GAS  /tmp/cc6DU3Wg.s 			page 7


  97      8182D50C 
  97      BF1A
  98 005b 3A1A0432 		.ascii	":\032\0042\031\201J!\246e\202h\220\252\336^!l\252\230"
  98      19814A21 
  98      A6658268 
  98      90AADE5E 
  98      216CAA98 
  99 006f 5055F5BD 		.ascii	"PU\365\275\345\303\246\212\031\241\352\"C\343\203~]"
  99      E5C3A68A 
  99      19A1EA22 
  99      43E3837E 
  99      5D
 100 0080 98220808 		.ascii	"\230\"\010\010\001I\200L\322\312\311L\322w\316\310L"
 100      0149804C 
 100      D2CAC94C 
 100      D277CEC8 
 100      4C
 101 0091 CAF40F8E 		.ascii	"\312\364\017\21674\3233\3243\321\327\317/\326/*\321"
 101      3734D333 
 101      D433D1D7 
 101      CF2FD62F 
 101      2AD1
 102 00a3 CFCC4BCE 		.ascii	"\317\314K\316)MI\325O\316(\256,\326\313`\000\000Kz;"
 102      294D49D5 
 102      4FCE28AE 
 102      2CD6CB60 
 102      00004B7A 
 103 00b8 7B       		.ascii	"{"
 104              		.text
 105              		.section	.gnu.lto_osalSysLockFromISR.1144c840e79bdd9c,"",%progbits
 106 0000 789C6362 		.ascii	"x\234cb`b@\007\"@\\\011\304: \0163\003#P\005#\023##"
 106      60624007 
 106      22405C09 
 106      C43A200E 
 106      33032350 
 107 0019 90C3C850 		.ascii	"\220\303\310P\317\304X\037\311\010V\266\236\351\300"
 107      CFC4581F 
 107      C90856B6 
 107      9EE9C0
 108 0028 83FFFFD7 		.ascii	"\203\377\377\327Mz\364\342(c\317F\026\220 +CKC\303\004"
 108      4D7AF4E2 
 108      2863CF46 
 108      1690202B 
 108      434B43C3 
 109 003d 05068664 		.ascii	"\005\006\206d\260\222\0200\031\0122\200\371<C\363\203"
 109      B0921030 
 109      190A3280 
 109      F93C43F3 
 109      83
 110 004e EE8D6B18 		.ascii	"\356\215k\030\023\031\0272\262\002E\253\031~5t4\010"
 110      13191732 
 110      B20245AB 
 110      197E3574 
 110      3408
 111 0060 643202D5 		.ascii	"d2\002\325B\314\313\004\321\027\031\032\037\000\015"
 111      42CCCB04 
 111      D117191A 
ARM GAS  /tmp/cc6DU3Wg.s 			page 8


 111      1F000D
 112 006f 83A98280 		.ascii	"\203\251\202\200\020\220\014\310\235Z9\231I\372\316"
 112      10900CC8 
 112      9D5A3999 
 112      49FACE
 113 007e 19994999 		.ascii	"\031\231I\231\376\301\361\206fz\206z&\372\372\371\305"
 113      FEC1F186 
 113      667A867A 
 113      26FAFAF9 
 113      C5
 114 008f FA198939 		.ascii	"\372\031\2119@\012H\024\225\200i\275\014\006\000\327"
 114      400A4814 
 114      958069BD 
 114      0C0600D7 
 115 009f 762AB5   		.ascii	"v*\265"
 116              		.text
 117              		.section	.gnu.lto_osalOsTimerHandlerI.1144c840e79bdd9c,"",%progbits
 118 0000 789C6362 		.ascii	"x\234cb`b@\007\"@\\\011\304: \0163\003#P\005#\023##"
 118      60624007 
 118      22405C09 
 118      C43A200E 
 118      33032350 
 119 0019 90C3C850 		.ascii	"\220\303\310P\317\304X\037\311\010V\266\236\351\300"
 119      CFC4581F 
 119      C90856B6 
 119      9EE9C0
 120 0028 83FFFFD7 		.ascii	"\203\377\377\327\315{\366\341(\343\254\315, AV\206\226"
 120      CD7BF6E1 
 120      28E3ACCD 
 120      2C204156 
 120      8696
 121 003a 8686090A 		.ascii	"\206\206\011\012\014\014\311`%!`2\024d\000\363y\206"
 121      0C0CC960 
 121      25216032 
 121      146400F3 
 121      7986
 122 004c E6073337 		.ascii	"\346\00737oaLd\\\310\310\012\024\255f\370\325\320\321"
 122      6F614C64 
 122      5CC8C80A 
 122      14AD66F8 
 122      D5D0D1
 123 005f 2090C908 		.ascii	" \220\311\010T\0131/\023D_dh|\0004\014\246\012\002B"
 123      540B312F 
 123      13445F64 
 123      687C0034 
 123      0CA60A02 
 124 0074 40322077 		.ascii	"@2 wj\345d&\351;gd&e\372\007\307\033\232\351\031\352"
 124      6AE56426 
 124      E93B6764 
 124      2665FA07 
 124      C71B9AE9 
 125 008a 99E8EBE7 		.ascii	"\231\350\353\347\027\353g$\346\000) QT\002\246\3652"
 125      17EB6724 
 125      E6002920 
 125      515402A6 
 125      F532
 126 009c 1800FD04 		.ascii	"\030\000\375\004+\005"
ARM GAS  /tmp/cc6DU3Wg.s 			page 9


 126      2B05
 127              		.text
 128              		.section	.gnu.lto_chSysUnlockFromISR.1144c840e79bdd9c,"",%progbits
 129 0000 789C6362 		.ascii	"x\234cb`b@\007\"@|\010\210u@\034f\006F\240\012F&FF "
 129      60624007 
 129      22407C08 
 129      8875401C 
 129      660646A0 
 130 001a 8791A19E 		.ascii	"\207\221\241\236\211\261>\222\021\254l=\323\201\007"
 130      89B13E92 
 130      11AC6C3D 
 130      D38107
 131 0029 FFFFAFBB 		.ascii	"\377\377\257\273sk\335\036\306\327L 1V\206\226\206\206"
 131      736BDD1E 
 131      C6D74C20 
 131      31568696 
 131      8686
 132 003b 090A0C0C 		.ascii	"\011\012\014\014\311`\025!`2\024\244\237\371<C\363\203"
 132      C9601521 
 132      603214A4 
 132      9FF93C43 
 132      F383
 133 004d 1D6BF913 		.ascii	"\035k\371\023\031\0272\262\002\005\253\031~5t4\010d"
 133      191732B2 
 133      0205AB19 
 133      7E357434 
 133      0864
 134 005f 32029542 		.ascii	"2\002\225BL\313\004\321 U;\337bU\305\204\252j\327[n"
 134      4CCB04D1 
 134      20553BDF 
 134      6255C584 
 134      AA6AD75B 
 135 0074 6CAA9811 		.ascii	"l\252\230\021\252.24>\330\255\013S\004\001! \011\220"
 135      AA2E3234 
 135      3ED8AD0B 
 135      53040121 
 135      200990
 136 0087 495A3999 		.ascii	"IZ9\231I\372\316\031\231I\231\376\301\361\206fz\206"
 136      49FACE19 
 136      994999FE 
 136      C1F18666 
 136      7A86
 137 0099 7A26FAFA 		.ascii	"z&\372\372\371\305\372E%\372\231y\3119\245)\251\372"
 137      F9C5FA45 
 137      25FA9979 
 137      C939A529 
 137      A9FA
 138 00ab C919C595 		.ascii	"\311\031\305\225\305z\031\014\000\342'<\225"
 138      C57A190C 
 138      00E2273C 
 138      95
 139              		.text
 140              		.section	.gnu.lto_osalSysUnlockFromISR.1144c840e79bdd9c,"",%progbits
 141 0000 789C6362 		.ascii	"x\234cb`b@\007\"@\\\011\304: \0163\003#P\005#\023##"
 141      60624007 
 141      22405C09 
 141      C43A200E 
ARM GAS  /tmp/cc6DU3Wg.s 			page 10


 141      33032350 
 142 0019 90C3C850 		.ascii	"\220\303\310P\317\304X\037\311\010V\266\236\351\300"
 142      CFC4581F 
 142      C90856B6 
 142      9EE9C0
 143 0028 83FFFFD7 		.ascii	"\203\377\377\327\355x\364\343(\343\374\215, AV\206\226"
 143      ED78F4E3 
 143      28E3FC8D 
 143      2C204156 
 143      8696
 144 003a 8686090A 		.ascii	"\206\206\011\012\014\014\311`%!`2\024d\000\363y\206"
 144      0C0CC960 
 144      25216032 
 144      146400F3 
 144      7986
 145 004c E607F336 		.ascii	"\346\007\3636naLd\\\310\310\012\024\255f\370\325\320"
 145      6E614C64 
 145      5CC8C80A 
 145      14AD66F8 
 145      D5D0
 146 005e D12090C9 		.ascii	"\321 \220\311\010T\0131/\023D_dh|\0004\014\246\012\002"
 146      08540B31 
 146      2F13445F 
 146      64687C00 
 146      340CA60A 
 147 0073 42403220 		.ascii	"B@2 wj\345d&\351;gd&e\372\007\307\033\232\351\031\352"
 147      776AE564 
 147      26E93B67 
 147      642665FA 
 147      07C71B9A 
 148 008a 99E8EBE7 		.ascii	"\231\350\353\347\027\353g$\346\000) QT\002\246\3652"
 148      17EB6724 
 148      E6002920 
 148      515402A6 
 148      F532
 149 009c 18001288 		.ascii	"\030\000\022\210+,"
 149      2B2C
 150              		.text
 151              		.section	.gnu.lto_VectorB0.1144c840e79bdd9c,"",%progbits
 152 0000 789C8D51 		.ascii	"x\234\215Q1H\\A\020\235\331\335;\021I\020\254\354\304"
 152      31485C41 
 152      109DD9DD 
 152      3B114910 
 152      ACECC4
 153 0013 462170CB 		.ascii	"F!p\313\251X\004\301B\033AQ\270\023\2224\342]@?\034"
 153      A95804C1 
 153      421B4151 
 153      B8139234 
 153      E25D403F 
 154 0028 2839B1B1 		.ascii	"(9\261\261p\317\373\220`%b\2436Z\210b#\244\022\322\034"
 154      70CFFB90 
 154      602562A3 
 154      365A8862 
 154      23A412D2 
 155 003d 8180298E 		.ascii	"\201\200)\216K\272t\371BP\004;\033\343\211?3\373\363"
 155      4BBA74F9 
 155      4250043B 
ARM GAS  /tmp/cc6DU3Wg.s 			page 11


 155      1BE3893F 
 155      33FBF3
 156 0050 BD533F78 		.ascii	"\275S?x\003\177fw\346\315\374\267o\004\010xl\335\364"
 156      037F6677 
 156      E6CDFCB7 
 156      6F040878 
 156      6CDDF4
 157 0063 F54A8001 		.ascii	"\365J\200\001\276\304\000\011\201BP\302\010ENI\244\200"
 157      BEC40009 
 157      814250C2 
 157      08454E49 
 157      A480
 158 0075 0A91CA08 		.ascii	"\012\221\312\010\313B*\\~\313\027P\235\260k\314\272"
 158      CB422A5C 
 158      7ECB1750 
 158      9DB06BCC 
 158      BA
 159 0086 F7AD7A2A 		.ascii	"\367\255z*67J\356\216\271\365}D\207\213Y\2047t\302\016"
 159      36374AEE 
 159      8EB9F57D 
 159      44878B59 
 159      843774C2 
 160 009b 1B7852BD 		.ascii	"\033xR\275\005\215\346\363\201i\266M\322A\331`\317\325"
 160      058DE6F3 
 160      8169B64D 
 160      D241D960 
 160      CFD5
 161 00ad 9F8913E3 		.ascii	"\237\211\023\343\226|\177\260\341\236\322\357\312F\373"
 161      967C7FB0 
 161      E19ED2EF 
 161      CA46FB
 162 00bc EACECA9A 		.ascii	"\352\316\312\232\271#~\015\320;\022%\317\367o\253\327"
 162      B9237E0D 
 162      D03B1225 
 162      CFF76FAB 
 162      D7
 163 00cd A73EB6C5 		.ascii	"\247>\266\305\020\250E\220\223\222\235\002;\201\244"
 163      10A84590 
 163      93929D02 
 163      3B81A4
 164 00dc 728D59EB 		.ascii	"r\215Y\353\260\263\310\322\326O\262|\262\002E\357bf"
 164      B0B3C8D2 
 164      D64FB27C 
 164      B20245EF 
 164      6266
 165 00ee 1AF73046 		.ascii	"\032\3670F\271%\2701\237L\253\203*kE\004\032@\371\012"
 165      B925B831 
 165      9F4CAB83 
 165      2A6B4504 
 165      1A40F90A 
 166 0102 C82884A8 		.ascii	"\310(\204\250!\312\260r\374\213\264\015`3\210\314\025"
 166      21CAB072 
 166      FC8BB40D 
 166      603388CC 
 166      15
 167 0113 0C19F32D 		.ascii	"\014\031\363-\303\327waE\274\202C\343R5\276\015[\024"
 167      C3D77761 
ARM GAS  /tmp/cc6DU3Wg.s 			page 12


 167      45BC8243 
 167      E35235BE 
 167      0D5B14
 168 0126 9A42B0B5 		.ascii	"\232B\260\265\014\206\017+C\361K\361\014\3036I\235\014"
 168      0C860F2B 
 168      43F14BF1 
 168      0CC33649 
 168      9D0C
 169 0138 93FCD313 		.ascii	"\223\374\323\023p/\013/\356K6_/\312$_%s\272\256~\277"
 169      702F0B2F 
 169      EE4B365F 
 169      2FCA245F 
 169      2573BAAE 
 170 014e E7A41E73 		.ascii	"\347\244\036s:\376\321\022\324,\245\202I\325\223ROI"
 170      3AFED112 
 170      D42CA582 
 170      49D59352 
 170      4F49
 171 0160 7126CE07 		.ascii	"q&\316\007\026\355\357yK\224&\262^\265\242w\363\361"
 171      16EDEF79 
 171      4B9426B2 
 171      5EB5A277 
 171      F3F1
 172 0172 65144A3D 		.ascii	"e\024J=DU\367#Q\261\032*x\225\372\277\260\273\310\205"
 172      4455F723 
 172      51B11A2A 
 172      7895FABF 
 172      B0BBC885 
 173 0186 C59F5D58 		.ascii	"\305\237]XS\015\361\023\012\236\337\025\202\002K\363"
 173      530DF113 
 173      0A9EDF15 
 173      82024BF3 
 174 0196 CE59DFD7 		.ascii	"\316Y\337\3279'\243\207f\235\2143\236\232J\366'\222"
 174      3927A387 
 174      669D8C33 
 174      9E9A4AF6 
 174      2792
 175 01a8 893EADE7 		.ascii	"\211>\255\347\362zv:\247\347\347>,\344u*=\326\333\243"
 175      F27A763A 
 175      A7E7E73E 
 175      2CE4752A 
 175      3DD6DBA3 
 176 01bc 47478775 		.ascii	"GG\207uzdl1\251\363\013S\271\334\373D\026\376\001\205"
 176      7A646C31 
 176      A9F30B53 
 176      B9DCFB44 
 176      16FE0185 
 177 01d0 B8C929   		.ascii	"\270\311)"
 178              		.text
 179              		.section	.gnu.lto_st_lld_init.1144c840e79bdd9c,"",%progbits
 180 0000 789CDD95 		.ascii	"x\234\335\225Mh\023A\024\307\337\354\354&\331\315\247"
 180      4D681341 
 180      14C7DFEC 
 180      EC26D9CD 
 180      A7
 181 0011 D08B1F87 		.ascii	"\320\213\037\207\342M\304,\321\"\"\202\210^\012-\036"
 181      E24DC42C 
ARM GAS  /tmp/cc6DU3Wg.s 			page 13


 181      D1222282 
 181      885E0A2D 
 181      1E
 182 0022 9A42EBA5 		.ascii	"\232B\353\2454\021\332\205@\245)^<dR+,\"\030\364V/\365"
 182      3411DA85 
 182      40A5295E 
 182      3C64522B 
 182      2C2218F4 
 183 0039 2084542C 		.ascii	" \204T,\010B\004\017\301\223\036J\261'o\246\267x+\""
 183      0842040F 
 183      C1931E4A 
 183      B1276FA6 
 183      B7782B22 
 184 004d 5242719D 		.ascii	"RBq\235\267\337I*d\027\352\301\201\374\367\343\275\377"
 184      B7DF492A 
 184      6417EAC1 
 184      81FCF7E3 
 184      BDFF
 185 005f EFCD1B66 		.ascii	"\357\315\033f6\002\010\320?N\363\337\214\014p\015\037"
 185      360208D0 
 185      3F4EF3DF 
 185      8C0C700D 
 185      1F
 186 0070 44203C83 		.ascii	"D <\203\010\204r\245\204\360W\004*\002%\225Y\274\207"
 186      088472A5 
 186      84F05704 
 186      2A022595 
 186      59BC87
 187 0083 91B3F092 		.ascii	"\221\263\360\222\261g\355W\215\365\223\2177Vk\354\267"
 187      B167ED57 
 187      8DF5938F 
 187      37566BEC 
 187      B7
 188 0094 61100D43 		.ascii	"a\020\015CE\0023\374\216\214\232\027A\354-b\331\330"
 188      450233FC 
 188      8E8C9A17 
 188      41EC2D62 
 188      D9D8
 189 00a6 DB3A9337 		.ascii	"\333:\2237\330\241a\320p\036\372\217<\377A?\255\257"
 189      D8A161D0 
 189      701EFA8F 
 189      3CFF413F 
 189      ADAF
 190 00b8 BB4F945A 		.ascii	"\273O\224ZUg\206Q\321\210\030\242P\030\317q6\364m\367"
 190      55678651 
 190      D18818A2 
 190      5018CF71 
 190      36F46DF7 
 191 00cc A97FCF49 		.ascii	"\251\177\317IC\332\366\375\3530\254\351G\030\323\317"
 191      43DAF6FD 
 191      EB30ACE9 
 191      4718D3CF 
 192 00dc 30A65F61 		.ascii	"0\246_aL\007aL\3350\246\303@\246-\241\3256\214\017\317"
 192      4C07614C 
 192      DD30A6C3 
 192      40A62DA1 
 192      D5368C0F 
ARM GAS  /tmp/cc6DU3Wg.s 			page 14


 193 00f1 F7F63A64 		.ascii	"\367\366:d\344\004\001~*\004\024\312\205\212(\022\027"
 193      E404017E 
 193      2A0414CA 
 193      858A2812 
 193      17
 194 0102 318212C5 		.ascii	"1\202\022\305\307\030\212\314ERP\342(\011\224$J\012"
 194      C7188ACC 
 194      455250E2 
 194      28099424 
 194      4A0A
 195 0114 258D9201 		.ascii	"%\215\222\001\263:H\260\306Xm\324\234\007\037yS\247"
 195      B33A48B0 
 195      C6586DD4 
 195      9C071F79 
 195      53A7
 196 0126 F19B45B7 		.ascii	"\361\233E\267a\265\331l\234\232'\357x\346\002!8?`\373"
 196      61B5D96C 
 196      9C9A27EF 
 196      78E60221 
 196      383F60FB 
 197 013a 3AC339F2 		.ascii	":\3039\362\340\025'\"\364E>\336q\"\364<4\330Z5\243\221"
 197      E0152722 
 197      F4453EDE 
 197      7122F43C 
 197      34D85A35 
 198 0150 C80B58E7 		.ascii	"\310\013X\347YQ'\333\034\005\342\364\271\015\017\337"
 198      595127DB 
 198      1C05E2F4 
 198      B90D0FDF 
 199 0160 53C72572 		.ascii	"S\307%r#&Qb\341\306\255\300\021,2\310Z \366\022N\343"
 199      23265162 
 199      E1C6ADC0 
 199      112C32C8 
 199      5A20F612 
 200 0176 39309BD0 		.ascii	"90\233\3207\005\007-\241Ad\255\032K\3655\021\351\213"
 200      3705072D 
 200      A14164AD 
 200      1A4BF535 
 200      11E98B
 201 0189 784D44FB 		.ascii	"xMD\373\013\307\234l\27309\252\011\236\024\035\242\211"
 201      0BC79C6C 
 201      BB3039AA 
 201      099E141D 
 201      A289
 202 019b 9833A71E 		.ascii	"\2303\247\036\026\267\233\263k\036lv\211C\2241Ob|\330"
 202      16B79BB3 
 202      6B1E6C76 
 202      89439431 
 202      4F627CD8 
 203 01af CBDCACA5 		.ascii	"\313\334\254\245\374Pv\335\245\312N\266M\265\376\244"
 203      FC5076DD 
 203      A5CA4EB6 
 203      4DB5FEA4 
 204 01bf F04D64E7 		.ascii	"\360Md\347\206\325xS\177\343\256\212\022\210\254\370"
 204      86D57853 
 204      7FE3AE8A 
 204      1288ACF8 
ARM GAS  /tmp/cc6DU3Wg.s 			page 15


 205 01cf C9D4231B 		.ascii	"\311\324#\033|\244mx\335\203\307\003\301\343~\270\350"
 205      7CA46D78 
 205      DD83C703 
 205      C1E37EB8 
 205      E8
 206 01e0 C1C1067F 		.ascii	"\301\301\006\177\362\300\211\277\202/\300k\004\317r"
 206      F2C089BF 
 206      822FC06B 
 206      04CF72
 207 01ef 9F574371 		.ascii	"\237WCqk$\3745$\267F\334=u=\025;^\305d\240V\222\376"
 207      6B24FC35 
 207      24B746DC 
 207      3D753D15 
 207      3B5EC564 
 208 0207 329141B0 		.ascii	"2\221A\260\276\345\202S\201\300)?8:\010\256{\340t p"
 208      BEE58253 
 208      81C0293F 
 208      383A08AE 
 208      7BE07420 
 209 021c DA0F8EB9 		.ascii	"\332\017\216\271`{\013\363\305\367\300\231@\340\214"
 209      607B0BF3 
 209      C5F7C099 
 209      40E08C
 210 022b 1F2CF782 		.ascii	"\037,\367\202w\340Q\373\363w\3052\003<\200.\323\031"
 210      77E051FB 
 210      F377C532 
 210      033C802E 
 210      D319
 211 023d 3F2089A2 		.ascii	"? \211\242}\03003y\306\272\340\347\215\237\317/Pmw\316"
 211      7D183033 
 211      79C6BAE0 
 211      E78D9FCF 
 211      2F506D77 
 212 0252 39166BE4 		.ascii	"9\026k\3441\0357\372\325\222VPo.j\005\355\366\324\\"
 212      311D37FA 
 212      D5925650 
 212      6F2E6A05 
 212      EDF6D45C 
 213 0266 EE723697 		.ascii	"\356r6\227\035S\325\245\262\2728_R\357--\257\224\325"
 213      1D53D5A5 
 213      B2BA385F 
 213      52EF2D2D 
 213      AF94D5
 214 0279 A9FCE4A5 		.ascii	"\251\374\344\245\213\352\304\304-5?>y?\247\226W\346"
 214      8BEAC4C4 
 214      2D353F3E 
 214      793FA796 
 214      57E6
 215 028b 4AA5BBD9 		.ascii	"J\245\273\331\"\374\001s>\032\333"
 215      22FC0173 
 215      3E1ADB
 216              		.text
 217              		.section	.gnu.lto_.symbol_nodes.1144c840e79bdd9c,"",%progbits
 218 0000 789C4DCA 		.ascii	"x\234M\312\271N\303P\020\205\3413\347\332\261\235}\353"
 218      B94EC350 
 218      1085E133 
 218      E7DAB19D 
ARM GAS  /tmp/cc6DU3Wg.s 			page 16


 218      7DEB
 219 0012 F36C3CC9 		.ascii	"\363l<\3111\216\004\251PX\302\332A\005\217\221\224H"
 219      318E04A9 
 219      5058C2DA 
 219      41058F91 
 219      9448
 220 0024 94D448B4 		.ascii	"\224\324H\264\351\241@,\366\265\270w\232_\337\314\020"
 220      E9A1402C 
 220      F6B5B877 
 220      9A5FDFCC 
 220      10
 221 0035 C4B3C10F 		.ascii	"\304\263\301\017\177 `\375\002H\233\325\001K\223E<4"
 221      7F2060FD 
 221      02489BD5 
 221      014B9345 
 221      3C34
 222 0047 31626572 		.ascii	"1ber\021\037MI\304\017S\032\361\313\324\211\370d\312"
 222      111F4D49 
 222      C40F531A 
 222      F1CBD489 
 222      F864CA
 223 005a 227E9AF2 		.ascii	"\"~\232\362\210k\252h\371\2722\236R\335@\273\242z\236"
 223      886BAA68 
 223      F9BA329E 
 223      52DD40BB 
 223      A27A9E
 224 006d 65697649 		.ascii	"eivI\365\203\256\251A\320-5\014\272\241FA\033j\034t"
 224      F583AEA9 
 224      41D02D35 
 224      0CBAA146 
 224      411B6A1C 
 225 0082 414D82CE 		.ascii	"AM\202\316\251i\320\0315\013\272\243\346\377r\004\252"
 225      A969D019 
 225      350BBAA3 
 225      E6FF7204 
 225      AA
 226 0093 B76F73CE 		.ascii	"\267os\316|\023\266\355\343\241i\017\273\272i\342\367"
 226      7C13B6ED 
 226      E3A1690F 
 226      BBBA69E2 
 226      F7
 227 00a4 9D019675 		.ascii	"\235\001\226u\263Q\333\241\377\313\034\266u\363\314"
 227      B351DBA1 
 227      FFCB1CB6 
 227      75F3CC
 228 00b3 FF15337F 		.ascii	"\377\0253\177/\246\376^\244\250\216\366\013Wtp\3374"
 228      2FA6FE5E 
 228      A4A88EF6 
 228      0B577470 
 228      DF34
 229 00c5 C7B6E904 		.ascii	"\307\266\351\004\357M\307X\036\377\265;\307\356d\277"
 229      EF4DC758 
 229      1EFFB53B 
 229      C7EE64BF 
 230 00d5 C02F5998 		.ascii	"\300/Y\230\217\250"
 230      8FA8
 231              		.text
ARM GAS  /tmp/cc6DU3Wg.s 			page 17


 232              		.section	.gnu.lto_.refs.1144c840e79bdd9c,"",%progbits
 233 0000 789C6362 		.ascii	"x\234cb`b`d\200\002\000\000F\000\006"
 233      60626064 
 233      80020000 
 233      460006
 234              		.text
 235              		.section	.gnu.lto_.decls.1144c840e79bdd9c,"",%progbits
 236 0000 789C9D99 		.ascii	"x\234\235\231{p\023\307\031\300wO~bc\210!\031\247\323"
 236      7B7013C7 
 236      19C0774F 
 236      7E626388 
 236      2119A7D3 
 237 0014 0EA6D3B4 		.ascii	"\016\246\323\264\035\246E\330\246\220\351\264\031\033"
 237      1DA645D8 
 237      A690E9B4 
 237      191B
 238 0022 D906776C 		.ascii	"\331\006wl\360\234L\206I\377P\016\371\300\232\3122\221"
 238      F09C4C86 
 238      49FF500E 
 238      F9C09ACA 
 238      3291
 239 0034 6462FECA 		.ascii	"db\376\312\021\023\240I\230\212g\200\202qL0\201\232"
 239      1113A049 
 239      988A6780 
 239      82714C30 
 239      819A
 240 0046 471C200E 		.ascii	"G\034 \016\246\256 \2048@\035\307\001\023\236u^\206"
 240      A6AE2084 
 240      38401DC7 
 240      01139E75 
 240      5E86
 241 0058 242431CF 		.ascii	"$$1\317\230\220\326\335\335{\350\366tk\337q3\337w\253"
 241      9890D6DD 
 241      DD7BE8F6 
 241      746BDF71 
 241      33DF77AB 
 242 006c BBFD7EDF 		.ascii	"\273\375~\337\267\337~w\273\2228\300\201|\007\000C\350"
 242      B7DF7E77 
 242      BB9238C0 
 242      817C0700 
 242      43E8
 243 007e 983D1180 		.ascii	"\230=\021\200\243\211\000\244\003\000\236\000\261\343"
 243      A38900A4 
 243      03009E00 
 243      B1E3
 244 008c 6124AF22 		.ascii	"a$\257\"iF\262\013I\013\222}HZ\221\034D\322\206\244"
 244      6946B20B 
 244      490B927D 
 244      485A911C 
 244      44D286A4 
 245 00a0 1D490792 		.ascii	"\035I\007\222\243H\216#9\201\244\023\311I$\247\221t"
 245      A3488E23 
 245      3981A413 
 245      C94924A7 
 245      9174
 246 00b2 21E946D2 		.ascii	"!\351F\322\203\344\014\222^\020\177`\037\310=8\217$"
 246      83E40C92 
ARM GAS  /tmp/cc6DU3Wg.s 			page 18


 246      5E107F60 
 246      1FC83D38 
 246      8F24
 247 00c4 03C8717C 		.ascii	"\003\310q|\202\244_\271\317)}\256\231\3306[\260mf\330"
 247      82A45FB9 
 247      CF297DAE 
 247      99D8365B 
 247      B06D66D8 
 248 00d8 EE52EEDF 		.ascii	"\356R\356\337@\322\244\353\277K\361g<Z\030\375[\024"
 248      40D2A4EB 
 248      BF4BF167 
 248      3C5A18FD 
 248      5B14
 249 00ea 1FC6639F 		.ascii	"\037\306c\237I\377\004\345:\366\201su\334\304\256\225"
 249      49FF04E5 
 249      3AF68173 
 249      75DCC4AE 
 249      95
 250 00fb E1A755B1 		.ascii	"\341\247U\2615\036\007\031\375\361\365N\223\376m\214"
 250      351E0719 
 250      FDF1F54E 
 250      93FE6D8C 
 251 010b B8F0753C 		.ascii	"\270\360u<g'\2251\031\217v\206\237v\305\326x\340\272"
 251      67279531 
 251      198F7686 
 251      9F76C5D6 
 251      78E0BA
 252 011e 48417213 		.ascii	"HAr\023\304\346&Yg\177\017\311-$\020\013\224\373b\033"
 252      C4E62659 
 252      677F0FC9 
 252      2D24100B 
 252      94FB621B 
 253 0132 5C273D20 		.ascii	"\\'= Vg\230\217k\250\313\304\007\256\2731H~\011i\037"
 253      5667988F 
 253      6BA8CBC4 
 253      07AEBB31 
 253      487E0969 
 254 0147 5550F68B 		.ascii	"UP\366\213}\374\012\265}P\3665\036\312c\255\205r\315"
 254      7DFC0AB5 
 254      7D50F635 
 254      1ECA63AD 
 254      8572CD
 255 015a 9C43320A 		.ascii	"\234C2\012\311\237\320\347g\220\214F2\006I\"\222qH\206"
 255      C99FD0E7 
 255      67908C46 
 255      32064922 
 255      92714886 
 256 016e D0BDFB48 		.ascii	"\320\275\373H\034\250=\250\214\027\3734\253\343\011"
 256      1CA83DA8 
 256      8C17FB34 
 256      ABE309
 257 017d A0418A76 		.ascii	"\240A\212v\367\275\320\377\031\267I\212.\223\320\243"
 257      F7BDD0FF 
 257      19B7498A 
 257      2E93D0A3 
 258 018d 25C1EC47 		.ascii	"%\301\354G\300z\011\035\215\313%\011\206\005\370\304"
 258      C07A091D 
ARM GAS  /tmp/cc6DU3Wg.s 			page 19


 258      8DCB2509 
 258      8605F8C4 
 259 019d C3601E14 		.ascii	"\303`\036\024`F*\310&\215\364T\022\017\000\002l\202"
 259      60462AC8 
 259      268DF454 
 259      120F0002 
 259      6C82
 260 01af 8F28ADB9 		.ascii	"\217(\255\271\0165\273\323!\230\004v!\373\210$5\375"
 260      0E35BBD3 
 260      21980476 
 260      21FB8824 
 260      35FD
 261 01c1 1C9A7845 		.ascii	"\034\232xEc\007;\260\007\351u\311A\370\230\360*\234"
 261      63073BB0 
 261      07E975C9 
 261      41F898F0 
 261      2A9C
 262 01d3 A0EF22C0 		.ascii	"\240\357\"\300\355\220\213\2175\032\371Ozdi\337\320"
 262      ED908B8F 
 262      351AF94F 
 262      7A6469DF 
 262      D0
 263 01e4 D0B6C6B1 		.ascii	"\320\266\306\261\262\177\016\314\202\250\367kp\322\260"
 263      B27F0ECC 
 263      82A8F76B 
 263      70D2B0
 264 01f3 F866237E 		.ascii	"\370f#~\247)\276#\036_a\005\277\313\210\337m\212\277"
 264      A729BE23 
 264      1E5F6105 
 264      BFCB88DF 
 264      6D8ABF
 265 0206 1D8F5F68 		.ascii	"\035\217_h\005\337b\304\3571\303\367\015\256x7I7\221"
 265      05DF62C4 
 265      EF31C3F7 
 265      0DAE7837 
 265      493791
 266 0219 AA8B9DD0 		.ascii	"\252\213\235\320\212\217}F\037\373M}\014\234:\236e\342"
 266      8A8F7D46 
 266      1FFB4D7D 
 266      0C9C3A9E 
 266      65E2
 267 022b E3334B3E 		.ascii	"\3433K>Z\215>\3364MSC\177'\224\326H?\016\015\325/\343"
 267      5A8D3EDE 
 267      344D5343 
 267      7F2794D6 
 267      483F0E0D 
 268 0242 80EAE2AE 		.ascii	"\200\352\342\256%\027\007\215.\0161Ru\316,U/rV|\264"
 268      2517078D 
 268      2E0E3152 
 268      75CE2C55 
 268      2F72567C 
 269 0257 197DBC6D 		.ascii	"\031}\274m\236\252\227\272\314R\265\325\222\217v\243"
 269      9EAA97BA 
 269      CC52B5D5 
 269      928F76A3 
 270 0267 8F23F13E 		.ascii	"\217#\361>\032\243}g?\372n\\\314\207\226\253o,\371\350"
 270      1AA37D67 
ARM GAS  /tmp/cc6DU3Wg.s 			page 20


 270      3FFA6E5C 
 270      CC8796AB 
 270      6F2CF9E8 
 271 027b 30FAF897 		.ascii	"0\372\370\227\231\217\350[kN\251\323\221\020\233\015"
 271      998FE85B 
 271      6B4EA9D3 
 271      91109B0D 
 272 028b 4B1E8E1A 		.ascii	"K\036\216\032=\034\213\367\320\027\351[\277\371r=\\"
 272      3D1C8BF7 
 272      D017E95B 
 272      BFF9723D 
 272      5C
 273 029c 5DDFD829 		.ascii	"]\337\330)\015\014\015\215\321|\354s\030}\310\220wM"
 273      0D0C0D8D 
 273      D17CEC73 
 273      187DC890 
 273      774D
 274 02ae 21FBAF9C 		.ascii	"!\373\257\234\201\233\244c8\025\317i\210;\014\304{\246"
 274      819BA463 
 274      3815CF69 
 274      883B0CC4 
 274      7BA6
 275 02c0 88C11597 		.ascii	"\210\301\025\227\022\342\020k\023\314\021\357\233G\321"
 275      12E2106B 
 275      13CC11EF 
 275      9B47D1
 276 02cf 70363E8A 		.ascii	"p6>\212f\006\342\224)b\335\205\313\2168\304;\014\304"
 276      6606E294 
 276      2962DD85 
 276      CB8E38C4 
 276      3B0CC4
 277 02e2 BF4D119F 		.ascii	"\277M\021\237\177\177\022\256$S\346\320\010W\030\204"
 277      7F7F12AE 
 277      2453E6D0 
 277      08571884 
 278 02f2 0F18415C 		.ascii	"\017\030A\\\211\017\342\006\003\361\241\031\":\330\365"
 278      890FE206 
 278      03F1A119 
 278      223AD8F5 
 279 0302 B204C9FB 		.ascii	"\262\004\311\373n\202\012X\236h\016\370\2101\243]\361"
 279      6E820A58 
 279      9E680EF8 
 279      8831A35D 
 279      F1
 280 0313 B9FC3B03 		.ascii	"\271\374;\003q\326\024\321\361\365\300\243\032\302\372"
 280      71D614D1 
 280      F1F5C0A3 
 280      1AC2FA
 281 0322 CA764E59 		.ascii	"\312vNY\331\034d\375\004\251`\245$=\217\015gu\242E\333"
 281      D91C64FD 
 281      04A960A5 
 281      243D8F0D 
 281      6775A245 
 282 0337 CCEA31F0 		.ascii	"\314\3521\360\032Z\363\372\266~\327\235\325\"I\350\365"
 282      1A5AF3FA 
 282      B67ED79D 
 282      D52249E8 
ARM GAS  /tmp/cc6DU3Wg.s 			page 21


 282      F5
 283 0348 7E1EA622 		.ascii	"~\036\246\"\343eIt\264\326I\3557\243\257\300z\024\251"
 283      E3654974 
 283      B4D649ED 
 283      37A3AFC0 
 283      7A14A9
 284 035b 002F1154 		.ascii	"\000/\021T\273\001%\300\344T:\005\350\263\332\001\363"
 284      BB0125C0 
 284      E4543A05 
 284      E8B3DA01 
 284      F3
 285 036c C86DA581 		.ascii	"\310m\245\201\267\315c\200\335\356\312\360\345\301\000"
 285      B7CD6380 
 285      DDEECAF0 
 285      E5C100
 286 037b FD420FF0 		.ascii	"\375B\017\360Z\177\"\311|*\372\350\251x\010DH\332\363"
 286      5A7F22C9 
 286      7C2AFAE8 
 286      A9780844 
 286      48DAF3
 287 038e 376628C3 		.ascii	"7f(\303\357\333!eei\243OQG\017\325\321\343\315\003'"
 287      EFDB2165 
 287      6569A34F 
 287      51470FD5 
 287      D1E3CD03 
 288 03a3 C04FC9B8 		.ascii	"\300O\311\270\317%\231\357\"\200\334\001(Q\313m\265"
 288      CF2599EF 
 288      2280DC01 
 288      2851CB6D 
 288      B5
 289 03b4 350435FC 		.ascii	"5\0045\374X\025\317)V\237\300\207bs!)sAz\260\312\341"
 289      5815CF29 
 289      569FC087 
 289      62732129 
 289      73417AB0 
 290 03ca 0B9D9FF4 		.ascii	"\013\235\237\364\324XC\015L\031a\366\306\014\331\273"
 290      D458430D 
 290      4C1961F6 
 290      C60CD9BB 
 291 03da C2795CED 		.ascii	"\302y\\\355\227\254p\372m{\276\312\360\234\244xV\226"
 291      97AC70FA 
 291      6D7BBECA 
 291      F09CA478 
 291      5696
 292 03ec 9A7B77BB 		.ascii	"\232{w\273_\206\253\367-\227\360\343\366\334\266h$\301"
 292      5F86ABF7 
 292      2D97F0E3 
 292      F6DCB668 
 292      24C1
 293 03fe 7AAD7F49 		.ascii	"z\255\177I\327\272<\331\206\231^\227\254\237i\322\223"
 293      D7BA3CD9 
 293      86995E97 
 293      AC9F69D2 
 293      93
 294 040f 034DC9CA 		.ascii	"\003M\311\312\370\177\001\266Kh\201\370\360Dz\004\252"
 294      F87F01B6 
 294      4B6881F8 
ARM GAS  /tmp/cc6DU3Wg.s 			page 22


 294      F0447A04 
 294      AA
 295 0420 85BF9F58 		.ascii	"\205\277\237X\\C\357\1773\277ZE)\213\306\255\245\345"
 295      5C43EF7F 
 295      33BF5A45 
 295      298BC6AD 
 295      A5E5
 296 0432 59DAA271 		.ascii	"Y\332\242q\315\270h|M\327S\032x1\366\014\311\257\005"
 296      CDB8687C 
 296      4DD7531A 
 296      7831F60C 
 296      C9AF05
 297 0445 D6D86EC0 		.ascii	"\326\330n\3004S\253L\260\232L\230\356\031\224\222T\343"
 297      3453AB4C 
 297      B09A4C98 
 297      EE199492 
 297      54E3
 298 0457 A781F610 		.ascii	"\247\201\366\020^\276?\020\220\237\301[0\023\215\352"
 298      5EBE3F10 
 298      909FC15B 
 298      30138DEA 
 299 0467 76325DF1 		.ascii	"v2]\361#rp\020w\221\251l$\027wt\355\305t)A\276\016L"
 299      23727010 
 299      7791A96C 
 299      24177774 
 299      EDC57429 
 300 047f 1E20E598 		.ascii	"\036 \345\230\010\032\245e\365\321\365\027\267<*5\036"
 300      081AA565 
 300      F5D1F517 
 300      B73C2A35 
 300      1E
 301 0490 83A466EA 		.ascii	"\203\244f\352\207}s\010\360\002|\314\322\203\315\001"
 301      877D7308 
 301      F0027CCC 
 301      D283CD01 
 302 04a0 29052AA1 		.ascii	")\005*\241\231\221\264rSk/#\325\020\326\206\213\351"
 302      9991B472 
 302      536B2F23 
 302      D510D686 
 302      8BE9
 303 04b2 114180F7 		.ascii	"\021A\200\367\344\267\234mX6\005\333\250\207\255\264"
 303      E4B79C6D 
 303      583605DB 
 303      A887ADB4 
 304 04c2 024B6147 		.ascii	"\002KaG\266Y\017[e\033FG\266E\017[c\0056\226\035Y\203"
 304      B6590F5B 
 304      651B4647 
 304      B6450F5B 
 304      63053696 
 305 04d9 1EB6DE36 		.ascii	"\036\266\3366\214\216l\277\036\266\311\012,\213\035"
 305      8C8E6CBF 
 305      1EB6C90A 
 305      2C8B1D
 306 04e8 59AB1EB6 		.ascii	"Y\253\036\266\3156\214\216\354\200\036\266\303\012,"
 306      CD368C8E 
 306      EC801EB6 
 306      C30A2C
ARM GAS  /tmp/cc6DU3Wg.s 			page 23


 307 04f7 9B1DD921 		.ascii	"\233\035\331!=l\267m\030\035Y\233\036\266\327\012\354"
 307      3D6CB76D 
 307      181D599B 
 307      1EB6D70A 
 307      EC
 308 0508 D7ECC80E 		.ascii	"\327\354\310\016\353a\255\266atdG\364\260CV`SX\221-"
 308      EB61ADB6 
 308      61746447 
 308      F4B04356 
 308      60535891 
 309 051d 8D76FC39 		.ascii	"\215v\3749\"\250K\022~C\336\213-I\350;\002UZ\372n\347"
 309      22A84B12 
 309      7E43DE8B 
 309      2D49E83B 
 309      02555AFA 
 310 0533 D9DD04B8 		.ascii	"\331\335\004\270\236\263\273tm\340\314\227\256\330\272"
 310      9EB3BB74 
 310      6DE0CC97 
 310      AED8BA
 311 0542 A2EF8586 		.ascii	"\242\357\205\206}\3308l:\012\263q\323I\354\326'\261"
 311      7DD8386C 
 311      3A0AB371 
 311      D349ECD6 
 311      27B1
 312 0554 C34A12F3 		.ascii	"\303J\022\363\331\260\036=\354\035+\260Y\354Z9\243\207"
 312      D9B01E3D 
 312      EC1D2BB0 
 312      59EC5A39 
 312      A387
 313 0566 BD671B46 		.ascii	"\275g\033FG\326\253\207\235\266\002+gG\366\261\036\366"
 313      47D6AB87 
 313      9DB6022B 
 313      6747F6B1 
 313      1EF6
 314 0578 816D983E 		.ascii	"\201m\230>\262\245\321\013\261\302k\3147T^>\375\266"
 314      B2A5D10B 
 314      B1C26BCC 
 314      37545E3E 
 314      FDB6
 315 058a A5BA9D67 		.ascii	"\245\272\235gvC\353\230Rx\261]\230\361#\007\316\032"
 315      7643EB98 
 315      5278B15D 
 315      98F12307 
 315      CE1A
 316 059c E3A6284A 		.ascii	"\343\246(Js\236I\022\314\016\375\202-\300\357\311\212"
 316      739E4912 
 316      CC0EFD82 
 316      2DC0EFC9 
 316      8A
 317 05ad 3A082722 		.ascii	":\010'\"}\237\350\377\022=D\364R\016\353z\242_ z\005"
 317      7D9FE8FF 
 317      123D44F4 
 317      520EEB7A 
 317      A25F207A 
 318 05c2 D17F25FA 		.ascii	"\321\177%\372%\242W\021\3757\242W\023\275\226\350\215"
 318      25A25711 
 318      FD37A257 
ARM GAS  /tmp/cc6DU3Wg.s 			page 24


 318      13BD96E8 
 318      8D
 319 05d3 446F267A 		.ascii	"Do&z\013\321\015D7\022\335\204\264v\260\036\261\233"
 319      0BD10D44 
 319      3712DD84 
 319      B476B01E 
 319      B19B
 320 05e5 D6B73751 		.ascii	"\326\2677Qm\227\275R\333fG\372\3564\337{\035\276A\276"
 320      6D97BD52 
 320      DB6647FA 
 320      EE34DF7B 
 320      1DBE41BE 
 321 05f9 AFECE4F0 		.ascii	"\257\354\344\360\006\347\225\324\02178\006\022\371\265"
 321      06E795D4 
 321      11373806 
 321      12F9B5
 322 0608 8B33EC70 		.ascii	"\2133\354p\266^\355\204\222\224\"\337\031y\217\363\306"
 322      B65EED84 
 322      929422DF 
 322      19798FF3 
 322      C6
 323 0619 D54EF20B 		.ascii	"\325N\362\013\244C-\304\355$\014l\374`\273\223V\354"
 323      A4432DC4 
 323      ED240C6C 
 323      FC60BB93 
 323      56EC
 324 062b 7F4DBA8A 		.ascii	"\177M\272\212k\266\215\313\246p\007h\334^+\270av(\207"
 324      6BB68DCB 
 324      A6700768 
 324      DC5E2BB8 
 324      61762887 
 325 063f 68DC9BB6 		.ascii	"h\334\233\266qttm4\356-+\270av)\207i\\\3246\216\216"
 325      7174746D 
 325      34EE2D2B 
 325      B8617629 
 325      87695CD4 
 326 0656 EE088D7B 		.ascii	"\356\010\215{\337\012\216\265S\221\236\217v\2508\371"
 326      DF0A8EB5 
 326      53919E8F 
 326      76A838F9 
 327 0666 6B468F6D 		.ascii	"kF\217m\034\035]7\035\335%+\270lv\356zh\334\027\266"
 327      1C1D5D37 
 327      1DDD252B 
 327      B86C76EE 
 327      7A68DC17 
 328 067b 71BAE8D0 		.ascii	"q\272\350\320ct\346j\012\241\341w \007\2765\322\314"
 328      6374E66A 
 328      0AA1E177 
 328      2007BE35 
 328      D2CC
 329 068d DE72C36C 		.ascii	"\336r\303lXz\351\340\006\255\004\307\334e\240\225\203"
 329      587AE9E0 
 329      06AD04C7 
 329      DC65A095 
 329      83
 330 069e C649A3EC 		.ascii	"\306I\243\354\342\350\231\270@\343VZ\301=\316\256\223"
 330      E2E899B8 
ARM GAS  /tmp/cc6DU3Wg.s 			page 25


 330      40E3565A 
 330      C13DCEAE 
 330      93
 331 06af 4B749D44 		.ascii	"Kt\235Dl\343\350\350\256\320\321m\266\202\313g\347n"
 331      6CE3E8E8 
 331      AED0D16D 
 331      B682CB67 
 331      E76E
 332 06c1 80C635D9 		.ascii	"\200\3065\331\306\321ur\223\252\223\335F\232Y\235\014"
 332      C6D17572 
 332      93AA93DD 
 332      469A599D 
 332      0C
 333 06d2 B359B94D 		.ascii	"\263Y\271M\007w\300Jp\303\3540\356\322\270\016\3338"
 333      0777C04A 
 333      70C3EC30 
 333      EED2B80E 
 333      DB38
 334 06e4 7A260669 		.ascii	"z&\006i\\\247\025\234\331\322\257\324\311\017\206\367"
 334      5CA7159C 
 334      D9D2AFD4 
 334      C90F86F7 
 335 06f4 896D1C1D 		.ascii	"\211m\034\035\335\217\206\367\211\025\334\323\354\334"
 335      DD8F86F7 
 335      8915DCD3 
 335      ECDC
 336 0702 FD8FC6F5 		.ascii	"\375\217\306\365\333\306\321u\022\371J_'\003V\352\244"
 336      DBC6D175 
 336      12F94A5F 
 336      270356EA 
 336      A4
 337 0713 8A1DDC9A 		.ascii	"\212\035\334\232\257\250\340~\260\022\334\"6n\035\215"
 337      AFA8E07E 
 337      B012DC22 
 337      366E1D8D 
 338 0723 1BB28DA3 		.ascii	"\033\262\215\243\307\272\201\032k}\232\205\261\326\261"
 338      C7BA811A 
 338      6B7D9A85 
 338      B1D6B1
 339 0732 83DB4807 		.ascii	"\203\333H\007\267\312\2103\013N\202l\336f\232\267\326"
 339      B7CA8833 
 339      0B4E826C 
 339      DE669AB7 
 339      D6
 340 0743 3E2F1B30 		.ascii	">/\0330\017\375\206L\200\377\340\360\016\266\205\354"
 340      0FFD864C 
 340      80FFE0F0 
 340      0EB685EC 
 341 0753 2AF712BD 		.ascii	"*\367\022\275\237\350V\242\017\020}\210\3506\242\017"
 341      9FE856A2 
 341      0F107D88 
 341      E836A20F 
 342 0763 137D84E8 		.ascii	"\023}\204\350\016\242\243D\037#\3728\321'\210\356$\372"
 342      0EA2A344 
 342      1F23FA38 
 342      D12788EE 
 342      24FA
ARM GAS  /tmp/cc6DU3Wg.s 			page 26


 343 0775 24D1A789 		.ascii	"$\321\247\211\356\"\272\233\350\036\242\317\020\335"
 343      EE22BA9B 
 343      E81EA2CF 
 343      10DD
 344 0783 4BF4C744 		.ascii	"K\364\307D_ \372\022\321W\210\356#\372S\242?'\272\337"
 344      5F20FA12 
 344      D15788EE 
 344      23FA53A2 
 344      3F27BADF 
 345 0797 CAEEB799 		.ascii	"\312\356\267\231\263\376\343\036\365MR\336\374F\317"
 345      B3FEE31E 
 345      F54D52DE 
 345      FC46CF
 346 07a6 6EC07FCA 		.ascii	"n\300\177\312}I\366\275\015i#\377\260\027\367\235\370"
 346      7D49F6BD 
 346      0D6923FF 
 346      B017F79D 
 346      F8
 347 07b7 BA71DBFB 		.ascii	"\272q\333\373v/\371a\357\272\245M\357?{\327\221\037"
 347      762FF961 
 347      EFBAA54D 
 347      EF3F7BD7 
 347      911F
 348 07c9 F6D41AD8 		.ascii	"\366\324\032\330CB\270"
 348      4342B8
 349 07d0 FEC07BDE 		.ascii	"\376\300{\336\216^\355\233\234\000\367p\234MX6\005\353"
 349      8E5EED9B 
 349      9C00F770 
 349      9C4D5836 
 349      05EB
 350 07e2 EED57D2D 		.ascii	"\356\325}-<`%\262a\366\273=zX\273m\330\260\225~]W\351"
 350      3C6025B2 
 350      61F6BB3D 
 350      7A58BB6D 
 350      D8B0957E 
 351 07f9 DF904AFF 		.ascii	"\337\220J\377\226T\320\000\3217\210\276e\245\232\256"
 351      9654D000 
 351      D13788BE 
 351      65A59AAE 
 352 0809 31AA49FE 		.ascii	"1\252I\3763\210eu'f\005\246\372}\363\235\256*\337|\337"
 352      33886575 
 352      276605A6 
 352      FA7DF39D 
 352      AE2ADF7C 
 353 081e 1CB72767 		.ascii	"\034\267'g\332\344\234\311S\235\316\232\2203\030v.\252"
 353      DAE49CC9 
 353      539DCE9A 
 353      90331876 
 353      2EAA
 354 0830 098643CE 		.ascii	"\011\206C\316\002\276\314UV\347\364Vyk\202\242g\361"
 354      02BECC55 
 354      56E7F456 
 354      796B82A2 
 354      67F1
 355 0842 F4EAC955 		.ascii	"\364\352\311U \025\337\362\370k\274\177I\2329{n\266"
 355      2015DFF2 
 355      F86BBC7F 
ARM GAS  /tmp/cc6DU3Wg.s 			page 27


 355      499A397B 
 355      6EB6
 356 0854 0BA4910B 		.ascii	"\013\244\221\013\265\001|)S\273\351Y\020\254\251\366"
 356      B5017C29 
 356      53BBE959 
 356      10ACA9F6 
 357 0864 F842C1F1 		.ascii	"\370B\301\361\272\333\332\305Il\317\276\200\327_[)\""
 357      BADBDAC5 
 357      496CCFBE 
 357      80D75F5B 
 357      2922
 358 0876 A7A12521 		.ascii	"\247\241%!\344o\254\267\312\275$T\212\254\213\221q\211"
 358      E46FACB7 
 358      CABD2454 
 358      8AAC8B91 
 358      7189
 359 0888 9B67D956 		.ascii	"\233g\331V\011~tB\012A\360\031\331f\3423m=\016_\232"
 359      097E7442 
 359      0A41F019 
 359      D966E233 
 359      6D3D0E5F 
 360 089d 13AAF055 		.ascii	"\023\252\360U\213\301YB\240\322/\006K2\211\213\271$"
 360      8BC15942 
 360      A0D22F06 
 360      4B32898B 
 360      B924
 361 08af 44A5DB78 		.ascii	"D\245\333x\305\222\272\370\373a<\313\011sW\224\345\345"
 361      C592BAF8 
 361      FB613CCB 
 361      09735794 
 361      E5E5
 362 08c1 3A4B4B0B 		.ascii	":KK\013\235\025%e\213s\234!\224\014\177\345d/HyR\364"
 362      9D152565 
 362      8B739C21 
 362      940C7FE5 
 362      642F4879 
 363 08d7 866B8233 		.ascii	"\206k\2023\246\244\311\227<\276\200/\374\033+Y\250\024"
 363      A6A4C997 
 363      3CBE802F 
 363      FC1B2B59 
 363      A814
 364 08e9 E7D72E44 		.ascii	"\347\327.Dc\311\362T\316_\350\361V\211(\215T.-QBa!\214"
 364      63C9F254 
 364      CE5FE8F1 
 364      5689288D 
 364      542E2D51 
 365 0901 B3F9330F 		.ascii	"\263\3713\017ia\215f\245Z\024B\265hf\275A_\030\243\344"
 365      69618D66 
 365      A55A1442 
 365      B56866BD 
 365      415F18A3 
 366 0916 4450B9F9 		.ascii	"DP\271\371\251fP\263(\256\377Ot1\031f8\323C\346\335"
 366      A96650B3 
 366      28AEFF4F 
 366      74311966 
 366      38D343E6 
 367 092b 177CC623 		.ascii	"\027|\306#.\362\371k\026\326\212\343\365#\020\205\305"
ARM GAS  /tmp/cc6DU3Wg.s 			page 28


 367      2EF2F96B 
 367      16D68AE3 
 367      F5231085 
 367      C5
 368 093c 22290FDD 		.ascii	"\")\017\335E1\020\026\203\370\3428\305)\212?\210\\\212"
 368      45311016 
 368      83F8E238 
 368      C5298A3F 
 368      885C8A
 369 094f 18336DC4 		.ascii	"\0303m\304\344{k\252\253k\002j\321\006\026\373\274x"
 369      E47B6BAA 
 369      AB6B026A 
 369      D10616FB 
 369      BC78
 370 0961 C0CEDA50 		.ascii	"\300\316\332PPKD@|\026cB\341J_ \214\356\246\324\242"
 370      504B4440 
 370      7C166342 
 370      E14A5F20 
 370      8CEEA6D4 
 371 0976 735EAE27 		.ascii	"s^\256'\374[\263n\325\202\267\312\027\020\235\236Jq"
 371      FC5BB36E 
 371      D582B7CA 
 371      17109D9E 
 371      4A71
 372 0988 8150EB0F 		.ascii	"\201P\353\017{\302K\026\2118\213\243<\036\325p,\366"
 372      7BC24B16 
 372      89388BA3 
 372      3C1ED570 
 372      2CF6
 373 099a 531410E6 		.ascii	"S\024\020\346\373Ey\212\023\274UBp:#X\261.\354t\225"
 373      FB45798A 
 373      13BC5542 
 373      703A2358 
 373      B12EEC74 
 374 09af B94BDCB1 		.ascii	"\271K\334\261\251\301O\226\267\272\2706\200\243\035"
 374      A9C14F96 
 374      B7BAB836 
 374      80A31D
 375 09be EDF184C4 		.ascii	"\355\361\204\304\260gF\201\273\250\234/\031-\370\237"
 375      B0674681 
 375      BBA89C2F 
 375      192DF89F 
 376 09ce 1596E034 		.ascii	"\025\226\3404\370Q\030\211\213\005\177\255\370\307\007"
 376      F8511889 
 376      8B057FAD 
 376      F8C707
 377 09dd A8C16A1C 		.ascii	"\250\301j\034\250\017?\274i\332\007O\330\341\342s\220"
 377      A80F3FBC 
 377      69DA074F 
 377      D8E1E273 
 377      90
 378 09ee E426B8CB 		.ascii	"\344&\270\313\\|BaI\021\317\271yG\321L>\321\345*\343"
 378      5C7C4261 
 378      4911CFB9 
 378      7947D14C 
 378      3ED1E52A 
 379 0a03 7388CE4D 		.ascii	"s\210\316Mp\271\212x\207kv\205\243\334\355r\024\360"
ARM GAS  /tmp/cc6DU3Wg.s 			page 29


 379      70B98A78 
 379      876B7685 
 379      A3DCED72 
 379      14F0
 380 0a15 BC8377A1 		.ascii	"\274\203w\241\317\310`Fa\005\357(\304\226e\005<7G\266"
 380      CFC86046 
 380      6105EF28 
 380      C4966505 
 380      3C3747B6 
 381 0a29 CA43FDE7 		.ascii	"\312C\375\347\361\177\030q\364\356\0129\314\342\251"
 381      F17F1871 
 381      F4EE0A39 
 381      CCE2A9
 382 0a38 75757280 		.ascii	"uur\200\013\246N\231^W\207C\344].O\005Jt\241\270\200"
 382      0BA64E99 
 382      5E578743 
 382      E45D2E4F 
 382      054A74A1 
 383 0a4e 73F1C9E5 		.ascii	"s\361\311\345\245\245\256\342\231|\002V\016W\011\237"
 383      A5A5AEE2 
 383      997C0256 
 383      0E57099F 
 384 0a5e 52306B46 		.ascii	"R0kF\016\357\256 \215\\\265\221\207\033\251|\221\273"
 384      0EEFAE20 
 384      8D5CB591 
 384      871BA97C 
 384      91BB
 385 0a70 887FB2A8 		.ascii	"\210\177\262\250pJJA\271\332\251\\\356\244\335\313I"
 385      704A4A41 
 385      B9DAA95C 
 385      EEA4DDCB 
 385      49
 386 0a81 C680A2D9 		.ascii	"\306\200\242\331<>\347*\347<t\326z\344&ckr\247\234\364"
 386      3C3EE72A 
 386      E73C74D6 
 386      7AE42663 
 386      6B72A79C 
 387 0a96 D0EEE4A5 		.ascii	"\320\356\344\245b\333\322r|\015[k\255<\271\245\366\233"
 387      62DBD272 
 387      7C0D5B6B 
 387      AD3CB9A5 
 387      F69B
 388 0aa8 9A8A09CA 		.ascii	"\232\212\011\312\335r\265\237z\367w(w8\211\356\330\245"
 388      DD72B59F 
 388      7AF77728 
 388      773889EE 
 388      D8A5
 389 0aba 69896EB7 		.ascii	"i\211n\267k&?\012\015\266$\327\215\207\232Q8cf\231k"
 389      6B263F0A 
 389      0DB624D7 
 389      8D879A51 
 389      38636699 
 390 0acf AE9A89A4 		.ascii	"\256\232\211\244\222B\327\234\302\242$\314-~\012\237"
 390      9242D79C 
 390      C2A224CC 
 390      2D7E0A9F 
 391 0adf 728B9FFA 		.ascii	"r\213\237\372?o\371O\266"
ARM GAS  /tmp/cc6DU3Wg.s 			page 30


 391      3F6FF94F 
 391      B6
 392              		.text
 393              		.section	.gnu.lto_.symtab.1144c840e79bdd9c,"",%progbits
 394 0000 56656374 		.ascii	"VectorB0\000\000\000\000\000\000\000\000\000\000\000"
 394      6F724230 
 394      00000000 
 394      00000000 
 394      000000
 395 0013 00BE0000 		.ascii	"\000\276\000\000\000st_lld_init\000\000\000\000\000"
 395      0073745F 
 395      6C6C645F 
 395      696E6974 
 395      00000000 
 396 0028 00000000 		.ascii	"\000\000\000\000\000\000\000\301\000\000\000_dbg_ch"
 396      000000C1 
 396      0000005F 
 396      6462675F 
 396      6368
 397 003a 65636B5F 		.ascii	"eck_lock_from_isr\000\000\002\000\000\000\000\000\000"
 397      6C6F636B 
 397      5F66726F 
 397      6D5F6973 
 397      72000002 
 398 0054 000000C4 		.ascii	"\000\000\000\304\000\000\000_stats_start_measure_cr"
 398      0000005F 
 398      73746174 
 398      735F7374 
 398      6172745F 
 399 0072 69745F69 		.ascii	"it_isr\000\000\002\000\000\000\000\000\000\000\000\000"
 399      73720000 
 399      02000000 
 399      00000000 
 399      0000
 400 0084 C6000000 		.ascii	"\306\000\000\000chSysTimerHandlerI\000\000\002\000\000"
 400      63685379 
 400      7354696D 
 400      65724861 
 400      6E646C65 
 401 009f 00000000 		.ascii	"\000\000\000\000\000\000\000\310\000\000\000_stats_"
 401      000000C8 
 401      0000005F 
 401      73746174 
 401      735F
 402 00b1 73746F70 		.ascii	"stop_measure_crit_isr\000\000\002\000\000\000\000\000"
 402      5F6D6561 
 402      73757265 
 402      5F637269 
 402      745F6973 
 403 00ce 00000000 		.ascii	"\000\000\000\000\312\000\000\000_dbg_check_unlock_f"
 403      CA000000 
 403      5F646267 
 403      5F636865 
 403      636B5F75 
 404 00e9 726F6D5F 		.ascii	"rom_isr\000\000\002\000\000\000\000\000\000\000\000"
 404      69737200 
 404      00020000 
ARM GAS  /tmp/cc6DU3Wg.s 			page 31


 404      00000000 
 404      0000
 405 00fb 00CC0000 		.ascii	"\000\314\000\000\000_port_irq_epilogue\000\000\002\000"
 405      005F706F 
 405      72745F69 
 405      72715F65 
 405      70696C6F 
 406 0116 00000000 		.ascii	"\000\000\000\000\000\000\000\000\316\000\000\000_db"
 406      00000000 
 406      CE000000 
 406      5F6462
 407 0125 675F6368 		.ascii	"g_check_leave_isr\000\000\002\000\000\000\000\000\000"
 407      65636B5F 
 407      6C656176 
 407      655F6973 
 407      72000002 
 408 013f 000000D0 		.ascii	"\000\000\000\320\000\000\000_dbg_check_enter_isr\000"
 408      0000005F 
 408      6462675F 
 408      63686563 
 408      6B5F656E 
 409 015b 00020000 		.ascii	"\000\002\000\000\000\000\000\000\000\000\000\322\000"
 409      00000000 
 409      000000D2 
 409      00
 410 0168 00005F73 		.ascii	"\000\000_stats_increase_irq\000\000\002\000\000\000"
 410      74617473 
 410      5F696E63 
 410      72656173 
 410      655F6972 
 411 0183 00000000 		.ascii	"\000\000\000\000\000\000\324\000\000\000nvicEnableV"
 411      0000D400 
 411      00006E76 
 411      6963456E 
 411      61626C65 
 412 0198 6563746F 		.ascii	"ector\000\000\002\000\000\000\000\000\000\000\000\000"
 412      72000002 
 412      00000000 
 412      00000000 
 412      00
 413 01a9 D6000000 		.ascii	"\326\000\000\000"
 414              		.text
 415              		.section	.gnu.lto_.opts,"",%progbits
 416 0000 272D6D63 		.ascii	"'-mcpu=cortex-m4' '-mno-thumb-interwork' '-mthumb' "
 416      70753D63 
 416      6F727465 
 416      782D6D34 
 416      2720272D 
 417 0033 272D6767 		.ascii	"'-ggdb' '-O0' '-fomit-frame-pointer' '-falign-funct"
 417      64622720 
 417      272D4F30 
 417      2720272D 
 417      666F6D69 
 418 0066 696F6E73 		.ascii	"ions=16' '-ffunction-sections' '-fdata-sections' '-"
 418      3D313627 
 418      20272D66 
 418      66756E63 
ARM GAS  /tmp/cc6DU3Wg.s 			page 32


 418      74696F6E 
 419 0099 666E6F2D 		.ascii	"fno-common' '-flto'\000"
 419      636F6D6D 
 419      6F6E2720 
 419      272D666C 
 419      746F2700 
 420              		.text
 421              		.cfi_sections	.debug_frame
 422              		.section	.text.port_lock,"ax",%progbits
 423              		.align	2
 424              		.p2align 4,,15
 425              		.thumb
 426              		.thumb_func
 427              		.type	port_lock, %function
 428              	port_lock:
 429              	.LFB127:
 430              		.file 1 "lib/ChibiOS_16.1.4//os/rt/ports/ARMCMx/chcore_v7m.h"
 431              		.loc 1 456 0
 432              		.cfi_startproc
 433              		@ args = 0, pretend = 0, frame = 8
 434              		@ frame_needed = 0, uses_anonymous_args = 0
 435              		@ link register save eliminated.
 436 0000 82B0     		sub	sp, sp, #8
 437              		.cfi_def_cfa_offset 8
 438 0002 2023     		movs	r3, #32
 439 0004 0193     		str	r3, [sp, #4]
 440              	.LBB6:
 441              	.LBB7:
 442              		.file 2 "lib/ChibiOS_16.1.4//os/ext/CMSIS/include/core_cmFunc.h"
 443              		.loc 2 548 0
 444 0006 019B     		ldr	r3, [sp, #4]
 445              	@ 548 "lib/ChibiOS_16.1.4//os/ext/CMSIS/include/core_cmFunc.h" 1
 446 0008 83F31188 		MSR basepri, r3
 447              	@ 0 "" 2
 448              		.thumb
 449              	.LBE7:
 450              	.LBE6:
 451              		.loc 1 473 0
 452 000c 02B0     		add	sp, sp, #8
 453              		@ sp needed
 454 000e 7047     		bx	lr
 455              		.cfi_endproc
 456              	.LFE127:
 457              		.size	port_lock, .-port_lock
 458              		.section	.text.port_unlock,"ax",%progbits
 459              		.align	2
 460              		.p2align 4,,15
 461              		.thumb
 462              		.thumb_func
 463              		.type	port_unlock, %function
 464              	port_unlock:
 465              	.LFB128:
 466              		.loc 1 480 0
 467              		.cfi_startproc
 468              		@ args = 0, pretend = 0, frame = 8
 469              		@ frame_needed = 0, uses_anonymous_args = 0
 470              		@ link register save eliminated.
ARM GAS  /tmp/cc6DU3Wg.s 			page 33


 471 0000 82B0     		sub	sp, sp, #8
 472              		.cfi_def_cfa_offset 8
 473 0002 0023     		movs	r3, #0
 474 0004 0193     		str	r3, [sp, #4]
 475              	.LBB8:
 476              	.LBB9:
 477              		.loc 2 548 0
 478 0006 019B     		ldr	r3, [sp, #4]
 479              	@ 548 "lib/ChibiOS_16.1.4//os/ext/CMSIS/include/core_cmFunc.h" 1
 480 0008 83F31188 		MSR basepri, r3
 481              	@ 0 "" 2
 482              		.thumb
 483              	.LBE9:
 484              	.LBE8:
 485              		.loc 1 487 0
 486 000c 02B0     		add	sp, sp, #8
 487              		@ sp needed
 488 000e 7047     		bx	lr
 489              		.cfi_endproc
 490              	.LFE128:
 491              		.size	port_unlock, .-port_unlock
 492              		.section	.text.port_lock_from_isr,"ax",%progbits
 493              		.align	2
 494              		.p2align 4,,15
 495              		.thumb
 496              		.thumb_func
 497              		.type	port_lock_from_isr, %function
 498              	port_lock_from_isr:
 499              	.LFB129:
 500              		.loc 1 495 0
 501              		.cfi_startproc
 502              		@ args = 0, pretend = 0, frame = 0
 503              		@ frame_needed = 0, uses_anonymous_args = 0
 504 0000 08B5     		push	{r3, lr}
 505              		.cfi_def_cfa_offset 8
 506              		.cfi_offset 3, -8
 507              		.cfi_offset 14, -4
 508              		.loc 1 497 0
 509 0002 FFF7FEFF 		bl	port_lock
 510              		.loc 1 498 0
 511 0006 08BD     		pop	{r3, pc}
 512              		.cfi_endproc
 513              	.LFE129:
 514              		.size	port_lock_from_isr, .-port_lock_from_isr
 515 0008 AFF30080 		.section	.text.port_unlock_from_isr,"ax",%progbits
 515      AFF30080 
 516              		.align	2
 517              		.p2align 4,,15
 518              		.thumb
 519              		.thumb_func
 520              		.type	port_unlock_from_isr, %function
 521              	port_unlock_from_isr:
 522              	.LFB130:
 523              		.loc 1 506 0
 524              		.cfi_startproc
 525              		@ args = 0, pretend = 0, frame = 0
 526              		@ frame_needed = 0, uses_anonymous_args = 0
ARM GAS  /tmp/cc6DU3Wg.s 			page 34


 527 0000 08B5     		push	{r3, lr}
 528              		.cfi_def_cfa_offset 8
 529              		.cfi_offset 3, -8
 530              		.cfi_offset 14, -4
 531              		.loc 1 508 0
 532 0002 FFF7FEFF 		bl	port_unlock
 533              		.loc 1 509 0
 534 0006 08BD     		pop	{r3, pc}
 535              		.cfi_endproc
 536              	.LFE130:
 537              		.size	port_unlock_from_isr, .-port_unlock_from_isr
 538 0008 AFF30080 		.section	.text.chSysLockFromISR,"ax",%progbits
 538      AFF30080 
 539              		.align	2
 540              		.p2align 4,,15
 541              		.thumb
 542              		.thumb_func
 543              		.type	chSysLockFromISR, %function
 544              	chSysLockFromISR:
 545              	.LFB169:
 546              		.file 3 "lib/ChibiOS_16.1.4//os/rt/include/chsys.h"
 547              		.loc 3 386 0
 548              		.cfi_startproc
 549              		@ args = 0, pretend = 0, frame = 0
 550              		@ frame_needed = 0, uses_anonymous_args = 0
 551 0000 08B5     		push	{r3, lr}
 552              		.cfi_def_cfa_offset 8
 553              		.cfi_offset 3, -8
 554              		.cfi_offset 14, -4
 555              		.loc 3 388 0
 556 0002 FFF7FEFF 		bl	port_lock_from_isr
 557              		.loc 3 389 0
 558 0006 FFF7FEFF 		bl	_stats_start_measure_crit_isr
 559              		.loc 3 390 0
 560 000a FFF7FEFF 		bl	_dbg_check_lock_from_isr
 561              		.loc 3 391 0
 562 000e 08BD     		pop	{r3, pc}
 563              		.cfi_endproc
 564              	.LFE169:
 565              		.size	chSysLockFromISR, .-chSysLockFromISR
 566              		.section	.text.chSysUnlockFromISR,"ax",%progbits
 567              		.align	2
 568              		.p2align 4,,15
 569              		.thumb
 570              		.thumb_func
 571              		.type	chSysUnlockFromISR, %function
 572              	chSysUnlockFromISR:
 573              	.LFB170:
 574              		.loc 3 406 0
 575              		.cfi_startproc
 576              		@ args = 0, pretend = 0, frame = 0
 577              		@ frame_needed = 0, uses_anonymous_args = 0
 578 0000 08B5     		push	{r3, lr}
 579              		.cfi_def_cfa_offset 8
 580              		.cfi_offset 3, -8
 581              		.cfi_offset 14, -4
 582              		.loc 3 408 0
ARM GAS  /tmp/cc6DU3Wg.s 			page 35


 583 0002 FFF7FEFF 		bl	_dbg_check_unlock_from_isr
 584              		.loc 3 409 0
 585 0006 FFF7FEFF 		bl	_stats_stop_measure_crit_isr
 586              		.loc 3 410 0
 587 000a FFF7FEFF 		bl	port_unlock_from_isr
 588              		.loc 3 411 0
 589 000e 08BD     		pop	{r3, pc}
 590              		.cfi_endproc
 591              	.LFE170:
 592              		.size	chSysUnlockFromISR, .-chSysUnlockFromISR
 593              		.section	.text.osalSysLockFromISR,"ax",%progbits
 594              		.align	2
 595              		.p2align 4,,15
 596              		.thumb
 597              		.thumb_func
 598              		.type	osalSysLockFromISR, %function
 599              	osalSysLockFromISR:
 600              	.LFB247:
 601              		.file 4 "lib/ChibiOS_16.1.4//os/hal/osal/rt/osal.h"
 602              		.loc 4 513 0
 603              		.cfi_startproc
 604              		@ args = 0, pretend = 0, frame = 0
 605              		@ frame_needed = 0, uses_anonymous_args = 0
 606 0000 08B5     		push	{r3, lr}
 607              		.cfi_def_cfa_offset 8
 608              		.cfi_offset 3, -8
 609              		.cfi_offset 14, -4
 610              		.loc 4 515 0
 611 0002 FFF7FEFF 		bl	chSysLockFromISR
 612              		.loc 4 516 0
 613 0006 08BD     		pop	{r3, pc}
 614              		.cfi_endproc
 615              	.LFE247:
 616              		.size	osalSysLockFromISR, .-osalSysLockFromISR
 617 0008 AFF30080 		.section	.text.osalSysUnlockFromISR,"ax",%progbits
 617      AFF30080 
 618              		.align	2
 619              		.p2align 4,,15
 620              		.thumb
 621              		.thumb_func
 622              		.type	osalSysUnlockFromISR, %function
 623              	osalSysUnlockFromISR:
 624              	.LFB248:
 625              		.loc 4 524 0
 626              		.cfi_startproc
 627              		@ args = 0, pretend = 0, frame = 0
 628              		@ frame_needed = 0, uses_anonymous_args = 0
 629 0000 08B5     		push	{r3, lr}
 630              		.cfi_def_cfa_offset 8
 631              		.cfi_offset 3, -8
 632              		.cfi_offset 14, -4
 633              		.loc 4 526 0
 634 0002 FFF7FEFF 		bl	chSysUnlockFromISR
 635              		.loc 4 527 0
 636 0006 08BD     		pop	{r3, pc}
 637              		.cfi_endproc
 638              	.LFE248:
ARM GAS  /tmp/cc6DU3Wg.s 			page 36


 639              		.size	osalSysUnlockFromISR, .-osalSysUnlockFromISR
 640 0008 AFF30080 		.section	.text.osalOsTimerHandlerI,"ax",%progbits
 640      AFF30080 
 641              		.align	2
 642              		.p2align 4,,15
 643              		.thumb
 644              		.thumb_func
 645              		.type	osalOsTimerHandlerI, %function
 646              	osalOsTimerHandlerI:
 647              	.LFB252:
 648              		.loc 4 583 0
 649              		.cfi_startproc
 650              		@ args = 0, pretend = 0, frame = 0
 651              		@ frame_needed = 0, uses_anonymous_args = 0
 652 0000 08B5     		push	{r3, lr}
 653              		.cfi_def_cfa_offset 8
 654              		.cfi_offset 3, -8
 655              		.cfi_offset 14, -4
 656              		.loc 4 585 0
 657 0002 FFF7FEFF 		bl	chSysTimerHandlerI
 658              		.loc 4 586 0
 659 0006 08BD     		pop	{r3, pc}
 660              		.cfi_endproc
 661              	.LFE252:
 662              		.size	osalOsTimerHandlerI, .-osalOsTimerHandlerI
 663 0008 AFF30080 		.section	.text.VectorB0,"ax",%progbits
 663      AFF30080 
 664              		.align	2
 665              		.p2align 4,,15
 666              		.global	VectorB0
 667              		.thumb
 668              		.thumb_func
 669              		.type	VectorB0, %function
 670              	VectorB0:
 671              	.LFB272:
 672              		.file 5 "lib/ChibiOS_16.1.4//os/hal/ports/STM32/LLD/TIMv1/st_lld.c"
 673              		.loc 5 239 0
 674              		.cfi_startproc
 675              		@ args = 0, pretend = 0, frame = 0
 676              		@ frame_needed = 0, uses_anonymous_args = 0
 677 0000 08B5     		push	{r3, lr}
 678              		.cfi_def_cfa_offset 8
 679              		.cfi_offset 3, -8
 680              		.cfi_offset 14, -4
 681              		.loc 5 241 0
 682 0002 FFF7FEFF 		bl	_stats_increase_irq
 683 0006 FFF7FEFF 		bl	_dbg_check_enter_isr
 684              		.loc 5 246 0
 685 000a 4FF08043 		mov	r3, #1073741824
 686 000e 1B69     		ldr	r3, [r3, #16]
 687 0010 03F00203 		and	r3, r3, #2
 688 0014 002B     		cmp	r3, #0
 689 0016 09D0     		beq	.L11
 690              		.loc 5 247 0
 691 0018 4FF08043 		mov	r3, #1073741824
 692 001c 0022     		movs	r2, #0
 693 001e 1A61     		str	r2, [r3, #16]
ARM GAS  /tmp/cc6DU3Wg.s 			page 37


 694              		.loc 5 249 0
 695 0020 FFF7FEFF 		bl	osalSysLockFromISR
 696              		.loc 5 250 0
 697 0024 FFF7FEFF 		bl	osalOsTimerHandlerI
 698              		.loc 5 251 0
 699 0028 FFF7FEFF 		bl	osalSysUnlockFromISR
 700              	.L11:
 701              		.loc 5 254 0
 702 002c FFF7FEFF 		bl	_dbg_check_leave_isr
 703 0030 FFF7FEFF 		bl	_port_irq_epilogue
 704              		.loc 5 255 0
 705 0034 08BD     		pop	{r3, pc}
 706              		.cfi_endproc
 707              	.LFE272:
 708              		.size	VectorB0, .-VectorB0
 709 0036 00BFAFF3 		.section	.text.st_lld_init,"ax",%progbits
 709      0080AFF3 
 709      0080
 710              		.align	2
 711              		.p2align 4,,15
 712              		.global	st_lld_init
 713              		.thumb
 714              		.thumb_func
 715              		.type	st_lld_init, %function
 716              	st_lld_init:
 717              	.LFB273:
 718              		.loc 5 267 0
 719              		.cfi_startproc
 720              		@ args = 0, pretend = 0, frame = 0
 721              		@ frame_needed = 0, uses_anonymous_args = 0
 722 0000 08B5     		push	{r3, lr}
 723              		.cfi_def_cfa_offset 8
 724              		.cfi_offset 3, -8
 725              		.cfi_offset 14, -4
 726              		.loc 5 273 0
 727 0002 4FF46053 		mov	r3, #14336
 728 0006 C4F20203 		movt	r3, 16386
 729 000a 4FF46052 		mov	r2, #14336
 730 000e C4F20202 		movt	r2, 16386
 731 0012 126C     		ldr	r2, [r2, #64]
 732 0014 42F00102 		orr	r2, r2, #1
 733 0018 1A64     		str	r2, [r3, #64]
 734              		.loc 5 276 0
 735 001a 4FF40053 		mov	r3, #8192
 736 001e CEF20403 		movt	r3, 57348
 737 0022 4FF40052 		mov	r2, #8192
 738 0026 CEF20402 		movt	r2, 57348
 739 002a 9268     		ldr	r2, [r2, #8]
 740 002c 42F00102 		orr	r2, r2, #1
 741 0030 9A60     		str	r2, [r3, #8]
 742              		.loc 5 279 0
 743 0032 4FF08043 		mov	r3, #1073741824
 744 0036 42F2CF02 		movw	r2, #8399
 745 003a 9A62     		str	r2, [r3, #40]
 746              		.loc 5 280 0
 747 003c 4FF08043 		mov	r3, #1073741824
 748 0040 4FF0FF32 		mov	r2, #-1
ARM GAS  /tmp/cc6DU3Wg.s 			page 38


 749 0044 DA62     		str	r2, [r3, #44]
 750              		.loc 5 281 0
 751 0046 4FF08043 		mov	r3, #1073741824
 752 004a 0022     		movs	r2, #0
 753 004c 9A61     		str	r2, [r3, #24]
 754              		.loc 5 282 0
 755 004e 4FF08043 		mov	r3, #1073741824
 756 0052 0022     		movs	r2, #0
 757 0054 5A63     		str	r2, [r3, #52]
 758              		.loc 5 283 0
 759 0056 4FF08043 		mov	r3, #1073741824
 760 005a 0022     		movs	r2, #0
 761 005c DA60     		str	r2, [r3, #12]
 762              		.loc 5 284 0
 763 005e 4FF08043 		mov	r3, #1073741824
 764 0062 0022     		movs	r2, #0
 765 0064 5A60     		str	r2, [r3, #4]
 766              		.loc 5 285 0
 767 0066 4FF08043 		mov	r3, #1073741824
 768 006a 0122     		movs	r2, #1
 769 006c 5A61     		str	r2, [r3, #20]
 770              		.loc 5 286 0
 771 006e 4FF08043 		mov	r3, #1073741824
 772 0072 0122     		movs	r2, #1
 773 0074 1A60     		str	r2, [r3]
 774              		.loc 5 289 0
 775 0076 1C20     		movs	r0, #28
 776 0078 0821     		movs	r1, #8
 777 007a FFF7FEFF 		bl	nvicEnableVector
 778              		.loc 5 304 0
 779 007e 08BD     		pop	{r3, pc}
 780              		.cfi_endproc
 781              	.LFE273:
 782              		.size	st_lld_init, .-st_lld_init
 783              		.text
 784              	.Letext0:
 785              		.file 6 "/usr/include/newlib/machine/_default_types.h"
 786              		.file 7 "/usr/include/newlib/stdint.h"
 787              		.file 8 "lib/ChibiOS_16.1.4//os/rt/ports/ARMCMx/compilers/GCC/chtypes.h"
 788              		.file 9 "lib/ChibiOS_16.1.4//os/rt/include/chsystypes.h"
 789              		.file 10 "lib/ChibiOS_16.1.4//os/rt/include/chschd.h"
 790              		.file 11 "lib/ChibiOS_16.1.4//os/ext/CMSIS/ST/STM32F4xx/stm32f407xx.h"
 791              		.file 12 "lib/ChibiOS_16.1.4//os/rt/ports/ARMCMx/chcore.h"
 792              		.file 13 "lib/ChibiOS_16.1.4//os/hal/ports/STM32/LLD/TIMv1/stm32_tim.h"
 793              		.file 14 "lib/ChibiOS_16.1.4//os/rt/include/chdebug.h"
 794              		.file 15 "lib/ChibiOS_16.1.4//os/rt/include/chtm.h"
 795              		.file 16 "lib/ChibiOS_16.1.4//os/rt/include/chstats.h"
 796              		.file 17 "lib/ChibiOS_16.1.4//os/rt/include/chsem.h"
 797              		.file 18 "lib/ChibiOS_16.1.4//os/rt/include/chmtx.h"
 798              		.file 19 "lib/ChibiOS_16.1.4//os/ext/CMSIS/include/core_cm4.h"
 799              		.section	.debug_info,"",%progbits
 800              	.Ldebug_info0:
 801 0000 0F0C0000 		.4byte	0xc0f
 802 0004 0400     		.2byte	0x4
 803 0006 00000000 		.4byte	.Ldebug_abbrev0
 804 000a 04       		.byte	0x4
 805 000b 01       		.uleb128 0x1
ARM GAS  /tmp/cc6DU3Wg.s 			page 39


 806 000c 81030000 		.4byte	.LASF183
 807 0010 01       		.byte	0x1
 808 0011 D2020000 		.4byte	.LASF184
 809 0015 65010000 		.4byte	.LASF185
 810 0019 00000000 		.4byte	.Ldebug_ranges0+0
 811 001d 00000000 		.4byte	0
 812 0021 00000000 		.4byte	.Ldebug_line0
 813 0025 02       		.uleb128 0x2
 814 0026 04       		.byte	0x4
 815 0027 05       		.byte	0x5
 816 0028 696E7400 		.ascii	"int\000"
 817 002c 03       		.uleb128 0x3
 818 002d 04       		.byte	0x4
 819 002e 07       		.byte	0x7
 820 002f B6020000 		.4byte	.LASF0
 821 0033 03       		.uleb128 0x3
 822 0034 01       		.byte	0x1
 823 0035 06       		.byte	0x6
 824 0036 59010000 		.4byte	.LASF1
 825 003a 04       		.uleb128 0x4
 826 003b 3C000000 		.4byte	.LASF5
 827 003f 06       		.byte	0x6
 828 0040 1C       		.byte	0x1c
 829 0041 45000000 		.4byte	0x45
 830 0045 03       		.uleb128 0x3
 831 0046 01       		.byte	0x1
 832 0047 08       		.byte	0x8
 833 0048 DC050000 		.4byte	.LASF2
 834 004c 03       		.uleb128 0x3
 835 004d 02       		.byte	0x2
 836 004e 05       		.byte	0x5
 837 004f 01060000 		.4byte	.LASF3
 838 0053 03       		.uleb128 0x3
 839 0054 02       		.byte	0x2
 840 0055 07       		.byte	0x7
 841 0056 19020000 		.4byte	.LASF4
 842 005a 04       		.uleb128 0x4
 843 005b 5A040000 		.4byte	.LASF6
 844 005f 06       		.byte	0x6
 845 0060 37       		.byte	0x37
 846 0061 65000000 		.4byte	0x65
 847 0065 03       		.uleb128 0x3
 848 0066 04       		.byte	0x4
 849 0067 05       		.byte	0x5
 850 0068 C1010000 		.4byte	.LASF7
 851 006c 04       		.uleb128 0x4
 852 006d 24070000 		.4byte	.LASF8
 853 0071 06       		.byte	0x6
 854 0072 38       		.byte	0x38
 855 0073 77000000 		.4byte	0x77
 856 0077 03       		.uleb128 0x3
 857 0078 04       		.byte	0x4
 858 0079 07       		.byte	0x7
 859 007a B7060000 		.4byte	.LASF9
 860 007e 03       		.uleb128 0x3
 861 007f 08       		.byte	0x8
 862 0080 05       		.byte	0x5
ARM GAS  /tmp/cc6DU3Wg.s 			page 40


 863 0081 F1010000 		.4byte	.LASF10
 864 0085 04       		.uleb128 0x4
 865 0086 42050000 		.4byte	.LASF11
 866 008a 06       		.byte	0x6
 867 008b 4E       		.byte	0x4e
 868 008c 90000000 		.4byte	0x90
 869 0090 03       		.uleb128 0x3
 870 0091 08       		.byte	0x8
 871 0092 07       		.byte	0x7
 872 0093 A4000000 		.4byte	.LASF12
 873 0097 04       		.uleb128 0x4
 874 0098 D5070000 		.4byte	.LASF13
 875 009c 07       		.byte	0x7
 876 009d 2A       		.byte	0x2a
 877 009e 3A000000 		.4byte	0x3a
 878 00a2 04       		.uleb128 0x4
 879 00a3 D4050000 		.4byte	.LASF14
 880 00a7 07       		.byte	0x7
 881 00a8 41       		.byte	0x41
 882 00a9 5A000000 		.4byte	0x5a
 883 00ad 04       		.uleb128 0x4
 884 00ae 86060000 		.4byte	.LASF15
 885 00b2 07       		.byte	0x7
 886 00b3 42       		.byte	0x42
 887 00b4 6C000000 		.4byte	0x6c
 888 00b8 04       		.uleb128 0x4
 889 00b9 26000000 		.4byte	.LASF16
 890 00bd 07       		.byte	0x7
 891 00be 4E       		.byte	0x4e
 892 00bf 85000000 		.4byte	0x85
 893 00c3 04       		.uleb128 0x4
 894 00c4 77070000 		.4byte	.LASF17
 895 00c8 08       		.byte	0x8
 896 00c9 39       		.byte	0x39
 897 00ca AD000000 		.4byte	0xad
 898 00ce 04       		.uleb128 0x4
 899 00cf 2D010000 		.4byte	.LASF18
 900 00d3 08       		.byte	0x8
 901 00d4 3A       		.byte	0x3a
 902 00d5 B8000000 		.4byte	0xb8
 903 00d9 04       		.uleb128 0x4
 904 00da 02080000 		.4byte	.LASF19
 905 00de 08       		.byte	0x8
 906 00df 3C       		.byte	0x3c
 907 00e0 97000000 		.4byte	0x97
 908 00e4 04       		.uleb128 0x4
 909 00e5 DD010000 		.4byte	.LASF20
 910 00e9 08       		.byte	0x8
 911 00ea 3D       		.byte	0x3d
 912 00eb 97000000 		.4byte	0x97
 913 00ef 04       		.uleb128 0x4
 914 00f0 5F050000 		.4byte	.LASF21
 915 00f4 08       		.byte	0x8
 916 00f5 3E       		.byte	0x3e
 917 00f6 97000000 		.4byte	0x97
 918 00fa 04       		.uleb128 0x4
 919 00fb AA050000 		.4byte	.LASF22
ARM GAS  /tmp/cc6DU3Wg.s 			page 41


 920 00ff 08       		.byte	0x8
 921 0100 40       		.byte	0x40
 922 0101 AD000000 		.4byte	0xad
 923 0105 04       		.uleb128 0x4
 924 0106 58030000 		.4byte	.LASF23
 925 010a 08       		.byte	0x8
 926 010b 41       		.byte	0x41
 927 010c A2000000 		.4byte	0xa2
 928 0110 04       		.uleb128 0x4
 929 0111 4E040000 		.4byte	.LASF24
 930 0115 08       		.byte	0x8
 931 0116 43       		.byte	0x43
 932 0117 AD000000 		.4byte	0xad
 933 011b 04       		.uleb128 0x4
 934 011c A5020000 		.4byte	.LASF25
 935 0120 08       		.byte	0x8
 936 0121 45       		.byte	0x45
 937 0122 A2000000 		.4byte	0xa2
 938 0126 04       		.uleb128 0x4
 939 0127 67030000 		.4byte	.LASF26
 940 012b 08       		.byte	0x8
 941 012c 46       		.byte	0x46
 942 012d AD000000 		.4byte	0xad
 943 0131 04       		.uleb128 0x4
 944 0132 06070000 		.4byte	.LASF27
 945 0136 09       		.byte	0x9
 946 0137 33       		.byte	0x33
 947 0138 AD000000 		.4byte	0xad
 948 013c 04       		.uleb128 0x4
 949 013d F1060000 		.4byte	.LASF28
 950 0141 09       		.byte	0x9
 951 0142 3F       		.byte	0x3f
 952 0143 47010000 		.4byte	0x147
 953 0147 05       		.uleb128 0x5
 954 0148 43030000 		.4byte	.LASF50
 955 014c 60       		.byte	0x60
 956 014d 0A       		.byte	0xa
 957 014e C2       		.byte	0xc2
 958 014f 4D020000 		.4byte	0x24d
 959 0153 06       		.uleb128 0x6
 960 0154 2B060000 		.4byte	.LASF29
 961 0158 0A       		.byte	0xa
 962 0159 C3       		.byte	0xc3
 963 015a 58020000 		.4byte	0x258
 964 015e 00       		.byte	0
 965 015f 06       		.uleb128 0x6
 966 0160 99050000 		.4byte	.LASF30
 967 0164 0A       		.byte	0xa
 968 0165 C5       		.byte	0xc5
 969 0166 58020000 		.4byte	0x258
 970 016a 04       		.byte	0x4
 971 016b 06       		.uleb128 0x6
 972 016c 40010000 		.4byte	.LASF31
 973 0170 0A       		.byte	0xa
 974 0171 C7       		.byte	0xc7
 975 0172 FA000000 		.4byte	0xfa
 976 0176 08       		.byte	0x8
ARM GAS  /tmp/cc6DU3Wg.s 			page 42


 977 0177 06       		.uleb128 0x6
 978 0178 3A080000 		.4byte	.LASF32
 979 017c 0A       		.byte	0xa
 980 017d C8       		.byte	0xc8
 981 017e CA060000 		.4byte	0x6ca
 982 0182 0C       		.byte	0xc
 983 0183 06       		.uleb128 0x6
 984 0184 FF010000 		.4byte	.LASF33
 985 0188 0A       		.byte	0xa
 986 0189 CA       		.byte	0xca
 987 018a 58020000 		.4byte	0x258
 988 018e 10       		.byte	0x10
 989 018f 06       		.uleb128 0x6
 990 0190 06050000 		.4byte	.LASF34
 991 0194 0A       		.byte	0xa
 992 0195 CB       		.byte	0xcb
 993 0196 58020000 		.4byte	0x258
 994 019a 14       		.byte	0x14
 995 019b 06       		.uleb128 0x6
 996 019c EE070000 		.4byte	.LASF35
 997 01a0 0A       		.byte	0xa
 998 01a1 D2       		.byte	0xd2
 999 01a2 900A0000 		.4byte	0xa90
 1000 01a6 18       		.byte	0x18
 1001 01a7 06       		.uleb128 0x6
 1002 01a8 AB020000 		.4byte	.LASF36
 1003 01ac 0A       		.byte	0xa
 1004 01ad D8       		.byte	0xd8
 1005 01ae A20A0000 		.4byte	0xaa2
 1006 01b2 1C       		.byte	0x1c
 1007 01b3 06       		.uleb128 0x6
 1008 01b4 0B060000 		.4byte	.LASF37
 1009 01b8 0A       		.byte	0xa
 1010 01b9 DD       		.byte	0xdd
 1011 01ba E4000000 		.4byte	0xe4
 1012 01be 20       		.byte	0x20
 1013 01bf 06       		.uleb128 0x6
 1014 01c0 32060000 		.4byte	.LASF38
 1015 01c4 0A       		.byte	0xa
 1016 01c5 E1       		.byte	0xe1
 1017 01c6 D9000000 		.4byte	0xd9
 1018 01ca 21       		.byte	0x21
 1019 01cb 06       		.uleb128 0x6
 1020 01cc BB070000 		.4byte	.LASF39
 1021 01d0 0A       		.byte	0xa
 1022 01d1 E6       		.byte	0xe6
 1023 01d2 EF000000 		.4byte	0xef
 1024 01d6 22       		.byte	0x22
 1025 01d7 07       		.uleb128 0x7
 1026 01d8 705F7500 		.ascii	"p_u\000"
 1027 01dc 0A       		.byte	0xa
 1028 01dd 3101     		.2byte	0x131
 1029 01df CB090000 		.4byte	0x9cb
 1030 01e3 24       		.byte	0x24
 1031 01e4 08       		.uleb128 0x8
 1032 01e5 AA040000 		.4byte	.LASF40
 1033 01e9 0A       		.byte	0xa
ARM GAS  /tmp/cc6DU3Wg.s 			page 43


 1034 01ea 3601     		.2byte	0x136
 1035 01ec 5E020000 		.4byte	0x25e
 1036 01f0 28       		.byte	0x28
 1037 01f1 08       		.uleb128 0x8
 1038 01f2 0C030000 		.4byte	.LASF41
 1039 01f6 0A       		.byte	0xa
 1040 01f7 3C01     		.2byte	0x13c
 1041 01f9 82020000 		.4byte	0x282
 1042 01fd 2C       		.byte	0x2c
 1043 01fe 08       		.uleb128 0x8
 1044 01ff 17080000 		.4byte	.LASF42
 1045 0203 0A       		.byte	0xa
 1046 0204 4001     		.2byte	0x140
 1047 0206 05010000 		.4byte	0x105
 1048 020a 34       		.byte	0x34
 1049 020b 08       		.uleb128 0x8
 1050 020c E7040000 		.4byte	.LASF43
 1051 0210 0A       		.byte	0xa
 1052 0211 4601     		.2byte	0x146
 1053 0213 10010000 		.4byte	0x110
 1054 0217 38       		.byte	0x38
 1055 0218 08       		.uleb128 0x8
 1056 0219 F7050000 		.4byte	.LASF44
 1057 021d 0A       		.byte	0xa
 1058 021e 4D01     		.2byte	0x14d
 1059 0220 8A0A0000 		.4byte	0xa8a
 1060 0224 3C       		.byte	0x3c
 1061 0225 08       		.uleb128 0x8
 1062 0226 10070000 		.4byte	.LASF45
 1063 022a 0A       		.byte	0xa
 1064 022b 5101     		.2byte	0x151
 1065 022d FA000000 		.4byte	0xfa
 1066 0231 40       		.byte	0x40
 1067 0232 08       		.uleb128 0x8
 1068 0233 3C020000 		.4byte	.LASF46
 1069 0237 0A       		.byte	0xa
 1070 0238 5801     		.2byte	0x158
 1071 023a 35030000 		.4byte	0x335
 1072 023e 44       		.byte	0x44
 1073 023f 08       		.uleb128 0x8
 1074 0240 3A060000 		.4byte	.LASF47
 1075 0244 0A       		.byte	0xa
 1076 0245 5E01     		.2byte	0x15e
 1077 0247 7C090000 		.4byte	0x97c
 1078 024b 48       		.byte	0x48
 1079 024c 00       		.byte	0
 1080 024d 04       		.uleb128 0x4
 1081 024e BD040000 		.4byte	.LASF48
 1082 0252 09       		.byte	0x9
 1083 0253 44       		.byte	0x44
 1084 0254 58020000 		.4byte	0x258
 1085 0258 09       		.uleb128 0x9
 1086 0259 04       		.byte	0x4
 1087 025a 3C010000 		.4byte	0x13c
 1088 025e 04       		.uleb128 0x4
 1089 025f 83040000 		.4byte	.LASF49
 1090 0263 09       		.byte	0x9
ARM GAS  /tmp/cc6DU3Wg.s 			page 44


 1091 0264 49       		.byte	0x49
 1092 0265 69020000 		.4byte	0x269
 1093 0269 05       		.uleb128 0x5
 1094 026a A7060000 		.4byte	.LASF51
 1095 026e 04       		.byte	0x4
 1096 026f 0A       		.byte	0xa
 1097 0270 B0       		.byte	0xb0
 1098 0271 82020000 		.4byte	0x282
 1099 0275 06       		.uleb128 0x6
 1100 0276 2B060000 		.4byte	.LASF29
 1101 027a 0A       		.byte	0xa
 1102 027b B1       		.byte	0xb1
 1103 027c 58020000 		.4byte	0x258
 1104 0280 00       		.byte	0
 1105 0281 00       		.byte	0
 1106 0282 04       		.uleb128 0x4
 1107 0283 9F070000 		.4byte	.LASF52
 1108 0287 09       		.byte	0x9
 1109 0288 50       		.byte	0x50
 1110 0289 8D020000 		.4byte	0x28d
 1111 028d 05       		.uleb128 0x5
 1112 028e 52000000 		.4byte	.LASF53
 1113 0292 08       		.byte	0x8
 1114 0293 0A       		.byte	0xa
 1115 0294 B7       		.byte	0xb7
 1116 0295 B2020000 		.4byte	0x2b2
 1117 0299 06       		.uleb128 0x6
 1118 029a 2B060000 		.4byte	.LASF29
 1119 029e 0A       		.byte	0xa
 1120 029f B8       		.byte	0xb8
 1121 02a0 58020000 		.4byte	0x258
 1122 02a4 00       		.byte	0
 1123 02a5 06       		.uleb128 0x6
 1124 02a6 99050000 		.4byte	.LASF30
 1125 02aa 0A       		.byte	0xa
 1126 02ab B9       		.byte	0xb9
 1127 02ac 58020000 		.4byte	0x258
 1128 02b0 04       		.byte	0x4
 1129 02b1 00       		.byte	0
 1130 02b2 04       		.uleb128 0x4
 1131 02b3 07000000 		.4byte	.LASF54
 1132 02b7 09       		.byte	0x9
 1133 02b8 57       		.byte	0x57
 1134 02b9 BD020000 		.4byte	0x2bd
 1135 02bd 0A       		.uleb128 0xa
 1136 02be 40040000 		.4byte	.LASF55
 1137 02c2 1C       		.byte	0x1c
 1138 02c3 0A       		.byte	0xa
 1139 02c4 9001     		.2byte	0x190
 1140 02c6 19030000 		.4byte	0x319
 1141 02ca 08       		.uleb128 0x8
 1142 02cb 96060000 		.4byte	.LASF56
 1143 02cf 0A       		.byte	0xa
 1144 02d0 9101     		.2byte	0x191
 1145 02d2 82020000 		.4byte	0x282
 1146 02d6 00       		.byte	0
 1147 02d7 08       		.uleb128 0x8
ARM GAS  /tmp/cc6DU3Wg.s 			page 45


 1148 02d8 1D060000 		.4byte	.LASF57
 1149 02dc 0A       		.byte	0xa
 1150 02dd 9201     		.2byte	0x192
 1151 02df FA000000 		.4byte	0xfa
 1152 02e3 08       		.byte	0x8
 1153 02e4 08       		.uleb128 0x8
 1154 02e5 0E050000 		.4byte	.LASF58
 1155 02e9 0A       		.byte	0xa
 1156 02ea 9401     		.2byte	0x194
 1157 02ec CA060000 		.4byte	0x6ca
 1158 02f0 0C       		.byte	0xc
 1159 02f1 08       		.uleb128 0x8
 1160 02f2 34020000 		.4byte	.LASF59
 1161 02f6 0A       		.byte	0xa
 1162 02f7 9701     		.2byte	0x197
 1163 02f9 58020000 		.4byte	0x258
 1164 02fd 10       		.byte	0x10
 1165 02fe 08       		.uleb128 0x8
 1166 02ff 6F070000 		.4byte	.LASF60
 1167 0303 0A       		.byte	0xa
 1168 0304 9801     		.2byte	0x198
 1169 0306 58020000 		.4byte	0x258
 1170 030a 14       		.byte	0x14
 1171 030b 08       		.uleb128 0x8
 1172 030c 2F050000 		.4byte	.LASF61
 1173 0310 0A       		.byte	0xa
 1174 0311 9B01     		.2byte	0x19b
 1175 0313 58020000 		.4byte	0x258
 1176 0317 18       		.byte	0x18
 1177 0318 00       		.byte	0
 1178 0319 04       		.uleb128 0x4
 1179 031a 1B070000 		.4byte	.LASF62
 1180 031e 09       		.byte	0x9
 1181 031f 5C       		.byte	0x5c
 1182 0320 24030000 		.4byte	0x324
 1183 0324 09       		.uleb128 0x9
 1184 0325 04       		.byte	0x4
 1185 0326 2A030000 		.4byte	0x32a
 1186 032a 0B       		.uleb128 0xb
 1187 032b 35030000 		.4byte	0x335
 1188 032f 0C       		.uleb128 0xc
 1189 0330 35030000 		.4byte	0x335
 1190 0334 00       		.byte	0
 1191 0335 0D       		.uleb128 0xd
 1192 0336 04       		.byte	0x4
 1193 0337 04       		.uleb128 0x4
 1194 0338 92040000 		.4byte	.LASF63
 1195 033c 09       		.byte	0x9
 1196 033d 61       		.byte	0x61
 1197 033e 42030000 		.4byte	0x342
 1198 0342 0A       		.uleb128 0xa
 1199 0343 4A060000 		.4byte	.LASF64
 1200 0347 14       		.byte	0x14
 1201 0348 0A       		.byte	0xa
 1202 0349 6B01     		.2byte	0x16b
 1203 034b 91030000 		.4byte	0x391
 1204 034f 08       		.uleb128 0x8
ARM GAS  /tmp/cc6DU3Wg.s 			page 46


 1205 0350 C3020000 		.4byte	.LASF65
 1206 0354 0A       		.byte	0xa
 1207 0355 6C01     		.2byte	0x16c
 1208 0357 A80A0000 		.4byte	0xaa8
 1209 035b 00       		.byte	0
 1210 035c 08       		.uleb128 0x8
 1211 035d 4D020000 		.4byte	.LASF66
 1212 0361 0A       		.byte	0xa
 1213 0362 6D01     		.2byte	0x16d
 1214 0364 A80A0000 		.4byte	0xaa8
 1215 0368 04       		.byte	0x4
 1216 0369 08       		.uleb128 0x8
 1217 036a 9E060000 		.4byte	.LASF67
 1218 036e 0A       		.byte	0xa
 1219 036f 6E01     		.2byte	0x16e
 1220 0371 31010000 		.4byte	0x131
 1221 0375 08       		.byte	0x8
 1222 0376 08       		.uleb128 0x8
 1223 0377 40080000 		.4byte	.LASF68
 1224 037b 0A       		.byte	0xa
 1225 037c 6F01     		.2byte	0x16f
 1226 037e 19030000 		.4byte	0x319
 1227 0382 0C       		.byte	0xc
 1228 0383 08       		.uleb128 0x8
 1229 0384 92070000 		.4byte	.LASF69
 1230 0388 0A       		.byte	0xa
 1231 0389 7101     		.2byte	0x171
 1232 038b 35030000 		.4byte	0x335
 1233 038f 10       		.byte	0x10
 1234 0390 00       		.byte	0
 1235 0391 04       		.uleb128 0x4
 1236 0392 F1000000 		.4byte	.LASF70
 1237 0396 09       		.byte	0x9
 1238 0397 66       		.byte	0x66
 1239 0398 9C030000 		.4byte	0x39c
 1240 039c 0A       		.uleb128 0xa
 1241 039d D0040000 		.4byte	.LASF71
 1242 03a1 10       		.byte	0x10
 1243 03a2 0A       		.byte	0xa
 1244 03a3 7B01     		.2byte	0x17b
 1245 03a5 DE030000 		.4byte	0x3de
 1246 03a9 08       		.uleb128 0x8
 1247 03aa C3020000 		.4byte	.LASF65
 1248 03ae 0A       		.byte	0xa
 1249 03af 7C01     		.2byte	0x17c
 1250 03b1 A80A0000 		.4byte	0xaa8
 1251 03b5 00       		.byte	0
 1252 03b6 08       		.uleb128 0x8
 1253 03b7 4D020000 		.4byte	.LASF66
 1254 03bb 0A       		.byte	0xa
 1255 03bc 7E01     		.2byte	0x17e
 1256 03be A80A0000 		.4byte	0xaa8
 1257 03c2 04       		.byte	0x4
 1258 03c3 08       		.uleb128 0x8
 1259 03c4 9E060000 		.4byte	.LASF67
 1260 03c8 0A       		.byte	0xa
 1261 03c9 8001     		.2byte	0x180
ARM GAS  /tmp/cc6DU3Wg.s 			page 47


 1262 03cb 31010000 		.4byte	0x131
 1263 03cf 08       		.byte	0x8
 1264 03d0 08       		.uleb128 0x8
 1265 03d1 FA040000 		.4byte	.LASF72
 1266 03d5 0A       		.byte	0xa
 1267 03d6 8801     		.2byte	0x188
 1268 03d8 31010000 		.4byte	0x131
 1269 03dc 0C       		.byte	0xc
 1270 03dd 00       		.byte	0
 1271 03de 04       		.uleb128 0x4
 1272 03df 63000000 		.4byte	.LASF73
 1273 03e3 09       		.byte	0x9
 1274 03e4 6B       		.byte	0x6b
 1275 03e5 E9030000 		.4byte	0x3e9
 1276 03e9 0E       		.uleb128 0xe
 1277 03ea 6F020000 		.4byte	.LASF74
 1278 03ee 1404     		.2byte	0x414
 1279 03f0 0A       		.byte	0xa
 1280 03f1 A201     		.2byte	0x1a2
 1281 03f3 2C040000 		.4byte	0x42c
 1282 03f7 08       		.uleb128 0x8
 1283 03f8 3D070000 		.4byte	.LASF75
 1284 03fc 0A       		.byte	0xa
 1285 03fd AA01     		.2byte	0x1aa
 1286 03ff AE0A0000 		.4byte	0xaae
 1287 0403 00       		.byte	0
 1288 0404 08       		.uleb128 0x8
 1289 0405 C2070000 		.4byte	.LASF76
 1290 0409 0A       		.byte	0xa
 1291 040a AF01     		.2byte	0x1af
 1292 040c 1B010000 		.4byte	0x11b
 1293 0410 04       		.byte	0x4
 1294 0411 08       		.uleb128 0x8
 1295 0412 8D020000 		.4byte	.LASF77
 1296 0416 0A       		.byte	0xa
 1297 0417 B301     		.2byte	0x1b3
 1298 0419 1B010000 		.4byte	0x11b
 1299 041d 08       		.byte	0x8
 1300 041e 08       		.uleb128 0x8
 1301 041f 0A080000 		.4byte	.LASF78
 1302 0423 0A       		.byte	0xa
 1303 0424 B901     		.2byte	0x1b9
 1304 0426 0E090000 		.4byte	0x90e
 1305 042a 0C       		.byte	0xc
 1306 042b 00       		.byte	0
 1307 042c 04       		.uleb128 0x4
 1308 042d 75030000 		.4byte	.LASF79
 1309 0431 09       		.byte	0x9
 1310 0432 70       		.byte	0x70
 1311 0433 37040000 		.4byte	0x437
 1312 0437 0E       		.uleb128 0xe
 1313 0438 B7010000 		.4byte	.LASF80
 1314 043c D805     		.2byte	0x5d8
 1315 043e 0A       		.byte	0xa
 1316 043f C201     		.2byte	0x1c2
 1317 0441 A4040000 		.4byte	0x4a4
 1318 0445 08       		.uleb128 0x8
ARM GAS  /tmp/cc6DU3Wg.s 			page 48


 1319 0446 CF070000 		.4byte	.LASF81
 1320 044a 0A       		.byte	0xa
 1321 044b C601     		.2byte	0x1c6
 1322 044d B2020000 		.4byte	0x2b2
 1323 0451 00       		.byte	0
 1324 0452 08       		.uleb128 0x8
 1325 0453 55020000 		.4byte	.LASF82
 1326 0457 0A       		.byte	0xa
 1327 0458 CA01     		.2byte	0x1ca
 1328 045a 91030000 		.4byte	0x391
 1329 045e 1C       		.byte	0x1c
 1330 045f 07       		.uleb128 0x7
 1331 0460 64626700 		.ascii	"dbg\000"
 1332 0464 0A       		.byte	0xa
 1333 0465 CE01     		.2byte	0x1ce
 1334 0467 DE030000 		.4byte	0x3de
 1335 046b 2C       		.byte	0x2c
 1336 046c 0F       		.uleb128 0xf
 1337 046d E6000000 		.4byte	.LASF83
 1338 0471 0A       		.byte	0xa
 1339 0472 D201     		.2byte	0x1d2
 1340 0474 3C010000 		.4byte	0x13c
 1341 0478 4004     		.2byte	0x440
 1342 047a 10       		.uleb128 0x10
 1343 047b 746D00   		.ascii	"tm\000"
 1344 047e 0A       		.byte	0xa
 1345 047f D701     		.2byte	0x1d7
 1346 0481 2E090000 		.4byte	0x92e
 1347 0485 A004     		.2byte	0x4a0
 1348 0487 0F       		.uleb128 0xf
 1349 0488 2F000000 		.4byte	.LASF84
 1350 048c 0A       		.byte	0xa
 1351 048d DD01     		.2byte	0x1dd
 1352 048f C0090000 		.4byte	0x9c0
 1353 0493 A804     		.2byte	0x4a8
 1354 0495 0F       		.uleb128 0xf
 1355 0496 96020000 		.4byte	.LASF85
 1356 049a 0A       		.byte	0xa
 1357 049b E301     		.2byte	0x1e3
 1358 049d B30A0000 		.4byte	0xab3
 1359 04a1 E004     		.2byte	0x4e0
 1360 04a3 00       		.byte	0
 1361 04a4 03       		.uleb128 0x3
 1362 04a5 04       		.byte	0x4
 1363 04a6 07       		.byte	0x7
 1364 04a7 B4040000 		.4byte	.LASF86
 1365 04ab 11       		.uleb128 0x11
 1366 04ac AD000000 		.4byte	0xad
 1367 04b0 12       		.uleb128 0x12
 1368 04b1 AD000000 		.4byte	0xad
 1369 04b5 C0040000 		.4byte	0x4c0
 1370 04b9 13       		.uleb128 0x13
 1371 04ba A4040000 		.4byte	0x4a4
 1372 04be 01       		.byte	0x1
 1373 04bf 00       		.byte	0
 1374 04c0 12       		.uleb128 0x12
 1375 04c1 AD000000 		.4byte	0xad
ARM GAS  /tmp/cc6DU3Wg.s 			page 49


 1376 04c5 D0040000 		.4byte	0x4d0
 1377 04c9 13       		.uleb128 0x13
 1378 04ca A4040000 		.4byte	0x4a4
 1379 04ce 03       		.byte	0x3
 1380 04cf 00       		.byte	0
 1381 04d0 14       		.uleb128 0x14
 1382 04d1 10       		.byte	0x10
 1383 04d2 0B       		.byte	0xb
 1384 04d3 4C01     		.2byte	0x14c
 1385 04d5 0D050000 		.4byte	0x50d
 1386 04d9 08       		.uleb128 0x8
 1387 04da D6000000 		.4byte	.LASF87
 1388 04de 0B       		.byte	0xb
 1389 04df 4E01     		.2byte	0x14e
 1390 04e1 AB040000 		.4byte	0x4ab
 1391 04e5 00       		.byte	0
 1392 04e6 07       		.uleb128 0x7
 1393 04e7 435200   		.ascii	"CR\000"
 1394 04ea 0B       		.byte	0xb
 1395 04eb 4F01     		.2byte	0x14f
 1396 04ed AB040000 		.4byte	0x4ab
 1397 04f1 04       		.byte	0x4
 1398 04f2 08       		.uleb128 0x8
 1399 04f3 58050000 		.4byte	.LASF88
 1400 04f7 0B       		.byte	0xb
 1401 04f8 5001     		.2byte	0x150
 1402 04fa AB040000 		.4byte	0x4ab
 1403 04fe 08       		.byte	0x8
 1404 04ff 08       		.uleb128 0x8
 1405 0500 6E030000 		.4byte	.LASF89
 1406 0504 0B       		.byte	0xb
 1407 0505 5101     		.2byte	0x151
 1408 0507 AB040000 		.4byte	0x4ab
 1409 050b 0C       		.byte	0xc
 1410 050c 00       		.byte	0
 1411 050d 15       		.uleb128 0x15
 1412 050e 6D060000 		.4byte	.LASF90
 1413 0512 0B       		.byte	0xb
 1414 0513 5201     		.2byte	0x152
 1415 0515 D0040000 		.4byte	0x4d0
 1416 0519 14       		.uleb128 0x14
 1417 051a 88       		.byte	0x88
 1418 051b 0B       		.byte	0xb
 1419 051c 6602     		.2byte	0x266
 1420 051e A8060000 		.4byte	0x6a8
 1421 0522 07       		.uleb128 0x7
 1422 0523 435200   		.ascii	"CR\000"
 1423 0526 0B       		.byte	0xb
 1424 0527 6802     		.2byte	0x268
 1425 0529 AB040000 		.4byte	0x4ab
 1426 052d 00       		.byte	0
 1427 052e 08       		.uleb128 0x8
 1428 052f 11020000 		.4byte	.LASF91
 1429 0533 0B       		.byte	0xb
 1430 0534 6902     		.2byte	0x269
 1431 0536 AB040000 		.4byte	0x4ab
 1432 053a 04       		.byte	0x4
ARM GAS  /tmp/cc6DU3Wg.s 			page 50


 1433 053b 08       		.uleb128 0x8
 1434 053c FD070000 		.4byte	.LASF92
 1435 0540 0B       		.byte	0xb
 1436 0541 6A02     		.2byte	0x26a
 1437 0543 AB040000 		.4byte	0x4ab
 1438 0547 08       		.byte	0x8
 1439 0548 07       		.uleb128 0x7
 1440 0549 43495200 		.ascii	"CIR\000"
 1441 054d 0B       		.byte	0xb
 1442 054e 6B02     		.2byte	0x26b
 1443 0550 AB040000 		.4byte	0x4ab
 1444 0554 0C       		.byte	0xc
 1445 0555 08       		.uleb128 0x8
 1446 0556 84010000 		.4byte	.LASF93
 1447 055a 0B       		.byte	0xb
 1448 055b 6C02     		.2byte	0x26c
 1449 055d AB040000 		.4byte	0x4ab
 1450 0561 10       		.byte	0x10
 1451 0562 08       		.uleb128 0x8
 1452 0563 D3060000 		.4byte	.LASF94
 1453 0567 0B       		.byte	0xb
 1454 0568 6D02     		.2byte	0x26d
 1455 056a AB040000 		.4byte	0x4ab
 1456 056e 14       		.byte	0x14
 1457 056f 08       		.uleb128 0x8
 1458 0570 5E030000 		.4byte	.LASF95
 1459 0574 0B       		.byte	0xb
 1460 0575 6E02     		.2byte	0x26e
 1461 0577 AB040000 		.4byte	0x4ab
 1462 057b 18       		.byte	0x18
 1463 057c 08       		.uleb128 0x8
 1464 057d 67050000 		.4byte	.LASF96
 1465 0581 0B       		.byte	0xb
 1466 0582 6F02     		.2byte	0x26f
 1467 0584 AD000000 		.4byte	0xad
 1468 0588 1C       		.byte	0x1c
 1469 0589 08       		.uleb128 0x8
 1470 058a 39050000 		.4byte	.LASF97
 1471 058e 0B       		.byte	0xb
 1472 058f 7002     		.2byte	0x270
 1473 0591 AB040000 		.4byte	0x4ab
 1474 0595 20       		.byte	0x20
 1475 0596 08       		.uleb128 0x8
 1476 0597 CA010000 		.4byte	.LASF98
 1477 059b 0B       		.byte	0xb
 1478 059c 7102     		.2byte	0x271
 1479 059e AB040000 		.4byte	0x4ab
 1480 05a2 24       		.byte	0x24
 1481 05a3 08       		.uleb128 0x8
 1482 05a4 71050000 		.4byte	.LASF99
 1483 05a8 0B       		.byte	0xb
 1484 05a9 7202     		.2byte	0x272
 1485 05ab B0040000 		.4byte	0x4b0
 1486 05af 28       		.byte	0x28
 1487 05b0 08       		.uleb128 0x8
 1488 05b1 F5070000 		.4byte	.LASF100
 1489 05b5 0B       		.byte	0xb
ARM GAS  /tmp/cc6DU3Wg.s 			page 51


 1490 05b6 7302     		.2byte	0x273
 1491 05b8 AB040000 		.4byte	0x4ab
 1492 05bc 30       		.byte	0x30
 1493 05bd 08       		.uleb128 0x8
 1494 05be 5F070000 		.4byte	.LASF101
 1495 05c2 0B       		.byte	0xb
 1496 05c3 7402     		.2byte	0x274
 1497 05c5 AB040000 		.4byte	0x4ab
 1498 05c9 34       		.byte	0x34
 1499 05ca 08       		.uleb128 0x8
 1500 05cb F2040000 		.4byte	.LASF102
 1501 05cf 0B       		.byte	0xb
 1502 05d0 7502     		.2byte	0x275
 1503 05d2 AB040000 		.4byte	0x4ab
 1504 05d6 38       		.byte	0x38
 1505 05d7 08       		.uleb128 0x8
 1506 05d8 7B050000 		.4byte	.LASF103
 1507 05dc 0B       		.byte	0xb
 1508 05dd 7602     		.2byte	0x276
 1509 05df AD000000 		.4byte	0xad
 1510 05e3 3C       		.byte	0x3c
 1511 05e4 08       		.uleb128 0x8
 1512 05e5 4E070000 		.4byte	.LASF104
 1513 05e9 0B       		.byte	0xb
 1514 05ea 7702     		.2byte	0x277
 1515 05ec AB040000 		.4byte	0x4ab
 1516 05f0 40       		.byte	0x40
 1517 05f1 08       		.uleb128 0x8
 1518 05f2 42060000 		.4byte	.LASF105
 1519 05f6 0B       		.byte	0xb
 1520 05f7 7802     		.2byte	0x278
 1521 05f9 AB040000 		.4byte	0x4ab
 1522 05fd 44       		.byte	0x44
 1523 05fe 08       		.uleb128 0x8
 1524 05ff 85050000 		.4byte	.LASF106
 1525 0603 0B       		.byte	0xb
 1526 0604 7902     		.2byte	0x279
 1527 0606 B0040000 		.4byte	0x4b0
 1528 060a 48       		.byte	0x48
 1529 060b 08       		.uleb128 0x8
 1530 060c 36010000 		.4byte	.LASF107
 1531 0610 0B       		.byte	0xb
 1532 0611 7A02     		.2byte	0x27a
 1533 0613 AB040000 		.4byte	0x4ab
 1534 0617 50       		.byte	0x50
 1535 0618 08       		.uleb128 0x8
 1536 0619 14050000 		.4byte	.LASF108
 1537 061d 0B       		.byte	0xb
 1538 061e 7B02     		.2byte	0x27b
 1539 0620 AB040000 		.4byte	0x4ab
 1540 0624 54       		.byte	0x54
 1541 0625 08       		.uleb128 0x8
 1542 0626 13060000 		.4byte	.LASF109
 1543 062a 0B       		.byte	0xb
 1544 062b 7C02     		.2byte	0x27c
 1545 062d AB040000 		.4byte	0x4ab
 1546 0631 58       		.byte	0x58
ARM GAS  /tmp/cc6DU3Wg.s 			page 52


 1547 0632 08       		.uleb128 0x8
 1548 0633 8F050000 		.4byte	.LASF110
 1549 0637 0B       		.byte	0xb
 1550 0638 7D02     		.2byte	0x27d
 1551 063a AD000000 		.4byte	0xad
 1552 063e 5C       		.byte	0x5c
 1553 063f 08       		.uleb128 0x8
 1554 0640 D3010000 		.4byte	.LASF111
 1555 0644 0B       		.byte	0xb
 1556 0645 7E02     		.2byte	0x27e
 1557 0647 AB040000 		.4byte	0x4ab
 1558 064b 60       		.byte	0x60
 1559 064c 08       		.uleb128 0x8
 1560 064d 2B040000 		.4byte	.LASF112
 1561 0651 0B       		.byte	0xb
 1562 0652 7F02     		.2byte	0x27f
 1563 0654 AB040000 		.4byte	0x4ab
 1564 0658 64       		.byte	0x64
 1565 0659 08       		.uleb128 0x8
 1566 065a 7C060000 		.4byte	.LASF113
 1567 065e 0B       		.byte	0xb
 1568 065f 8002     		.2byte	0x280
 1569 0661 B0040000 		.4byte	0x4b0
 1570 0665 68       		.byte	0x68
 1571 0666 08       		.uleb128 0x8
 1572 0667 CA070000 		.4byte	.LASF114
 1573 066b 0B       		.byte	0xb
 1574 066c 8102     		.2byte	0x281
 1575 066e AB040000 		.4byte	0x4ab
 1576 0672 70       		.byte	0x70
 1577 0673 07       		.uleb128 0x7
 1578 0674 43535200 		.ascii	"CSR\000"
 1579 0678 0B       		.byte	0xb
 1580 0679 8202     		.2byte	0x282
 1581 067b AB040000 		.4byte	0x4ab
 1582 067f 74       		.byte	0x74
 1583 0680 08       		.uleb128 0x8
 1584 0681 A0050000 		.4byte	.LASF115
 1585 0685 0B       		.byte	0xb
 1586 0686 8302     		.2byte	0x283
 1587 0688 B0040000 		.4byte	0x4b0
 1588 068c 78       		.byte	0x78
 1589 068d 08       		.uleb128 0x8
 1590 068e 99070000 		.4byte	.LASF116
 1591 0692 0B       		.byte	0xb
 1592 0693 8402     		.2byte	0x284
 1593 0695 AB040000 		.4byte	0x4ab
 1594 0699 80       		.byte	0x80
 1595 069a 08       		.uleb128 0x8
 1596 069b 4D030000 		.4byte	.LASF117
 1597 069f 0B       		.byte	0xb
 1598 06a0 8502     		.2byte	0x285
 1599 06a2 AB040000 		.4byte	0x4ab
 1600 06a6 84       		.byte	0x84
 1601 06a7 00       		.byte	0
 1602 06a8 15       		.uleb128 0x15
 1603 06a9 17030000 		.4byte	.LASF118
ARM GAS  /tmp/cc6DU3Wg.s 			page 53


 1604 06ad 0B       		.byte	0xb
 1605 06ae 8702     		.2byte	0x287
 1606 06b0 19050000 		.4byte	0x519
 1607 06b4 04       		.uleb128 0x4
 1608 06b5 44020000 		.4byte	.LASF119
 1609 06b9 0C       		.byte	0xc
 1610 06ba 65       		.byte	0x65
 1611 06bb 35030000 		.4byte	0x335
 1612 06bf 04       		.uleb128 0x4
 1613 06c0 64040000 		.4byte	.LASF120
 1614 06c4 0C       		.byte	0xc
 1615 06c5 6D       		.byte	0x6d
 1616 06c6 B8000000 		.4byte	0xb8
 1617 06ca 05       		.uleb128 0x5
 1618 06cb 67070000 		.4byte	.LASF121
 1619 06cf 04       		.byte	0x4
 1620 06d0 0C       		.byte	0xc
 1621 06d1 89       		.byte	0x89
 1622 06d2 E3060000 		.4byte	0x6e3
 1623 06d6 16       		.uleb128 0x16
 1624 06d7 72313300 		.ascii	"r13\000"
 1625 06db 0C       		.byte	0xc
 1626 06dc 8A       		.byte	0x8a
 1627 06dd 5E070000 		.4byte	0x75e
 1628 06e1 00       		.byte	0
 1629 06e2 00       		.byte	0
 1630 06e3 05       		.uleb128 0x5
 1631 06e4 46000000 		.4byte	.LASF122
 1632 06e8 24       		.byte	0x24
 1633 06e9 01       		.byte	0x1
 1634 06ea FD       		.byte	0xfd
 1635 06eb 5E070000 		.4byte	0x75e
 1636 06ef 07       		.uleb128 0x7
 1637 06f0 723400   		.ascii	"r4\000"
 1638 06f3 01       		.byte	0x1
 1639 06f4 1001     		.2byte	0x110
 1640 06f6 B4060000 		.4byte	0x6b4
 1641 06fa 00       		.byte	0
 1642 06fb 07       		.uleb128 0x7
 1643 06fc 723500   		.ascii	"r5\000"
 1644 06ff 01       		.byte	0x1
 1645 0700 1101     		.2byte	0x111
 1646 0702 B4060000 		.4byte	0x6b4
 1647 0706 04       		.byte	0x4
 1648 0707 07       		.uleb128 0x7
 1649 0708 723600   		.ascii	"r6\000"
 1650 070b 01       		.byte	0x1
 1651 070c 1201     		.2byte	0x112
 1652 070e B4060000 		.4byte	0x6b4
 1653 0712 08       		.byte	0x8
 1654 0713 07       		.uleb128 0x7
 1655 0714 723700   		.ascii	"r7\000"
 1656 0717 01       		.byte	0x1
 1657 0718 1301     		.2byte	0x113
 1658 071a B4060000 		.4byte	0x6b4
 1659 071e 0C       		.byte	0xc
 1660 071f 07       		.uleb128 0x7
ARM GAS  /tmp/cc6DU3Wg.s 			page 54


 1661 0720 723800   		.ascii	"r8\000"
 1662 0723 01       		.byte	0x1
 1663 0724 1401     		.2byte	0x114
 1664 0726 B4060000 		.4byte	0x6b4
 1665 072a 10       		.byte	0x10
 1666 072b 07       		.uleb128 0x7
 1667 072c 723900   		.ascii	"r9\000"
 1668 072f 01       		.byte	0x1
 1669 0730 1501     		.2byte	0x115
 1670 0732 B4060000 		.4byte	0x6b4
 1671 0736 14       		.byte	0x14
 1672 0737 07       		.uleb128 0x7
 1673 0738 72313000 		.ascii	"r10\000"
 1674 073c 01       		.byte	0x1
 1675 073d 1601     		.2byte	0x116
 1676 073f B4060000 		.4byte	0x6b4
 1677 0743 18       		.byte	0x18
 1678 0744 07       		.uleb128 0x7
 1679 0745 72313100 		.ascii	"r11\000"
 1680 0749 01       		.byte	0x1
 1681 074a 1701     		.2byte	0x117
 1682 074c B4060000 		.4byte	0x6b4
 1683 0750 1C       		.byte	0x1c
 1684 0751 07       		.uleb128 0x7
 1685 0752 6C7200   		.ascii	"lr\000"
 1686 0755 01       		.byte	0x1
 1687 0756 1801     		.2byte	0x118
 1688 0758 B4060000 		.4byte	0x6b4
 1689 075c 20       		.byte	0x20
 1690 075d 00       		.byte	0
 1691 075e 09       		.uleb128 0x9
 1692 075f 04       		.byte	0x4
 1693 0760 E3060000 		.4byte	0x6e3
 1694 0764 14       		.uleb128 0x14
 1695 0765 60       		.byte	0x60
 1696 0766 0D       		.byte	0xd
 1697 0767 A101     		.2byte	0x1a1
 1698 0769 70080000 		.4byte	0x870
 1699 076d 07       		.uleb128 0x7
 1700 076e 43523100 		.ascii	"CR1\000"
 1701 0772 0D       		.byte	0xd
 1702 0773 A201     		.2byte	0x1a2
 1703 0775 AB040000 		.4byte	0x4ab
 1704 0779 00       		.byte	0
 1705 077a 07       		.uleb128 0x7
 1706 077b 43523200 		.ascii	"CR2\000"
 1707 077f 0D       		.byte	0xd
 1708 0780 A301     		.2byte	0x1a3
 1709 0782 AB040000 		.4byte	0x4ab
 1710 0786 04       		.byte	0x4
 1711 0787 08       		.uleb128 0x8
 1712 0788 2F030000 		.4byte	.LASF123
 1713 078c 0D       		.byte	0xd
 1714 078d A401     		.2byte	0x1a4
 1715 078f AB040000 		.4byte	0x4ab
 1716 0793 08       		.byte	0x8
 1717 0794 08       		.uleb128 0x8
ARM GAS  /tmp/cc6DU3Wg.s 			page 55


 1718 0795 14000000 		.4byte	.LASF124
 1719 0799 0D       		.byte	0xd
 1720 079a A501     		.2byte	0x1a5
 1721 079c AB040000 		.4byte	0x4ab
 1722 07a0 0C       		.byte	0xc
 1723 07a1 07       		.uleb128 0x7
 1724 07a2 535200   		.ascii	"SR\000"
 1725 07a5 0D       		.byte	0xd
 1726 07a6 A601     		.2byte	0x1a6
 1727 07a8 AB040000 		.4byte	0x4ab
 1728 07ac 10       		.byte	0x10
 1729 07ad 07       		.uleb128 0x7
 1730 07ae 45475200 		.ascii	"EGR\000"
 1731 07b2 0D       		.byte	0xd
 1732 07b3 A701     		.2byte	0x1a7
 1733 07b5 AB040000 		.4byte	0x4ab
 1734 07b9 14       		.byte	0x14
 1735 07ba 08       		.uleb128 0x8
 1736 07bb 47010000 		.4byte	.LASF125
 1737 07bf 0D       		.byte	0xd
 1738 07c0 A801     		.2byte	0x1a8
 1739 07c2 AB040000 		.4byte	0x4ab
 1740 07c6 18       		.byte	0x18
 1741 07c7 08       		.uleb128 0x8
 1742 07c8 4D010000 		.4byte	.LASF126
 1743 07cc 0D       		.byte	0xd
 1744 07cd A901     		.2byte	0x1a9
 1745 07cf AB040000 		.4byte	0x4ab
 1746 07d3 1C       		.byte	0x1c
 1747 07d4 08       		.uleb128 0x8
 1748 07d5 E6010000 		.4byte	.LASF127
 1749 07d9 0D       		.byte	0xd
 1750 07da AA01     		.2byte	0x1aa
 1751 07dc AB040000 		.4byte	0x4ab
 1752 07e0 20       		.byte	0x20
 1753 07e1 07       		.uleb128 0x7
 1754 07e2 434E5400 		.ascii	"CNT\000"
 1755 07e6 0D       		.byte	0xd
 1756 07e7 AB01     		.2byte	0x1ab
 1757 07e9 AB040000 		.4byte	0x4ab
 1758 07ed 24       		.byte	0x24
 1759 07ee 07       		.uleb128 0x7
 1760 07ef 50534300 		.ascii	"PSC\000"
 1761 07f3 0D       		.byte	0xd
 1762 07f4 AC01     		.2byte	0x1ac
 1763 07f6 AB040000 		.4byte	0x4ab
 1764 07fa 28       		.byte	0x28
 1765 07fb 07       		.uleb128 0x7
 1766 07fc 41525200 		.ascii	"ARR\000"
 1767 0800 0D       		.byte	0xd
 1768 0801 AD01     		.2byte	0x1ad
 1769 0803 AB040000 		.4byte	0x4ab
 1770 0807 2C       		.byte	0x2c
 1771 0808 07       		.uleb128 0x7
 1772 0809 52435200 		.ascii	"RCR\000"
 1773 080d 0D       		.byte	0xd
 1774 080e AE01     		.2byte	0x1ae
ARM GAS  /tmp/cc6DU3Wg.s 			page 56


 1775 0810 AB040000 		.4byte	0x4ab
 1776 0814 30       		.byte	0x30
 1777 0815 07       		.uleb128 0x7
 1778 0816 43435200 		.ascii	"CCR\000"
 1779 081a 0D       		.byte	0xd
 1780 081b AF01     		.2byte	0x1af
 1781 081d 70080000 		.4byte	0x870
 1782 0821 34       		.byte	0x34
 1783 0822 08       		.uleb128 0x8
 1784 0823 28010000 		.4byte	.LASF128
 1785 0827 0D       		.byte	0xd
 1786 0828 B001     		.2byte	0x1b0
 1787 082a AB040000 		.4byte	0x4ab
 1788 082e 44       		.byte	0x44
 1789 082f 07       		.uleb128 0x7
 1790 0830 44435200 		.ascii	"DCR\000"
 1791 0834 0D       		.byte	0xd
 1792 0835 B101     		.2byte	0x1b1
 1793 0837 AB040000 		.4byte	0x4ab
 1794 083b 48       		.byte	0x48
 1795 083c 08       		.uleb128 0x8
 1796 083d CE060000 		.4byte	.LASF129
 1797 0841 0D       		.byte	0xd
 1798 0842 B201     		.2byte	0x1b2
 1799 0844 AB040000 		.4byte	0x4ab
 1800 0848 4C       		.byte	0x4c
 1801 0849 07       		.uleb128 0x7
 1802 084a 4F5200   		.ascii	"OR\000"
 1803 084d 0D       		.byte	0xd
 1804 084e B301     		.2byte	0x1b3
 1805 0850 AB040000 		.4byte	0x4ab
 1806 0854 50       		.byte	0x50
 1807 0855 08       		.uleb128 0x8
 1808 0856 53010000 		.4byte	.LASF130
 1809 085a 0D       		.byte	0xd
 1810 085b B401     		.2byte	0x1b4
 1811 085d AB040000 		.4byte	0x4ab
 1812 0861 54       		.byte	0x54
 1813 0862 08       		.uleb128 0x8
 1814 0863 68060000 		.4byte	.LASF131
 1815 0867 0D       		.byte	0xd
 1816 0868 B501     		.2byte	0x1b5
 1817 086a 75080000 		.4byte	0x875
 1818 086e 58       		.byte	0x58
 1819 086f 00       		.byte	0
 1820 0870 11       		.uleb128 0x11
 1821 0871 C0040000 		.4byte	0x4c0
 1822 0875 11       		.uleb128 0x11
 1823 0876 B0040000 		.4byte	0x4b0
 1824 087a 15       		.uleb128 0x15
 1825 087b AF070000 		.4byte	.LASF132
 1826 087f 0D       		.byte	0xd
 1827 0880 B601     		.2byte	0x1b6
 1828 0882 64070000 		.4byte	0x764
 1829 0886 17       		.uleb128 0x17
 1830 0887 10       		.byte	0x10
 1831 0888 0E       		.byte	0xe
ARM GAS  /tmp/cc6DU3Wg.s 			page 57


 1832 0889 51       		.byte	0x51
 1833 088a BF080000 		.4byte	0x8bf
 1834 088e 06       		.uleb128 0x6
 1835 088f 8D010000 		.4byte	.LASF133
 1836 0893 0E       		.byte	0xe
 1837 0894 55       		.byte	0x55
 1838 0895 31010000 		.4byte	0x131
 1839 0899 00       		.byte	0
 1840 089a 06       		.uleb128 0x6
 1841 089b EB010000 		.4byte	.LASF134
 1842 089f 0E       		.byte	0xe
 1843 08a0 59       		.byte	0x59
 1844 08a1 58020000 		.4byte	0x258
 1845 08a5 04       		.byte	0x4
 1846 08a6 06       		.uleb128 0x6
 1847 08a7 30080000 		.4byte	.LASF135
 1848 08ab 0E       		.byte	0xe
 1849 08ac 5D       		.byte	0x5d
 1850 08ad 35030000 		.4byte	0x335
 1851 08b1 08       		.byte	0x8
 1852 08b2 06       		.uleb128 0x6
 1853 08b3 CD000000 		.4byte	.LASF136
 1854 08b7 0E       		.byte	0xe
 1855 08b8 61       		.byte	0x61
 1856 08b9 97000000 		.4byte	0x97
 1857 08bd 0C       		.byte	0xc
 1858 08be 00       		.byte	0
 1859 08bf 04       		.uleb128 0x4
 1860 08c0 95000000 		.4byte	.LASF137
 1861 08c4 0E       		.byte	0xe
 1862 08c5 62       		.byte	0x62
 1863 08c6 86080000 		.4byte	0x886
 1864 08ca 18       		.uleb128 0x18
 1865 08cb 0804     		.2byte	0x408
 1866 08cd 0E       		.byte	0xe
 1867 08ce 67       		.byte	0x67
 1868 08cf F8080000 		.4byte	0x8f8
 1869 08d3 06       		.uleb128 0x6
 1870 08d4 2C020000 		.4byte	.LASF138
 1871 08d8 0E       		.byte	0xe
 1872 08d9 6B       		.byte	0x6b
 1873 08da 2C000000 		.4byte	0x2c
 1874 08de 00       		.byte	0
 1875 08df 06       		.uleb128 0x6
 1876 08e0 00000000 		.4byte	.LASF139
 1877 08e4 0E       		.byte	0xe
 1878 08e5 6F       		.byte	0x6f
 1879 08e6 F8080000 		.4byte	0x8f8
 1880 08ea 04       		.byte	0x4
 1881 08eb 06       		.uleb128 0x6
 1882 08ec 07020000 		.4byte	.LASF140
 1883 08f0 0E       		.byte	0xe
 1884 08f1 73       		.byte	0x73
 1885 08f2 FE080000 		.4byte	0x8fe
 1886 08f6 08       		.byte	0x8
 1887 08f7 00       		.byte	0
 1888 08f8 09       		.uleb128 0x9
ARM GAS  /tmp/cc6DU3Wg.s 			page 58


 1889 08f9 04       		.byte	0x4
 1890 08fa BF080000 		.4byte	0x8bf
 1891 08fe 12       		.uleb128 0x12
 1892 08ff BF080000 		.4byte	0x8bf
 1893 0903 0E090000 		.4byte	0x90e
 1894 0907 13       		.uleb128 0x13
 1895 0908 A4040000 		.4byte	0x4a4
 1896 090c 3F       		.byte	0x3f
 1897 090d 00       		.byte	0
 1898 090e 04       		.uleb128 0x4
 1899 090f BB000000 		.4byte	.LASF141
 1900 0913 0E       		.byte	0xe
 1901 0914 74       		.byte	0x74
 1902 0915 CA080000 		.4byte	0x8ca
 1903 0919 17       		.uleb128 0x17
 1904 091a 04       		.byte	0x4
 1905 091b 0F       		.byte	0xf
 1906 091c 38       		.byte	0x38
 1907 091d 2E090000 		.4byte	0x92e
 1908 0921 06       		.uleb128 0x6
 1909 0922 47070000 		.4byte	.LASF142
 1910 0926 0F       		.byte	0xf
 1911 0927 3C       		.byte	0x3c
 1912 0928 C3000000 		.4byte	0xc3
 1913 092c 00       		.byte	0
 1914 092d 00       		.byte	0
 1915 092e 04       		.uleb128 0x4
 1916 092f 1E050000 		.4byte	.LASF143
 1917 0933 0F       		.byte	0xf
 1918 0934 3D       		.byte	0x3d
 1919 0935 19090000 		.4byte	0x919
 1920 0939 17       		.uleb128 0x17
 1921 093a 18       		.byte	0x18
 1922 093b 0F       		.byte	0xf
 1923 093c 48       		.byte	0x48
 1924 093d 7C090000 		.4byte	0x97c
 1925 0941 06       		.uleb128 0x6
 1926 0942 FA060000 		.4byte	.LASF144
 1927 0946 0F       		.byte	0xf
 1928 0947 49       		.byte	0x49
 1929 0948 C3000000 		.4byte	0xc3
 1930 094c 00       		.byte	0
 1931 094d 06       		.uleb128 0x6
 1932 094e 7C000000 		.4byte	.LASF145
 1933 0952 0F       		.byte	0xf
 1934 0953 4A       		.byte	0x4a
 1935 0954 C3000000 		.4byte	0xc3
 1936 0958 04       		.byte	0x4
 1937 0959 06       		.uleb128 0x6
 1938 095a B2010000 		.4byte	.LASF146
 1939 095e 0F       		.byte	0xf
 1940 095f 4B       		.byte	0x4b
 1941 0960 C3000000 		.4byte	0xc3
 1942 0964 08       		.byte	0x8
 1943 0965 16       		.uleb128 0x16
 1944 0966 6E00     		.ascii	"n\000"
 1945 0968 0F       		.byte	0xf
ARM GAS  /tmp/cc6DU3Wg.s 			page 59


 1946 0969 4C       		.byte	0x4c
 1947 096a 26010000 		.4byte	0x126
 1948 096e 0C       		.byte	0xc
 1949 096f 06       		.uleb128 0x6
 1950 0970 4D050000 		.4byte	.LASF147
 1951 0974 0F       		.byte	0xf
 1952 0975 4D       		.byte	0x4d
 1953 0976 CE000000 		.4byte	0xce
 1954 097a 10       		.byte	0x10
 1955 097b 00       		.byte	0
 1956 097c 04       		.uleb128 0x4
 1957 097d 82000000 		.4byte	.LASF148
 1958 0981 0F       		.byte	0xf
 1959 0982 4E       		.byte	0x4e
 1960 0983 39090000 		.4byte	0x939
 1961 0987 17       		.uleb128 0x17
 1962 0988 38       		.byte	0x38
 1963 0989 10       		.byte	0x10
 1964 098a 38       		.byte	0x38
 1965 098b C0090000 		.4byte	0x9c0
 1966 098f 06       		.uleb128 0x6
 1967 0990 23030000 		.4byte	.LASF149
 1968 0994 10       		.byte	0x10
 1969 0995 39       		.byte	0x39
 1970 0996 26010000 		.4byte	0x126
 1971 099a 00       		.byte	0
 1972 099b 06       		.uleb128 0x6
 1973 099c C5050000 		.4byte	.LASF150
 1974 09a0 10       		.byte	0x10
 1975 09a1 3A       		.byte	0x3a
 1976 09a2 26010000 		.4byte	0x126
 1977 09a6 04       		.byte	0x4
 1978 09a7 06       		.uleb128 0x6
 1979 09a8 1D080000 		.4byte	.LASF151
 1980 09ac 10       		.byte	0x10
 1981 09ad 3B       		.byte	0x3b
 1982 09ae 7C090000 		.4byte	0x97c
 1983 09b2 08       		.byte	0x8
 1984 09b3 06       		.uleb128 0x6
 1985 09b4 35040000 		.4byte	.LASF152
 1986 09b8 10       		.byte	0x10
 1987 09b9 3D       		.byte	0x3d
 1988 09ba 7C090000 		.4byte	0x97c
 1989 09be 20       		.byte	0x20
 1990 09bf 00       		.byte	0
 1991 09c0 04       		.uleb128 0x4
 1992 09c1 34030000 		.4byte	.LASF153
 1993 09c5 10       		.byte	0x10
 1994 09c6 3F       		.byte	0x3f
 1995 09c7 87090000 		.4byte	0x987
 1996 09cb 19       		.uleb128 0x19
 1997 09cc 04       		.byte	0x4
 1998 09cd 0A       		.byte	0xa
 1999 09ce FA       		.byte	0xfa
 2000 09cf 280A0000 		.4byte	0xa28
 2001 09d3 1A       		.uleb128 0x1a
 2002 09d4 1F000000 		.4byte	.LASF154
ARM GAS  /tmp/cc6DU3Wg.s 			page 60


 2003 09d8 0A       		.byte	0xa
 2004 09d9 0101     		.2byte	0x101
 2005 09db 05010000 		.4byte	0x105
 2006 09df 1A       		.uleb128 0x1a
 2007 09e0 DD000000 		.4byte	.LASF155
 2008 09e4 0A       		.byte	0xa
 2009 09e5 0801     		.2byte	0x108
 2010 09e7 05010000 		.4byte	0x105
 2011 09eb 1A       		.uleb128 0x1a
 2012 09ec 24040000 		.4byte	.LASF156
 2013 09f0 0A       		.byte	0xa
 2014 09f1 0F01     		.2byte	0x10f
 2015 09f3 35030000 		.4byte	0x335
 2016 09f7 1A       		.uleb128 0x1a
 2017 09f8 19000000 		.4byte	.LASF157
 2018 09fc 0A       		.byte	0xa
 2019 09fd 1601     		.2byte	0x116
 2020 09ff 280A0000 		.4byte	0xa28
 2021 0a03 1A       		.uleb128 0x1a
 2022 0a04 CB020000 		.4byte	.LASF158
 2023 0a08 0A       		.byte	0xa
 2024 0a09 1E01     		.2byte	0x11e
 2025 0a0b 530A0000 		.4byte	0xa53
 2026 0a0f 1A       		.uleb128 0x1a
 2027 0a10 8F060000 		.4byte	.LASF159
 2028 0a14 0A       		.byte	0xa
 2029 0a15 2701     		.2byte	0x127
 2030 0a17 8A0A0000 		.4byte	0xa8a
 2031 0a1b 1A       		.uleb128 0x1a
 2032 0a1c 24060000 		.4byte	.LASF160
 2033 0a20 0A       		.byte	0xa
 2034 0a21 2F01     		.2byte	0x12f
 2035 0a23 10010000 		.4byte	0x110
 2036 0a27 00       		.byte	0
 2037 0a28 09       		.uleb128 0x9
 2038 0a29 04       		.byte	0x4
 2039 0a2a 4D020000 		.4byte	0x24d
 2040 0a2e 05       		.uleb128 0x5
 2041 0a2f 5B060000 		.4byte	.LASF161
 2042 0a33 0C       		.byte	0xc
 2043 0a34 11       		.byte	0x11
 2044 0a35 34       		.byte	0x34
 2045 0a36 530A0000 		.4byte	0xa53
 2046 0a3a 06       		.uleb128 0x6
 2047 0a3b A2040000 		.4byte	.LASF162
 2048 0a3f 11       		.byte	0x11
 2049 0a40 35       		.byte	0x35
 2050 0a41 82020000 		.4byte	0x282
 2051 0a45 00       		.byte	0
 2052 0a46 06       		.uleb128 0x6
 2053 0a47 29030000 		.4byte	.LASF163
 2054 0a4b 11       		.byte	0x11
 2055 0a4c 37       		.byte	0x37
 2056 0a4d 1B010000 		.4byte	0x11b
 2057 0a51 08       		.byte	0x8
 2058 0a52 00       		.byte	0
 2059 0a53 09       		.uleb128 0x9
ARM GAS  /tmp/cc6DU3Wg.s 			page 61


 2060 0a54 04       		.byte	0x4
 2061 0a55 2E0A0000 		.4byte	0xa2e
 2062 0a59 05       		.uleb128 0x5
 2063 0a5a 56070000 		.4byte	.LASF164
 2064 0a5e 10       		.byte	0x10
 2065 0a5f 12       		.byte	0x12
 2066 0a60 39       		.byte	0x39
 2067 0a61 8A0A0000 		.4byte	0xa8a
 2068 0a65 06       		.uleb128 0x6
 2069 0a66 95010000 		.4byte	.LASF165
 2070 0a6a 12       		.byte	0x12
 2071 0a6b 3A       		.byte	0x3a
 2072 0a6c 82020000 		.4byte	0x282
 2073 0a70 00       		.byte	0
 2074 0a71 06       		.uleb128 0x6
 2075 0a72 28080000 		.4byte	.LASF166
 2076 0a76 12       		.byte	0x12
 2077 0a77 3C       		.byte	0x3c
 2078 0a78 58020000 		.4byte	0x258
 2079 0a7c 08       		.byte	0x8
 2080 0a7d 06       		.uleb128 0x6
 2081 0a7e FF060000 		.4byte	.LASF167
 2082 0a82 12       		.byte	0x12
 2083 0a83 3E       		.byte	0x3e
 2084 0a84 CE0A0000 		.4byte	0xace
 2085 0a88 0C       		.byte	0xc
 2086 0a89 00       		.byte	0
 2087 0a8a 09       		.uleb128 0x9
 2088 0a8b 04       		.byte	0x4
 2089 0a8c 590A0000 		.4byte	0xa59
 2090 0a90 09       		.uleb128 0x9
 2091 0a91 04       		.byte	0x4
 2092 0a92 960A0000 		.4byte	0xa96
 2093 0a96 1B       		.uleb128 0x1b
 2094 0a97 9B0A0000 		.4byte	0xa9b
 2095 0a9b 03       		.uleb128 0x3
 2096 0a9c 01       		.byte	0x1
 2097 0a9d 08       		.byte	0x8
 2098 0a9e C9060000 		.4byte	.LASF168
 2099 0aa2 09       		.uleb128 0x9
 2100 0aa3 04       		.byte	0x4
 2101 0aa4 BF060000 		.4byte	0x6bf
 2102 0aa8 09       		.uleb128 0x9
 2103 0aa9 04       		.byte	0x4
 2104 0aaa 37030000 		.4byte	0x337
 2105 0aae 11       		.uleb128 0x11
 2106 0aaf 900A0000 		.4byte	0xa90
 2107 0ab3 12       		.uleb128 0x12
 2108 0ab4 BF060000 		.4byte	0x6bf
 2109 0ab8 C30A0000 		.4byte	0xac3
 2110 0abc 13       		.uleb128 0x13
 2111 0abd A4040000 		.4byte	0x4a4
 2112 0ac1 1E       		.byte	0x1e
 2113 0ac2 00       		.byte	0
 2114 0ac3 04       		.uleb128 0x4
 2115 0ac4 7F020000 		.4byte	.LASF169
 2116 0ac8 12       		.byte	0x12
ARM GAS  /tmp/cc6DU3Wg.s 			page 62


 2117 0ac9 34       		.byte	0x34
 2118 0aca 590A0000 		.4byte	0xa59
 2119 0ace 09       		.uleb128 0x9
 2120 0acf 04       		.byte	0x4
 2121 0ad0 C30A0000 		.4byte	0xac3
 2122 0ad4 03       		.uleb128 0x3
 2123 0ad5 01       		.byte	0x1
 2124 0ad6 02       		.byte	0x2
 2125 0ad7 CE050000 		.4byte	.LASF170
 2126 0adb 1C       		.uleb128 0x1c
 2127 0adc 2F070000 		.4byte	.LASF186
 2128 0ae0 02       		.byte	0x2
 2129 0ae1 2202     		.2byte	0x222
 2130 0ae3 03       		.byte	0x3
 2131 0ae4 F50A0000 		.4byte	0xaf5
 2132 0ae8 1D       		.uleb128 0x1d
 2133 0ae9 87020000 		.4byte	.LASF187
 2134 0aed 02       		.byte	0x2
 2135 0aee 2202     		.2byte	0x222
 2136 0af0 AD000000 		.4byte	0xad
 2137 0af4 00       		.byte	0
 2138 0af5 1E       		.uleb128 0x1e
 2139 0af6 72000000 		.4byte	.LASF171
 2140 0afa 01       		.byte	0x1
 2141 0afb C801     		.2byte	0x1c8
 2142 0afd 00000000 		.4byte	.LFB127
 2143 0b01 10000000 		.4byte	.LFE127-.LFB127
 2144 0b05 01       		.uleb128 0x1
 2145 0b06 9C       		.byte	0x9c
 2146 0b07 250B0000 		.4byte	0xb25
 2147 0b0b 1F       		.uleb128 0x1f
 2148 0b0c DB0A0000 		.4byte	0xadb
 2149 0b10 06000000 		.4byte	.LBB6
 2150 0b14 06000000 		.4byte	.LBE6-.LBB6
 2151 0b18 01       		.byte	0x1
 2152 0b19 D001     		.2byte	0x1d0
 2153 0b1b 20       		.uleb128 0x20
 2154 0b1c E80A0000 		.4byte	0xae8
 2155 0b20 02       		.uleb128 0x2
 2156 0b21 91       		.byte	0x91
 2157 0b22 7C       		.sleb128 -4
 2158 0b23 00       		.byte	0
 2159 0b24 00       		.byte	0
 2160 0b25 1E       		.uleb128 0x1e
 2161 0b26 A6010000 		.4byte	.LASF172
 2162 0b2a 01       		.byte	0x1
 2163 0b2b E001     		.2byte	0x1e0
 2164 0b2d 00000000 		.4byte	.LFB128
 2165 0b31 10000000 		.4byte	.LFE128-.LFB128
 2166 0b35 01       		.uleb128 0x1
 2167 0b36 9C       		.byte	0x9c
 2168 0b37 550B0000 		.4byte	0xb55
 2169 0b3b 1F       		.uleb128 0x1f
 2170 0b3c DB0A0000 		.4byte	0xadb
 2171 0b40 06000000 		.4byte	.LBB8
 2172 0b44 06000000 		.4byte	.LBE8-.LBB8
 2173 0b48 01       		.byte	0x1
ARM GAS  /tmp/cc6DU3Wg.s 			page 63


 2174 0b49 E301     		.2byte	0x1e3
 2175 0b4b 20       		.uleb128 0x20
 2176 0b4c E80A0000 		.4byte	0xae8
 2177 0b50 02       		.uleb128 0x2
 2178 0b51 91       		.byte	0x91
 2179 0b52 7C       		.sleb128 -4
 2180 0b53 00       		.byte	0
 2181 0b54 00       		.byte	0
 2182 0b55 21       		.uleb128 0x21
 2183 0b56 7F070000 		.4byte	.LASF173
 2184 0b5a 01       		.byte	0x1
 2185 0b5b EF01     		.2byte	0x1ef
 2186 0b5d 00000000 		.4byte	.LFB129
 2187 0b61 08000000 		.4byte	.LFE129-.LFB129
 2188 0b65 01       		.uleb128 0x1
 2189 0b66 9C       		.byte	0x9c
 2190 0b67 21       		.uleb128 0x21
 2191 0b68 DC060000 		.4byte	.LASF174
 2192 0b6c 01       		.byte	0x1
 2193 0b6d FA01     		.2byte	0x1fa
 2194 0b6f 00000000 		.4byte	.LFB130
 2195 0b73 08000000 		.4byte	.LFE130-.LFB130
 2196 0b77 01       		.uleb128 0x1
 2197 0b78 9C       		.byte	0x9c
 2198 0b79 21       		.uleb128 0x21
 2199 0b7a DD070000 		.4byte	.LASF175
 2200 0b7e 03       		.byte	0x3
 2201 0b7f 8201     		.2byte	0x182
 2202 0b81 00000000 		.4byte	.LFB169
 2203 0b85 10000000 		.4byte	.LFE169-.LFB169
 2204 0b89 01       		.uleb128 0x1
 2205 0b8a 9C       		.byte	0x9c
 2206 0b8b 21       		.uleb128 0x21
 2207 0b8c B2050000 		.4byte	.LASF176
 2208 0b90 03       		.byte	0x3
 2209 0b91 9601     		.2byte	0x196
 2210 0b93 00000000 		.4byte	.LFB170
 2211 0b97 10000000 		.4byte	.LFE170-.LFB170
 2212 0b9b 01       		.uleb128 0x1
 2213 0b9c 9C       		.byte	0x9c
 2214 0b9d 21       		.uleb128 0x21
 2215 0b9e 5C020000 		.4byte	.LASF177
 2216 0ba2 04       		.byte	0x4
 2217 0ba3 0102     		.2byte	0x201
 2218 0ba5 00000000 		.4byte	.LFB247
 2219 0ba9 08000000 		.4byte	.LFE247-.LFB247
 2220 0bad 01       		.uleb128 0x1
 2221 0bae 9C       		.byte	0x9c
 2222 0baf 21       		.uleb128 0x21
 2223 0bb0 07010000 		.4byte	.LASF178
 2224 0bb4 04       		.byte	0x4
 2225 0bb5 0C02     		.2byte	0x20c
 2226 0bb7 00000000 		.4byte	.LFB248
 2227 0bbb 08000000 		.4byte	.LFE248-.LFB248
 2228 0bbf 01       		.uleb128 0x1
 2229 0bc0 9C       		.byte	0x9c
 2230 0bc1 21       		.uleb128 0x21
ARM GAS  /tmp/cc6DU3Wg.s 			page 64


 2231 0bc2 6F040000 		.4byte	.LASF179
 2232 0bc6 04       		.byte	0x4
 2233 0bc7 4702     		.2byte	0x247
 2234 0bc9 00000000 		.4byte	.LFB252
 2235 0bcd 08000000 		.4byte	.LFE252-.LFB252
 2236 0bd1 01       		.uleb128 0x1
 2237 0bd2 9C       		.byte	0x9c
 2238 0bd3 22       		.uleb128 0x22
 2239 0bd4 9D010000 		.4byte	.LASF180
 2240 0bd8 05       		.byte	0x5
 2241 0bd9 EF       		.byte	0xef
 2242 0bda 00000000 		.4byte	.LFB272
 2243 0bde 36000000 		.4byte	.LFE272-.LFB272
 2244 0be2 01       		.uleb128 0x1
 2245 0be3 9C       		.byte	0x9c
 2246 0be4 23       		.uleb128 0x23
 2247 0be5 1C010000 		.4byte	.LASF181
 2248 0be9 05       		.byte	0x5
 2249 0bea 0B01     		.2byte	0x10b
 2250 0bec 00000000 		.4byte	.LFB273
 2251 0bf0 80000000 		.4byte	.LFE273-.LFB273
 2252 0bf4 01       		.uleb128 0x1
 2253 0bf5 9C       		.byte	0x9c
 2254 0bf6 24       		.uleb128 0x24
 2255 0bf7 EA050000 		.4byte	.LASF182
 2256 0bfb 13       		.byte	0x13
 2257 0bfc FA06     		.2byte	0x6fa
 2258 0bfe 020C0000 		.4byte	0xc02
 2259 0c02 11       		.uleb128 0x11
 2260 0c03 A2000000 		.4byte	0xa2
 2261 0c07 25       		.uleb128 0x25
 2262 0c08 636800   		.ascii	"ch\000"
 2263 0c0b 0A       		.byte	0xa
 2264 0c0c 0902     		.2byte	0x209
 2265 0c0e 2C040000 		.4byte	0x42c
 2266 0c12 00       		.byte	0
 2267              		.section	.debug_abbrev,"",%progbits
 2268              	.Ldebug_abbrev0:
 2269 0000 01       		.uleb128 0x1
 2270 0001 11       		.uleb128 0x11
 2271 0002 01       		.byte	0x1
 2272 0003 25       		.uleb128 0x25
 2273 0004 0E       		.uleb128 0xe
 2274 0005 13       		.uleb128 0x13
 2275 0006 0B       		.uleb128 0xb
 2276 0007 03       		.uleb128 0x3
 2277 0008 0E       		.uleb128 0xe
 2278 0009 1B       		.uleb128 0x1b
 2279 000a 0E       		.uleb128 0xe
 2280 000b 55       		.uleb128 0x55
 2281 000c 17       		.uleb128 0x17
 2282 000d 11       		.uleb128 0x11
 2283 000e 01       		.uleb128 0x1
 2284 000f 10       		.uleb128 0x10
 2285 0010 17       		.uleb128 0x17
 2286 0011 00       		.byte	0
 2287 0012 00       		.byte	0
ARM GAS  /tmp/cc6DU3Wg.s 			page 65


 2288 0013 02       		.uleb128 0x2
 2289 0014 24       		.uleb128 0x24
 2290 0015 00       		.byte	0
 2291 0016 0B       		.uleb128 0xb
 2292 0017 0B       		.uleb128 0xb
 2293 0018 3E       		.uleb128 0x3e
 2294 0019 0B       		.uleb128 0xb
 2295 001a 03       		.uleb128 0x3
 2296 001b 08       		.uleb128 0x8
 2297 001c 00       		.byte	0
 2298 001d 00       		.byte	0
 2299 001e 03       		.uleb128 0x3
 2300 001f 24       		.uleb128 0x24
 2301 0020 00       		.byte	0
 2302 0021 0B       		.uleb128 0xb
 2303 0022 0B       		.uleb128 0xb
 2304 0023 3E       		.uleb128 0x3e
 2305 0024 0B       		.uleb128 0xb
 2306 0025 03       		.uleb128 0x3
 2307 0026 0E       		.uleb128 0xe
 2308 0027 00       		.byte	0
 2309 0028 00       		.byte	0
 2310 0029 04       		.uleb128 0x4
 2311 002a 16       		.uleb128 0x16
 2312 002b 00       		.byte	0
 2313 002c 03       		.uleb128 0x3
 2314 002d 0E       		.uleb128 0xe
 2315 002e 3A       		.uleb128 0x3a
 2316 002f 0B       		.uleb128 0xb
 2317 0030 3B       		.uleb128 0x3b
 2318 0031 0B       		.uleb128 0xb
 2319 0032 49       		.uleb128 0x49
 2320 0033 13       		.uleb128 0x13
 2321 0034 00       		.byte	0
 2322 0035 00       		.byte	0
 2323 0036 05       		.uleb128 0x5
 2324 0037 13       		.uleb128 0x13
 2325 0038 01       		.byte	0x1
 2326 0039 03       		.uleb128 0x3
 2327 003a 0E       		.uleb128 0xe
 2328 003b 0B       		.uleb128 0xb
 2329 003c 0B       		.uleb128 0xb
 2330 003d 3A       		.uleb128 0x3a
 2331 003e 0B       		.uleb128 0xb
 2332 003f 3B       		.uleb128 0x3b
 2333 0040 0B       		.uleb128 0xb
 2334 0041 01       		.uleb128 0x1
 2335 0042 13       		.uleb128 0x13
 2336 0043 00       		.byte	0
 2337 0044 00       		.byte	0
 2338 0045 06       		.uleb128 0x6
 2339 0046 0D       		.uleb128 0xd
 2340 0047 00       		.byte	0
 2341 0048 03       		.uleb128 0x3
 2342 0049 0E       		.uleb128 0xe
 2343 004a 3A       		.uleb128 0x3a
 2344 004b 0B       		.uleb128 0xb
ARM GAS  /tmp/cc6DU3Wg.s 			page 66


 2345 004c 3B       		.uleb128 0x3b
 2346 004d 0B       		.uleb128 0xb
 2347 004e 49       		.uleb128 0x49
 2348 004f 13       		.uleb128 0x13
 2349 0050 38       		.uleb128 0x38
 2350 0051 0B       		.uleb128 0xb
 2351 0052 00       		.byte	0
 2352 0053 00       		.byte	0
 2353 0054 07       		.uleb128 0x7
 2354 0055 0D       		.uleb128 0xd
 2355 0056 00       		.byte	0
 2356 0057 03       		.uleb128 0x3
 2357 0058 08       		.uleb128 0x8
 2358 0059 3A       		.uleb128 0x3a
 2359 005a 0B       		.uleb128 0xb
 2360 005b 3B       		.uleb128 0x3b
 2361 005c 05       		.uleb128 0x5
 2362 005d 49       		.uleb128 0x49
 2363 005e 13       		.uleb128 0x13
 2364 005f 38       		.uleb128 0x38
 2365 0060 0B       		.uleb128 0xb
 2366 0061 00       		.byte	0
 2367 0062 00       		.byte	0
 2368 0063 08       		.uleb128 0x8
 2369 0064 0D       		.uleb128 0xd
 2370 0065 00       		.byte	0
 2371 0066 03       		.uleb128 0x3
 2372 0067 0E       		.uleb128 0xe
 2373 0068 3A       		.uleb128 0x3a
 2374 0069 0B       		.uleb128 0xb
 2375 006a 3B       		.uleb128 0x3b
 2376 006b 05       		.uleb128 0x5
 2377 006c 49       		.uleb128 0x49
 2378 006d 13       		.uleb128 0x13
 2379 006e 38       		.uleb128 0x38
 2380 006f 0B       		.uleb128 0xb
 2381 0070 00       		.byte	0
 2382 0071 00       		.byte	0
 2383 0072 09       		.uleb128 0x9
 2384 0073 0F       		.uleb128 0xf
 2385 0074 00       		.byte	0
 2386 0075 0B       		.uleb128 0xb
 2387 0076 0B       		.uleb128 0xb
 2388 0077 49       		.uleb128 0x49
 2389 0078 13       		.uleb128 0x13
 2390 0079 00       		.byte	0
 2391 007a 00       		.byte	0
 2392 007b 0A       		.uleb128 0xa
 2393 007c 13       		.uleb128 0x13
 2394 007d 01       		.byte	0x1
 2395 007e 03       		.uleb128 0x3
 2396 007f 0E       		.uleb128 0xe
 2397 0080 0B       		.uleb128 0xb
 2398 0081 0B       		.uleb128 0xb
 2399 0082 3A       		.uleb128 0x3a
 2400 0083 0B       		.uleb128 0xb
 2401 0084 3B       		.uleb128 0x3b
ARM GAS  /tmp/cc6DU3Wg.s 			page 67


 2402 0085 05       		.uleb128 0x5
 2403 0086 01       		.uleb128 0x1
 2404 0087 13       		.uleb128 0x13
 2405 0088 00       		.byte	0
 2406 0089 00       		.byte	0
 2407 008a 0B       		.uleb128 0xb
 2408 008b 15       		.uleb128 0x15
 2409 008c 01       		.byte	0x1
 2410 008d 27       		.uleb128 0x27
 2411 008e 19       		.uleb128 0x19
 2412 008f 01       		.uleb128 0x1
 2413 0090 13       		.uleb128 0x13
 2414 0091 00       		.byte	0
 2415 0092 00       		.byte	0
 2416 0093 0C       		.uleb128 0xc
 2417 0094 05       		.uleb128 0x5
 2418 0095 00       		.byte	0
 2419 0096 49       		.uleb128 0x49
 2420 0097 13       		.uleb128 0x13
 2421 0098 00       		.byte	0
 2422 0099 00       		.byte	0
 2423 009a 0D       		.uleb128 0xd
 2424 009b 0F       		.uleb128 0xf
 2425 009c 00       		.byte	0
 2426 009d 0B       		.uleb128 0xb
 2427 009e 0B       		.uleb128 0xb
 2428 009f 00       		.byte	0
 2429 00a0 00       		.byte	0
 2430 00a1 0E       		.uleb128 0xe
 2431 00a2 13       		.uleb128 0x13
 2432 00a3 01       		.byte	0x1
 2433 00a4 03       		.uleb128 0x3
 2434 00a5 0E       		.uleb128 0xe
 2435 00a6 0B       		.uleb128 0xb
 2436 00a7 05       		.uleb128 0x5
 2437 00a8 3A       		.uleb128 0x3a
 2438 00a9 0B       		.uleb128 0xb
 2439 00aa 3B       		.uleb128 0x3b
 2440 00ab 05       		.uleb128 0x5
 2441 00ac 01       		.uleb128 0x1
 2442 00ad 13       		.uleb128 0x13
 2443 00ae 00       		.byte	0
 2444 00af 00       		.byte	0
 2445 00b0 0F       		.uleb128 0xf
 2446 00b1 0D       		.uleb128 0xd
 2447 00b2 00       		.byte	0
 2448 00b3 03       		.uleb128 0x3
 2449 00b4 0E       		.uleb128 0xe
 2450 00b5 3A       		.uleb128 0x3a
 2451 00b6 0B       		.uleb128 0xb
 2452 00b7 3B       		.uleb128 0x3b
 2453 00b8 05       		.uleb128 0x5
 2454 00b9 49       		.uleb128 0x49
 2455 00ba 13       		.uleb128 0x13
 2456 00bb 38       		.uleb128 0x38
 2457 00bc 05       		.uleb128 0x5
 2458 00bd 00       		.byte	0
ARM GAS  /tmp/cc6DU3Wg.s 			page 68


 2459 00be 00       		.byte	0
 2460 00bf 10       		.uleb128 0x10
 2461 00c0 0D       		.uleb128 0xd
 2462 00c1 00       		.byte	0
 2463 00c2 03       		.uleb128 0x3
 2464 00c3 08       		.uleb128 0x8
 2465 00c4 3A       		.uleb128 0x3a
 2466 00c5 0B       		.uleb128 0xb
 2467 00c6 3B       		.uleb128 0x3b
 2468 00c7 05       		.uleb128 0x5
 2469 00c8 49       		.uleb128 0x49
 2470 00c9 13       		.uleb128 0x13
 2471 00ca 38       		.uleb128 0x38
 2472 00cb 05       		.uleb128 0x5
 2473 00cc 00       		.byte	0
 2474 00cd 00       		.byte	0
 2475 00ce 11       		.uleb128 0x11
 2476 00cf 35       		.uleb128 0x35
 2477 00d0 00       		.byte	0
 2478 00d1 49       		.uleb128 0x49
 2479 00d2 13       		.uleb128 0x13
 2480 00d3 00       		.byte	0
 2481 00d4 00       		.byte	0
 2482 00d5 12       		.uleb128 0x12
 2483 00d6 01       		.uleb128 0x1
 2484 00d7 01       		.byte	0x1
 2485 00d8 49       		.uleb128 0x49
 2486 00d9 13       		.uleb128 0x13
 2487 00da 01       		.uleb128 0x1
 2488 00db 13       		.uleb128 0x13
 2489 00dc 00       		.byte	0
 2490 00dd 00       		.byte	0
 2491 00de 13       		.uleb128 0x13
 2492 00df 21       		.uleb128 0x21
 2493 00e0 00       		.byte	0
 2494 00e1 49       		.uleb128 0x49
 2495 00e2 13       		.uleb128 0x13
 2496 00e3 2F       		.uleb128 0x2f
 2497 00e4 0B       		.uleb128 0xb
 2498 00e5 00       		.byte	0
 2499 00e6 00       		.byte	0
 2500 00e7 14       		.uleb128 0x14
 2501 00e8 13       		.uleb128 0x13
 2502 00e9 01       		.byte	0x1
 2503 00ea 0B       		.uleb128 0xb
 2504 00eb 0B       		.uleb128 0xb
 2505 00ec 3A       		.uleb128 0x3a
 2506 00ed 0B       		.uleb128 0xb
 2507 00ee 3B       		.uleb128 0x3b
 2508 00ef 05       		.uleb128 0x5
 2509 00f0 01       		.uleb128 0x1
 2510 00f1 13       		.uleb128 0x13
 2511 00f2 00       		.byte	0
 2512 00f3 00       		.byte	0
 2513 00f4 15       		.uleb128 0x15
 2514 00f5 16       		.uleb128 0x16
 2515 00f6 00       		.byte	0
ARM GAS  /tmp/cc6DU3Wg.s 			page 69


 2516 00f7 03       		.uleb128 0x3
 2517 00f8 0E       		.uleb128 0xe
 2518 00f9 3A       		.uleb128 0x3a
 2519 00fa 0B       		.uleb128 0xb
 2520 00fb 3B       		.uleb128 0x3b
 2521 00fc 05       		.uleb128 0x5
 2522 00fd 49       		.uleb128 0x49
 2523 00fe 13       		.uleb128 0x13
 2524 00ff 00       		.byte	0
 2525 0100 00       		.byte	0
 2526 0101 16       		.uleb128 0x16
 2527 0102 0D       		.uleb128 0xd
 2528 0103 00       		.byte	0
 2529 0104 03       		.uleb128 0x3
 2530 0105 08       		.uleb128 0x8
 2531 0106 3A       		.uleb128 0x3a
 2532 0107 0B       		.uleb128 0xb
 2533 0108 3B       		.uleb128 0x3b
 2534 0109 0B       		.uleb128 0xb
 2535 010a 49       		.uleb128 0x49
 2536 010b 13       		.uleb128 0x13
 2537 010c 38       		.uleb128 0x38
 2538 010d 0B       		.uleb128 0xb
 2539 010e 00       		.byte	0
 2540 010f 00       		.byte	0
 2541 0110 17       		.uleb128 0x17
 2542 0111 13       		.uleb128 0x13
 2543 0112 01       		.byte	0x1
 2544 0113 0B       		.uleb128 0xb
 2545 0114 0B       		.uleb128 0xb
 2546 0115 3A       		.uleb128 0x3a
 2547 0116 0B       		.uleb128 0xb
 2548 0117 3B       		.uleb128 0x3b
 2549 0118 0B       		.uleb128 0xb
 2550 0119 01       		.uleb128 0x1
 2551 011a 13       		.uleb128 0x13
 2552 011b 00       		.byte	0
 2553 011c 00       		.byte	0
 2554 011d 18       		.uleb128 0x18
 2555 011e 13       		.uleb128 0x13
 2556 011f 01       		.byte	0x1
 2557 0120 0B       		.uleb128 0xb
 2558 0121 05       		.uleb128 0x5
 2559 0122 3A       		.uleb128 0x3a
 2560 0123 0B       		.uleb128 0xb
 2561 0124 3B       		.uleb128 0x3b
 2562 0125 0B       		.uleb128 0xb
 2563 0126 01       		.uleb128 0x1
 2564 0127 13       		.uleb128 0x13
 2565 0128 00       		.byte	0
 2566 0129 00       		.byte	0
 2567 012a 19       		.uleb128 0x19
 2568 012b 17       		.uleb128 0x17
 2569 012c 01       		.byte	0x1
 2570 012d 0B       		.uleb128 0xb
 2571 012e 0B       		.uleb128 0xb
 2572 012f 3A       		.uleb128 0x3a
ARM GAS  /tmp/cc6DU3Wg.s 			page 70


 2573 0130 0B       		.uleb128 0xb
 2574 0131 3B       		.uleb128 0x3b
 2575 0132 0B       		.uleb128 0xb
 2576 0133 01       		.uleb128 0x1
 2577 0134 13       		.uleb128 0x13
 2578 0135 00       		.byte	0
 2579 0136 00       		.byte	0
 2580 0137 1A       		.uleb128 0x1a
 2581 0138 0D       		.uleb128 0xd
 2582 0139 00       		.byte	0
 2583 013a 03       		.uleb128 0x3
 2584 013b 0E       		.uleb128 0xe
 2585 013c 3A       		.uleb128 0x3a
 2586 013d 0B       		.uleb128 0xb
 2587 013e 3B       		.uleb128 0x3b
 2588 013f 05       		.uleb128 0x5
 2589 0140 49       		.uleb128 0x49
 2590 0141 13       		.uleb128 0x13
 2591 0142 00       		.byte	0
 2592 0143 00       		.byte	0
 2593 0144 1B       		.uleb128 0x1b
 2594 0145 26       		.uleb128 0x26
 2595 0146 00       		.byte	0
 2596 0147 49       		.uleb128 0x49
 2597 0148 13       		.uleb128 0x13
 2598 0149 00       		.byte	0
 2599 014a 00       		.byte	0
 2600 014b 1C       		.uleb128 0x1c
 2601 014c 2E       		.uleb128 0x2e
 2602 014d 01       		.byte	0x1
 2603 014e 03       		.uleb128 0x3
 2604 014f 0E       		.uleb128 0xe
 2605 0150 3A       		.uleb128 0x3a
 2606 0151 0B       		.uleb128 0xb
 2607 0152 3B       		.uleb128 0x3b
 2608 0153 05       		.uleb128 0x5
 2609 0154 27       		.uleb128 0x27
 2610 0155 19       		.uleb128 0x19
 2611 0156 20       		.uleb128 0x20
 2612 0157 0B       		.uleb128 0xb
 2613 0158 01       		.uleb128 0x1
 2614 0159 13       		.uleb128 0x13
 2615 015a 00       		.byte	0
 2616 015b 00       		.byte	0
 2617 015c 1D       		.uleb128 0x1d
 2618 015d 05       		.uleb128 0x5
 2619 015e 00       		.byte	0
 2620 015f 03       		.uleb128 0x3
 2621 0160 0E       		.uleb128 0xe
 2622 0161 3A       		.uleb128 0x3a
 2623 0162 0B       		.uleb128 0xb
 2624 0163 3B       		.uleb128 0x3b
 2625 0164 05       		.uleb128 0x5
 2626 0165 49       		.uleb128 0x49
 2627 0166 13       		.uleb128 0x13
 2628 0167 00       		.byte	0
 2629 0168 00       		.byte	0
ARM GAS  /tmp/cc6DU3Wg.s 			page 71


 2630 0169 1E       		.uleb128 0x1e
 2631 016a 2E       		.uleb128 0x2e
 2632 016b 01       		.byte	0x1
 2633 016c 03       		.uleb128 0x3
 2634 016d 0E       		.uleb128 0xe
 2635 016e 3A       		.uleb128 0x3a
 2636 016f 0B       		.uleb128 0xb
 2637 0170 3B       		.uleb128 0x3b
 2638 0171 05       		.uleb128 0x5
 2639 0172 27       		.uleb128 0x27
 2640 0173 19       		.uleb128 0x19
 2641 0174 11       		.uleb128 0x11
 2642 0175 01       		.uleb128 0x1
 2643 0176 12       		.uleb128 0x12
 2644 0177 06       		.uleb128 0x6
 2645 0178 40       		.uleb128 0x40
 2646 0179 18       		.uleb128 0x18
 2647 017a 9742     		.uleb128 0x2117
 2648 017c 19       		.uleb128 0x19
 2649 017d 01       		.uleb128 0x1
 2650 017e 13       		.uleb128 0x13
 2651 017f 00       		.byte	0
 2652 0180 00       		.byte	0
 2653 0181 1F       		.uleb128 0x1f
 2654 0182 1D       		.uleb128 0x1d
 2655 0183 01       		.byte	0x1
 2656 0184 31       		.uleb128 0x31
 2657 0185 13       		.uleb128 0x13
 2658 0186 11       		.uleb128 0x11
 2659 0187 01       		.uleb128 0x1
 2660 0188 12       		.uleb128 0x12
 2661 0189 06       		.uleb128 0x6
 2662 018a 58       		.uleb128 0x58
 2663 018b 0B       		.uleb128 0xb
 2664 018c 59       		.uleb128 0x59
 2665 018d 05       		.uleb128 0x5
 2666 018e 00       		.byte	0
 2667 018f 00       		.byte	0
 2668 0190 20       		.uleb128 0x20
 2669 0191 05       		.uleb128 0x5
 2670 0192 00       		.byte	0
 2671 0193 31       		.uleb128 0x31
 2672 0194 13       		.uleb128 0x13
 2673 0195 02       		.uleb128 0x2
 2674 0196 18       		.uleb128 0x18
 2675 0197 00       		.byte	0
 2676 0198 00       		.byte	0
 2677 0199 21       		.uleb128 0x21
 2678 019a 2E       		.uleb128 0x2e
 2679 019b 00       		.byte	0
 2680 019c 03       		.uleb128 0x3
 2681 019d 0E       		.uleb128 0xe
 2682 019e 3A       		.uleb128 0x3a
 2683 019f 0B       		.uleb128 0xb
 2684 01a0 3B       		.uleb128 0x3b
 2685 01a1 05       		.uleb128 0x5
 2686 01a2 27       		.uleb128 0x27
ARM GAS  /tmp/cc6DU3Wg.s 			page 72


 2687 01a3 19       		.uleb128 0x19
 2688 01a4 11       		.uleb128 0x11
 2689 01a5 01       		.uleb128 0x1
 2690 01a6 12       		.uleb128 0x12
 2691 01a7 06       		.uleb128 0x6
 2692 01a8 40       		.uleb128 0x40
 2693 01a9 18       		.uleb128 0x18
 2694 01aa 9642     		.uleb128 0x2116
 2695 01ac 19       		.uleb128 0x19
 2696 01ad 00       		.byte	0
 2697 01ae 00       		.byte	0
 2698 01af 22       		.uleb128 0x22
 2699 01b0 2E       		.uleb128 0x2e
 2700 01b1 00       		.byte	0
 2701 01b2 3F       		.uleb128 0x3f
 2702 01b3 19       		.uleb128 0x19
 2703 01b4 03       		.uleb128 0x3
 2704 01b5 0E       		.uleb128 0xe
 2705 01b6 3A       		.uleb128 0x3a
 2706 01b7 0B       		.uleb128 0xb
 2707 01b8 3B       		.uleb128 0x3b
 2708 01b9 0B       		.uleb128 0xb
 2709 01ba 27       		.uleb128 0x27
 2710 01bb 19       		.uleb128 0x19
 2711 01bc 11       		.uleb128 0x11
 2712 01bd 01       		.uleb128 0x1
 2713 01be 12       		.uleb128 0x12
 2714 01bf 06       		.uleb128 0x6
 2715 01c0 40       		.uleb128 0x40
 2716 01c1 18       		.uleb128 0x18
 2717 01c2 9642     		.uleb128 0x2116
 2718 01c4 19       		.uleb128 0x19
 2719 01c5 00       		.byte	0
 2720 01c6 00       		.byte	0
 2721 01c7 23       		.uleb128 0x23
 2722 01c8 2E       		.uleb128 0x2e
 2723 01c9 00       		.byte	0
 2724 01ca 3F       		.uleb128 0x3f
 2725 01cb 19       		.uleb128 0x19
 2726 01cc 03       		.uleb128 0x3
 2727 01cd 0E       		.uleb128 0xe
 2728 01ce 3A       		.uleb128 0x3a
 2729 01cf 0B       		.uleb128 0xb
 2730 01d0 3B       		.uleb128 0x3b
 2731 01d1 05       		.uleb128 0x5
 2732 01d2 27       		.uleb128 0x27
 2733 01d3 19       		.uleb128 0x19
 2734 01d4 11       		.uleb128 0x11
 2735 01d5 01       		.uleb128 0x1
 2736 01d6 12       		.uleb128 0x12
 2737 01d7 06       		.uleb128 0x6
 2738 01d8 40       		.uleb128 0x40
 2739 01d9 18       		.uleb128 0x18
 2740 01da 9642     		.uleb128 0x2116
 2741 01dc 19       		.uleb128 0x19
 2742 01dd 00       		.byte	0
 2743 01de 00       		.byte	0
ARM GAS  /tmp/cc6DU3Wg.s 			page 73


 2744 01df 24       		.uleb128 0x24
 2745 01e0 34       		.uleb128 0x34
 2746 01e1 00       		.byte	0
 2747 01e2 03       		.uleb128 0x3
 2748 01e3 0E       		.uleb128 0xe
 2749 01e4 3A       		.uleb128 0x3a
 2750 01e5 0B       		.uleb128 0xb
 2751 01e6 3B       		.uleb128 0x3b
 2752 01e7 05       		.uleb128 0x5
 2753 01e8 49       		.uleb128 0x49
 2754 01e9 13       		.uleb128 0x13
 2755 01ea 3F       		.uleb128 0x3f
 2756 01eb 19       		.uleb128 0x19
 2757 01ec 3C       		.uleb128 0x3c
 2758 01ed 19       		.uleb128 0x19
 2759 01ee 00       		.byte	0
 2760 01ef 00       		.byte	0
 2761 01f0 25       		.uleb128 0x25
 2762 01f1 34       		.uleb128 0x34
 2763 01f2 00       		.byte	0
 2764 01f3 03       		.uleb128 0x3
 2765 01f4 08       		.uleb128 0x8
 2766 01f5 3A       		.uleb128 0x3a
 2767 01f6 0B       		.uleb128 0xb
 2768 01f7 3B       		.uleb128 0x3b
 2769 01f8 05       		.uleb128 0x5
 2770 01f9 49       		.uleb128 0x49
 2771 01fa 13       		.uleb128 0x13
 2772 01fb 3F       		.uleb128 0x3f
 2773 01fc 19       		.uleb128 0x19
 2774 01fd 3C       		.uleb128 0x3c
 2775 01fe 19       		.uleb128 0x19
 2776 01ff 00       		.byte	0
 2777 0200 00       		.byte	0
 2778 0201 00       		.byte	0
 2779              		.section	.debug_aranges,"",%progbits
 2780 0000 6C000000 		.4byte	0x6c
 2781 0004 0200     		.2byte	0x2
 2782 0006 00000000 		.4byte	.Ldebug_info0
 2783 000a 04       		.byte	0x4
 2784 000b 00       		.byte	0
 2785 000c 0000     		.2byte	0
 2786 000e 0000     		.2byte	0
 2787 0010 00000000 		.4byte	.LFB127
 2788 0014 10000000 		.4byte	.LFE127-.LFB127
 2789 0018 00000000 		.4byte	.LFB128
 2790 001c 10000000 		.4byte	.LFE128-.LFB128
 2791 0020 00000000 		.4byte	.LFB129
 2792 0024 08000000 		.4byte	.LFE129-.LFB129
 2793 0028 00000000 		.4byte	.LFB130
 2794 002c 08000000 		.4byte	.LFE130-.LFB130
 2795 0030 00000000 		.4byte	.LFB169
 2796 0034 10000000 		.4byte	.LFE169-.LFB169
 2797 0038 00000000 		.4byte	.LFB170
 2798 003c 10000000 		.4byte	.LFE170-.LFB170
 2799 0040 00000000 		.4byte	.LFB247
 2800 0044 08000000 		.4byte	.LFE247-.LFB247
ARM GAS  /tmp/cc6DU3Wg.s 			page 74


 2801 0048 00000000 		.4byte	.LFB248
 2802 004c 08000000 		.4byte	.LFE248-.LFB248
 2803 0050 00000000 		.4byte	.LFB252
 2804 0054 08000000 		.4byte	.LFE252-.LFB252
 2805 0058 00000000 		.4byte	.LFB272
 2806 005c 36000000 		.4byte	.LFE272-.LFB272
 2807 0060 00000000 		.4byte	.LFB273
 2808 0064 80000000 		.4byte	.LFE273-.LFB273
 2809 0068 00000000 		.4byte	0
 2810 006c 00000000 		.4byte	0
 2811              		.section	.debug_ranges,"",%progbits
 2812              	.Ldebug_ranges0:
 2813 0000 00000000 		.4byte	.LFB127
 2814 0004 10000000 		.4byte	.LFE127
 2815 0008 00000000 		.4byte	.LFB128
 2816 000c 10000000 		.4byte	.LFE128
 2817 0010 00000000 		.4byte	.LFB129
 2818 0014 08000000 		.4byte	.LFE129
 2819 0018 00000000 		.4byte	.LFB130
 2820 001c 08000000 		.4byte	.LFE130
 2821 0020 00000000 		.4byte	.LFB169
 2822 0024 10000000 		.4byte	.LFE169
 2823 0028 00000000 		.4byte	.LFB170
 2824 002c 10000000 		.4byte	.LFE170
 2825 0030 00000000 		.4byte	.LFB247
 2826 0034 08000000 		.4byte	.LFE247
 2827 0038 00000000 		.4byte	.LFB248
 2828 003c 08000000 		.4byte	.LFE248
 2829 0040 00000000 		.4byte	.LFB252
 2830 0044 08000000 		.4byte	.LFE252
 2831 0048 00000000 		.4byte	.LFB272
 2832 004c 36000000 		.4byte	.LFE272
 2833 0050 00000000 		.4byte	.LFB273
 2834 0054 80000000 		.4byte	.LFE273
 2835 0058 00000000 		.4byte	0
 2836 005c 00000000 		.4byte	0
 2837              		.section	.debug_line,"",%progbits
 2838              	.Ldebug_line0:
 2839 0000 6E030000 		.section	.debug_str,"MS",%progbits,1
 2839      02006B02 
 2839      00000201 
 2839      FB0E0D00 
 2839      01010101 
 2840              	.LASF139:
 2841 0000 74625F70 		.ascii	"tb_ptr\000"
 2841      747200
 2842              	.LASF54:
 2843 0007 72656164 		.ascii	"ready_list_t\000"
 2843      795F6C69 
 2843      73745F74 
 2843      00
 2844              	.LASF124:
 2845 0014 44494552 		.ascii	"DIER\000"
 2845      00
 2846              	.LASF157:
 2847 0019 77747472 		.ascii	"wttrp\000"
 2847      7000
ARM GAS  /tmp/cc6DU3Wg.s 			page 75


 2848              	.LASF154:
 2849 001f 7264796D 		.ascii	"rdymsg\000"
 2849      736700
 2850              	.LASF16:
 2851 0026 75696E74 		.ascii	"uint64_t\000"
 2851      36345F74 
 2851      00
 2852              	.LASF84:
 2853 002f 6B65726E 		.ascii	"kernel_stats\000"
 2853      656C5F73 
 2853      74617473 
 2853      00
 2854              	.LASF5:
 2855 003c 5F5F7569 		.ascii	"__uint8_t\000"
 2855      6E74385F 
 2855      7400
 2856              	.LASF122:
 2857 0046 706F7274 		.ascii	"port_intctx\000"
 2857      5F696E74 
 2857      63747800 
 2858              	.LASF53:
 2859 0052 63685F74 		.ascii	"ch_threads_queue\000"
 2859      68726561 
 2859      64735F71 
 2859      75657565 
 2859      00
 2860              	.LASF73:
 2861 0063 73797374 		.ascii	"system_debug_t\000"
 2861      656D5F64 
 2861      65627567 
 2861      5F7400
 2862              	.LASF171:
 2863 0072 706F7274 		.ascii	"port_lock\000"
 2863      5F6C6F63 
 2863      6B00
 2864              	.LASF145:
 2865 007c 776F7273 		.ascii	"worst\000"
 2865      7400
 2866              	.LASF148:
 2867 0082 74696D65 		.ascii	"time_measurement_t\000"
 2867      5F6D6561 
 2867      73757265 
 2867      6D656E74 
 2867      5F7400
 2868              	.LASF137:
 2869 0095 63685F73 		.ascii	"ch_swc_event_t\000"
 2869      77635F65 
 2869      76656E74 
 2869      5F7400
 2870              	.LASF12:
 2871 00a4 6C6F6E67 		.ascii	"long long unsigned int\000"
 2871      206C6F6E 
 2871      6720756E 
 2871      7369676E 
 2871      65642069 
 2872              	.LASF141:
 2873 00bb 63685F74 		.ascii	"ch_trace_buffer_t\000"
ARM GAS  /tmp/cc6DU3Wg.s 			page 76


 2873      72616365 
 2873      5F627566 
 2873      6665725F 
 2873      7400
 2874              	.LASF136:
 2875 00cd 73655F73 		.ascii	"se_state\000"
 2875      74617465 
 2875      00
 2876              	.LASF87:
 2877 00d6 4944434F 		.ascii	"IDCODE\000"
 2877      444500
 2878              	.LASF155:
 2879 00dd 65786974 		.ascii	"exitcode\000"
 2879      636F6465 
 2879      00
 2880              	.LASF83:
 2881 00e6 6D61696E 		.ascii	"mainthread\000"
 2881      74687265 
 2881      616400
 2882              	.LASF70:
 2883 00f1 76697274 		.ascii	"virtual_timers_list_t\000"
 2883      75616C5F 
 2883      74696D65 
 2883      72735F6C 
 2883      6973745F 
 2884              	.LASF178:
 2885 0107 6F73616C 		.ascii	"osalSysUnlockFromISR\000"
 2885      53797355 
 2885      6E6C6F63 
 2885      6B46726F 
 2885      6D495352 
 2886              	.LASF181:
 2887 011c 73745F6C 		.ascii	"st_lld_init\000"
 2887      6C645F69 
 2887      6E697400 
 2888              	.LASF128:
 2889 0128 42445452 		.ascii	"BDTR\000"
 2889      00
 2890              	.LASF18:
 2891 012d 72747469 		.ascii	"rttime_t\000"
 2891      6D655F74 
 2891      00
 2892              	.LASF107:
 2893 0136 41484231 		.ascii	"AHB1LPENR\000"
 2893      4C50454E 
 2893      5200
 2894              	.LASF31:
 2895 0140 705F7072 		.ascii	"p_prio\000"
 2895      696F00
 2896              	.LASF125:
 2897 0147 43434D52 		.ascii	"CCMR1\000"
 2897      3100
 2898              	.LASF126:
 2899 014d 43434D52 		.ascii	"CCMR2\000"
 2899      3200
 2900              	.LASF130:
 2901 0153 43434D52 		.ascii	"CCMR3\000"
ARM GAS  /tmp/cc6DU3Wg.s 			page 77


 2901      3300
 2902              	.LASF1:
 2903 0159 7369676E 		.ascii	"signed char\000"
 2903      65642063 
 2903      68617200 
 2904              	.LASF185:
 2905 0165 2F686F6D 		.ascii	"/home/jerker/git/AutoTux/stm32\000"
 2905      652F6A65 
 2905      726B6572 
 2905      2F676974 
 2905      2F417574 
 2906              	.LASF93:
 2907 0184 41484231 		.ascii	"AHB1RSTR\000"
 2907      52535452 
 2907      00
 2908              	.LASF133:
 2909 018d 73655F74 		.ascii	"se_time\000"
 2909      696D6500 
 2910              	.LASF165:
 2911 0195 6D5F7175 		.ascii	"m_queue\000"
 2911      65756500 
 2912              	.LASF180:
 2913 019d 56656374 		.ascii	"VectorB0\000"
 2913      6F724230 
 2913      00
 2914              	.LASF172:
 2915 01a6 706F7274 		.ascii	"port_unlock\000"
 2915      5F756E6C 
 2915      6F636B00 
 2916              	.LASF146:
 2917 01b2 6C617374 		.ascii	"last\000"
 2917      00
 2918              	.LASF80:
 2919 01b7 63685F73 		.ascii	"ch_system\000"
 2919      79737465 
 2919      6D00
 2920              	.LASF7:
 2921 01c1 6C6F6E67 		.ascii	"long int\000"
 2921      20696E74 
 2921      00
 2922              	.LASF98:
 2923 01ca 41504232 		.ascii	"APB2RSTR\000"
 2923      52535452 
 2923      00
 2924              	.LASF111:
 2925 01d3 41504231 		.ascii	"APB1LPENR\000"
 2925      4C50454E 
 2925      5200
 2926              	.LASF20:
 2927 01dd 74737461 		.ascii	"tstate_t\000"
 2927      74655F74 
 2927      00
 2928              	.LASF127:
 2929 01e6 43434552 		.ascii	"CCER\000"
 2929      00
 2930              	.LASF134:
 2931 01eb 73655F74 		.ascii	"se_tp\000"
ARM GAS  /tmp/cc6DU3Wg.s 			page 78


 2931      7000
 2932              	.LASF10:
 2933 01f1 6C6F6E67 		.ascii	"long long int\000"
 2933      206C6F6E 
 2933      6720696E 
 2933      7400
 2934              	.LASF33:
 2935 01ff 705F6E65 		.ascii	"p_newer\000"
 2935      77657200 
 2936              	.LASF140:
 2937 0207 74625F62 		.ascii	"tb_buffer\000"
 2937      75666665 
 2937      7200
 2938              	.LASF91:
 2939 0211 504C4C43 		.ascii	"PLLCFGR\000"
 2939      46475200 
 2940              	.LASF4:
 2941 0219 73686F72 		.ascii	"short unsigned int\000"
 2941      7420756E 
 2941      7369676E 
 2941      65642069 
 2941      6E7400
 2942              	.LASF138:
 2943 022c 74625F73 		.ascii	"tb_size\000"
 2943      697A6500 
 2944              	.LASF59:
 2945 0234 725F6E65 		.ascii	"r_newer\000"
 2945      77657200 
 2946              	.LASF46:
 2947 023c 705F6D70 		.ascii	"p_mpool\000"
 2947      6F6F6C00 
 2948              	.LASF119:
 2949 0244 72656761 		.ascii	"regarm_t\000"
 2949      726D5F74 
 2949      00
 2950              	.LASF66:
 2951 024d 76745F70 		.ascii	"vt_prev\000"
 2951      72657600 
 2952              	.LASF82:
 2953 0255 76746C69 		.ascii	"vtlist\000"
 2953      737400
 2954              	.LASF177:
 2955 025c 6F73616C 		.ascii	"osalSysLockFromISR\000"
 2955      5379734C 
 2955      6F636B46 
 2955      726F6D49 
 2955      535200
 2956              	.LASF74:
 2957 026f 63685F73 		.ascii	"ch_system_debug\000"
 2957      79737465 
 2957      6D5F6465 
 2957      62756700 
 2958              	.LASF169:
 2959 027f 6D757465 		.ascii	"mutex_t\000"
 2959      785F7400 
 2960              	.LASF187:
 2961 0287 76616C75 		.ascii	"value\000"
ARM GAS  /tmp/cc6DU3Wg.s 			page 79


 2961      6500
 2962              	.LASF77:
 2963 028d 6C6F636B 		.ascii	"lock_cnt\000"
 2963      5F636E74 
 2963      00
 2964              	.LASF85:
 2965 0296 69646C65 		.ascii	"idle_thread_wa\000"
 2965      5F746872 
 2965      6561645F 
 2965      776100
 2966              	.LASF25:
 2967 02a5 636E745F 		.ascii	"cnt_t\000"
 2967      7400
 2968              	.LASF36:
 2969 02ab 705F7374 		.ascii	"p_stklimit\000"
 2969      6B6C696D 
 2969      697400
 2970              	.LASF0:
 2971 02b6 756E7369 		.ascii	"unsigned int\000"
 2971      676E6564 
 2971      20696E74 
 2971      00
 2972              	.LASF65:
 2973 02c3 76745F6E 		.ascii	"vt_next\000"
 2973      65787400 
 2974              	.LASF158:
 2975 02cb 77747365 		.ascii	"wtsemp\000"
 2975      6D7000
 2976              	.LASF184:
 2977 02d2 6C69622F 		.ascii	"lib/ChibiOS_16.1.4//os/hal/ports/STM32/LLD/TIMv1/st"
 2977      43686962 
 2977      694F535F 
 2977      31362E31 
 2977      2E342F2F 
 2978 0305 5F6C6C64 		.ascii	"_lld.c\000"
 2978      2E6300
 2979              	.LASF41:
 2980 030c 705F6D73 		.ascii	"p_msgqueue\000"
 2980      67717565 
 2980      756500
 2981              	.LASF118:
 2982 0317 5243435F 		.ascii	"RCC_TypeDef\000"
 2982      54797065 
 2982      44656600 
 2983              	.LASF149:
 2984 0323 6E5F6972 		.ascii	"n_irq\000"
 2984      7100
 2985              	.LASF163:
 2986 0329 735F636E 		.ascii	"s_cnt\000"
 2986      7400
 2987              	.LASF123:
 2988 032f 534D4352 		.ascii	"SMCR\000"
 2988      00
 2989              	.LASF153:
 2990 0334 6B65726E 		.ascii	"kernel_stats_t\000"
 2990      656C5F73 
 2990      74617473 
ARM GAS  /tmp/cc6DU3Wg.s 			page 80


 2990      5F7400
 2991              	.LASF50:
 2992 0343 63685F74 		.ascii	"ch_thread\000"
 2992      68726561 
 2992      6400
 2993              	.LASF117:
 2994 034d 504C4C49 		.ascii	"PLLI2SCFGR\000"
 2994      32534346 
 2994      475200
 2995              	.LASF23:
 2996 0358 6D73675F 		.ascii	"msg_t\000"
 2996      7400
 2997              	.LASF95:
 2998 035e 41484233 		.ascii	"AHB3RSTR\000"
 2998      52535452 
 2998      00
 2999              	.LASF26:
 3000 0367 75636E74 		.ascii	"ucnt_t\000"
 3000      5F7400
 3001              	.LASF89:
 3002 036e 41504232 		.ascii	"APB2FZ\000"
 3002      465A00
 3003              	.LASF79:
 3004 0375 63685F73 		.ascii	"ch_system_t\000"
 3004      79737465 
 3004      6D5F7400 
 3005              	.LASF183:
 3006 0381 474E5520 		.ascii	"GNU C 4.8.2 -mcpu=cortex-m4 -mno-thumb-interwork -m"
 3006      4320342E 
 3006      382E3220 
 3006      2D6D6370 
 3006      753D636F 
 3007 03b4 7468756D 		.ascii	"thumb -ggdb -O0 -fomit-frame-pointer -falign-functi"
 3007      62202D67 
 3007      67646220 
 3007      2D4F3020 
 3007      2D666F6D 
 3008 03e7 6F6E733D 		.ascii	"ons=16 -ffunction-sections -fdata-sections -fno-com"
 3008      3136202D 
 3008      6666756E 
 3008      6374696F 
 3008      6E2D7365 
 3009 041a 6D6F6E20 		.ascii	"mon -flto\000"
 3009      2D666C74 
 3009      6F00
 3010              	.LASF156:
 3011 0424 77746F62 		.ascii	"wtobjp\000"
 3011      6A7000
 3012              	.LASF112:
 3013 042b 41504232 		.ascii	"APB2LPENR\000"
 3013      4C50454E 
 3013      5200
 3014              	.LASF152:
 3015 0435 6D5F6372 		.ascii	"m_crit_isr\000"
 3015      69745F69 
 3015      737200
 3016              	.LASF55:
ARM GAS  /tmp/cc6DU3Wg.s 			page 81


 3017 0440 63685F72 		.ascii	"ch_ready_list\000"
 3017      65616479 
 3017      5F6C6973 
 3017      7400
 3018              	.LASF24:
 3019 044e 6576656E 		.ascii	"eventmask_t\000"
 3019      746D6173 
 3019      6B5F7400 
 3020              	.LASF6:
 3021 045a 5F5F696E 		.ascii	"__int32_t\000"
 3021      7433325F 
 3021      7400
 3022              	.LASF120:
 3023 0464 73746B61 		.ascii	"stkalign_t\000"
 3023      6C69676E 
 3023      5F7400
 3024              	.LASF179:
 3025 046f 6F73616C 		.ascii	"osalOsTimerHandlerI\000"
 3025      4F735469 
 3025      6D657248 
 3025      616E646C 
 3025      65724900 
 3026              	.LASF49:
 3027 0483 74687265 		.ascii	"threads_list_t\000"
 3027      6164735F 
 3027      6C697374 
 3027      5F7400
 3028              	.LASF63:
 3029 0492 76697274 		.ascii	"virtual_timer_t\000"
 3029      75616C5F 
 3029      74696D65 
 3029      725F7400 
 3030              	.LASF162:
 3031 04a2 735F7175 		.ascii	"s_queue\000"
 3031      65756500 
 3032              	.LASF40:
 3033 04aa 705F7761 		.ascii	"p_waiting\000"
 3033      6974696E 
 3033      6700
 3034              	.LASF86:
 3035 04b4 73697A65 		.ascii	"sizetype\000"
 3035      74797065 
 3035      00
 3036              	.LASF48:
 3037 04bd 74687265 		.ascii	"thread_reference_t\000"
 3037      61645F72 
 3037      65666572 
 3037      656E6365 
 3037      5F7400
 3038              	.LASF71:
 3039 04d0 63685F76 		.ascii	"ch_virtual_timers_list\000"
 3039      69727475 
 3039      616C5F74 
 3039      696D6572 
 3039      735F6C69 
 3040              	.LASF43:
 3041 04e7 705F6570 		.ascii	"p_epending\000"
ARM GAS  /tmp/cc6DU3Wg.s 			page 82


 3041      656E6469 
 3041      6E6700
 3042              	.LASF102:
 3043 04f2 41484233 		.ascii	"AHB3ENR\000"
 3043      454E5200 
 3044              	.LASF72:
 3045 04fa 76745F6C 		.ascii	"vt_lasttime\000"
 3045      61737474 
 3045      696D6500 
 3046              	.LASF34:
 3047 0506 705F6F6C 		.ascii	"p_older\000"
 3047      64657200 
 3048              	.LASF58:
 3049 050e 725F6374 		.ascii	"r_ctx\000"
 3049      7800
 3050              	.LASF108:
 3051 0514 41484232 		.ascii	"AHB2LPENR\000"
 3051      4C50454E 
 3051      5200
 3052              	.LASF143:
 3053 051e 746D5F63 		.ascii	"tm_calibration_t\000"
 3053      616C6962 
 3053      72617469 
 3053      6F6E5F74 
 3053      00
 3054              	.LASF61:
 3055 052f 725F6375 		.ascii	"r_current\000"
 3055      7272656E 
 3055      7400
 3056              	.LASF97:
 3057 0539 41504231 		.ascii	"APB1RSTR\000"
 3057      52535452 
 3057      00
 3058              	.LASF11:
 3059 0542 5F5F7569 		.ascii	"__uint64_t\000"
 3059      6E743634 
 3059      5F7400
 3060              	.LASF147:
 3061 054d 63756D75 		.ascii	"cumulative\000"
 3061      6C617469 
 3061      766500
 3062              	.LASF88:
 3063 0558 41504231 		.ascii	"APB1FZ\000"
 3063      465A00
 3064              	.LASF21:
 3065 055f 74726566 		.ascii	"trefs_t\000"
 3065      735F7400 
 3066              	.LASF96:
 3067 0567 52455345 		.ascii	"RESERVED0\000"
 3067      52564544 
 3067      3000
 3068              	.LASF99:
 3069 0571 52455345 		.ascii	"RESERVED1\000"
 3069      52564544 
 3069      3100
 3070              	.LASF103:
 3071 057b 52455345 		.ascii	"RESERVED2\000"
ARM GAS  /tmp/cc6DU3Wg.s 			page 83


 3071      52564544 
 3071      3200
 3072              	.LASF106:
 3073 0585 52455345 		.ascii	"RESERVED3\000"
 3073      52564544 
 3073      3300
 3074              	.LASF110:
 3075 058f 52455345 		.ascii	"RESERVED4\000"
 3075      52564544 
 3075      3400
 3076              	.LASF30:
 3077 0599 705F7072 		.ascii	"p_prev\000"
 3077      657600
 3078              	.LASF115:
 3079 05a0 52455345 		.ascii	"RESERVED6\000"
 3079      52564544 
 3079      3600
 3080              	.LASF22:
 3081 05aa 74707269 		.ascii	"tprio_t\000"
 3081      6F5F7400 
 3082              	.LASF176:
 3083 05b2 63685379 		.ascii	"chSysUnlockFromISR\000"
 3083      73556E6C 
 3083      6F636B46 
 3083      726F6D49 
 3083      535200
 3084              	.LASF150:
 3085 05c5 6E5F6374 		.ascii	"n_ctxswc\000"
 3085      78737763 
 3085      00
 3086              	.LASF170:
 3087 05ce 5F426F6F 		.ascii	"_Bool\000"
 3087      6C00
 3088              	.LASF14:
 3089 05d4 696E7433 		.ascii	"int32_t\000"
 3089      325F7400 
 3090              	.LASF2:
 3091 05dc 756E7369 		.ascii	"unsigned char\000"
 3091      676E6564 
 3091      20636861 
 3091      7200
 3092              	.LASF182:
 3093 05ea 49544D5F 		.ascii	"ITM_RxBuffer\000"
 3093      52784275 
 3093      66666572 
 3093      00
 3094              	.LASF44:
 3095 05f7 705F6D74 		.ascii	"p_mtxlist\000"
 3095      786C6973 
 3095      7400
 3096              	.LASF3:
 3097 0601 73686F72 		.ascii	"short int\000"
 3097      7420696E 
 3097      7400
 3098              	.LASF37:
 3099 060b 705F7374 		.ascii	"p_state\000"
 3099      61746500 
ARM GAS  /tmp/cc6DU3Wg.s 			page 84


 3100              	.LASF109:
 3101 0613 41484233 		.ascii	"AHB3LPENR\000"
 3101      4C50454E 
 3101      5200
 3102              	.LASF57:
 3103 061d 725F7072 		.ascii	"r_prio\000"
 3103      696F00
 3104              	.LASF160:
 3105 0624 65776D61 		.ascii	"ewmask\000"
 3105      736B00
 3106              	.LASF29:
 3107 062b 705F6E65 		.ascii	"p_next\000"
 3107      787400
 3108              	.LASF38:
 3109 0632 705F666C 		.ascii	"p_flags\000"
 3109      61677300 
 3110              	.LASF47:
 3111 063a 705F7374 		.ascii	"p_stats\000"
 3111      61747300 
 3112              	.LASF105:
 3113 0642 41504232 		.ascii	"APB2ENR\000"
 3113      454E5200 
 3114              	.LASF64:
 3115 064a 63685F76 		.ascii	"ch_virtual_timer\000"
 3115      69727475 
 3115      616C5F74 
 3115      696D6572 
 3115      00
 3116              	.LASF161:
 3117 065b 63685F73 		.ascii	"ch_semaphore\000"
 3117      656D6170 
 3117      686F7265 
 3117      00
 3118              	.LASF131:
 3119 0668 43435852 		.ascii	"CCXR\000"
 3119      00
 3120              	.LASF90:
 3121 066d 4442474D 		.ascii	"DBGMCU_TypeDef\000"
 3121      43555F54 
 3121      79706544 
 3121      656600
 3122              	.LASF113:
 3123 067c 52455345 		.ascii	"RESERVED5\000"
 3123      52564544 
 3123      3500
 3124              	.LASF15:
 3125 0686 75696E74 		.ascii	"uint32_t\000"
 3125      33325F74 
 3125      00
 3126              	.LASF159:
 3127 068f 77746D74 		.ascii	"wtmtxp\000"
 3127      787000
 3128              	.LASF56:
 3129 0696 725F7175 		.ascii	"r_queue\000"
 3129      65756500 
 3130              	.LASF67:
 3131 069e 76745F64 		.ascii	"vt_delta\000"
ARM GAS  /tmp/cc6DU3Wg.s 			page 85


 3131      656C7461 
 3131      00
 3132              	.LASF51:
 3133 06a7 63685F74 		.ascii	"ch_threads_list\000"
 3133      68726561 
 3133      64735F6C 
 3133      69737400 
 3134              	.LASF9:
 3135 06b7 6C6F6E67 		.ascii	"long unsigned int\000"
 3135      20756E73 
 3135      69676E65 
 3135      6420696E 
 3135      7400
 3136              	.LASF168:
 3137 06c9 63686172 		.ascii	"char\000"
 3137      00
 3138              	.LASF129:
 3139 06ce 444D4152 		.ascii	"DMAR\000"
 3139      00
 3140              	.LASF94:
 3141 06d3 41484232 		.ascii	"AHB2RSTR\000"
 3141      52535452 
 3141      00
 3142              	.LASF174:
 3143 06dc 706F7274 		.ascii	"port_unlock_from_isr\000"
 3143      5F756E6C 
 3143      6F636B5F 
 3143      66726F6D 
 3143      5F697372 
 3144              	.LASF28:
 3145 06f1 74687265 		.ascii	"thread_t\000"
 3145      61645F74 
 3145      00
 3146              	.LASF144:
 3147 06fa 62657374 		.ascii	"best\000"
 3147      00
 3148              	.LASF167:
 3149 06ff 6D5F6E65 		.ascii	"m_next\000"
 3149      787400
 3150              	.LASF27:
 3151 0706 73797374 		.ascii	"systime_t\000"
 3151      696D655F 
 3151      7400
 3152              	.LASF45:
 3153 0710 705F7265 		.ascii	"p_realprio\000"
 3153      616C7072 
 3153      696F00
 3154              	.LASF62:
 3155 071b 76746675 		.ascii	"vtfunc_t\000"
 3155      6E635F74 
 3155      00
 3156              	.LASF8:
 3157 0724 5F5F7569 		.ascii	"__uint32_t\000"
 3157      6E743332 
 3157      5F7400
 3158              	.LASF186:
 3159 072f 5F5F7365 		.ascii	"__set_BASEPRI\000"
ARM GAS  /tmp/cc6DU3Wg.s 			page 86


 3159      745F4241 
 3159      53455052 
 3159      4900
 3160              	.LASF75:
 3161 073d 70616E69 		.ascii	"panic_msg\000"
 3161      635F6D73 
 3161      6700
 3162              	.LASF142:
 3163 0747 6F666673 		.ascii	"offset\000"
 3163      657400
 3164              	.LASF104:
 3165 074e 41504231 		.ascii	"APB1ENR\000"
 3165      454E5200 
 3166              	.LASF164:
 3167 0756 63685F6D 		.ascii	"ch_mutex\000"
 3167      75746578 
 3167      00
 3168              	.LASF101:
 3169 075f 41484232 		.ascii	"AHB2ENR\000"
 3169      454E5200 
 3170              	.LASF121:
 3171 0767 636F6E74 		.ascii	"context\000"
 3171      65787400 
 3172              	.LASF60:
 3173 076f 725F6F6C 		.ascii	"r_older\000"
 3173      64657200 
 3174              	.LASF17:
 3175 0777 7274636E 		.ascii	"rtcnt_t\000"
 3175      745F7400 
 3176              	.LASF173:
 3177 077f 706F7274 		.ascii	"port_lock_from_isr\000"
 3177      5F6C6F63 
 3177      6B5F6672 
 3177      6F6D5F69 
 3177      737200
 3178              	.LASF69:
 3179 0792 76745F70 		.ascii	"vt_par\000"
 3179      617200
 3180              	.LASF116:
 3181 0799 53534347 		.ascii	"SSCGR\000"
 3181      5200
 3182              	.LASF52:
 3183 079f 74687265 		.ascii	"threads_queue_t\000"
 3183      6164735F 
 3183      71756575 
 3183      655F7400 
 3184              	.LASF132:
 3185 07af 73746D33 		.ascii	"stm32_tim_t\000"
 3185      325F7469 
 3185      6D5F7400 
 3186              	.LASF39:
 3187 07bb 705F7265 		.ascii	"p_refs\000"
 3187      667300
 3188              	.LASF76:
 3189 07c2 6973725F 		.ascii	"isr_cnt\000"
 3189      636E7400 
 3190              	.LASF114:
ARM GAS  /tmp/cc6DU3Wg.s 			page 87


 3191 07ca 42444352 		.ascii	"BDCR\000"
 3191      00
 3192              	.LASF81:
 3193 07cf 726C6973 		.ascii	"rlist\000"
 3193      7400
 3194              	.LASF13:
 3195 07d5 75696E74 		.ascii	"uint8_t\000"
 3195      385F7400 
 3196              	.LASF175:
 3197 07dd 63685379 		.ascii	"chSysLockFromISR\000"
 3197      734C6F63 
 3197      6B46726F 
 3197      6D495352 
 3197      00
 3198              	.LASF35:
 3199 07ee 705F6E61 		.ascii	"p_name\000"
 3199      6D6500
 3200              	.LASF100:
 3201 07f5 41484231 		.ascii	"AHB1ENR\000"
 3201      454E5200 
 3202              	.LASF92:
 3203 07fd 43464752 		.ascii	"CFGR\000"
 3203      00
 3204              	.LASF19:
 3205 0802 746D6F64 		.ascii	"tmode_t\000"
 3205      655F7400 
 3206              	.LASF78:
 3207 080a 74726163 		.ascii	"trace_buffer\000"
 3207      655F6275 
 3207      66666572 
 3207      00
 3208              	.LASF42:
 3209 0817 705F6D73 		.ascii	"p_msg\000"
 3209      6700
 3210              	.LASF151:
 3211 081d 6D5F6372 		.ascii	"m_crit_thd\000"
 3211      69745F74 
 3211      686400
 3212              	.LASF166:
 3213 0828 6D5F6F77 		.ascii	"m_owner\000"
 3213      6E657200 
 3214              	.LASF135:
 3215 0830 73655F77 		.ascii	"se_wtobjp\000"
 3215      746F626A 
 3215      7000
 3216              	.LASF32:
 3217 083a 705F6374 		.ascii	"p_ctx\000"
 3217      7800
 3218              	.LASF68:
 3219 0840 76745F66 		.ascii	"vt_func\000"
 3219      756E6300 
 3220              		.comm	__gnu_lto_v1,1,1
 3221              		.ident	"GCC: (4.8.2-14ubuntu1+6) 4.8.2"
ARM GAS  /tmp/cc6DU3Wg.s 			page 88


DEFINED SYMBOLS
                            *ABS*:0000000000000000 st_lld.c
     /tmp/cc6DU3Wg.s:423    .text.port_lock:0000000000000000 $t
     /tmp/cc6DU3Wg.s:428    .text.port_lock:0000000000000000 port_lock
     /tmp/cc6DU3Wg.s:459    .text.port_unlock:0000000000000000 $t
     /tmp/cc6DU3Wg.s:464    .text.port_unlock:0000000000000000 port_unlock
     /tmp/cc6DU3Wg.s:493    .text.port_lock_from_isr:0000000000000000 $t
     /tmp/cc6DU3Wg.s:498    .text.port_lock_from_isr:0000000000000000 port_lock_from_isr
     /tmp/cc6DU3Wg.s:516    .text.port_unlock_from_isr:0000000000000000 $t
     /tmp/cc6DU3Wg.s:521    .text.port_unlock_from_isr:0000000000000000 port_unlock_from_isr
     /tmp/cc6DU3Wg.s:539    .text.chSysLockFromISR:0000000000000000 $t
     /tmp/cc6DU3Wg.s:544    .text.chSysLockFromISR:0000000000000000 chSysLockFromISR
     /tmp/cc6DU3Wg.s:567    .text.chSysUnlockFromISR:0000000000000000 $t
     /tmp/cc6DU3Wg.s:572    .text.chSysUnlockFromISR:0000000000000000 chSysUnlockFromISR
     /tmp/cc6DU3Wg.s:594    .text.osalSysLockFromISR:0000000000000000 $t
     /tmp/cc6DU3Wg.s:599    .text.osalSysLockFromISR:0000000000000000 osalSysLockFromISR
     /tmp/cc6DU3Wg.s:618    .text.osalSysUnlockFromISR:0000000000000000 $t
     /tmp/cc6DU3Wg.s:623    .text.osalSysUnlockFromISR:0000000000000000 osalSysUnlockFromISR
     /tmp/cc6DU3Wg.s:641    .text.osalOsTimerHandlerI:0000000000000000 $t
     /tmp/cc6DU3Wg.s:646    .text.osalOsTimerHandlerI:0000000000000000 osalOsTimerHandlerI
     /tmp/cc6DU3Wg.s:664    .text.VectorB0:0000000000000000 $t
     /tmp/cc6DU3Wg.s:670    .text.VectorB0:0000000000000000 VectorB0
     /tmp/cc6DU3Wg.s:710    .text.st_lld_init:0000000000000000 $t
     /tmp/cc6DU3Wg.s:716    .text.st_lld_init:0000000000000000 st_lld_init
                            *COM*:0000000000000001 __gnu_lto_v1
                     .debug_frame:0000000000000010 $d

UNDEFINED SYMBOLS
_stats_start_measure_crit_isr
_dbg_check_lock_from_isr
_dbg_check_unlock_from_isr
_stats_stop_measure_crit_isr
chSysTimerHandlerI
_stats_increase_irq
_dbg_check_enter_isr
_dbg_check_leave_isr
_port_irq_epilogue
nvicEnableVector
