ARM GAS  /tmp/ccsenDb9.s 			page 1


   1              		.syntax unified
   2              		.cpu cortex-m4
   3              		.fpu softvfp
   4              		.eabi_attribute 20, 1
   5              		.eabi_attribute 21, 1
   6              		.eabi_attribute 23, 3
   7              		.eabi_attribute 24, 1
   8              		.eabi_attribute 25, 1
   9              		.eabi_attribute 26, 1
  10              		.eabi_attribute 30, 6
  11              		.eabi_attribute 34, 1
  12              		.eabi_attribute 18, 4
  13              		.thumb
  14              		.file	"testheap.c"
  15              		.text
  16              	.Ltext0:
  17              		.section	.gnu.lto_.inline.d0f2f51e1376ddcd,"",%progbits
  18 0000 789C6362 		.ascii	"x\234cb`b\300\006\034\031!4P\226\235\037H1-\220g`\201"
  18      6062C006 
  18      1C192134 
  18      50969D1F 
  18      48312D90 
  19 0017 A865E105 		.ascii	"\250e\341\005\022\314\014\317\031\257\262\002%\302\016"
  19      12CC0CCF 
  19      19AFB202 
  19      25C20E
  20 0026 AC674591 		.ascii	"\254gE\221A\020L\334\230b\314<\230J\260\251\303&\206"
  20      41104CDC 
  20      9862CC3C 
  20      984AB0A9 
  20      C32686
  21 0039 5F07E906 		.ascii	"_\007\351\006\3407\005\277:l\376@\223e\344\002\205\011"
  21      E03705BF 
  21      3A6CFE40 
  21      9365E402 
  21      8509
  22 004b 00749A08 		.ascii	"\000t\232\0103"
  22      33
  23              		.text
  24              		.section	.gnu.lto_heap1_setup.d0f2f51e1376ddcd,"",%progbits
  25 0000 789C6362 		.ascii	"x\234cb`b@\007\"@\274\013\2105A\034f\006F\240\012F&"
  25      60624007 
  25      2240BC0B 
  25      8835411C 
  25      660646A0 
  26 0017 46462087 		.ascii	"FF \207\221\241\236\211\261>\222\021\254l=\323\201\007"
  26      91A19E89 
  26      B13E9211 
  26      AC6C3DD3 
  26      8107
  27 0029 FFFFAF9B 		.ascii	"\377\377\257\233pl\376\036\306\031L 1V\206\226\206\206"
  27      706CFE1E 
  27      C6194C20 
  27      31568696 
  27      8686
  28 003b 090A0C0C 		.ascii	"\011\012\014\014\311`\025!`2\024\244\237\371<C\333\203"
  28      C9601521 
ARM GAS  /tmp/ccsenDb9.s 			page 2


  28      603214A4 
  28      9FF93C43 
  28      DB83
  29 004d AEC75C89 		.ascii	"\256\307\\\211\214\013\031Y\201\202\325\014\277\032"
  29      8C0B1959 
  29      8182D50C 
  29      BF1A
  30 005b 3A1A0432 		.ascii	":\032\0042\031\201J!\246\201D82\031\031s\031\031\240"
  30      19814A21 
  30      A6814438 
  30      32191973 
  30      1919A0
  31 006e 8A206A1A 		.ascii	"\212 j\032&2f22i3\254j\000\202\231@6s.#c\022D\017Le"
  31      26326632 
  31      326933AC 
  31      6A008299 
  31      4036732E 
  32 0089 045098A5 		.ascii	"\004P\230\245\203\217!\023\304\271\310\320\370\240["
  32      838F2113 
  32      C4B9C8D0 
  32      F8A05B
  33 0098 19661104 		.ascii	"\031f\021\004\204\200,\001yT='3I\3379#3)\323?8\336\320"
  33      84802C01 
  33      79543D27 
  33      3349DF39 
  33      233329D3 
  34 00b0 4CCF50CF 		.ascii	"L\317P\317D_\277$\265\270D\277\250\004Lg\244&\026\350"
  34      445FBF24 
  34      B5B844BF 
  34      A8044C67 
  34      A42616E8 
  35 00c4 25330000 		.ascii	"%3\000\000A\3427\217"
  35      41E2378F 
  36              		.text
  37              		.section	.gnu.lto_heap1_execute.d0f2f51e1376ddcd,"",%progbits
  38 0000 789CCD59 		.ascii	"x\234\315Y[l\024U\030>\347\314\336\357\327\356\255\227"
  38      5B6C1455 
  38      183EE7CC 
  38      DEEFD7EE 
  38      AD97
  39 0012 A55C0A14 		.ascii	"\245\\\012\024\266W\012\361\205Dc\242\306\304\007i\304"
  39      B6570AF1 
  39      854463A2 
  39      C6C40769 
  39      C4
  40 0023 9868CA82 		.ascii	"\230h\312\202\260*\244\221>\301\003\003-\006\021\"!"
  40      B02AA491 
  40      3EC10303 
  40      2D061122 
  40      21
  41 0034 9A1022B1 		.ascii	"\232\020\"\261\304K0\030\274\0215At\243\002-X+!\306"
  41      C44B3018 
  41      BC113541 
  41      74A3022D 
  41      582B21C6 
  42 0048 42BC6C7C 		.ascii	"B\274l|\021\225 \217F\221\365\377\317\314\236\351vf"
  42      1195208F 
ARM GAS  /tmp/ccsenDb9.s 			page 3


  42      4691F5FF 
  42      CFCC9EE9 
  42      7666
  43 005a C7655DCD 		.ascii	"\307e]\315N\302\231\351\367_\316\377\177\337\277\263"
  43      4EC299E9 
  43      F75FCEFF 
  43      7FDFBFB3 
  44 006a 6703238C 		.ascii	"g\003#\214\314\275\356\240\204<\232\"\344~\374c\036"
  44      CCBDEEA0 
  44      843C9A22 
  44      E47EFC63 
  44      1E
  45 007b A1E04119 		.ascii	"\241\340A\031\223\010\221\231\005\026\213D\333\000\261"
  45      93089199 
  45      05168B44 
  45      DB00B1
  46 008a 302B2236 		.ascii	"0+\"6D\254\034\2611;\"\016D\354\034q0'\".D\234\034q"
  46      44AC1CB1 
  46      313B220E 
  46      44EC1C71 
  46      3027222E 
  47 00a2 3137221E 		.ascii	"17\"\036D\334\034\3610\037\"^D\274\312\263\037\237}"
  47      44DC1CF1 
  47      301F225E 
  47      44BCCAB3 
  47      1F9F7D
  48 00b5 3400563F 		.ascii	"4\000V?_\003,\210x\010\361 \217\012\2610\"\021D\302"
  48      5F032C88 
  48      7808F120 
  48      8F0AB130 
  48      221144C2 
  49 00c9 1C89B028 		.ascii	"\034\211\260(\"M\210D9\322\304b\210\304\021\211q$\316"
  49      224D8844 
  49      39D2C462 
  49      88C41189 
  49      7124CE
  50 00dc 12882411 		.ascii	"\022\210$\021Ip$\311R\2104#\222\342H3kA\244\025\221"
  50      497024C9 
  50      52883423 
  50      92E24833 
  50      6B41A415 
  51 00f1 168EB4D2 		.ascii	"\026\216\264\3224\254m|MS \207P\262\203I\026\253\315"
  51      34AC6D7C 
  51      4D532087 
  51      50B28349 
  51      16ABCD
  52 0104 EE70BADC 		.ascii	"\356p\272\334\036\257\317\037\010\206\302\221hS,\236"
  52      1EAFCF1F 
  52      0886C291 
  52      68532C9E 
  53 0114 48A69A5B 		.ascii	"H\246\232[Z\333\322t\307\303\350H:\333\311QY>X8\363"
  53      5ADBD274 
  53      C7C3E848 
  53      3ADBC951 
  53      593E5838 
  54 0129 CBA1D8DE 		.ascii	"\313\241\330\336\202|@\276U,\322\034\232\262\224\254"
  54      827C40BE 
ARM GAS  /tmp/ccsenDb9.s 			page 4


  54      552CD21C 
  54      9AB294AC 
  55 0139 8527EAE0 		.ascii	"\205'\352\3407F\3135P\302\344\023\307di\\\276Y,JU\307"
  55      3746CB35 
  55      50C2E413 
  55      C764695C 
  55      BE592C4A 
  56 014f E4AF9C7D 		.ascii	"\344\257\234}\316\365\266\274G.\026w\374\267\033\035"
  56      CEF5B6BC 
  56      472E1677 
  56      FCB71B1D 
  57 015f 3CB7CF75 		.ascii	"<\267\317u`\247\272\221\244\005\245\225 K\2756\252\251"
  57      60A7BA91 
  57      A405A595 
  57      204BBD36 
  57      AAA9
  58 0171 B8938D5C 		.ascii	"\270\223\215\\\334W\215[\334\201\374\314\354\342,\214"
  58      DC578D5B 
  58      DC81FCCC 
  58      ECE22C8C 
  59 0181 2CA5D5D5 		.ascii	",\245\325\325\367\3561\331Y\332\253\332\236j\211\371"
  59      F7EE31D9 
  59      59DAABDA 
  59      9E6A89F9 
  60 0191 BF44BAD1 		.ascii	"\277D\272\321\270\"\035\314\337l\344\342^8\337\300\305"
  60      B8221DCC 
  60      DF6CE4E2 
  60      5E38DFC0 
  60      C5
  61 01a2 1D39FF62 		.ascii	"\0359\377bb\357\370\256\322\233Xb\244\267\272\001\317"
  61      62EFF8AE 
  61      D29B5862 
  61      A4B7BA01 
  61      CF
  62 01b3 BF7C7EF2 		.ascii	"\277|~\362(\205]w\336(\026\375\215\327\330\311Ff\375"
  62      28855D77 
  62      DE2816FD 
  62      8DD7D8C9 
  62      4666FD
  63 01c6 FDB2E218 		.ascii	"\375\262\342\030\031\250\345\245\302\360h\322Pm\035"
  63      19A8E5A5 
  63      C2F068D2 
  63      506D1D
  64 01d5 39BB2F21 		.ascii	"9\273/!k\303dedu\225\025\236^?!\217\345\213\305\325"
  64      6BC36465 
  64      64759515 
  64      9E5E3F21 
  64      8FE58BC5 
  65 01ea 3CEACE2A 		.ascii	"<\352\316*\243\276)\213\272\273\232\250<\014\3563\373"
  65      A3BE298B 
  65      BABB9AA8 
  65      3C0CEE33 
  65      FB
  66 01fb 67576963 		.ascii	"gWic\344\236\352\"\345S\332~\020u\337?E\275\305\362"
  66      E49EEA22 
  66      E553DA7E 
  66      1075DF3F 
ARM GAS  /tmp/ccsenDb9.s 			page 5


  66      45BDC5F2 
  67 020f 8562F1DB 		.ascii	"\205b\361\333w^\375\361%\032ZE\311\020=A\333\341\204"
  67      775EFDF1 
  67      251A5A45 
  67      C9103D41 
  67      DBE184
  68 0222 39442FC0 		.ascii	"9D/\300]\"@\254\005\027\253\212\330\360\017;.\016\025"
  68      5D2240AC 
  68      0517AB8A 
  68      D8F00F3B 
  68      2E0E15
  69 0235 71C27D0A 		.ascii	"q\302}\012\356.\270O\303\335\015F\311\203\036^\\|\252"
  69      EE2EB84F 
  69      C3DD0D46 
  69      C9831E5E 
  69      5C7CAA
  70 0248 9B5F750B 		.ascii	"\233_u\013\250nAt\013\241G\030\227\210\352\026U\335"
  70      A86E4174 
  70      0BA14718 
  70      9788EA16 
  70      55DD
  71 025a 9AD01C43 		.ascii	"\232\320\034CK\034\227\204jN\"\234\302\245Y-\265E\275"
  71      4B1C9784 
  71      6A4E229C 
  71      C2A5592D 
  71      B545BD
  72 026d B7A25B1B 		.ascii	"\267\242[\033.i4\317\303\247v\\\346\253\241\013\324"
  72      2E6934CF 
  72      C3A7765C 
  72      E6ABA10B 
  72      D4
  73 027e CC0BD1BC 		.ascii	"\314\013\321\274\010-\035\270,V\315K\020^\212H'.\313"
  73      082D1DB8 
  73      2C56CD4B 
  73      105E8A48 
  73      272ECB
  74 0291 003E0DF0 		.ascii	"\000>\015\360r\325\234As\027Z\272q\351\301?{\361\251"
  74      72D59C41 
  74      73175ABA 
  74      71E9C13F 
  74      7BF1A9
  75 02a4 0F977EF0 		.ascii	"\017\227~\360:\003^+\340~\016\356\003\010\256$|*\201"
  75      3A035E2B 
  75      E07E0EEE 
  75      0308AE24 
  75      7C2A81
  76 02b7 BA31F892 		.ascii	"\2721\370\222N+y\224\032\024\012\206\350E\276^\202\225"
  76      4E2B7994 
  76      1A140A86 
  76      E845BE5E 
  76      8295
  77 02c9 4F2F5C6B 		.ascii	"O/\\k\370:\210'xi\232\214\026\016g\207\350\327\024\316"
  77      F83A8827 
  77      78699A8C 
  77      160E6787 
  77      E8D714CE 
  78 02dd ED643BF9 		.ascii	"\355d;\371\003\216\210\201\034\265g\2512\3329\230t2"
ARM GAS  /tmp/ccsenDb9.s 			page 6


  78      038E8881 
  78      1CB567A9 
  78      32DA3998 
  78      7432
  79 02ef 4D768F1F 		.ascii	"Mv\217\037\223tN\316,U~&\240\350.\305\000\327#9\352"
  79      93744ECE 
  79      2C557E26 
  79      A0E82EC5 
  79      00D72339 
  80 0304 56365423 		.ascii	"V6T#r\324\303s\024\336\370\214*\320F\312D\026o\026_"
  80      72D4C373 
  80      14DEF88C 
  80      2AD046CA 
  80      44166F16 
  81 0319 4B5A16BC 		.ascii	"KZ\026\274\331\002\020\004\207\376)2:3z|\277T\212\222"
  81      D9021004 
  81      87FE2932 
  81      3A337A7C 
  81      BF548A92 
  82 032d 2010ED58 		.ascii	" \020\355X\006d\264\226p\213\310\346\317R\213\310&Q"
  82      0664B496 
  82      708BC8E6 
  82      CF528BC8 
  82      2651
  83 033f 8CC9E18F 		.ascii	"\214\311\341\217\205\0112vMlnY\253\034\266\265k\015"
  83      85093276 
  83      4D6C6E59 
  83      AB1CB6B5 
  83      6B0D
  84 0351 D6200D62 		.ascii	"\326 \015b,P2V8\376\212]\327n0\253\354\213\325\347h"
  84      2C503256 
  84      38FE8A5D 
  84      D76E30AB 
  84      EC8BD5E7 
  85 0366 4869E94D 		.ascii	"Hi\351M\255%\253iK\022~\314\374\242\255\351\321\017"
  85      AD25AB69 
  85      4B127ECC 
  85      FCA2ADE9 
  85      D10F
  86 0378 B4B66C10 		.ascii	"\264\266l\020l\324\226\275B[\014c\364m\331\015\332\262"
  86      6CD496BD 
  86      425B0C63 
  86      F46DD90D 
  86      DAB2
  87 038a F2B66CBC 		.ascii	"\362\266l\274\255\335\343\037\232\210\250 \250\236k"
  87      ADDDE31F 
  87      9A88A820 
  87      A89E6B
  88 0399 332D49B7 		.ascii	"3-I\267\235l\253\250\346)\255u\207\276u5\335Ce\351f"
  88      9D6CABA8 
  88      E629AD75 
  88      87BE7535 
  88      DD4365E9 
  89 03ae 6B8B293E 		.ascii	"k\213)>\322R8kLqZK\341\252)\305X\341cs\261\035\252\330"
  89      D252386B 
  89      4C715A4B 
  89      E1AA29C5 
ARM GAS  /tmp/ccsenDb9.s 			page 7


  89      58E16373 
  90 03c6 63E39FE8 		.ascii	"c\343\237\350\351\233\345\347\024~\023\246~.1<\223\331"
  90      E99BE5E7 
  90      147E13A6 
  90      7E2E313C 
  90      93D9
  91 03d8 52E96E63 		.ascii	"R\351nc=\034\206b\\\234#\006\216\223\230%\017$\343\015"
  91      3D1C8662 
  91      5C9C2306 
  91      8E939825 
  91      0F24E30D 
  92 03ec D2F259F2 		.ascii	"\322\362Y\362V\230%\011c\364\263\3445\230%;\237%\207"
  92      56982509 
  92      63F4B3E4 
  92      3598253B 
  92      9F2587
  93 03ff 324B852F 		.ascii	"2K\205/4\342}5j7\245\245\360\327\230\342K-E\240F\371"
  93      34E27D35 
  93      6A37A5A5 
  93      F0D798E2 
  93      4B2D45A0 
  94 0415 A7CDE50F 		.ascii	"\247\315\345\017\010YgLe\365\013\277\313\246~>!\377"
  94      0859674C 
  94      65F50BBF 
  94      CBA67E3E 
  94      21FF
  95 0427 15217FB0 		.ascii	"\025!\177\260n\362\207 \231\221\374\341\012\362[0F/"
  95      6EF28720 
  95      9991FCE1 
  95      0AF25B30 
  95      462F
  96 0439 7FD8407E 		.ascii	"\177\330@~'\227\337\245\312\377\235F|\344v\210\017j"
  96      2797DFA5 
  96      CAFF9D46 
  96      7CE47688 
  96      0F6A
  97 044b DA7DAFA5 		.ascii	"\332}\257\245\210\326\250\335\017\346\332E\004\327W"
  97      88D6A8DD 
  97      0FE6DA45 
  97      04D757
  98 045a 05D74D75 		.ascii	"\005\327Mu\343:\006\311\326*'\2472\256\343\025\270\346"
  98      E33A06C9 
  98      D62A27A7 
  98      32AEE315 
  98      B8E6
  99 046c 317AAEE3 		.ascii	"1z\256\343\006\\\2739\327\036\225\353\2375\242\0225"
  99      065CBB39 
  99      D71E95EB 
  99      9F35A212 
  99      35
 100 047d 7E4EAE89 		.ascii	"~N\256\211\376\223\377\246\377\011\362\371O\242\226"
 100      FE93FFA6 
 100      FF09F2F9 
 100      4FA296
 101 048c A418B4D2 		.ascii	"\244\030\264\3225H\275\274dAE\252n\233\245\004\323\332"
 101      3548BDBC 
 101      644145AA 
ARM GAS  /tmp/ccsenDb9.s 			page 8


 101      6E9BA504 
 101      D3DA
 102 049e 66D09B34 		.ascii	"f\320\2334Ev\255*\371\264\240\217\205\012\273\177\216"
 102      4576AD2A 
 102      F9B4A08F 
 102      850ABB7F 
 102      8E
 103 04af BD99DBB5 		.ascii	"\275\231\333\265\370\200b\277.\024m\335\210\307\236"
 103      F88062BF 
 103      2E146DDD 
 103      88C79E
 104 04be 59F5B755 		.ascii	"Y\365\267U\220\322\206\316z)\333\346Hy\231P\250\312"
 104      90D286CE 
 104      7A29DBE6 
 104      48799950 
 104      A8CA
 105 04d0 875BFBB9 		.ascii	"\207[\373\271\256A\256kH=e\\7\237\336\250x\243\374f"
 105      AE41AE6B 
 105      483D655C 
 105      379FDEA8 
 105      78A3FC66 
 106 04e4 FA464988 		.ascii	"\372FI\210)\377]\250\234\256\333\224\317\203dFo\224"
 106      29FF5DA8 
 106      9CAEDB94 
 106      CF836446 
 106      6F94
 107 04f6 F60AD4D8 		.ascii	"\366\012\324\3301FOM\273\301\224\2079\033\021u\312\377"
 107      31464F4D 
 107      BBC19487 
 107      391B1175 
 107      CAFF
 108 0508 D4A67C7E 		.ascii	"\324\246|~\215S~SK\261\240\3067\312_\346\232\314\027"
 108      8D537E53 
 108      4BB1A0C6 
 108      37CA5FE6 
 108      9ACC17
 109 051b 5CDF125C 		.ascii	"\\\337\022\\/\254\033\327\213 \231\321\033\245\243\002"
 109      2FAC1BD7 
 109      8B2099D1 
 109      1BA5A302 
 110 052b D70E8CD1 		.ascii	"\327\016\214\321s\335a\300u\224s\335\244r]\324\210Z"
 110      73DD61C0 
 110      759473DD 
 110      A4725DD4 
 110      885A
 111 053d 7C3B44A5 		.ascii	"|;D\2455\242\366\274fJ\324b1\274\317Z\315\374\026\010"
 111      35A2F6BC 
 111      664AD462 
 111      31BCCF5A 
 111      CDFC1608 
 112 0551 42F76E28 		.ascii	"B\367n(\225\264\244n\204.\205dF\303\333Y\201P'\306\350"
 112      95B4A46E 
 112      842E8564 
 112      46C3DB59 
 112      815027C6 
 113 0566 09ED3420 		.ascii	"\011\3554 4\306\011\215\253'\353\375\372&\253;Y\353"
 113      34C6098D 
ARM GAS  /tmp/ccsenDb9.s 			page 9


 113      AB27EBFD 
 113      FA26AB3B 
 113      59EB
 114 0578 CBDF3539 		.ascii	"\313\33759\363\312eV\332z\231\342\302)\312\333J\350"
 114      F3CA6556 
 114      DA7A99E2 
 114      C229CADB 
 114      4AE8
 115 058a F22A4583 		.ascii	"\362*E\203x\361\341x^\360\233\251\033\277]\220\214\363"
 115      78F1E178 
 115      5EF09BA9 
 115      1BBF5D90 
 115      8CF3
 116 059c 4BCAF9ED 		.ascii	"K\312\371\355\256\300\257\013c\364\374v\033\360\233"
 116      AEC0AF0B 
 116      63F4FC76 
 116      1BF09B
 117 05ab E0FC26D5 		.ascii	"\340\374&\325W\345!\363i[.\246\350\260\350\262\247n"
 117      57E521F3 
 117      695B2EA6 
 117      E8B0E8B2 
 117      A76E
 118 05bd 5DF64232 		.ascii	"]\366B2\243)\352\253\320\245\033c\364]\366\031t\231"
 118      A329EAAB 
 118      D0A51B63 
 118      F45DF619 
 118      7499
 119 05cf E25D362B 		.ascii	"\342]6+_D\223W_\027\316\375%\335\001\277\267\004\256"
 119      5F449357 
 119      5F17CEFD 
 119      25DD01BF 
 119      B704AE
 120 05e2 28FD902F 		.ascii	"(\375\220/+o\000\274\301VV\332\312\012\245y\320__\332"
 120      2B6F00BC 
 120      C15656DA 
 120      CA0AA579 
 120      D05F5FDA 
 121 05f6 4A83D25A 		.ascii	"J\203\322Zxi\255\274\264O\177U\007R\251\252\237\274"
 121      7869ADBC 
 121      B44F7F55 
 121      0752A9AA 
 121      9FBC
 122 0608 27EF5165 		.ascii	"'\357Qe/3^\232c\304k\020\377\273\214\347\230x\302$\311"
 122      2F335E9A 
 122      63C46B10 
 122      FFBB8CE7 
 122      9878C224 
 123 061d 93E639D2 		.ascii	"\223\3469\322\220\343\002\331\011\277>\326\343w\364"
 123      90E302D9 
 123      09BF3ED6 
 123      E377F4
 124 062c 45FEA815 		.ascii	"E\376\250\025\013\020J\334\361Tn]\327]\233r\353r\017"
 124      0B104ADC 
 124      F1546E5D 
 124      D75D9B72 
 124      EB720F
 125 063f 3CF858CF 		.ascii	"<\370X\317@\246'\323\337\3255\262a\353H\327\323#\374"
ARM GAS  /tmp/ccsenDb9.s 			page 10


 125      40A627D3 
 125      DFD535B2 
 125      61EB48D7 
 125      D323FC
 126 0652 BE69C3D0 		.ascii	"\276i\303\320p&K\354\271\307G6\017g\272\245-\231\036"
 126      70264BEC 
 126      B9C74736 
 126      0F67BAA5 
 126      2D991E
 127 0665 F8D76BD9 		.ascii	"\370\327k\331\272-\323\307\206{\330p/\033\356\243[\330"
 127      BA2DD3C7 
 127      867BD870 
 127      2F1BEEA3 
 127      5BD8
 128 0677 D66D7F03 		.ascii	"\326m\177\003\320\002\376+"
 128      D002FE2B 
 129              		.text
 130              		.section	.gnu.lto_.symbol_nodes.d0f2f51e1376ddcd,"",%progbits
 131 0000 789C4D90 		.ascii	"x\234M\220KN\303@\014\206\355\031\222\320r\010\016\306"
 131      4B4EC340 
 131      0C86ED19 
 131      92D07208 
 131      0EC6
 132 0012 8A93B8D2 		.ascii	"\212\223\270\322H \212\324\242T*R*\245\213\\\004i\366"
 132      48208AD4 
 132      A2542A52 
 132      2AA58B5C 
 132      0469F6
 133 0025 5DF50084 		.ascii	"]\365\000\204\221\350\0026\274\337\210\351\370OC6\237"
 133      91E80236 
 133      BCDF88E9 
 133      F84F4336 
 133      9F
 134 0036 1FFF6F7B 		.ascii	"\037\377o{b\310\320\221!\375\314#\013\321\305\212Hd"
 134      62C8D091 
 134      21FDCC23 
 134      0BD1C58A 
 134      4864
 135 0048 7D769C3D 		.ascii	"}v\234=0\345b\2637f\0222O,\374\257\371\302\246\020\312"
 135      30E562B3 
 135      37661232 
 135      4F2CFCAF 
 135      F9C2A610 
 136 005d 9ED946F0 		.ascii	"\236\331F\360+\213\321\346h\304\374\305b\373\354\203"
 136      2B8BD1E6 
 136      68C4FCC5 
 136      62FBEC83 
 137 006d 65AFCFBE 		.ascii	"e\257\317\276Y\262>\373d\311\373\354\235\245\330e\226"
 137      59B23EFB 
 137      64C9FBEC 
 137      9DA5D865 
 137      96
 138 007e 7272D7BF 		.ascii	"rr\327\277l\355\001\270OM\342\220|bA\256\335r@\276\325"
 138      6CED01B8 
 138      4F4DE290 
 138      7C6241AE 
 138      DD7240BE 
ARM GAS  /tmp/ccsenDb9.s 			page 11


 139 0093 7A68B5DE 		.ascii	"zh\265\336\234\334\037n\365!qH\356T\331\200>q@\001t"
 139      9CDC1F6E 
 139      F5217148 
 139      EE54D980 
 139      3E714001 
 140 00a8 63653356 		.ascii	"ce3V\237O\214\363\317\241\007\003\350&\320\203\036\014"
 140      9F4F8CF3 
 140      CFA10703 
 140      E826D083 
 140      1E0C
 141 00ba 13F5BBA9 		.ascii	"\023\365\273\251\372\375\024\372\022\373K\350K\334W"
 141      FAFD14FA 
 141      12FB4BE8 
 141      4BDC57
 142 00c9 AAAE9961 		.ascii	"\252\256\231a\376\014\3769\356\230k?\\b_\005\177\005"
 142      FE0CFE39 
 142      EE986B3F 
 142      5C625F05 
 142      7F05
 143 00db 7F05FF02 		.ascii	"\177\005\377\002~\320\325\320\327\230S\343=K\274g\211"
 143      7ED0D5D0 
 143      D79853E3 
 143      3D4BBC67 
 143      89
 144 00ec 7B417773 		.ascii	"{Aws\365c\323\017\326 n\334UB\012\342\354\200\212\273"
 144      F563D30F 
 144      D6206EDC 
 144      55420AE2 
 144      EC808ABB 
 145 0100 85C66B10 		.ascii	"\205\306k\020\355\233N\274\351\354]\340\356b@\177>\221"
 145      ED9B4EBC 
 145      E9EC5DE0 
 145      EE62407F 
 145      3E91
 146 0112 BD24     		.ascii	"\275$"
 147              		.text
 148              		.section	.gnu.lto_.refs.d0f2f51e1376ddcd,"",%progbits
 149 0000 789C6362 		.ascii	"x\234cb`bpe\200\000&\006&F&&If I\"ddab\005B\006&f\006"
 149      60627065 
 149      80002606 
 149      26462626 
 149      49662049 
 150 001f 002AF400 		.ascii	"\000*\364\000\324"
 150      D4
 151              		.text
 152              		.section	.gnu.lto_.decls.d0f2f51e1376ddcd,"",%progbits
 153 0000 789CBD5B 		.ascii	"x\234\275[\177t\024\305\035\237\335K\356rID\324\247"
 153      7F7414C5 
 153      1D9FDD4B 
 153      EE724944 
 153      D4A7
 154 0012 05B5F56C 		.ascii	"\005\265\365lkU\024\002J\021\337k\205\226\367\374\321"
 154      6B551402 
 154      4A11DF6B 
 154      8596F7FC 
 154      D1
 155 0023 567DADF8 		.ascii	"V}\255\370\236\377\235\313eINs?\334\333#\320\376\341"
ARM GAS  /tmp/ccsenDb9.s 			page 12


 155      9EFF9DCB 
 155      65494E73 
 155      3FDCDB23 
 155      D0FEE1
 156 0036 72401215 		.ascii	"r@\022\0251\210B@~\004\344\207Z@@ \"\010\213\312\031"
 156      31884240 
 156      7E04E487 
 156      5A404020 
 156      22088BCA 
 157 004b 9087042C 		.ascii	"\220\207\004,\005\025\014(\020\004m\370\221\012\"\244"
 157      05150C28 
 157      10046DF8 
 157      910A22A4 
 158 005b DF99D9BD 		.ascii	"\337\231\331\275\333\331\354\336\355\036\332}og\347"
 158      DBD9ECDE 
 158      ED1EDA7D 
 158      6F67E7
 159 006a 36339FEF 		.ascii	"63\237\357\317\371\316wf'<\342\321\355\034B\335p\035"
 159      CFF9CE77 
 159      66273CE2 
 159      D1ED1C42 
 159      DD701D
 160 007d 1E8A90EA 		.ascii	"\036\212\220\352E\310\203\020\272\007e\257\022\270\347"
 160      45C88310 
 160      BA0765AF 
 160      12B8E7
 161 008c C3BD18EE 		.ascii	"\303\275\030\356\327\341^\006\355\327\300\275\036\356"
 161      D7E15E06 
 161      EDD7C0BD 
 161      1EEE
 162 009a 4D707F00 		.ascii	"Mp\177\000w\021\274\377\020\236[\341>\004\367Y\0161"
 162      7711BCFF 
 162      109E5BE1 
 162      3E04F759 
 162      0E31
 163 00ac 17EE0FD0 		.ascii	"\027\356\017\320\210\347\021Z\012O\017<\017@\233b\250"
 163      88E7115A 
 163      0A4F0F3C 
 163      0F409B62 
 163      A8
 164 00bd BF01376E 		.ascii	"\277\0017n\276\037\012^k\213\351\360\006L\343\205\371"
 164      BE1F0A5E 
 164      6B8BE9F0 
 164      064CE385 
 164      F9
 165 00ce B80AEE37 		.ascii	"\270\012\3567\341}/x\226#\212\203y\030\006w\013\256"
 165      E17D2F78 
 165      96238A83 
 165      79180677 
 165      0BAE
 166 00e0 43E72D18 		.ascii	"C\347-\030_\243\267\016\352k\341\366\302o\025\236>x"
 166      5FA3B70E 
 166      EA6BE1F6 
 166      C26F159E 
 166      3E78
 167 00f2 2E876709 		.ascii	".\207g\011<7h\370^\015\373\003M>,\3332MN\235\027?\317"
 167      3C3768F8 
ARM GAS  /tmp/ccsenDb9.s 			page 13


 167      5E0DFB03 
 167      4D3E2CDB 
 167      324D4E9D 
 168 0109 F272039A 		.ascii	"\362r\003\232\253\250;\333'\035\352\340f*\352D\005\324"
 168      ABA83BDB 
 168      271DEAE0 
 168      662AEA44 
 168      05D4
 169 011b A870E81A 		.ascii	"\250p\350\032\364\262\002Ws\235\242p\262\300\335s5z"
 169      F4B20257 
 169      739DA270 
 169      B2C0DD73 
 169      357A
 170 012d 8C13B85E 		.ascii	"\214\023\270^~\024 \225r?\341\025!\201[\300]\243\325"
 170      7E142095 
 170      723FE115 
 170      21815BC0 
 170      5DA3D5
 171 0140 1EF55044 		.ascii	"\036\365PD\036\365\343P?\364:\364oT\224\367\256CV\327"
 171      1EF5E350 
 171      3FF43AF4 
 171      6F5494F7 
 171      AE4356D7 
 172 0154 6FD0224C 		.ascii	"o\320\"L@yM\361\020x\0140\237\273\301\330D\340^\345"
 172      40794DF1 
 172      10780C30 
 172      9FBBC1D8 
 172      44E05EE5 
 173 0168 186629AB 		.ascii	"\030f)\253\352\254ty\343\370\366\356\356y\001J\235G"
 173      EAAC7479 
 173      E3F8F6EE 
 173      EE79014A 
 173      9D47
 174 017a BFE7A0F1 		.ascii	"\277\347\240\361B\256_N\364\305f\364%=\321\333\033\333"
 174      42AE5F4E 
 174      F4C566F4 
 174      253DD1DB 
 174      1BDB
 175 018c 5BEA8E8E 		.ascii	"[\352\216\216\347\246NhnU:\273\273/w\241\21074Ex\210"
 175      E7A64E68 
 175      6E553ABB 
 175      BB2F77A1 
 175      88373445 
 176 01a2 AA51197A 		.ascii	"\252Q\031zVQR\270\343\375\255\275\256DS1J\240\341K\260"
 176      565152B8 
 176      E3FDADBD 
 176      AE445331 
 176      4AA0E14B 
 177 01b7 8006A0F0 		.ascii	"\200\006\240\360:B\000\232\337\204\026\202\272\324s"
 177      3A42009A 
 177      DF841682 
 177      BAD473
 178 01c6 2739906A 		.ascii	"'9\220j\031w%\200\324\262R\345\307\340\321$\016\367"
 178      19772580 
 178      D4B252E5 
 178      C7E0D124 
 178      0EF7
ARM GAS  /tmp/ccsenDb9.s 			page 14


 179 01d8 5901DD69 		.ascii	"Y\001\335iO\202\252\250\233\352\312\225\"\372\036\231"
 179      4F82AAA8 
 179      9BEACA95 
 179      22FA1E99 
 180 01e8 3465B86E 		.ascii	"4e\270nD\315\300\261\332\226\236\335Wi~\217c\0040\251"
 180      44CDC0B1 
 180      DA969EDD 
 180      57697E8F 
 180      630430A9 
 181 01fc 615899AD 		.ascii	"aX\231\255\032\326\260j\360\243\206,\012\262\354EEo"
 181      1AD6B06A 
 181      F0A3862C 
 181      0AB2EC45 
 181      456F
 182 020e DFFDEC9E 		.ascii	"\337\375\354\236\323\\\012\360\005\256\205\363C\357"
 182      D35C0AF0 
 182      05AE85F3 
 182      43EF
 183 021c 0F385601 		.ascii	"\0178V\001\002W\354g-\010\277\365\006\030\217\374Y\253"
 183      0257EC67 
 183      2D08BFF5 
 183      06188FFC 
 183      59AB
 184 022e E07070B9 		.ascii	"\340pp\271\321+QN\342-S\326\336\252(%\002\267\032\344"
 184      D12B514E 
 184      E22D53D6 
 184      DEAA2825 
 184      02B71AE4 
 185 0242 E6D1F726 		.ascii	"\346\321\367&\322\214.\250\214v\362o\000\000k\025\367"
 185      D28C2EA8 
 185      8C76F26F 
 185      00006B15 
 185      F7
 186 0253 F81B8FEA 		.ascii	"\370\033\217\352y\335^VpZ\225a\336h+\005\234\365_S\271"
 186      79DD5E56 
 186      705A9561 
 186      DE682B05 
 186      9CF55F53 
 187 0268 5727280D 		.ascii	"W'(\015\023\274W\241\027\261\205T\257\321?\206\353\030"
 187      13BC57A1 
 187      17B18554 
 187      AFD13F86 
 187      EB18
 188 027a 2584DC8B 		.ascii	"%\204\334\213\204\334&\356*\326=\246\245=\001\372:\277"
 188      84DC26EE 
 188      2AD63DA6 
 188      A53D01FA 
 188      3ABF
 189 028c 77BC5CF7 		.ascii	"w\274\\\367\302\265J\363\344>\232]\325:\245\201\033"
 189      C2B54AF3 
 189      E43E9A5D 
 189      D53AA581 
 189      1B
 190 029d BFF27A6B 		.ascii	"\277\362zk\212\232r/\354\372v\276f\331\367\211e?\346"
 190      8A9A722F 
 190      ECFA76BE 
 190      66D9F789 
ARM GAS  /tmp/ccsenDb9.s 			page 15


 190      653FE6
 191 02b0 59F5BA01 		.ascii	"Y\365\272\001\353\232\376\361f\015,M\300\316\026\016"
 191      EB9AFEF1 
 191      660D2C4D 
 191      C0CE160E 
 192 02c0 D63CEDD3 		.ascii	"\326<\355\323\353\361\300\330J\200\336\364\230\375\315"
 192      EBF1C0D8 
 192      4A80DEF4 
 192      98FDCD
 193 02cf 6FF2373F 		.ascii	"o\3627?\353o~\177\266\322\255_l\250\377I\373\360\350"
 193      EB6F7E7F 
 193      B6D2AD5F 
 193      6CA8FF49 
 193      FBF0E8
 194 02e2 1D8F6E50 		.ascii	"\035\217nP+!\035\370Oz\373_\307C\324\367h\301\245y\270"
 194      2B211DF8 
 194      4F7AFB5F 
 194      C743D4F7 
 194      68C1A579 
 195 02f7 61903258 		.ascii	"a\2202X\230\255\035\346\2702#\215\243\325\016\007aE"
 195      98AD1DE6 
 195      B832238D 
 195      A3D50E07 
 195      6145
 196 0309 51E7A53F 		.ascii	"Q\347\245?\342\224\027\31357m\366\332E\003\214\324f"
 196      E29417CB 
 196      35376DF6 
 196      DA45038C 
 196      D466
 197 031b F6D09969 		.ascii	"\366\320\231i>@_\347\367\320W\352\346\364\214_\214\222"
 197      3E405FE7 
 197      F7D057EA 
 197      E6F48C5F 
 197      8C92
 198 032d 7AD0FB04 		.ascii	"z\320\373\004\032k\027\217T\242\3236\233\346\371t\232"
 198      1A6B178F 
 198      54A2D336 
 198      9BE6F974 
 198      9A
 199 033e 5267C3F4 		.ascii	"Rg\303\364$\010\334R\022H\266\024\012\226\271x\264\215"
 199      2408DC52 
 199      1248B614 
 199      0A96B978 
 199      B48D
 200 0350 60EC2830 		.ascii	"`\354(0H\244\324\225Z@\327\343\352v\327x\201\036<\265"
 200      48A4D495 
 200      5A40D7E3 
 200      EA76D778 
 200      811E3CB5 
 201 0364 15EA7806 		.ascii	"\025\352x\006\214\335\036S\360\263\302(\261\223KQ\367"
 201      8CDD1E53 
 201      F0B3C228 
 201      B1934B51 
 201      F7
 202 0375 DEDB28E8 		.ascii	"\336\333(\350\223\242\301\233 {\321\372\366F\231\250"
 202      93A2C19B 
 202      207BD1FA 
ARM GAS  /tmp/ccsenDb9.s 			page 16


 202      F64699A8 
 203 0385 7166EE10 		.ascii	"qf\356\020<\320\017\220\211uR\221\365\314j\013\302\243"
 203      3CD00F90 
 203      89755291 
 203      F5CC6A0B 
 203      C2A3
 204 0397 E7499783 		.ascii	"\347I\227\203\346\001pZ\010\320\267\371\375\277\353"
 204      E601705A 
 204      08D0B7F9 
 204      FDBFEB
 205 03a6 B01FDCDF 		.ascii	"\260\037\334\337\202\224U\220\333\177H\275v\253\242"
 205      82945590 
 205      DB7F48BD 
 205      76ABA2
 206 03b5 F416B8C3 		.ascii	"\364\026\270\303\204\343\2645\307\366\303\225G{H\227"
 206      84E3B435 
 206      C7F6C395 
 206      477B4897 
 207 03c5 0E13C7ED 		.ascii	"\016\023\307\355\363\216\236\035\320D\220;\034e\003"
 207      F38E9E1D 
 207      D044903B 
 207      1C6503
 208 03d4 279FB318 		.ascii	"'\237\263\030M\226\251\210W\247\377xV\216\317\017\235"
 208      4D96A988 
 208      57A7FF78 
 208      568ECF0F 
 208      9D
 209 03e5 F59169F5 		.ascii	"\365\221i\365\033\"\306\264b\007)\015\203\303\243\331"
 209      1B22C6B4 
 209      6207290D 
 209      83C3A3D9 
 210 03f5 A44F674F 		.ascii	"\244OgO9v\016\245rt:\222c\306\2249\332 8A\006\346\342"
 210      39760EA5 
 210      72743A92 
 210      63C69439 
 210      DA203841 
 211 040c 0C6C6183 		.ascii	"\014la\203j\326\0162\312)\3302\327`\001\006l\336\016"
 211      6AD60E32 
 211      CA29D832 
 211      D7600106 
 211      6CDE0E
 212 041f 3A429D27 		.ascii	":B\235'K\373\216\253}\336%\342\237%c\372L\261\345$\350"
 212      4BFB8EAB 
 212      7DDE25E2 
 212      9F2563FA 
 212      4CB1E524 
 213 0434 00A96BFA 		.ascii	"\000\251k\372\026}>=O\240~(\030j\332\254\015w\023k_"
 213      167D3E3D 
 213      4FA07E28 
 213      186ADAAC 
 213      0D77136B 
 214 0449 244093BC 		.ascii	"$@\223\274\346\371\324g\232O}\354<\347\363g+Z\376\366"
 214      E6F9D467 
 214      9A4F7DEC 
 214      3CE7F367 
 214      2B5AFEF6 
 215 045d D336E751 		.ascii	"\3236\347Q\243\327\201\345\354cP\373\334\243\352\335"
ARM GAS  /tmp/ccsenDb9.s 			page 17


 215      A3D781E5 
 215      EC6350FB 
 215      DCA3EADD 
 216 046d 338D13A8 		.ascii	"3\215\023\250\355\274\306\243\031\204\326\004\336\344"
 216      EDBCC6A3 
 216      1984D604 
 216      DEE4
 217 047b C917766D 		.ascii	"\311\027vmOq\343\211\001\360\337\362\273\362\232m3\354"
 217      4F71E389 
 217      01F0DFF2 
 217      BBF29A6D 
 217      33EC
 218 048d 87A4817C 		.ascii	"\207\244\201|sfq\360kB\177\036\241\337`\246\337r\272"
 218      736671F0 
 218      6B427F1E 
 218      A1DF60A6 
 218      DF72BA
 219 04a0 63181D49 		.ascii	"c\030\035I\015\216\310\267\355z\311j~\265Y\031eR\300"
 219      0D8EC8B7 
 219      ED7AC96A 
 219      7EB55919 
 219      6552C0
 220 04b3 23273521 		.ascii	"#'5!'\363x\310\264\367p\216aeFb\3447\223+\037\313\260"
 220      27F378C8 
 220      B4F7708E 
 220      61654662 
 220      E437932B 
 221 04ca 5FD08805 		.ascii	"_\320\210\0059[\377\364\372*Ey\306\253\363p\3025b\200"
 221      395BFFF4 
 221      FA2A4579 
 221      C6ABF370 
 221      C2356280 
 222 04de D1C427BB 		.ascii	"\321\304'\273H\014\240`\377q\002f\353I)u\217\021\354"
 222      480CA060 
 222      FF710266 
 222      EB492975 
 222      8F11EC
 223 04f1 946B3096 		.ascii	"\224k0\226\263\275F\260.'`\275\3559\373\324\010v\326"
 223      B3BD46B0 
 223      2E2760BD 
 223      ED39FBD4 
 223      0876D6
 224 0504 3518CBD9 		.ascii	"5\030\313\331\347F\260\363N\300\372\330sv\300\010\326"
 224      E746B0F3 
 224      4EC0FAD8 
 224      7376C008 
 224      D6
 225 0515 ED1A8CE5 		.ascii	"\355\032\214\345\254\323\0106\301\347\000,`\301Y\346"
 225      ACD30836 
 225      C1E7002C 
 225      60C159E6 
 226 0525 B2CB35EB 		.ascii	"\262\3135\353yC\256Y\347\323CB\341\351\341\263>\267"
 226      7943AE59 
 226      E7D34342 
 226      E1E9E1B3 
 226      3EB7
 227 0537 218C911B 		.ascii	"!\214\221\033\317\244w\277\243\215\013:\2355:A\314\341"
ARM GAS  /tmp/ccsenDb9.s 			page 18


 227      CFA477BF 
 227      A38D0B3A 
 227      9D353A41 
 227      CCE1
 228 0549 306B8D73 		.ascii	"0k\215sc\223k0\326,\237`0&\326h\023R\373\"\265OS6\332"
 228      63936B30 
 228      D62C9F60 
 228      3026D668 
 228      1352FB22 
 229 0562 95E85878 		.ascii	"\225\350Xx1EC[\243\242\360\231\306J\237>\326m\005\356"
 229      3145435B 
 229      A3A2F099 
 229      C64A9F3E 
 229      D66D05EE 
 230 0576 75FE26BC 		.ascii	"u\376&\274\177\303\3733\\\320\272^\243k\255f\237i\027"
 230      7FC3FB33 
 230      5CD0BA5E 
 230      A36BAD66 
 230      9F6917
 231 0589 4FBFF275 		.ascii	"O\277\362u\265\363\204%FOX\344DM9\206Bg\0175\321\305"
 231      B5F38425 
 231      464F58E4 
 231      444D3986 
 231      42670F35 
 232 059f B61DF1E5 		.ascii	"\266\035\361\345F\342K]\023gmt~\307\354\237)\355*gP"
 232      46E24B5D 
 232      13676D74 
 232      7EC7EC9F 
 232      29ED2A67 
 233 05b4 764ECBE0 		.ascii	"vN\313\340\374\245\343\337\334\0042\037\254\344q\262"
 233      FCA5E3DF 
 233      DC04321F 
 233      ACE471B2 
 234 05c4 D0E2B3CC 		.ascii	"\320\342\263\314:\034@uM_v\033\335\272!@j\301@\323f"
 234      3A1C4075 
 234      4D5F761B 
 234      DDBA2140 
 234      6AC140D3 
 235 05d9 CD1D4A80 		.ascii	"\315\035J\200Z\010P\253\317<Cq\246\364\205c\023\014"
 235      5A0850AB 
 235      CF3C4371 
 235      A6F48563 
 235      130C
 236 05eb CE9FADF4 		.ascii	"\316\237\255\364X\322\377\210my\264\313l/F\234\034\321"
 236      58D2FF88 
 236      6D79B4CB 
 236      6C2F469C 
 236      1CD1
 237 05fd 2933E45B 		.ascii	")3\344[\177\267n\271\242L\360\272\261X\273n\261\015"
 237      7FB76EB9 
 237      A24CF0BA 
 237      B158BB6E 
 237      B10D
 238 060f 443F9FF6 		.ascii	"D?\237\366\320\317j\336\235\202xt\310\265 %&A:\013\020"
 238      D0CF6ADE 
 238      9D827874 
 238      C8B52025 
ARM GAS  /tmp/ccsenDb9.s 			page 19


 238      26413A0B 
 239 0624 A4531764 		.ascii	"\244S\027d3\021\344\353\037A\220S\256\005\351m\020\004"
 239      3311E4EB 
 239      1F419053 
 239      AE05E96D 
 239      1004
 240 0636 2F675A1F 		.ascii	"/gZ\037ZG\202\260\243\015\2224o\332 \351\372\030\357"
 240      5A4782B0 
 240      A30D9234 
 240      6FDA20E9 
 240      FA18EF
 241 0649 C4E0D7F9 		.ascii	"\304\340\327\371W\242\323v\031V\033\212\263\325F\253"
 241      57A2D376 
 241      19561B8A 
 241      B3D546AB 
 242 0659 B6DAD84A 		.ascii	"\266\332\330J4v\316j\2149Aj\356\332s5^\207o'0\335\205"
 242      3476CE6A 
 242      8C39416A 
 242      EEDA7335 
 242      5E876F27 
 243 0670 C2B44FFB 		.ascii	"\302\264O\373\264\205\016\325\217\011P}\211\331\202"
 243      B4850ED5 
 243      8F09507D 
 243      89D982
 244 067f 5E9301BD 		.ascii	"^\223\001\275\254\001\341'\246t\226l\244=\255\275\301"
 244      AC01E127 
 244      A674966C 
 244      A43DADBD 
 244      C1
 245 0690 3F7CE8FF 		.ascii	"?|\350\377\336\217GS\011\373\330x\205d\266\330y\324"
 245      DE8F4753 
 245      09FBD878 
 245      8564B6D8 
 245      79D4
 246 06a2 07D66933 		.ascii	"\007\326i385P\323%!\246\324M/\352\253\345ax\016\237"
 246      383550D3 
 246      2521A6D4 
 246      4D2FEAAB 
 246      E561780E 
 247 06b7 7F897024 		.ascii	"\177\211p$\351c&'\323L\365\215\315\324\223\331\016i"
 247      E9632627 
 247      D34CF58D 
 247      CDD493D9 
 247      0E69
 248 06c9 EFB394F8 		.ascii	"\357\263\224\370\337>\222\235\275\326\303\336'8\323"
 248      DF3E929D 
 248      BDD6C3DE 
 248      2738D3
 249 06d8 EAE104BB 		.ascii	"\352\341\004\273\325n7\220\366\032\247\301\365\227&"
 249      D56E3790 
 249      F61AA7C1 
 249      F59726
 250 06e7 268E467F 		.ascii	"&\216F\177\246\231T\276\245\331\343:Z9!\274\231\020"
 250      A69954BE 
 250      A5D9E33A 
 250      5A3921BC 
 250      9910
ARM GAS  /tmp/ccsenDb9.s 			page 20


 251 06f9 FEC2BC32 		.ascii	"\376\302\2742{w\361\301:mi\376\205\203\245\231\242~"
 251      7B77F1C1 
 251      3A6D69FE 
 251      8583A599 
 251      A27E
 252 070b 46F698F4 		.ascii	"F\366\230\364M\243s\031T\215\352pc6\230\327\255\324"
 252      4DA37319 
 252      548DEA70 
 252      633698D7 
 252      ADD4
 253 071d 0362EB40 		.ascii	"\003b\353@71\242C\213\021\207\211\013\216\367\233m\264"
 253      3731A243 
 253      8B118789 
 253      0B8EF79B 
 253      6DB4
 254 072f DD1C555D 		.ascii	"\335\034U]\015\222z\277I\032\247\353\253\314e\347\003"
 254      0D927ABF 
 254      491AA7EB 
 254      ABCC65E7 
 254      03
 255 0740 078C3EF0 		.ascii	"\007\214>\360\274\377R}\340\354_,|\200\356\022\332q"
 255      BCFF527D 
 255      E0EC5F2C 
 255      7C80EE12 
 255      DA71
 256 0752 70DCC8C1 		.ascii	"p\334\310\301K\227\306\201\272i\267\373\315\244\275"
 256      4B97C681 
 256      BA69B7FB 
 256      CDA4BD
 257 0761 9AE9BE25 		.ascii	"\232\351\276%\246{\245\207\351\316\233S\037'{+K\012"
 257      A67BA587 
 257      E9CE9B53 
 257      1F277B2B 
 257      4B0A
 258 0773 152473F1 		.ascii	"\025$s\361h\271\337Af\032`\315k\360a<$\265y5\357\006"
 258      68B9DF41 
 258      661A60CD 
 258      6BF0613C 
 258      24B57935 
 259 0789 4D26D6B4 		.ascii	"M&\326\264\366m%\3128\303\343Q\264\312\244\014\007\033"
 259      F66D25CA 
 259      38C3E351 
 259      B4CAA40C 
 259      071B
 260 079b 3D9B4997 		.ascii	"=\233I\227\357\314\303\031\302\264\266\365\372\235\243"
 260      EFCCC319 
 260      C2B4B6F5 
 260      FA9DA3
 261 07aa 8D96DDCF 		.ascii	"\215\226\335\317\031\267,\201\037\216\327`\013\325'"
 261      19B72C81 
 261      1F8ED760 
 261      0BD527
 262 07b9 63C22C7F 		.ascii	"c\302,\177\002w\216\254\200\276\347o4\352\276\315\211"
 262      02778EAC 
 262      80BEE76F 
 262      34EABECD 
 262      89
ARM GAS  /tmp/ccsenDb9.s 			page 21


 263 07ca EE6FB173 		.ascii	"\356o\261sDE"
 263      4445
 264 07d0 3DB77B36 		.ascii	"=\267{6G\371\247\361\35033\236U<b\360\030[\252\215{"
 264      47F9A7F1 
 264      E833339E 
 264      553C62F0 
 264      185BAA8D 
 265 07e5 C8B292CE 		.ascii	"\310\262\222\316pG\23407\320\016,\245\316\246`\324\341"
 265      70479C30 
 265      37D00E2C 
 265      A5CEA660 
 265      D4E1
 266 07f7 4F38011B 		.ascii	"O8\001\033j'iJ]?]\267\324q2?}\347\032\217en\367\036"
 266      6A27694A 
 266      5D3F5DB7 
 266      D471323F 
 266      7DE71A8F 
 267 080f FD8B0DDD 		.ascii	"\375\213\015\335\335\035_\352\000o\270=\177'\2473\323"
 267      DD1D5FEA 
 267      006FB83D 
 267      7F27A733 
 267      D3
 268 0820 F964D770 		.ascii	"\371d\327p\254!.\354\301\206\235\334\307j\373^\315|"
 268      AC212EEC 
 268      C1869DDC 
 268      C76AFB5E 
 268      CD7C
 269 0832 38C1EB45 		.ascii	"8\301\353E=\300\254:\331\227f\334\317x\260'l,\315\377"
 269      3DC0AC3A 
 269      D99766DC 
 269      CF78B027 
 269      6C2CCDFF 
 270 0846 1D8005C2 		.ascii	"\035\200\005\302\016;\331c\372\372\2622M\2165\340\367"
 270      0E3BD963 
 270      FAFAB232 
 270      4D8E35E0 
 270      F7
 271 0857 F947D35B 		.ascii	"\371G\323[i\367a\261U_(\274\340\301fh+\375Q\342\342"
 271      69F761B1 
 271      555F28BC 
 271      E0C16668 
 271      2BFD51E2 
 272 086c 3E0283B9 		.ascii	">\002\203\271.l\212\331\267\252\255\257\236\356Q\306"
 272      2E6C8AD9 
 272      B7AAADAF 
 272      9EEE51C6 
 273 087c 0EB84664 		.ascii	"\016\270Fd\375m-\375dI\301\276r\002\226c#\363m\014\346"
 273      FD6D2DFD 
 273      6449C1BE 
 273      72029663 
 273      23F36D0C 
 274 0891 46CB9DDA 		.ascii	"F\313\235\332\344\323D\310\037\373q\224\334\351Z\012"
 274      E4D344C8 
 274      1FFB7194 
 274      DCE95A0A 
 275 08a1 4625A0E4 		.ascii	"F%\240\344c}\327\255V\224\225\217\2739\234\260\357\370"
 275      637DD7AD 
ARM GAS  /tmp/ccsenDb9.s 			page 22


 275      5694958F 
 275      BB399CB0 
 275      EFF8
 276 08b3 4EDD65E6 		.ascii	"N\335e\346\020iN\365\220&m\226\306\361\307\376\363f"
 276      10694EF5 
 276      90266D96 
 276      C6F1C7FE 
 276      F366
 277 08c5 91ACE2A7 		.ascii	"\221\254\342\247\325\266\234\325e\034N\002\367\274\007"
 277      D5B69CD5 
 277      651C4E02 
 277      F7BC07
 278 08d4 C7FF299E 		.ascii	"\307\377)\236\033\241\234F\312\227I9\203\224\263=\314"
 278      1BA19C46 
 278      CA974939 
 278      8394B33D 
 278      CC
 279 08e5 BC505766 		.ascii	"\274PWf\012\037\354P\325\252\367;f$\373mO\340Nq\230"
 279      0A1FEC50 
 279      D5AAF73B 
 279      6624FB6D 
 279      4FE04E71 
 280 08fa 91D31C26 		.ascii	"\221\323\034&\333E\312\357H\231\342q\271\200\224\013"
 280      DB45CAEF 
 280      4899E271 
 280      B980940B 
 281 090a 49B99894 		.ascii	"I\271\230\224\313H\271\202\224\353I\251\222r\013)O\223"
 281      CB48B982 
 281      94EB49A9 
 281      92720B29 
 281      4F93
 282 091c F207525E 		.ascii	"\362\007R^$\245B\004J\221r\")\353H\331`\024\321.M3\255"
 282      24A54204 
 282      4A917222 
 282      29EB48D9 
 282      6014D12E 
 283 0933 29F419B9 		.ascii	")\364\031\271\243\320\217\210x\325_a\334z\025\270\377"
 283      A3D08F88 
 283      78D55F61 
 283      DC7A15B8 
 283      FF
 284 0944 BA460CE4 		.ascii	"\272F\014\344Rm\207A\265_\023\325\036'\352\\\300ZtJ"
 284      526D8741 
 284      B55F13D5 
 284      1E27EA5C 
 284      C05A744A 
 285 0958 99FE75BB 		.ascii	"\231\376u\273\220\225B\252\375\314\334\215\314\307\325"
 285      909542AA 
 285      FDCCDC8D 
 285      CCC7D5
 286 0967 E9663C97 		.ascii	"\351f<\227!\344\007Xy\230\322\347\0039\322\347%\036"
 286      21E40758 
 286      7998D2E7 
 286      0339D2E7 
 286      251E
 287 0979 43FA3CD7 		.ascii	"C\372<\3275\355\234\032<h\320\340\227D\203_\021\015"
 287      35ED9C1A 
ARM GAS  /tmp/ccsenDb9.s 			page 23


 287      3C68D0E0 
 287      9744835F 
 287      110D
 288 098b 2E246EB3 		.ascii	".$n\263\230\325\343\2422\323\211\006\366\030\201\353"
 288      98D5E3A2 
 288      32D38906 
 288      F61881EB 
 289 099b 21BAC240 		.ascii	"!\272\302@|\025!\376\026!\276\221\224\3739\007>\273"
 289      7C1521FE 
 289      1621BE91 
 289      94FB3907 
 289      3EBB
 290 09ad 34BB30D6 		.ascii	"4\2730\326N\344\351_\3322?[hDb\216\312\361\350\237e"
 290      4EE4E95F 
 290      DA323F5B 
 290      6844628E 
 290      CAF1E89F 
 291 09c2 E643951A 		.ascii	"\346C\225\032\240\307\352\324\344\271\365m\3275\255"
 291      A0C7EAD4 
 291      E4B9F56D 
 291      D735AD
 292 09d1 52263EA3 		.ascii	"R&>\243\\\354~\232cN\013\226\240z\26237I\031\317=\225"
 292      5CEC7E9A 
 292      634E0B96 
 292      A07AB233 
 292      374919CF 
 293 09e7 61D466BB 		.ascii	"a\324f\273^\340\336\364\224\340\317\203e\266\233\355"
 293      5EE0DEF4 
 293      94E0CF83 
 293      65B69BED 
 294 09f7 B8812E31 		.ascii	"\270\201.1\255\353\265\034{\355\313=\314\251DrD0S\327"
 294      ADEBB51C 
 294      7BEDCB3D 
 294      CCA94472 
 294      443053D7 
 295 0a0b 104D0A38 		.ascii	"\020M\0128b\243\200\325\226\012hI\237\230o\177l\264"
 295      62A380D5 
 295      960A6849 
 295      9F986F7F 
 295      6CB4
 296 0a1d 25C74EFC 		.ascii	"%\307N\374Z3k\330dV\207Hs\303\254\363\2241l2\262\234"
 296      5A336BD8 
 296      64568748 
 296      73C3ACF3 
 296      94316C32 
 297 0a33 B691E51D 		.ascii	"\266\221\345\035+Y\324\225\365\223\373*\363Sjw\3670"
 297      2B59D495 
 297      F593FB2A 
 297      F3536A77 
 297      F730
 298 0a45 17E75F37 		.ascii	"\027\347_7\230\345 \037p\0316\224rk66Z\2621\357C[6r"
 298      98E5201F 
 298      70193694 
 298      726B3636 
 298      5AB231EF 
 299 0a5d 9C3F5573 		.ascii	"\234?Us\250\323\316\327\237\263\341\353}kSO9\\\240\251"
 299      A8D3CED7 
ARM GAS  /tmp/ccsenDb9.s 			page 24


 299      9FB3E1EB 
 299      7D6B534F 
 299      395CA0A9 
 300 0a71 B7787A9E 		.ascii	"\267xz\236\225\236aC;\315\322\376%\232\217\217i\037"
 300      959E6143 
 300      3BCDD2FE 
 300      259A8F8F 
 300      691F
 301 0a83 9E3503A7 		.ascii	"\2365\003\247\336\260\232\354\356\276A?(\374Z\006B\017"
 301      DEB09AEC 
 301      EEBE413F 
 301      28FC5A06 
 301      420F
 302 0a95 3BCCB160 		.ascii	";\314\261`\214\326\232E\303Hd\304n\356\277>\245L\\\011"
 302      8CD69A45 
 302      C34864C4 
 302      6EEEBF3E 
 302      A54C5C09 
 303 0aa9 BC7773DD 		.ascii	"\274ws\335\303\264}g6\007\217\3538\015\275\010\263\253"
 303      C3B47D67 
 303      36078FEB 
 303      380DBD08 
 303      B3AB
 304 0abb 08A56D1E 		.ascii	"\010\245m\036\323\356\363\014r\200\024\277\316\277G"
 304      D3EEF30C 
 304      728014BF 
 304      CEBF47
 305 0aca B5265DAA 		.ascii	"\265&]\252\034R9\313\224\237%G\216\034\232s\376\231"
 305      1C5239CB 
 305      949F2547 
 305      8E1C9A73 
 305      FE99
 306 0adc F4C8A183 		.ascii	"\364\310\241\203\224_Q_\241\244\256@\215:)\346\233\230"
 306      945F515F 
 306      A1A4AE40 
 306      8D3A29E6 
 306      9B98
 307 0aee 7A8D4EAE 		.ascii	"z\215N\256\203\327\310\265y\256 5f\333\2134\2613\351"
 307      83D7C8B5 
 307      79AE2035 
 307      66DB8B34 
 307      B133E9
 308 0b01 2E4FF6D3 		.ascii	".O\366\323_\271?[\271=\343\\\233\210\316vd\3236\023"
 308      5FB93F5B 
 308      B93DE35C 
 308      9B88CE76 
 308      64D33613 
 309 0b15 DD7CD3AB 		.ascii	"\335|\323\253\242\316\276\267\261\256\2342\307\243\367"
 309      A2CEBEB7 
 309      B1AE9C32 
 309      C7A3F7
 310 0b24 9CC16922 		.ascii	"\234\301i\"Y\342\3155\342mq\206\267\263\330\036o\205"
 310      59E2CD35 
 310      E26D7186 
 310      B7B3D81E 
 310      6F85
 311 0b36 11AFD519 		.ascii	"\021\257\325\031\336\3339\016\366\2552\342}\344\014"
ARM GAS  /tmp/ccsenDb9.s 			page 25


 311      DEDB390E 
 311      F6AD32E2 
 311      7DE40C
 312 0b45 AFB9CC02 		.ascii	"\257\271\314\002/s\361hG\306s\255\235-\277\025Z\322"
 312      2F73F168 
 312      47C673AD 
 312      9D2DBF15 
 312      5AD2
 313 0b57 CF73F823 		.ascii	"\317s\370#\247\356NM\275\350\207\"{\347=\340\332\233"
 313      A7EE4E4D 
 313      BDE88722 
 313      7BE73DE0 
 313      DA9B
 314 0b69 BEB0F1A6 		.ascii	"\276\260\361\246\372^\031A\332\012\027\304\240\216\275"
 314      FA5E1941 
 314      DA0A17C4 
 314      A08EBD
 315 0b78 E69061C1 		.ascii	"\346\220a\301\376A6f\254P\333\267,?V\204\217\013+\312"
 315      FE413666 
 315      AC50DBB7 
 315      2C3F5684 
 315      8F0B2BCA 
 316 0b8c 0FB026D1 		.ascii	"\017\260&\3215\201O!f&*5\273\341\015Z\343r\034\251\334"
 316      35814F21 
 316      66262A35 
 316      BBE10D5A 
 316      E3721CA9 
 317 0ba1 0F2CE43D 		.ascii	"\017,\344=y)pG<8#>j\212\003\020\276\366\325k\007\212"
 317      79297047 
 317      3C38233E 
 317      6A8A0310 
 317      BEF6D56B 
 318 0bb7 8E3A5AFF 		.ascii	"\216:Z\377\237\273\320\312\221\315\361%d\213\346\010"
 318      9FBBD0CA 
 318      91CDF125 
 318      648BE608 
 319 0bc7 51C0D142 		.ascii	"Q\300\321B\027\341\352\371c\004\3164A/\310\361\217\001"
 319      17E1EAF9 
 319      6304CE34 
 319      412FC8F1 
 319      8F01
 320 0bd9 278C59EA 		.ascii	"'\214Y\352q\327\344\003\014y\234!SH\036\235t\202\225"
 320      71D7E403 
 320      0C799C21 
 320      53481E9D 
 320      748295
 321 0bec 23DBBE68 		.ascii	"#\333\276h\300\372\3365V\300\244n\335\016\002w\214\244"
 321      C0FADE35 
 321      56C0A46E 
 321      DD0E0277 
 321      8CA4
 322 0bfe C8C749F9 		.ascii	"\310\307I\371-);\363\257\262L\012=l\303\011\306?\305"
 322      2D293BF3 
 322      AFB24C0A 
 322      3D6CC309 
 322      C63FC5
 323 0c11 643C06C8 		.ascii	"d<\006\310\341,\243\0067\245\235\254\233\301r\321\365"
ARM GAS  /tmp/ccsenDb9.s 			page 26


 323      E12CA306 
 323      37A59DAC 
 323      9BC172D1 
 323      F5
 324 0c22 783D6333 		.ascii	"x=c3^\215\311k\266\025\3507u\231i\334\365`\242K\033"
 324      5E8DC96B 
 324      B615E837 
 324      759969DC 
 324      F560A24B 
 325 0c37 7583D15B 		.ascii	"u\203\321[J\203\012s\335\227\300U\306n\377@\337+M\220"
 325      4A830A73 
 325      DD97C055 
 325      C66EFF40 
 325      DF2B4D90 
 326 0c4b 4BBFD997 		.ascii	"K\277\331\227\212\202\007f\347N\365\335g\347@Z\220R"
 326      8A820766 
 326      E74EF5DD 
 326      67E7405A 
 326      9052
 327 0c5d 20FBEEE6 		.ascii	" \373\356\346\250\326`Ug\246\305\016-L\354\034Cl8\355"
 327      A8D66055 
 327      67A6C50E 
 327      2D4CEC1C 
 327      436C38ED 
 328 0c71 492D4729 		.ascii	"I-G)\251\233\266\261\007\375\214\321\357\015C\364\313"
 328      A99BB6B1 
 328      07FD8CD1 
 328      EF0D43F4 
 328      CB
 329 0c82 641CB768 		.ascii	"d\034\267h\320\027\\+\363\242\2152o\316\3510\260\276"
 329      D0175C2B 
 329      F3A28D32 
 329      6FCEE930 
 329      B0BE
 330 0c94 CFFAC12F 		.ascii	"\317\372\301/P\323es\224\246\341Y\362\324\001\2610\015"
 330      50D36573 
 330      94A6E159 
 330      F2D401B1 
 330      300D
 331 0ca6 903F9552 		.ascii	"\220?\225R?\317\374\253\031uL\214GG'uQ\255\365'\231"
 331      3FCFFCAB 
 331      19754C8C 
 331      47472775 
 331      51ADF527 
 332 0cbb D6C67F1D 		.ascii	"\326\306\177\035\323\270\240\252\324]\320\344\265o\344"
 332      D3B8A0AA 
 332      D45DD0E4 
 332      B56FE4
 333 0cca 0803A9A2 		.ascii	"\010\003\251\242\014\267\346%n\326\320=zM\260\355\205"
 333      0CB7E625 
 333      6ED6D03D 
 333      7A4DB0ED 
 333      85
 334 0cdb 734ABB5E 		.ascii	"sJ\273^\023m{\255\315\321k\222m/5G\257:\333^\313s\364"
 334      136D7BAD 
 334      CDD16B92 
 334      6D2F3547 
ARM GAS  /tmp/ccsenDb9.s 			page 27


 334      AF3ADB5E 
 335 0cf2 AAB7EDB5 		.ascii	"\252\267\355\265!G\257\206\"f#&\200\346\341\011z\335"
 335      2147AF86 
 335      22662326 
 335      80E6E109 
 335      7ADD
 336 0d04 362510B0 		.ascii	"6%\020\260\371w\277\233k\302\243*FT\207G\205\037~$8"
 336      F977BF9B 
 336      6BC2A32A 
 336      46548747 
 336      851F7E24 
 337 0d19 68C88041 		.ascii	"h\310\200A\003\006WT\310bB\256\220d\362\254\026\205"
 337      03065754 
 337      C86242AE 
 337      9064F2AC 
 337      1685
 338 0d2b F880102A 		.ascii	"\370\200\020*\303\317A\301\204('\343\336\373\036z40"
 338      C3CF41C1 
 338      842827E3 
 338      DEFB1E7A 
 338      3430
 339 0d3d 025D465F 		.ascii	"\002]F_\211c\305PR\026o\263\002\212%0L8\032\252IV\212"
 339      8963C550 
 339      52166FB3 
 339      028A2530 
 339      4C381AAA 
 340 0d54 15A16A02 		.ascii	"\025\241j\002V\215.\213\210\221\2304.\210\177\006\345"
 340      568D2E8B 
 340      88919834 
 340      2E887F06 
 340      E5
 341 0d65 32C3AF3B 		.ascii	"2\303\257;*\222\011\251\002CU\205B\025\202\024\351\037"
 341      2A9209A9 
 341      02435585 
 341      42158214 
 341      E91F
 342 0d77 8D45C5FE 		.ascii	"\215E\305\376\2420*\\1x\300\320\001wd\300\022re\245"
 342      A2302A5C 
 342      3178C0D0 
 342      017764C0 
 342      127265A5 
 343 0d8b 381AC0BC 		.ascii	"8\032\300\274\211\360\337\305\240<\300\011}\240\024"
 343      89F0DFC5 
 343      A03CC009 
 343      7DA014
 344 0d9a 8A4922F4 		.ascii	"\212I\"\364*\207j\225(\217NFCA\271\264:\030\227bc\302"
 344      2A876A95 
 344      288F4E46 
 344      4341B9B4 
 344      3A189762 
 345 0db0 95A244E4 		.ascii	"\225\242D\344\304\254@}\240=d<&\311\211\212?\374\355"
 345      C4AC407D 
 345      A03D643C 
 345      26C9898A 
 345      3FFCED
 346 0dc3 C1110F8E 		.ascii	"\301\021\017\216\005\\\015\2644!?)\324\204\253\242A"
 346      055C0DB4 
ARM GAS  /tmp/ccsenDb9.s 			page 28


 346      34213F29 
 346      D484ABA2 
 346      41
 347 0dd4 F9E74410 		.ascii	"\371\347D\020\235rT\254\305X\300s8*C\303\222$<\207\014"
 347      9D7254AC 
 347      C558C073 
 347      382A43C3 
 347      92243C87 
 348 0de9 0ECAFDAD 		.ascii	"\016\312\375\255\232E\204Pu8*V\004A@!Y#\007\345qq1\201"
 348      9A458450 
 348      75382A56 
 348      04414021 
 348      592307E5 
 349 0e01 F18341BD 		.ascii	"\361\203A\275c1\241S\024\025\307\312E\230e.Y\204\365"
 349      6331A153 
 349      1415C7CA 
 349      4598652E 
 349      5984F5
 350 0e14 C0557BAB 		.ascii	"\300U{\253\203\243%Q\354\347H\035\362X@\365E\300|c\203"
 350      83A32551 
 350      ECE7481D 
 350      F25840F5 
 350      45C07C63 
 351 0e29 7249A83A 		.ascii	"rI\250:H\252\025N\372&\306%t\266.\227\253%PX\"\370T"
 351      48AA154E 
 351      FA26C625 
 351      74B62E97 
 351      AB255058 
 352 0e40 524C8229 		.ascii	"RL\202)z\003\020\363\312\221o$B\325\225X5\264gP\366"
 352      7A0310F3 
 352      CA916F24 
 352      42D59558 
 352      35B46750 
 353 0e55 6750BCF1 		.ascii	"gP\274\361 \226\023\036qI\0343\314\251Ub\221x\270F\224"
 353      2096131E 
 353      71491C33 
 353      CCA95562 
 353      9178B846 
 354 0e6a 1215F78D 		.ascii	"\022\025\367\215\030\001\370:\267>9.\205c .V\345\235"
 354      1801F83A 
 354      B73E392E 
 354      8563202E 
 354      56E59D
 355 0e7d 7780F5A9 		.ascii	"w\200\365\251Vq\225\220\010\307|\241X\024\364 \227a"
 355      56719590 
 355      08C77CA1 
 355      5814F420 
 355      9761
 356 0e8f C020FC2D 		.ascii	"\300 \374-$\217\035\354\312\031\202c\356\212`a$\261"
 356      248F1DEC 
 356      CA198263 
 356      EE8A6061 
 356      24B1
 357 0ea1 0A9C3828 		.ascii	"\012\2348(\363\322`^\372-/\015\341\245\273xi(/\335\355"
 357      F3D2605E 
 357      FA2D2F0D 
 357      E1A5BB78 
ARM GAS  /tmp/ccsenDb9.s 			page 29


 357      69282FDD 
 358 0eb6 91060D84 		.ascii	"\221\006\015\204{\020_#\301\343\316\342x\020\210\370"
 358      7B105F23 
 358      C1E3CEE2 
 358      781088F8 
 359 0ec6 B0A4B5A2 		.ascii	"\260\244\265\242\004\317X\015x`Q\250Z\220\260\370BD"
 359      04CF580D 
 359      786051A8 
 359      5A90B0F8 
 359      4244
 360 0ed8 2C8D07C1 		.ascii	",\215\007\301\275j\302\221\260\\\"'dA\006M\3730\343"
 360      BD6AC291 
 360      B05C2227 
 360      6441064D 
 360      FB30E3
 361 0eeb 43415754 		.ascii	"CAWT\004\250\371p+\370\233O\216\304*E\362{t\215P\225"
 361      04A8F970 
 361      2BF89B4F 
 361      8EC42A45 
 361      F27B748D 
 362 0f01 F0C99238 		.ascii	"\360\311\2228:A$\304\225\342H\242\012\376\250\211\015"
 362      3A4124C4 
 362      95E248A2 
 362      0AFEA889 
 362      0D
 363 0f12 DD750548 		.ascii	"\335u\005H\225\343\340O%\342\330\260\034\002\000o\255"
 363      95E3E04F 
 363      25E2D8B0 
 363      1C02006F 
 363      AD
 364 0f23 1C1BF544 		.ascii	"\034\033\365D\374J\315(\320U\224\304h\010\200\213ke"
 364      FC4ACD28 
 364      D05594C4 
 364      6808808B 
 364      6B65
 365 0f35 598A9783 		.ascii	"Y\212\227\203\221\022bD\210W\203\320\216|\016Zc#h\236"
 365      91126244 
 365      885783D0 
 365      8E7C0E5A 
 365      6323689E 
 366 0f49 511C8A82 		.ascii	"Q\034\212\202{\027'\202\360\004Z\360\3078<\300/\343"
 366      7B172782 
 366      F0045AF0 
 366      C7383CC0 
 366      2FE3
 367 0f5b 65E21831 		.ascii	"e\342\0301*G\204\304\223\300\225X\213+\236x0\331Kw\254"
 367      2A4784C4 
 367      93C09558 
 367      8B2B9E78 
 367      30D94B77 
 368 0f70 9A70027A 		.ascii	"\232p\002z^np5\374\306\037\017\326\012a9\034\255\002"
 368      5E6E7035 
 368      FCC61F0F 
 368      D60A6139 
 368      1CAD02
 369 0f83 75812094 		.ascii	"u\201 \224\010\251\302\0131.Fa\004VA+ \201\333\227b"
 369      08A9C20B 
ARM GAS  /tmp/ccsenDb9.s 			page 30


 369      312E4661 
 369      0456412B 
 369      2081DB97 
 370 0f98 750835C4 		.ascii	"u\0105\304\350\3602\036"
 370      E8F0321E 
 371 0fa0 8BD5DCEA 		.ascii	"\213\325\334\352D\012\031\013q\245\034\216\210\301\210"
 371      440A190B 
 371      71A51C8E 
 371      88C188
 372 0faf 28249292 		.ascii	"($\222\222\030\021\261$>I&\022\025\215\202\320Y\\\033"
 372      1811B124 
 372      3E492612 
 372      158D82D0 
 372      595C1B
 373 0fc2 93127251 		.ascii	"\223\022rQ\215\220\220\275I\362\232\213\226H2\351%\227"
 373      8D9090BD 
 373      49F29A8B 
 373      964832E9 
 373      2597
 374 0fd4 86929164 		.ascii	"\206\222\221d\215 \207\307\210\232\315\022\276\010U"
 374      8D2087C7 
 374      889ACD12 
 374      BE0855
 375 0fe3 0A3C63B5 		.ascii	"\012<c\265QQ\362F\210\337\027WcnaP\335\017\343\374\341"
 375      5151F246 
 375      88DF1757 
 375      636E6150 
 375      DD0FE3FC 
 376 0ff8 514F8821 		.ascii	"QO\210!\371\201hX"
 376      F9816858 
 377 1000 FE55BEC8 		.ascii	"\376U\276\310\015\034\026\007\377\010\022\225\007\361"
 377      0D1C1607 
 377      FF081295 
 377      07F1
 378 100e CFA09048 		.ascii	"\317\240\220H\210\222\\Nq\036\001\202\311D)\375q/\004"
 378      88925C4E 
 378      711E0182 
 378      C94429FD 
 378      712F04
 379 1021 8C325AFD 		.ascii	"\2142Z\375CMM,\004\264F\200=\357\023e\332\3541?\001"
 379      434D4D2C 
 379      04B44680 
 379      3DEF1365 
 379      DAEC313F 
 380 1036 C071A69C 		.ascii	"\300q\246\234\324F%G\203#$\370\221\003\371\221\203\370"
 380      D4462547 
 380      832324F8 
 380      9103F991 
 380      83F8
 381 1048 9177F023 		.ascii	"\221w\360#\357\344G\016\346k\005/\375K\021nU\202\213"
 381      EFE4470E 
 381      E66B052F 
 381      FD4B116E 
 381      55828B
 382 105b 9090108B 		.ascii	"\220\220\020\213\260\373\026\223\251\003\336\011R%H"
 382      B0FB1693 
 382      A903DE09 
ARM GAS  /tmp/ccsenDb9.s 			page 31


 382      522548
 383 106a E7D3A68D 		.ascii	"\347\323\246\215\262\270 \313\242\024\305\330~}\276"
 383      B2B820CB 
 383      A214C5D8 
 383      7E7DBE
 384 1079 19740B66 		.ascii	"\031t\013f\345\366\200\200\231\001\025\305\242\001!"
 384      E5F68080 
 384      990115C5 
 384      A20121
 385 1088 5A19182D 		.ascii	"Z\031\030-\011UX\315\364\015n\214\376\007\355n\367\324"
 385      095558CD 
 385      F40D6E8C 
 385      FE07ED6E 
 385      F7D4
 386              		.text
 387              		.section	.gnu.lto_.symtab.d0f2f51e1376ddcd,"",%progbits
 388 0000 70617474 		.ascii	"patternheap\000\000\000\000\000\000\000\000\000\000"
 388      65726E68 
 388      65617000 
 388      00000000 
 388      00000000 
 389 0015 0000E201 		.ascii	"\000\000\342\001\000\000testheap1\000\000\000\000\000"
 389      00007465 
 389      73746865 
 389      61703100 
 389      00000000 
 390 0029 00000000 		.ascii	"\000\000\000\000\000\000\000\370\001\000\000test\000"
 390      000000F8 
 390      01000074 
 390      65737400 
 391 0039 00020000 		.ascii	"\000\002\000\000\000\000\000\000\000\000\000\311\001"
 391      00000000 
 391      000000C9 
 391      01
 392 0046 00006368 		.ascii	"\000\000chHeapObjectInit\000\000\002\000\000\000\000"
 392      48656170 
 392      4F626A65 
 392      6374496E 
 392      69740000 
 393 005f 00000000 		.ascii	"\000\000\000\000\000\251\000\000\000_test_assert\000"
 393      00A90000 
 393      005F7465 
 393      73745F61 
 393      73736572 
 394 0075 00020000 		.ascii	"\000\002\000\000\000\000\000\000\000\000\000\255\001"
 394      00000000 
 394      000000AD 
 394      01
 395 0082 00006368 		.ascii	"\000\000chHeapStatus\000\000\002\000\000\000\000\000"
 395      48656170 
 395      53746174 
 395      75730000 
 395      02000000 
 396 0098 00000000 		.ascii	"\000\000\000\000\265\001\000\000chHeapFree\000\000\002"
 396      B5010000 
 396      63684865 
 396      61704672 
ARM GAS  /tmp/ccsenDb9.s 			page 32


 396      65650000 
 397 00ad 00000000 		.ascii	"\000\000\000\000\000\000\000\000\000\273\001\000\000"
 397      00000000 
 397      00BB0100 
 397      00
 398 00ba 63684865 		.ascii	"chHeapAlloc\000\000\002\000\000\000\000\000\000\000"
 398      6170416C 
 398      6C6F6300 
 398      00020000 
 398      00000000 
 399 00cf 0000BF01 		.ascii	"\000\000\277\001\000\000chCoreGetStatusX\000\000\002"
 399      00006368 
 399      436F7265 
 399      47657453 
 399      74617475 
 400 00e8 00000000 		.ascii	"\000\000\000\000\000\000\000\000\000\304\001\000\000"
 400      00000000 
 400      00C40100 
 400      00
 401              		.text
 402              		.section	.gnu.lto_.opts,"",%progbits
 403 0000 272D6D63 		.ascii	"'-mcpu=cortex-m4' '-mno-thumb-interwork' '-mthumb' "
 403      70753D63 
 403      6F727465 
 403      782D6D34 
 403      2720272D 
 404 0033 272D6767 		.ascii	"'-ggdb' '-O0' '-fomit-frame-pointer' '-falign-funct"
 404      64622720 
 404      272D4F30 
 404      2720272D 
 404      666F6D69 
 405 0066 696F6E73 		.ascii	"ions=16' '-ffunction-sections' '-fdata-sections' '-"
 405      3D313627 
 405      20272D66 
 405      66756E63 
 405      74696F6E 
 406 0099 666E6F2D 		.ascii	"fno-common' '-flto'\000"
 406      636F6D6D 
 406      6F6E2720 
 406      272D666C 
 406      746F2700 
 407              		.text
 408              		.cfi_sections	.debug_frame
 409              		.section	.bss.test_heap,"aw",%nobits
 410              		.align	3
 411              		.type	test_heap, %object
 412              		.size	test_heap, 32
 413              	test_heap:
 414 0000 00000000 		.space	32
 414      00000000 
 414      00000000 
 414      00000000 
 414      00000000 
 415              		.section	.text.heap1_setup,"ax",%progbits
 416              		.align	2
 417              		.p2align 4,,15
 418              		.thumb
ARM GAS  /tmp/ccsenDb9.s 			page 33


 419              		.thumb_func
 420              		.type	heap1_setup, %function
 421              	heap1_setup:
 422              	.LFB241:
 423              		.file 1 "lib/ChibiOS_16.1.4//test/rt/testheap.c"
 424              		.loc 1 64 0
 425              		.cfi_startproc
 426              		@ args = 0, pretend = 0, frame = 0
 427              		@ frame_needed = 0, uses_anonymous_args = 0
 428 0000 08B5     		push	{r3, lr}
 429              		.cfi_def_cfa_offset 8
 430              		.cfi_offset 3, -8
 431              		.cfi_offset 14, -4
 432              		.loc 1 66 0
 433 0002 40F20000 		movw	r0, #:lower16:test_heap
 434 0006 C0F20000 		movt	r0, #:upper16:test_heap
 435 000a 40F20001 		movw	r1, #:lower16:test
 436 000e C0F20001 		movt	r1, #:upper16:test
 437 0012 4FF4E162 		mov	r2, #1800
 438 0016 FFF7FEFF 		bl	chHeapObjectInit
 439              		.loc 1 67 0
 440 001a 08BD     		pop	{r3, pc}
 441              		.cfi_endproc
 442              	.LFE241:
 443              		.size	heap1_setup, .-heap1_setup
 444 001c AFF30080 		.section	.text.heap1_execute,"ax",%progbits
 445              		.align	2
 446              		.p2align 4,,15
 447              		.thumb
 448              		.thumb_func
 449              		.type	heap1_execute, %function
 450              	heap1_execute:
 451              	.LFB242:
 452              		.loc 1 69 0
 453              		.cfi_startproc
 454              		@ args = 0, pretend = 0, frame = 24
 455              		@ frame_needed = 0, uses_anonymous_args = 0
 456 0000 00B5     		push	{lr}
 457              		.cfi_def_cfa_offset 4
 458              		.cfi_offset 14, -4
 459 0002 87B0     		sub	sp, sp, #28
 460              		.cfi_def_cfa_offset 32
 461              		.loc 1 74 0
 462 0004 FFF7FEFF 		bl	chCoreGetStatusX
 463              		.loc 1 80 0
 464 0008 01AB     		add	r3, sp, #4
 465 000a 0020     		movs	r0, #0
 466 000c 1946     		mov	r1, r3
 467 000e FFF7FEFF 		bl	chHeapStatus
 468              		.loc 1 81 0
 469 0012 0020     		movs	r0, #0
 470 0014 1021     		movs	r1, #16
 471 0016 FFF7FEFF 		bl	chHeapAlloc
 472 001a 0590     		str	r0, [sp, #20]
 473              		.loc 1 82 0
 474 001c 059B     		ldr	r3, [sp, #20]
 475 001e 002B     		cmp	r3, #0
ARM GAS  /tmp/ccsenDb9.s 			page 34


 476 0020 0CBF     		ite	eq
 477 0022 0023     		moveq	r3, #0
 478 0024 0123     		movne	r3, #1
 479 0026 DBB2     		uxtb	r3, r3
 480 0028 0120     		movs	r0, #1
 481 002a 1946     		mov	r1, r3
 482 002c FFF7FEFF 		bl	_test_assert
 483 0030 0346     		mov	r3, r0
 484 0032 002B     		cmp	r3, #0
 485 0034 00D0     		beq	.L3
 486              		.loc 1 82 0 is_stmt 0 discriminator 1
 487 0036 99E1     		b	.L2
 488              	.L3:
 489              		.loc 1 83 0 is_stmt 1
 490 0038 0598     		ldr	r0, [sp, #20]
 491 003a FFF7FEFF 		bl	chHeapFree
 492              		.loc 1 84 0
 493 003e 0020     		movs	r0, #0
 494 0040 6FF0FF01 		mvn	r1, #255
 495 0044 FFF7FEFF 		bl	chHeapAlloc
 496 0048 0590     		str	r0, [sp, #20]
 497              		.loc 1 85 0
 498 004a 059B     		ldr	r3, [sp, #20]
 499 004c 002B     		cmp	r3, #0
 500 004e 14BF     		ite	ne
 501 0050 0023     		movne	r3, #0
 502 0052 0123     		moveq	r3, #1
 503 0054 DBB2     		uxtb	r3, r3
 504 0056 0220     		movs	r0, #2
 505 0058 1946     		mov	r1, r3
 506 005a FFF7FEFF 		bl	_test_assert
 507 005e 0346     		mov	r3, r0
 508 0060 002B     		cmp	r3, #0
 509 0062 00D0     		beq	.L5
 510              		.loc 1 85 0 is_stmt 0 discriminator 1
 511 0064 82E1     		b	.L2
 512              	.L5:
 513              		.loc 1 88 0 is_stmt 1
 514 0066 01AB     		add	r3, sp, #4
 515 0068 40F20000 		movw	r0, #:lower16:test_heap
 516 006c C0F20000 		movt	r0, #:upper16:test_heap
 517 0070 1946     		mov	r1, r3
 518 0072 FFF7FEFF 		bl	chHeapStatus
 519              		.loc 1 91 0
 520 0076 40F20000 		movw	r0, #:lower16:test_heap
 521 007a C0F20000 		movt	r0, #:upper16:test_heap
 522 007e 1021     		movs	r1, #16
 523 0080 FFF7FEFF 		bl	chHeapAlloc
 524 0084 0590     		str	r0, [sp, #20]
 525              		.loc 1 92 0
 526 0086 40F20000 		movw	r0, #:lower16:test_heap
 527 008a C0F20000 		movt	r0, #:upper16:test_heap
 528 008e 1021     		movs	r1, #16
 529 0090 FFF7FEFF 		bl	chHeapAlloc
 530 0094 0490     		str	r0, [sp, #16]
 531              		.loc 1 93 0
 532 0096 40F20000 		movw	r0, #:lower16:test_heap
ARM GAS  /tmp/ccsenDb9.s 			page 35


 533 009a C0F20000 		movt	r0, #:upper16:test_heap
 534 009e 1021     		movs	r1, #16
 535 00a0 FFF7FEFF 		bl	chHeapAlloc
 536 00a4 0390     		str	r0, [sp, #12]
 537              		.loc 1 94 0
 538 00a6 0598     		ldr	r0, [sp, #20]
 539 00a8 FFF7FEFF 		bl	chHeapFree
 540              		.loc 1 95 0
 541 00ac 0498     		ldr	r0, [sp, #16]
 542 00ae FFF7FEFF 		bl	chHeapFree
 543              		.loc 1 96 0
 544 00b2 0398     		ldr	r0, [sp, #12]
 545 00b4 FFF7FEFF 		bl	chHeapFree
 546              		.loc 1 97 0
 547 00b8 02AB     		add	r3, sp, #8
 548 00ba 40F20000 		movw	r0, #:lower16:test_heap
 549 00be C0F20000 		movt	r0, #:upper16:test_heap
 550 00c2 1946     		mov	r1, r3
 551 00c4 FFF7FEFF 		bl	chHeapStatus
 552 00c8 0346     		mov	r3, r0
 553 00ca 012B     		cmp	r3, #1
 554 00cc 14BF     		ite	ne
 555 00ce 0023     		movne	r3, #0
 556 00d0 0123     		moveq	r3, #1
 557 00d2 DBB2     		uxtb	r3, r3
 558 00d4 0320     		movs	r0, #3
 559 00d6 1946     		mov	r1, r3
 560 00d8 FFF7FEFF 		bl	_test_assert
 561 00dc 0346     		mov	r3, r0
 562 00de 002B     		cmp	r3, #0
 563 00e0 00D0     		beq	.L6
 564              		.loc 1 97 0 is_stmt 0 discriminator 1
 565 00e2 43E1     		b	.L2
 566              	.L6:
 567              		.loc 1 100 0 is_stmt 1
 568 00e4 40F20000 		movw	r0, #:lower16:test_heap
 569 00e8 C0F20000 		movt	r0, #:upper16:test_heap
 570 00ec 1021     		movs	r1, #16
 571 00ee FFF7FEFF 		bl	chHeapAlloc
 572 00f2 0590     		str	r0, [sp, #20]
 573              		.loc 1 101 0
 574 00f4 40F20000 		movw	r0, #:lower16:test_heap
 575 00f8 C0F20000 		movt	r0, #:upper16:test_heap
 576 00fc 1021     		movs	r1, #16
 577 00fe FFF7FEFF 		bl	chHeapAlloc
 578 0102 0490     		str	r0, [sp, #16]
 579              		.loc 1 102 0
 580 0104 40F20000 		movw	r0, #:lower16:test_heap
 581 0108 C0F20000 		movt	r0, #:upper16:test_heap
 582 010c 1021     		movs	r1, #16
 583 010e FFF7FEFF 		bl	chHeapAlloc
 584 0112 0390     		str	r0, [sp, #12]
 585              		.loc 1 103 0
 586 0114 0398     		ldr	r0, [sp, #12]
 587 0116 FFF7FEFF 		bl	chHeapFree
 588              		.loc 1 104 0
 589 011a 0498     		ldr	r0, [sp, #16]
ARM GAS  /tmp/ccsenDb9.s 			page 36


 590 011c FFF7FEFF 		bl	chHeapFree
 591              		.loc 1 105 0
 592 0120 0598     		ldr	r0, [sp, #20]
 593 0122 FFF7FEFF 		bl	chHeapFree
 594              		.loc 1 106 0
 595 0126 02AB     		add	r3, sp, #8
 596 0128 40F20000 		movw	r0, #:lower16:test_heap
 597 012c C0F20000 		movt	r0, #:upper16:test_heap
 598 0130 1946     		mov	r1, r3
 599 0132 FFF7FEFF 		bl	chHeapStatus
 600 0136 0346     		mov	r3, r0
 601 0138 012B     		cmp	r3, #1
 602 013a 14BF     		ite	ne
 603 013c 0023     		movne	r3, #0
 604 013e 0123     		moveq	r3, #1
 605 0140 DBB2     		uxtb	r3, r3
 606 0142 0420     		movs	r0, #4
 607 0144 1946     		mov	r1, r3
 608 0146 FFF7FEFF 		bl	_test_assert
 609 014a 0346     		mov	r3, r0
 610 014c 002B     		cmp	r3, #0
 611 014e 00D0     		beq	.L7
 612              		.loc 1 106 0 is_stmt 0 discriminator 1
 613 0150 0CE1     		b	.L2
 614              	.L7:
 615              		.loc 1 109 0 is_stmt 1
 616 0152 40F20000 		movw	r0, #:lower16:test_heap
 617 0156 C0F20000 		movt	r0, #:upper16:test_heap
 618 015a 1121     		movs	r1, #17
 619 015c FFF7FEFF 		bl	chHeapAlloc
 620 0160 0590     		str	r0, [sp, #20]
 621              		.loc 1 110 0
 622 0162 40F20000 		movw	r0, #:lower16:test_heap
 623 0166 C0F20000 		movt	r0, #:upper16:test_heap
 624 016a 1021     		movs	r1, #16
 625 016c FFF7FEFF 		bl	chHeapAlloc
 626 0170 0490     		str	r0, [sp, #16]
 627              		.loc 1 111 0
 628 0172 0598     		ldr	r0, [sp, #20]
 629 0174 FFF7FEFF 		bl	chHeapFree
 630              		.loc 1 112 0
 631 0178 02AB     		add	r3, sp, #8
 632 017a 40F20000 		movw	r0, #:lower16:test_heap
 633 017e C0F20000 		movt	r0, #:upper16:test_heap
 634 0182 1946     		mov	r1, r3
 635 0184 FFF7FEFF 		bl	chHeapStatus
 636 0188 0346     		mov	r3, r0
 637 018a 022B     		cmp	r3, #2
 638 018c 14BF     		ite	ne
 639 018e 0023     		movne	r3, #0
 640 0190 0123     		moveq	r3, #1
 641 0192 DBB2     		uxtb	r3, r3
 642 0194 0520     		movs	r0, #5
 643 0196 1946     		mov	r1, r3
 644 0198 FFF7FEFF 		bl	_test_assert
 645 019c 0346     		mov	r3, r0
 646 019e 002B     		cmp	r3, #0
ARM GAS  /tmp/ccsenDb9.s 			page 37


 647 01a0 00D0     		beq	.L8
 648              		.loc 1 112 0 is_stmt 0 discriminator 1
 649 01a2 E3E0     		b	.L2
 650              	.L8:
 651              		.loc 1 113 0 is_stmt 1
 652 01a4 40F20000 		movw	r0, #:lower16:test_heap
 653 01a8 C0F20000 		movt	r0, #:upper16:test_heap
 654 01ac 1021     		movs	r1, #16
 655 01ae FFF7FEFF 		bl	chHeapAlloc
 656 01b2 0590     		str	r0, [sp, #20]
 657              		.loc 1 116 0
 658 01b4 02AB     		add	r3, sp, #8
 659 01b6 40F20000 		movw	r0, #:lower16:test_heap
 660 01ba C0F20000 		movt	r0, #:upper16:test_heap
 661 01be 1946     		mov	r1, r3
 662 01c0 FFF7FEFF 		bl	chHeapStatus
 663 01c4 0346     		mov	r3, r0
 664 01c6 012B     		cmp	r3, #1
 665 01c8 0AD0     		beq	.L9
 666              		.loc 1 116 0 is_stmt 0 discriminator 2
 667 01ca 02AB     		add	r3, sp, #8
 668 01cc 40F20000 		movw	r0, #:lower16:test_heap
 669 01d0 C0F20000 		movt	r0, #:upper16:test_heap
 670 01d4 1946     		mov	r1, r3
 671 01d6 FFF7FEFF 		bl	chHeapStatus
 672 01da 0346     		mov	r3, r0
 673 01dc 022B     		cmp	r3, #2
 674 01de 01D1     		bne	.L10
 675              	.L9:
 676              		.loc 1 116 0 discriminator 1
 677 01e0 0123     		movs	r3, #1
 678 01e2 00E0     		b	.L11
 679              	.L10:
 680              		.loc 1 116 0 discriminator 3
 681 01e4 0023     		movs	r3, #0
 682              	.L11:
 683              		.loc 1 116 0 discriminator 4
 684 01e6 03F00103 		and	r3, r3, #1
 685 01ea DBB2     		uxtb	r3, r3
 686 01ec 0620     		movs	r0, #6
 687 01ee 1946     		mov	r1, r3
 688 01f0 FFF7FEFF 		bl	_test_assert
 689 01f4 0346     		mov	r3, r0
 690 01f6 002B     		cmp	r3, #0
 691 01f8 00D0     		beq	.L12
 692              		.loc 1 116 0 discriminator 1
 693 01fa B7E0     		b	.L2
 694              	.L12:
 695              		.loc 1 118 0 is_stmt 1
 696 01fc 0498     		ldr	r0, [sp, #16]
 697 01fe FFF7FEFF 		bl	chHeapFree
 698              		.loc 1 119 0
 699 0202 0598     		ldr	r0, [sp, #20]
 700 0204 FFF7FEFF 		bl	chHeapFree
 701              		.loc 1 120 0
 702 0208 02AB     		add	r3, sp, #8
 703 020a 40F20000 		movw	r0, #:lower16:test_heap
ARM GAS  /tmp/ccsenDb9.s 			page 38


 704 020e C0F20000 		movt	r0, #:upper16:test_heap
 705 0212 1946     		mov	r1, r3
 706 0214 FFF7FEFF 		bl	chHeapStatus
 707 0218 0346     		mov	r3, r0
 708 021a 012B     		cmp	r3, #1
 709 021c 14BF     		ite	ne
 710 021e 0023     		movne	r3, #0
 711 0220 0123     		moveq	r3, #1
 712 0222 DBB2     		uxtb	r3, r3
 713 0224 0720     		movs	r0, #7
 714 0226 1946     		mov	r1, r3
 715 0228 FFF7FEFF 		bl	_test_assert
 716 022c 0346     		mov	r3, r0
 717 022e 002B     		cmp	r3, #0
 718 0230 00D0     		beq	.L13
 719              		.loc 1 120 0 is_stmt 0 discriminator 1
 720 0232 9BE0     		b	.L2
 721              	.L13:
 722              		.loc 1 123 0 is_stmt 1
 723 0234 40F20000 		movw	r0, #:lower16:test_heap
 724 0238 C0F20000 		movt	r0, #:upper16:test_heap
 725 023c 1021     		movs	r1, #16
 726 023e FFF7FEFF 		bl	chHeapAlloc
 727 0242 0590     		str	r0, [sp, #20]
 728              		.loc 1 124 0
 729 0244 40F20000 		movw	r0, #:lower16:test_heap
 730 0248 C0F20000 		movt	r0, #:upper16:test_heap
 731 024c 1021     		movs	r1, #16
 732 024e FFF7FEFF 		bl	chHeapAlloc
 733 0252 0490     		str	r0, [sp, #16]
 734              		.loc 1 125 0
 735 0254 0598     		ldr	r0, [sp, #20]
 736 0256 FFF7FEFF 		bl	chHeapFree
 737              		.loc 1 126 0
 738 025a 02AB     		add	r3, sp, #8
 739 025c 40F20000 		movw	r0, #:lower16:test_heap
 740 0260 C0F20000 		movt	r0, #:upper16:test_heap
 741 0264 1946     		mov	r1, r3
 742 0266 FFF7FEFF 		bl	chHeapStatus
 743 026a 0346     		mov	r3, r0
 744 026c 022B     		cmp	r3, #2
 745 026e 14BF     		ite	ne
 746 0270 0023     		movne	r3, #0
 747 0272 0123     		moveq	r3, #1
 748 0274 DBB2     		uxtb	r3, r3
 749 0276 0820     		movs	r0, #8
 750 0278 1946     		mov	r1, r3
 751 027a FFF7FEFF 		bl	_test_assert
 752 027e 0346     		mov	r3, r0
 753 0280 002B     		cmp	r3, #0
 754 0282 00D0     		beq	.L14
 755              		.loc 1 126 0 is_stmt 0 discriminator 1
 756 0284 72E0     		b	.L2
 757              	.L14:
 758              		.loc 1 127 0 is_stmt 1
 759 0286 40F20000 		movw	r0, #:lower16:test_heap
 760 028a C0F20000 		movt	r0, #:upper16:test_heap
ARM GAS  /tmp/ccsenDb9.s 			page 39


 761 028e 2021     		movs	r1, #32
 762 0290 FFF7FEFF 		bl	chHeapAlloc
 763 0294 0590     		str	r0, [sp, #20]
 764              		.loc 1 128 0
 765 0296 0598     		ldr	r0, [sp, #20]
 766 0298 FFF7FEFF 		bl	chHeapFree
 767              		.loc 1 129 0
 768 029c 0498     		ldr	r0, [sp, #16]
 769 029e FFF7FEFF 		bl	chHeapFree
 770              		.loc 1 130 0
 771 02a2 02AB     		add	r3, sp, #8
 772 02a4 40F20000 		movw	r0, #:lower16:test_heap
 773 02a8 C0F20000 		movt	r0, #:upper16:test_heap
 774 02ac 1946     		mov	r1, r3
 775 02ae FFF7FEFF 		bl	chHeapStatus
 776 02b2 0346     		mov	r3, r0
 777 02b4 012B     		cmp	r3, #1
 778 02b6 14BF     		ite	ne
 779 02b8 0023     		movne	r3, #0
 780 02ba 0123     		moveq	r3, #1
 781 02bc DBB2     		uxtb	r3, r3
 782 02be 0920     		movs	r0, #9
 783 02c0 1946     		mov	r1, r3
 784 02c2 FFF7FEFF 		bl	_test_assert
 785 02c6 0346     		mov	r3, r0
 786 02c8 002B     		cmp	r3, #0
 787 02ca 00D0     		beq	.L15
 788              		.loc 1 130 0 is_stmt 0 discriminator 1
 789 02cc 4EE0     		b	.L2
 790              	.L15:
 791              		.loc 1 133 0 is_stmt 1
 792 02ce 02AB     		add	r3, sp, #8
 793 02d0 40F20000 		movw	r0, #:lower16:test_heap
 794 02d4 C0F20000 		movt	r0, #:upper16:test_heap
 795 02d8 1946     		mov	r1, r3
 796 02da FFF7FEFF 		bl	chHeapStatus
 797              		.loc 1 134 0
 798 02de 029B     		ldr	r3, [sp, #8]
 799 02e0 40F20000 		movw	r0, #:lower16:test_heap
 800 02e4 C0F20000 		movt	r0, #:upper16:test_heap
 801 02e8 1946     		mov	r1, r3
 802 02ea FFF7FEFF 		bl	chHeapAlloc
 803 02ee 0590     		str	r0, [sp, #20]
 804              		.loc 1 135 0
 805 02f0 02AB     		add	r3, sp, #8
 806 02f2 40F20000 		movw	r0, #:lower16:test_heap
 807 02f6 C0F20000 		movt	r0, #:upper16:test_heap
 808 02fa 1946     		mov	r1, r3
 809 02fc FFF7FEFF 		bl	chHeapStatus
 810 0300 0346     		mov	r3, r0
 811 0302 002B     		cmp	r3, #0
 812 0304 14BF     		ite	ne
 813 0306 0023     		movne	r3, #0
 814 0308 0123     		moveq	r3, #1
 815 030a DBB2     		uxtb	r3, r3
 816 030c 0A20     		movs	r0, #10
 817 030e 1946     		mov	r1, r3
ARM GAS  /tmp/ccsenDb9.s 			page 40


 818 0310 FFF7FEFF 		bl	_test_assert
 819 0314 0346     		mov	r3, r0
 820 0316 002B     		cmp	r3, #0
 821 0318 00D0     		beq	.L16
 822              		.loc 1 135 0 is_stmt 0 discriminator 1
 823 031a 27E0     		b	.L2
 824              	.L16:
 825              		.loc 1 136 0 is_stmt 1
 826 031c 0598     		ldr	r0, [sp, #20]
 827 031e FFF7FEFF 		bl	chHeapFree
 828              		.loc 1 138 0
 829 0322 02AB     		add	r3, sp, #8
 830 0324 40F20000 		movw	r0, #:lower16:test_heap
 831 0328 C0F20000 		movt	r0, #:upper16:test_heap
 832 032c 1946     		mov	r1, r3
 833 032e FFF7FEFF 		bl	chHeapStatus
 834 0332 0346     		mov	r3, r0
 835 0334 012B     		cmp	r3, #1
 836 0336 14BF     		ite	ne
 837 0338 0023     		movne	r3, #0
 838 033a 0123     		moveq	r3, #1
 839 033c DBB2     		uxtb	r3, r3
 840 033e 0B20     		movs	r0, #11
 841 0340 1946     		mov	r1, r3
 842 0342 FFF7FEFF 		bl	_test_assert
 843 0346 0346     		mov	r3, r0
 844 0348 002B     		cmp	r3, #0
 845 034a 00D0     		beq	.L17
 846              		.loc 1 138 0 is_stmt 0 discriminator 1
 847 034c 0EE0     		b	.L2
 848              	.L17:
 849              		.loc 1 139 0 is_stmt 1
 850 034e 029A     		ldr	r2, [sp, #8]
 851 0350 019B     		ldr	r3, [sp, #4]
 852 0352 9A42     		cmp	r2, r3
 853 0354 14BF     		ite	ne
 854 0356 0023     		movne	r3, #0
 855 0358 0123     		moveq	r3, #1
 856 035a DBB2     		uxtb	r3, r3
 857 035c 0C20     		movs	r0, #12
 858 035e 1946     		mov	r1, r3
 859 0360 FFF7FEFF 		bl	_test_assert
 860 0364 0346     		mov	r3, r0
 861 0366 002B     		cmp	r3, #0
 862 0368 00D0     		beq	.L2
 863 036a 00BF     		nop
 864              	.L2:
 865              		.loc 1 140 0
 866 036c 07B0     		add	sp, sp, #28
 867              		@ sp needed
 868 036e 5DF804FB 		ldr	pc, [sp], #4
 869              		.cfi_endproc
 870              	.LFE242:
 871              		.size	heap1_execute, .-heap1_execute
 872              		.global	testheap1
 873 0372 00BFAFF3 		.section	.rodata
 873      0080AFF3 
ARM GAS  /tmp/ccsenDb9.s 			page 41


 873      0080AFF3 
 873      0080
 874              		.align	2
 875              	.LC0:
 876 0000 48656170 		.ascii	"Heap, allocation and fragmentation test\000"
 876      2C20616C 
 876      6C6F6361 
 876      74696F6E 
 876      20616E64 
 877              		.section	.rodata.testheap1,"a",%progbits
 878              		.align	2
 879              		.type	testheap1, %object
 880              		.size	testheap1, 16
 881              	testheap1:
 882 0000 00000000 		.word	.LC0
 883 0004 00000000 		.word	heap1_setup
 884 0008 00000000 		.word	0
 885 000c 00000000 		.word	heap1_execute
 886              		.global	patternheap
 887              		.section	.rodata.patternheap,"a",%progbits
 888              		.align	2
 889              		.type	patternheap, %object
 890              		.size	patternheap, 8
 891              	patternheap:
 892 0000 00000000 		.word	testheap1
 893 0004 00000000 		.word	0
 894              		.text
 895              	.Letext0:
 896              		.file 2 "/usr/lib/gcc/arm-none-eabi/4.8.2/include/stddef.h"
 897              		.file 3 "/usr/include/newlib/machine/_default_types.h"
 898              		.file 4 "/usr/include/newlib/stdint.h"
 899              		.file 5 "lib/ChibiOS_16.1.4//os/rt/ports/ARMCMx/compilers/GCC/chtypes.h"
 900              		.file 6 "lib/ChibiOS_16.1.4//os/rt/include/chsystypes.h"
 901              		.file 7 "lib/ChibiOS_16.1.4//os/rt/include/chschd.h"
 902              		.file 8 "lib/ChibiOS_16.1.4//os/rt/ports/ARMCMx/chcore.h"
 903              		.file 9 "lib/ChibiOS_16.1.4//os/rt/ports/ARMCMx/chcore_v7m.h"
 904              		.file 10 "lib/ChibiOS_16.1.4//os/rt/include/chdebug.h"
 905              		.file 11 "lib/ChibiOS_16.1.4//os/rt/include/chtm.h"
 906              		.file 12 "lib/ChibiOS_16.1.4//os/rt/include/chstats.h"
 907              		.file 13 "lib/ChibiOS_16.1.4//os/rt/include/chsem.h"
 908              		.file 14 "lib/ChibiOS_16.1.4//os/rt/include/chmtx.h"
 909              		.file 15 "lib/ChibiOS_16.1.4//os/rt/include/chmemcore.h"
 910              		.file 16 "lib/ChibiOS_16.1.4//os/rt/include/chheap.h"
 911              		.file 17 "lib/ChibiOS_16.1.4//test/rt/test.h"
 912              		.file 18 "lib/ChibiOS_16.1.4//os/ext/CMSIS/include/core_cm4.h"