ARM GAS  /tmp/ccfeOUca.s 			page 1


   1              		.syntax unified
   2              		.cpu cortex-m4
   3              		.fpu softvfp
   4              		.eabi_attribute 20, 1
   5              		.eabi_attribute 21, 1
   6              		.eabi_attribute 23, 3
   7              		.eabi_attribute 24, 1
   8              		.eabi_attribute 25, 1
   9              		.eabi_attribute 26, 1
  10              		.eabi_attribute 30, 6
  11              		.eabi_attribute 34, 1
  12              		.eabi_attribute 18, 4
  13              		.thumb
  14              		.file	"testthd.c"
  15              		.text
  16              	.Ltext0:
  17              		.section	.gnu.lto_.inline.cf4418541a8b8b3a,"",%progbits
  18 0000 789C6362 		.ascii	"x\234cb`b\300\006\016@\205\371\031\030X\230\031\030"
  18      6062C006 
  18      0E4085F9 
  18      19185898 
  18      1918
  19 0012 98583EE8 		.ascii	"\230X>\3501\260@\3242b\2100a\21003\260\362\002E\230"
  19      31B040D4 
  19      32628830 
  19      61883033 
  19      B0F20245 
  20 0027 16C8C3D5 		.ascii	"\026\310\303\325p\003\011\026\354\302\254\030\372\331"
  20      70030916 
  20      ECC2AC18 
  20      FAD9
  21 0035 19D8F8D0 		.ascii	"\031\330\370\320\354\000)\344\300.\314\311p\214a##\220"
  21      EC0029E4 
  21      C02ECCC9 
  21      708C6123 
  21      2390
  22 0047 A3F26105 		.ascii	"\243\362a\005\023L\206\205\027\344V.\220a\0020\205\304"
  22      134C8685 
  22      17E4562E 
  22      90610230 
  22      85C4
  23 0059 B27818D8 		.ascii	"\262x\030\330\024P\335\0116\010A\3602\010\232\000\025"
  23      1450DD09 
  23      360841F0 
  23      32089A00 
  23      15
  24 006a 887C58CD 		.ascii	"\210|X\315\210\242\002\254\033\241\214\237\3414\303"
  24      88A202AC 
  24      1BA18C9F 
  24      E134C3
  25 0079 4590C3D4 		.ascii	"E\220\303\324\016\354\300\3420\204j\204\325$\271X\200"
  25      0EECC0E2 
  25      30846A84 
  25      D524B958 
  25      80
  26 008a 815D118B 		.ascii	"\201]\021\213;\021\006\0112t1N\007\205m\316\206\333"
  26      3B110609 
ARM GAS  /tmp/ccfeOUca.s 			page 2


  26      3274314E 
  26      07856DCE 
  26      86DB
  27 009c 6C986A10 		.ascii	"l\230j\020\012\301\216\202\304\021*\213\231\207\004"
  27      0AC18E82 
  27      C4112A8B 
  27      998704
  28 00ab 5934DB89 		.ascii	"Y4\333\2110\012,\006\346\0121X\254\001\005\225\322\202"
  28      300A2C06 
  28      E60A3158 
  28      AC010595 
  28      D282
  29 00bd 99F0A062 		.ascii	"\231\360\240b\345Cq)I\\\260\013\030\000]\317\036\374"
  29      E5437129 
  29      495CB00B 
  29      18005DCF 
  29      1EFC
  30              		.text
  31              		.section	.gnu.lto_port_lock.cf4418541a8b8b3a,"",%progbits
  32 0000 789C6362 		.ascii	"x\234cb`b@\007\"@,\314\310\3000\001\304af`\004\252`"
  32      60624007 
  32      22402CCC 
  32      C8C03001 
  32      C4616660 
  33 0017 6462040A 		.ascii	"db\004\012002\32431\326G\202\230\014\214J\014\013\033"
  33      303032D4 
  33      3331D647 
  33      82980C8C 
  33      4A0C0B1B 
  34 002b 1A263D68 		.ascii	"\032&=h}\366\230if\303\201\226\005\015\177\376\377g"
  34      7DF69869 
  34      66C38196 
  34      050D7FFE 
  34      FF67
  35 003d 64CC6404 		.ascii	"d\314d\004\232h\316\310\220\314\310\020\001\3440*\200"
  35      9A68CEC8 
  35      90CCC810 
  35      01E4302A 
  35      80
  36 004e 29261654 		.ascii	")&\026T+\3263\035x\360\377\377\211\316\347{\201&3$2"
  36      2BD6331D 
  36      78F0FFFF 
  36      89CEE77B 
  36      81263324 
  37 0063 2E049A06 		.ascii	".\004\232\006\004\254\014-\015\015\023\024\030@\272"
  37      04AC0C2D 
  37      0D0D1314 
  37      1840BA
  38 0072 8120044C 		.ascii	"\201 \004L\206\202\034\300|\226\241i\007\220Ngd\004"
  38      86821CC0 
  38      7C96A169 
  38      07904E67 
  38      6404
  39 0084 99C70054 		.ascii	"\231\307\000T\303p\216\241\351\343\337\031\217%\340"
  39      C3708EA1 
  39      E9E3DF19 
  39      8F25E0
ARM GAS  /tmp/ccfeOUca.s 			page 3


  40 0093 BAC08C86 		.ascii	"\272\300\214\206\003\335W\332YaF&2.fd\005\032\007q2"
  40      03DD57DA 
  40      59614626 
  40      322E6664 
  40      051A0771 
  41 00a8 10963283 		.ascii	"\020\2262\203|\314\014\361\266\034C\033\343\334\206"
  41      7CCC0CF1 
  41      B61C431B 
  41      E3DC86
  42 00b7 190E998C 		.ascii	"\031\016\231\214\314 n:X\031\\\256\023*\007u\373E\206"
  42      CC206E3A 
  42      58195CAE 
  42      132A0775 
  42      FB4586
  43 00ca C6073BF5 		.ascii	"\306\007;\365!\006\302@\010H\007H\271INf\222\276sFf"
  43      2106C240 
  43      08480748 
  43      B9494E66 
  43      92BE7346 
  44 00df 52A67F70 		.ascii	"R\246\177p\274\241\231\236\241\236\211\276~~\261~Q\211"
  44      BCA1999E 
  44      A19E89BE 
  44      7E7EB17E 
  44      5189
  45 00f1 7E417E51 		.ascii	"~A~QI\261\276c\220\257\263o\205~rFr~Qj|\231y\256^\006"
  45      49B1BE63 
  45      90AFB36F 
  45      857E7246 
  45      727E516A 
  46 010b 036B5962 		.ascii	"\003kYbNi\2529\016\255\251\025%\372\316\276\301\236"
  46      4E69AA39 
  46      0EADA915 
  46      25FACEBE 
  46      C19E
  47 011d C1FA9979 		.ascii	"\301\372\231y\3119\245)\251\372`\255\311\271n\245y\311"
  47      C939A529 
  47      A9FA60AD 
  47      C9B96EA5 
  47      79C9
  48 012f 40DD02BE 		.ascii	"@\335\002\276\301A\012I\211\305\251\005E\231:\012\252"
  48      C1410A49 
  48      89C5A905 
  48      45993A0A 
  48      AA
  49 0140 060C4C45 		.ascii	"\006\014LE\014\354\271\251\271\371E\225\014\000\027"
  49      0CECB9A9 
  49      B9F94595 
  49      0C0017
  50 014f 1D670F   		.ascii	"\035g\017"
  51              		.text
  52              		.section	.gnu.lto_port_unlock.cf4418541a8b8b3a,"",%progbits
  53 0000 789C6362 		.ascii	"x\234cb`b@\007\"@,\314\310\3000\001\304af`\004\252`"
  53      60624007 
  53      22402CCC 
  53      C8C03001 
  53      C4616660 
  54 0017 6462040A 		.ascii	"db\004\012002\32431\326G\202\230\014\214J\014\013\033"
ARM GAS  /tmp/ccfeOUca.s 			page 4


  54      303032D4 
  54      3331D647 
  54      82980C8C 
  54      4A0C0B1B 
  55 002b 1A263D68 		.ascii	"\032&=h\375\364\230if\303\201\226\005\015\177\376\377"
  55      FDF49869 
  55      66C38196 
  55      050D7FFE 
  55      FF
  56 003c 6764CC64 		.ascii	"gd\314d\004\232h\316\310\220\314\310\020\001\3440*\200"
  56      049A68CE 
  56      C890CCC8 
  56      1001E430 
  56      2A80
  57 004e 29261654 		.ascii	")&\026T+\3263\035x\360\377\377\213\316\375\373\200&"
  57      2BD6331D 
  57      78F0FFFF 
  57      8BCEFDFB 
  57      8026
  58 0060 3324322E 		.ascii	"3$2.\004\232\006\004\254\014-\015\015\023\024\030@\272"
  58      049A0604 
  58      AC0C2D0D 
  58      0D131418 
  58      40BA
  59 0072 8120044C 		.ascii	"\201 \004L\206\202\034\300|\226\241i\007\220Ngd\004"
  59      86821CC0 
  59      7C96A169 
  59      07904E67 
  59      6404
  60 0084 990736E4 		.ascii	"\231\0076\344\034C\323\307\2773\036K\300u\201\031\015"
  60      1C43D3C7 
  60      BF331E4B 
  60      C0758119 
  60      0D
  61 0095 074E3F6D 		.ascii	"\007N?mg\205\031\231\310\270\230\221\025h\034\304\311"
  61      67851999 
  61      C8B89891 
  61      15681CC4 
  61      C9
  62 00a6 4058CA0C 		.ascii	"@X\312\014\36213\304\333r\014m\214s\033f8d22\203\270"
  62      F23133C4 
  62      DB720C6D 
  62      8C731B66 
  62      38643232 
  63 00bc E9606570 		.ascii	"\351`ep\271N\250\034\324\355\027\031\032\037\234\327"
  63      B94EA81C 
  63      D4ED1719 
  63      1A1F9CD7 
  64 00cc 87180803 		.ascii	"\207\030\010\003! \035 \345&9\231I\372\316\031\231I"
  64      21201D20 
  64      E5263999 
  64      49FACE19 
  64      9949
  65 00de 99FEC1F1 		.ascii	"\231\376\301\361\206fz\206z&\372\372\371\305\372E%\372"
  65      86667A86 
  65      7A26FAFA 
  65      F9C5FA45 
ARM GAS  /tmp/ccfeOUca.s 			page 5


  65      25FA
  66 00f0 05F94525 		.ascii	"\005\371E%\305\372\216A\276\316\276\025\372\311\031"
  66      C5FA8E41 
  66      BECEBE15 
  66      FAC919
  67 00ff C9F945A9 		.ascii	"\311\371E\251\361e\346\271z\031\014\254e\2119\245\251"
  67      F165E6B9 
  67      7A190CAC 
  67      658939A5 
  67      A9
  68 0110 E638B4A6 		.ascii	"\3468\264\246V\224\350;\373\006{\006\353g\346%\347\224"
  68      5694E83B 
  68      FB067B06 
  68      EB67E625 
  68      E794
  69 0122 A6A4EA83 		.ascii	"\246\244\352\203\265&\347\272\225\346%\003u\013\370"
  69      B526E7BA 
  69      95E62503 
  69      750BF8
  70 0131 06072924 		.ascii	"\006\007)$%\026\247\026\024e\352(\250\03200\0251\260"
  70      2516A716 
  70      1465EA28 
  70      A81A3030 
  70      1531B0
  71 0144 E7A6E6E6 		.ascii	"\347\246\346\346\027U2\000\000]Vg["
  71      17553200 
  71      005D5667 
  71      5B
  72              		.text
  73              		.section	.gnu.lto_st_lld_get_counter.cf4418541a8b8b3a,"",%progbits
  74 0000 789C6362 		.ascii	"x\234cb`b@\007\322@l\314\310\300`\003\342\26000\002"
  74      60624007 
  74      D2406CCC 
  74      C8C06003 
  74      E2B03030 
  75 0015 55303231 		.ascii	"U0212\003IfF\2400\003#C=\0233c}$\210\315\300\244\304"
  75      32034966 
  75      46A03003 
  75      23433D13 
  75      33637D24 
  76 002e B0B0A161 		.ascii	"\260\260\241a\326\203\245\313gJv-h\232\320\360\357\377"
  76      D683A5CB 
  76      674A762D 
  76      689AD0F0 
  76      EFFF
  77 0040 7FC64C90 		.ascii	"\177\306L\220T2#C\004\220\305\250\000\246\230XP-\001"
  77      54322343 
  77      0490C5A8 
  77      00A69858 
  77      502D01
  78 0053 6B9BD430 		.ascii	"k\233\3240\371i\300\211\206\226\003\377\377\333g\202"
  78      F969C089 
  78      869603FF 
  78      FFDB6782 
  79 0063 6CC0AF67 		.ascii	"l\300\257g=\323\201\007\377\377\357\271\274\342\361"
  79      3DD38107 
  79      FFFFEFB9 
ARM GAS  /tmp/ccfeOUca.s 			page 6


  79      BCE2F1
  80 0072 3C462166 		.ascii	"<F!fF\006\240\026&\006\260]\014\254\014-\015\015\023"
  80      4606A016 
  80      2606B05D 
  80      0CAC0C2D 
  80      0D0D13
  81 0085 14C02600 		.ascii	"\024\300&\000A\010\230\014\0059\235\371,C\323\216\035"
  81      4108980C 
  81      05399DF9 
  81      2C43D38E 
  81      1D
  82 0096 CB4FB224 		.ascii	"\313O\262$2.fdeHgd\004\031\315\334\000\004 \343\317"
  82      322E6664 
  82      65486764 
  82      0419CDDC 
  82      000420E3 
  83 00ab 321CBA55 		.ascii	"2\034\272U\000\223b\322fX\325\320\322\330`\232\311\310"
  83      009362D2 
  83      6658D5D0 
  83      D2D8609A 
  83      C9C8
  84 00bd 329B6156 		.ascii	"2\233aV#P\315d\240bV\230&\260+\222\030\221\335\024\012"
  84      2350CD64 
  84      A0625698 
  84      26B02B92 
  84      1891DD14 
  85 00d2 12653ECD 		.ascii	"\022e>\315\320\310\301\300\220\002\222\271\310\320x"
  85      D0C8C1C0 
  85      900292B9 
  85      C8D078
  86 00e1 80196E20 		.ascii	"\200\031n DQ\010(\334@l\253\234\314$}\347\214\314\244"
  86      44510828 
  86      DC406CAB 
  86      9CCC247D 
  86      E78CCCA4 
  87 00f5 4CFFE078 		.ascii	"L\377\340xC3=C=\023}\375\374b\375\214\304\034\375\202"
  87      43333D43 
  87      3D137DFD 
  87      FC62FD8C 
  87      C41CFD82 
  88 0109 FCA29262 		.ascii	"\374\242\222b\375\340\020_c#}\037\037\027\375\020O\337"
  88      FDE0105F 
  88      63237D1F 
  88      1F17FD10 
  88      4FDF
  89 011b 3243FDE2 		.ascii	"2C\375\342\222\370\234\234\024\275\014\006\000\200G"
  89      92F89C9C 
  89      14BD0C06 
  89      008047
  90 012a 55E7     		.ascii	"U\347"
  91              		.text
  92              		.section	.gnu.lto_port_timer_get_time.cf4418541a8b8b3a,"",%progbits
  93 0000 789C6362 		.ascii	"x\234cb`b@\007\322@|\004\210-@\034\026\006F\240\012"
  93      60624007 
  93      D2407C04 
  93      882D401C 
  93      160646A0 
ARM GAS  /tmp/ccfeOUca.s 			page 7


  94 0015 46264666 		.ascii	"F&Ff \311\314\310\010\024bd\250gbf\254\217\004\261\031"
  94      20C9CCC8 
  94      08146264 
  94      A8676266 
  94      AC8F04B1 
  95 002a 18951816 		.ascii	"\030\225\030\02664\314z\360\364\333\014\311\256\005"
  95      3634CC7A 
  95      F0F4DB0C 
  95      C9AE05
  96 0039 4D131AFE 		.ascii	"M\023\032\376\375\377\317\230\011\222Jfd\210\000\262"
  96      FDFFCF98 
  96      09924A66 
  96      648800B2 
  97 0049 1815C014 		.ascii	"\030\025\300\024\023\013\252%\353\231\016<\370\377\177"
  97      130BAA25 
  97      EB990E3C 
  97      F8FF7F
  98 0058 CEEE358F 		.ascii	"\316\3565\217\3570\012212\200\2650\2602\26444LP\000"
  98      EF300A32 
  98      313280B5 
  98      30B032B4 
  98      34344C50 
  99 006d 6B068210 		.ascii	"k\006\202\0200\031\012r\001\363y\206\346\007\267\223"
  99      30190A72 
  99      01F37986 
  99      E607B793 
 100 007d 13191731 		.ascii	"\023\031\0271\2622\24432V3\374j\350h\020\310ddN\006"
 100      B232A433 
 100      325633FC 
 100      6AE86810 
 100      C864644E 
 101 0092 3B8A0168 		.ascii	";\212\001h\002\324\212P\220[\231O34r00\244\200\344."
 101      02D48A50 
 101      905B994F 
 101      33347230 
 101      30A480E4 
 102 00a7 3230C2F5 		.ascii	"20\302\365A\224\204\200\030 \237\233\345d&\351;gd&e"
 102      41948480 
 102      18209F9B 
 102      E56426E9 
 102      3B676426 
 103 00bc FA07C71B 		.ascii	"\372\007\307\033\232\351\031\352\231\350\353\347\027"
 103      9AE919EA 
 103      99E8EBE7 
 103      17
 104 00c9 EB1795E8 		.ascii	"\353\027\225\350\027\344\027\225\024\353;\006\371:\373"
 104      17E41795 
 104      14EB3B06 
 104      F93AFB
 105 00d8 56E82767 		.ascii	"V\350'g$\347\027\245\306\227d\346\246\026\351e0\000"
 105      24E717A5 
 105      C69764E6 
 105      A616E965 
 105      3000
 106 00ea 00A93D3C 		.ascii	"\000\251=<|"
 106      7C
 107              		.text
ARM GAS  /tmp/ccfeOUca.s 			page 8


 108              		.section	.gnu.lto_chVTGetSystemTimeX.cf4418541a8b8b3a,"",%progbits
 109 0000 789C6362 		.ascii	"x\234cb`b@\007\322@|\004\210\265A\034\026\006F\240\012"
 109      60624007 
 109      D2407C04 
 109      88B5411C 
 109      160646A0 
 110 0015 46264666 		.ascii	"F&Ff \311\314\310\010\024bd\250gbf\254\217\004\261\031"
 110      20C9CCC8 
 110      08146264 
 110      A8676266 
 110      AC8F04B1 
 111 002a 18951816 		.ascii	"\030\225\030\02664\314z\260\364\333L\311\256\005M\023"
 111      3634CC7A 
 111      B0F4DB4C 
 111      C9AE054D 
 111      13
 112 003b 1AFEFDFF 		.ascii	"\032\376\375\377\317\230\011\222Jfd\210\000\262\030"
 112      CF980992 
 112      4A666488 
 112      00B218
 113 004a 15C01413 		.ascii	"\025\300\024\023\013\252%\353\231\016<\370\377\377\314"
 113      0BAA25EB 
 113      990E3CF8 
 113      FFFFCC
 114 0059 CF158F6F 		.ascii	"\317\025\217o3\012312\200\2650\2602\26444LP\000k\006"
 114      330A3331 
 114      3280B530 
 114      B032B434 
 114      344C5000 
 115 006f 82103019 		.ascii	"\202\0200\031\012r\001\363y\206\346\0077\323\023\031"
 115      0A7201F3 
 115      7986E607 
 115      37D31319 
 116 007f 1731B232 		.ascii	"\0271\2622\24432V3\374j\350h\020\310ddN\006;\212\001"
 116      A4333256 
 116      33FC6AE8 
 116      6810C864 
 116      644E063B 
 117 0095 6802D48A 		.ascii	"h\002\324\212P\220[\231O34r00\244\200\344.20\302\365"
 117      50905B99 
 117      4F333472 
 117      3030A480 
 117      E42E3230 
 118 00ab 41948480 		.ascii	"A\224\204\200\030 \237k\346d&\351;gd&e\372\007\307\033"
 118      18209F6B 
 118      E66426E9 
 118      3B676426 
 118      65FA07C7 
 119 00c0 9AE919EA 		.ascii	"\232\351\031\352\231\350\353\347\027\353\027\225\350"
 119      99E8EBE7 
 119      17EB1795 
 119      E8
 120 00cd 67E625E7 		.ascii	"g\346%\347\224\246\244\352'g\224\225\350e0\000\000\263"
 120      94A6A4EA 
 120      27679495 
 120      E8653000 
 120      00B3
ARM GAS  /tmp/ccfeOUca.s 			page 9


 121 00df 6937E6   		.ascii	"i7\346"
 122              		.text
 123              		.section	.gnu.lto_chThdGetSelfX.cf4418541a8b8b3a,"",%progbits
 124 0000 789C6362 		.ascii	"x\234cb`b@\007\322@\374\007\210\015@\034\026\006F\240"
 124      60624007 
 124      D240FC07 
 124      880D401C 
 124      160646A0 
 125 0014 0A462646 		.ascii	"\012F&Ff \311\314\310\010\024bd\250gbf\254\217\004\261"
 125      6620C9CC 
 125      C8081462 
 125      64A86762 
 125      66AC8F04 
 126 0029 19189518 		.ascii	"\031\030\225\030\02664\314z\320\272k\246d\327\202\246"
 126      163634CC 
 126      7AD0BA6B 
 126      A664D782 
 126      A6
 127 003a 090DFFFE 		.ascii	"\011\015\377\376\377g\314\004I%32D\000Y\214\012`\212"
 127      FF67CC04 
 127      49253332 
 127      4400598C 
 127      0A608A
 128 004d 8905D592 		.ascii	"\211\005\325\222\365L\007\036\374\377\377\346\366\227"
 128      F54C071E 
 128      FCFFFFE6 
 128      F697
 129 005b 472F1985 		.ascii	"G/\031\205\230\030\031\300Z\030X\031Z\032\032&(\200"
 129      981819C0 
 129      5A185819 
 129      5A1A1A26 
 129      2880
 130 006d 35034108 		.ascii	"5\003A\010\230\014\005\271\200\371,C\323\255\031\273"
 130      980C05B9 
 130      80F92C43 
 130      D3AD19BB 
 131 007d 24131917 		.ascii	"$\023\031\0271\2622\24432j3\254j\000\202P\240F(\323"
 131      31B232A4 
 131      33326A33 
 131      AC6A0082 
 131      50A04628 
 132 0092 32939179 		.ascii	"2\223\221y6\303\254\306\206\006\201LF\226j\206_\015"
 132      36C3ACC6 
 132      8606814C 
 132      46966A86 
 132      5F0D
 133 00a4 1D20166B 		.ascii	"\035 \026k.\330\024\220#X\301V'12@iF$\007\205\202|\310"
 133      2ED81490 
 133      2358C156 
 133      27313240 
 133      69462407 
 134 00bc 7C9AA191 		.ascii	"|\232\241\221\203\201!\005$s\221\241\361\0003\334:\210"
 134      83812105 
 134      247391A1 
 134      F10033DC 
 134      3A88
 135 00ce A2101003 		.ascii	"\242\020\020\003\024bz9\231I\372\316\031\231I\231\376"
ARM GAS  /tmp/ccfeOUca.s 			page 10


 135      14627A39 
 135      9949FACE 
 135      19994999 
 135      FE
 136 00df C1F18666 		.ascii	"\301\361\206fz\206z&\372\372\371\305\372E%\372\231y"
 136      7A867A26 
 136      FAFAF9C5 
 136      FA4525FA 
 136      9979
 137 00f1 C939A529 		.ascii	"\3119\245)\251\372\311\031%\031E\251\211)\305z\031\014"
 137      A9FAC919 
 137      251945A9 
 137      8929C57A 
 137      190C
 138 0103 001C7D46 		.ascii	"\000\034}F\374"
 138      FC
 139              		.text
 140              		.section	.gnu.lto_chThdGetPriorityX.cf4418541a8b8b3a,"",%progbits
 141 0000 789C6362 		.ascii	"x\234cb`b@\007\322@l\316\310\300`\000\342\26000\002"
 141      60624007 
 141      D2406CCE 
 141      C8C06000 
 141      E2B03030 
 142 0015 55303231 		.ascii	"U0212\003IfF\2400\003#C=\0233c}$\210\315\300\244\304"
 142      32034966 
 142      46A03003 
 142      23433D13 
 142      33637D24 
 143 002e B0B0A161 		.ascii	"\260\260\241a\326\203\245\373gJv-h\232\320\360\357\377"
 143      D683A5FB 
 143      674A762D 
 143      689AD0F0 
 143      EFFF
 144 0040 7FC64C90 		.ascii	"\177\306L\220T2#C\004\220\305\250\000\246\230XP-\001"
 144      54322343 
 144      0490C5A8 
 144      00A69858 
 144      502D01
 145 0053 6B9BD470 		.ascii	"k\233\324p\377I\300\211\206\226\003\377\377\333g\202"
 145      FF49C089 
 145      869603FF 
 145      FFDB6782 
 146 0063 6CC0AF67 		.ascii	"l\300\257g=\323\201\007\377\377\357\271\377\347\321"
 146      3DD38107 
 146      FFFFEFB9 
 146      FFE7D1
 147 0072 3F462166 		.ascii	"?F!fF\006\240\026&\006\260]\014\254\014-\015\015\023"
 147      4606A016 
 147      2606B05D 
 147      0CAC0C2D 
 147      0D0D13
 148 0085 14C02600 		.ascii	"\024\300&\000A\010\230\014\0059\235\371<C\363\203\277"
 148      4108980C 
 148      05399DF9 
 148      3C43F383 
 148      BF
 149 0096 4FB91319 		.ascii	"O\271\023\031\0273\2622\24432V3\374j\350h\020\310dd"
ARM GAS  /tmp/ccfeOUca.s 			page 11


 149      1733B232 
 149      A4333256 
 149      33FC6AE8 
 149      6810C864 
 150 00ab 49067B87 		.ascii	"I\006{\207\001h\004+\003\303Y\206\246[\0050EL\332\014"
 150      0168042B 
 150      03C35986 
 150      A65B0530 
 150      454CDA0C 
 151 00bf AB1A80A0 		.ascii	"\253\032\200\240\030h\372l\206Y@\267\260\001u\202\334"
 151      1868FA6C 
 151      865940B7 
 151      B0017582 
 151      DC
 152 00d0 C40CD691 		.ascii	"\304\014\326\221\304\210\354\256P\220(\363i\206F\016"
 152      C488ECAE 
 152      509028F3 
 152      6986460E 
 153 00e0 06861490 		.ascii	"\006\206\024\220\314E\206\306\003\314p\263 \212B@\226"
 153      CC4586C6 
 153      03CC70B3 
 153      208A4240 
 153      96
 154 00f1 81D87A39 		.ascii	"\201\330z9\231I\372\316\031\231I\231\376\301\361\206"
 154      9949FACE 
 154      19994999 
 154      FEC1F186 
 155 0101 667A867A 		.ascii	"fz\206z&\372\372\371\305\372E%\372\231y\3119\245)\251"
 155      26FAFAF9 
 155      C5FA4525 
 155      FA9979C9 
 155      39A529A9 
 156 0115 FAC91925 		.ascii	"\372\311\031%\031E\251\211)\305z\031\014\000\351\245"
 156      1945A989 
 156      29C57A19 
 156      0C00E9A5 
 157 0125 5306     		.ascii	"S\006"
 158              		.text
 159              		.section	.gnu.lto_thread.cf4418541a8b8b3a,"",%progbits
 160 0000 789C6362 		.ascii	"x\234cb`b@\007\"@|\013\2105@\034f\006F\240\012F&FF "
 160      60624007 
 160      22407C0B 
 160      8835401C 
 160      660646A0 
 161 001a 8791A19E 		.ascii	"\207\221\241\236\211\261>\022\304d`TbX\330\3200\351"
 161      89B13E12 
 161      C4646054 
 161      6258D8D0 
 161      30E9
 162 002c C1D1F953 		.ascii	"\301\321\371S\305\273\0364Lh\370\367\377?c&H*\231\221"
 162      C5BB1E34 
 162      4C68F8F7 
 162      FF3F6326 
 162      482A9991 
 163 0040 2102C862 		.ascii	"!\002\310b\344\000SL\214\250\246\257g:\360\340\377\377"
 163      E400534C 
 163      8CA8A6AF 
ARM GAS  /tmp/ccfeOUca.s 			page 12


 163      673AF0E0 
 163      FFFF
 164 0052 33FD93FE 		.ascii	"3\375\223\376\211332\3462\002\035\000\326\305\300\312"
 164      89333332 
 164      E632021D 
 164      00D6C5C0 
 164      CA
 165 0063 D0D2D030 		.ascii	"\320\322\3200A\001\254\037\010B\300d(\310v\346\263\014"
 165      4101AC1F 
 165      0842C064 
 165      28C876E6 
 165      B30C
 166 0075 4DBB5A7F 		.ascii	"M\273Z\177_fJd\\\304\310\312\220\316\3104\233a\026\310"
 166      5F664A64 
 166      5CC4C8CA 
 166      90CEC834 
 166      9B6116C8 
 167 0089 AE744646 		.ascii	"\256tFF\220\025\314P\243\3173\260@T00T3\374j\350h\020"
 167      9015CC50 
 167      A3CF33B0 
 167      40543030 
 167      5433FC6A 
 168 00a0 C8646449 		.ascii	"\310ddIf\2048\000\250+\023$u\221\241\361\301\177&\230"
 168      66843800 
 168      A82B1324 
 168      7591A1F1 
 168      C17F2698 
 169 00b4 3A080801 		.ascii	":\010\010\001\251\001\005\204ZNf\222\276sFfR\246\177"
 169      A9010584 
 169      5A4E6692 
 169      BE734666 
 169      52A67F
 170 00c7 70BCA199 		.ascii	"p\274\241\231\236\241\236\211\276~Ijq\211~Q\011\230"
 170      9EA19E89 
 170      BE7E496A 
 170      71897E51 
 170      0998
 171 00d9 2EC948D1 		.ascii	".\311H\321Kf\000\000gi;\357"
 171      4B660000 
 171      67693BEF 
 172              		.text
 173              		.section	.gnu.lto_thd1_execute.cf4418541a8b8b3a,"",%progbits
 174 0000 789CDD95 		.ascii	"x\234\335\225=hSQ\024\307\317\271\367%y\371j\222&\251"
 174      3D685351 
 174      14C7CFB9 
 174      F72579F9 
 174      6A9226A9 
 175 0014 7529C541 		.ascii	"u)\305A\024\264\241b\305I\355\327\254`\013:\211}\225"
 175      14B4A162 
 175      C549EDD7 
 175      AC600B3A 
 175      897D95
 176 0027 F6815D34 		.ascii	"\366\201]4\233Co\232(\005\035\212:\244\037J\273\210"
 176      9B436F9A 
 176      28051D8A 
 176      3AA41F4A 
 176      BB88
ARM GAS  /tmp/ccfeOUca.s 			page 13


 177 0039 83202A88 		.ascii	"\203 *\210n\231JE\212\27298\204\226\202\203\203\243"
 177      6E994A45 
 177      8ABA3938 
 177      84968283 
 177      83A3
 178 004b 68F579CF 		.ascii	"h\365y\317}yy\321|\220\014Yr!\347\336{\3569\347\236"
 178      7D7979D1 
 178      7C900C59 
 178      7221E7DE 
 178      7BEE39E7 
 179 0060 FF2FE186 		.ascii	"\377/\341\206\001\203\377\307\021\371\331\015\002\234"
 179      0183FFC7 
 179      11F9D90D 
 179      029C
 180 006e A18D0750 		.ascii	"\241\215\007PF c\034@0M\032\215\243\234PC\224\307\010"
 180      4620631C 
 180      40304D1A 
 180      8DA39C50 
 180      4394C708 
 181 0082 F38C6B38 		.ascii	"\363\214k8\177\2316\220<\004\033B\334/\356\355li\313"
 181      7F993690 
 181      3C041B42 
 181      DC2FEEED 
 181      6C69CB
 182 0095 0F0BB975 		.ascii	"\017\013\271u\261oY\210&\035\032\010\227\344\012\373"
 182      B16F5988 
 182      261D1A08 
 182      97E40AFB 
 183 00a5 D544952A 		.ascii	"\325D\225*\207\235(V7\357\005\2262\213\302\262\346M"
 183      879D2856 
 183      37EF0596 
 183      328BC2B2 
 183      E64D
 184 00b7 E44D263D 		.ascii	"\344M&=\330\273\260%r\005\313:\333|\316\313\247\302"
 184      D8BBB025 
 184      7205CB3A 
 184      DB7CCECB 
 184      A7C2
 185 00c9 AFBAE326 		.ascii	"\257\272\343&\251i&\247\220\257l\256#\024\255t\234\242"
 185      A96926A7 
 185      90AF6CAE 
 185      2314AD74 
 185      9CA2
 186 00db B58E53F4 		.ascii	"\265\216S\364\270\343\024\275\332|\273\201\342\216\310"
 186      B8E314BD 
 186      DA7CBB81 
 186      E28EC8
 187 00ea 7CB7AC88 		.ascii	"|\267\254\210\211\0367M\267\323\360\337\264\347\254"
 187      891E374D 
 187      B7D3F0DF 
 187      B4E7AC
 188 00f9 50B4ACB5 		.ascii	"P\264\254\265\027\353;+\030\353A\220\030\2304\234\223"
 188      17EB3B2B 
 188      18EB4190 
 188      1898349C 
 188      93
 189 010a D1A4D13C 		.ascii	"\321\244\321<\344\363\322\326GF'\237\237|\001\332\006"
ARM GAS  /tmp/ccfeOUca.s 			page 14


 189      E4F3D2D6 
 189      4746279F 
 189      9F7C01DA 
 189      06
 190 011b C984C817 		.ascii	"\311\204\310\027&_\027m#d\242\344\213\221\257\233\266"
 190      265F176D 
 190      2364A2E4 
 190      8B91AF9B 
 190      B6
 191 012c 713209F2 		.ascii	"q2\011\362%A\265%\037\277\234\020K\375\252A9&\224\235"
 191      2541B525 
 191      1FBF9C10 
 191      4BFDAA41 
 191      3926949D 
 192 0140 A407916F 		.ascii	"\244\007\221o\303\302\227\037\362\231\273\212\257e\350"
 192      C3C2971F 
 192      F299BB8A 
 192      AF65E8
 193 014f 0CE27178 		.ascii	"\014\342qx&\242&zWa%\263D+\337-\370)\362\264\322\347"
 193      26A2267A 
 193      576125B3 
 193      442BDF2D 
 193      F829F2B4 
 194 0165 542269D3 		.ascii	"T\"i\323\301Y\371+\024~\200l\341.wJ1J\\\244\304\200"
 194      C159F92B 
 194      147E806C 
 194      E12E774A 
 194      314A5CA4 
 195 017b 81360B13 		.ascii	"\2016\013\023\345{\274\015\331\305\354\023\346\204q"
 195      E57BBC0D 
 195      D9C5EC13 
 195      E68471
 196 018a 194985F8 		.ascii	"\031I\205\370/KrTUz\2353\255\\\"d\240\375\302\313\026"
 196      2F4B7254 
 196      557A9D33 
 196      AD5C2264 
 196      A0FDC2CB 
 197 019f 293AFC95 		.ascii	"):\374\225Q.\235\353&v\031X\272\026\310\323kb\244\017"
 197      512E9DEB 
 197      26761958 
 197      BA16C8D3 
 197      6B62A40F 
 198 01b3 8E3E12F9 		.ascii	"\216>\022\371s&F\241tbb\214._x\367\321g{H\252\034C\222"
 198      732646A1 
 198      7462628C 
 198      2E5F78F7 
 198      D1677B48 
 199 01cb 14A91574 		.ascii	"\024\251\025tOw\371\306\370\234j\232.\213\327P;C\277"
 199      4F77F9C6 
 199      F89C6A9A 
 199      2E8BD750 
 199      3B43BF
 200 01de 13A297DF 		.ascii	"\023\242\227\337u\351yZ\246\207\365\350y\233\243\347"
 200      75E9795A 
 200      A687F5E8 
 200      799BA3E7 
 201 01ee 93918ADE 		.ascii	"\223\221\212\336~5=\275\026=\217K\317\327\210\336\261"
ARM GAS  /tmp/ccfeOUca.s 			page 15


 201      7E353DBD 
 201      163D8F4B 
 201      CFD788DE 
 201      B1
 202 01ff 76D04397 		.ascii	"v\320C\227\236n\323{SA\317\3372=V\217^\2409zA\031\251"
 202      9E6ED37B 
 202      5341CFDF 
 202      323D568F 
 202      5EA0397A 
 203 0216 E8FDAEA6 		.ascii	"\350\375\256\246\027\252E\317\357\322\0136\242\227j"
 203      17AA45CF 
 203      EFD20B36 
 203      A2976A
 204 0225 073DE6D2 		.ascii	"\007=\346\322\013\331\364>W\320\013\267L\217\327\243"
 204      0BD9F43E 
 204      57D00BB7 
 204      4C8FD7A3 
 205 0235 D7D51CBD 		.ascii	"\327\325\034\275\210\214T\364\376T\323\213\326\242\027"
 205      888C54F4 
 205      FE54D38B 
 205      D6A217
 206 0244 76E9451A 		.ascii	"v\351E\032\321;\321\016z\334\245\027\265\351\375\250"
 206      D13BD10E 
 206      7ADCA517 
 206      B5E9FDA8 
 207 0254 A0176B99 		.ascii	"\240\027k\231\236V\217^ws\364\3422R\321\263\252\351"
 207      9E568F5E 
 207      7773F4E2 
 207      3252D1B3 
 207      AAE9
 208 0266 256AD18B 		.ascii	"%j\321\213\271\364\342\215\350\015\265\203\236\346\322"
 208      B9F4E28D 
 208      E80DB583 
 208      9EE6D2
 209 0275 4B28C1C5 		.ascii	"K(\301\305|6X\272\000\312\271\011\003\265\222\340$E"
 209      7C3658BA 
 209      00CAB909 
 209      03B592E0 
 209      2445
 210 0287 DD2E2E1B 		.ascii	"\335..\033\216\246d9\252\307PYv\3450:\255\037\350\203"
 210      8EA66439 
 210      AAC75059 
 210      76E5303A 
 210      AD1FE883 
 211 029b D376EBBD 		.ascii	"\323v\353\275n\353\007\001\266 \367\015\313U(\307\003"
 211      6EEB0701 
 211      B620F70D 
 211      CB5528C7 
 211      03
 212 02ac 156382FE 		.ascii	"\025c\202\376\344\371$]\314\337CF~C\323\204\354\023"
 212      E4F9245D 
 212      CCDF4346 
 212      7E43D384 
 212      EC13
 213 02be A0D39E13 		.ascii	"\240\323\236\023'e\021\313\303\327\315\251\324\350\254"
 213      276511CB 
 213      C3D7CDA9 
ARM GAS  /tmp/ccfeOUca.s 			page 16


 213      D4E8AC
 214 02cd 39659EBF 		.ascii	"9e\236\277xe\360\324\300\340\300\311T*}\355f:u#\255"
 214      7865F0D4 
 214      C0E0C0C9 
 214      542A7DED 
 214      663A7523 
 215 02e2 E6F4ECF4 		.ascii	"\346\364\354\364\200\001l\034\330\030\260Q`#\300\206"
 215      80016C1C 
 215      D818B051 
 215      6023C086 
 216 02f2 C13B3C32 		.ascii	"\301;<2:6\016\177\001/\251\257,"
 216      3A360E7F 
 216      012FA9AF 
 216      2C
 217              		.text
 218              		.section	.gnu.lto_chSysLock.cf4418541a8b8b3a,"",%progbits
 219 0000 789C6362 		.ascii	"x\234cb`b@\007\"@|\010\210u@\034f\006F\240\012F&FF "
 219      60624007 
 219      22407C08 
 219      8875401C 
 219      660646A0 
 220 001a 8791A19E 		.ascii	"\207\221\241\236\211\261>\222\021\254l=\323\201\007"
 220      89B13E92 
 220      11AC6C3D 
 220      D38107
 221 0029 FFFFAFFB 		.ascii	"\377\377\257\3732m\331\037\306\333L 1V\206\226\206\206"
 221      326DD91F 
 221      C6DB4C20 
 221      31568696 
 221      8686
 222 003b 090A0C0C 		.ascii	"\011\012\014\014\311`\025!`2\024\244\237\371<C\363\203"
 222      C9601521 
 222      603214A4 
 222      9FF93C43 
 222      F383
 223 004d 3DDDEC89 		.ascii	"=\335\354\211\214\013\031Y\201\202\325\014\277\032:"
 223      8C0B1959 
 223      8182D50C 
 223      BF1A3A
 224 005c 1A043219 		.ascii	"\032\0042\031\201J!\246e\202h\220\252\275\335B\330T"
 224      814A21A6 
 224      65826890 
 224      AABDDD42 
 224      D854
 225 006e 31A1AADA 		.ascii	"1\241\252\332w\232\013\233*f\204\252\213\014\215\017"
 225      779A0B9B 
 225      2A6684AA 
 225      8B0C8D0F 
 226 007e F66BC314 		.ascii	"\366k\303\024A@\010H\002d\222VNf\222\276sFfR\246\177"
 226      41400848 
 226      02649256 
 226      4E6692BE 
 226      73466652 
 227 0094 70BCA199 		.ascii	"p\274\241\231\236\241\236\211\276~~\261~Q\211~f^rNi"
 227      9EA19E89 
 227      BE7E7EB1 
 227      7E51897E 
ARM GAS  /tmp/ccfeOUca.s 			page 17


 227      665E724E 
 228 00a9 4AAA7E72 		.ascii	"J\252~rFqe\261^\006\003\000\204\275;\363"
 228      467165B1 
 228      5E060300 
 228      84BD3BF3 
 229              		.text
 230              		.section	.gnu.lto_chSysUnlock.cf4418541a8b8b3a,"",%progbits
 231 0000 789CCD92 		.ascii	"x\234\315\222\275/DA\020\300gv\367\275s\276\033\011"
 231      BD2F4441 
 231      10C06776 
 231      F7BD73BE 
 231      1B09
 232 0012 2A513AB9 		.ascii	"*Q:\271\027\211\250t\376\000\005\0224\342\036q\233\334"
 232      1789A874 
 232      FE000512 
 232      34E21E71 
 232      9BDC
 233 0024 91380A51 		.ascii	"\2218\012Q\330;W\010\215(ihD'\321\351\024\012\211\210"
 233      D83B5708 
 233      8D286968 
 233      4427D1E9 
 233      140A8988 
 234 0038 E8505D24 		.ascii	"\350P]$*\327\023\021\317\354\276\367\316s\256!\012\223"
 234      2AD71311 
 234      CFECBEF7 
 234      CE73AE21 
 234      0A93
 235 004a BC99DD7D 		.ascii	"\274\231\335}3\277\231\335\031\006\014\252e\220>[\000"
 235      33BF99DD 
 235      19060CAA 
 235      65903E5B 
 235      00
 236 005b F4EA4D0C 		.ascii	"\364\352M\014\220<\220!'\315\031\035+f\223\022\202Y"
 236      903C9021 
 236      27CD191D 
 236      2B669312 
 236      8259
 237 006d 95B58564 		.ascii	"\225\265\205d\320F\244\000\2045\306\205e\343\332\204"
 237      D046A400 
 237      8435C685 
 237      65E3DA84 
 238 007d DE82DD0D 		.ascii	"\336\202\335\015\007J\355\224\036\237w;6\367\013\333"
 238      074AED94 
 238      1E9F773B 
 238      36F70BDB 
 239 008d EADDF350 		.ascii	"\352\335\363P\352_.\3028\255\260\313\030\215\216\212"
 239      EA5F2EC2 
 239      38ADB0CB 
 239      188D8E8A 
 240 009d 1FA64E8E 		.ascii	"\037\246N\216T|_\275y\036\377]\014\377/y\262\010\307"
 240      547C5FBD 
 240      791EFF5D 
 240      0CFF2F79 
 240      B208C7
 241 00b0 ECACE479 		.ascii	"\354\254\344y\345\323\323\2072\266\331\010\224\211i"
 241      E5D3D387 
 241      32B6D908 
ARM GAS  /tmp/ccfeOUca.s 			page 18


 241      948969
 242 00bf C54971A1 		.ascii	"\305Iq\241W\026\030\022\331\242R\333]\331\240\024\222"
 242      57161812 
 242      D9A252DB 
 242      5DD9A014 
 242      92
 243 00d0 51A3C774 		.ascii	"Q\243\307t3\3705\254\227n\267\032\246\361\020\251\007"
 243      33F835AC 
 243      976EB71A 
 243      A6F110A9 
 243      07
 244 00e1 B00AAF6A 		.ascii	"\260\012\257jC\265J\024\256\351\000\020\204\316\265"
 244      43B54A14 
 244      AEE90010 
 244      84CEB5
 245 00f0 D7DD534B 		.ascii	"\327\335SK-/\366\351\345S)'\277\202\302\375\313s\247"
 245      2D2FF6E9 
 245      E5532927 
 245      BF82C2FD 
 245      CB73A7
 246 0103 EF3F8798 		.ascii	"\357?\207\230\200\036\252\310h\333\350\330\036\354\346"
 246      801EAAC8 
 246      68DBE8D8 
 246      1EECE6
 247 0112 9546D455 		.ascii	"\225F\324U`\361\254I\251/\0347\254\224_\001Y\014l8`"
 247      60F1AC49 
 247      A92F1C37 
 247      AC945F01 
 247      590C6C38 
 248 0127 17502C63 		.ascii	"\027P,c\205\256\011u\022\353\243|bU\207\177\2211\024"
 248      85AE0975 
 248      12EBA37C 
 248      6255877F 
 248      913114
 249 013a 7E9D9321 		.ascii	"~\235\223!\206E\212\374ay<\200Fq\334\200\032\010D\001"
 249      86458AFC 
 249      61793C80 
 249      4671DC80 
 249      1A084401 
 250 014e 8D841FF7 		.ascii	"\215\204\037\367'\325\004\210\032\001\342\257\037)\012"
 250      27D50488 
 250      1A01E2AF 
 250      1F290A
 251 015d B7AAAA11 		.ascii	"\267\252\252\021\265\252\271\200\363\307\312\253\362"
 251      B5AAB980 
 251      F3C7CAAB 
 251      F2
 252 016a B9B0A5FE 		.ascii	"\271\260\245\376sYfX\304\267\021hr\203\353\353\223v"
 252      73596658 
 252      C4B71168 
 252      7283EBEB 
 252      9376
 253 017c 89CD3468 		.ascii	"\211\3154h\201\223\304\2260\332\016F\355\3512Vk\210"
 253      8193C496 
 253      30DA0E46 
 253      EDE93256 
 253      6B88
ARM GAS  /tmp/ccfeOUca.s 			page 19


 254 018e C4E710DD 		.ascii	"\304\347\020\335@\276TN\204N\276\214\352\273\351k\365"
 254      40BE544E 
 254      844EBE8C 
 254      EABBE96B 
 254      F5
 255 019f 6464CA19 		.ascii	"dd\312\031J\313\224\034\036\231\352\033H\366%\373\035"
 255      4ACB941C 
 255      1E99EA1B 
 255      48F625FB 
 255      1D
 256 01b0 6721E72C 		.ascii	"g!\347,.9r\336\315,\317\314:n:\267\222K\246\341\003"
 256      2E3972DE 
 256      CD2CCFCC 
 256      3A6E3AB7 
 256      924BA6E1 
 257 01c5 7DC6D102 		.ascii	"}\306\321\002"
 258              		.text
 259              		.section	.gnu.lto_thd2_execute.cf4418541a8b8b3a,"",%progbits
 260 0000 789CDD96 		.ascii	"x\234\335\226Mh\023Q\020\307gv7\337I\2234M\332*\224"
 260      4D681351 
 260      10C76776 
 260      37DF4993 
 260      344DDA2A 
 261 0015 E24114DA 		.ascii	"\342A\024\332\206\212\025Oj\277\316\012\266\240'\261"
 261      868A154F 
 261      6ABFCE0A 
 261      B6A027B1 
 262 0025 5B6917EC 		.ascii	"[i\027\354Es\023\354K\023\265\250H\254=T\213\332^\304"
 262      457313EC 
 262      4B13B5A8 
 262      48AC3D54 
 262      8BDA5EC4 
 263 0039 8320E8A1 		.ascii	"\203 \350\241z\013\010\266\242\265zS\351!\210\205\036"
 263      7A0B08B6 
 263      A2B57A53 
 263      E9218885 
 263      1E
 264 004a 04A5BDD4 		.ascii	"\004\245\275\324\257\256ov\263\331\255ICR\210\207>\310"
 264      AFAE6F76 
 264      B3D9AD49 
 264      43528887 
 264      3EC8
 265 005c ECBE7933 		.ascii	"\354\276y3o\346\377\313\356K\004\020\340\337\261\207"
 265      6FE6FFCB 
 265      EE4B0410 
 265      E0DFB187 
 266 006c 7F16BD00 		.ascii	"\177\026\275\000\207hb\003\344\021(\010\"\000\023$n"
 266      87686203 
 266      E4112808 
 266      22001324 
 266      6E
 267 007d 2411F905 		.ascii	"$\021\371\005%D\276\2140,\210\022\016\237\244\011Dv"
 267      2544BE8C 
 267      302C8812 
 267      0E9FA409 
 267      4476
 268 008f C1346363 		.ascii	"\3014cc\231\245os\322\355\361tr\212\375VUD\205\026e"
ARM GAS  /tmp/ccfeOUca.s 			page 20


 268      99A56F73 
 268      D2EDF174 
 268      728AFD56 
 268      55448516 
 269 00a4 8413FC0E 		.ascii	"\204\023\374\016\033\265\013\355d\035z\"\233|y\335\235"
 269      1BB50BED 
 269      641D7A22 
 269      9B7C79DD 
 269      9D
 270 00b5 8A8F3255 		.ascii	"\212\2172U\035VP,1\351\326\322\2619\226L\253\352\341"
 270      1D56502C 
 270      31E9D6D2 
 270      B139964C 
 270      ABEAE1
 271 00c8 D2739E3C 		.ascii	"\322s\236<d.\255;Q!5\245\344\244S\263\226\346\266\205"
 271      642EAD3B 
 271      512135A5 
 271      E4A453B3 
 271      96E6B685 
 272 00dc A2B16DA7 		.ascii	"\242\261m\247h|\333)\232\274r\257\376\352\324H\212\255"
 272      687CDB29 
 272      9ABC72AF 
 272      FEEAD448 
 272      8AAD
 273 00ee F357A974 		.ascii	"\363W\251tM7\267\242\351\307\227\377\243\351\376\354"
 273      4D37B7A2 
 273      E9C797FF 
 273      A3E9FEEC 
 274 00fe 0DABA652 		.ascii	"\015\253\246R\323\236\316>\237Fv\231\305\277\253\252"
 274      D39ECE3E 
 274      9F467699 
 274      C5BFABAA 
 275 010e 5F419B99 		.ascii	"_A\233\231\346\324\323pc\332c!\235Q\325\305\231\251"
 275      E6D4D370 
 275      63DA6321 
 275      9D51D5C5 
 275      99A9
 276 0120 CF9F3058 		.ascii	"\317\2370X\213\300\351\011\334\210\"\031\211\033\311"
 276      8BC0E909 
 276      DC882219 
 276      891BC9
 277 012f 463E3B4D 		.ascii	"F>;M\035d\234\344s\221\317MS\017\031/\371|\344\253\242"
 277      1D649CE4 
 277      7391CF4D 
 277      530F192F 
 277      F97CE4AB 
 278 0144 A99F4C80 		.ascii	"\251\237L\200|A\362U\3234D\246\206|a2\021\320z\343G"
 278      7C41F255 
 278      D33444A6 
 278      867C6132 
 278      11D07AE3 
 279 0159 6792B154 		.ascii	"g\222\261T\243\326%\037=\232\355\245\343T\234\207\221"
 279      A3D6251F 
 279      3D9AEDA5 
 279      E3549C87 
 279      91
 280 016a C5357E48 		.ascii	"\3055~H\236\306\031\036:\200\330\014\217X@A\373$\334"
ARM GAS  /tmp/ccfeOUca.s 			page 21


 280      9EC6191E 
 280      3A80D80C 
 280      8F584041 
 280      FB24DC
 281 017d 89A7E8CE 		.ascii	"\211\247\350\316q\001~\262\011\272s\016i\211$\320\011"
 281      71017EB2 
 281      09BA730E 
 281      698924D0 
 281      09
 282 018e C69DCB22 		.ascii	"\306\235\313\"u\001\022\351k\242\261\225@\211\243\224"
 282      750112E9 
 282      6BA2B195 
 282      4089A394 
 283 019e E896518F 		.ascii	"\350\226Q\217R\320\0030\017\211\321\304\003\301\010"
 283      52D00330 
 283      0F89D1C4 
 283      03C108
 284 01ad 1379246D 		.ascii	"\023y$m$\362oN\365k\273\324\031kRn\013\257\214\372\357"
 284      24F26F4E 
 284      F56BBBD4 
 284      196B526E 
 284      0BAF8CFA 
 285 01c2 036F91A2 		.ascii	"\003o\221\242}\313\002\345\322\272S\301*\031\263e\201"
 285      7DCB02E5 
 285      D2BA53C1 
 285      2A19B365 
 285      81
 286 01d3 3C750AFA 		.ascii	"<u\012\372\033`\357]6qD\301\000dW\024\014R\361\221W"
 286      1B60EF5D 
 286      367144C1 
 286      00645714 
 286      0C52F191 
 287 01e8 EF1CBA87 		.ascii	"\357\034\272\207\244\362\321\306I\221ZFu\252s\025CC"
 287      A4F2D1C6 
 287      49915A46 
 287      75AA7315 
 287      4343
 288 01fa 5AD3542C 		.ascii	"Z\323T,T@\355\000=,Dob\305\244g+\233\036lF\317^\032"
 288      5440ED00 
 288      3D2C446F 
 288      62C5A467 
 288      2B9B1E6C 
 289 0212 3D078FD4 		.ascii	"=\007\217\324\350\375\312\247\347,D\317f\322s\024\243"
 289      E8FDCAA7 
 289      E72C44CF 
 289      66D27314 
 289      A3
 290 0223 D754097A 		.ascii	"\327T\011z`\322s\352\364\236Y\350\271\312\246'mF\317"
 290      60D273EA 
 290      F49E59E8 
 290      B9CAA627 
 290      6D46CF
 291 0236 5D1A3D0F 		.ascii	"]\032=\017\217\324\350\251\371\364\274\205\350\271L"
 291      8FD4E8A9 
 291      F9F4BC85 
 291      E8B94C
 292 0245 7A9E62F4 		.ascii	"z\236b\364\242\225\240'\231\364\274:\275\017\026z\276"
ARM GAS  /tmp/ccfeOUca.s 			page 22


 292      A295A027 
 292      99F4BC3A 
 292      BD0F167A 
 292      BE
 293 0256 B2E9899B 		.ascii	"\262\351\211\233\321\253*\215\236\237Gj\364\326\363"
 293      D1AB2A8D 
 293      9E9F476A 
 293      F4D6F3
 294 0265 E9050AD1 		.ascii	"\351\005\012\321\363\231\364\374\305\350\355\253\004"
 294      F399F4FC 
 294      C5E8EDAB 
 294      04
 295 0272 3DD1A417 		.ascii	"=\321\244\027\320\004g\336$\262\333\351\265\265\334"
 295      D00467DE 
 295      24B2DBE9 
 295      B5B5DC
 296 0281 1A19A5AC 		.ascii	"\032\031\245\254\340p\366\011]\315\344\300\004\313f"
 296      E070F609 
 296      5DCDE4C0 
 296      04CB66
 297 0290 6CF9534B 		.ascii	"l\371SK\214/\032;U\027C\274\202FX\210Gj\210\377\344"
 297      8C2F1A3B 
 297      551743BC 
 297      82465888 
 297      476A88FF 
 298 02a5 23AEB122 		.ascii	"#\256\261\"\266e\245\005M\304\241b\210\333*\2018'\226"
 298      B665A505 
 298      4DC4A162 
 298      88DB2A81 
 298      382796
 299 02b8 37A7237E 		.ascii	"7\247#~\373\242 b\373F\304k\253\3139\305\341fh\332R"
 299      FBA22062 
 299      FB46C46B 
 299      ABCB39C5 
 299      E16668DA 
 300 02cd 4D2A28E5 		.ascii	"M*(\345\025\213\310\350\310\266\024V\260V\357\352C\302"
 300      158BC8E8 
 300      C8B61456 
 300      B056EFEA 
 300      43C2
 301 02df 53A82BA7 		.ascii	"S\250+\247\331\325\002\\\312|\224\215\236\"\271\250"
 301      D9D5025C 
 301      CA7C948D 
 301      9E22B9A8 
 302 02ef 3A397B88 		.ascii	":9{\210i\230\321\000Z\337\000\007u\240;L\240;\001\346"
 302      6998D100 
 302      5ADF0007 
 302      75A03B4C 
 302      A03B01E6 
 303 0303 20F935A7 		.ascii	" \3715\247,B96\260\214\036\372o#\366\322\023'\276\206"
 303      2C423936 
 303      B08C1EFA 
 303      6F23F6D2 
 303      1327BE86 
 304 0317 38AFDF4F 		.ascii	"8\257\337O\357\312{@\243=#\216\013'\241\273\317*}\321"
 304      EFCA7B40 
 304      A33D238E 
ARM GAS  /tmp/ccfeOUca.s 			page 23


 304      0B27A1BB 
 304      CF2A7DD1 
 305 032b CE41A54F 		.ascii	"\316A\245O9z\374T\353\201\226\326\226\375\321h\354\314"
 305      397AFC54 
 305      EB8196D6 
 305      96FDD168 
 305      ECCC
 306 033d F958F45C 		.ascii	"\371X\364\\L\273\306\006\373[d\020\272@\350\006\241"
 306      4CBBC606 
 306      FB5B6410 
 306      BA40E806 
 306      A1
 307 034e 1D840E10 		.ascii	"\035\204\016\020:\301\336\336\321\331\325\015\177\001"
 307      3AC1DEDE 
 307      D1D9D50D 
 307      7F01
 308 035c 8EA1E99A 		.ascii	"\216\241\351\232"
 309              		.text
 310              		.section	.gnu.lto_chVTGetSystemTime.cf4418541a8b8b3a,"",%progbits
 311 0000 789C6362 		.ascii	"x\234cb`b@\007\322@\234\307\310\300`\014\342\26000\002"
 311      60624007 
 311      D2409CC7 
 311      C8C0600C 
 311      E2B03030 
 312 0015 55303231 		.ascii	"U0212\003IfF\2400\003#C=\0233c}$\210\315\300\244\304"
 312      32034966 
 312      46A03003 
 312      23433D13 
 312      33637D24 
 313 002e B0B0A161 		.ascii	"\260\260\241a\326\203\243\377gJv-h\232\320\360\357\377"
 313      D683A3FF 
 313      674A762D 
 313      689AD0F0 
 313      EFFF
 314 0040 7FC64C90 		.ascii	"\177\306L\220T2#C\004\220\305\250\000\246\230XP-\001"
 314      54322343 
 314      0490C5A8 
 314      00A69858 
 314      502D01
 315 0053 6B9B74E0 		.ascii	"k\233t\340\343\371>\311\006$mL\014:\214\004t\256g:\360"
 315      E3F93EC9 
 315      06246D4C 
 315      0C3A8C04 
 315      74AE673A 
 316 0068 E0FFFF3F 		.ascii	"\340\377\377?\177\227<\376\317(\314\314\310\220\310"
 316      7F973CFE 
 316      CF28CCCC 
 316      C890C8
 317 0077 B8885109 		.ascii	"\270\210Q\011\250\021l)\003+CKC\303\004\005\210 \330"
 317      A8116C29 
 317      032B434B 
 317      43C30405 
 317      8820D8
 318 008a 11401002 		.ascii	"\021@\020\002&CA>a>\317\320\374\340W;{\"\343\022FV\240"
 318      2643413E 
 318      613ECFD0 
 318      FCE0573B 
ARM GAS  /tmp/ccfeOUca.s 			page 24


 318      7B22E312 
 319 00a1 6035C3AF 		.ascii	"`5\303\257\206\216\006\201LF\346d\260\347\030\200\346"
 319      868E0681 
 319      4C46E664 
 319      B0E71880 
 319      E6
 320 00b2 002D04A9 		.ascii	"\000-\004\251\372\375\234\015\242*\235\221\021\256\214"
 320      FAFD9C0D 
 320      A22A9D91 
 320      11AE8C
 321 00c1 35999109 		.ascii	"5\231\221\011\252\214\015\242\354\317q\254\2061#\014"
 321      AA8C0DA2 
 321      ECCF71AC 
 321      8631230C 
 322 00d1 3BCBD074 		.ascii	";\313\320t\362\306\177I\230aL\351P\233\200.\002\252"
 322      F2C67F49 
 322      98614CE9 
 322      509B802E 
 322      02AA
 323 00e3 623ECDD0 		.ascii	"b>\315\320\310\301\300\220\002\022\273\310\300\010W"
 323      C8C1C090 
 323      0212BBC8 
 323      C00857
 324 00f2 05511202 		.ascii	"\005Q\022\002R\013bk\346d&\351;gd&e\372\007\307\033"
 324      520B626B 
 324      E66426E9 
 324      3B676426 
 324      65FA07C7 
 325 0107 9AE919EA 		.ascii	"\232\351\031\352\231\350\353\347\027\353\027\225\350"
 325      99E8EBE7 
 325      17EB1795 
 325      E8
 326 0114 67E625E7 		.ascii	"g\346%\347\224\246\244\352'g\224\225\350e0\260\027W"
 326      94A6A4EA 
 326      27679495 
 326      E86530B0 
 326      1757
 327 0126 169764E6 		.ascii	"\026\227d\346\246\002\000\347\375dU"
 327      A60200E7 
 327      FD6455
 328              		.text
 329              		.section	.gnu.lto_thd3_execute.cf4418541a8b8b3a,"",%progbits
 330 0000 789CED58 		.ascii	"x\234\355XML\\U\024\276\367\276\371\037\346\377\037"
 330      4D4C5C55 
 330      14BEF7BE 
 330      F91FE6FF 
 330      1F
 331 0011 680BB440 		.ascii	"h\013\264@\201v\006\312\217\356\\\270r\245\211%\251"
 331      817606CA 
 331      8FEE5CB8 
 331      72A58925 
 331      A9
 332 0022 6E4C191A 		.ascii	"nL\031\032:\211\211Me\347\202\007\003\206`5\204\200"
 332      3A89894D 
 332      65E78207 
 332      03866035 
 332      8480
ARM GAS  /tmp/ccfeOUca.s 			page 25


 333 0034 5A352D35 		.ascii	"Z5-51\242&j\272Q\353\202\347\242\261@\224h\215Q\253"
 333      31A2266A 
 333      BA51EB82 
 333      E7A2B140 
 333      94688D51 
 334 0049 09312E5D 		.ascii	"\0111.]\2600i\242\326\347\375\356\233\367\346\357\275"
 334      B03069A2 
 334      D6E7FDEE 
 334      9BF7E6EF 
 334      BD
 335 005a F2324949 		.ascii	"\3622II\027\274\2043s\277s\356\271\337w\356y\357\316"
 335      17BC8433 
 335      73BF73EE 
 335      B9DF77EE 
 335      79EFCE
 336 006d 8311466A 		.ascii	"\203\021Fj\257\273\374\357\215$!\375\0304\023\312#("
 336      AFBBFCEF 
 336      8D2421FD 
 336      183413CA 
 336      2328
 337 007f 63122132 		.ascii	"c\022!2sp\343\220h\206#\016\346\004\342\002\342\024"
 337      7370E390 
 337      6886230E 
 337      E604E202 
 337      E214
 338 0091 888BB981 		.ascii	"\210\213\271\201x\200\270\005\342a^ > ^\201\370\230"
 338      7880B805 
 338      E2615E20 
 338      3E205E81 
 338      F898
 339 00a3 1F481310 		.ascii	"\037H\023\020\277@\232X\000H\020H@ A\026\002\022\006"
 339      BF409A58 
 339      00481048 
 339      40204116 
 339      021206
 340 00b6 12124898 		.ascii	"\022\022H\230E\200D\201D\004\022e1 q 1\201\304Y\002"
 340      45804481 
 340      44041265 
 340      31207120 
 340      3181C459 
 341 00cb 48124842 		.ascii	"H\022HB I\226\002\222\006\222\022HZ\330\014\245\\\030"
 341      20499602 
 341      92069212 
 341      485AD80C 
 341      A55C18
 342 00de 25534C72 		.ascii	"%SLr8]n\217\327\347o\012\004C\341H4\026O$S\351\014\235"
 342      385D6E8F 
 342      D7E76F0A 
 342      0443E148 
 342      34164F24 
 343 00f6 7A061164 		.ascii	"z\006\021d\260\203\\\223\345\245\235\367\336\375J\272"
 343      B0835C93 
 343      E5A59DF7 
 343      DEFD4ABA 
 344 0106 BCACCCAE 		.ascii	"\274\254\314\256\312\377\252*\245\0058\363\224\234\341"
 344      CAFFAA2A 
 344      A50538F3 
ARM GAS  /tmp/ccfeOUca.s 			page 26


 344      949CE1
 345 0115 DF689BF8 		.ascii	"\337h\233\370@a*/m\242\262\262\371\3055*\277,O\357\252"
 345      40612A2F 
 345      6DA2B2B2 
 345      F9C5352A 
 345      BF2C4FEF 
 346 012a 6AA840A5 		.ascii	"j\250@\245\3624\2176\215\232M\223?^\223%\261\226d{\216"
 346      F2348F36 
 346      8D9A4D93 
 346      3F5E9325 
 346      B196647B 
 347 013f F2E6E625 		.ascii	"\362\346\346%\337\342\364\274\254\252S\266\371\311\327"
 347      DFE2F4BC 
 347      ACAA53B6 
 347      F9C9D7
 348 014e D764AFBE 		.ascii	"\327d\257\276\220\3359\015\220kH\320\225F\004\355\027"
 348      90DD390D 
 348      906B48D0 
 348      954604ED 
 348      17
 349 015f B9EB0F33 		.ascii	"\271\353\0173\271\365\205\345\314\302\352\314\242\374"
 349      B9F585E5 
 349      CCC2EACC 
 349      A2FC
 350 016d 1FEFD602 		.ascii	"\037\357\326\002u\330\244w\367\217\247n\311\263\212"
 350      75D8A477 
 350      F78FA76E 
 350      C9B38A
 351 017c AA3EF640 		.ascii	"\252>\366@\033H\271\275\271\301o\212%\375\246x\200K"
 351      1B48B9BD 
 351      B9C16F8A 
 351      25FDA678 
 351      804B
 352 018e ED5BC5EF 		.ascii	"\355[\305\357,\274SYq\273\225\370m\377\036\017\273\225"
 352      2CBC5359 
 352      71BB95F8 
 352      6DFF1E0F 
 352      BB95
 353 01a0 0D6BB723 		.ascii	"\015k\267#\032)\371\303\274M\177\035\024aI\271\327X"
 353      1A29F9C3 
 353      BC4D7F1D 
 353      146149B9 
 353      D758
 354 01b2 AFAA8DDD 		.ascii	"\257\252\215\335\265\373\245ji\353`k\225\327\017\212"
 354      B5FBA56A 
 354      69EB606B 
 354      95D70F8A 
 355 01c2 B0A45C7D 		.ascii	"\260\244\\}\245\221\323O\371\264\201\332)\367\276~5"
 355      A591D34F 
 355      F9B481DA 
 355      29F7BE7E 
 355      35
 356 01d3 2397D772 		.ascii	"#\227\327r2\322C\355U\343\366\270q\326\362Y\331\275"
 356      32D243ED 
 356      55E3F6B8 
 356      71D6F259 
 356      D9BD
ARM GAS  /tmp/ccfeOUca.s 			page 27


 357 01e5 667DC294 		.ascii	"f}\302\224\035U\375u}\365\367;4\372\010%g\351\367\264"
 357      1D55FD75 
 357      7DF5F73B 
 357      34FA0825 
 357      67E9F7B4 
 358 01f9 83FF74E7 		.ascii	"\203\377t\347\345\227\370\340\007>p\360\201\344\204"
 358      E597F8E0 
 358      073E70F0 
 358      81E484
 359 0208 710176C3 		.ascii	"q\001v\303x0\364\302\370JQ~\300M@\0020A\014C\370\026"
 359      7830F4C2 
 359      F84A517E 
 359      C04D4002 
 359      30410C43 
 360 021e 868970E3 		.ascii	"\206\211p\343\210\002\213\301\304a\0220IxS0i\0143\245"
 360      88028BC1 
 360      C4611230 
 360      49785330 
 360      690C33A5 
 361 0232 6CCD405A 		.ascii	"l\315@Z`Z1\363\020|\207a\216\000k\203i\207\243\003\330"
 361      605A31F3 
 361      107C8761 
 361      8E006B83 
 361      6987A303 
 362 0247 519863C0 		.ascii	"Q\230c\300:a\2720\354.%:\216A\017\340^\230>L:\001\354"
 362      3A61BA30 
 362      EC2E253A 
 362      8E410FE0 
 362      5E983E4C 
 363 025e 244C1658 		.ascii	"$L\026X\016\246\037\216\001`\247`\006\201\015\301\014"
 363      0EA61F8E 
 363      0160A760 
 363      06810DC1 
 363      0C
 364 026f C33142C4 		.ascii	"\3031B\304\326\021'\231\225\345\3056\255H\332\002bC"
 364      D6112799 
 364      95E5C536 
 364      AD48DA02 
 364      6243
 365 0281 F9755AD8 		.ascii	"\371uZ\330Q\274\323H\333\244\2703?\347:K\177\244N2A"
 365      51BCD348 
 365      DBA4B833 
 365      3FE73A4B 
 365      7FA44E32 
 366 0296 E94BE46F 		.ascii	"\351K\344oy^\016\027\250+O\265\336*P\376F\363\015)\316"
 366      795E0E17 
 366      A82B4FB5 
 366      DE2A50FE 
 366      46F30D29 
 367 02ab 17DF5F7E 		.ascii	"\027\337_~T\217c<\024{D\020\263Mf\025#\203dd\360\344"
 367      548F633C 
 367      147B4410 
 367      B34D6615 
 367      23836464 
 368 02c1 A9F65EC5 		.ascii	"\251\366^\305\303\013\324+\222l\027?Z\226\364P\007\217"
 368      C30BD42B 
 368      926C173F 
ARM GAS  /tmp/ccfeOUca.s 			page 28


 368      5A96F450 
 368      078F
 369 02d3 9EC02ADB 		.ascii	"\236\300*\333\304\251cNc\272/\217v\347\027\326\361S"
 369      C4A9634E 
 369      63BA2F8F 
 369      76E717D6 
 369      F153
 370 02e5 C417287F 		.ascii	"\304\027(\177g\272Ef\377\244F8\234Re\227\234\306P\032"
 370      67BA4566 
 370      FFA44638 
 370      9C526597 
 370      9CC6501A 
 371 02f9 450D206E 		.ascii	"E\015 n\365\222\221\332u\037m\006'w\2450\0206<\036\236"
 371      F59291DA 
 371      751F6D06 
 371      2777A530 
 371      10363C1E 
 372 030e 6102F115 		.ascii	"a\002\361\025l\275\026l\031\342\353\331zM\330:\005["
 372      6CBD166C 
 372      19E2EBD9 
 372      7A4DD83A 
 372      055B
 373 0320 97603BBB 		.ascii	"\227`;\273\363\332M#\330gVHI/\344|q\275\\H\277%\351"
 373      F3DA4D23 
 373      D8675648 
 373      492FE47C 
 373      71BD5C48 
 374 0337 26E1F455 		.ascii	"&\341\364U\221\016X\220\226\020_O:`B\332-H{J%\276l\244"
 374      910E5890 
 374      96105F4F 
 374      3A6042DA 
 374      2D487B4A 
 375 034f 0E5A97B8 		.ascii	"\016Z\227\270\314)\304\343j\267=l\301\311\201\370zN"
 375      CC29C4E3 
 375      6AB73D6C 
 375      C1C981F8 
 375      7A4E
 376 0361 61134E5E 		.ascii	"a\023N^\301\311W\352\351+sn-\230\020#u O\035%NA\254"
 376      C1C957EA 
 376      E92B736E 
 376      2D981023 
 376      75204F1D 
 377 0379 5EDCB93A 		.ascii	"^\334\271:\347\323SF\214\260P^LCX\030\324g~\331\015"
 377      E7D35346 
 377      8CB0505E 
 377      4C435818 
 377      D4677ED9 
 378 038e EA51D13E 		.ascii	"\352Q\321>\362\241,#\312\3716y\213\223\210\360\231g"
 378      F2A12C23 
 378      CAF93679 
 378      8B9388F0 
 378      9967
 379 03a0 B4472CBF 		.ascii	"\264G,\277\306\214\307qUS\305\370D\261?Lxf\236\320\034"
 379      C68CC771 
 379      5553C5F8 
 379      44B13F4C 
 379      78669ED0 
ARM GAS  /tmp/ccfeOUca.s 			page 29


 380 03b5 F672F1E9 		.ascii	"\366r\361\351\032\331\265\233\246\222\\\325\222>8\247"
 380      1AD9B59B 
 380      A6925CD5 
 380      923E38A7 
 381 03c5 AF1AB7D3 		.ascii	"\257\032\267\323\357\011\275uXm\353$y\006\356\257\332"
 381      EF09BD75 
 381      586DEB24 
 381      7906EEAF 
 381      DA
 382 03d6 A694C536 		.ascii	"\246\224\3056\211\370\372mJ\231l\223_l\023\217\224D"
 382      89F8FA6D 
 382      4A996C93 
 382      5F6C138F 
 382      9444
 383 03e8 177FB662 		.ascii	"\027\177\266b<S\322\226\317\224\214\331\255\220.?S\276"
 383      3C53D296 
 383      CF948CD9 
 383      AD902E3F 
 383      53BE
 384 03fa 5C315837 		.ascii	"\\1X7\363\350\332\346j\261`\355B|=\353\026\023\326\001"
 384      F3E8DAE6 
 384      6AB160ED 
 384      427C3DEB 
 384      1613D601 
 385 040e C13A586A 		.ascii	"\301:Xj\370\317\215\324\255\326]\363\254\036s\250\217"
 385      F8CF8DD4 
 385      ADD65DF3 
 385      AC1E73A8 
 385      8F
 386 041f F456EE71 		.ascii	"\364V\356q\353\236\375r\330rS\216\360t\334_%\257\315"
 386      EB9EFD72 
 386      D872538E 
 386      F074DC5F 
 386      25AFCD
 387 0432 429E1BF1 		.ascii	"B\236\033\361\365\362\332L\344\205\204\274pI\336\015"
 387      F5F2DA4C 
 387      E48584BC 
 387      7049DE0D 
 388 0442 2375BB0D 		.ascii	"#u\273\015y\0355\362\332+\345Q3yG-\037W\307x:\356\257"
 388      791D35F2 
 388      DA2BE551 
 388      3379472D 
 388      1F57C778 
 389 0459 92D76921 		.ascii	"\222\327i!\317\203\370zy\235&\362\"B^T\357\271\177\312"
 389      CF83F87A 
 389      799D26F2 
 389      22425E54 
 389      EFB97FCA 
 390 046d 3DD7A553 		.ascii	"=\327\245S\221j{\256\333\254\347\272\312\217_\265\334"
 390      916A7BAE 
 390      DBACE7BA 
 390      CA8F5FB5 
 390      DC
 391 047e 73C72DF5 		.ascii	"s\307-\365\364\010gw\225\236^\013=^\304\327\353\351"
 391      F4086777 
 391      959E5E0B 
 391      3D5EC4D7 
ARM GAS  /tmp/ccfeOUca.s 			page 30


 391      EBE9
 392 0490 35D11313 		.ascii	"5\321\023\023z\342\245\355\3320R\367\331\330\256\023"
 392      7AE2A5ED 
 392      DA3052F7 
 392      D9D8AE13 
 393 04a0 35DBD5B7 		.ascii	"5\333\325\267g7\236\254\254Q\225\274,O\307\375U\362"
 393      67379EAC 
 393      AC5195BC 
 393      2C4FC7FD 
 393      55F2
 394 04b2 7216F27C 		.ascii	"r\026\362|\210\257\227\2273\221\227\020\362\222%y[F"
 394      88AF9797 
 394      33919710 
 394      F2922579 
 394      5B46
 395 04c4 EA7E1BF2 		.ascii	"\352~\033\362\006j\344\365\357\331\215\247,\345\015"
 395      066AE4F5 
 395      EFD98DA7 
 395      2CE50D
 396 04d3 F274DC5F 		.ascii	"\362t\334_%o\310B\236\037\361\365\362\206L\344\245\204"
 396      256FC842 
 396      9E1FF1F5 
 396      F2864CE4 
 396      A584
 397 04e5 BC74E9A0 		.ascii	"\274t\351\240\372\326\326A\265]>\250\206\255\253\260"
 397      FAD6D641 
 397      B55D3EA8 
 397      86ADABB0 
 398 04f5 A11F54DA 		.ascii	"\241\037T\332\311\"\217VVb\330\354h\241Z\372\237\312"
 398      C9228F56 
 398      5662D8EC 
 398      68A15AFA 
 398      9FCA
 399 0507 E947EE97 		.ascii	"\351G\356\227>d\235~\244\276\320F\372\237\367<\271p"
 399      3E649D7E 
 399      A4BED046 
 399      FA9FF73C 
 399      B970
 400 0519 8DE21FD3 		.ascii	"\215\342\037\323\322\026\231\346\277+\306\221\341;\361"
 400      D21699E6 
 400      BF2BC691 
 400      E13BF1
 401 0528 B55C388E 		.ascii	"\265\\8\216\341F\354z\2760\226{\374|a\254\360\344\323"
 401      E146EC7A 
 401      BE30967B 
 401      FC7C61AC 
 401      F0E4D3
 402 053b CF0D8C64 		.ascii	"\317\015\214d\007\262C\271\334\344\271\027's\027'\305"
 402      07B243B9 
 402      DCE4B917 
 402      27731727 
 402      C5
 403 054c E7E4F9F1 		.ascii	"\347\344\371\361l\2368.\\,\274\300.\014\374\017s\205"
 403      6C9E382E 
 403      5C2CBCC0 
 403      2E0CFC0F 
 403      7385
ARM GAS  /tmp/ccfeOUca.s 			page 31


 404 055e C142     		.ascii	"\301B"
 405              		.text
 406              		.section	.gnu.lto_thd4_execute.cf4418541a8b8b3a,"",%progbits
 407 0000 789CCD95 		.ascii	"x\234\315\225\317kSA\020\307gv\337\357\374\024O\005"
 407      CF6B5341 
 407      10C76776 
 407      DFEFFC14 
 407      4F05
 408 0012 85D283A0 		.ascii	"\205\322\203\240`BA\374\007\274\327\203-\350I\232\264"
 408      604241FC 
 408      07BCD783 
 408      2DE8499A 
 408      B4
 409 0023 B40FF4A2 		.ascii	"\264\017\364\242\271y\310\306D,U$\350\251B!=\010\351"
 409      B979C8C6 
 409      442C5524 
 409      E8A94221 
 409      3D08E9
 410 0036 41831EC4 		.ascii	"A\203\036\304\203\207\336T\252-\202\367\006=TPA\360"
 410      8387DE54 
 410      AA2D82F7 
 410      063D5450 
 410      41F0
 411 0048 A6E27366 		.ascii	"\246\342sf_^^\332$\255\012B\027\262o\367;?v>\273\014"
 411      5F5E5EDA 
 411      24AD0A42 
 411      17B26FF7 
 411      3B3F763E 
 412 005e 112060F7 		.ascii	"\021 `\367\230\241\337\011\033\340$o\022\200\344\201"
 412      98A1DF09 
 412      1BE0246F 
 412      1280E481 
 413 006e 42480025 		.ascii	"BH\000%\014\232\014\211\036)\2060Y\261X1\265b\011\233"
 413      0C9A0C89 
 413      1E298630 
 413      59B15831 
 413      B562099B 
 414 0082 1587155B 		.ascii	"\025\207\025[+\216pY\361Xq\265\342!RR\204\262\220\206"
 414      2B8E7059 
 414      F15871B5 
 414      E2215252 
 414      84B29086 
 415 0096 69D98EEB 		.ascii	"i\331\216\353a\371\002K\220\032\203\025\245\356\266"
 415      61F9024B 
 415      901A8315 
 415      A5EEB6
 416 00a5 6F7C581A 		.ascii	"o|X\032Yl\\\257\253_A\200>\233\212\010\347i\205\243"
 416      596C5CAF 
 416      AB5F4180 
 416      3E9B8A08 
 416      E76985A3 
 417 00b9 FAC335F4 		.ascii	"\372\3035\364\2160L=i*\267\241~\006\201\374\363\230"
 417      8E304C3D 
 417      692AB7A1 
 417      7E0681FC 
 417      F398
 418 00cb 474D25A3 		.ascii	"GM%\243\030\031\3078a\014\016\212Y{\272q\333\253W\026"
ARM GAS  /tmp/ccfeOUca.s 			page 32


 418      1819C738 
 418      610C0E8A 
 418      597BBA71 
 418      DBAB5716 
 419 00df 5410940F 		.ascii	"T\020\224\017^q\357\016rq[\033\313\377\360\260k\337"
 419      5E71EF0E 
 419      72715B1B 
 419      CBFFF0B0 
 419      6BDF
 420 00f1 365EAD20 		.ascii	"6^\255 \035Y\371\032\004\231\377[\341\217\365;#*\256"
 420      1D59F91A 
 420      0499FF5B 
 420      E18FF53B 
 420      232AAE
 421 0104 D010701C 		.ascii	"\320\020p\034\3679\255%\326\332A\360z\253\361\3769\036"
 421      F739AD25 
 421      D6DA41F0 
 421      7AABF1FE 
 421      391E
 422 0116 3E84308D 		.ascii	">\2040\215\017q\214z\212\012\225<\0314I\263#[\254\330"
 422      0F718C7A 
 422      8A0A953C 
 422      193449B3 
 422      235BACD8 
 423 012a 3C392CBB 		.ascii	"<9,\273\035\331c%\301S\222\345\024\257\322\035[\206"
 423      1DD96325 
 423      C15392E5 
 423      14AFD21D 
 423      5B86
 424 013c 3759D00C 		.ascii	"7Y\320\014`BM\251\372hh\321L4&\365<\305]*7\241\332\016"
 424      60424DA9 
 424      FA6868D1 
 424      4C3426F5 
 424      3CC55D2A 
 425 0154 1E78D3D8 		.ascii	"\036x\323\330BjN\270\006\337\325\202\312\372h\0261$"
 425      426A4EB8 
 425      06DFD582 
 425      CAFA6816 
 425      3124
 426 0166 F691FA95 		.ascii	"\366\221\372\225\275\026oZ\241\327\034b\257\233\350"
 426      BD166F5A 
 426      A1D71C62 
 426      AF9BE8
 427 0175 75ABB56F 		.ascii	"u\253\265o\315\365\345\262\213\272\026\320\327\001\037"
 427      CDF5E5B2 
 427      8BBA16D0 
 427      D7011F
 428 0184 19873AFE 		.ascii	"\031\207:\376\015T\027\252\217\217D9\005\245\215\354"
 428      0D5417AA 
 428      8F8F4439 
 428      05A58DEC 
 429 0194 A1514626 		.ascii	"\241QF&\031\231>\261i\023\272u\030\335#\334\"\032\335"
 429      19993EB1 
 429      6913BA75 
 429      18DD23DC 
 429      221ADD
 430 01a7 233C0CF3 		.ascii	"#<\014\363\321;&\000^B\3553v#\330.{\237c\222\267r\212"
ARM GAS  /tmp/ccfeOUca.s 			page 33


 430      D13B2600 
 430      5E42ED33 
 430      7623D82E 
 430      7B9F6392 
 431 01be C3F5652C 		.ascii	"\303\365e,\305\230\346\036\230\367\377\012\363K\027"
 431      C598E61E 
 431      98F7FF0A 
 431      F34B17
 432 01cd D3A2B443 		.ascii	"\323\242\264C0\355\310\264\033\323\031\202)\302|v?\246"
 432      30EDC8B4 
 432      1BD31982 
 432      29C27C76 
 432      3FA6
 433 01df 3300D3D4 		.ascii	"3\000\323\324\230V\007\263\031c\272{`\256\356\207Y\237"
 433      985607B3 
 433      1963BA7B 
 433      60AEEE87 
 433      599F
 434 01f1 E8C15C3D 		.ascii	"\350\301\\=\032\345\364(md\337\205\231\210L\367&vb&"
 434      1AE5F428 
 434      6D64DF85 
 434      99884CF7 
 434      26766226 
 435 0205 8760CA30 		.ascii	"\207`\3120_\242\03739\000\323\326\230N\007\263\265\235"
 435      5FA21F33 
 435      3900D3D6 
 435      984E07B3 
 435      B59D
 436 0217 8E9C5343 		.ascii	"\216\234SC0u\345\205\310+M\216\361\373\360\025<{\321"
 436      3075E585 
 436      C82B4D8E 
 436      F1FBF015 
 436      3C7BD1
 437 022a DF1D7407 		.ascii	"\337\035t\007\246\316@\0011\376\366r\0272C\006\235F"
 437      A6CE4001 
 437      31FEF672 
 437      17324306 
 437      9D46
 438 023c EE64CC0E 		.ascii	"\356d\314\016a4\302\2433\375\214\331\001\214\256f\244"
 438      6134C2A3 
 438      33FD8CD9 
 438      018CAE66 
 438      A4
 439 024d 3F47B90E 		.ascii	"?G\271\016\025:}\206[\365\255^\306N\2441\345\261K~!"
 439      153A7D86 
 439      5BF5AD5E 
 439      C64EA431 
 439      E5B14B7E 
 440 0262 7F66DE2F 		.ascii	"\177f\336/\370g\317]\034?\235\033\317\235\312\347K\263"
 440      F867CF5D 
 440      1C3F9D1B 
 440      CF9DCAE7 
 440      4BB3
 441 0274 574BF92B 		.ascii	"WK\371+%\375-\315\317\344\212`\224\374\313\263\277\001"
 441      25FD2DCD 
 441      CFE48A60 
 441      94FCCBB3 
ARM GAS  /tmp/ccfeOUca.s 			page 34


 441      BF01
 442 0286 06C58E26 		.ascii	"\006\305\216&"
 443              		.text
 444              		.section	.gnu.lto_.symbol_nodes.cf4418541a8b8b3a,"",%progbits
 445 0000 789C4D91 		.ascii	"x\234M\221\311r\323@\020\206\273[R\344\200\304XfK\342"
 445      C972D340 
 445      1086BB5B 
 445      52E480C4 
 445      58664BE2 
 446 0014 2406C2F6 		.ascii	"$\006\302\366Zy\2226\026\304\216\0156\204\"T\221*\250"
 446      5A799236 
 446      16C48E0D 
 446      36842254 
 446      912AA8
 447 0027 B20E7083 		.ascii	"\262\016p\203\013G(J\276s\342\001\260|\345\302\276&"
 447      0B47284A 
 447      BE73E201 
 447      B07CE5C2 
 447      BE26
 448 0039 61667A60 		.ascii	"afz`\244\3137_O\367\314/\211\200\340e\010\362\32010"
 448      A4CB375F 
 448      4FF7CC2F 
 448      8980E065 
 448      08F2D031 
 449 004e C0DDB700 		.ascii	"\300\335\267\000\314\017\006\333\324E\306\232\016\220"
 449      CC0F06DB 
 449      D445C69A 
 449      0E90
 450 005c A9A6F790 		.ascii	"\251\246\367\220\203\232>G\016k\372\0129\362\032\335"
 450      839A3E47 
 450      0E6BFA0A 
 450      39F21ADD 
 451 006c 20BD027A 		.ascii	" \275\002z\215\274Tk\372\210\034;}\267\273M\237\220"
 451      8DBC546B 
 451      FA881C3B 
 451      7DB7BB4D 
 451      9F90
 452 007e 1B5EA33F 		.ascii	"\033^\243?\210z&:B2\243O\221\227k\243\317\220O\324\316"
 452      887A263A 
 452      4232A34F 
 452      91976BA3 
 452      CF904FD4 
 453 0093 DFA520E4 		.ascii	"\337\245 \344\200\276 \237\254\035\370\0029\251\315"
 453      80BE209F 
 453      AC1DF802 
 453      39A9CD
 454 00a2 7C434E6B 		.ascii	"|CNk\273?\220O\325\256\373\205a\254\257\373\214\221"
 454      BB3F904F 
 454      D5AEFB85 
 454      61ACAFFB 
 454      8C91
 455 00b4 C1575C32 		.ascii	"\301W\\2\370\216\261\301Olh\340od%\023\335.b\227\270"
 455      F88EB1C1 
 455      4F6C68E0 
 455      6F642513 
 455      DD2E6297 
 456 00c9 E9ED1839 		.ascii	"\351\355\0309\363v\210\334\362v\213\370\264\267\233"
ARM GAS  /tmp/ccfeOUca.s 			page 35


 456      F37688DC 
 456      F2768BF8 
 456      B4B79B
 457 00d8 C467BC0D 		.ascii	"\304g\274\015\210\317z\353\023\237\363\266C|\336[N\274"
 457      88CF7AEB 
 457      139FF3B6 
 457      437CDE5B 
 457      4EBC
 458 00ea E2AD47BC 		.ascii	"\342\255G\274\352mD\274\346mH\334\3666&^\3676!\336\360"
 458      EA6D44BC 
 458      E66D48DC 
 458      F636265E 
 458      F73621DE 
 459 00ff 768778D3 		.ascii	"v\207x\323\333m\342\316\177\013\002\202\336\373#\014"
 459      DB6DE2CE 
 459      7F0B0282 
 459      DEFB230C 
 460 010f C2401847 		.ascii	"\302@\030G\302\306\012\024\206\3131L-\333\260p^\316"
 460      C2C60A14 
 460      86CB314C 
 460      2DDBB070 
 460      5ECE
 461 0121 C5F39D0F 		.ascii	"\305\363\235\017\035\343\225e\033\212\276xo(>\033\212"
 461      1DE39565 
 461      1B8ABE78 
 461      6F283E1B 
 461      8A
 462 0132 4F47E20B 		.ascii	"OG\342\013\3135(\306\206\25303L@\356K6\344\276d\035"
 462      CB3528C6 
 462      86AB3033 
 462      4C40EE4B 
 462      36E4BE64 
 463 0147 6686E905 		.ascii	"f\206\351\005\310-;RO7\2410\367\244\010\245\241r\271"
 463      C82D3B52 
 463      4F37A130 
 463      F7A408A5 
 463      A172B9
 464 015a 94CBA55C 		.ascii	"\224\313\245\\.\345r)\227K\271\\\312\345R.\227J\240"
 464      2EE57229 
 464      974BB95C 
 464      CAE5522E 
 464      974AA0
 465 016d 37927A69 		.ascii	"7\222ziy\011r\223G\245PZ^\204|b\250\363Z\352\274\206"
 465      79097293 
 465      47A5505A 
 465      5E847C62 
 465      A8F35AEA 
 466 0183 CD44F236 		.ascii	"\315D\3626C\271\277\251\373\015\263X\352\331e\311\237"
 466      43B9BFA9 
 466      FB0DB358 
 466      EAD965C9 
 466      9F
 467 0194 6D413E97 		.ascii	"mA>\227\272\315\245\335\346\327\373\013\313-\230\231"
 467      BACDA5DD 
 467      E6D7FB0B 
 467      CB2D9899 
 468 01a4 5C99CB65 		.ascii	"\\\231\313e\334\322\345\312\"\371nY\012\323\261\364"
ARM GAS  /tmp/ccfeOUca.s 			page 36


 468      DCD2E5CA 
 468      22F96E59 
 468      0AD3B1F4 
 469 01b4 D95CE69C 		.ascii	"\331\\\346\234\211\234\223\357\271\271=\351\357\335"
 469      899C93EF 
 469      B9B93DE9 
 469      EFDD
 470 01c2 17CFF7C5 		.ascii	"\027\317\367\305\313}\267\377P\372\213Gn\377\300\355"
 470      CB7DB7FF 
 470      50FA8B47 
 470      6EFFC0ED 
 471 01d2 1FB8FDC7 		.ascii	"\037\270\375\307n\376\211\333\257\336\034\006&H)\213"
 471      6EFE89DB 
 471      AFDE1C06 
 471      2648298B 
 472 01e2 08AA7F8B 		.ascii	"\010\252\177\213\351\302.R\250\354\242u]~R\253)\037"
 472      E9C22E52 
 472      A8ECA275 
 472      5D7E52AB 
 472      291F
 473 01f4 A3754D5E 		.ascii	"\243uM^\276u\005\212\271\324\253\271\324\355O\321u\373"
 473      BE75058A 
 473      B9D4ABB9 
 473      D4ED4FD1 
 473      75FB
 474 0206 F2A6DFBC 		.ascii	"\362\246\337\274\274\351\357K\275\030J\275\262\274\012"
 474      BCE9EF4B 
 474      BD184ABD 
 474      B2BC0A
 475 0215 C5C8F56B 		.ascii	"\305\310\365k\302_\337\262x\372"
 475      C25FDFB2 
 475      78FA
 476              		.text
 477              		.section	.gnu.lto_.refs.cf4418541a8b8b3a,"",%progbits
 478 0000 789C7D8A 		.ascii	"x\234}\212K\012\2000\020\305\336\004;X\213Vk?\247\364"
 478      4B0A8030 
 478      10C5DE04 
 478      3B588B56 
 478      6B3FA7F4 
 479 0014 FE5B05D7 		.ascii	"\376[\005\327\232@VA\350\322\213\005y\216Z\230-}5\254"
 479      9A405641 
 479      E8D28B05 
 479      798E5A98 
 479      2D7D35AC 
 480 0028 725C8F6C 		.ascii	"r\\\217l{\376\177\225\246\223J\2433\254\022\255\221"
 480      7BFE7F95 
 480      A6934AA3 
 480      33AC12AD 
 480      91
 481 0039 AD73D8A0 		.ascii	"\255s\330\240\350\006\275-\003N"
 481      E806BD2D 
 481      034E
 482              		.text
 483              		.section	.gnu.lto_.decls.cf4418541a8b8b3a,"",%progbits
 484 0000 789CBD5C 		.ascii	"x\234\275\\\015t\024\325\275\237\231\315n\022\022!\200"
 484      0D7414D5 
 484      BD9F99CD 
ARM GAS  /tmp/ccfeOUca.s 			page 37


 484      6E121221 
 484      80
 485 0011 28F899D6 		.ascii	"(\370\231\326\266\247\265\225\000R\305\366\265b\243"
 485      B6A7B595 
 485      0052C5F6 
 485      B562A3
 486 0020 4F7D4FAC 		.ascii	"O}O\254'`\217\347\364\264\353\260\031\310\326d\223\356"
 486      27608FE7 
 486      F4B4EBB0 
 486      19C8D664 
 486      93EE
 487 0032 4E00DBBE 		.ascii	"N\000\333\276\347$|\252\010\201\000\006\014$\240 \202"
 487      E7247CAA 
 487      08810006 
 487      0C24A020 
 487      82
 488 0043 827C4AE4 		.ascii	"\202|J\344#\203\226\220 _\001\012\001\024\002\210B\253"
 488      23839690 
 488      205F010A 
 488      01140288 
 488      42AB
 489 0055 18880650 		.ascii	"\030\210\006P \357\177\377sg\367\316\354\314\356L\254"
 489      20EF7FFF 
 489      7367F7CE 
 489      ECCCEE4C 
 489      AC
 490 0066 6FCEB977 		.ascii	"o\316\271w\356\316\334\373\273\377\357{\347\316\235"
 490      EECEDCFB 
 490      BBFFEF7B 
 490      E7CE9D
 491 0075 153881CB 		.ascii	"\0258\201\313\367q\\'\034wH\034\367\273L\216\313\342"
 491      F7715C27 
 491      1C77481C 
 491      F7BB4C8E 
 491      CBE2
 492 0087 38EED75C 		.ascii	"8\356\327\\\354\310\206\264\020\322\022Ho@Z\017\251"
 492      ECC886B4 
 492      10D21248 
 492      6F405A0F 
 492      A9
 493 0098 0ED22648 		.ascii	"\016\322&H\323x\216\233\011i.\244jH5\220\026AZ\014i"
 493      D3788E9B 
 493      09692EA4 
 493      6A483590 
 493      16415A0C 
 494 00ad 29A4E590 		.ascii	")\244\345\220V@Z\015i#\244\315\220vB\332\015i/\244\003"
 494      56405A0D 
 494      6923A4CD 
 494      907642DA 
 494      0D692FA4 
 495 00c2 900E426A 		.ascii	"\220\016Bj\201\364!\244c\220NA\372\024\322\347\220\316"
 495      81F421A4 
 495      63904E41 
 495      FA14D2E7 
 495      90CE
 496 00d4 436A8794 		.ascii	"Cj\207\224\016}}\005\347\277\011\034W\006i\"\244\251"
 496      0E7D7D05 
ARM GAS  /tmp/ccfeOUca.s 			page 38


 496      E7BF091C 
 496      57066922 
 496      A4A9
 497 00e6 9016425A 		.ascii	"\220\026BZ\016i5\244M\002g8\010\315^H+ u\207\004\254"
 497      0E6935A4 
 497      4D026738 
 497      08CD5E48 
 497      2B207587 
 498 00fc 71DBA0CE 		.ascii	"q\333\240\316vZO\240u\232L\3558\312k\262\266Kl\332\022"
 498      765A4FA0 
 498      759A4CED 
 498      38CA6BB2 
 498      B64B6CDA 
 499 0111 198148B9 		.ascii	"\031\201H\271\345L\333}P\3570\244\375\220\200\015\356"
 499      E54CDB7D 
 499      50EF30A4 
 499      FD90800D 
 499      EE
 500 0122 5FF44CEA 		.ascii	"_\364L\352\222\263\317c\304XO\373g1R\241\3162.\326\377"
 500      92B3CF63 
 500      C4584FFB 
 500      673152A1 
 500      CE322ED6 
 501 0137 7AA67D9A 		.ascii	"z\246}\232\251}\235\203\366u\024\203\264O7\265\337D"
 501      A97D9D83 
 501      F6751483 
 501      B44F37B5 
 501      DF44
 502 0149 79D8C2B4 		.ascii	"y\330\302\264\277\012\025; u\363h\355\257@\371:\312"
 502      BF0A153B 
 502      2075F368 
 502      EDAF40F9 
 502      3ACA
 503 015b C7268A49 		.ascii	"\307&\212It\224a\302\"6\222\012\347\035\014\026\301"
 503      749461C2 
 503      2236920A 
 503      E71D0C16 
 503      C1
 504 016c CD847A9B 		.ascii	"\315\204z\233\341\\Oih\242\030\244\376&z\355:\023\026"
 504      E15C4F69 
 504      68A218A4 
 504      FE267AED 
 504      3A1316
 505 017f B1354257 		.ascii	"\2615BW\007\203U\007\327\272C\275\225|\214\267\231\324"
 505      07835507 
 505      D7BA43BD 
 505      957C8CB7 
 505      99D4
 506 0191 EEC8A539 		.ascii	"\356\310\2459\274\021\203\330\352Mp\276\237\225\015"
 506      BC1183D8 
 506      EA4D70BE 
 506      9F950D
 507 01a0 A5692DDC 		.ascii	"\245i-\334\373_\000\370\037H=\0003\005\256e\301y:\\"
 507      FB5F00F8 
 507      1F483D00 
 507      3305AE65 
 507      C1793A5C 
ARM GAS  /tmp/ccfeOUca.s 			page 39


 508 01b4 EFE9D164 		.ascii	"\357\351\321d\332\004\345^\036\315\036\266@\271\034"
 508      DA04E55E 
 508      1ECD1EB6 
 508      40B91C
 509 01c3 CEBDE1F7 		.ascii	"\316\275\341\367\0348/\202\373\327C\271\017\244\033"
 509      1C382F82 
 509      FBD743B9 
 509      0FA41B
 510 01d2 20ADA17D 		.ascii	" \255\241}\373h\277\323\250\017\314\244\376@\374\202"
 510      FB68BFD3 
 510      A80FCCA4 
 510      FE40FC82 
 511 01e2 B0A8DB75 		.ascii	"\260\250\333u_\023\277\304\247\010?:69R\350ub\273\273"
 511      5F13BFC4 
 511      A7083F3A 
 511      363952E8 
 511      7562BBBB 
 512 01f6 A93F990F 		.ascii	"\251?\231\017\342\207Y&\375\24528Cx\243>\373y4\375\020"
 512      E2875926 
 512      FDA53238 
 512      4378A33E 
 512      FB7934FD 
 513 020b 5DDC04E5 		.ascii	"]\334\004\345\233!5\363\032\277D\317\036h\367k\252o"
 513      9B2135F3 
 513      1ABF44CF 
 513      1E68F76B 
 513      AA6F
 514 021d A2272FED 		.ascii	"\242'/\355\343 \365a\342\313K\250\354\211o~e\242\211"
 514      E320F561 
 514      E2CB4BA8 
 514      EC896F7E 
 514      65A289
 515 0230 C4845BBE 		.ascii	"\304\204[\276C\231\337\002\345\303\274\265\354\273\321"
 515      4399DF02 
 515      E5C3BCB5 
 515      ECBBD1
 516 023f FE59D957 		.ascii	"\376Y\331W\323xSCc\217\225.n5\351b1\265c\326\247\364"
 516      D3785343 
 516      638F952E 
 516      6E35E962 
 516      31B563D6 
 517 0255 FE59DF4A 		.ascii	"\376Y\337J\241uI\037uTN\204\224\333Lx$>\366\242r\320"
 517      A175491F 
 517      75544E84 
 517      94DB4C78 
 517      243EF6A2 
 518 026b F1882C88 		.ascii	"\361\210,\210Lv02\270\035\316\037\3039\233\312\3428"
 518      4C763032 
 518      B81DCE1F 
 518      C3399BCA 
 518      E238
 519 027d 1FEB97F5 		.ascii	"\037\353\227\365!\"{\242\233\020\245s)\345\371\024\215"
 519      21227BA2 
 519      9B10A573 
 519      29E5F914 
 519      8D
 520 028e ABD5D4AF 		.ascii	"\253\325\324\257tz\276g\242\207\304\352L\013z\2263\374"
ARM GAS  /tmp/ccfeOUca.s 			page 40


 520      747ABE67 
 520      A287C4EA 
 520      4C0B7A96 
 520      33FC
 521 02a0 7D1FCEE7 		.ascii	"}\037\316\347\340\332\035\224\2263\214}/\247\261z1\215"
 521      E0DA1D94 
 521      96338C7D 
 521      2FA7B17A 
 521      318D
 522 02b2 DB7A0C27 		.ascii	"\333z\014'U~`\352\353vn\201\242\356m\235\370\311)a\256"
 522      557E60EA 
 522      EB766E81 
 522      A2EE6D9D 
 522      F8C92961 
 523 02c7 A24E5060 		.ascii	"\242NP`\370Q\370\354\033\270\331\012\034\265\223\024"
 523      F851F8EC 
 523      1BB8D90A 
 523      1CB59314 
 524 02d7 859745FE 		.ascii	"\205\227E\376\327}\270\247x\221\357\236\016C\020)d\246"
 524      D77DB8A7 
 524      7891EF9E 
 524      0E431029 
 524      64A6
 525 02e9 A36C394E 		.ascii	"\243l9N\344\027\3617\320\322\223\024Y\340\356\345\271"
 525      E417F137 
 525      D0D29314 
 525      59E0EEE5 
 525      B9
 526 02fa 3BB937A0 		.ascii	";\2717\240}\205\242,\372\276\205S\300\361#n1\351AY\252"
 526      7D85A22C 
 526      FABE8553 
 526      C0F1236E 
 526      31E94159 
 527 030f 78109F20 		.ascii	"x\020\237 ,\344og\253\210\374\253\274!\252k\264\252"
 527      2CE46F67 
 527      AB88FCAB 
 527      BC21AA6B 
 527      B4AA
 528 0321 15C7332B 		.ascii	"\025\3073+\312Z;;kj\263\264\376\005\356\021\036j\277"
 528      CA5A3B3B 
 528      6B6AB3B4 
 528      FE05EE11 
 528      1E6ABF
 529 0334 C6DF9910 		.ascii	"\306\337\231\020~\211\031\376u+\370\326\303\015\273"
 529      7E8919FE 
 529      752BF8D6 
 529      C30DBB
 530 0343 66F295E3 		.ascii	"f\362\225\343\225F\245\255\263\263GE\232A\026\351\334"
 530      9546A5AD 
 530      B3B34745 
 530      9A4116E9 
 530      DC
 531 0354 14452927 		.ascii	"\024E)'?\036i\004\325XI\345\207\334k\300yk\375\216u"
 531      3F1E6904 
 531      D55849E5 
 531      87DC6BC0 
 531      796BFD8E 
ARM GAS  /tmp/ccfeOUca.s 			page 41


 532 0369 772A4A9A 		.ascii	"w*J\232\310/\347\323\201\302z\336H\242s\2405\323\266"
 532      C82FE7D3 
 532      81C27ADE 
 532      48A273A0 
 532      35D3B6
 533 037c 6DE5CBA1 		.ascii	"m\345\313\241s\221_\201P\237v\031\252y\372\246\373\220"
 533      73915F81 
 533      509F7619 
 533      AA79FAA6 
 533      FB90
 534 038e A65508B4 		.ascii	"\246U\010\264@0\002\211|j\272QB\360[\257@\320\3606-"
 534      40300289 
 534      7C6ABA51 
 534      42F05BAF 
 534      40D0F036 
 535 03a3 90894A0F 		.ascii	"\220\211J\017\356;\256ngu\313,\254\356\015\301\322\010"
 535      EE3BAE6E 
 535      6775CB2C 
 535      ACEE0DC1 
 535      D208
 536 03b5 CA5B5B1A 		.ascii	"\312[[\032v\011sg\251)\232*H\2437\300\022\254\241\361"
 536      76097367 
 536      A9299A2A 
 536      48A337C0 
 536      12ACA1F1 
 537 03c9 F65A4BBB 		.ascii	"\366ZK\273\270\264\3773\236q\021\215\010\201k\267\351"
 537      B8B4FF33 
 537      9E71118D 
 537      08816BB7 
 537      E9
 538 03da 5659BD54 		.ascii	"VY\275TI\217u\271>q\227\357Xv\271`\336'\036\213.Wy\034"
 538      498F75B9 
 538      3E7197EF 
 538      5876B960 
 538      DE271E8B 
 539 03f2 755997B8 		.ascii	"uY\227\270\313w-\273\254Z\360\205m \310\340^\210\031"
 539      CB772DBB 
 539      AC5AF085 
 539      6D20C8E0 
 539      5E8819
 540 0405 5A2F6E06 		.ascii	"Z/n\006\271\223=\205D5\332\215\342\323\373y\232c\034"
 540      B9933D85 
 540      4435DA8D 
 540      E2D3FB79 
 540      9A631C
 541 0418 A1FE1768 		.ascii	"\241\376\027ht\365|/\"/\023\361\311q\004\356\012\266"
 541      74F57C2F 
 541      222F13F1 
 541      C97104EE 
 541      0AB6
 542 042a 790FDA6B 		.ascii	"y\017\332k-\021Yi\235\177r\357\220*E\311\322nq&\231"
 542      2D115969 
 542      9D7F72EF 
 542      902A45C9 
 542      D26E7126 
 543 043f 30C7F7B8 		.ascii	"0\307\367\270Z \\}y\332\374~J\355{\200\274\205\317\000"
 543      5A205C7D 
ARM GAS  /tmp/ccfeOUca.s 			page 42


 543      79DAFC7E 
 543      4AED7B80 
 543      BC85CF00 
 544 0453 D8D5293A 		.ascii	"\330\325):\254\225\230hQ;h\005#\336\274\335\231\025"
 544      AC959868 
 544      513B6805 
 544      23DEBCDD 
 544      9915
 545 0465 A20E56E7 		.ascii	"\242\016V\347\032,\333\000V\263\273\032\211s\356\315"
 545      1A2CDB00 
 545      56B3BB1A 
 545      8973EECD 
 546 0475 333E51FB 		.ascii	"3>Q\373nF\366w\240;+^\263;\257\340]\373\263\300M\361"
 546      6E46F677 
 546      A03B2B5E 
 546      B33BAFE0 
 546      5DFBB3C0 
 547 048b 3A6024CD 		.ascii	":`$\315N*D+\352}u\253\025\345y\037Um\255\317\216\021"
 547      4E2A442B 
 547      EA7D75AB 
 547      15E5791F 
 547      556DADCF 
 548 04a1 819B8E9D 		.ascii	"\201\233\216\235\3551k\366\370?\033\177\242iv\217#\315"
 548      ED316BF6 
 548      F83F1B7F 
 548      A269768F 
 548      23CD
 549 04b3 AEDBF132 		.ascii	"\256\333\3612\012\317\322B\231\336k\005\275\373\037"
 549      0ACFD242 
 549      99DE6B05 
 549      BDFB1F
 550 04c2 60F78DD8 		.ascii	"`\367\215\330\375\001s\367\213;\267\362h\262\007\034"
 550      FD0173F7 
 550      8B3BB7F2 
 550      68B2071C 
 551 04d2 F5DEBC6F 		.ascii	"\365\336\274oV|\357\266\243&\325\336\361\177\236\271"
 551      567CEFB6 
 551      A326D5DE 
 551      F17F9EB9 
 552 04e2 A506596C 		.ascii	"\245\006YlA\3739\020\247\275\3733\214\312\203\337L\005"
 552      41FB3910 
 552      A7BDFB33 
 552      8CCA83DF 
 552      4C05
 553 04f4 81FB284A 		.ascii	"\201\373(J|\227\314\267u\361\262\035\350\352\036\235"
 553      7C97CCB7 
 553      75F1B21D 
 553      E8EA1E9D 
 554 0504 8456D780 		.ascii	"\204V\327\200F\023>\260\017\375A\003;\345\004\314\326"
 554      46133EB0 
 554      0FFD4103 
 554      3BE504CC 
 554      D6
 555 0515 8CCAD583 		.ascii	"\214\312\325\203,\330'\256\301\214\224\265\260`g\235"
 555      2CD827AE 
 555      C18C94B5 
 555      B060679D 
ARM GAS  /tmp/ccfeOUca.s 			page 43


 556 0525 8065D953 		.ascii	"\200e\331Sv\204\005\373\3145\230\221\262\017Y\260/\234"
 556      768405FB 
 556      CC359891 
 556      B20F59B0 
 556      2F9C
 557 0537 80F5B5A7 		.ascii	"\200\365\265\247\354\030\013\326\356\032\314HY\033\013"
 557      EC180BD6 
 557      EE1ACC48 
 557      591B0B
 558 0546 76D10958 		.ascii	"v\321\011X\266\005e\321\303n(\337\317G\315\\\340\276"
 558      B60565D1 
 558      C36E28DF 
 558      CF47CD5C 
 558      E0BE
 559 0558 8E860397 		.ascii	"\216\206\003\227&\315\3050\256\271\216_\006\276\311"
 559      26CDC530 
 559      AEB98E5F 
 559      06BEC9
 560 0567 A872DFBB 		.ascii	"\250r\337\273\030\277\364\320>\301\347\0001\201\301"
 560      18BFF4D0 
 560      3EC1E700 
 560      3181C1
 561 0576 AC67C789 		.ascii	"\254g\307\211\251\256\301\214j9@\300\014\221\206\216"
 561      A9AEC18C 
 561      6A3940C0 
 561      0C91868E 
 562 0586 18AD8BD5 		.ascii	"\030\255\213\325\276U\261P\227\246c\221\371\267\026"
 562      BE55B150 
 562      97A66391 
 562      F9B716
 563 0595 D7603A2E 		.ascii	"\327`:.D++}\373Z\327\025\371\257\370\037B\336A\007\017"
 563      442B2B7D 
 563      FB5AD715 
 563      F9AFF81F 
 563      42DE4107 
 564 05aa 724B2BEB 		.ascii	"rK+\353\245N|\026\236\345\263\236\331'mjg\011\355\254"
 564      A54E7C16 
 564      9EE5B39E 
 564      D9276D6A 
 564      6709EDAC 
 565 05be 25CC7522 		.ascii	"%\314u\"\246\004\256\320f'&u\2222\205/[uK\264\335P\326"
 565      A604AED0 
 565      66272675 
 565      9232852F 
 565      5B754BB4 
 566 05d5 2662C1F9 		.ascii	"&b\301\371\326e\030\234\277\301\241\265\326g9\345v\204"
 566      D665189C 
 566      BFC1A1B5 
 566      D66739E5 
 566      7684
 567 05e7 B566DA1E 		.ascii	"\265f\332\036}\376~\015\301\226w\035\254\266y\317-\012"
 567      7DFE7E0D 
 567      C196771D 
 567      ACB679CF 
 567      2D0A
 568 05f9 4C64CB04 		.ascii	"Ld\313\004\002\264\326g\0362\322M\343}\272q\274OO\217"
 568      02B4D667 
ARM GAS  /tmp/ccfeOUca.s 			page 44


 568      1E32D24D 
 568      E37DBA71 
 568      BC4F4F8F 
 569 060d 153AF5C3 		.ascii	"\025:\365\303\250\305\357\264\215\235\346\277f5_\357"
 569      A8C5EFB4 
 569      8D9DE6BF 
 569      66355FEF 
 570 061d 5AF30607 		.ascii	"Z\363\006\007i\255>y\346\227/+j\231\2071\365\204~Af"
 570      69AD3E79 
 570      E6972F2B 
 570      6A998731 
 570      F5847E41 
 571 0632 52670EF1 		.ascii	"Rg\016\361\343QE\223P\262;\254U\344\000j\315\264\267"
 571      E3514593 
 571      50B23BAC 
 571      55E4006A 
 571      CDB4B7
 572 0645 7E8A5387 		.ascii	"~\212S\207\347\021h\177\227\201\232\247/\030\202@S\021"
 572      E711687F 
 572      97819AA7 
 572      2F188240 
 572      5311
 573 0657 E8689CAE 		.ascii	"\350h\234\256\315s;\336\250\203\250\333Q\257\373\256"
 573      CD733BDE 
 573      A883A8DB 
 573      51AFFBAE 
 574 0667 EA0ADC69 		.ascii	"\352\012\334i\263\302\014\354$\030\033\242\001\267\361"
 574      B3C20CEC 
 574      24181BA2 
 574      01B7F1
 575 0676 3FEA5628 		.ascii	"?\352V(\312x\237\033\215\265\352\032\233\201\362\371"
 575      CA789F1B 
 575      8DB5EA1A 
 575      9B81F2F9 
 576 0686 3C4E3E44 		.ascii	"<N>D\001\356\030\371\3125#i&F\332\272\300H\233\316\310"
 576      01EE18F9 
 576      CA352369 
 576      2646DABA 
 576      C0489BCE 
 577 069b 1C64E4EA 		.ascii	"\034d\344\352\277\201\221\211\251n\031\311b\030!S\370"
 577      BF819189 
 577      A96E19C9 
 577      62182153 
 577      F8
 578 06ac C6C7B529 		.ascii	"\306\307\265)|onf\342)<\241\347\025\241\267a\376\254"
 578      7C6F6E66 
 578      E2293CA1 
 578      E715A1B7 
 578      61FEAC
 579 06bf 7EB5873C 		.ascii	"~\265\207<\254\222\313\311&\317\212Z\271\217y\356Q\234"
 579      AC92CBC9 
 579      26CF8A5A 
 579      B98F79EE 
 579      519C
 580 06d1 3DF734D2 		.ascii	"=\3674\322\347\236\005(\261\251\251\026>\346\004\251"
 580      E79E0528 
 580      B1A9A916 
ARM GAS  /tmp/ccfeOUca.s 			page 45


 580      3EE604A9 
 581 06e1 76CDEE3E 		.ascii	"v\315\356>$\232.D\230\231]\205im\336\363\216\346\252"
 581      249A2E44 
 581      98995D85 
 581      696DDEF3 
 581      8EE6AA
 582 06f4 AF21D0BC 		.ascii	"\257!\320\274T\263\006}&\005\372\214\012\204\237\244"
 582      54B3067D 
 582      2605FA8C 
 582      0A849FA4 
 583 0704 A74B1825 		.ascii	"\247K\030%\237\243W\310\217T\356\377\275\235\300\275"
 583      9FA357C8 
 583      8F54EEFF 
 583      BD9DC0BD 
 584 0714 86E413E5 		.ascii	"\206\344\023\345\271\234\203\305\236\377\036\255\243"
 584      B99C83C5 
 584      9EFF1EAD 
 584      A3
 585 0721 F3274D41 		.ascii	"\363'MA\313\277\025b\271Z?S\177n\277\237\314\240\326"
 585      CBBF1562 
 585      B95A3F53 
 585      7F6EBF9F 
 585      CCA0D6
 586 0734 7E4B389C 		.ascii	"~K8\234r\033\246\006\246\007\267z\233\261G_\320x\241"
 586      721BA606 
 586      A607B77A 
 586      9BB1475F 
 586      D078A1
 587 0747 21BA2027 		.ascii	"!\272 '\020\2026\306)|\013ozv#\027\230*v\236\364\226"
 587      108236C6 
 587      297C0B6F 
 587      7A762317 
 587      982A769E 
 588 075d C00C84BB 		.ascii	"\300\014\204\273\277\035\237$\034\375\2676\221M\366"
 588      BF1D9F24 
 588      1CFDB736 
 588      914DF6
 589 076c 58FCB48E 		.ascii	"X\374\264\216\226\211\035\037\300\216\327\012\246\247"
 589      96891D1F 
 589      C08ED70A 
 589      A6A7
 590 077a E2CACED6 		.ascii	"\342\312\316\326I\224or/\271k\037=\235\256\314\314\264"
 590      49946F72 
 590      2FB96B1F 
 590      3D9DAECC 
 590      CCB4
 591 078c E8CF6A9A 		.ascii	"\350\317j\232T\377\302\201\031\374\004D\337 \220\205"
 591      54FFC281 
 591      19FC0444 
 591      DF209085 
 592 079c A2A96996 		.ascii	"\242\251i\226\013E\265C\355\200\004\256\032\233l4\023"
 592      0B45B543 
 592      ED8004AE 
 592      1A9B6C34 
 592      13
 593 07ad 3EFFE4A5 		.ascii	">\377\344\245\376\332j\302F\007t\227\253\347_d\327\211"
 593      FEDA6AC2 
ARM GAS  /tmp/ccfeOUca.s 			page 46


 593      46077497 
 593      ABE75F64 
 593      D789
 594 07bf 44BE8117 		.ascii	"D\276\201\027(l\327\014\356\302\007\321\371\277\310"
 594      286CD70C 
 594      EEC207D1 
 594      F9BFC8
 595 07ce 37BA     		.ascii	"7\272"
 596 07d0 06CBB622 		.ascii	"\006\313\266\"U7\254\030\263\"\277Y \363\366-\302\367"
 596      5537AC18 
 596      B322BF59 
 596      20F3F62D 
 596      C2F7
 597 07e2 20AF873C 		.ascii	" \257\207<z\010\334[i\272J\255$\227\334\251+;/\315\301"
 597      7A08DC5B 
 597      69BA4AAD 
 597      2497DCA9 
 597      2B3B2FCD 
 598 07f7 45F1016E 		.ascii	"E\361\001n\342\364\031\032\247\337\3030\260.\315\354"
 598      E2F4191A 
 598      A7DFC330 
 598      B02ECDEC 
 599 0807 260BCD23 		.ascii	"&\013\315#\233\253@\265\321\314\223\323\025\206\350"
 599      9BAB40B5 
 599      D1CC93D3 
 599      1586E8
 600 0816 61E7866B 		.ascii	"a\347\206kX7\334\232\366m\335\360\322c\316\334P\341"
 600      5837DC9A 
 600      F66DDDF0 
 600      D263CEDC 
 600      50E1
 601 0828 75B82CEC 		.ascii	"u\270,\354\271\021{n2\233\363\376%M\223\3712\364\224"
 601      B9117B6E 
 601      329BF3FE 
 601      254D93F9 
 601      32F494
 602 083b 26477EF8 		.ascii	"&G~\370\025\372\241\356WW\242\250]1\205r\365\362\331"
 602      15FAA1EE 
 602      5757A2A8 
 602      5D318572 
 602      F5F2D9
 603 084e 261EE1E8 		.ascii	"&\036\341\350\303q\272\011\316\251\026(\334\025\251"
 603      C371BA09 
 603      CEA91628 
 603      DC15A9
 604 085d 71803BC1 		.ascii	"q\200;\301h\346\245\036>M&\031\373\264X\221n6-M2\214"
 604      68E6A51E 
 604      3E4D2619 
 604      FBB45891 
 604      6E362D4D 
 605 0873 6935318E 		.ascii	"i51\216\362\001:\312Nt\224\335\230\357e\335\305\316"
 605      F2013ACA 
 605      4E7494DD 
 605      98EF65DD 
 605      C5CE
 606 0885 2C9A59B3 		.ascii	",\232Y\263\230\345\232\357l\207\326\327\310v\363J\372"
 606      98E59AEF 
ARM GAS  /tmp/ccfeOUca.s 			page 47


 606      6C87D6D7 
 606      C876F34A 
 606      FA
 607 0896 B7B3BEEA 		.ascii	"\267\263\276\352\223\227\206\341\"\237\233u\345\026"
 607      939786E1 
 607      229F9B75 
 607      E516
 608 08a4 EAB72DE8 		.ascii	"\352\267-\350\267\213\342\204\333\245u\345\025]\345"
 608      B78BE284 
 608      DBA575E5 
 608      155DE5
 609 08b3 247A4008 		.ascii	"$z@\010Iw\360l\230m!\364\350\334\244\355q\207k\323\321"
 609      4977F06C 
 609      986D21F4 
 609      E8DCA4ED 
 609      71876BD3 
 610 08c8 B7173BCB 		.ascii	"\267\027;\313\350\260t\014M\255.\335zXJ\260\310\335"
 610      E8B0740C 
 610      4DAD2EDD 
 610      7A584AB0 
 610      C8DD
 611 08da 884D4EC4 		.ascii	"\210MN\304\017K*\035\226N8\032\226\366[\016K'\334\017"
 611      0F4B2A1D 
 611      964E381A 
 611      96F65B0E 
 611      4B27DC0F 
 612 08ee 4B56074B 		.ascii	"KV\007K\237\310\237B\007\371\3308\206\2648\021\376\217"
 612      9FC89F42 
 612      07F9D838 
 612      86B43811 
 612      FE8F
 613 0900 ED4C5151 		.ascii	"\355LQQ/\357\257\3465\372\265@t\322\214g\025\210\014"
 613      2FEFAFE6 
 613      35FAB540 
 613      74D28C67 
 613      15880C
 614 0913 780665AA 		.ascii	"x\006e\252\025\007qX\325\346\230\237;!n\200\035X\271"
 614      15077158 
 614      D5E6989F 
 614      3B216E80 
 614      1D58B9
 615 0926 5AAD8169 		.ascii	"Z\255\201i\026\337\356\004l\210\035\247\345\352\306"
 615      16DFEE04 
 615      6C881DA7 
 615      E5EAC6
 616 0935 39BAA61A 		.ascii	"9\272\246\032q\202x\3155\236\221\270\375\007\253)\236"
 616      718278CD 
 616      359E91B8 
 616      FD07AB29 
 616      9E
 617 0946 F6A6674A 		.ascii	"\366\246gJ7\007xC\355\351;?\3070\241\256t\015gT\304"
 617      37077843 
 617      EDE93B3F 
 617      C730A1AE 
 617      740D6754 
 618 095b D58344B1 		.ascii	"\325\203D\261S\373Z\275\312S\243\241\233,\331P\247\272"
 618      53FB5ABD 
ARM GAS  /tmp/ccfeOUca.s 			page 48


 618      CA53A3A1 
 618      9B2CD950 
 618      A7BA
 619 096d B8FA7C3F 		.ascii	"\270\372|?\355\231\267\035-a[\267\344\357\004\215@\270"
 619      ED99B71D 
 619      2D615BB7 
 619      E4EF048D 
 619      40B8
 620 097f CA687228 		.ascii	"\312hr(uUC&y\234\353p\344Mk\032\334\277ok\324\037\325"
 620      75554326 
 620      799CEB70 
 620      E44D6B1A 
 620      DCBF6F6B 
 621 0996 2FA399B4 		.ascii	"/\243\231\264t\373\267\004\306V\204\351\350\352\364"
 621      74FBB704 
 621      C65684E9 
 621      E8EAF4
 622 09a5 12A4D9DC 		.ascii	"\022\244\331\334O\177\340\322\010;\355\032\321ho\353"
 622      4F7FE0D2 
 622      083BED1A 
 622      D1686FEB 
 623 09b5 1BD01934 		.ascii	"\033\320\0314\260\1779\001K0\300o `n\244\334FG\237r"
 623      B07F3901 
 623      4B30C06F 
 623      20606EA4 
 623      DC46479F 
 624 09ca 0FE9BEED 		.ascii	"\017\351\276\355\337#\344\213\256\2710\210\004\204|"
 624      DF23E48B 
 624      AEB93088 
 624      04847C
 625 09d9 B65FDD5A 		.ascii	"\266_\335ZEY\365\264\233\265\337\031\237\354\325Mf2"
 625      4559F5B4 
 625      9BB5DF19 
 625      9FECD54D 
 625      6632
 626 09eb 7273398E 		.ascii	"rs9\216\233kfn\034\256\245\012\\y\206\211%\253\370i"
 626      9B6B666E 
 626      1CAEA50A 
 626      5C798689 
 626      25ABF869 
 627 09ff F55AC2EA 		.ascii	"\365Z\302\352`\335I\344/b\374\277\204S\243\253\230w"
 627      60DD49E4 
 627      2F62FCBF 
 627      8453A3AB 
 627      9877
 628 0a11 625EE621 		.ascii	"b^\346!\371$\217a\\x)\303\024>\214\256J\213\2178&$\366"
 628      F9248F61 
 628      5C7829C3 
 628      143E8CAE 
 628      4A8B8F38 
 629 0a28 9E5FE4FF 		.ascii	"\236_\344\377\216\257\"\266\361\244\333\355\2307a\276"
 629      8EAF22B6 
 629      F1A4DBED 
 629      983761BE 
 630 0a38 1BF37398 		.ascii	"\033\363s\230\267a~\001\363\313\230ODb+0\237\215\371"
 630      B7617E01 
 630      F3CB984F 
ARM GAS  /tmp/ccfeOUca.s 			page 49


 630      44622B30 
 630      9F8DF9
 631 0a4b 3CCC3FC2 		.ascii	"<\314?\302\374\023\314\317`\376O\314?\303\374\034\346"
 631      FC13CCCF 
 631      60FE4FCC 
 631      3FC3FC1C 
 631      E6
 632 0a5c 6D985F70 		.ascii	"m\230_p2\037t\370P\277\331b\263\312\354\014\233\315"
 632      321F74F8 
 632      50BFD962 
 632      B3CAEC0C 
 632      9BCD
 633 0a6e 2A73177C 		.ascii	"*s\027|1\223\257|\277\374\021}\021A\3447%\336\3071\325"
 633      3193AF7C 
 633      BFFC117D 
 633      1141E437 
 633      25DEC731 
 634 0a83 63B549EA 		.ascii	"c\265I\352\342\007\344\215x\271\332\331Y\257fs\246\375"
 634      E207E48D 
 634      78B9DAD9 
 634      59AF6673 
 634      A6FD
 635 0a95 5C6414B1 		.ascii	"\\d\024\261\243v\272'\236\332Wm\250\245\033Nv\320\015"
 635      A376BA27 
 635      9EDA576D 
 635      A8A51B4E 
 635      76D00D
 636 0aa8 27D33C09 		.ascii	"'\323<\011\011\255\260\"\264\365\350\306\023\223\371"
 636      09ADB022 
 636      B4F5E8C6 
 636      1393F9
 637 0ab7 19FA76AB 		.ascii	"\031\372v\253,\347;\317*)\241\036\334o\307\321\367\343"
 637      2CE73BCF 
 637      2A29A11E 
 637      DC6FC7D1 
 637      F7E3
 638 0ac9 4FC6F6B7 		.ascii	"O\306\366\267\011\334\207&\272\177\300\275\252(3\025"
 638      09DC8726 
 638      BA7FC0BD 
 638      AA283315 
 639 0ad9 8895E974 		.ascii	"\210\225\351t\350;\2055f\332\020\256\277\203\267\332"
 639      E83B8535 
 639      66DA10AE 
 639      BF83B7DA 
 640 0ae9 4D46DA18 		.ascii	"MF\332\030\314v\266\245\036*\033\246\351z\030\312\351"
 640      CC76B6A5 
 640      1E2A1BA6 
 640      E97A18CA 
 640      E9
 641 0afa DBD54E5B 		.ascii	"\333\325N[\313\323\324\303\\s\017\363,\005\370\217\372"
 641      CBD3D4C3 
 641      5C730FF3 
 641      2C05F88F 
 641      FA
 642 0b0b E6DFBF49 		.ascii	"\346\337\277I\302\277r\255\363\271\262r^\357d~\246\223"
 642      C2BF72AD 
 642      F3B9B272 
ARM GAS  /tmp/ccfeOUca.s 			page 50


 642      5EEF647E 
 642      A693
 643 0b1d 4EAACD9D 		.ascii	"N\252\315\235\314\267d\243\372P\334\236\273\327\035"
 643      CCB764A3 
 643      FA50DC9E 
 643      BBD71D
 644 0b2c E1D798F1 		.ascii	"\341\327\230\361km\254\340\354\315\363\243L\010z\037"
 644      6B6DACE0 
 644      ECCDF3A3 
 644      4C087A1F 
 645 0b3c 6B1CF5B1 		.ascii	"k\034\365\261\310\334\307\253\226}\324\034\271X\311"
 645      C8DCC7AB 
 645      967DD41C 
 645      B958C9
 646 0b4b 6EECD3B7 		.ascii	"n\354\323\267S\251\326\235\230\267S-Nl\335K\354\370"
 646      53A9D69D 
 646      98B7532D 
 646      4E6CDD4B 
 646      ECF8
 647 0b5d BADD82AF 		.ascii	"\272\335\202\257}\216\370Zj\346\353\015K\335\\\372\200"
 647      7D8EF85A 
 647      6AE6EB0D 
 647      4BDD5CFA 
 647      80
 648 0b6e EA265B87 		.ascii	"\352&[\207?\356\010~\271\031\376\315x\370\326\212\326"
 648      3FEE087E 
 648      B919FECD 
 648      78F8D68A 
 648      D6
 649 0b7f BA4FB7DE 		.ascii	"\272O\267\336\\\265Z\231\200,\360\316\375s\245\331?"
 649      5CB55A99 
 649      802CF0CE 
 649      FD73A5D9 
 649      3F
 650 0b90 3BF0BD85 		.ascii	";\360\275\205\301A+\2563\023\252U]eE\211\332\3210U\341"
 650      C1412BAE 
 650      3313AA55 
 650      5D654589 
 650      DAD13055 
 651 0ba5 91D5DB0D 		.ascii	"\221\325\333\015d\244q\223\361m\313D\245\214\377s4\016"
 651      64A47193 
 651      F16DCB44 
 651      A58CFF73 
 651      340E
 652 0bb7 DBBC0017 		.ascii	"\333\274\000\027\371\265\2364\362J\367:\333\327\327"
 652      F9B59E34 
 652      F24AF73A 
 652      DBD7D7
 653 0bc6 A4023948 		.ascii	"\244\0029H{\255\254\227\022\274\303\\cf\327\233\256"
 653      7BADAC97 
 653      12BCC35C 
 653      6366D79B 
 653      AE
 654 0bd7 974DCBCB 		.ascii	"\227M\313\313\035\011\242o\235'\303@\212AZKl\244\365"
 654      1D09A26F 
 654      9D27C340 
 654      8A415A4B 
ARM GAS  /tmp/ccfeOUca.s 			page 51


 654      6CA4F5
 655 0bea AEA5B4AE 		.ascii	"\256\245\264\256\304\244\245\333\305&\033\200M\226\212"
 655      C4A4A5DB 
 655      C5261B80 
 655      4D968A
 656 0bf9 9F7B6CE7 		.ascii	"\237{l\347>\210\314\265\232\277\230\307\0202:\331\016"
 656      3E88CCB5 
 656      9ABF98C7 
 656      10323AD9 
 656      0E
 657 0c0a 8C16A199 		.ascii	"\214\026\241\231\226\235O\0047\237;\361\213\2258\021"
 657      969D4F04 
 657      379F3BF1 
 657      8B953811 
 658 0c1a DC8A53A7 		.ascii	"\334\212S\247\262\356\346\251\223\3274s\362\032gN\336"
 658      B2EEE6A9 
 658      93D73473 
 658      F21A674E 
 658      DE
 659 0c2b F45821B6 		.ascii	"\364X!\266\3754J\2236j\331\350\210\014.\011h\233\273"
 659      FD344A93 
 659      366AD9E8 
 659      880C2E09 
 659      689BBB
 660 0c3e 60FD8FF1 		.ascii	"`\375\217\361\215O\203\207\214\"SL\2449\004\303e)O\206"
 660      8D4F8387 
 660      8C22534C 
 660      A43904C3 
 660      65294F86 
 661 0c52 854AECEE 		.ascii	"\205J\354\356\261\002\215\267\217\212\356\326\352\375"
 661      B1028DB7 
 661      8F8AEED6 
 661      EAFD
 662 0c60 C052BDB3 		.ascii	"\300R\275\263\333\267\3762\346\327\272\211\354\261\301"
 662      DBB7FE32 
 662      E6D7BA89 
 662      ECB1C1
 663 0c6f D8658971 		.ascii	"\330e\211q\255\343r\277\271\312{d\267\350s\321\321m"
 663      ADE372BF 
 663      B9CA7B64 
 663      B7E873D1 
 663      D16D
 664 0c81 6A0F6B88 		.ascii	"j\017k\210=\226\020\007\352\317\377W\024\302yti6\233"
 664      3D961007 
 664      EACFFF57 
 664      14C27974 
 664      69369B
 665 0c94 583B1F37 		.ascii	"X;\0377\374/\263!d\277\015/[o\212\343e\255\015\304?"
 665      FC2FB321 
 665      64BF0D2F 
 665      5B6F8AE3 
 665      65AD0DC4 
 666 0ca9 2C2166B5 		.ascii	",!f\2657\3752\016\242\331\006\342\220\215\323\355\352"
 666      37FD320E 
 666      A2D906E2 
 666      908DD3ED 
 666      EA
ARM GAS  /tmp/ccfeOUca.s 			page 52


 667 0cba A2D31D36 		.ascii	"\242\323\0356KdK\274DN\331\320r\3242\202,\330\301D\020"
 667      4B644BBC 
 667      444ED9D0 
 667      72D43282 
 667      2CD8C144 
 668 0ccf E2D30277 		.ascii	"\342\323\002w\316\006\340#\233\241\243\331~\350 \361"
 668      CE06E023 
 668      9BA1A3D9 
 668      7EE820F1 
 669 0cdf D48E97E3 		.ascii	"\324\216\227\343\366\3014\032\236M\254}cC\331Ik1/\330"
 669      F6C1341A 
 669      9E4DAC7D 
 669      6343D949 
 669      6B312FD8 
 670 0cf3 BDDA5ECC 		.ascii	"\275\332^\314\211\346\307\037\233I\333\021?\254M\311"
 670      89E6C71F 
 670      9B49DB11 
 670      3FAC4DC9 
 671 0d03 B2A6E513 		.ascii	"\262\246\345\023\033)\235\350\232\224\316$\222\322r"
 671      1B299DE8 
 671      9A94CE24 
 671      92D272
 672 0d12 43788BFE 		.ascii	"Cx\213\3766Q:\327\206\322\317,)\255:vH\350\202\257\236"
 672      36513AD7 
 672      86D2CF2C 
 672      29AD3A76 
 672      48E882AF 
 673 0d27 33D3B93C 		.ascii	"3\323\271<^d\253m\010i\263\264\314\017Y\313<\207\226"
 673      5E64AB6D 
 673      0869B3B4 
 673      CC0F59CB 
 673      3C8796
 674 0d3a F99E0DC0 		.ascii	"\371\236\015\300\005\033\231_&\363\315h\360\323f\202"
 674      051B995F 
 674      26F3CD68 
 674      F0D36682 
 675 0d4a BB6C30BE 		.ascii	"\273l0\2764b|\237[H0\346\237l|\236\337\272XQ+@\004m"
 675      34627C9F 
 675      5B4830E6 
 675      9F6C7C9E 
 675      DFBA5851 
 676 0d62 7C6767AA 		.ascii	"|gg\252\345\272\325\037tq\264\220\230\035}\333\371\345"
 676      E5BAD51F 
 676      7471B490 
 676      981D7DDB 
 676      F9E5
 677 0d74 42BA30D0 		.ascii	"B\2720\320\341!K`\037\232\272v\000%pg\260\321eO\374"
 677      E1214B60 
 677      1F9ABA76 
 677      00257067 
 677      B0D1654F 
 678 0d89 BEF871DA 		.ascii	"\276\370q\332\3022\271\225\374\375\320\374c\332\302"
 678      C232B995 
 678      FCFDD0FC 
 678      63DAC2
 679 0d98 ACC59B97 		.ascii	"\254\305\233\227\326\350\243\374-\014\361;\016\235\240"
 679      D6E8A3FC 
ARM GAS  /tmp/ccfeOUca.s 			page 53


 679      2D0CF13B 
 679      0E9DA0
 680 0da7 C45F45E2 		.ascii	"\304_E\342/\330\020o\013$p\235\330DI\211_\023\377\223"
 680      2FD8106F 
 680      0B24709D 
 680      D8444989 
 680      5F13FF93 
 681 0dbb 463AB995 		.ascii	"F:\271\225\234\364\375G\214k\312/\365\324a\023\254\211"
 681      9CF4FD47 
 681      8C6BCA2F 
 681      F5D46113 
 681      AC89
 682 0dcd 6887E562 		.ascii	"h\207\345b\325\201#\270\362\245-\263\3166\203\271Z\371"
 682      D58123B8 
 682      F2A52DB3 
 682      CE3683B9 
 682      5AF9
 683 0ddf 52D4160D 		.ascii	"R\324\026\015l\017~\367P\355\032,\333@\331\361y\306"
 683      6C0F7EF7 
 683      50ED1A2C 
 683      DB40D9F1 
 683      79C6
 684 0df1 8F171639 		.ascii	"\217\027\0269\301K\260)\265\355\010\263)u\231k0#q\035"
 684      C14BB029 
 684      B5ED08B3 
 684      2975996B 
 684      3023711D 
 685 0e05 2CD86A27 		.ascii	",\330j'`V[7\255\016\326FD\276<\205,\007\215O\301E\036"
 685      60565B37 
 685      AD0ED646 
 685      44BE3C85 
 685      2C078D4F 
 686 0e1c CC2763FE 		.ascii	"\314'c\376<\346/b\376R\212aujSO\335G,-1\231I(\352:{"
 686      3CE62F62 
 686      FE528A61 
 686      756A534F 
 686      DD472C2D 
 687 0e37 EFB07A2F 		.ascii	"\357\260z/\011\256\375i\031?Q\333\232\226B4\377^\317"
 687      09AEFD69 
 687      193F51DB 
 687      9A964234 
 687      FF5ECF
 688 0e4a A4DE617E 		.ascii	"\244\336a~\363\333\202Mf\305{G\213_\363\216Y\016\274"
 688      F3DB824D 
 688      66C57B47 
 688      8B5FF38E 
 688      590EBC
 689 0e5d A35CBDFC 		.ascii	"\243\\\275\374\362|g\237ED\273\277\236\341c\307\307"
 689      F27C679F 
 689      4544BBBF 
 689      9EE163C7 
 689      C7
 690 0e6e FA868CB9 		.ascii	"\372\206\214\271\310\307\027\311\3710\002\201\227c\223"
 690      C8C717C9 
 690      F9300281 
 690      976393
 691 0e7d 6A0B3EFE 		.ascii	"j\013>\376\240\361Q\355\210\217\272\227u\333\257J!\026"
ARM GAS  /tmp/ccfeOUca.s 			page 54


 691      A0F151ED 
 691      888FBA97 
 691      75DBAF4A 
 691      2116
 692 0e8f 56D14B87 		.ascii	"V\321K\207\355\322\212\271\372\356!4W\015\254\3125\230"
 692      EDD28AB9 
 692      FAEE2134 
 692      570DACCA 
 692      3598
 693 0ea1 D1F6371F 		.ascii	"\321\3667\037\322_\316h_\372\325:\301K\260^\276\345"
 693      D25FCE68 
 693      5FFAD53A 
 693      C14BB05E 
 693      BEE5
 694 0eb3 90797B52 		.ascii	"\220y{R\322\307\221\372\027\216\225\321\2359K\220\247"
 694      D2C791FA 
 694      178E95D1 
 694      9D394B90 
 694      A7
 695 0ec4 377AC5BD 		.ascii	"7z\305\275\017\367\230v$\231\036.\300m]\323m\220\003"
 695      0FF79876 
 695      24991E2E 
 695      C06D5DD3 
 695      6D9003
 696 0ed7 190EFFA8 		.ascii	"\031\016\377\250\357\233\307\265\265w\235\000:_\237"
 696      EF9BC7B5 
 696      B5779D00 
 696      3A5F9F
 697 0ee6 AE66E2C0 		.ascii	"\256f\342\300\002\214\0035\350\357\0131\177\025\363"
 697      028C0335 
 697      E8EF0B31 
 697      7F15F3
 698 0ef5 C5982F63 		.ascii	"\305\230/c#\200\335\244\204(?\212]\233\"P\177\353\232"
 698      2380DDA4 
 698      84283F8A 
 698      5D9B2250 
 698      7FEB9A
 699 0f08 415D8919 		.ascii	"A]\211\031\024L\373]\203\031\015j\306\021\326\240\200"
 699      144CFB5D 
 699      83190D6A 
 699      C611D6A0 
 699      80
 700 0f19 65277809 		.ascii	"e'x\011\014\352m-8k\326\271\265\027\357\022,;\221Rf"
 700      0CEA6D2D 
 700      386BD6B9 
 700      B517EF12 
 700      2C3B9152 
 701 0f2e 314A9983 		.ascii	"1J\231\203Jy\031U\360&\346oa\276\302\030\220w\3652\005"
 701      4A791955 
 701      F026E66F 
 701      61BEC218 
 701      9077F532 
 702 0f43 6463F0B3 		.ascii	"dc\360\263\032\037X\371(\352\246?V\210V\261\347\001"
 702      1A1F58F9 
 702      28EAA63F 
 702      568856B1 
 702      E701
ARM GAS  /tmp/ccfeOUca.s 			page 55


 703 0f55 BDED2C76 		.ascii	"\275\355,v[\331\216\317\365\367\367\2531\212\035\350"
 703      5BD98ECF 
 703      F5F7F7AB 
 703      318A1DE8 
 704 0f65 953C8A19 		.ascii	"\225<\212\031\221\340\261\011\333\254\213\017c{\013"
 704      91E0B109 
 704      DBAC8B0F 
 704      637B0B
 705 0f74 B530B62E 		.ascii	"\2650\266.y\030\2330^]\367\312\222X8\036\037u\356/\023"
 705      79189B30 
 705      5E5DF7CA 
 705      9258381E 
 705      1F75EE2F 
 706 0f89 3C6D18BE 		.ascii	"<m\030\276\211h\217\222\321\025+U\324\372\243\272ai"
 706      89688F92 
 706      D1152B55 
 706      D4FAA3BA 
 706      6169
 707 0f9b 1BB2AEBA 		.ascii	"\033\262\256\272\306"
 707      C6
 708 0fa0 332AE2E0 		.ascii	"3*\342\340Q4,\015lbo\007`\011&K\027~o\251U5:\201\233"
 708      51342C0D 
 708      6C626F07 
 708      6009264B 
 708      177E6FA9 
 709 0fb9 C2687576 		.ascii	"\302huv\373\211\333\264\011\250\212J\235\326;\251RM"
 709      FB89DBB4 
 709      09A88A4A 
 709      9DD63BA9 
 709      524D
 710 0fcb 4044B8EF 		.ascii	"@D\270\357\233\024\252\326l\307\027\310\357;\032\224"
 710      9B14AAD6 
 710      6CC717C8 
 710      EF3B1A94 
 711 0fdb DED9AE4B 		.ascii	"\336\331\256K\323\213a\037Ix\277\313!\244~\262\263\261"
 711      D38B611F 
 711      4978BFCB 
 711      21A47EB2 
 711      B3B1
 712 0fed DA722FD4 		.ascii	"\332r/\324\354\355d/T\023\312birY\0301\010\253"
 712      ECED642F 
 712      5413CA62 
 712      69725918 
 712      3108AB
 713 1000 3BCDA2D8 		.ascii	";\315\242\330\257\275K\337\351H\024G\033\214C\340;H"
 713      AFBD4BDF 
 713      E9481447 
 713      1B8C43E0 
 713      3B48
 714 1012 C2CE2ECB 		.ascii	"\302\316.\313\242}\222q\256[\357\032/\333\200\367\265"
 714      A27D9271 
 714      AE5BEF1A 
 714      2FDB80F7 
 714      B5
 715 1023 F63E1B47 		.ascii	"\366>\033G\245mN\260\022D\323\312\355\3257*\255*\257"
 715      A56D4EB0 
 715      1244D3CA 
ARM GAS  /tmp/ccfeOUca.s 			page 56


 715      EDD5372A 
 715      AD2AAF
 716 1036 7FE1B1C7 		.ascii	"\177\341\261\307\214g\265\327\336y@\335\311\004\324"
 716      8C67B5D7 
 716      DE7940DD 
 716      C904D4
 717 1045 5D185077 		.ascii	"]\030Pwc\020\335\213\371>\314\0178\031\337\032S\230"
 717      6310DD8B 
 717      F93ECC0F 
 717      3819DF1A 
 717      5398
 718 1057 C8D1E2DA 		.ascii	"\310\321\342\3328Y\001\202\247?\\!\366\344*\250\035"
 718      38590182 
 718      A73F5C21 
 718      F6E42AA8 
 718      1D
 719 1068 6996A6DB 		.ascii	"i\226\246\333R\324\257\024\335\257ZRzb\311\260U\024"
 719      52D4AF14 
 719      DDAF5A52 
 719      7A62C9B0 
 719      5514
 720 107a ABD8117B 		.ascii	"\253\330\021{8%\366\301Xfz\254p\177\224\203\343f\016"
 720      3825F6C1 
 720      58667AAC 
 720      707F9483 
 720      E3660E
 721 108d 4CFD2650 		.ascii	"L\375&P\234\265\240\337g\004\375w\024\3646\024\356v"
 721      9CB5A0DF 
 721      6704FD77 
 721      14F43614 
 721      EE76
 722 109f CC0F19C7 		.ascii	"\314\017\031\307\254\263\346\340f\212&\256\325\274\216"
 722      ACB3E6E0 
 722      668A26AE 
 722      D5BC8E
 723 10ae E9FD1DEC 		.ascii	"\351\375\035\354}\003\366\273\021\363\315\230\327\033"
 723      7D03F6BB 
 723      11F3CD98 
 723      D71B
 724 10bc 69E8E86D 		.ascii	"i\350\350m\0327M\303\024-\333o\230j\255>\271\367/e\212"
 724      1A374DC3 
 724      142DDB6F 
 724      986AAD3E 
 724      B9F72F65 
 725 10d1 5A3540FF 		.ascii	"Z5@\377\026\377k3\244\361\303{ZT\023D\355c\3072\243"
 725      16FF6B33 
 725      A4F1C37B 
 725      5A541344 
 725      ED63C732 
 726 10e6 613BE95E 		.ascii	"a;\351^\272\213\253\317\336\213\253\346\255\030\250"
 726      BA8BABCF 
 726      DE8BABE6 
 726      AD18A8
 727 10f5 265E6F19 		.ascii	"&^o\031\250\022\177kr\312\034\250\316K\331\332U\007"
 727      A8127F6B 
 727      72CA1CA8 
 727      CE4BD9DA 
ARM GAS  /tmp/ccfeOUca.s 			page 57


 727      5507
 728 1107 8F43A7E9 		.ascii	"\217C\247\351\316Umc\313\034\354\377\224\373(e\255\322"
 728      CE556D63 
 728      CB1CECFF 
 728      94FB2865 
 728      ADD2
 729 1119 538C4A3F 		.ascii	"S\214J?F\225\2366*p\376\365&i[\365W\033s\004\263\260"
 729      46959E36 
 729      2A70FEF5 
 729      26695BF5 
 729      571B7304 
 730 112f C9976D7F 		.ascii	"\311\227m\177E\375Y.\016yt\210!1\211wv\\\326$~\026%"
 730      45FD592E 
 730      0E797488 
 730      21318977 
 730      765CD624 
 731 1146 5E6B2DF1 		.ascii	"^k-\361\0048\270\026h)\362\317\034\211\274]\027\271"
 731      0438B816 
 731      6829F2CF 
 731      1C89BC5D 
 731      17B9
 732 1158 B6996725 		.ascii	"\266\231g%\022\360Y\227\007\206/\245\306\001:\326:\327"
 732      12F05997 
 732      07862FA5 
 732      C6013AD6 
 732      3AD7
 733 116a 58D9AC34 		.ascii	"X\331\2544\325\016\357\224\361>}\007\332\0263\230\345"
 733      D50EEF94 
 733      F13E7D07 
 733      DA163398 
 733      E5
 734 117b 1E96048E 		.ascii	"\036\226\004\216\3605\213\326\344\010-\333\261i}\306"
 734      F0358BD6 
 734      E4082DDB 
 734      B1697DC6 
 735 118b 98D6E768 		.ascii	"\230\326\347hZ\3470B\264a~\001\363/\215\306v\300llF"
 735      5AE73042 
 735      B4617E01 
 735      F32F8DC6 
 735      76C06C6C 
 736 11a0 BDD2E2D2 		.ascii	"\275\322\342\322\004\326\006\017\351\177\253T\024`K"
 736      04D6060F 
 736      E97FAB54 
 736      14604B
 737 11af 8FFC6026 		.ascii	"\217\374`&\332\007\261:d\017\035\347\022O)\275\344:"
 737      DA07B13A 
 737      640F1DE7 
 737      124F29BD 
 737      E43A
 738 11c1 F45FB609 		.ascii	"\364_\266\011\375\267EY9\021\307\212\261_Zn\265\342"
 738      FDB74559 
 738      3911C78A 
 738      B15F5A6E 
 738      B5E2
 739 11d3 C55A9EB1 		.ascii	"\305Z\236\261\025S\340\307C\344y\00576U\240$Wa\376\021"
 739      1553E0C7 
 739      43E47905 
ARM GAS  /tmp/ccfeOUca.s 			page 58


 739      373655A0 
 739      245761FE 
 740 11e8 E6C7313F 		.ascii	"\346\3071?\203\371E\243\204\333\242\316\244\223e\\\236"
 740      83F945A3 
 740      84DBA2CE 
 740      A493655C 
 740      9E
 741 11f9 251D7D93 		.ascii	"%\035}\223\022]8&\213\306o\223\205\347\246\2736\224"
 741      125D3826 
 741      8BC66F93 
 741      85E7A6BB 
 741      3694
 742 120b 938567E5 		.ascii	"\223\205g\345R'\337\351\211\215\252\321\211\237\232"
 742      5227DFE9 
 742      898DAAD1 
 742      899F9A
 743 121a E8DF23A2 		.ascii	"\350\337#\242\033]\342\374\216\035\237\231\277\216\020"
 743      1B5DE2FC 
 743      8E1D9F99 
 743      BF8E10
 744 1229 F94EAA93 		.ascii	"\371N\252\223\370\003\036)L\021\001\027\334\274\006"
 744      F8031E29 
 744      4C110117 
 744      DCBC06
 745 1238 A26B2BD4 		.ascii	"\242k+\324\232\027g\363\312\302rE\271\326\331\311\263"
 745      9A1767F3 
 745      CAC27245 
 745      B9D6D9C9 
 745      B3
 746 1249 FD30EFA3 		.ascii	"\3750\357\243\214K?\004\247\334\353\326\026\306{\255"
 746      8C4B3F04 
 746      A7DCEBD6 
 746      16C67BAD 
 747 1259 6D21254A 		.ascii	"m!%Jo\207Y\350\361\335N0\222\277\227\354\220\271\374"
 747      6F8759E8 
 747      F1DD4E30 
 747      92BF97EC 
 747      90B9FC
 748 126c 874AA5BC 		.ascii	"\207J\245\274Q\231\240\002\375\267\353\014T\031\237"
 748      5199A002 
 748      FDB7EB0C 
 748      54199F
 749 127b BD9ED681 		.ascii	"\275\236\326\2012\015\342\2542\276\2617\325\022\371"
 749      320DE2AC 
 749      32BEB137 
 749      D512F9
 750 128a C9AEB99C 		.ascii	"\311\256\271\234b\303\245\361\315\277^\213l\037F\246"
 750      62C3A5F1 
 750      CDBF5E8B 
 750      6C1F46A6 
 751 129a 6B62FB4F 		.ascii	"kb\373OLD\010\334\344>\232\003\336\306\315\3563\237"
 751      4C4408DC 
 751      E43E9A03 
 751      DEC6CDEE 
 751      339F
 752 12ac C4FB4948 		.ascii	"\304\373IH\025\332\234\332zt\343\326_\355*'\233P\022"
 752      15DA9CDA 
ARM GAS  /tmp/ccfeOUca.s 			page 59


 752      7A74E3D6 
 752      5FED2A27 
 752      9B5012
 753 12bf DA9C3EFE 		.ascii	"\332\234>\376\302sU\202\245\311E\320U\322G\012p%/Y\264"
 753      C2735582 
 753      A5C945D0 
 753      55D2470A 
 753      70252F59 
 754 12d4 98E1353D 		.ascii	"\230\3415=2\327}zX\377v\205\334s0f_m\324\006\220v|\022"
 754      32D77D7A 
 754      58FF7685 
 754      DC733066 
 754      5F6DD406 
 755 12ec 58DE87A7 		.ascii	"X\336\207\247\260]\033@\2769\213p\246\3455\362\242\326"
 755      B05D1B40 
 755      BE398B70 
 755      A6E535F2 
 755      A2D6
 756 12fe 4E5B73BC 		.ascii	"N[s\274\314<\372m\327\335g\033\272\277\202\343\027\201"
 756      CC3CFA6D 
 756      D7DD671B 
 756      BABF82E3 
 756      1781
 757 1310 14B8F54E 		.ascii	"\024\270\365N\260\022<\210\\c\260\352]ce\233\304\255"
 757      B0123C88 
 757      5C63B0EA 
 757      5D63659B 
 757      C4AD
 758 1322 EB41E42B 		.ascii	"\353A\344+\275\270m\022\363*\314\347y\223>o\230\004"
 758      BDB86D12 
 758      F32ACCE7 
 758      79933E6F 
 758      9804
 759 1334 3ADD8612 		.ascii	":\335\206\022\\\307\363f\230\372\266qe6\320\220F\266"
 759      5CC7F366 
 759      98FAB671 
 759      6536D090 
 759      46B6
 760 1346 1E3F9FBA 		.ascii	"\036?\237\272`,\200\230\177\012\334\366>I\003\307\002"
 760      602C8098 
 760      7F0ADCF6 
 760      3E4903C7 
 760      02
 761 1357 1A380673 		.ascii	"\0328\006sk\224)\352\023\"\377\022\340FE\377W\356k\245"
 761      6B9429EA 
 761      1322FF12 
 761      E04645FF 
 761      57EE6BA5 
 762 136b 4A015F6A 		.ascii	"J\001_j\372\225G\243\207xW\333^\265n\322|^\251\245\301"
 762      FA9547A3 
 762      877857DB 
 762      5EB56ED2 
 762      7C5EA9A5 
 763 1380 51635DE0 		.ascii	"Qc]\340\366\231\273\213\177\344^d\350n\250\326R\023"
 763      F699BB8B 
 763      7FE45E64 
 763      E86EA8D6 
ARM GAS  /tmp/ccfeOUca.s 			page 60


 763      5213
 764 1392 BFD697BA 		.ascii	"\277\326\227\272\261\301\270\032`\023\222Z\242\3207"
 764      B1C1B81A 
 764      6013925A 
 764      A2D037
 765 13a1 53E825AE 		.ascii	"S\350%\256c\322\35361\351\246\204Z\027\371\3051e\336"
 765      63D2EB36 
 765      31E9A684 
 765      5A17F9C5 
 765      3165DE
 766 13b4 C61D85D8 		.ascii	"\306\035\205\330S54\326\275fE\244\205\346D\232=\261"
 766      533534D6 
 766      BD6645A4 
 766      85E6449A 
 766      3DB1
 767 13c6 BFE75166 		.ascii	"\277\347Qf\247(\352^\237v\331\270\357\221\366\313\353"
 767      A728EA5E 
 767      9F76D9B8 
 767      EF91F6CB 
 767      EB
 768 13d7 2259DBC3 		.ascii	"\"Y\333\303(\373\311\026\262\277\230\\\366o&\227\375"
 768      28FBC916 
 768      B2BF985C 
 768      F66F2697 
 768      FD
 769 13e8 765EE3EE 		.ascii	"v^\343\3566N\271\341\333\260\225\252\263\265(\236-A"
 769      364EB9E1 
 769      DBB095AA 
 769      B3B5289E 
 769      2D41
 770 13fa EF6DBD91 		.ascii	"\357m\275\221\255\215/Z\260U}CR\266\326$ek\363\007\216"
 770      AD8D2F5A 
 770      B0557D43 
 770      52B6D624 
 770      656BF307 
 771 140f 4CAA310A 		.ascii	"L\2521\012\335\217B\277\343\332\2446\330\230T\337$&"
 771      DD8F42BF 
 771      E3DAA436 
 771      D89854DF 
 771      2426
 772 1421 B59E35A9 		.ascii	"\265\2365\251\305T\366\357tE\366\3732t\331/\215\227"
 772      C554F6EF 
 772      7445F6FB 
 772      3274D92F 
 772      8D97
 773 1433 BD4717C9 		.ascii	"\275G\027\311\006\243\354\257N\263\220}}r\331oN*\373"
 773      06A3ECAF 
 773      4EB3907D 
 773      7D72D96F 
 773      4E2AFB
 774 1446 CEDD8E64 		.ascii	"\316\335\216d\037\017\275\325\265\354\337\263\221}\017"
 774      1F0FBDD5 
 774      B5ECDFB3 
 774      917D0F
 775 1455 A30CE2DA 		.ascii	"\243\014\342\332\251\254\354\033\251\354\267vE\366\263"
 775      A9ACEC1B 
 775      A9ECB776 
ARM GAS  /tmp/ccfeOUca.s 			page 61


 775      45F6B3
 776 1464 7AE8B25F 		.ascii	"z\350\262_\036/\373\024,\350\003\001\225C\355P\223 "
 776      1E2FFB14 
 776      2CE80301 
 776      9543ED50 
 776      9320
 777 1476 B274EA04 		.ascii	"\262t\352\004\332\3756\327rh\260\221\203\276\365\323"
 777      DAFD36D7 
 777      7268B091 
 777      83BEF5D3 
 778 1486 460543F4 		.ascii	"F\005C\364z\251\024g\273\353\236\033mz\366\321\236\351"
 778      7AA91467 
 778      BBEB9E1B 
 778      6D7AF6D1 
 778      9EE9
 779 1498 FEE0F68E 		.ascii	"\376\340\366\216}S\371\031+')d3\313s5jE\212\363m5;\274"
 779      7D53F919 
 779      2B272964 
 779      33CB7335 
 779      6A458AF3 
 780 14b0 A66D352B 		.ascii	"\246m5+\342\267\325\314\270\221\235\337cM\201\253\271"
 780      E2B7D5CC 
 780      B8919DDF 
 780      634D81AB 
 780      B9
 781 14c1 91F24FF7 		.ascii	"\221\362O\367\30377dV\360\372\277\213\276\205-\232\274"
 781      C3373764 
 781      56F0FABF 
 781      8BBE852D 
 781      9ABC
 782 14d3 763BE2E9 		.ascii	"v;\342\351\3277tCq{\331\023}\243\033\212I#\346\020\371"
 782      D7377443 
 782      717BD913 
 782      7DA31B8A 
 782      4923E610 
 783 14e8 9D5EC3BE 		.ascii	"\235^\303\276\231\244K\333V\177\037y\350\233\013!m\251"
 783      99A44BDB 
 783      567F1F79 
 783      E89B0B21 
 783      6DA9
 784 14fa 7F3FBAE2 		.ascii	"\177?\272\342\371\033\215O,Iq\010!\007M\363P\265\362"
 784      F91B8D4F 
 784      2C497108 
 784      21074DF3 
 784      50B5F2
 785 150d 282E6F1F 		.ascii	"(.o\037L>\007\2350^\235}\224\371Tl|\302\275\253\"\277"
 785      4C3E079D 
 785      305E9D7D 
 785      94F9546C 
 785      7CC2BDAB 
 786 1523 12BF5871 		.ascii	"\022\277Xq\362I\322U\344\344`\327\346\262@\326\034\355"
 786      F249D255 
 786      E4E460D7 
 786      E6B240D6 
 786      1CED
 787 1535 F5CB617C 		.ascii	"\365\313a|\375P\326\327-X\266\001\254\212\005\233\350"
 787      FD50D6D7 
ARM GAS  /tmp/ccfeOUca.s 			page 62


 787      2D58B601 
 787      AC8A059B 
 787      E8
 788 1546 04CC6E6A 		.ascii	"\004\314nj\012`\363X\260\027\\\203\031)\253f\301\246"
 788      0A60F358 
 788      B0175C83 
 788      1929AB66 
 788      C1A6
 789 1558 3B01B3DB 		.ascii	";\001\263\333\365\002`\013X\260\231\256\301\214\224"
 789      F502600B 
 789      58B099AE 
 789      C18C94
 790 1567 BDCD82CD 		.ascii	"\275\315\202\315q\002f\367\207e\000\266\232\005\253"
 790      710266F7 
 790      876500B6 
 790      9A05AB
 791 1576 760D66A4 		.ascii	"v\015f\244l-\013\266\310\011X\266=e\353Y\260\327]\203"
 791      6C2D0BB6 
 791      C80958B6 
 791      3D65EB59 
 791      B0D75D83 
 792 158a 1929DBC0 		.ascii	"\031)\333\300\202-w\002f\367E1\200\275\313\202\255t"
 792      822D7702 
 792      66F74531 
 792      80BDCB82 
 792      AD74
 793 159c 0D66A46C 		.ascii	"\015f\244l\023\013\266\306\011\330\000;\312\312\324"
 793      130BB6C6 
 793      09D8003B 
 793      CACAD4
 794 15ab 2DBF37BE 		.ascii	"-\2777\2760!\2506\343;[mE\242i\300W\256\007\241\016"
 794      3021A836 
 794      E33B5B6D 
 794      45A269C0 
 794      57AE07A1 
 795 15c0 9B4188FD 		.ascii	"\233A\210\375\017\360X-\362\342\316\314\266\345\273"
 795      0FF0582D 
 795      F2E2CECC 
 795      B6E5BB
 796 15cf 79BBCFA8 		.ascii	"y\273\317\250A\210{Y!nt\"\304\241\366`\373X0\325\011"
 796      41887B59 
 796      216E7422 
 796      C4A1F660 
 796      FB5830D5 
 797 15e4 98D54786 		.ascii	"\230\325G\206\024\354\000\013\366w\327`F\312\016\262"
 797      14EC000B 
 797      F677D760 
 797      46CA0EB2 
 798 15f4 604D4EC0 		.ascii	"`MN\300\236\260\247\254\205\005\333\351\032\214\245"
 798      9EB0A7AC 
 798      8505DBE9 
 798      1A8CA5
 799 1603 AC4C3D12 		.ascii	"\254L=\0223<\362O9\006\313\033j\214\266\206j\214\345"
 799      333CF24F 
 799      3906CB1B 
 799      6A8CB686 
 799      6A8CE5
ARM GAS  /tmp/ccfeOUca.s 			page 63


 800 1616 99AA89FC 		.ascii	"\231\252\211\374\004\237>\001l0>_7\304,g\237\231n\003"
 800      049F3E01 
 800      6C303E5F 
 800      37C42C67 
 800      9F996E03 
 801 162a 0A2D3E65 		.ascii	"\012->e!\004\253\203\035\260E\376\220\227\214\250-\270"
 801      2104AB83 
 801      1DB045FE 
 801      90978CA8 
 801      2DB8
 802 163c 147114F3 		.ascii	"\024q\024\363\2170?\216\371\011\314Oa~\032\363O1?\213"
 802      8F303F8E 
 802      F909CC4F 
 802      617E1AF3 
 802      4F313F8B 
 803 1650 F9BF30FF 		.ascii	"\371\2770\377\034\363/0?\217y;\346\2270\377\032\363"
 803      1CF32F30 
 803      3F8F793B 
 803      E69730FF 
 803      1AF3
 804 1662 2B985FC3 		.ascii	"+\230_\303\\\361\221\274\334\347\3405\353\276\330\214"
 804      5CF191BC 
 804      DCE7E035 
 804      EBBED88C 
 805 1672 399BAB21 		.ascii	"9\233\253!K\\\207'\355\351\245LH\213\316\212\336`\377"
 805      4B5C8727 
 805      EDE9A54C 
 805      488BCE8A 
 805      DE60FF
 806 1685 76DEB44E 		.ascii	"v\336\264N\262,\301\302\323d\237\031\371R\3459\236E"
 806      B22CC1C2 
 806      D3649F19 
 806      F952E539 
 806      9E45
 807 1697 5ECF22D3 		.ascii	"^\317\"\323:\013\216|\356a\353\324%\350\275\303\346"
 807      3A0B8E7C 
 807      EE61EBD4 
 807      25E8BDC3 
 807      E6
 808 16a8 551469F7 		.ascii	"U\024i\367B\\\357U\307\276\024X\344M\011\2207'\340k"
 808      425CEF55 
 808      C7BE1458 
 808      E44D0990 
 808      3727E06B 
 809 16bc AA1959BD 		.ascii	"\252\031Y\275\362\242\"\010Q\334i\036{\334\225\011\276"
 809      F2A22208 
 809      51DC691E 
 809      7BDC9509 
 809      BE
 810 16cd A49916C3 		.ascii	"\244\231\026\3035\265\272\232\322\323\266\325t\333V"
 810      35B5BA9A 
 810      D2D3B6D5 
 810      74DB56
 811 16dc D313F455 		.ascii	"\323\023\364Ua\333jK\202V3l[m\363\332S8\323\266Uy\202"
 811      61DB6A4B 
 811      8256336C 
 811      5B6DF3DA 
ARM GAS  /tmp/ccfeOUca.s 			page 64


 811      5338D3B6 
 812 16f3 5695B6AD 		.ascii	"V\225\266\255\326$\240p\226M+\233\347\244\001z{\037"
 812      D624A070 
 812      964D2B9B 
 812      E7A4017A 
 812      7B1F
 813 1705 6D3FC7E7 		.ascii	"m?\307\347v\210z\331g=Dy)\031v\355f\307\331\347\221"
 813      76887AD9 
 813      673D4479 
 813      291976ED 
 813      66C7D9E7 
 814 171a 8DCDFD58 		.ascii	"\215\315\375X\373\234\233\300\2166\330\374\017\000\266"
 814      FB9C9BC0 
 814      8E36D8FC 
 814      0F00B6
 815 1729 B3955C73 		.ascii	"\263\225\\s\002\311\315\263m5)\201\226^\261mu8A_\325"
 815      02C9CDB3 
 815      6D352981 
 815      965EB16D 
 815      7538415F 
 816 173e 711EB476 		.ascii	"q\036\264v2\353A\206\357a\243q\241\323\020\027\026'"
 816      32EB4186 
 816      EF61A371 
 816      A1D31017 
 816      1627
 817 1750 90CEC709 		.ascii	"\220\316\307\011\372\256\261\245\370x\202V\265\026\332"
 817      FAAEB1A5 
 817      F8788256 
 817      B516DA
 818 175f 3A7C174B 		.ascii	":|\027K\317\322\004\364\234K\200\274\310\226\2363\011"
 818      CFD204F4 
 818      9C4B80BC 
 818      C8969E33 
 818      09
 819 1770 5ABD1A27 		.ascii	"Z\275\032'\301K\323X\011\032?\215\035\\\030\034\231"
 819      C14BD358 
 819      091A3F8D 
 819      1D5C181C 
 819      99
 820 1781 935B101C 		.ascii	"\223[\020\034\031\374\355p\377\300{\372\017\354?8'\247"
 820      19FCED70 
 820      FFC07BFA 
 820      0FEC3F38 
 820      27A7
 821 1793 38921396 		.ascii	"8\222\023\226sJ\212\303r$\347\201\274a\271\303\306\345"
 821      734A8AC3 
 821      7224E781 
 821      BC61B9C3 
 821      C6E5
 822 17a5 040A02C5 		.ascii	"\004\012\002\305a\311?\346\336\242\376\005\\:\271\345"
 822      61C93FE6 
 822      DEA2FE05 
 822      5C3AB9E5 
 823 17b5 2F2C0E3C 		.ascii	"/,\016<\343{\370\361'\263s\271\014\274P\032\"\227~a"
 823      E37BF8F1 
 823      27B373B9 
 823      0CBC501A 
ARM GAS  /tmp/ccfeOUca.s 			page 65


 823      22977E61 
 824 17c9 83582016 		.ascii	"\203X \026R\310\341"
 824      52C8E1
 825 17d0 2386DD3D 		.ascii	"#\206\335=(\347\261\307\036\314\031\361\350\2601\003"
 825      28E7B1C7 
 825      1ECC19F1 
 825      E8B03103 
 826 17e0 73228055 		.ascii	"s\"\200U\230\017\2709\366\304\004C\201\302\322|\011"
 826      980FB839 
 826      F6C40443 
 826      81C2D27C 
 826      09
 827 17f1 E8883C1B 		.ascii	"\350\210<\033\221\237-\221\"\204\016R\016\026I~\371"
 827      919F2D91 
 827      22840E52 
 827      0E16497E 
 827      F9
 828 1802 D69CD248 		.ascii	"\326\234\322H8Z)$\215%H\0219?\030\222\241^Z)\234\357"
 828      385A2924 
 828      8D254811 
 828      393F1892 
 828      A15E5A29 
 829 1818 1EE497EF 		.ascii	"\036\344\227\357\262\252V$\006\012\202!)\307\237/\215"
 829      B2AA5624 
 829      060A8221 
 829      29C79F2F 
 829      8D
 830 1829 124B0B65 		.ascii	"\022K\013e\277\016\337\315\357\327\033\366\322h\364"
 830      BF0EDFCD 
 830      EFD71BF6 
 830      D268F4
 831 1838 8F96647F 		.ascii	"\217\226d\177\240\2704$K\341{\334I\216\320\031\006\320"
 831      A0B83424 
 831      4BE17BDC 
 831      498ED019 
 831      06D0
 832 184a DE282AFC 		.ascii	"\336(*\374\205h\244\364\023'|\217!\234\364\012\024\374"
 832      8568A4F4 
 832      13277C8F 
 832      219CF40A 
 832      14FC
 833 185c 6EC4C392 		.ascii	"n\304\303\222<\034\030\227\212F@\333\247\372;i,\027"
 833      3C1C1897 
 833      8A4640DB 
 833      A7FA3B69 
 833      2C17
 834 186e 8425319F 		.ascii	"\204%1\2370\225\246\025\375rz\240\300\257\225\177\352"
 834      3095A615 
 834      FD727AA0 
 834      C0AF957F 
 834      EA
 835 187f 48EC8102 		.ascii	"H\354\201\002\242\"_\211?$\215\223\341T\022\226\306"
 835      A2225F89 
 835      3F248D93 
 835      E1541296 
 835      C6
 836 1890 DCEF5406 		.ascii	"\334\357T\006\305E%\301B)\034\311y87\227\220C%\234*"
ARM GAS  /tmp/ccfeOUca.s 			page 66


 836      C54525C1 
 836      42291CC9 
 836      79383797 
 836      9043259C 
 837 18a5 978483C5 		.ascii	"\227\204\203\305~\015.X\234\032(\006\311\216\223\007"
 837      7E0D2E58 
 837      9C1A2806 
 837      C98E9307 
 838 18b5 B8122DE0 		.ascii	"\270\022-\340h\366\007\272\012\310\343\322\302\322h"
 838      68F607BA 
 838      0AC8E3D2 
 838      C2D268
 839 18c4 315CE497 		.ascii	"1\\\344\227\205\360`!\374s!|\217\020\276W\010\017\021"
 839      85F06021 
 839      FC73217C 
 839      8F10BE57 
 839      080F11
 840 18d7 C2F779C2 		.ascii	"\302\367y\302\003\007@\032(\024\206\341t\267\267\304"
 840      0307401A 
 840      281486E1 
 840      74B7B7C4 
 841 18e7 0FF55309 		.ascii	"\017\365S\011Gc\2450\234\213\013\363\245pJ\240@\014"
 841      4763A530 
 841      9C8B0BF3 
 841      A5704AA0 
 841      400C
 842 18f9 1336C522 		.ascii	"\0236\305\"\251[D~F,\014\216\016\371e\264\241{\006\373"
 842      A95B447E 
 842      462C0C8E 
 842      0EF965B4 
 842      A17B06FB 
 843 190d 656A1558 		.ascii	"ej\025X,\361C\205\302`QPN\223#\262(\203\232S\311\315"
 843      2CF14385 
 843      C2605150 
 843      4E9323B2 
 843      28839A53 
 844 1923 21205EAD 		.ascii	"! ^\255\032\224RI-\270\227*\027\025\347K\370{T\2418"
 844      1A945249 
 844      2DB8972A 
 844      1715E74B 
 844      F87B54A1 
 845 1938 3A922A87 		.ascii	":\222*\207\245Q\021d\236\024\274E\221\321p\223\032\034"
 845      A5511164 
 845      9E14BC45 
 845      91D17093 
 845      1A1C
 846 194a 34A7255F 		.ascii	"4\247%_8\377Y\270\225&\215\013\312\001\000\360\215\225"
 846      38FF59B8 
 846      95268D0B 
 846      CA0100F0 
 846      8D95
 847 195c 8B47FEA9 		.ascii	"\213G\376\251\244\027\325#4\225\302R(\000\300\336\261"
 847      A417D523 
 847      3495C252 
 847      2800C0DE 
 847      B1
 848 196d B21C2EC9 		.ascii	"\262\034.\311\004\275F\244\"\261\244\000ds\247#\325"
ARM GAS  /tmp/ccfeOUca.s 			page 67


 848      04BD46A4 
 848      22B1A400 
 848      6473A723 
 848      D5
 849 197e 4AC4A97B 		.ascii	"J\304\251{P\033\361\377\271T*\005\264\254\250}\320K"
 849      501BF1FF 
 849      B9542A05 
 849      B4ACA87D 
 849      D04B
 850 1990 A9F4EC0D 		.ascii	"\251\364\354\015\204\300l\275\021?\234\201\030h]\222"
 850      84C06CBD 
 850      113F9C81 
 850      18685D92 
 851 19a0 06758B4A 		.ascii	"\006u\213JAu\216\372+\222\307\021\335\027Q\330\"\177"
 851      41758EFA 
 851      2B92C711 
 851      DD1751D8 
 851      227F
 852 19b2 F1D810C8 		.ascii	"\361\330\020\310\037\001\200\337\"\315\302\306\312P"
 852      1F0180DF 
 852      22CDC2C6 
 852      CA50
 853 19c0 AF24431A 		.ascii	"\257$C\032#\205\344\"1\362\014\334\221\306\222\202\247"
 853      2385E422 
 853      31F20CDC 
 853      91C69282 
 853      A7
 854 19d1 C45FDA5D 		.ascii	"\304_\332]\247\2540\010\236)\367`h%W\322K\374c\305\240"
 854      A7AC3008 
 854      9E29F760 
 854      682557D2 
 854      4BFC63C5 
 855 19e6 1C0C8D06 		.ascii	"\034\014\215\006\025\201\3604\272\261\010\027\244\022"
 855      1581F034 
 855      BAB10817 
 855      A412
 856 19f4 29049161 		.ascii	")\004\221a4\324\202.H\375nD\005b!\332 \\,)..t\344\223"
 856      34D4822E 
 856      48FD6E44 
 856      056221DA 
 856      205C2C29 
 857 1a0d 32115C2F 		.ascii	"2\021\\/\014AE\222\030)\015KE\022\021NjXF!\245\214\224"
 857      0C414592 
 857      18290D4B 
 857      4512114E 
 857      6A584621 
 858 1a24 22A096E2 		.ascii	"\"\240\226\342pDN)\024#\262\257\024/\363\241\264\260"
 858      70444E29 
 858      1423B2AF 
 858      142FF3A1 
 858      B4B0
 859 1a36 AC05AE6E 		.ascii	"\254\005\256n\201\322\242\322BQ\016\216\221\250\235"
 859      81D2A2D2 
 859      42510E8E 
 859      91A89D
 860 1a45 44AE0B14 		.ascii	"D\256\013\024\214(\310'N.\025\216z\252\247\376\353\011"
 860      8C28C827 
ARM GAS  /tmp/ccfeOUca.s 			page 68


 860      4E2E158E 
 860      7AAAA7FE 
 860      EB09
 861 1a57 202E1C94 		.ascii	" .\034\224\237}\352GV\224\311\320\021\241\215\234e\360"
 861      9F7DEA47 
 861      5694C9D0 
 861      11A18D9C 
 861      65F0
 862 1a69 D400E7D3 		.ascii	"\324\000\347\323\004\302\227d\302\357\201~i\234\024"
 862      04C29764 
 862      C2EF817E 
 862      699C14
 863 1a78 00013B33 		.ascii	"\000\001;3\210g1\272\006\012 \314<\006!=\003KObx'h\203"
 863      886731BA 
 863      060A20CC 
 863      3C06213D 
 863      034B4F62 
 864 1a90 74B49E71 		.ascii	"t\264\236q\341\210\334\276[\277M~\014\326\177\334\221"
 864      E188DCBE 
 864      5BBF4D7E 
 864      0CD67FDC 
 864      91
 865 1aa1 8C6CB441 		.ascii	"\214l\264A8\373%\360'\277\\\374\214\024\362\372\177"
 865      38FB25F0 
 865      27BF5CFC 
 865      8C14F2FA 
 865      7F
 866 1ab2 03AAE8E3 		.ascii	"\003\252\350\343\307\313b$\"\201\227G$\320&\330{O\274"
 866      C7CB6224 
 866      22819747 
 866      24D026D8 
 866      7B4FBC
 867 1ac5 48D4ACAB 		.ascii	"H\324\254\253~\020Fw\322\315\350@ \007b\300]\241\342"
 867      7E104677 
 867      D2CDE840 
 867      200762C0 
 867      5DA1E2
 868 1ad8 90749724 		.ascii	"\220t\227$\216\014\346\014\356?\244\377\240(\21302@"
 868      8E0CE60C 
 868      EE3FA4FF 
 868      A0288B30 
 868      3240
 869 1aea B027E12C 		.ascii	"\260'\341,\022\374\013qIyTi(\340\2275a\347\002\232,"
 869      12FC0B71 
 869      49795469 
 869      28E09735 
 869      61E7029A 
 870 1aff 0D075D04 		.ascii	"\015\007]\004\003?s\"\257|id\351hB\276?\177\344h\177"
 870      033F7322 
 870      AF7C6964 
 870      E96842BE 
 870      3F7FE468 
 871 1b14 A0400A3C 		.ascii	"\240@\012<\203\243\243\243\306\250sh|\253\246}\222\003"
 871      83A3A3A3 
 871      C6A87368 
 871      7CABA67D 
 871      9203
ARM GAS  /tmp/ccfeOUca.s 			page 69


 872 1b26 97D49CFC 		.ascii	"\227\324\234\374\2010\362\227\257)\343\021\261P\276"
 872      8130F297 
 872      AF29E311 
 872      B150BE
 873 1b35 255AAFB8 		.ascii	"%Z\257\270$\256ZO\206\002m8\356\206,\015'\240\231\014"
 873      24AE5A4F 
 873      86026D38 
 873      EE862C0D 
 873      27A0990C 
 874 1b49 778F66B2 		.ascii	"w\217f\262B\315\322*\305\214\254\257A\344h\252c\203"
 874      42CDD22A 
 874      C58CACAF 
 874      41E468AA 
 874      6383
 875 1b5b A1FCE2B1 		.ascii	"\241\374\342\261=\264\232\205\222T\362dH\016\026v\213"
 875      3DB49A85 
 875      9254F264 
 875      480E1676 
 875      8B
 876 1b6c FDEECE28 		.ascii	"\375\356\316($\210F\343\217\240]hc\215V\316$\232z\226"
 876      248846E3 
 876      8FA05D68 
 876      638D56CE 
 876      249A7A96 
 877 1b80 BA2D58BA 		.ascii	"\272-X\272?\366;5\254\005\004_\030\007\003o\030\243"
 877      3FF63B35 
 877      AC05045F 
 877      1807036F 
 877      18A3
 878 1b92 739846E7 		.ascii	"s\230F\347\260\026\235\323\341ji\030\002\236\354\015"
 878      B0169DD3 
 878      E16A6918 
 878      029EEC0D 
 879 1ba2 93467DC6 		.ascii	"\223F}\306\004\303r\251X\250\215\250z<\270\001\200-"
 879      04C372A9 
 879      58A88DA8 
 879      7A3CB801 
 879      802D
 880 1bb4 6EF4305C 		.ascii	"n\3640\\\323B\234\341R\352\030\031\203\0179\223\361"
 880      D3429CE1 
 880      52EA1819 
 880      830F3993 
 880      F1
 881 1bc5 2D0DCEF9 		.ascii	"-\015\316\371R\241,BA\263\020r\207\224|\244\206\030"
 881      52A12C42 
 881      41B31072 
 881      87947CA4 
 881      8618
 882 1bd7 CE801371 		.ascii	"\316\200\023ql\322\032.\221N\272S\246\321(\264\320\304"
 882      6CD21A2E 
 882      914EBA53 
 882      A6D128B4 
 882      D0C4
 883 1be9 5E492F11 		.ascii	"^I/\021C\301\000\211D\251\301H\230\304\3204\242&R\350"
 883      43C10089 
 883      44A9C148 
 883      98C4D034 
ARM GAS  /tmp/ccfeOUca.s 			page 70


 883      A22652E8 
 884 1bfd 49A25858 		.ascii	"I\242XX\204P>\262t\324(B`\252<\322O,\264;\001\031\033"
 884      84503EB2 
 884      74D42842 
 884      60AA3CD2 
 884      4F2CB43B 
 885 1c14 F0633084 		.ascii	"\360c0\204\313\021m>\341%\347\222t\310\2651!\015J8\324"
 885      CB116D3E 
 885      E125E792 
 885      74C8B531 
 885      210D4A38 
 886 1c29 F8A05D89 		.ascii	"\370\240]\211\034N\207\223\006\225\311\342z\300F\272"
 886      1C4E8793 
 886      0695C9E2 
 886      7AC046BA 
 887 1c39 158930BE 		.ascii	"\025\2110\276\240\337d\311E\376\000\214r#\303`\360\305"
 887      A0DF64C9 
 887      45FE008C 
 887      7223C360 
 887      F0C5
 888 1c4b 30D4F98A 		.ascii	"0\324\371\212G\215\212H\262 \027u\177F\012\207\244B"
 888      478D8A48 
 888      B2201775 
 888      7F460A87 
 888      A442
 889 1c5d 6A71B237 		.ascii	"jq\2627\344\017\206\377\234\026\"\212\001r\272\025E"
 889      E40F86FF 
 889      9C16228A 
 889      0172BA15 
 889      45
 890 1c6e ED4E2F02 		.ascii	"\355N/\002K\231l\233\356\301\374B\211\372'\230\206\020"
 890      4B996C9B 
 890      EEC1FC42 
 890      89FA2798 
 890      8610
 891 1c80 2810C68A 		.ascii	"(\020\306\212\251\324_\323\374(J\277\377:\275\320\377"
 891      A9D45FD3 
 891      FC284ABF 
 891      FF3ABDD0 
 891      FF
 892 1c91 E7F70DFC 		.ascii	"\347\367\015\374y&\023m`\272\002F\025\020#R\012\031"
 892      7926136D 
 892      60BA0246 
 892      15102352 
 892      0A19
 893 1ca3 8F8161B9 		.ascii	"\217\201a\271\264\004\256\211a\260\305P*\015-\335JD"
 893      B404AE89 
 893      61B0C550 
 893      2A0D2DDD 
 893      4A44
 894 1cb5 196664C0 		.ascii	"\031fd\300O~\032\015\200\003o\036\241u\362\263l)D\314"
 894      4F7E1A0D 
 894      80036F1E 
 894      A175F2B3 
 894      6C2944CC 
 895 1cc9 0AE27D36 		.ascii	"\012\342}6\271\227}\307@N\2574\310\276\322\240h\245"
 895      B9977DC7 
ARM GAS  /tmp/ccfeOUca.s 			page 71


 895      404EAF34 
 895      C8BED2A0 
 895      68A5
 896 1cdb BBFB452B 		.ascii	"\273\373E+\225P\357\310\206)Bh\264\024\25528+Z\005\254"
 896      9550EFC8 
 896      86294268 
 896      B414AD32 
 896      382B5A05 
 897 1cf0 457C36C2 		.ascii	"E|6\302\335k\343\371`[9\271\303\206?:<\026\000\310\344"
 897      DD6BE3F9 
 897      605B39B9 
 897      C3863F3A 
 897      3C1600C8 
 898 1d05 3050F49F 		.ascii	"0P\364\237\300?\004\001\220\004\260\350\377\315\003"
 898      C03F0401 
 898      9004B0E8 
 898      FFCD03
 899 1d14 C31F7A22 		.ascii	"\303\037z\"\357\321\353\304\302\261\200\0063\201B\230"
 899      EFD1EBC4 
 899      C2B18006 
 899      33814298 
 900 1d24 A07AC788 		.ascii	"\240z\307\210\205\245\322\257\2720\275.\"\363\210 \031"
 900      85A5D2AF 
 900      BA30BD2E 
 900      22F38820 
 900      19
 901 1d35 AB32A23F 		.ascii	"\2532\242?\374\262'7o \244A)\303\207\345\346\245<\370"
 901      FCB22737 
 901      6F20A441 
 901      29C387E5 
 901      E6A53CF8 
 902 1d49 E84379C2 		.ascii	"\350Cy\302\360<\317C\017\347yss\207\345\015\304|PJn"
 902      F03CCF43 
 902      0FE77973 
 902      7387E50D 
 902      C47C504A 
 903 1d5e EE43799E 		.ascii	"\356Cy\236\334\307Gx\236\030\236\353y /\317\223\227"
 903      DCC74778 
 903      9E189EEB 
 903      79202FCF 
 903      9397
 904 1d70 0BBFA1C1 		.ascii	"\013\277\241\301o\036\034\221\347y\220\264\034\366@"
 904      6F1E1C91 
 904      E77990B4 
 904      1CF640
 905 1d7f 9EF05BAD 		.ascii	"\236\360[\255\325\335P\377\251\274\377\003\020?\307"
 905      D5DD50FF 
 905      A9BCFF03 
 905      103FC7
 906 1d8e 2F       		.ascii	"/"
 907              		.text
 908              		.section	.gnu.lto_.symtab.cf4418541a8b8b3a,"",%progbits
 909 0000 70617474 		.ascii	"patternthd\000\000\000\000\000\000\000\000\000\000\000"
 909      65726E74 
 909      68640000 
 909      00000000 
 909      00000000 
ARM GAS  /tmp/ccfeOUca.s 			page 72


 910 0015 008C0200 		.ascii	"\000\214\002\000\000testthd1\000\000\000\000\000\000"
 910      00746573 
 910      74746864 
 910      31000000 
 910      000000
 911 0028 00000000 		.ascii	"\000\000\000\000\000\000\241\002\000\000testthd2\000"
 911      0000A102 
 911      00007465 
 911      73747468 
 911      643200
 912 003b 00000000 		.ascii	"\000\000\000\000\000\000\000\000\000\000\000\253\002"
 912      00000000 
 912      000000AB 
 912      02
 913 0048 00007465 		.ascii	"\000\000testthd3\000\000\000\000\000\000\000\000\000"
 913      73747468 
 913      64330000 
 913      00000000 
 913      000000
 914 005b 000000B2 		.ascii	"\000\000\000\262\002\000\000testthd4\000\000\000\000"
 914      02000074 
 914      65737474 
 914      68643400 
 914      000000
 915 006e 00000000 		.ascii	"\000\000\000\000\000\000\000\000\274\002\000\000ch\000"
 915      00000000 
 915      BC020000 
 915      636800
 916 007d 00020000 		.ascii	"\000\002\000\000\000\000\000\000\000\000\000\365\001"
 916      00000000 
 916      000000F5 
 916      01
 917 008a 00007761 		.ascii	"\000\000wa\000\000\002\000\000\000\000\000\000\000\000"
 917      00000200 
 917      00000000 
 917      000000
 918 0099 007C0200 		.ascii	"\000|\002\000\000threads\000\000\002\000\000\000\000"
 918      00746872 
 918      65616473 
 918      00000200 
 918      000000
 919 00ac 00000000 		.ascii	"\000\000\000\000\000\201\002\000\000test_emit_token"
 919      00810200 
 919      00746573 
 919      745F656D 
 919      69745F74 
 920 00c4 00000200 		.ascii	"\000\000\002\000\000\000\000\000\000\000\000\000\256"
 920      00000000 
 920      00000000 
 920      AE
 921 00d1 0100005F 		.ascii	"\001\000\000_test_assert_sequence\000\000\002\000\000"
 921      74657374 
 921      5F617373 
 921      6572745F 
 921      73657175 
 922 00ee 00000000 		.ascii	"\000\000\000\000\000\000\000\262\001\000\000test_wa"
 922      000000B2 
ARM GAS  /tmp/ccfeOUca.s 			page 73


 922      01000074 
 922      6573745F 
 922      7761
 923 0100 69745F74 		.ascii	"it_threads\000\000\002\000\000\000\000\000\000\000\000"
 923      68726561 
 923      64730000 
 923      02000000 
 923      00000000 
 924 0115 00BB0100 		.ascii	"\000\273\001\000\000chThdCreateStatic\000\000\002\000"
 924      00636854 
 924      68644372 
 924      65617465 
 924      53746174 
 925 012f 00000000 		.ascii	"\000\000\000\000\000\000\000\000\275\001\000\000_db"
 925      00000000 
 925      BD010000 
 925      5F6462
 926 013e 675F6368 		.ascii	"g_check_lock\000\000\002\000\000\000\000\000\000\000"
 926      65636B5F 
 926      6C6F636B 
 926      00000200 
 926      00000000 
 927 0154 0000CC01 		.ascii	"\000\000\314\001\000\000_stats_start_measure_crit_t"
 927      00005F73 
 927      74617473 
 927      5F737461 
 927      72745F6D 
 928 0175 68640000 		.ascii	"hd\000\000\002\000\000\000\000\000\000\000\000\000\316"
 928      02000000 
 928      00000000 
 928      0000CE
 929 0184 01000063 		.ascii	"\001\000\000chSysHalt\000\000\002\000\000\000\000\000"
 929      68537973 
 929      48616C74 
 929      00000200 
 929      00000000 
 930 0198 00000000 		.ascii	"\000\000\000\000\320\001\000\000_stats_stop_measure"
 930      D0010000 
 930      5F737461 
 930      74735F73 
 930      746F705F 
 931 01b3 5F637269 		.ascii	"_crit_thd\000\000\002\000\000\000\000\000\000\000\000"
 931      745F7468 
 931      64000002 
 931      00000000 
 931      00000000 
 932 01c7 00D40100 		.ascii	"\000\324\001\000\000_dbg_check_unlock\000\000\002\000"
 932      005F6462 
 932      675F6368 
 932      65636B5F 
 932      756E6C6F 
 933 01e1 00000000 		.ascii	"\000\000\000\000\000\000\000\000\326\001\000\000chT"
 933      00000000 
 933      D6010000 
 933      636854
 934 01f0 68645374 		.ascii	"hdStart\000\000\002\000\000\000\000\000\000\000\000"
 934      61727400 
ARM GAS  /tmp/ccfeOUca.s 			page 74


 934      00020000 
 934      00000000 
 934      0000
 935 0202 00D80100 		.ascii	"\000\330\001\000\000chThdCreateI\000\000\002\000\000"
 935      00636854 
 935      68644372 
 935      65617465 
 935      49000002 
 936 0218 00000000 		.ascii	"\000\000\000\000\000\000\000\334\001\000\000_test_a"
 936      000000DC 
 936      0100005F 
 936      74657374 
 936      5F61
 937 022a 73736572 		.ascii	"ssert\000\000\002\000\000\000\000\000\000\000\000\000"
 937      74000002 
 937      00000000 
 937      00000000 
 937      00
 938 023b DE010000 		.ascii	"\336\001\000\000chThdSetPriority\000\000\002\000\000"
 938      63685468 
 938      64536574 
 938      5072696F 
 938      72697479 
 939 0254 00000000 		.ascii	"\000\000\000\000\000\000\000\343\001\000\000_test_a"
 939      000000E3 
 939      0100005F 
 939      74657374 
 939      5F61
 940 0266 73736572 		.ascii	"ssert_time_window\000\000\002\000\000\000\000\000\000"
 940      745F7469 
 940      6D655F77 
 940      696E646F 
 940      77000002 
 941 0280 000000E7 		.ascii	"\000\000\000\347\001\000\000chThdSleepUntil\000\000"
 941      01000063 
 941      68546864 
 941      536C6565 
 941      70556E74 
 942 0298 02000000 		.ascii	"\002\000\000\000\000\000\000\000\000\000\355\001\000"
 942      00000000 
 942      0000ED01 
 942      00
 943 02a5 00636854 		.ascii	"\000chThdSleep\000\000\002\000\000\000\000\000\000\000"
 943      6864536C 
 943      65657000 
 943      00020000 
 943      00000000 
 944 02ba 0000F101 		.ascii	"\000\000\361\001\000\000test_wait_tick\000\000\002\000"
 944      00007465 
 944      73745F77 
 944      6169745F 
 944      7469636B 
 945 02d2 00000000 		.ascii	"\000\000\000\000\000\000\000\000\363\001\000\000"
 945      00000000 
 945      F3010000 
 946              		.text
 947              		.section	.gnu.lto_.opts,"",%progbits
ARM GAS  /tmp/ccfeOUca.s 			page 75


 948 0000 272D6D63 		.ascii	"'-mcpu=cortex-m4' '-mno-thumb-interwork' '-mthumb' "
 948      70753D63 
 948      6F727465 
 948      782D6D34 
 948      2720272D 
 949 0033 272D6767 		.ascii	"'-ggdb' '-O0' '-fomit-frame-pointer' '-falign-funct"
 949      64622720 
 949      272D4F30 
 949      2720272D 
 949      666F6D69 
 950 0066 696F6E73 		.ascii	"ions=16' '-ffunction-sections' '-fdata-sections' '-"
 950      3D313627 
 950      20272D66 
 950      66756E63 
 950      74696F6E 
 951 0099 666E6F2D 		.ascii	"fno-common' '-flto'\000"
 951      636F6D6D 
 951      6F6E2720 
 951      272D666C 
 951      746F2700 
 952              		.text
 953              		.cfi_sections	.debug_frame
 954              		.section	.text.port_lock,"ax",%progbits
 955              		.align	2
 956              		.p2align 4,,15
 957              		.thumb
 958              		.thumb_func
 959              		.type	port_lock, %function
 960              	port_lock:
 961              	.LFB127:
 962              		.file 1 "lib/ChibiOS_16.1.4//os/rt/ports/ARMCMx/chcore_v7m.h"
 963              		.loc 1 456 0
 964              		.cfi_startproc
 965              		@ args = 0, pretend = 0, frame = 8
 966              		@ frame_needed = 0, uses_anonymous_args = 0
 967              		@ link register save eliminated.
 968 0000 82B0     		sub	sp, sp, #8
 969              		.cfi_def_cfa_offset 8
 970 0002 2023     		movs	r3, #32
 971 0004 0193     		str	r3, [sp, #4]
 972              	.LBB6:
 973              	.LBB7:
 974              		.file 2 "lib/ChibiOS_16.1.4//os/ext/CMSIS/include/core_cmFunc.h"
 975              		.loc 2 548 0
 976 0006 019B     		ldr	r3, [sp, #4]
 977              	@ 548 "lib/ChibiOS_16.1.4//os/ext/CMSIS/include/core_cmFunc.h" 1
 978 0008 83F31188 		MSR basepri, r3
 979              	@ 0 "" 2
 980              		.thumb
 981              	.LBE7:
 982              	.LBE6:
 983              		.loc 1 473 0
 984 000c 02B0     		add	sp, sp, #8
 985              		@ sp needed
 986 000e 7047     		bx	lr
 987              		.cfi_endproc
 988              	.LFE127:
ARM GAS  /tmp/ccfeOUca.s 			page 76


 989              		.size	port_lock, .-port_lock
 990              		.section	.text.port_unlock,"ax",%progbits
 991              		.align	2
 992              		.p2align 4,,15
 993              		.thumb
 994              		.thumb_func
 995              		.type	port_unlock, %function
 996              	port_unlock:
 997              	.LFB128:
 998              		.loc 1 480 0
 999              		.cfi_startproc
 1000              		@ args = 0, pretend = 0, frame = 8
 1001              		@ frame_needed = 0, uses_anonymous_args = 0
 1002              		@ link register save eliminated.
 1003 0000 82B0     		sub	sp, sp, #8
 1004              		.cfi_def_cfa_offset 8
 1005 0002 0023     		movs	r3, #0
 1006 0004 0193     		str	r3, [sp, #4]
 1007              	.LBB8:
 1008              	.LBB9:
 1009              		.loc 2 548 0
 1010 0006 019B     		ldr	r3, [sp, #4]
 1011              	@ 548 "lib/ChibiOS_16.1.4//os/ext/CMSIS/include/core_cmFunc.h" 1
 1012 0008 83F31188 		MSR basepri, r3
 1013              	@ 0 "" 2
 1014              		.thumb
 1015              	.LBE9:
 1016              	.LBE8:
 1017              		.loc 1 487 0
 1018 000c 02B0     		add	sp, sp, #8
 1019              		@ sp needed
 1020 000e 7047     		bx	lr
 1021              		.cfi_endproc
 1022              	.LFE128:
 1023              		.size	port_unlock, .-port_unlock
 1024              		.section	.text.st_lld_get_counter,"ax",%progbits
 1025              		.align	2
 1026              		.p2align 4,,15
 1027              		.thumb
 1028              		.thumb_func
 1029              		.type	st_lld_get_counter, %function
 1030              	st_lld_get_counter:
 1031              	.LFB136:
 1032              		.file 3 "lib/ChibiOS_16.1.4//os/hal/ports/STM32/LLD/TIMv1/st_lld.h"
 1033              		.loc 3 139 0
 1034              		.cfi_startproc
 1035              		@ args = 0, pretend = 0, frame = 0
 1036              		@ frame_needed = 0, uses_anonymous_args = 0
 1037              		@ link register save eliminated.
 1038              		.loc 3 141 0
 1039 0000 4FF08043 		mov	r3, #1073741824
 1040 0004 5B6A     		ldr	r3, [r3, #36]
 1041              		.loc 3 142 0
 1042 0006 1846     		mov	r0, r3
 1043 0008 7047     		bx	lr
 1044              		.cfi_endproc
 1045              	.LFE136:
ARM GAS  /tmp/ccfeOUca.s 			page 77


 1046              		.size	st_lld_get_counter, .-st_lld_get_counter
 1047 000a 00BFAFF3 		.section	.text.port_timer_get_time,"ax",%progbits
 1047      0080
 1048              		.align	2
 1049              		.p2align 4,,15
 1050              		.thumb
 1051              		.thumb_func
 1052              		.type	port_timer_get_time, %function
 1053              	port_timer_get_time:
 1054              	.LFB145:
 1055              		.file 4 "lib/ChibiOS_16.1.4//os/rt/ports/ARMCMx/chcore_timer.h"
 1056              		.loc 4 105 0
 1057              		.cfi_startproc
 1058              		@ args = 0, pretend = 0, frame = 0
 1059              		@ frame_needed = 0, uses_anonymous_args = 0
 1060 0000 08B5     		push	{r3, lr}
 1061              		.cfi_def_cfa_offset 8
 1062              		.cfi_offset 3, -8
 1063              		.cfi_offset 14, -4
 1064              		.loc 4 107 0
 1065 0002 FFF7FEFF 		bl	st_lld_get_counter
 1066 0006 0346     		mov	r3, r0
 1067              		.loc 4 108 0
 1068 0008 1846     		mov	r0, r3
 1069 000a 08BD     		pop	{r3, pc}
 1070              		.cfi_endproc
 1071              	.LFE145:
 1072              		.size	port_timer_get_time, .-port_timer_get_time
 1073              		.section	.text.chSysLock,"ax",%progbits
 1074              		.align	2
 1075              		.p2align 4,,15
 1076              		.thumb
 1077              		.thumb_func
 1078              		.type	chSysLock, %function
 1079              	chSysLock:
 1080              	.LFB167:
 1081              		.file 5 "lib/ChibiOS_16.1.4//os/rt/include/chsys.h"
 1082              		.loc 5 346 0
 1083              		.cfi_startproc
 1084              		@ args = 0, pretend = 0, frame = 0
 1085              		@ frame_needed = 0, uses_anonymous_args = 0
 1086 0000 08B5     		push	{r3, lr}
 1087              		.cfi_def_cfa_offset 8
 1088              		.cfi_offset 3, -8
 1089              		.cfi_offset 14, -4
 1090              		.loc 5 348 0
 1091 0002 FFF7FEFF 		bl	port_lock
 1092              		.loc 5 349 0
 1093 0006 FFF7FEFF 		bl	_stats_start_measure_crit_thd
 1094              		.loc 5 350 0
 1095 000a FFF7FEFF 		bl	_dbg_check_lock
 1096              		.loc 5 351 0
 1097 000e 08BD     		pop	{r3, pc}
 1098              		.cfi_endproc
 1099              	.LFE167:
 1100              		.size	chSysLock, .-chSysLock
 1101              		.section	.text.chSysUnlock,"ax",%progbits
ARM GAS  /tmp/ccfeOUca.s 			page 78


 1102              		.align	2
 1103              		.p2align 4,,15
 1104              		.thumb
 1105              		.thumb_func
 1106              		.type	chSysUnlock, %function
 1107              	chSysUnlock:
 1108              	.LFB168:
 1109              		.loc 5 358 0
 1110              		.cfi_startproc
 1111              		@ args = 0, pretend = 0, frame = 0
 1112              		@ frame_needed = 0, uses_anonymous_args = 0
 1113 0000 08B5     		push	{r3, lr}
 1114              		.cfi_def_cfa_offset 8
 1115              		.cfi_offset 3, -8
 1116              		.cfi_offset 14, -4
 1117              		.loc 5 360 0
 1118 0002 FFF7FEFF 		bl	_dbg_check_unlock
 1119              		.loc 5 361 0
 1120 0006 FFF7FEFF 		bl	_stats_stop_measure_crit_thd
 1121              		.loc 5 367 0
 1122 000a 40F20003 		movw	r3, #:lower16:ch
 1123 000e C0F20003 		movt	r3, #:upper16:ch
 1124 0012 1A68     		ldr	r2, [r3]
 1125 0014 40F20003 		movw	r3, #:lower16:ch
 1126 0018 C0F20003 		movt	r3, #:upper16:ch
 1127 001c 9A42     		cmp	r2, r3
 1128 001e 13D0     		beq	.L9
 1129              		.loc 5 367 0 is_stmt 0 discriminator 1
 1130 0020 40F20003 		movw	r3, #:lower16:ch
 1131 0024 C0F20003 		movt	r3, #:upper16:ch
 1132 0028 9B69     		ldr	r3, [r3, #24]
 1133 002a 9A68     		ldr	r2, [r3, #8]
 1134 002c 40F20003 		movw	r3, #:lower16:ch
 1135 0030 C0F20003 		movt	r3, #:upper16:ch
 1136 0034 1B68     		ldr	r3, [r3]
 1137 0036 9B68     		ldr	r3, [r3, #8]
 1138 0038 9A42     		cmp	r2, r3
 1139 003a 05D2     		bcs	.L9
 1140 003c 40F20000 		movw	r0, #:lower16:__func__.5915
 1141 0040 C0F20000 		movt	r0, #:upper16:__func__.5915
 1142 0044 FFF7FEFF 		bl	chSysHalt
 1143              	.L9:
 1144              		.loc 5 371 0 is_stmt 1
 1145 0048 FFF7FEFF 		bl	port_unlock
 1146              		.loc 5 372 0
 1147 004c 08BD     		pop	{r3, pc}
 1148              		.cfi_endproc
 1149              	.LFE168:
 1150              		.size	chSysUnlock, .-chSysUnlock
 1151 004e 00BF     		.section	.text.chVTGetSystemTimeX,"ax",%progbits
 1152              		.align	2
 1153              		.p2align 4,,15
 1154              		.thumb
 1155              		.thumb_func
 1156              		.type	chVTGetSystemTimeX, %function
 1157              	chVTGetSystemTimeX:
 1158              	.LFB175:
ARM GAS  /tmp/ccfeOUca.s 			page 79


 1159              		.file 6 "lib/ChibiOS_16.1.4//os/rt/include/chvt.h"
 1160              		.loc 6 228 0
 1161              		.cfi_startproc
 1162              		@ args = 0, pretend = 0, frame = 0
 1163              		@ frame_needed = 0, uses_anonymous_args = 0
 1164 0000 08B5     		push	{r3, lr}
 1165              		.cfi_def_cfa_offset 8
 1166              		.cfi_offset 3, -8
 1167              		.cfi_offset 14, -4
 1168              		.loc 6 233 0
 1169 0002 FFF7FEFF 		bl	port_timer_get_time
 1170 0006 0346     		mov	r3, r0
 1171              		.loc 6 235 0
 1172 0008 1846     		mov	r0, r3
 1173 000a 08BD     		pop	{r3, pc}
 1174              		.cfi_endproc
 1175              	.LFE175:
 1176              		.size	chVTGetSystemTimeX, .-chVTGetSystemTimeX
 1177              		.section	.text.chVTGetSystemTime,"ax",%progbits
 1178              		.align	2
 1179              		.p2align 4,,15
 1180              		.thumb
 1181              		.thumb_func
 1182              		.type	chVTGetSystemTime, %function
 1183              	chVTGetSystemTime:
 1184              	.LFB176:
 1185              		.loc 6 247 0
 1186              		.cfi_startproc
 1187              		@ args = 0, pretend = 0, frame = 8
 1188              		@ frame_needed = 0, uses_anonymous_args = 0
 1189 0000 00B5     		push	{lr}
 1190              		.cfi_def_cfa_offset 4
 1191              		.cfi_offset 14, -4
 1192 0002 83B0     		sub	sp, sp, #12
 1193              		.cfi_def_cfa_offset 16
 1194              		.loc 6 250 0
 1195 0004 FFF7FEFF 		bl	chSysLock
 1196              		.loc 6 251 0
 1197 0008 FFF7FEFF 		bl	chVTGetSystemTimeX
 1198 000c 0190     		str	r0, [sp, #4]
 1199              		.loc 6 252 0
 1200 000e FFF7FEFF 		bl	chSysUnlock
 1201              		.loc 6 254 0
 1202 0012 019B     		ldr	r3, [sp, #4]
 1203              		.loc 6 255 0
 1204 0014 1846     		mov	r0, r3
 1205 0016 03B0     		add	sp, sp, #12
 1206              		@ sp needed
 1207 0018 5DF804FB 		ldr	pc, [sp], #4
 1208              		.cfi_endproc
 1209              	.LFE176:
 1210              		.size	chVTGetSystemTime, .-chVTGetSystemTime
 1211 001c AFF30080 		.section	.text.chThdGetSelfX,"ax",%progbits
 1212              		.align	2
 1213              		.p2align 4,,15
 1214              		.thumb
 1215              		.thumb_func
ARM GAS  /tmp/ccfeOUca.s 			page 80


 1216              		.type	chThdGetSelfX, %function
 1217              	chThdGetSelfX:
 1218              	.LFB189:
 1219              		.file 7 "lib/ChibiOS_16.1.4//os/rt/include/chthreads.h"
 1220              		.loc 7 174 0
 1221              		.cfi_startproc
 1222              		@ args = 0, pretend = 0, frame = 0
 1223              		@ frame_needed = 0, uses_anonymous_args = 0
 1224              		@ link register save eliminated.
 1225              		.loc 7 176 0
 1226 0000 40F20003 		movw	r3, #:lower16:ch
 1227 0004 C0F20003 		movt	r3, #:upper16:ch
 1228 0008 9B69     		ldr	r3, [r3, #24]
 1229              		.loc 7 177 0
 1230 000a 1846     		mov	r0, r3
 1231 000c 7047     		bx	lr
 1232              		.cfi_endproc
 1233              	.LFE189:
 1234              		.size	chThdGetSelfX, .-chThdGetSelfX
 1235 000e 00BF     		.section	.text.chThdGetPriorityX,"ax",%progbits
 1236              		.align	2
 1237              		.p2align 4,,15
 1238              		.thumb
 1239              		.thumb_func
 1240              		.type	chThdGetPriorityX, %function
 1241              	chThdGetPriorityX:
 1242              	.LFB190:
 1243              		.loc 7 187 0
 1244              		.cfi_startproc
 1245              		@ args = 0, pretend = 0, frame = 0
 1246              		@ frame_needed = 0, uses_anonymous_args = 0
 1247 0000 08B5     		push	{r3, lr}
 1248              		.cfi_def_cfa_offset 8
 1249              		.cfi_offset 3, -8
 1250              		.cfi_offset 14, -4
 1251              		.loc 7 189 0
 1252 0002 FFF7FEFF 		bl	chThdGetSelfX
 1253 0006 0346     		mov	r3, r0
 1254 0008 9B68     		ldr	r3, [r3, #8]
 1255              		.loc 7 190 0
 1256 000a 1846     		mov	r0, r3
 1257 000c 08BD     		pop	{r3, pc}
 1258              		.cfi_endproc
 1259              	.LFE190:
 1260              		.size	chThdGetPriorityX, .-chThdGetPriorityX
 1261 000e 00BF     		.section	.text.thread,"ax",%progbits
 1262              		.align	2
 1263              		.p2align 4,,15
 1264              		.thumb
 1265              		.thumb_func
 1266              		.type	thread, %function
 1267              	thread:
 1268              	.LFB241:
 1269              		.file 8 "lib/ChibiOS_16.1.4//test/rt/testthd.c"
 1270              		.loc 8 60 0
 1271              		.cfi_startproc
 1272              		@ args = 0, pretend = 0, frame = 8
ARM GAS  /tmp/ccfeOUca.s 			page 81


 1273              		@ frame_needed = 0, uses_anonymous_args = 0
 1274 0000 00B5     		push	{lr}
 1275              		.cfi_def_cfa_offset 4
 1276              		.cfi_offset 14, -4
 1277 0002 83B0     		sub	sp, sp, #12
 1278              		.cfi_def_cfa_offset 16
 1279 0004 0190     		str	r0, [sp, #4]
 1280              		.loc 8 62 0
 1281 0006 019B     		ldr	r3, [sp, #4]
 1282 0008 1B78     		ldrb	r3, [r3]	@ zero_extendqisi2
 1283 000a 1846     		mov	r0, r3
 1284 000c FFF7FEFF 		bl	test_emit_token
 1285              		.loc 8 63 0
 1286 0010 03B0     		add	sp, sp, #12
 1287              		@ sp needed
 1288 0012 5DF804FB 		ldr	pc, [sp], #4
 1289              		.cfi_endproc
 1290              	.LFE241:
 1291              		.size	thread, .-thread
 1292 0016 00BFAFF3 		.section	.rodata
 1292      0080AFF3 
 1292      0080
 1293              		.align	2
 1294              	.LC0:
 1295 0000 4500     		.ascii	"E\000"
 1296 0002 0000     		.align	2
 1297              	.LC1:
 1298 0004 4400     		.ascii	"D\000"
 1299 0006 0000     		.align	2
 1300              	.LC2:
 1301 0008 4300     		.ascii	"C\000"
 1302 000a 0000     		.align	2
 1303              	.LC3:
 1304 000c 4200     		.ascii	"B\000"
 1305 000e 0000     		.align	2
 1306              	.LC4:
 1307 0010 4100     		.ascii	"A\000"
 1308 0012 0000     		.align	2
 1309              	.LC5:
 1310 0014 41424344 		.ascii	"ABCDE\000"
 1310      4500
 1311              		.section	.text.thd1_execute,"ax",%progbits
 1312              		.align	2
 1313              		.p2align 4,,15
 1314              		.thumb
 1315              		.thumb_func
 1316              		.type	thd1_execute, %function
 1317              	thd1_execute:
 1318              	.LFB242:
 1319              		.loc 8 65 0
 1320              		.cfi_startproc
 1321              		@ args = 0, pretend = 0, frame = 0
 1322              		@ frame_needed = 0, uses_anonymous_args = 0
 1323 0000 10B5     		push	{r4, lr}
 1324              		.cfi_def_cfa_offset 8
 1325              		.cfi_offset 4, -8
 1326              		.cfi_offset 14, -4
ARM GAS  /tmp/ccfeOUca.s 			page 82


 1327 0002 82B0     		sub	sp, sp, #8
 1328              		.cfi_def_cfa_offset 16
 1329              		.loc 8 67 0
 1330 0004 40F20003 		movw	r3, #:lower16:wa
 1331 0008 C0F20003 		movt	r3, #:upper16:wa
 1332 000c 1C68     		ldr	r4, [r3]
 1333 000e FFF7FEFF 		bl	chThdGetPriorityX
 1334 0012 0346     		mov	r3, r0
 1335 0014 5A1F     		subs	r2, r3, #5
 1336 0016 40F20003 		movw	r3, #:lower16:.LC0
 1337 001a C0F20003 		movt	r3, #:upper16:.LC0
 1338 001e 0093     		str	r3, [sp]
 1339 0020 2046     		mov	r0, r4
 1340 0022 4FF4B471 		mov	r1, #360
 1341 0026 40F20003 		movw	r3, #:lower16:thread
 1342 002a C0F20003 		movt	r3, #:upper16:thread
 1343 002e FFF7FEFF 		bl	chThdCreateStatic
 1344 0032 0246     		mov	r2, r0
 1345 0034 40F20003 		movw	r3, #:lower16:threads
 1346 0038 C0F20003 		movt	r3, #:upper16:threads
 1347 003c 1A60     		str	r2, [r3]
 1348              		.loc 8 68 0
 1349 003e 40F20003 		movw	r3, #:lower16:wa
 1350 0042 C0F20003 		movt	r3, #:upper16:wa
 1351 0046 5C68     		ldr	r4, [r3, #4]
 1352 0048 FFF7FEFF 		bl	chThdGetPriorityX
 1353 004c 0346     		mov	r3, r0
 1354 004e 1A1F     		subs	r2, r3, #4
 1355 0050 40F20003 		movw	r3, #:lower16:.LC1
 1356 0054 C0F20003 		movt	r3, #:upper16:.LC1
 1357 0058 0093     		str	r3, [sp]
 1358 005a 2046     		mov	r0, r4
 1359 005c 4FF4B471 		mov	r1, #360
 1360 0060 40F20003 		movw	r3, #:lower16:thread
 1361 0064 C0F20003 		movt	r3, #:upper16:thread
 1362 0068 FFF7FEFF 		bl	chThdCreateStatic
 1363 006c 0246     		mov	r2, r0
 1364 006e 40F20003 		movw	r3, #:lower16:threads
 1365 0072 C0F20003 		movt	r3, #:upper16:threads
 1366 0076 5A60     		str	r2, [r3, #4]
 1367              		.loc 8 69 0
 1368 0078 40F20003 		movw	r3, #:lower16:wa
 1369 007c C0F20003 		movt	r3, #:upper16:wa
 1370 0080 9C68     		ldr	r4, [r3, #8]
 1371 0082 FFF7FEFF 		bl	chThdGetPriorityX
 1372 0086 0346     		mov	r3, r0
 1373 0088 DA1E     		subs	r2, r3, #3
 1374 008a 40F20003 		movw	r3, #:lower16:.LC2
 1375 008e C0F20003 		movt	r3, #:upper16:.LC2
 1376 0092 0093     		str	r3, [sp]
 1377 0094 2046     		mov	r0, r4
 1378 0096 4FF4B471 		mov	r1, #360
 1379 009a 40F20003 		movw	r3, #:lower16:thread
 1380 009e C0F20003 		movt	r3, #:upper16:thread
 1381 00a2 FFF7FEFF 		bl	chThdCreateStatic
 1382 00a6 0246     		mov	r2, r0
 1383 00a8 40F20003 		movw	r3, #:lower16:threads
ARM GAS  /tmp/ccfeOUca.s 			page 83


 1384 00ac C0F20003 		movt	r3, #:upper16:threads
 1385 00b0 9A60     		str	r2, [r3, #8]
 1386              		.loc 8 70 0
 1387 00b2 40F20003 		movw	r3, #:lower16:wa
 1388 00b6 C0F20003 		movt	r3, #:upper16:wa
 1389 00ba DC68     		ldr	r4, [r3, #12]
 1390 00bc FFF7FEFF 		bl	chThdGetPriorityX
 1391 00c0 0346     		mov	r3, r0
 1392 00c2 9A1E     		subs	r2, r3, #2
 1393 00c4 40F20003 		movw	r3, #:lower16:.LC3
 1394 00c8 C0F20003 		movt	r3, #:upper16:.LC3
 1395 00cc 0093     		str	r3, [sp]
 1396 00ce 2046     		mov	r0, r4
 1397 00d0 4FF4B471 		mov	r1, #360
 1398 00d4 40F20003 		movw	r3, #:lower16:thread
 1399 00d8 C0F20003 		movt	r3, #:upper16:thread
 1400 00dc FFF7FEFF 		bl	chThdCreateStatic
 1401 00e0 0246     		mov	r2, r0
 1402 00e2 40F20003 		movw	r3, #:lower16:threads
 1403 00e6 C0F20003 		movt	r3, #:upper16:threads
 1404 00ea DA60     		str	r2, [r3, #12]
 1405              		.loc 8 71 0
 1406 00ec 40F20003 		movw	r3, #:lower16:wa
 1407 00f0 C0F20003 		movt	r3, #:upper16:wa
 1408 00f4 1C69     		ldr	r4, [r3, #16]
 1409 00f6 FFF7FEFF 		bl	chThdGetPriorityX
 1410 00fa 0346     		mov	r3, r0
 1411 00fc 5A1E     		subs	r2, r3, #1
 1412 00fe 40F20003 		movw	r3, #:lower16:.LC4
 1413 0102 C0F20003 		movt	r3, #:upper16:.LC4
 1414 0106 0093     		str	r3, [sp]
 1415 0108 2046     		mov	r0, r4
 1416 010a 4FF4B471 		mov	r1, #360
 1417 010e 40F20003 		movw	r3, #:lower16:thread
 1418 0112 C0F20003 		movt	r3, #:upper16:thread
 1419 0116 FFF7FEFF 		bl	chThdCreateStatic
 1420 011a 0246     		mov	r2, r0
 1421 011c 40F20003 		movw	r3, #:lower16:threads
 1422 0120 C0F20003 		movt	r3, #:upper16:threads
 1423 0124 1A61     		str	r2, [r3, #16]
 1424              		.loc 8 72 0
 1425 0126 FFF7FEFF 		bl	test_wait_threads
 1426              		.loc 8 73 0
 1427 012a 0120     		movs	r0, #1
 1428 012c 40F20001 		movw	r1, #:lower16:.LC5
 1429 0130 C0F20001 		movt	r1, #:upper16:.LC5
 1430 0134 FFF7FEFF 		bl	_test_assert_sequence
 1431 0138 0346     		mov	r3, r0
 1432 013a 002B     		cmp	r3, #0
 1433 013c 00D0     		beq	.L19
 1434              		.loc 8 73 0 is_stmt 0 discriminator 1
 1435 013e 00BF     		nop
 1436              	.L19:
 1437              		.loc 8 74 0 is_stmt 1
 1438 0140 02B0     		add	sp, sp, #8
 1439              		@ sp needed
 1440 0142 10BD     		pop	{r4, pc}
ARM GAS  /tmp/ccfeOUca.s 			page 84


 1441              		.cfi_endproc
 1442              	.LFE242:
 1443              		.size	thd1_execute, .-thd1_execute
 1444              		.global	testthd1
 1445 0144 AFF30080 		.section	.rodata
 1445      AFF30080 
 1445      AFF30080 
 1446 001a 0000     		.align	2
 1447              	.LC6:
 1448 001c 54687265 		.ascii	"Threads, enqueuing test #1\000"
 1448      6164732C 
 1448      20656E71 
 1448      75657569 
 1448      6E672074 
 1449              		.section	.rodata.testthd1,"a",%progbits
 1450              		.align	2
 1451              		.type	testthd1, %object
 1452              		.size	testthd1, 16
 1453              	testthd1:
 1454 0000 1C000000 		.word	.LC6
 1455 0004 00000000 		.word	0
 1456 0008 00000000 		.word	0
 1457 000c 00000000 		.word	thd1_execute
 1458              		.section	.text.thd2_execute,"ax",%progbits
 1459              		.align	2
 1460              		.p2align 4,,15
 1461              		.thumb
 1462              		.thumb_func
 1463              		.type	thd2_execute, %function
 1464              	thd2_execute:
 1465              	.LFB243:
 1466              		.loc 8 93 0
 1467              		.cfi_startproc
 1468              		@ args = 0, pretend = 0, frame = 0
 1469              		@ frame_needed = 0, uses_anonymous_args = 0
 1470 0000 10B5     		push	{r4, lr}
 1471              		.cfi_def_cfa_offset 8
 1472              		.cfi_offset 4, -8
 1473              		.cfi_offset 14, -4
 1474 0002 82B0     		sub	sp, sp, #8
 1475              		.cfi_def_cfa_offset 16
 1476              		.loc 8 95 0
 1477 0004 40F20003 		movw	r3, #:lower16:wa
 1478 0008 C0F20003 		movt	r3, #:upper16:wa
 1479 000c 5C68     		ldr	r4, [r3, #4]
 1480 000e FFF7FEFF 		bl	chThdGetPriorityX
 1481 0012 0346     		mov	r3, r0
 1482 0014 1A1F     		subs	r2, r3, #4
 1483 0016 40F20003 		movw	r3, #:lower16:.LC1
 1484 001a C0F20003 		movt	r3, #:upper16:.LC1
 1485 001e 0093     		str	r3, [sp]
 1486 0020 2046     		mov	r0, r4
 1487 0022 4FF4B471 		mov	r1, #360
 1488 0026 40F20003 		movw	r3, #:lower16:thread
 1489 002a C0F20003 		movt	r3, #:upper16:thread
 1490 002e FFF7FEFF 		bl	chThdCreateStatic
 1491 0032 0246     		mov	r2, r0
ARM GAS  /tmp/ccfeOUca.s 			page 85


 1492 0034 40F20003 		movw	r3, #:lower16:threads
 1493 0038 C0F20003 		movt	r3, #:upper16:threads
 1494 003c 5A60     		str	r2, [r3, #4]
 1495              		.loc 8 96 0
 1496 003e 40F20003 		movw	r3, #:lower16:wa
 1497 0042 C0F20003 		movt	r3, #:upper16:wa
 1498 0046 1C68     		ldr	r4, [r3]
 1499 0048 FFF7FEFF 		bl	chThdGetPriorityX
 1500 004c 0346     		mov	r3, r0
 1501 004e 5A1F     		subs	r2, r3, #5
 1502 0050 40F20003 		movw	r3, #:lower16:.LC0
 1503 0054 C0F20003 		movt	r3, #:upper16:.LC0
 1504 0058 0093     		str	r3, [sp]
 1505 005a 2046     		mov	r0, r4
 1506 005c 4FF4B471 		mov	r1, #360
 1507 0060 40F20003 		movw	r3, #:lower16:thread
 1508 0064 C0F20003 		movt	r3, #:upper16:thread
 1509 0068 FFF7FEFF 		bl	chThdCreateStatic
 1510 006c 0246     		mov	r2, r0
 1511 006e 40F20003 		movw	r3, #:lower16:threads
 1512 0072 C0F20003 		movt	r3, #:upper16:threads
 1513 0076 1A60     		str	r2, [r3]
 1514              		.loc 8 97 0
 1515 0078 40F20003 		movw	r3, #:lower16:wa
 1516 007c C0F20003 		movt	r3, #:upper16:wa
 1517 0080 1C69     		ldr	r4, [r3, #16]
 1518 0082 FFF7FEFF 		bl	chThdGetPriorityX
 1519 0086 0346     		mov	r3, r0
 1520 0088 5A1E     		subs	r2, r3, #1
 1521 008a 40F20003 		movw	r3, #:lower16:.LC4
 1522 008e C0F20003 		movt	r3, #:upper16:.LC4
 1523 0092 0093     		str	r3, [sp]
 1524 0094 2046     		mov	r0, r4
 1525 0096 4FF4B471 		mov	r1, #360
 1526 009a 40F20003 		movw	r3, #:lower16:thread
 1527 009e C0F20003 		movt	r3, #:upper16:thread
 1528 00a2 FFF7FEFF 		bl	chThdCreateStatic
 1529 00a6 0246     		mov	r2, r0
 1530 00a8 40F20003 		movw	r3, #:lower16:threads
 1531 00ac C0F20003 		movt	r3, #:upper16:threads
 1532 00b0 1A61     		str	r2, [r3, #16]
 1533              		.loc 8 98 0
 1534 00b2 40F20003 		movw	r3, #:lower16:wa
 1535 00b6 C0F20003 		movt	r3, #:upper16:wa
 1536 00ba DC68     		ldr	r4, [r3, #12]
 1537 00bc FFF7FEFF 		bl	chThdGetPriorityX
 1538 00c0 0346     		mov	r3, r0
 1539 00c2 9A1E     		subs	r2, r3, #2
 1540 00c4 40F20003 		movw	r3, #:lower16:.LC3
 1541 00c8 C0F20003 		movt	r3, #:upper16:.LC3
 1542 00cc 0093     		str	r3, [sp]
 1543 00ce 2046     		mov	r0, r4
 1544 00d0 4FF4B471 		mov	r1, #360
 1545 00d4 40F20003 		movw	r3, #:lower16:thread
 1546 00d8 C0F20003 		movt	r3, #:upper16:thread
 1547 00dc FFF7FEFF 		bl	chThdCreateStatic
 1548 00e0 0246     		mov	r2, r0
ARM GAS  /tmp/ccfeOUca.s 			page 86


 1549 00e2 40F20003 		movw	r3, #:lower16:threads
 1550 00e6 C0F20003 		movt	r3, #:upper16:threads
 1551 00ea DA60     		str	r2, [r3, #12]
 1552              		.loc 8 100 0
 1553 00ec FFF7FEFF 		bl	chSysLock
 1554              		.loc 8 101 0
 1555 00f0 40F20003 		movw	r3, #:lower16:wa
 1556 00f4 C0F20003 		movt	r3, #:upper16:wa
 1557 00f8 9C68     		ldr	r4, [r3, #8]
 1558 00fa FFF7FEFF 		bl	chThdGetPriorityX
 1559 00fe 0346     		mov	r3, r0
 1560 0100 DA1E     		subs	r2, r3, #3
 1561 0102 40F20003 		movw	r3, #:lower16:.LC2
 1562 0106 C0F20003 		movt	r3, #:upper16:.LC2
 1563 010a 0093     		str	r3, [sp]
 1564 010c 2046     		mov	r0, r4
 1565 010e 4FF4B471 		mov	r1, #360
 1566 0112 40F20003 		movw	r3, #:lower16:thread
 1567 0116 C0F20003 		movt	r3, #:upper16:thread
 1568 011a FFF7FEFF 		bl	chThdCreateI
 1569 011e 0246     		mov	r2, r0
 1570 0120 40F20003 		movw	r3, #:lower16:threads
 1571 0124 C0F20003 		movt	r3, #:upper16:threads
 1572 0128 9A60     		str	r2, [r3, #8]
 1573              		.loc 8 102 0
 1574 012a FFF7FEFF 		bl	chSysUnlock
 1575              		.loc 8 103 0
 1576 012e 40F20003 		movw	r3, #:lower16:threads
 1577 0132 C0F20003 		movt	r3, #:upper16:threads
 1578 0136 9B68     		ldr	r3, [r3, #8]
 1579 0138 1846     		mov	r0, r3
 1580 013a FFF7FEFF 		bl	chThdStart
 1581              		.loc 8 104 0
 1582 013e FFF7FEFF 		bl	test_wait_threads
 1583              		.loc 8 105 0
 1584 0142 0120     		movs	r0, #1
 1585 0144 40F20001 		movw	r1, #:lower16:.LC5
 1586 0148 C0F20001 		movt	r1, #:upper16:.LC5
 1587 014c FFF7FEFF 		bl	_test_assert_sequence
 1588 0150 0346     		mov	r3, r0
 1589 0152 002B     		cmp	r3, #0
 1590 0154 00D0     		beq	.L21
 1591              		.loc 8 105 0 is_stmt 0 discriminator 1
 1592 0156 00BF     		nop
 1593              	.L21:
 1594              		.loc 8 106 0 is_stmt 1
 1595 0158 02B0     		add	sp, sp, #8
 1596              		@ sp needed
 1597 015a 10BD     		pop	{r4, pc}
 1598              		.cfi_endproc
 1599              	.LFE243:
 1600              		.size	thd2_execute, .-thd2_execute
 1601              		.global	testthd2
 1602 015c AFF30080 		.section	.rodata
 1603 0037 00       		.align	2
 1604              	.LC7:
 1605 0038 54687265 		.ascii	"Threads, enqueuing test #2\000"
ARM GAS  /tmp/ccfeOUca.s 			page 87


 1605      6164732C 
 1605      20656E71 
 1605      75657569 
 1605      6E672074 
 1606              		.section	.rodata.testthd2,"a",%progbits
 1607              		.align	2
 1608              		.type	testthd2, %object
 1609              		.size	testthd2, 16
 1610              	testthd2:
 1611 0000 38000000 		.word	.LC7
 1612 0004 00000000 		.word	0
 1613 0008 00000000 		.word	0
 1614 000c 00000000 		.word	thd2_execute
 1615              		.section	.text.thd3_execute,"ax",%progbits
 1616              		.align	2
 1617              		.p2align 4,,15
 1618              		.thumb
 1619              		.thumb_func
 1620              		.type	thd3_execute, %function
 1621              	thd3_execute:
 1622              	.LFB244:
 1623              		.loc 8 125 0
 1624              		.cfi_startproc
 1625              		@ args = 0, pretend = 0, frame = 8
 1626              		@ frame_needed = 0, uses_anonymous_args = 0
 1627 0000 00B5     		push	{lr}
 1628              		.cfi_def_cfa_offset 4
 1629              		.cfi_offset 14, -4
 1630 0002 83B0     		sub	sp, sp, #12
 1631              		.cfi_def_cfa_offset 16
 1632              		.loc 8 128 0
 1633 0004 FFF7FEFF 		bl	chThdGetPriorityX
 1634 0008 0190     		str	r0, [sp, #4]
 1635              		.loc 8 129 0
 1636 000a 019B     		ldr	r3, [sp, #4]
 1637 000c 0133     		adds	r3, r3, #1
 1638 000e 1846     		mov	r0, r3
 1639 0010 FFF7FEFF 		bl	chThdSetPriority
 1640 0014 0090     		str	r0, [sp]
 1641              		.loc 8 130 0
 1642 0016 009A     		ldr	r2, [sp]
 1643 0018 019B     		ldr	r3, [sp, #4]
 1644 001a 9A42     		cmp	r2, r3
 1645 001c 14BF     		ite	ne
 1646 001e 0023     		movne	r3, #0
 1647 0020 0123     		moveq	r3, #1
 1648 0022 DBB2     		uxtb	r3, r3
 1649 0024 0120     		movs	r0, #1
 1650 0026 1946     		mov	r1, r3
 1651 0028 FFF7FEFF 		bl	_test_assert
 1652 002c 0346     		mov	r3, r0
 1653 002e 002B     		cmp	r3, #0
 1654 0030 00D0     		beq	.L24
 1655              		.loc 8 130 0 is_stmt 0 discriminator 1
 1656 0032 D7E0     		b	.L23
 1657              	.L24:
 1658              		.loc 8 132 0 is_stmt 1
ARM GAS  /tmp/ccfeOUca.s 			page 88


 1659 0034 FFF7FEFF 		bl	chThdGetPriorityX
 1660 0038 0246     		mov	r2, r0
 1661 003a 019B     		ldr	r3, [sp, #4]
 1662 003c 0133     		adds	r3, r3, #1
 1663 003e 9A42     		cmp	r2, r3
 1664 0040 14BF     		ite	ne
 1665 0042 0023     		movne	r3, #0
 1666 0044 0123     		moveq	r3, #1
 1667 0046 DBB2     		uxtb	r3, r3
 1668 0048 0220     		movs	r0, #2
 1669 004a 1946     		mov	r1, r3
 1670 004c FFF7FEFF 		bl	_test_assert
 1671 0050 0346     		mov	r3, r0
 1672 0052 002B     		cmp	r3, #0
 1673 0054 00D0     		beq	.L26
 1674              		.loc 8 132 0 is_stmt 0 discriminator 1
 1675 0056 C5E0     		b	.L23
 1676              	.L26:
 1677              		.loc 8 134 0 is_stmt 1
 1678 0058 0098     		ldr	r0, [sp]
 1679 005a FFF7FEFF 		bl	chThdSetPriority
 1680 005e 0090     		str	r0, [sp]
 1681              		.loc 8 135 0
 1682 0060 019B     		ldr	r3, [sp, #4]
 1683 0062 5A1C     		adds	r2, r3, #1
 1684 0064 009B     		ldr	r3, [sp]
 1685 0066 9A42     		cmp	r2, r3
 1686 0068 14BF     		ite	ne
 1687 006a 0023     		movne	r3, #0
 1688 006c 0123     		moveq	r3, #1
 1689 006e DBB2     		uxtb	r3, r3
 1690 0070 0320     		movs	r0, #3
 1691 0072 1946     		mov	r1, r3
 1692 0074 FFF7FEFF 		bl	_test_assert
 1693 0078 0346     		mov	r3, r0
 1694 007a 002B     		cmp	r3, #0
 1695 007c 00D0     		beq	.L27
 1696              		.loc 8 135 0 is_stmt 0 discriminator 1
 1697 007e B1E0     		b	.L23
 1698              	.L27:
 1699              		.loc 8 137 0 is_stmt 1
 1700 0080 FFF7FEFF 		bl	chThdGetPriorityX
 1701 0084 0246     		mov	r2, r0
 1702 0086 019B     		ldr	r3, [sp, #4]
 1703 0088 9A42     		cmp	r2, r3
 1704 008a 14BF     		ite	ne
 1705 008c 0023     		movne	r3, #0
 1706 008e 0123     		moveq	r3, #1
 1707 0090 DBB2     		uxtb	r3, r3
 1708 0092 0420     		movs	r0, #4
 1709 0094 1946     		mov	r1, r3
 1710 0096 FFF7FEFF 		bl	_test_assert
 1711 009a 0346     		mov	r3, r0
 1712 009c 002B     		cmp	r3, #0
 1713 009e 00D0     		beq	.L28
 1714              		.loc 8 137 0 is_stmt 0 discriminator 1
 1715 00a0 A0E0     		b	.L23
ARM GAS  /tmp/ccfeOUca.s 			page 89


 1716              	.L28:
 1717              		.loc 8 142 0 is_stmt 1
 1718 00a2 FFF7FEFF 		bl	chSysLock
 1719              		.loc 8 143 0
 1720 00a6 FFF7FEFF 		bl	chThdGetSelfX
 1721 00aa 0346     		mov	r3, r0
 1722 00ac 9A68     		ldr	r2, [r3, #8]
 1723 00ae 0232     		adds	r2, r2, #2
 1724 00b0 9A60     		str	r2, [r3, #8]
 1725              		.loc 8 144 0
 1726 00b2 FFF7FEFF 		bl	chSysUnlock
 1727              		.loc 8 145 0
 1728 00b6 FFF7FEFF 		bl	chThdGetPriorityX
 1729 00ba 0246     		mov	r2, r0
 1730 00bc 019B     		ldr	r3, [sp, #4]
 1731 00be 0233     		adds	r3, r3, #2
 1732 00c0 9A42     		cmp	r2, r3
 1733 00c2 14BF     		ite	ne
 1734 00c4 0023     		movne	r3, #0
 1735 00c6 0123     		moveq	r3, #1
 1736 00c8 DBB2     		uxtb	r3, r3
 1737 00ca 0520     		movs	r0, #5
 1738 00cc 1946     		mov	r1, r3
 1739 00ce FFF7FEFF 		bl	_test_assert
 1740 00d2 0346     		mov	r3, r0
 1741 00d4 002B     		cmp	r3, #0
 1742 00d6 00D0     		beq	.L29
 1743              		.loc 8 145 0 is_stmt 0 discriminator 1
 1744 00d8 84E0     		b	.L23
 1745              	.L29:
 1746              		.loc 8 149 0 is_stmt 1
 1747 00da 019B     		ldr	r3, [sp, #4]
 1748 00dc 0133     		adds	r3, r3, #1
 1749 00de 1846     		mov	r0, r3
 1750 00e0 FFF7FEFF 		bl	chThdSetPriority
 1751 00e4 0090     		str	r0, [sp]
 1752              		.loc 8 150 0
 1753 00e6 009A     		ldr	r2, [sp]
 1754 00e8 019B     		ldr	r3, [sp, #4]
 1755 00ea 9A42     		cmp	r2, r3
 1756 00ec 14BF     		ite	ne
 1757 00ee 0023     		movne	r3, #0
 1758 00f0 0123     		moveq	r3, #1
 1759 00f2 DBB2     		uxtb	r3, r3
 1760 00f4 0620     		movs	r0, #6
 1761 00f6 1946     		mov	r1, r3
 1762 00f8 FFF7FEFF 		bl	_test_assert
 1763 00fc 0346     		mov	r3, r0
 1764 00fe 002B     		cmp	r3, #0
 1765 0100 00D0     		beq	.L30
 1766              		.loc 8 150 0 is_stmt 0 discriminator 1
 1767 0102 6FE0     		b	.L23
 1768              	.L30:
 1769              		.loc 8 152 0 is_stmt 1
 1770 0104 FFF7FEFF 		bl	chThdGetSelfX
 1771 0108 0346     		mov	r3, r0
 1772 010a 9A68     		ldr	r2, [r3, #8]
ARM GAS  /tmp/ccfeOUca.s 			page 90


 1773 010c 019B     		ldr	r3, [sp, #4]
 1774 010e 0233     		adds	r3, r3, #2
 1775 0110 9A42     		cmp	r2, r3
 1776 0112 14BF     		ite	ne
 1777 0114 0023     		movne	r3, #0
 1778 0116 0123     		moveq	r3, #1
 1779 0118 DBB2     		uxtb	r3, r3
 1780 011a 0720     		movs	r0, #7
 1781 011c 1946     		mov	r1, r3
 1782 011e FFF7FEFF 		bl	_test_assert
 1783 0122 0346     		mov	r3, r0
 1784 0124 002B     		cmp	r3, #0
 1785 0126 00D0     		beq	.L31
 1786              		.loc 8 152 0 is_stmt 0 discriminator 1
 1787 0128 5CE0     		b	.L23
 1788              	.L31:
 1789              		.loc 8 154 0 is_stmt 1
 1790 012a FFF7FEFF 		bl	chThdGetSelfX
 1791 012e 0346     		mov	r3, r0
 1792 0130 1A6C     		ldr	r2, [r3, #64]
 1793 0132 019B     		ldr	r3, [sp, #4]
 1794 0134 0133     		adds	r3, r3, #1
 1795 0136 9A42     		cmp	r2, r3
 1796 0138 14BF     		ite	ne
 1797 013a 0023     		movne	r3, #0
 1798 013c 0123     		moveq	r3, #1
 1799 013e DBB2     		uxtb	r3, r3
 1800 0140 0820     		movs	r0, #8
 1801 0142 1946     		mov	r1, r3
 1802 0144 FFF7FEFF 		bl	_test_assert
 1803 0148 0346     		mov	r3, r0
 1804 014a 002B     		cmp	r3, #0
 1805 014c 00D0     		beq	.L32
 1806              		.loc 8 154 0 is_stmt 0 discriminator 1
 1807 014e 49E0     		b	.L23
 1808              	.L32:
 1809              		.loc 8 158 0 is_stmt 1
 1810 0150 019B     		ldr	r3, [sp, #4]
 1811 0152 0333     		adds	r3, r3, #3
 1812 0154 1846     		mov	r0, r3
 1813 0156 FFF7FEFF 		bl	chThdSetPriority
 1814 015a 0090     		str	r0, [sp]
 1815              		.loc 8 159 0
 1816 015c 019B     		ldr	r3, [sp, #4]
 1817 015e 5A1C     		adds	r2, r3, #1
 1818 0160 009B     		ldr	r3, [sp]
 1819 0162 9A42     		cmp	r2, r3
 1820 0164 14BF     		ite	ne
 1821 0166 0023     		movne	r3, #0
 1822 0168 0123     		moveq	r3, #1
 1823 016a DBB2     		uxtb	r3, r3
 1824 016c 0920     		movs	r0, #9
 1825 016e 1946     		mov	r1, r3
 1826 0170 FFF7FEFF 		bl	_test_assert
 1827 0174 0346     		mov	r3, r0
 1828 0176 002B     		cmp	r3, #0
 1829 0178 00D0     		beq	.L33
ARM GAS  /tmp/ccfeOUca.s 			page 91


 1830              		.loc 8 159 0 is_stmt 0 discriminator 1
 1831 017a 33E0     		b	.L23
 1832              	.L33:
 1833              		.loc 8 161 0 is_stmt 1
 1834 017c FFF7FEFF 		bl	chThdGetSelfX
 1835 0180 0346     		mov	r3, r0
 1836 0182 9A68     		ldr	r2, [r3, #8]
 1837 0184 019B     		ldr	r3, [sp, #4]
 1838 0186 0333     		adds	r3, r3, #3
 1839 0188 9A42     		cmp	r2, r3
 1840 018a 14BF     		ite	ne
 1841 018c 0023     		movne	r3, #0
 1842 018e 0123     		moveq	r3, #1
 1843 0190 DBB2     		uxtb	r3, r3
 1844 0192 0A20     		movs	r0, #10
 1845 0194 1946     		mov	r1, r3
 1846 0196 FFF7FEFF 		bl	_test_assert
 1847 019a 0346     		mov	r3, r0
 1848 019c 002B     		cmp	r3, #0
 1849 019e 00D0     		beq	.L34
 1850              		.loc 8 161 0 is_stmt 0 discriminator 1
 1851 01a0 20E0     		b	.L23
 1852              	.L34:
 1853              		.loc 8 163 0 is_stmt 1
 1854 01a2 FFF7FEFF 		bl	chThdGetSelfX
 1855 01a6 0346     		mov	r3, r0
 1856 01a8 1A6C     		ldr	r2, [r3, #64]
 1857 01aa 019B     		ldr	r3, [sp, #4]
 1858 01ac 0333     		adds	r3, r3, #3
 1859 01ae 9A42     		cmp	r2, r3
 1860 01b0 14BF     		ite	ne
 1861 01b2 0023     		movne	r3, #0
 1862 01b4 0123     		moveq	r3, #1
 1863 01b6 DBB2     		uxtb	r3, r3
 1864 01b8 0B20     		movs	r0, #11
 1865 01ba 1946     		mov	r1, r3
 1866 01bc FFF7FEFF 		bl	_test_assert
 1867 01c0 0346     		mov	r3, r0
 1868 01c2 002B     		cmp	r3, #0
 1869 01c4 00D0     		beq	.L35
 1870              		.loc 8 163 0 is_stmt 0 discriminator 1
 1871 01c6 0DE0     		b	.L23
 1872              	.L35:
 1873              		.loc 8 166 0 is_stmt 1
 1874 01c8 FFF7FEFF 		bl	chSysLock
 1875              		.loc 8 167 0
 1876 01cc FFF7FEFF 		bl	chThdGetSelfX
 1877 01d0 0346     		mov	r3, r0
 1878 01d2 019A     		ldr	r2, [sp, #4]
 1879 01d4 9A60     		str	r2, [r3, #8]
 1880              		.loc 8 168 0
 1881 01d6 FFF7FEFF 		bl	chThdGetSelfX
 1882 01da 0346     		mov	r3, r0
 1883 01dc 019A     		ldr	r2, [sp, #4]
 1884 01de 1A64     		str	r2, [r3, #64]
 1885              		.loc 8 169 0
 1886 01e0 FFF7FEFF 		bl	chSysUnlock
ARM GAS  /tmp/ccfeOUca.s 			page 92


 1887              	.L23:
 1888              		.loc 8 171 0
 1889 01e4 03B0     		add	sp, sp, #12
 1890              		@ sp needed
 1891 01e6 5DF804FB 		ldr	pc, [sp], #4
 1892              		.cfi_endproc
 1893              	.LFE244:
 1894              		.size	thd3_execute, .-thd3_execute
 1895              		.global	testthd3
 1896 01ea 00BFAFF3 		.section	.rodata
 1896      0080
 1897 0053 00       		.align	2
 1898              	.LC8:
 1899 0054 54687265 		.ascii	"Threads, priority change\000"
 1899      6164732C 
 1899      20707269 
 1899      6F726974 
 1899      79206368 
 1900              		.section	.rodata.testthd3,"a",%progbits
 1901              		.align	2
 1902              		.type	testthd3, %object
 1903              		.size	testthd3, 16
 1904              	testthd3:
 1905 0000 54000000 		.word	.LC8
 1906 0004 00000000 		.word	0
 1907 0008 00000000 		.word	0
 1908 000c 00000000 		.word	thd3_execute
 1909              		.section	.text.thd4_execute,"ax",%progbits
 1910              		.align	2
 1911              		.p2align 4,,15
 1912              		.thumb
 1913              		.thumb_func
 1914              		.type	thd4_execute, %function
 1915              	thd4_execute:
 1916              	.LFB245:
 1917              		.loc 8 188 0
 1918              		.cfi_startproc
 1919              		@ args = 0, pretend = 0, frame = 8
 1920              		@ frame_needed = 0, uses_anonymous_args = 0
 1921 0000 00B5     		push	{lr}
 1922              		.cfi_def_cfa_offset 4
 1923              		.cfi_offset 14, -4
 1924 0002 83B0     		sub	sp, sp, #12
 1925              		.cfi_def_cfa_offset 16
 1926              		.loc 8 191 0
 1927 0004 FFF7FEFF 		bl	test_wait_tick
 1928              		.loc 8 194 0
 1929 0008 FFF7FEFF 		bl	chVTGetSystemTime
 1930 000c 0190     		str	r0, [sp, #4]
 1931              		.loc 8 195 0
 1932 000e 4FF47A70 		mov	r0, #1000
 1933 0012 FFF7FEFF 		bl	chThdSleep
 1934              		.loc 8 196 0
 1935 0016 019B     		ldr	r3, [sp, #4]
 1936 0018 03F57A72 		add	r2, r3, #1000
 1937 001c 019B     		ldr	r3, [sp, #4]
 1938 001e 03F2EB33 		addw	r3, r3, #1003
ARM GAS  /tmp/ccfeOUca.s 			page 93


 1939 0022 0120     		movs	r0, #1
 1940 0024 1146     		mov	r1, r2
 1941 0026 1A46     		mov	r2, r3
 1942 0028 FFF7FEFF 		bl	_test_assert_time_window
 1943 002c 0346     		mov	r3, r0
 1944 002e 002B     		cmp	r3, #0
 1945 0030 00D0     		beq	.L37
 1946              		.loc 8 196 0 is_stmt 0 discriminator 1
 1947 0032 41E0     		b	.L36
 1948              	.L37:
 1949              		.loc 8 201 0 is_stmt 1
 1950 0034 FFF7FEFF 		bl	chVTGetSystemTime
 1951 0038 0190     		str	r0, [sp, #4]
 1952              		.loc 8 202 0
 1953 003a 4FF47A70 		mov	r0, #1000
 1954 003e FFF7FEFF 		bl	chThdSleep
 1955              		.loc 8 203 0
 1956 0042 019B     		ldr	r3, [sp, #4]
 1957 0044 03F57A72 		add	r2, r3, #1000
 1958 0048 019B     		ldr	r3, [sp, #4]
 1959 004a 03F2EB33 		addw	r3, r3, #1003
 1960 004e 0220     		movs	r0, #2
 1961 0050 1146     		mov	r1, r2
 1962 0052 1A46     		mov	r2, r3
 1963 0054 FFF7FEFF 		bl	_test_assert_time_window
 1964 0058 0346     		mov	r3, r0
 1965 005a 002B     		cmp	r3, #0
 1966 005c 00D0     		beq	.L39
 1967              		.loc 8 203 0 is_stmt 0 discriminator 1
 1968 005e 2BE0     		b	.L36
 1969              	.L39:
 1970              		.loc 8 208 0 is_stmt 1
 1971 0060 FFF7FEFF 		bl	chVTGetSystemTime
 1972 0064 0190     		str	r0, [sp, #4]
 1973              		.loc 8 209 0
 1974 0066 42F21070 		movw	r0, #10000
 1975 006a FFF7FEFF 		bl	chThdSleep
 1976              		.loc 8 210 0
 1977 006e 019B     		ldr	r3, [sp, #4]
 1978 0070 03F51C52 		add	r2, r3, #9984
 1979 0074 1032     		adds	r2, r2, #16
 1980 0076 019B     		ldr	r3, [sp, #4]
 1981 0078 03F51C53 		add	r3, r3, #9984
 1982 007c 1333     		adds	r3, r3, #19
 1983 007e 0320     		movs	r0, #3
 1984 0080 1146     		mov	r1, r2
 1985 0082 1A46     		mov	r2, r3
 1986 0084 FFF7FEFF 		bl	_test_assert_time_window
 1987 0088 0346     		mov	r3, r0
 1988 008a 002B     		cmp	r3, #0
 1989 008c 00D0     		beq	.L40
 1990              		.loc 8 210 0 is_stmt 0 discriminator 1
 1991 008e 13E0     		b	.L36
 1992              	.L40:
 1993              		.loc 8 215 0 is_stmt 1
 1994 0090 FFF7FEFF 		bl	chVTGetSystemTime
 1995 0094 0346     		mov	r3, r0
ARM GAS  /tmp/ccfeOUca.s 			page 94


 1996 0096 03F57A73 		add	r3, r3, #1000
 1997 009a 0193     		str	r3, [sp, #4]
 1998              		.loc 8 216 0
 1999 009c 0198     		ldr	r0, [sp, #4]
 2000 009e FFF7FEFF 		bl	chThdSleepUntil
 2001              		.loc 8 217 0
 2002 00a2 019B     		ldr	r3, [sp, #4]
 2003 00a4 0333     		adds	r3, r3, #3
 2004 00a6 0420     		movs	r0, #4
 2005 00a8 0199     		ldr	r1, [sp, #4]
 2006 00aa 1A46     		mov	r2, r3
 2007 00ac FFF7FEFF 		bl	_test_assert_time_window
 2008 00b0 0346     		mov	r3, r0
 2009 00b2 002B     		cmp	r3, #0
 2010 00b4 00D0     		beq	.L36
 2011              		.loc 8 217 0 is_stmt 0 discriminator 1
 2012 00b6 00BF     		nop
 2013              	.L36:
 2014              		.loc 8 220 0 is_stmt 1
 2015 00b8 03B0     		add	sp, sp, #12
 2016              		@ sp needed
 2017 00ba 5DF804FB 		ldr	pc, [sp], #4
 2018              		.cfi_endproc
 2019              	.LFE245:
 2020              		.size	thd4_execute, .-thd4_execute
 2021              		.global	testthd4
 2022 00be 00BF     		.section	.rodata
 2023 006d 000000   		.align	2
 2024              	.LC9:
 2025 0070 54687265 		.ascii	"Threads, delays\000"
 2025      6164732C 
 2025      2064656C 
 2025      61797300 
 2026              		.section	.rodata.testthd4,"a",%progbits
 2027              		.align	2
 2028              		.type	testthd4, %object
 2029              		.size	testthd4, 16
 2030              	testthd4:
 2031 0000 70000000 		.word	.LC9
 2032 0004 00000000 		.word	0
 2033 0008 00000000 		.word	0
 2034 000c 00000000 		.word	thd4_execute
 2035              		.global	patternthd
 2036              		.section	.rodata.patternthd,"a",%progbits
 2037              		.align	2
 2038              		.type	patternthd, %object
 2039              		.size	patternthd, 20
 2040              	patternthd:
 2041 0000 00000000 		.word	testthd1
 2042 0004 00000000 		.word	testthd2
 2043 0008 00000000 		.word	testthd3
 2044 000c 00000000 		.word	testthd4
 2045 0010 00000000 		.word	0
 2046              		.section	.rodata.__func__.5915,"a",%progbits
 2047              		.align	2
 2048              		.type	__func__.5915, %object
 2049              		.size	__func__.5915, 12
ARM GAS  /tmp/ccfeOUca.s 			page 95


 2050              	__func__.5915:
 2051 0000 63685379 		.ascii	"chSysUnlock\000"
 2051      73556E6C 
 2051      6F636B00 
 2052              		.text
 2053              	.Letext0:
 2054              		.file 9 "/usr/lib/gcc/arm-none-eabi/4.8.2/include/stddef.h"
 2055              		.file 10 "/usr/include/newlib/machine/_default_types.h"
 2056              		.file 11 "/usr/include/newlib/stdint.h"
 2057              		.file 12 "lib/ChibiOS_16.1.4//os/rt/ports/ARMCMx/compilers/GCC/chtypes.h"
 2058              		.file 13 "lib/ChibiOS_16.1.4//os/rt/include/chsystypes.h"
 2059              		.file 14 "lib/ChibiOS_16.1.4//os/rt/include/chschd.h"
 2060              		.file 15 "lib/ChibiOS_16.1.4//os/rt/ports/ARMCMx/chcore.h"
 2061              		.file 16 "lib/ChibiOS_16.1.4//os/hal/ports/STM32/LLD/TIMv1/stm32_tim.h"
 2062              		.file 17 "lib/ChibiOS_16.1.4//os/rt/include/chdebug.h"
 2063              		.file 18 "lib/ChibiOS_16.1.4//os/rt/include/chtm.h"
 2064              		.file 19 "lib/ChibiOS_16.1.4//os/rt/include/chstats.h"
 2065              		.file 20 "lib/ChibiOS_16.1.4//os/rt/include/chsem.h"
 2066              		.file 21 "lib/ChibiOS_16.1.4//os/rt/include/chmtx.h"
 2067              		.file 22 "lib/ChibiOS_16.1.4//test/rt/test.h"
 2068              		.file 23 "lib/ChibiOS_16.1.4//os/ext/CMSIS/include/core_cm4.h"
 2069              		.section	.debug_info,"",%progbits
 2070              	.Ldebug_info0:
 2071 0000 F30B0000 		.4byte	0xbf3
 2072 0004 0400     		.2byte	0x4
 2073 0006 00000000 		.4byte	.Ldebug_abbrev0
 2074 000a 04       		.byte	0x4
 2075 000b 01       		.uleb128 0x1
 2076 000c F5020000 		.4byte	.LASF168
 2077 0010 01       		.byte	0x1
 2078 0011 29050000 		.4byte	.LASF169
 2079 0015 32010000 		.4byte	.LASF170
 2080 0019 00000000 		.4byte	.Ldebug_ranges0+0
 2081 001d 00000000 		.4byte	0
 2082 0021 00000000 		.4byte	.Ldebug_line0
 2083 0025 02       		.uleb128 0x2
 2084 0026 04       		.byte	0x4
 2085 0027 05       		.byte	0x5
 2086 0028 696E7400 		.ascii	"int\000"
 2087 002c 03       		.uleb128 0x3
 2088 002d 19000000 		.4byte	.LASF2
 2089 0031 09       		.byte	0x9
 2090 0032 D4       		.byte	0xd4
 2091 0033 37000000 		.4byte	0x37
 2092 0037 04       		.uleb128 0x4
 2093 0038 04       		.byte	0x4
 2094 0039 07       		.byte	0x7
 2095 003a 6B020000 		.4byte	.LASF0
 2096 003e 04       		.uleb128 0x4
 2097 003f 01       		.byte	0x1
 2098 0040 06       		.byte	0x6
 2099 0041 26010000 		.4byte	.LASF1
 2100 0045 03       		.uleb128 0x3
 2101 0046 3D000000 		.4byte	.LASF3
 2102 004a 0A       		.byte	0xa
 2103 004b 1C       		.byte	0x1c
 2104 004c 50000000 		.4byte	0x50
ARM GAS  /tmp/ccfeOUca.s 			page 96


 2105 0050 04       		.uleb128 0x4
 2106 0051 01       		.byte	0x1
 2107 0052 08       		.byte	0x8
 2108 0053 1B050000 		.4byte	.LASF4
 2109 0057 04       		.uleb128 0x4
 2110 0058 02       		.byte	0x2
 2111 0059 05       		.byte	0x5
 2112 005a 61050000 		.4byte	.LASF5
 2113 005e 04       		.uleb128 0x4
 2114 005f 02       		.byte	0x2
 2115 0060 07       		.byte	0x7
 2116 0061 C8010000 		.4byte	.LASF6
 2117 0065 03       		.uleb128 0x3
 2118 0066 D1030000 		.4byte	.LASF7
 2119 006a 0A       		.byte	0xa
 2120 006b 37       		.byte	0x37
 2121 006c 70000000 		.4byte	0x70
 2122 0070 04       		.uleb128 0x4
 2123 0071 04       		.byte	0x4
 2124 0072 05       		.byte	0x5
 2125 0073 84010000 		.4byte	.LASF8
 2126 0077 03       		.uleb128 0x3
 2127 0078 96060000 		.4byte	.LASF9
 2128 007c 0A       		.byte	0xa
 2129 007d 38       		.byte	0x38
 2130 007e 82000000 		.4byte	0x82
 2131 0082 04       		.uleb128 0x4
 2132 0083 04       		.byte	0x4
 2133 0084 07       		.byte	0x7
 2134 0085 25060000 		.4byte	.LASF10
 2135 0089 04       		.uleb128 0x4
 2136 008a 08       		.byte	0x8
 2137 008b 05       		.byte	0x5
 2138 008c A1010000 		.4byte	.LASF11
 2139 0090 03       		.uleb128 0x3
 2140 0091 A1040000 		.4byte	.LASF12
 2141 0095 0A       		.byte	0xa
 2142 0096 4E       		.byte	0x4e
 2143 0097 9B000000 		.4byte	0x9b
 2144 009b 04       		.uleb128 0x4
 2145 009c 08       		.byte	0x8
 2146 009d 07       		.byte	0x7
 2147 009e 96000000 		.4byte	.LASF13
 2148 00a2 03       		.uleb128 0x3
 2149 00a3 27070000 		.4byte	.LASF14
 2150 00a7 0B       		.byte	0xb
 2151 00a8 2A       		.byte	0x2a
 2152 00a9 45000000 		.4byte	0x45
 2153 00ad 03       		.uleb128 0x3
 2154 00ae 13050000 		.4byte	.LASF15
 2155 00b2 0B       		.byte	0xb
 2156 00b3 41       		.byte	0x41
 2157 00b4 65000000 		.4byte	0x65
 2158 00b8 03       		.uleb128 0x3
 2159 00b9 F4050000 		.4byte	.LASF16
 2160 00bd 0B       		.byte	0xb
 2161 00be 42       		.byte	0x42
ARM GAS  /tmp/ccfeOUca.s 			page 97


 2162 00bf 77000000 		.4byte	0x77
 2163 00c3 03       		.uleb128 0x3
 2164 00c4 27000000 		.4byte	.LASF17
 2165 00c8 0B       		.byte	0xb
 2166 00c9 4E       		.byte	0x4e
 2167 00ca 90000000 		.4byte	0x90
 2168 00ce 03       		.uleb128 0x3
 2169 00cf DC060000 		.4byte	.LASF18
 2170 00d3 0C       		.byte	0xc
 2171 00d4 39       		.byte	0x39
 2172 00d5 B8000000 		.4byte	0xb8
 2173 00d9 03       		.uleb128 0x3
 2174 00da 04010000 		.4byte	.LASF19
 2175 00de 0C       		.byte	0xc
 2176 00df 3A       		.byte	0x3a
 2177 00e0 C3000000 		.4byte	0xc3
 2178 00e4 03       		.uleb128 0x3
 2179 00e5 5F070000 		.4byte	.LASF20
 2180 00e9 0C       		.byte	0xc
 2181 00ea 3C       		.byte	0x3c
 2182 00eb A2000000 		.4byte	0xa2
 2183 00ef 03       		.uleb128 0x3
 2184 00f0 8D010000 		.4byte	.LASF21
 2185 00f4 0C       		.byte	0xc
 2186 00f5 3D       		.byte	0x3d
 2187 00f6 A2000000 		.4byte	0xa2
 2188 00fa 03       		.uleb128 0x3
 2189 00fb C5040000 		.4byte	.LASF22
 2190 00ff 0C       		.byte	0xc
 2191 0100 3E       		.byte	0x3e
 2192 0101 A2000000 		.4byte	0xa2
 2193 0105 03       		.uleb128 0x3
 2194 0106 FB040000 		.4byte	.LASF23
 2195 010a 0C       		.byte	0xc
 2196 010b 40       		.byte	0x40
 2197 010c B8000000 		.4byte	0xb8
 2198 0110 03       		.uleb128 0x3
 2199 0111 D7020000 		.4byte	.LASF24
 2200 0115 0C       		.byte	0xc
 2201 0116 41       		.byte	0x41
 2202 0117 AD000000 		.4byte	0xad
 2203 011b 03       		.uleb128 0x3
 2204 011c C5030000 		.4byte	.LASF25
 2205 0120 0C       		.byte	0xc
 2206 0121 43       		.byte	0x43
 2207 0122 B8000000 		.4byte	0xb8
 2208 0126 03       		.uleb128 0x3
 2209 0127 47020000 		.4byte	.LASF26
 2210 012b 0C       		.byte	0xc
 2211 012c 45       		.byte	0x45
 2212 012d AD000000 		.4byte	0xad
 2213 0131 03       		.uleb128 0x3
 2214 0132 E2020000 		.4byte	.LASF27
 2215 0136 0C       		.byte	0xc
 2216 0137 46       		.byte	0x46
 2217 0138 B8000000 		.4byte	0xb8
 2218 013c 03       		.uleb128 0x3
ARM GAS  /tmp/ccfeOUca.s 			page 98


 2219 013d 78060000 		.4byte	.LASF28
 2220 0141 0D       		.byte	0xd
 2221 0142 33       		.byte	0x33
 2222 0143 B8000000 		.4byte	0xb8
 2223 0147 03       		.uleb128 0x3
 2224 0148 63060000 		.4byte	.LASF29
 2225 014c 0D       		.byte	0xd
 2226 014d 3F       		.byte	0x3f
 2227 014e 52010000 		.4byte	0x152
 2228 0152 05       		.uleb128 0x5
 2229 0153 CD020000 		.4byte	.LASF51
 2230 0157 60       		.byte	0x60
 2231 0158 0E       		.byte	0xe
 2232 0159 C2       		.byte	0xc2
 2233 015a 58020000 		.4byte	0x258
 2234 015e 06       		.uleb128 0x6
 2235 015f 89050000 		.4byte	.LASF30
 2236 0163 0E       		.byte	0xe
 2237 0164 C3       		.byte	0xc3
 2238 0165 63020000 		.4byte	0x263
 2239 0169 00       		.byte	0
 2240 016a 06       		.uleb128 0x6
 2241 016b F4040000 		.4byte	.LASF31
 2242 016f 0E       		.byte	0xe
 2243 0170 C5       		.byte	0xc5
 2244 0171 63020000 		.4byte	0x263
 2245 0175 04       		.byte	0x4
 2246 0176 06       		.uleb128 0x6
 2247 0177 0D010000 		.4byte	.LASF32
 2248 017b 0E       		.byte	0xe
 2249 017c C7       		.byte	0xc7
 2250 017d 05010000 		.4byte	0x105
 2251 0181 08       		.byte	0x8
 2252 0182 06       		.uleb128 0x6
 2253 0183 A3070000 		.4byte	.LASF33
 2254 0187 0E       		.byte	0xe
 2255 0188 C8       		.byte	0xc8
 2256 0189 F1040000 		.4byte	0x4f1
 2257 018d 0C       		.byte	0xc
 2258 018e 06       		.uleb128 0x6
 2259 018f B8010000 		.4byte	.LASF34
 2260 0193 0E       		.byte	0xe
 2261 0194 CA       		.byte	0xca
 2262 0195 63020000 		.4byte	0x263
 2263 0199 10       		.byte	0x10
 2264 019a 06       		.uleb128 0x6
 2265 019b 57040000 		.4byte	.LASF35
 2266 019f 0E       		.byte	0xe
 2267 01a0 CB       		.byte	0xcb
 2268 01a1 63020000 		.4byte	0x263
 2269 01a5 14       		.byte	0x14
 2270 01a6 06       		.uleb128 0x6
 2271 01a7 49070000 		.4byte	.LASF36
 2272 01ab 0E       		.byte	0xe
 2273 01ac D2       		.byte	0xd2
 2274 01ad B7080000 		.4byte	0x8b7
 2275 01b1 18       		.byte	0x18
ARM GAS  /tmp/ccfeOUca.s 			page 99


 2276 01b2 06       		.uleb128 0x6
 2277 01b3 60020000 		.4byte	.LASF37
 2278 01b7 0E       		.byte	0xe
 2279 01b8 D8       		.byte	0xd8
 2280 01b9 C9080000 		.4byte	0x8c9
 2281 01bd 1C       		.byte	0x1c
 2282 01be 06       		.uleb128 0x6
 2283 01bf 6B050000 		.4byte	.LASF38
 2284 01c3 0E       		.byte	0xe
 2285 01c4 DD       		.byte	0xdd
 2286 01c5 EF000000 		.4byte	0xef
 2287 01c9 20       		.byte	0x20
 2288 01ca 06       		.uleb128 0x6
 2289 01cb 90050000 		.4byte	.LASF39
 2290 01cf 0E       		.byte	0xe
 2291 01d0 E1       		.byte	0xe1
 2292 01d1 E4000000 		.4byte	0xe4
 2293 01d5 21       		.byte	0x21
 2294 01d6 06       		.uleb128 0x6
 2295 01d7 04070000 		.4byte	.LASF40
 2296 01db 0E       		.byte	0xe
 2297 01dc E6       		.byte	0xe6
 2298 01dd FA000000 		.4byte	0xfa
 2299 01e1 22       		.byte	0x22
 2300 01e2 07       		.uleb128 0x7
 2301 01e3 705F7500 		.ascii	"p_u\000"
 2302 01e7 0E       		.byte	0xe
 2303 01e8 3101     		.2byte	0x131
 2304 01ea F2070000 		.4byte	0x7f2
 2305 01ee 24       		.byte	0x24
 2306 01ef 08       		.uleb128 0x8
 2307 01f0 F7030000 		.4byte	.LASF41
 2308 01f4 0E       		.byte	0xe
 2309 01f5 3601     		.2byte	0x136
 2310 01f7 69020000 		.4byte	0x269
 2311 01fb 28       		.byte	0x28
 2312 01fc 08       		.uleb128 0x8
 2313 01fd 94020000 		.4byte	.LASF42
 2314 0201 0E       		.byte	0xe
 2315 0202 3C01     		.2byte	0x13c
 2316 0204 8D020000 		.4byte	0x28d
 2317 0208 2C       		.byte	0x2c
 2318 0209 08       		.uleb128 0x8
 2319 020a 80070000 		.4byte	.LASF43
 2320 020e 0E       		.byte	0xe
 2321 020f 4001     		.2byte	0x140
 2322 0211 10010000 		.4byte	0x110
 2323 0215 34       		.byte	0x34
 2324 0216 08       		.uleb128 0x8
 2325 0217 D6050000 		.4byte	.LASF44
 2326 021b 0E       		.byte	0xe
 2327 021c 4601     		.2byte	0x146
 2328 021e 1B010000 		.4byte	0x11b
 2329 0222 38       		.byte	0x38
 2330 0223 08       		.uleb128 0x8
 2331 0224 57050000 		.4byte	.LASF45
 2332 0228 0E       		.byte	0xe
ARM GAS  /tmp/ccfeOUca.s 			page 100


 2333 0229 4D01     		.2byte	0x14d
 2334 022b B1080000 		.4byte	0x8b1
 2335 022f 3C       		.byte	0x3c
 2336 0230 08       		.uleb128 0x8
 2337 0231 82060000 		.4byte	.LASF46
 2338 0235 0E       		.byte	0xe
 2339 0236 5101     		.2byte	0x151
 2340 0238 05010000 		.4byte	0x105
 2341 023c 40       		.byte	0x40
 2342 023d 08       		.uleb128 0x8
 2343 023e EB010000 		.4byte	.LASF47
 2344 0242 0E       		.byte	0xe
 2345 0243 5801     		.2byte	0x158
 2346 0245 40030000 		.4byte	0x340
 2347 0249 44       		.byte	0x44
 2348 024a 08       		.uleb128 0x8
 2349 024b 98050000 		.4byte	.LASF48
 2350 024f 0E       		.byte	0xe
 2351 0250 5E01     		.2byte	0x15e
 2352 0252 A3070000 		.4byte	0x7a3
 2353 0256 48       		.byte	0x48
 2354 0257 00       		.byte	0
 2355 0258 03       		.uleb128 0x3
 2356 0259 2F070000 		.4byte	.LASF49
 2357 025d 0D       		.byte	0xd
 2358 025e 44       		.byte	0x44
 2359 025f 63020000 		.4byte	0x263
 2360 0263 09       		.uleb128 0x9
 2361 0264 04       		.byte	0x4
 2362 0265 47010000 		.4byte	0x147
 2363 0269 03       		.uleb128 0x3
 2364 026a 50070000 		.4byte	.LASF50
 2365 026e 0D       		.byte	0xd
 2366 026f 49       		.byte	0x49
 2367 0270 74020000 		.4byte	0x274
 2368 0274 05       		.uleb128 0x5
 2369 0275 15060000 		.4byte	.LASF52
 2370 0279 04       		.byte	0x4
 2371 027a 0E       		.byte	0xe
 2372 027b B0       		.byte	0xb0
 2373 027c 8D020000 		.4byte	0x28d
 2374 0280 06       		.uleb128 0x6
 2375 0281 89050000 		.4byte	.LASF30
 2376 0285 0E       		.byte	0xe
 2377 0286 B1       		.byte	0xb1
 2378 0287 63020000 		.4byte	0x263
 2379 028b 00       		.byte	0
 2380 028c 00       		.byte	0
 2381 028d 03       		.uleb128 0x3
 2382 028e EB060000 		.4byte	.LASF53
 2383 0292 0D       		.byte	0xd
 2384 0293 50       		.byte	0x50
 2385 0294 98020000 		.4byte	0x298
 2386 0298 05       		.uleb128 0x5
 2387 0299 53000000 		.4byte	.LASF54
 2388 029d 08       		.byte	0x8
 2389 029e 0E       		.byte	0xe
ARM GAS  /tmp/ccfeOUca.s 			page 101


 2390 029f B7       		.byte	0xb7
 2391 02a0 BD020000 		.4byte	0x2bd
 2392 02a4 06       		.uleb128 0x6
 2393 02a5 89050000 		.4byte	.LASF30
 2394 02a9 0E       		.byte	0xe
 2395 02aa B8       		.byte	0xb8
 2396 02ab 63020000 		.4byte	0x263
 2397 02af 00       		.byte	0
 2398 02b0 06       		.uleb128 0x6
 2399 02b1 F4040000 		.4byte	.LASF31
 2400 02b5 0E       		.byte	0xe
 2401 02b6 B9       		.byte	0xb9
 2402 02b7 63020000 		.4byte	0x263
 2403 02bb 04       		.byte	0x4
 2404 02bc 00       		.byte	0
 2405 02bd 03       		.uleb128 0x3
 2406 02be 07000000 		.4byte	.LASF55
 2407 02c2 0D       		.byte	0xd
 2408 02c3 57       		.byte	0x57
 2409 02c4 C8020000 		.4byte	0x2c8
 2410 02c8 0A       		.uleb128 0xa
 2411 02c9 B7030000 		.4byte	.LASF56
 2412 02cd 1C       		.byte	0x1c
 2413 02ce 0E       		.byte	0xe
 2414 02cf 9001     		.2byte	0x190
 2415 02d1 24030000 		.4byte	0x324
 2416 02d5 08       		.uleb128 0x8
 2417 02d6 04060000 		.4byte	.LASF57
 2418 02da 0E       		.byte	0xe
 2419 02db 9101     		.2byte	0x191
 2420 02dd 8D020000 		.4byte	0x28d
 2421 02e1 00       		.byte	0
 2422 02e2 08       		.uleb128 0x8
 2423 02e3 7B050000 		.4byte	.LASF58
 2424 02e7 0E       		.byte	0xe
 2425 02e8 9201     		.2byte	0x192
 2426 02ea 05010000 		.4byte	0x105
 2427 02ee 08       		.byte	0x8
 2428 02ef 08       		.uleb128 0x8
 2429 02f0 5F040000 		.4byte	.LASF59
 2430 02f4 0E       		.byte	0xe
 2431 02f5 9401     		.2byte	0x194
 2432 02f7 F1040000 		.4byte	0x4f1
 2433 02fb 0C       		.byte	0xc
 2434 02fc 08       		.uleb128 0x8
 2435 02fd E3010000 		.4byte	.LASF60
 2436 0301 0E       		.byte	0xe
 2437 0302 9701     		.2byte	0x197
 2438 0304 63020000 		.4byte	0x263
 2439 0308 10       		.byte	0x10
 2440 0309 08       		.uleb128 0x8
 2441 030a 99040000 		.4byte	.LASF61
 2442 030e 0E       		.byte	0xe
 2443 030f 9801     		.2byte	0x198
 2444 0311 63020000 		.4byte	0x263
 2445 0315 14       		.byte	0x14
 2446 0316 08       		.uleb128 0x8
ARM GAS  /tmp/ccfeOUca.s 			page 102


 2447 0317 37060000 		.4byte	.LASF62
 2448 031b 0E       		.byte	0xe
 2449 031c 9B01     		.2byte	0x19b
 2450 031e 63020000 		.4byte	0x263
 2451 0322 18       		.byte	0x18
 2452 0323 00       		.byte	0
 2453 0324 03       		.uleb128 0x3
 2454 0325 8D060000 		.4byte	.LASF63
 2455 0329 0D       		.byte	0xd
 2456 032a 5C       		.byte	0x5c
 2457 032b 2F030000 		.4byte	0x32f
 2458 032f 09       		.uleb128 0x9
 2459 0330 04       		.byte	0x4
 2460 0331 35030000 		.4byte	0x335
 2461 0335 0B       		.uleb128 0xb
 2462 0336 40030000 		.4byte	0x340
 2463 033a 0C       		.uleb128 0xc
 2464 033b 40030000 		.4byte	0x340
 2465 033f 00       		.byte	0
 2466 0340 0D       		.uleb128 0xd
 2467 0341 04       		.byte	0x4
 2468 0342 03       		.uleb128 0x3
 2469 0343 E4040000 		.4byte	.LASF64
 2470 0347 0D       		.byte	0xd
 2471 0348 61       		.byte	0x61
 2472 0349 4D030000 		.4byte	0x34d
 2473 034d 0A       		.uleb128 0xa
 2474 034e AA050000 		.4byte	.LASF65
 2475 0352 14       		.byte	0x14
 2476 0353 0E       		.byte	0xe
 2477 0354 6B01     		.2byte	0x16b
 2478 0356 9C030000 		.4byte	0x39c
 2479 035a 08       		.uleb128 0x8
 2480 035b 85020000 		.4byte	.LASF66
 2481 035f 0E       		.byte	0xe
 2482 0360 6C01     		.2byte	0x16c
 2483 0362 CF080000 		.4byte	0x8cf
 2484 0366 00       		.byte	0
 2485 0367 08       		.uleb128 0x8
 2486 0368 FC010000 		.4byte	.LASF67
 2487 036c 0E       		.byte	0xe
 2488 036d 6D01     		.2byte	0x16d
 2489 036f CF080000 		.4byte	0x8cf
 2490 0373 04       		.byte	0x4
 2491 0374 08       		.uleb128 0x8
 2492 0375 0C060000 		.4byte	.LASF68
 2493 0379 0E       		.byte	0xe
 2494 037a 6E01     		.2byte	0x16e
 2495 037c 3C010000 		.4byte	0x13c
 2496 0380 08       		.byte	0x8
 2497 0381 08       		.uleb128 0x8
 2498 0382 A9070000 		.4byte	.LASF69
 2499 0386 0E       		.byte	0xe
 2500 0387 6F01     		.2byte	0x16f
 2501 0389 24030000 		.4byte	0x324
 2502 038d 0C       		.byte	0xc
 2503 038e 08       		.uleb128 0x8
ARM GAS  /tmp/ccfeOUca.s 			page 103


 2504 038f E4060000 		.4byte	.LASF70
 2505 0393 0E       		.byte	0xe
 2506 0394 7101     		.2byte	0x171
 2507 0396 40030000 		.4byte	0x340
 2508 039a 10       		.byte	0x10
 2509 039b 00       		.byte	0
 2510 039c 03       		.uleb128 0x3
 2511 039d DC000000 		.4byte	.LASF71
 2512 03a1 0D       		.byte	0xd
 2513 03a2 66       		.byte	0x66
 2514 03a3 A7030000 		.4byte	0x3a7
 2515 03a7 0A       		.uleb128 0xa
 2516 03a8 1C040000 		.4byte	.LASF72
 2517 03ac 10       		.byte	0x10
 2518 03ad 0E       		.byte	0xe
 2519 03ae 7B01     		.2byte	0x17b
 2520 03b0 E9030000 		.4byte	0x3e9
 2521 03b4 08       		.uleb128 0x8
 2522 03b5 85020000 		.4byte	.LASF66
 2523 03b9 0E       		.byte	0xe
 2524 03ba 7C01     		.2byte	0x17c
 2525 03bc CF080000 		.4byte	0x8cf
 2526 03c0 00       		.byte	0
 2527 03c1 08       		.uleb128 0x8
 2528 03c2 FC010000 		.4byte	.LASF67
 2529 03c6 0E       		.byte	0xe
 2530 03c7 7E01     		.2byte	0x17e
 2531 03c9 CF080000 		.4byte	0x8cf
 2532 03cd 04       		.byte	0x4
 2533 03ce 08       		.uleb128 0x8
 2534 03cf 0C060000 		.4byte	.LASF68
 2535 03d3 0E       		.byte	0xe
 2536 03d4 8001     		.2byte	0x180
 2537 03d6 3C010000 		.4byte	0x13c
 2538 03da 08       		.byte	0x8
 2539 03db 08       		.uleb128 0x8
 2540 03dc 4B040000 		.4byte	.LASF73
 2541 03e0 0E       		.byte	0xe
 2542 03e1 8801     		.2byte	0x188
 2543 03e3 3C010000 		.4byte	0x13c
 2544 03e7 0C       		.byte	0xc
 2545 03e8 00       		.byte	0
 2546 03e9 03       		.uleb128 0x3
 2547 03ea 64000000 		.4byte	.LASF74
 2548 03ee 0D       		.byte	0xd
 2549 03ef 6B       		.byte	0x6b
 2550 03f0 F4030000 		.4byte	0x3f4
 2551 03f4 0E       		.uleb128 0xe
 2552 03f5 11020000 		.4byte	.LASF75
 2553 03f9 1404     		.2byte	0x414
 2554 03fb 0E       		.byte	0xe
 2555 03fc A201     		.2byte	0x1a2
 2556 03fe 37040000 		.4byte	0x437
 2557 0402 08       		.uleb128 0x8
 2558 0403 AF060000 		.4byte	.LASF76
 2559 0407 0E       		.byte	0xe
 2560 0408 AA01     		.2byte	0x1aa
ARM GAS  /tmp/ccfeOUca.s 			page 104


 2561 040a D5080000 		.4byte	0x8d5
 2562 040e 00       		.byte	0
 2563 040f 08       		.uleb128 0x8
 2564 0410 0B070000 		.4byte	.LASF77
 2565 0414 0E       		.byte	0xe
 2566 0415 AF01     		.2byte	0x1af
 2567 0417 26010000 		.4byte	0x126
 2568 041b 04       		.byte	0x4
 2569 041c 08       		.uleb128 0x8
 2570 041d 2F020000 		.4byte	.LASF78
 2571 0421 0E       		.byte	0xe
 2572 0422 B301     		.2byte	0x1b3
 2573 0424 26010000 		.4byte	0x126
 2574 0428 08       		.byte	0x8
 2575 0429 08       		.uleb128 0x8
 2576 042a 67070000 		.4byte	.LASF79
 2577 042e 0E       		.byte	0xe
 2578 042f B901     		.2byte	0x1b9
 2579 0431 35070000 		.4byte	0x735
 2580 0435 0C       		.byte	0xc
 2581 0436 00       		.byte	0
 2582 0437 03       		.uleb128 0x3
 2583 0438 E9020000 		.4byte	.LASF80
 2584 043c 0D       		.byte	0xd
 2585 043d 70       		.byte	0x70
 2586 043e 42040000 		.4byte	0x442
 2587 0442 0E       		.uleb128 0xe
 2588 0443 7A010000 		.4byte	.LASF81
 2589 0447 D805     		.2byte	0x5d8
 2590 0449 0E       		.byte	0xe
 2591 044a C201     		.2byte	0x1c2
 2592 044c AF040000 		.4byte	0x4af
 2593 0450 08       		.uleb128 0x8
 2594 0451 13070000 		.4byte	.LASF82
 2595 0455 0E       		.byte	0xe
 2596 0456 C601     		.2byte	0x1c6
 2597 0458 BD020000 		.4byte	0x2bd
 2598 045c 00       		.byte	0
 2599 045d 08       		.uleb128 0x8
 2600 045e 61010000 		.4byte	.LASF83
 2601 0462 0E       		.byte	0xe
 2602 0463 CA01     		.2byte	0x1ca
 2603 0465 9C030000 		.4byte	0x39c
 2604 0469 1C       		.byte	0x1c
 2605 046a 07       		.uleb128 0x7
 2606 046b 64626700 		.ascii	"dbg\000"
 2607 046f 0E       		.byte	0xe
 2608 0470 CE01     		.2byte	0x1ce
 2609 0472 E9030000 		.4byte	0x3e9
 2610 0476 2C       		.byte	0x2c
 2611 0477 0F       		.uleb128 0xf
 2612 0478 D1000000 		.4byte	.LASF84
 2613 047c 0E       		.byte	0xe
 2614 047d D201     		.2byte	0x1d2
 2615 047f 47010000 		.4byte	0x147
 2616 0483 4004     		.2byte	0x440
 2617 0485 10       		.uleb128 0x10
ARM GAS  /tmp/ccfeOUca.s 			page 105


 2618 0486 746D00   		.ascii	"tm\000"
 2619 0489 0E       		.byte	0xe
 2620 048a D701     		.2byte	0x1d7
 2621 048c 55070000 		.4byte	0x755
 2622 0490 A004     		.2byte	0x4a0
 2623 0492 0F       		.uleb128 0xf
 2624 0493 30000000 		.4byte	.LASF85
 2625 0497 0E       		.byte	0xe
 2626 0498 DD01     		.2byte	0x1dd
 2627 049a E7070000 		.4byte	0x7e7
 2628 049e A804     		.2byte	0x4a8
 2629 04a0 0F       		.uleb128 0xf
 2630 04a1 38020000 		.4byte	.LASF86
 2631 04a5 0E       		.byte	0xe
 2632 04a6 E301     		.2byte	0x1e3
 2633 04a8 DA080000 		.4byte	0x8da
 2634 04ac E004     		.2byte	0x4e0
 2635 04ae 00       		.byte	0
 2636 04af 04       		.uleb128 0x4
 2637 04b0 04       		.byte	0x4
 2638 04b1 07       		.byte	0x7
 2639 04b2 01040000 		.4byte	.LASF87
 2640 04b6 11       		.uleb128 0x11
 2641 04b7 B8000000 		.4byte	0xb8
 2642 04bb 12       		.uleb128 0x12
 2643 04bc B8000000 		.4byte	0xb8
 2644 04c0 CB040000 		.4byte	0x4cb
 2645 04c4 13       		.uleb128 0x13
 2646 04c5 AF040000 		.4byte	0x4af
 2647 04c9 01       		.byte	0x1
 2648 04ca 00       		.byte	0
 2649 04cb 12       		.uleb128 0x12
 2650 04cc B8000000 		.4byte	0xb8
 2651 04d0 DB040000 		.4byte	0x4db
 2652 04d4 13       		.uleb128 0x13
 2653 04d5 AF040000 		.4byte	0x4af
 2654 04d9 03       		.byte	0x3
 2655 04da 00       		.byte	0
 2656 04db 03       		.uleb128 0x3
 2657 04dc F3010000 		.4byte	.LASF88
 2658 04e0 0F       		.byte	0xf
 2659 04e1 65       		.byte	0x65
 2660 04e2 40030000 		.4byte	0x340
 2661 04e6 03       		.uleb128 0x3
 2662 04e7 DB030000 		.4byte	.LASF89
 2663 04eb 0F       		.byte	0xf
 2664 04ec 6D       		.byte	0x6d
 2665 04ed C3000000 		.4byte	0xc3
 2666 04f1 05       		.uleb128 0x5
 2667 04f2 C0060000 		.4byte	.LASF90
 2668 04f6 04       		.byte	0x4
 2669 04f7 0F       		.byte	0xf
 2670 04f8 89       		.byte	0x89
 2671 04f9 0A050000 		.4byte	0x50a
 2672 04fd 14       		.uleb128 0x14
 2673 04fe 72313300 		.ascii	"r13\000"
 2674 0502 0F       		.byte	0xf
ARM GAS  /tmp/ccfeOUca.s 			page 106


 2675 0503 8A       		.byte	0x8a
 2676 0504 85050000 		.4byte	0x585
 2677 0508 00       		.byte	0
 2678 0509 00       		.byte	0
 2679 050a 05       		.uleb128 0x5
 2680 050b 47000000 		.4byte	.LASF91
 2681 050f 24       		.byte	0x24
 2682 0510 01       		.byte	0x1
 2683 0511 FD       		.byte	0xfd
 2684 0512 85050000 		.4byte	0x585
 2685 0516 07       		.uleb128 0x7
 2686 0517 723400   		.ascii	"r4\000"
 2687 051a 01       		.byte	0x1
 2688 051b 1001     		.2byte	0x110
 2689 051d DB040000 		.4byte	0x4db
 2690 0521 00       		.byte	0
 2691 0522 07       		.uleb128 0x7
 2692 0523 723500   		.ascii	"r5\000"
 2693 0526 01       		.byte	0x1
 2694 0527 1101     		.2byte	0x111
 2695 0529 DB040000 		.4byte	0x4db
 2696 052d 04       		.byte	0x4
 2697 052e 07       		.uleb128 0x7
 2698 052f 723600   		.ascii	"r6\000"
 2699 0532 01       		.byte	0x1
 2700 0533 1201     		.2byte	0x112
 2701 0535 DB040000 		.4byte	0x4db
 2702 0539 08       		.byte	0x8
 2703 053a 07       		.uleb128 0x7
 2704 053b 723700   		.ascii	"r7\000"
 2705 053e 01       		.byte	0x1
 2706 053f 1301     		.2byte	0x113
 2707 0541 DB040000 		.4byte	0x4db
 2708 0545 0C       		.byte	0xc
 2709 0546 07       		.uleb128 0x7
 2710 0547 723800   		.ascii	"r8\000"
 2711 054a 01       		.byte	0x1
 2712 054b 1401     		.2byte	0x114
 2713 054d DB040000 		.4byte	0x4db
 2714 0551 10       		.byte	0x10
 2715 0552 07       		.uleb128 0x7
 2716 0553 723900   		.ascii	"r9\000"
 2717 0556 01       		.byte	0x1
 2718 0557 1501     		.2byte	0x115
 2719 0559 DB040000 		.4byte	0x4db
 2720 055d 14       		.byte	0x14
 2721 055e 07       		.uleb128 0x7
 2722 055f 72313000 		.ascii	"r10\000"
 2723 0563 01       		.byte	0x1
 2724 0564 1601     		.2byte	0x116
 2725 0566 DB040000 		.4byte	0x4db
 2726 056a 18       		.byte	0x18
 2727 056b 07       		.uleb128 0x7
 2728 056c 72313100 		.ascii	"r11\000"
 2729 0570 01       		.byte	0x1
 2730 0571 1701     		.2byte	0x117
 2731 0573 DB040000 		.4byte	0x4db
ARM GAS  /tmp/ccfeOUca.s 			page 107


 2732 0577 1C       		.byte	0x1c
 2733 0578 07       		.uleb128 0x7
 2734 0579 6C7200   		.ascii	"lr\000"
 2735 057c 01       		.byte	0x1
 2736 057d 1801     		.2byte	0x118
 2737 057f DB040000 		.4byte	0x4db
 2738 0583 20       		.byte	0x20
 2739 0584 00       		.byte	0
 2740 0585 09       		.uleb128 0x9
 2741 0586 04       		.byte	0x4
 2742 0587 0A050000 		.4byte	0x50a
 2743 058b 15       		.uleb128 0x15
 2744 058c 60       		.byte	0x60
 2745 058d 10       		.byte	0x10
 2746 058e A101     		.2byte	0x1a1
 2747 0590 97060000 		.4byte	0x697
 2748 0594 07       		.uleb128 0x7
 2749 0595 43523100 		.ascii	"CR1\000"
 2750 0599 10       		.byte	0x10
 2751 059a A201     		.2byte	0x1a2
 2752 059c B6040000 		.4byte	0x4b6
 2753 05a0 00       		.byte	0
 2754 05a1 07       		.uleb128 0x7
 2755 05a2 43523200 		.ascii	"CR2\000"
 2756 05a6 10       		.byte	0x10
 2757 05a7 A301     		.2byte	0x1a3
 2758 05a9 B6040000 		.4byte	0x4b6
 2759 05ad 04       		.byte	0x4
 2760 05ae 08       		.uleb128 0x8
 2761 05af B9020000 		.4byte	.LASF92
 2762 05b3 10       		.byte	0x10
 2763 05b4 A401     		.2byte	0x1a4
 2764 05b6 B6040000 		.4byte	0x4b6
 2765 05ba 08       		.byte	0x8
 2766 05bb 08       		.uleb128 0x8
 2767 05bc 14000000 		.4byte	.LASF93
 2768 05c0 10       		.byte	0x10
 2769 05c1 A501     		.2byte	0x1a5
 2770 05c3 B6040000 		.4byte	0x4b6
 2771 05c7 0C       		.byte	0xc
 2772 05c8 07       		.uleb128 0x7
 2773 05c9 535200   		.ascii	"SR\000"
 2774 05cc 10       		.byte	0x10
 2775 05cd A601     		.2byte	0x1a6
 2776 05cf B6040000 		.4byte	0x4b6
 2777 05d3 10       		.byte	0x10
 2778 05d4 07       		.uleb128 0x7
 2779 05d5 45475200 		.ascii	"EGR\000"
 2780 05d9 10       		.byte	0x10
 2781 05da A701     		.2byte	0x1a7
 2782 05dc B6040000 		.4byte	0x4b6
 2783 05e0 14       		.byte	0x14
 2784 05e1 08       		.uleb128 0x8
 2785 05e2 14010000 		.4byte	.LASF94
 2786 05e6 10       		.byte	0x10
 2787 05e7 A801     		.2byte	0x1a8
 2788 05e9 B6040000 		.4byte	0x4b6
ARM GAS  /tmp/ccfeOUca.s 			page 108


 2789 05ed 18       		.byte	0x18
 2790 05ee 08       		.uleb128 0x8
 2791 05ef 1A010000 		.4byte	.LASF95
 2792 05f3 10       		.byte	0x10
 2793 05f4 A901     		.2byte	0x1a9
 2794 05f6 B6040000 		.4byte	0x4b6
 2795 05fa 1C       		.byte	0x1c
 2796 05fb 08       		.uleb128 0x8
 2797 05fc 96010000 		.4byte	.LASF96
 2798 0600 10       		.byte	0x10
 2799 0601 AA01     		.2byte	0x1aa
 2800 0603 B6040000 		.4byte	0x4b6
 2801 0607 20       		.byte	0x20
 2802 0608 07       		.uleb128 0x7
 2803 0609 434E5400 		.ascii	"CNT\000"
 2804 060d 10       		.byte	0x10
 2805 060e AB01     		.2byte	0x1ab
 2806 0610 B6040000 		.4byte	0x4b6
 2807 0614 24       		.byte	0x24
 2808 0615 07       		.uleb128 0x7
 2809 0616 50534300 		.ascii	"PSC\000"
 2810 061a 10       		.byte	0x10
 2811 061b AC01     		.2byte	0x1ac
 2812 061d B6040000 		.4byte	0x4b6
 2813 0621 28       		.byte	0x28
 2814 0622 07       		.uleb128 0x7
 2815 0623 41525200 		.ascii	"ARR\000"
 2816 0627 10       		.byte	0x10
 2817 0628 AD01     		.2byte	0x1ad
 2818 062a B6040000 		.4byte	0x4b6
 2819 062e 2C       		.byte	0x2c
 2820 062f 07       		.uleb128 0x7
 2821 0630 52435200 		.ascii	"RCR\000"
 2822 0634 10       		.byte	0x10
 2823 0635 AE01     		.2byte	0x1ae
 2824 0637 B6040000 		.4byte	0x4b6
 2825 063b 30       		.byte	0x30
 2826 063c 07       		.uleb128 0x7
 2827 063d 43435200 		.ascii	"CCR\000"
 2828 0641 10       		.byte	0x10
 2829 0642 AF01     		.2byte	0x1af
 2830 0644 97060000 		.4byte	0x697
 2831 0648 34       		.byte	0x34
 2832 0649 08       		.uleb128 0x8
 2833 064a FF000000 		.4byte	.LASF97
 2834 064e 10       		.byte	0x10
 2835 064f B001     		.2byte	0x1b0
 2836 0651 B6040000 		.4byte	0x4b6
 2837 0655 44       		.byte	0x44
 2838 0656 07       		.uleb128 0x7
 2839 0657 44435200 		.ascii	"DCR\000"
 2840 065b 10       		.byte	0x10
 2841 065c B101     		.2byte	0x1b1
 2842 065e B6040000 		.4byte	0x4b6
 2843 0662 48       		.byte	0x48
 2844 0663 08       		.uleb128 0x8
 2845 0664 53060000 		.4byte	.LASF98
ARM GAS  /tmp/ccfeOUca.s 			page 109


 2846 0668 10       		.byte	0x10
 2847 0669 B201     		.2byte	0x1b2
 2848 066b B6040000 		.4byte	0x4b6
 2849 066f 4C       		.byte	0x4c
 2850 0670 07       		.uleb128 0x7
 2851 0671 4F5200   		.ascii	"OR\000"
 2852 0674 10       		.byte	0x10
 2853 0675 B301     		.2byte	0x1b3
 2854 0677 B6040000 		.4byte	0x4b6
 2855 067b 50       		.byte	0x50
 2856 067c 08       		.uleb128 0x8
 2857 067d 20010000 		.4byte	.LASF99
 2858 0681 10       		.byte	0x10
 2859 0682 B401     		.2byte	0x1b4
 2860 0684 B6040000 		.4byte	0x4b6
 2861 0688 54       		.byte	0x54
 2862 0689 08       		.uleb128 0x8
 2863 068a D1050000 		.4byte	.LASF100
 2864 068e 10       		.byte	0x10
 2865 068f B501     		.2byte	0x1b5
 2866 0691 9C060000 		.4byte	0x69c
 2867 0695 58       		.byte	0x58
 2868 0696 00       		.byte	0
 2869 0697 11       		.uleb128 0x11
 2870 0698 CB040000 		.4byte	0x4cb
 2871 069c 11       		.uleb128 0x11
 2872 069d BB040000 		.4byte	0x4bb
 2873 06a1 16       		.uleb128 0x16
 2874 06a2 98030000 		.4byte	.LASF101
 2875 06a6 10       		.byte	0x10
 2876 06a7 B601     		.2byte	0x1b6
 2877 06a9 8B050000 		.4byte	0x58b
 2878 06ad 17       		.uleb128 0x17
 2879 06ae 10       		.byte	0x10
 2880 06af 11       		.byte	0x11
 2881 06b0 51       		.byte	0x51
 2882 06b1 E6060000 		.4byte	0x6e6
 2883 06b5 06       		.uleb128 0x6
 2884 06b6 51010000 		.4byte	.LASF102
 2885 06ba 11       		.byte	0x11
 2886 06bb 55       		.byte	0x55
 2887 06bc 3C010000 		.4byte	0x13c
 2888 06c0 00       		.byte	0
 2889 06c1 06       		.uleb128 0x6
 2890 06c2 9B010000 		.4byte	.LASF103
 2891 06c6 11       		.byte	0x11
 2892 06c7 59       		.byte	0x59
 2893 06c8 63020000 		.4byte	0x263
 2894 06cc 04       		.byte	0x4
 2895 06cd 06       		.uleb128 0x6
 2896 06ce 99070000 		.4byte	.LASF104
 2897 06d2 11       		.byte	0x11
 2898 06d3 5D       		.byte	0x5d
 2899 06d4 40030000 		.4byte	0x340
 2900 06d8 08       		.byte	0x8
 2901 06d9 06       		.uleb128 0x6
 2902 06da BF000000 		.4byte	.LASF105
ARM GAS  /tmp/ccfeOUca.s 			page 110


 2903 06de 11       		.byte	0x11
 2904 06df 61       		.byte	0x61
 2905 06e0 A2000000 		.4byte	0xa2
 2906 06e4 0C       		.byte	0xc
 2907 06e5 00       		.byte	0
 2908 06e6 03       		.uleb128 0x3
 2909 06e7 3C040000 		.4byte	.LASF106
 2910 06eb 11       		.byte	0x11
 2911 06ec 62       		.byte	0x62
 2912 06ed AD060000 		.4byte	0x6ad
 2913 06f1 18       		.uleb128 0x18
 2914 06f2 0804     		.2byte	0x408
 2915 06f4 11       		.byte	0x11
 2916 06f5 67       		.byte	0x67
 2917 06f6 1F070000 		.4byte	0x71f
 2918 06fa 06       		.uleb128 0x6
 2919 06fb DB010000 		.4byte	.LASF107
 2920 06ff 11       		.byte	0x11
 2921 0700 6B       		.byte	0x6b
 2922 0701 37000000 		.4byte	0x37
 2923 0705 00       		.byte	0
 2924 0706 06       		.uleb128 0x6
 2925 0707 00000000 		.4byte	.LASF108
 2926 070b 11       		.byte	0x11
 2927 070c 6F       		.byte	0x6f
 2928 070d 1F070000 		.4byte	0x71f
 2929 0711 04       		.byte	0x4
 2930 0712 06       		.uleb128 0x6
 2931 0713 CD040000 		.4byte	.LASF109
 2932 0717 11       		.byte	0x11
 2933 0718 73       		.byte	0x73
 2934 0719 25070000 		.4byte	0x725
 2935 071d 08       		.byte	0x8
 2936 071e 00       		.byte	0
 2937 071f 09       		.uleb128 0x9
 2938 0720 04       		.byte	0x4
 2939 0721 E6060000 		.4byte	0x6e6
 2940 0725 12       		.uleb128 0x12
 2941 0726 E6060000 		.4byte	0x6e6
 2942 072a 35070000 		.4byte	0x735
 2943 072e 13       		.uleb128 0x13
 2944 072f AF040000 		.4byte	0x4af
 2945 0733 3F       		.byte	0x3f
 2946 0734 00       		.byte	0
 2947 0735 03       		.uleb128 0x3
 2948 0736 AD000000 		.4byte	.LASF110
 2949 073a 11       		.byte	0x11
 2950 073b 74       		.byte	0x74
 2951 073c F1060000 		.4byte	0x6f1
 2952 0740 17       		.uleb128 0x17
 2953 0741 04       		.byte	0x4
 2954 0742 12       		.byte	0x12
 2955 0743 38       		.byte	0x38
 2956 0744 55070000 		.4byte	0x755
 2957 0748 06       		.uleb128 0x6
 2958 0749 B9060000 		.4byte	.LASF111
 2959 074d 12       		.byte	0x12
ARM GAS  /tmp/ccfeOUca.s 			page 111


 2960 074e 3C       		.byte	0x3c
 2961 074f CE000000 		.4byte	0xce
 2962 0753 00       		.byte	0
 2963 0754 00       		.byte	0
 2964 0755 03       		.uleb128 0x3
 2965 0756 E6030000 		.4byte	.LASF112
 2966 075a 12       		.byte	0x12
 2967 075b 3D       		.byte	0x3d
 2968 075c 40070000 		.4byte	0x740
 2969 0760 17       		.uleb128 0x17
 2970 0761 18       		.byte	0x18
 2971 0762 12       		.byte	0x12
 2972 0763 48       		.byte	0x48
 2973 0764 A3070000 		.4byte	0x7a3
 2974 0768 06       		.uleb128 0x6
 2975 0769 6C060000 		.4byte	.LASF113
 2976 076d 12       		.byte	0x12
 2977 076e 49       		.byte	0x49
 2978 076f CE000000 		.4byte	0xce
 2979 0773 00       		.byte	0
 2980 0774 06       		.uleb128 0x6
 2981 0775 7D000000 		.4byte	.LASF114
 2982 0779 12       		.byte	0x12
 2983 077a 4A       		.byte	0x4a
 2984 077b CE000000 		.4byte	0xce
 2985 077f 04       		.byte	0x4
 2986 0780 06       		.uleb128 0x6
 2987 0781 DD020000 		.4byte	.LASF115
 2988 0785 12       		.byte	0x12
 2989 0786 4B       		.byte	0x4b
 2990 0787 CE000000 		.4byte	0xce
 2991 078b 08       		.byte	0x8
 2992 078c 14       		.uleb128 0x14
 2993 078d 6E00     		.ascii	"n\000"
 2994 078f 12       		.byte	0x12
 2995 0790 4C       		.byte	0x4c
 2996 0791 31010000 		.4byte	0x131
 2997 0795 0C       		.byte	0xc
 2998 0796 06       		.uleb128 0x6
 2999 0797 AC040000 		.4byte	.LASF116
 3000 079b 12       		.byte	0x12
 3001 079c 4D       		.byte	0x4d
 3002 079d D9000000 		.4byte	0xd9
 3003 07a1 10       		.byte	0x10
 3004 07a2 00       		.byte	0
 3005 07a3 03       		.uleb128 0x3
 3006 07a4 83000000 		.4byte	.LASF117
 3007 07a8 12       		.byte	0x12
 3008 07a9 4E       		.byte	0x4e
 3009 07aa 60070000 		.4byte	0x760
 3010 07ae 17       		.uleb128 0x17
 3011 07af 38       		.byte	0x38
 3012 07b0 13       		.byte	0x13
 3013 07b1 38       		.byte	0x38
 3014 07b2 E7070000 		.4byte	0x7e7
 3015 07b6 06       		.uleb128 0x6
 3016 07b7 A8020000 		.4byte	.LASF118
ARM GAS  /tmp/ccfeOUca.s 			page 112


 3017 07bb 13       		.byte	0x13
 3018 07bc 39       		.byte	0x39
 3019 07bd 31010000 		.4byte	0x131
 3020 07c1 00       		.byte	0
 3021 07c2 06       		.uleb128 0x6
 3022 07c3 0A050000 		.4byte	.LASF119
 3023 07c7 13       		.byte	0x13
 3024 07c8 3A       		.byte	0x3a
 3025 07c9 31010000 		.4byte	0x131
 3026 07cd 04       		.byte	0x4
 3027 07ce 06       		.uleb128 0x6
 3028 07cf 86070000 		.4byte	.LASF120
 3029 07d3 13       		.byte	0x13
 3030 07d4 3B       		.byte	0x3b
 3031 07d5 A3070000 		.4byte	0x7a3
 3032 07d9 08       		.byte	0x8
 3033 07da 06       		.uleb128 0x6
 3034 07db AC030000 		.4byte	.LASF121
 3035 07df 13       		.byte	0x13
 3036 07e0 3D       		.byte	0x3d
 3037 07e1 A3070000 		.4byte	0x7a3
 3038 07e5 20       		.byte	0x20
 3039 07e6 00       		.byte	0
 3040 07e7 03       		.uleb128 0x3
 3041 07e8 BE020000 		.4byte	.LASF122
 3042 07ec 13       		.byte	0x13
 3043 07ed 3F       		.byte	0x3f
 3044 07ee AE070000 		.4byte	0x7ae
 3045 07f2 19       		.uleb128 0x19
 3046 07f3 04       		.byte	0x4
 3047 07f4 0E       		.byte	0xe
 3048 07f5 FA       		.byte	0xfa
 3049 07f6 4F080000 		.4byte	0x84f
 3050 07fa 1A       		.uleb128 0x1a
 3051 07fb 20000000 		.4byte	.LASF123
 3052 07ff 0E       		.byte	0xe
 3053 0800 0101     		.2byte	0x101
 3054 0802 10010000 		.4byte	0x110
 3055 0806 1A       		.uleb128 0x1a
 3056 0807 C8000000 		.4byte	.LASF124
 3057 080b 0E       		.byte	0xe
 3058 080c 0801     		.2byte	0x108
 3059 080e 10010000 		.4byte	0x110
 3060 0812 1A       		.uleb128 0x1a
 3061 0813 42070000 		.4byte	.LASF125
 3062 0817 0E       		.byte	0xe
 3063 0818 0F01     		.2byte	0x10f
 3064 081a 40030000 		.4byte	0x340
 3065 081e 1A       		.uleb128 0x1a
 3066 081f 74010000 		.4byte	.LASF126
 3067 0823 0E       		.byte	0xe
 3068 0824 1601     		.2byte	0x116
 3069 0826 4F080000 		.4byte	0x84f
 3070 082a 1A       		.uleb128 0x1a
 3071 082b 8D020000 		.4byte	.LASF127
 3072 082f 0E       		.byte	0xe
 3073 0830 1E01     		.2byte	0x11e
ARM GAS  /tmp/ccfeOUca.s 			page 113


 3074 0832 7A080000 		.4byte	0x87a
 3075 0836 1A       		.uleb128 0x1a
 3076 0837 FD050000 		.4byte	.LASF128
 3077 083b 0E       		.byte	0xe
 3078 083c 2701     		.2byte	0x127
 3079 083e B1080000 		.4byte	0x8b1
 3080 0842 1A       		.uleb128 0x1a
 3081 0843 82050000 		.4byte	.LASF129
 3082 0847 0E       		.byte	0xe
 3083 0848 2F01     		.2byte	0x12f
 3084 084a 1B010000 		.4byte	0x11b
 3085 084e 00       		.byte	0
 3086 084f 09       		.uleb128 0x9
 3087 0850 04       		.byte	0x4
 3088 0851 58020000 		.4byte	0x258
 3089 0855 05       		.uleb128 0x5
 3090 0856 C4050000 		.4byte	.LASF130
 3091 085a 0C       		.byte	0xc
 3092 085b 14       		.byte	0x14
 3093 085c 34       		.byte	0x34
 3094 085d 7A080000 		.4byte	0x87a
 3095 0861 06       		.uleb128 0x6
 3096 0862 C0010000 		.4byte	.LASF131
 3097 0866 14       		.byte	0x14
 3098 0867 35       		.byte	0x35
 3099 0868 8D020000 		.4byte	0x28d
 3100 086c 00       		.byte	0
 3101 086d 06       		.uleb128 0x6
 3102 086e AE020000 		.4byte	.LASF132
 3103 0872 14       		.byte	0x14
 3104 0873 37       		.byte	0x37
 3105 0874 26010000 		.4byte	0x126
 3106 0878 08       		.byte	0x8
 3107 0879 00       		.byte	0
 3108 087a 09       		.uleb128 0x9
 3109 087b 04       		.byte	0x4
 3110 087c 55080000 		.4byte	0x855
 3111 0880 05       		.uleb128 0x5
 3112 0881 FB060000 		.4byte	.LASF133
 3113 0885 10       		.byte	0x10
 3114 0886 15       		.byte	0x15
 3115 0887 39       		.byte	0x39
 3116 0888 B1080000 		.4byte	0x8b1
 3117 088c 06       		.uleb128 0x6
 3118 088d 59010000 		.4byte	.LASF134
 3119 0891 15       		.byte	0x15
 3120 0892 3A       		.byte	0x3a
 3121 0893 8D020000 		.4byte	0x28d
 3122 0897 00       		.byte	0
 3123 0898 06       		.uleb128 0x6
 3124 0899 91070000 		.4byte	.LASF135
 3125 089d 15       		.byte	0x15
 3126 089e 3C       		.byte	0x3c
 3127 089f 63020000 		.4byte	0x263
 3128 08a3 08       		.byte	0x8
 3129 08a4 06       		.uleb128 0x6
 3130 08a5 71060000 		.4byte	.LASF136
ARM GAS  /tmp/ccfeOUca.s 			page 114


 3131 08a9 15       		.byte	0x15
 3132 08aa 3E       		.byte	0x3e
 3133 08ab F5080000 		.4byte	0x8f5
 3134 08af 0C       		.byte	0xc
 3135 08b0 00       		.byte	0
 3136 08b1 09       		.uleb128 0x9
 3137 08b2 04       		.byte	0x4
 3138 08b3 80080000 		.4byte	0x880
 3139 08b7 09       		.uleb128 0x9
 3140 08b8 04       		.byte	0x4
 3141 08b9 BD080000 		.4byte	0x8bd
 3142 08bd 1B       		.uleb128 0x1b
 3143 08be C2080000 		.4byte	0x8c2
 3144 08c2 04       		.uleb128 0x4
 3145 08c3 01       		.byte	0x1
 3146 08c4 08       		.byte	0x8
 3147 08c5 41060000 		.4byte	.LASF137
 3148 08c9 09       		.uleb128 0x9
 3149 08ca 04       		.byte	0x4
 3150 08cb E6040000 		.4byte	0x4e6
 3151 08cf 09       		.uleb128 0x9
 3152 08d0 04       		.byte	0x4
 3153 08d1 42030000 		.4byte	0x342
 3154 08d5 11       		.uleb128 0x11
 3155 08d6 B7080000 		.4byte	0x8b7
 3156 08da 12       		.uleb128 0x12
 3157 08db E6040000 		.4byte	0x4e6
 3158 08df EA080000 		.4byte	0x8ea
 3159 08e3 13       		.uleb128 0x13
 3160 08e4 AF040000 		.4byte	0x4af
 3161 08e8 1E       		.byte	0x1e
 3162 08e9 00       		.byte	0
 3163 08ea 03       		.uleb128 0x3
 3164 08eb 21020000 		.4byte	.LASF138
 3165 08ef 15       		.byte	0x15
 3166 08f0 34       		.byte	0x34
 3167 08f1 80080000 		.4byte	0x880
 3168 08f5 09       		.uleb128 0x9
 3169 08f6 04       		.byte	0x4
 3170 08f7 EA080000 		.4byte	0x8ea
 3171 08fb 05       		.uleb128 0x5
 3172 08fc BB050000 		.4byte	.LASF139
 3173 0900 10       		.byte	0x10
 3174 0901 16       		.byte	0x16
 3175 0902 3B       		.byte	0x3b
 3176 0903 38090000 		.4byte	0x938
 3177 0907 06       		.uleb128 0x6
 3178 0908 B4020000 		.4byte	.LASF140
 3179 090c 16       		.byte	0x16
 3180 090d 3C       		.byte	0x3c
 3181 090e B7080000 		.4byte	0x8b7
 3182 0912 00       		.byte	0
 3183 0913 06       		.uleb128 0x6
 3184 0914 77040000 		.4byte	.LASF141
 3185 0918 16       		.byte	0x16
 3186 0919 3D       		.byte	0x3d
 3187 091a 39090000 		.4byte	0x939
ARM GAS  /tmp/ccfeOUca.s 			page 115


 3188 091e 04       		.byte	0x4
 3189 091f 06       		.uleb128 0x6
 3190 0920 9F020000 		.4byte	.LASF142
 3191 0924 16       		.byte	0x16
 3192 0925 3E       		.byte	0x3e
 3193 0926 39090000 		.4byte	0x939
 3194 092a 08       		.byte	0x8
 3195 092b 06       		.uleb128 0x6
 3196 092c 4F050000 		.4byte	.LASF143
 3197 0930 16       		.byte	0x16
 3198 0931 3F       		.byte	0x3f
 3199 0932 39090000 		.4byte	0x939
 3200 0936 0C       		.byte	0xc
 3201 0937 00       		.byte	0
 3202 0938 1C       		.uleb128 0x1c
 3203 0939 09       		.uleb128 0x9
 3204 093a 04       		.byte	0x4
 3205 093b 38090000 		.4byte	0x938
 3206 093f 1D       		.uleb128 0x1d
 3207 0940 A1060000 		.4byte	.LASF171
 3208 0944 02       		.byte	0x2
 3209 0945 2202     		.2byte	0x222
 3210 0947 03       		.byte	0x3
 3211 0948 59090000 		.4byte	0x959
 3212 094c 1E       		.uleb128 0x1e
 3213 094d 29020000 		.4byte	.LASF172
 3214 0951 02       		.byte	0x2
 3215 0952 2202     		.2byte	0x222
 3216 0954 B8000000 		.4byte	0xb8
 3217 0958 00       		.byte	0
 3218 0959 1F       		.uleb128 0x1f
 3219 095a 73000000 		.4byte	.LASF144
 3220 095e 01       		.byte	0x1
 3221 095f C801     		.2byte	0x1c8
 3222 0961 00000000 		.4byte	.LFB127
 3223 0965 10000000 		.4byte	.LFE127-.LFB127
 3224 0969 01       		.uleb128 0x1
 3225 096a 9C       		.byte	0x9c
 3226 096b 89090000 		.4byte	0x989
 3227 096f 20       		.uleb128 0x20
 3228 0970 3F090000 		.4byte	0x93f
 3229 0974 06000000 		.4byte	.LBB6
 3230 0978 06000000 		.4byte	.LBE6-.LBB6
 3231 097c 01       		.byte	0x1
 3232 097d D001     		.2byte	0x1d0
 3233 097f 21       		.uleb128 0x21
 3234 0980 4C090000 		.4byte	0x94c
 3235 0984 02       		.uleb128 0x2
 3236 0985 91       		.byte	0x91
 3237 0986 7C       		.sleb128 -4
 3238 0987 00       		.byte	0
 3239 0988 00       		.byte	0
 3240 0989 1F       		.uleb128 0x1f
 3241 098a 68010000 		.4byte	.LASF145
 3242 098e 01       		.byte	0x1
 3243 098f E001     		.2byte	0x1e0
 3244 0991 00000000 		.4byte	.LFB128
ARM GAS  /tmp/ccfeOUca.s 			page 116


 3245 0995 10000000 		.4byte	.LFE128-.LFB128
 3246 0999 01       		.uleb128 0x1
 3247 099a 9C       		.byte	0x9c
 3248 099b B9090000 		.4byte	0x9b9
 3249 099f 20       		.uleb128 0x20
 3250 09a0 3F090000 		.4byte	0x93f
 3251 09a4 06000000 		.4byte	.LBB8
 3252 09a8 06000000 		.4byte	.LBE8-.LBB8
 3253 09ac 01       		.byte	0x1
 3254 09ad E301     		.2byte	0x1e3
 3255 09af 21       		.uleb128 0x21
 3256 09b0 4C090000 		.4byte	0x94c
 3257 09b4 02       		.uleb128 0x2
 3258 09b5 91       		.byte	0x91
 3259 09b6 7C       		.sleb128 -4
 3260 09b7 00       		.byte	0
 3261 09b8 00       		.byte	0
 3262 09b9 22       		.uleb128 0x22
 3263 09ba E1050000 		.4byte	.LASF146
 3264 09be 03       		.byte	0x3
 3265 09bf 8B       		.byte	0x8b
 3266 09c0 3C010000 		.4byte	0x13c
 3267 09c4 00000000 		.4byte	.LFB136
 3268 09c8 0A000000 		.4byte	.LFE136-.LFB136
 3269 09cc 01       		.uleb128 0x1
 3270 09cd 9C       		.byte	0x9c
 3271 09ce 23       		.uleb128 0x23
 3272 09cf C8060000 		.4byte	.LASF147
 3273 09d3 04       		.byte	0x4
 3274 09d4 69       		.byte	0x69
 3275 09d5 3C010000 		.4byte	0x13c
 3276 09d9 00000000 		.4byte	.LFB145
 3277 09dd 0C000000 		.4byte	.LFE145-.LFB145
 3278 09e1 01       		.uleb128 0x1
 3279 09e2 9C       		.byte	0x9c
 3280 09e3 24       		.uleb128 0x24
 3281 09e4 A0050000 		.4byte	.LASF153
 3282 09e8 05       		.byte	0x5
 3283 09e9 5A01     		.2byte	0x15a
 3284 09eb 00000000 		.4byte	.LFB167
 3285 09ef 10000000 		.4byte	.LFE167-.LFB167
 3286 09f3 01       		.uleb128 0x1
 3287 09f4 9C       		.byte	0x9c
 3288 09f5 25       		.uleb128 0x25
 3289 09f6 74070000 		.4byte	.LASF148
 3290 09fa 05       		.byte	0x5
 3291 09fb 6601     		.2byte	0x166
 3292 09fd 00000000 		.4byte	.LFB168
 3293 0a01 4E000000 		.4byte	.LFE168-.LFB168
 3294 0a05 01       		.uleb128 0x1
 3295 0a06 9C       		.byte	0x9c
 3296 0a07 1B0A0000 		.4byte	0xa1b
 3297 0a0b 26       		.uleb128 0x26
 3298 0a0c B7040000 		.4byte	.LASF173
 3299 0a10 2B0A0000 		.4byte	0xa2b
 3300 0a14 05       		.uleb128 0x5
 3301 0a15 03       		.byte	0x3
ARM GAS  /tmp/ccfeOUca.s 			page 117


 3302 0a16 00000000 		.4byte	__func__.5915
 3303 0a1a 00       		.byte	0
 3304 0a1b 12       		.uleb128 0x12
 3305 0a1c C2080000 		.4byte	0x8c2
 3306 0a20 2B0A0000 		.4byte	0xa2b
 3307 0a24 13       		.uleb128 0x13
 3308 0a25 AF040000 		.4byte	0x4af
 3309 0a29 0B       		.byte	0xb
 3310 0a2a 00       		.byte	0
 3311 0a2b 1B       		.uleb128 0x1b
 3312 0a2c 1B0A0000 		.4byte	0xa1b
 3313 0a30 23       		.uleb128 0x23
 3314 0a31 4D020000 		.4byte	.LASF149
 3315 0a35 06       		.byte	0x6
 3316 0a36 E4       		.byte	0xe4
 3317 0a37 3C010000 		.4byte	0x13c
 3318 0a3b 00000000 		.4byte	.LFB175
 3319 0a3f 0C000000 		.4byte	.LFE175-.LFB175
 3320 0a43 01       		.uleb128 0x1
 3321 0a44 9C       		.byte	0x9c
 3322 0a45 27       		.uleb128 0x27
 3323 0a46 7D040000 		.4byte	.LASF174
 3324 0a4a 06       		.byte	0x6
 3325 0a4b F7       		.byte	0xf7
 3326 0a4c 3C010000 		.4byte	0x13c
 3327 0a50 00000000 		.4byte	.LFB176
 3328 0a54 1C000000 		.4byte	.LFE176-.LFB176
 3329 0a58 01       		.uleb128 0x1
 3330 0a59 9C       		.byte	0x9c
 3331 0a5a 6D0A0000 		.4byte	0xa6d
 3332 0a5e 28       		.uleb128 0x28
 3333 0a5f A4030000 		.4byte	.LASF157
 3334 0a63 06       		.byte	0x6
 3335 0a64 F8       		.byte	0xf8
 3336 0a65 3C010000 		.4byte	0x13c
 3337 0a69 02       		.uleb128 0x2
 3338 0a6a 91       		.byte	0x91
 3339 0a6b 74       		.sleb128 -12
 3340 0a6c 00       		.byte	0
 3341 0a6d 22       		.uleb128 0x22
 3342 0a6e 19070000 		.4byte	.LASF150
 3343 0a72 07       		.byte	0x7
 3344 0a73 AE       		.byte	0xae
 3345 0a74 63020000 		.4byte	0x263
 3346 0a78 00000000 		.4byte	.LFB189
 3347 0a7c 0E000000 		.4byte	.LFE189-.LFB189
 3348 0a80 01       		.uleb128 0x1
 3349 0a81 9C       		.byte	0x9c
 3350 0a82 23       		.uleb128 0x23
 3351 0a83 65040000 		.4byte	.LASF151
 3352 0a87 07       		.byte	0x7
 3353 0a88 BB       		.byte	0xbb
 3354 0a89 05010000 		.4byte	0x105
 3355 0a8d 00000000 		.4byte	.LFB190
 3356 0a91 0E000000 		.4byte	.LFE190-.LFB190
 3357 0a95 01       		.uleb128 0x1
 3358 0a96 9C       		.byte	0x9c
ARM GAS  /tmp/ccfeOUca.s 			page 118


 3359 0a97 29       		.uleb128 0x29
 3360 0a98 03050000 		.4byte	.LASF152
 3361 0a9c 08       		.byte	0x8
 3362 0a9d 3C       		.byte	0x3c
 3363 0a9e 00000000 		.4byte	.LFB241
 3364 0aa2 16000000 		.4byte	.LFE241-.LFB241
 3365 0aa6 01       		.uleb128 0x1
 3366 0aa7 9C       		.byte	0x9c
 3367 0aa8 B90A0000 		.4byte	0xab9
 3368 0aac 2A       		.uleb128 0x2a
 3369 0aad 7000     		.ascii	"p\000"
 3370 0aaf 08       		.byte	0x8
 3371 0ab0 3C       		.byte	0x3c
 3372 0ab1 40030000 		.4byte	0x340
 3373 0ab5 02       		.uleb128 0x2
 3374 0ab6 91       		.byte	0x91
 3375 0ab7 74       		.sleb128 -12
 3376 0ab8 00       		.byte	0
 3377 0ab9 2B       		.uleb128 0x2b
 3378 0aba 04020000 		.4byte	.LASF154
 3379 0abe 08       		.byte	0x8
 3380 0abf 41       		.byte	0x41
 3381 0ac0 00000000 		.4byte	.LFB242
 3382 0ac4 44010000 		.4byte	.LFE242-.LFB242
 3383 0ac8 01       		.uleb128 0x1
 3384 0ac9 9C       		.byte	0x9c
 3385 0aca 2B       		.uleb128 0x2b
 3386 0acb 78020000 		.4byte	.LASF155
 3387 0acf 08       		.byte	0x8
 3388 0ad0 5D       		.byte	0x5d
 3389 0ad1 00000000 		.4byte	.LFB243
 3390 0ad5 5C010000 		.4byte	.LFE243-.LFB243
 3391 0ad9 01       		.uleb128 0x1
 3392 0ada 9C       		.byte	0x9c
 3393 0adb 29       		.uleb128 0x29
 3394 0adc D7040000 		.4byte	.LASF156
 3395 0ae0 08       		.byte	0x8
 3396 0ae1 7D       		.byte	0x7d
 3397 0ae2 00000000 		.4byte	.LFB244
 3398 0ae6 EA010000 		.4byte	.LFE244-.LFB244
 3399 0aea 01       		.uleb128 0x1
 3400 0aeb 9C       		.byte	0x9c
 3401 0aec 0C0B0000 		.4byte	0xb0c
 3402 0af0 28       		.uleb128 0x28
 3403 0af1 94040000 		.4byte	.LASF158
 3404 0af5 08       		.byte	0x8
 3405 0af6 7E       		.byte	0x7e
 3406 0af7 05010000 		.4byte	0x105
 3407 0afb 02       		.uleb128 0x2
 3408 0afc 91       		.byte	0x91
 3409 0afd 74       		.sleb128 -12
 3410 0afe 2C       		.uleb128 0x2c
 3411 0aff 703100   		.ascii	"p1\000"
 3412 0b02 08       		.byte	0x8
 3413 0b03 7E       		.byte	0x7e
 3414 0b04 05010000 		.4byte	0x105
 3415 0b08 02       		.uleb128 0x2
ARM GAS  /tmp/ccfeOUca.s 			page 119


 3416 0b09 91       		.byte	0x91
 3417 0b0a 70       		.sleb128 -16
 3418 0b0b 00       		.byte	0
 3419 0b0c 29       		.uleb128 0x29
 3420 0b0d 46060000 		.4byte	.LASF159
 3421 0b11 08       		.byte	0x8
 3422 0b12 BC       		.byte	0xbc
 3423 0b13 00000000 		.4byte	.LFB245
 3424 0b17 BE000000 		.4byte	.LFE245-.LFB245
 3425 0b1b 01       		.uleb128 0x1
 3426 0b1c 9C       		.byte	0x9c
 3427 0b1d 300B0000 		.4byte	0xb30
 3428 0b21 28       		.uleb128 0x28
 3429 0b22 8F040000 		.4byte	.LASF160
 3430 0b26 08       		.byte	0x8
 3431 0b27 BD       		.byte	0xbd
 3432 0b28 3C010000 		.4byte	0x13c
 3433 0b2c 02       		.uleb128 0x2
 3434 0b2d 91       		.byte	0x91
 3435 0b2e 74       		.sleb128 -12
 3436 0b2f 00       		.byte	0
 3437 0b30 2D       		.uleb128 0x2d
 3438 0b31 F2000000 		.4byte	.LASF161
 3439 0b35 17       		.byte	0x17
 3440 0b36 FA06     		.2byte	0x6fa
 3441 0b38 3C0B0000 		.4byte	0xb3c
 3442 0b3c 11       		.uleb128 0x11
 3443 0b3d AD000000 		.4byte	0xad
 3444 0b41 2E       		.uleb128 0x2e
 3445 0b42 636800   		.ascii	"ch\000"
 3446 0b45 0E       		.byte	0xe
 3447 0b46 0902     		.2byte	0x209
 3448 0b48 37040000 		.4byte	0x437
 3449 0b4c 12       		.uleb128 0x12
 3450 0b4d 63020000 		.4byte	0x263
 3451 0b51 5C0B0000 		.4byte	0xb5c
 3452 0b55 13       		.uleb128 0x13
 3453 0b56 AF040000 		.4byte	0x4af
 3454 0b5a 04       		.byte	0x4
 3455 0b5b 00       		.byte	0
 3456 0b5c 2F       		.uleb128 0x2f
 3457 0b5d 73050000 		.4byte	.LASF162
 3458 0b61 16       		.byte	0x16
 3459 0b62 A7       		.byte	0xa7
 3460 0b63 4C0B0000 		.4byte	0xb4c
 3461 0b67 12       		.uleb128 0x12
 3462 0b68 40030000 		.4byte	0x340
 3463 0b6c 720B0000 		.4byte	0xb72
 3464 0b70 30       		.uleb128 0x30
 3465 0b71 00       		.byte	0
 3466 0b72 31       		.uleb128 0x31
 3467 0b73 776100   		.ascii	"wa\000"
 3468 0b76 16       		.byte	0x16
 3469 0b77 A9       		.byte	0xa9
 3470 0b78 7C0B0000 		.4byte	0xb7c
 3471 0b7c 1B       		.uleb128 0x1b
 3472 0b7d 670B0000 		.4byte	0xb67
ARM GAS  /tmp/ccfeOUca.s 			page 120


 3473 0b81 32       		.uleb128 0x32
 3474 0b82 0A040000 		.4byte	.LASF163
 3475 0b86 08       		.byte	0x8
 3476 0b87 4C       		.byte	0x4c
 3477 0b88 920B0000 		.4byte	0xb92
 3478 0b8c 05       		.uleb128 0x5
 3479 0b8d 03       		.byte	0x3
 3480 0b8e 00000000 		.4byte	testthd1
 3481 0b92 1B       		.uleb128 0x1b
 3482 0b93 FB080000 		.4byte	0x8fb
 3483 0b97 32       		.uleb128 0x32
 3484 0b98 13040000 		.4byte	.LASF164
 3485 0b9c 08       		.byte	0x8
 3486 0b9d 6C       		.byte	0x6c
 3487 0b9e 920B0000 		.4byte	0xb92
 3488 0ba2 05       		.uleb128 0x5
 3489 0ba3 03       		.byte	0x3
 3490 0ba4 00000000 		.4byte	testthd2
 3491 0ba8 32       		.uleb128 0x32
 3492 0ba9 AF010000 		.4byte	.LASF165
 3493 0bad 08       		.byte	0x8
 3494 0bae AD       		.byte	0xad
 3495 0baf 920B0000 		.4byte	0xb92
 3496 0bb3 05       		.uleb128 0x5
 3497 0bb4 03       		.byte	0x3
 3498 0bb5 00000000 		.4byte	testthd3
 3499 0bb9 32       		.uleb128 0x32
 3500 0bba 33040000 		.4byte	.LASF166
 3501 0bbe 08       		.byte	0x8
 3502 0bbf DE       		.byte	0xde
 3503 0bc0 920B0000 		.4byte	0xb92
 3504 0bc4 05       		.uleb128 0x5
 3505 0bc5 03       		.byte	0x3
 3506 0bc6 00000000 		.4byte	testthd4
 3507 0bca 12       		.uleb128 0x12
 3508 0bcb DA0B0000 		.4byte	0xbda
 3509 0bcf DA0B0000 		.4byte	0xbda
 3510 0bd3 13       		.uleb128 0x13
 3511 0bd4 AF040000 		.4byte	0x4af
 3512 0bd8 04       		.byte	0x4
 3513 0bd9 00       		.byte	0
 3514 0bda 09       		.uleb128 0x9
 3515 0bdb 04       		.byte	0x4
 3516 0bdc 920B0000 		.4byte	0xb92
 3517 0be0 32       		.uleb128 0x32
 3518 0be1 58060000 		.4byte	.LASF167
 3519 0be5 08       		.byte	0x8
 3520 0be6 E8       		.byte	0xe8
 3521 0be7 F10B0000 		.4byte	0xbf1
 3522 0beb 05       		.uleb128 0x5
 3523 0bec 03       		.byte	0x3
 3524 0bed 00000000 		.4byte	patternthd
 3525 0bf1 1B       		.uleb128 0x1b
 3526 0bf2 CA0B0000 		.4byte	0xbca
 3527 0bf6 00       		.byte	0
 3528              		.section	.debug_abbrev,"",%progbits
 3529              	.Ldebug_abbrev0:
ARM GAS  /tmp/ccfeOUca.s 			page 121


 3530 0000 01       		.uleb128 0x1
 3531 0001 11       		.uleb128 0x11
 3532 0002 01       		.byte	0x1
 3533 0003 25       		.uleb128 0x25
 3534 0004 0E       		.uleb128 0xe
 3535 0005 13       		.uleb128 0x13
 3536 0006 0B       		.uleb128 0xb
 3537 0007 03       		.uleb128 0x3
 3538 0008 0E       		.uleb128 0xe
 3539 0009 1B       		.uleb128 0x1b
 3540 000a 0E       		.uleb128 0xe
 3541 000b 55       		.uleb128 0x55
 3542 000c 17       		.uleb128 0x17
 3543 000d 11       		.uleb128 0x11
 3544 000e 01       		.uleb128 0x1
 3545 000f 10       		.uleb128 0x10
 3546 0010 17       		.uleb128 0x17
 3547 0011 00       		.byte	0
 3548 0012 00       		.byte	0
 3549 0013 02       		.uleb128 0x2
 3550 0014 24       		.uleb128 0x24
 3551 0015 00       		.byte	0
 3552 0016 0B       		.uleb128 0xb
 3553 0017 0B       		.uleb128 0xb
 3554 0018 3E       		.uleb128 0x3e
 3555 0019 0B       		.uleb128 0xb
 3556 001a 03       		.uleb128 0x3
 3557 001b 08       		.uleb128 0x8
 3558 001c 00       		.byte	0
 3559 001d 00       		.byte	0
 3560 001e 03       		.uleb128 0x3
 3561 001f 16       		.uleb128 0x16
 3562 0020 00       		.byte	0
 3563 0021 03       		.uleb128 0x3
 3564 0022 0E       		.uleb128 0xe
 3565 0023 3A       		.uleb128 0x3a
 3566 0024 0B       		.uleb128 0xb
 3567 0025 3B       		.uleb128 0x3b
 3568 0026 0B       		.uleb128 0xb
 3569 0027 49       		.uleb128 0x49
 3570 0028 13       		.uleb128 0x13
 3571 0029 00       		.byte	0
 3572 002a 00       		.byte	0
 3573 002b 04       		.uleb128 0x4
 3574 002c 24       		.uleb128 0x24
 3575 002d 00       		.byte	0
 3576 002e 0B       		.uleb128 0xb
 3577 002f 0B       		.uleb128 0xb
 3578 0030 3E       		.uleb128 0x3e
 3579 0031 0B       		.uleb128 0xb
 3580 0032 03       		.uleb128 0x3
 3581 0033 0E       		.uleb128 0xe
 3582 0034 00       		.byte	0
 3583 0035 00       		.byte	0
 3584 0036 05       		.uleb128 0x5
 3585 0037 13       		.uleb128 0x13
 3586 0038 01       		.byte	0x1
ARM GAS  /tmp/ccfeOUca.s 			page 122


 3587 0039 03       		.uleb128 0x3
 3588 003a 0E       		.uleb128 0xe
 3589 003b 0B       		.uleb128 0xb
 3590 003c 0B       		.uleb128 0xb
 3591 003d 3A       		.uleb128 0x3a
 3592 003e 0B       		.uleb128 0xb
 3593 003f 3B       		.uleb128 0x3b
 3594 0040 0B       		.uleb128 0xb
 3595 0041 01       		.uleb128 0x1
 3596 0042 13       		.uleb128 0x13
 3597 0043 00       		.byte	0
 3598 0044 00       		.byte	0
 3599 0045 06       		.uleb128 0x6
 3600 0046 0D       		.uleb128 0xd
 3601 0047 00       		.byte	0
 3602 0048 03       		.uleb128 0x3
 3603 0049 0E       		.uleb128 0xe
 3604 004a 3A       		.uleb128 0x3a
 3605 004b 0B       		.uleb128 0xb
 3606 004c 3B       		.uleb128 0x3b
 3607 004d 0B       		.uleb128 0xb
 3608 004e 49       		.uleb128 0x49
 3609 004f 13       		.uleb128 0x13
 3610 0050 38       		.uleb128 0x38
 3611 0051 0B       		.uleb128 0xb
 3612 0052 00       		.byte	0
 3613 0053 00       		.byte	0
 3614 0054 07       		.uleb128 0x7
 3615 0055 0D       		.uleb128 0xd
 3616 0056 00       		.byte	0
 3617 0057 03       		.uleb128 0x3
 3618 0058 08       		.uleb128 0x8
 3619 0059 3A       		.uleb128 0x3a
 3620 005a 0B       		.uleb128 0xb
 3621 005b 3B       		.uleb128 0x3b
 3622 005c 05       		.uleb128 0x5
 3623 005d 49       		.uleb128 0x49
 3624 005e 13       		.uleb128 0x13
 3625 005f 38       		.uleb128 0x38
 3626 0060 0B       		.uleb128 0xb
 3627 0061 00       		.byte	0
 3628 0062 00       		.byte	0
 3629 0063 08       		.uleb128 0x8
 3630 0064 0D       		.uleb128 0xd
 3631 0065 00       		.byte	0
 3632 0066 03       		.uleb128 0x3
 3633 0067 0E       		.uleb128 0xe
 3634 0068 3A       		.uleb128 0x3a
 3635 0069 0B       		.uleb128 0xb
 3636 006a 3B       		.uleb128 0x3b
 3637 006b 05       		.uleb128 0x5
 3638 006c 49       		.uleb128 0x49
 3639 006d 13       		.uleb128 0x13
 3640 006e 38       		.uleb128 0x38
 3641 006f 0B       		.uleb128 0xb
 3642 0070 00       		.byte	0
 3643 0071 00       		.byte	0
ARM GAS  /tmp/ccfeOUca.s 			page 123


 3644 0072 09       		.uleb128 0x9
 3645 0073 0F       		.uleb128 0xf
 3646 0074 00       		.byte	0
 3647 0075 0B       		.uleb128 0xb
 3648 0076 0B       		.uleb128 0xb
 3649 0077 49       		.uleb128 0x49
 3650 0078 13       		.uleb128 0x13
 3651 0079 00       		.byte	0
 3652 007a 00       		.byte	0
 3653 007b 0A       		.uleb128 0xa
 3654 007c 13       		.uleb128 0x13
 3655 007d 01       		.byte	0x1
 3656 007e 03       		.uleb128 0x3
 3657 007f 0E       		.uleb128 0xe
 3658 0080 0B       		.uleb128 0xb
 3659 0081 0B       		.uleb128 0xb
 3660 0082 3A       		.uleb128 0x3a
 3661 0083 0B       		.uleb128 0xb
 3662 0084 3B       		.uleb128 0x3b
 3663 0085 05       		.uleb128 0x5
 3664 0086 01       		.uleb128 0x1
 3665 0087 13       		.uleb128 0x13
 3666 0088 00       		.byte	0
 3667 0089 00       		.byte	0
 3668 008a 0B       		.uleb128 0xb
 3669 008b 15       		.uleb128 0x15
 3670 008c 01       		.byte	0x1
 3671 008d 27       		.uleb128 0x27
 3672 008e 19       		.uleb128 0x19
 3673 008f 01       		.uleb128 0x1
 3674 0090 13       		.uleb128 0x13
 3675 0091 00       		.byte	0
 3676 0092 00       		.byte	0
 3677 0093 0C       		.uleb128 0xc
 3678 0094 05       		.uleb128 0x5
 3679 0095 00       		.byte	0
 3680 0096 49       		.uleb128 0x49
 3681 0097 13       		.uleb128 0x13
 3682 0098 00       		.byte	0
 3683 0099 00       		.byte	0
 3684 009a 0D       		.uleb128 0xd
 3685 009b 0F       		.uleb128 0xf
 3686 009c 00       		.byte	0
 3687 009d 0B       		.uleb128 0xb
 3688 009e 0B       		.uleb128 0xb
 3689 009f 00       		.byte	0
 3690 00a0 00       		.byte	0
 3691 00a1 0E       		.uleb128 0xe
 3692 00a2 13       		.uleb128 0x13
 3693 00a3 01       		.byte	0x1
 3694 00a4 03       		.uleb128 0x3
 3695 00a5 0E       		.uleb128 0xe
 3696 00a6 0B       		.uleb128 0xb
 3697 00a7 05       		.uleb128 0x5
 3698 00a8 3A       		.uleb128 0x3a
 3699 00a9 0B       		.uleb128 0xb
 3700 00aa 3B       		.uleb128 0x3b
ARM GAS  /tmp/ccfeOUca.s 			page 124


 3701 00ab 05       		.uleb128 0x5
 3702 00ac 01       		.uleb128 0x1
 3703 00ad 13       		.uleb128 0x13
 3704 00ae 00       		.byte	0
 3705 00af 00       		.byte	0
 3706 00b0 0F       		.uleb128 0xf
 3707 00b1 0D       		.uleb128 0xd
 3708 00b2 00       		.byte	0
 3709 00b3 03       		.uleb128 0x3
 3710 00b4 0E       		.uleb128 0xe
 3711 00b5 3A       		.uleb128 0x3a
 3712 00b6 0B       		.uleb128 0xb
 3713 00b7 3B       		.uleb128 0x3b
 3714 00b8 05       		.uleb128 0x5
 3715 00b9 49       		.uleb128 0x49
 3716 00ba 13       		.uleb128 0x13
 3717 00bb 38       		.uleb128 0x38
 3718 00bc 05       		.uleb128 0x5
 3719 00bd 00       		.byte	0
 3720 00be 00       		.byte	0
 3721 00bf 10       		.uleb128 0x10
 3722 00c0 0D       		.uleb128 0xd
 3723 00c1 00       		.byte	0
 3724 00c2 03       		.uleb128 0x3
 3725 00c3 08       		.uleb128 0x8
 3726 00c4 3A       		.uleb128 0x3a
 3727 00c5 0B       		.uleb128 0xb
 3728 00c6 3B       		.uleb128 0x3b
 3729 00c7 05       		.uleb128 0x5
 3730 00c8 49       		.uleb128 0x49
 3731 00c9 13       		.uleb128 0x13
 3732 00ca 38       		.uleb128 0x38
 3733 00cb 05       		.uleb128 0x5
 3734 00cc 00       		.byte	0
 3735 00cd 00       		.byte	0
 3736 00ce 11       		.uleb128 0x11
 3737 00cf 35       		.uleb128 0x35
 3738 00d0 00       		.byte	0
 3739 00d1 49       		.uleb128 0x49
 3740 00d2 13       		.uleb128 0x13
 3741 00d3 00       		.byte	0
 3742 00d4 00       		.byte	0
 3743 00d5 12       		.uleb128 0x12
 3744 00d6 01       		.uleb128 0x1
 3745 00d7 01       		.byte	0x1
 3746 00d8 49       		.uleb128 0x49
 3747 00d9 13       		.uleb128 0x13
 3748 00da 01       		.uleb128 0x1
 3749 00db 13       		.uleb128 0x13
 3750 00dc 00       		.byte	0
 3751 00dd 00       		.byte	0
 3752 00de 13       		.uleb128 0x13
 3753 00df 21       		.uleb128 0x21
 3754 00e0 00       		.byte	0
 3755 00e1 49       		.uleb128 0x49
 3756 00e2 13       		.uleb128 0x13
 3757 00e3 2F       		.uleb128 0x2f
ARM GAS  /tmp/ccfeOUca.s 			page 125


 3758 00e4 0B       		.uleb128 0xb
 3759 00e5 00       		.byte	0
 3760 00e6 00       		.byte	0
 3761 00e7 14       		.uleb128 0x14
 3762 00e8 0D       		.uleb128 0xd
 3763 00e9 00       		.byte	0
 3764 00ea 03       		.uleb128 0x3
 3765 00eb 08       		.uleb128 0x8
 3766 00ec 3A       		.uleb128 0x3a
 3767 00ed 0B       		.uleb128 0xb
 3768 00ee 3B       		.uleb128 0x3b
 3769 00ef 0B       		.uleb128 0xb
 3770 00f0 49       		.uleb128 0x49
 3771 00f1 13       		.uleb128 0x13
 3772 00f2 38       		.uleb128 0x38
 3773 00f3 0B       		.uleb128 0xb
 3774 00f4 00       		.byte	0
 3775 00f5 00       		.byte	0
 3776 00f6 15       		.uleb128 0x15
 3777 00f7 13       		.uleb128 0x13
 3778 00f8 01       		.byte	0x1
 3779 00f9 0B       		.uleb128 0xb
 3780 00fa 0B       		.uleb128 0xb
 3781 00fb 3A       		.uleb128 0x3a
 3782 00fc 0B       		.uleb128 0xb
 3783 00fd 3B       		.uleb128 0x3b
 3784 00fe 05       		.uleb128 0x5
 3785 00ff 01       		.uleb128 0x1
 3786 0100 13       		.uleb128 0x13
 3787 0101 00       		.byte	0
 3788 0102 00       		.byte	0
 3789 0103 16       		.uleb128 0x16
 3790 0104 16       		.uleb128 0x16
 3791 0105 00       		.byte	0
 3792 0106 03       		.uleb128 0x3
 3793 0107 0E       		.uleb128 0xe
 3794 0108 3A       		.uleb128 0x3a
 3795 0109 0B       		.uleb128 0xb
 3796 010a 3B       		.uleb128 0x3b
 3797 010b 05       		.uleb128 0x5
 3798 010c 49       		.uleb128 0x49
 3799 010d 13       		.uleb128 0x13
 3800 010e 00       		.byte	0
 3801 010f 00       		.byte	0
 3802 0110 17       		.uleb128 0x17
 3803 0111 13       		.uleb128 0x13
 3804 0112 01       		.byte	0x1
 3805 0113 0B       		.uleb128 0xb
 3806 0114 0B       		.uleb128 0xb
 3807 0115 3A       		.uleb128 0x3a
 3808 0116 0B       		.uleb128 0xb
 3809 0117 3B       		.uleb128 0x3b
 3810 0118 0B       		.uleb128 0xb
 3811 0119 01       		.uleb128 0x1
 3812 011a 13       		.uleb128 0x13
 3813 011b 00       		.byte	0
 3814 011c 00       		.byte	0
ARM GAS  /tmp/ccfeOUca.s 			page 126


 3815 011d 18       		.uleb128 0x18
 3816 011e 13       		.uleb128 0x13
 3817 011f 01       		.byte	0x1
 3818 0120 0B       		.uleb128 0xb
 3819 0121 05       		.uleb128 0x5
 3820 0122 3A       		.uleb128 0x3a
 3821 0123 0B       		.uleb128 0xb
 3822 0124 3B       		.uleb128 0x3b
 3823 0125 0B       		.uleb128 0xb
 3824 0126 01       		.uleb128 0x1
 3825 0127 13       		.uleb128 0x13
 3826 0128 00       		.byte	0
 3827 0129 00       		.byte	0
 3828 012a 19       		.uleb128 0x19
 3829 012b 17       		.uleb128 0x17
 3830 012c 01       		.byte	0x1
 3831 012d 0B       		.uleb128 0xb
 3832 012e 0B       		.uleb128 0xb
 3833 012f 3A       		.uleb128 0x3a
 3834 0130 0B       		.uleb128 0xb
 3835 0131 3B       		.uleb128 0x3b
 3836 0132 0B       		.uleb128 0xb
 3837 0133 01       		.uleb128 0x1
 3838 0134 13       		.uleb128 0x13
 3839 0135 00       		.byte	0
 3840 0136 00       		.byte	0
 3841 0137 1A       		.uleb128 0x1a
 3842 0138 0D       		.uleb128 0xd
 3843 0139 00       		.byte	0
 3844 013a 03       		.uleb128 0x3
 3845 013b 0E       		.uleb128 0xe
 3846 013c 3A       		.uleb128 0x3a
 3847 013d 0B       		.uleb128 0xb
 3848 013e 3B       		.uleb128 0x3b
 3849 013f 05       		.uleb128 0x5
 3850 0140 49       		.uleb128 0x49
 3851 0141 13       		.uleb128 0x13
 3852 0142 00       		.byte	0
 3853 0143 00       		.byte	0
 3854 0144 1B       		.uleb128 0x1b
 3855 0145 26       		.uleb128 0x26
 3856 0146 00       		.byte	0
 3857 0147 49       		.uleb128 0x49
 3858 0148 13       		.uleb128 0x13
 3859 0149 00       		.byte	0
 3860 014a 00       		.byte	0
 3861 014b 1C       		.uleb128 0x1c
 3862 014c 15       		.uleb128 0x15
 3863 014d 00       		.byte	0
 3864 014e 27       		.uleb128 0x27
 3865 014f 19       		.uleb128 0x19
 3866 0150 00       		.byte	0
 3867 0151 00       		.byte	0
 3868 0152 1D       		.uleb128 0x1d
 3869 0153 2E       		.uleb128 0x2e
 3870 0154 01       		.byte	0x1
 3871 0155 03       		.uleb128 0x3
ARM GAS  /tmp/ccfeOUca.s 			page 127


 3872 0156 0E       		.uleb128 0xe
 3873 0157 3A       		.uleb128 0x3a
 3874 0158 0B       		.uleb128 0xb
 3875 0159 3B       		.uleb128 0x3b
 3876 015a 05       		.uleb128 0x5
 3877 015b 27       		.uleb128 0x27
 3878 015c 19       		.uleb128 0x19
 3879 015d 20       		.uleb128 0x20
 3880 015e 0B       		.uleb128 0xb
 3881 015f 01       		.uleb128 0x1
 3882 0160 13       		.uleb128 0x13
 3883 0161 00       		.byte	0
 3884 0162 00       		.byte	0
 3885 0163 1E       		.uleb128 0x1e
 3886 0164 05       		.uleb128 0x5
 3887 0165 00       		.byte	0
 3888 0166 03       		.uleb128 0x3
 3889 0167 0E       		.uleb128 0xe
 3890 0168 3A       		.uleb128 0x3a
 3891 0169 0B       		.uleb128 0xb
 3892 016a 3B       		.uleb128 0x3b
 3893 016b 05       		.uleb128 0x5
 3894 016c 49       		.uleb128 0x49
 3895 016d 13       		.uleb128 0x13
 3896 016e 00       		.byte	0
 3897 016f 00       		.byte	0
 3898 0170 1F       		.uleb128 0x1f
 3899 0171 2E       		.uleb128 0x2e
 3900 0172 01       		.byte	0x1
 3901 0173 03       		.uleb128 0x3
 3902 0174 0E       		.uleb128 0xe
 3903 0175 3A       		.uleb128 0x3a
 3904 0176 0B       		.uleb128 0xb
 3905 0177 3B       		.uleb128 0x3b
 3906 0178 05       		.uleb128 0x5
 3907 0179 27       		.uleb128 0x27
 3908 017a 19       		.uleb128 0x19
 3909 017b 11       		.uleb128 0x11
 3910 017c 01       		.uleb128 0x1
 3911 017d 12       		.uleb128 0x12
 3912 017e 06       		.uleb128 0x6
 3913 017f 40       		.uleb128 0x40
 3914 0180 18       		.uleb128 0x18
 3915 0181 9742     		.uleb128 0x2117
 3916 0183 19       		.uleb128 0x19
 3917 0184 01       		.uleb128 0x1
 3918 0185 13       		.uleb128 0x13
 3919 0186 00       		.byte	0
 3920 0187 00       		.byte	0
 3921 0188 20       		.uleb128 0x20
 3922 0189 1D       		.uleb128 0x1d
 3923 018a 01       		.byte	0x1
 3924 018b 31       		.uleb128 0x31
 3925 018c 13       		.uleb128 0x13
 3926 018d 11       		.uleb128 0x11
 3927 018e 01       		.uleb128 0x1
 3928 018f 12       		.uleb128 0x12
ARM GAS  /tmp/ccfeOUca.s 			page 128


 3929 0190 06       		.uleb128 0x6
 3930 0191 58       		.uleb128 0x58
 3931 0192 0B       		.uleb128 0xb
 3932 0193 59       		.uleb128 0x59
 3933 0194 05       		.uleb128 0x5
 3934 0195 00       		.byte	0
 3935 0196 00       		.byte	0
 3936 0197 21       		.uleb128 0x21
 3937 0198 05       		.uleb128 0x5
 3938 0199 00       		.byte	0
 3939 019a 31       		.uleb128 0x31
 3940 019b 13       		.uleb128 0x13
 3941 019c 02       		.uleb128 0x2
 3942 019d 18       		.uleb128 0x18
 3943 019e 00       		.byte	0
 3944 019f 00       		.byte	0
 3945 01a0 22       		.uleb128 0x22
 3946 01a1 2E       		.uleb128 0x2e
 3947 01a2 00       		.byte	0
 3948 01a3 03       		.uleb128 0x3
 3949 01a4 0E       		.uleb128 0xe
 3950 01a5 3A       		.uleb128 0x3a
 3951 01a6 0B       		.uleb128 0xb
 3952 01a7 3B       		.uleb128 0x3b
 3953 01a8 0B       		.uleb128 0xb
 3954 01a9 27       		.uleb128 0x27
 3955 01aa 19       		.uleb128 0x19
 3956 01ab 49       		.uleb128 0x49
 3957 01ac 13       		.uleb128 0x13
 3958 01ad 11       		.uleb128 0x11
 3959 01ae 01       		.uleb128 0x1
 3960 01af 12       		.uleb128 0x12
 3961 01b0 06       		.uleb128 0x6
 3962 01b1 40       		.uleb128 0x40
 3963 01b2 18       		.uleb128 0x18
 3964 01b3 9742     		.uleb128 0x2117
 3965 01b5 19       		.uleb128 0x19
 3966 01b6 00       		.byte	0
 3967 01b7 00       		.byte	0
 3968 01b8 23       		.uleb128 0x23
 3969 01b9 2E       		.uleb128 0x2e
 3970 01ba 00       		.byte	0
 3971 01bb 03       		.uleb128 0x3
 3972 01bc 0E       		.uleb128 0xe
 3973 01bd 3A       		.uleb128 0x3a
 3974 01be 0B       		.uleb128 0xb
 3975 01bf 3B       		.uleb128 0x3b
 3976 01c0 0B       		.uleb128 0xb
 3977 01c1 27       		.uleb128 0x27
 3978 01c2 19       		.uleb128 0x19
 3979 01c3 49       		.uleb128 0x49
 3980 01c4 13       		.uleb128 0x13
 3981 01c5 11       		.uleb128 0x11
 3982 01c6 01       		.uleb128 0x1
 3983 01c7 12       		.uleb128 0x12
 3984 01c8 06       		.uleb128 0x6
 3985 01c9 40       		.uleb128 0x40
ARM GAS  /tmp/ccfeOUca.s 			page 129


 3986 01ca 18       		.uleb128 0x18
 3987 01cb 9642     		.uleb128 0x2116
 3988 01cd 19       		.uleb128 0x19
 3989 01ce 00       		.byte	0
 3990 01cf 00       		.byte	0
 3991 01d0 24       		.uleb128 0x24
 3992 01d1 2E       		.uleb128 0x2e
 3993 01d2 00       		.byte	0
 3994 01d3 03       		.uleb128 0x3
 3995 01d4 0E       		.uleb128 0xe
 3996 01d5 3A       		.uleb128 0x3a
 3997 01d6 0B       		.uleb128 0xb
 3998 01d7 3B       		.uleb128 0x3b
 3999 01d8 05       		.uleb128 0x5
 4000 01d9 27       		.uleb128 0x27
 4001 01da 19       		.uleb128 0x19
 4002 01db 11       		.uleb128 0x11
 4003 01dc 01       		.uleb128 0x1
 4004 01dd 12       		.uleb128 0x12
 4005 01de 06       		.uleb128 0x6
 4006 01df 40       		.uleb128 0x40
 4007 01e0 18       		.uleb128 0x18
 4008 01e1 9642     		.uleb128 0x2116
 4009 01e3 19       		.uleb128 0x19
 4010 01e4 00       		.byte	0
 4011 01e5 00       		.byte	0
 4012 01e6 25       		.uleb128 0x25
 4013 01e7 2E       		.uleb128 0x2e
 4014 01e8 01       		.byte	0x1
 4015 01e9 03       		.uleb128 0x3
 4016 01ea 0E       		.uleb128 0xe
 4017 01eb 3A       		.uleb128 0x3a
 4018 01ec 0B       		.uleb128 0xb
 4019 01ed 3B       		.uleb128 0x3b
 4020 01ee 05       		.uleb128 0x5
 4021 01ef 27       		.uleb128 0x27
 4022 01f0 19       		.uleb128 0x19
 4023 01f1 11       		.uleb128 0x11
 4024 01f2 01       		.uleb128 0x1
 4025 01f3 12       		.uleb128 0x12
 4026 01f4 06       		.uleb128 0x6
 4027 01f5 40       		.uleb128 0x40
 4028 01f6 18       		.uleb128 0x18
 4029 01f7 9642     		.uleb128 0x2116
 4030 01f9 19       		.uleb128 0x19
 4031 01fa 01       		.uleb128 0x1
 4032 01fb 13       		.uleb128 0x13
 4033 01fc 00       		.byte	0
 4034 01fd 00       		.byte	0
 4035 01fe 26       		.uleb128 0x26
 4036 01ff 34       		.uleb128 0x34
 4037 0200 00       		.byte	0
 4038 0201 03       		.uleb128 0x3
 4039 0202 0E       		.uleb128 0xe
 4040 0203 49       		.uleb128 0x49
 4041 0204 13       		.uleb128 0x13
 4042 0205 34       		.uleb128 0x34
ARM GAS  /tmp/ccfeOUca.s 			page 130


 4043 0206 19       		.uleb128 0x19
 4044 0207 02       		.uleb128 0x2
 4045 0208 18       		.uleb128 0x18
 4046 0209 00       		.byte	0
 4047 020a 00       		.byte	0
 4048 020b 27       		.uleb128 0x27
 4049 020c 2E       		.uleb128 0x2e
 4050 020d 01       		.byte	0x1
 4051 020e 03       		.uleb128 0x3
 4052 020f 0E       		.uleb128 0xe
 4053 0210 3A       		.uleb128 0x3a
 4054 0211 0B       		.uleb128 0xb
 4055 0212 3B       		.uleb128 0x3b
 4056 0213 0B       		.uleb128 0xb
 4057 0214 27       		.uleb128 0x27
 4058 0215 19       		.uleb128 0x19
 4059 0216 49       		.uleb128 0x49
 4060 0217 13       		.uleb128 0x13
 4061 0218 11       		.uleb128 0x11
 4062 0219 01       		.uleb128 0x1
 4063 021a 12       		.uleb128 0x12
 4064 021b 06       		.uleb128 0x6
 4065 021c 40       		.uleb128 0x40
 4066 021d 18       		.uleb128 0x18
 4067 021e 9642     		.uleb128 0x2116
 4068 0220 19       		.uleb128 0x19
 4069 0221 01       		.uleb128 0x1
 4070 0222 13       		.uleb128 0x13
 4071 0223 00       		.byte	0
 4072 0224 00       		.byte	0
 4073 0225 28       		.uleb128 0x28
 4074 0226 34       		.uleb128 0x34
 4075 0227 00       		.byte	0
 4076 0228 03       		.uleb128 0x3
 4077 0229 0E       		.uleb128 0xe
 4078 022a 3A       		.uleb128 0x3a
 4079 022b 0B       		.uleb128 0xb
 4080 022c 3B       		.uleb128 0x3b
 4081 022d 0B       		.uleb128 0xb
 4082 022e 49       		.uleb128 0x49
 4083 022f 13       		.uleb128 0x13
 4084 0230 02       		.uleb128 0x2
 4085 0231 18       		.uleb128 0x18
 4086 0232 00       		.byte	0
 4087 0233 00       		.byte	0
 4088 0234 29       		.uleb128 0x29
 4089 0235 2E       		.uleb128 0x2e
 4090 0236 01       		.byte	0x1
 4091 0237 03       		.uleb128 0x3
 4092 0238 0E       		.uleb128 0xe
 4093 0239 3A       		.uleb128 0x3a
 4094 023a 0B       		.uleb128 0xb
 4095 023b 3B       		.uleb128 0x3b
 4096 023c 0B       		.uleb128 0xb
 4097 023d 27       		.uleb128 0x27
 4098 023e 19       		.uleb128 0x19
 4099 023f 11       		.uleb128 0x11
ARM GAS  /tmp/ccfeOUca.s 			page 131


 4100 0240 01       		.uleb128 0x1
 4101 0241 12       		.uleb128 0x12
 4102 0242 06       		.uleb128 0x6
 4103 0243 40       		.uleb128 0x40
 4104 0244 18       		.uleb128 0x18
 4105 0245 9642     		.uleb128 0x2116
 4106 0247 19       		.uleb128 0x19
 4107 0248 01       		.uleb128 0x1
 4108 0249 13       		.uleb128 0x13
 4109 024a 00       		.byte	0
 4110 024b 00       		.byte	0
 4111 024c 2A       		.uleb128 0x2a
 4112 024d 05       		.uleb128 0x5
 4113 024e 00       		.byte	0
 4114 024f 03       		.uleb128 0x3
 4115 0250 08       		.uleb128 0x8
 4116 0251 3A       		.uleb128 0x3a
 4117 0252 0B       		.uleb128 0xb
 4118 0253 3B       		.uleb128 0x3b
 4119 0254 0B       		.uleb128 0xb
 4120 0255 49       		.uleb128 0x49
 4121 0256 13       		.uleb128 0x13
 4122 0257 02       		.uleb128 0x2
 4123 0258 18       		.uleb128 0x18
 4124 0259 00       		.byte	0
 4125 025a 00       		.byte	0
 4126 025b 2B       		.uleb128 0x2b
 4127 025c 2E       		.uleb128 0x2e
 4128 025d 00       		.byte	0
 4129 025e 03       		.uleb128 0x3
 4130 025f 0E       		.uleb128 0xe
 4131 0260 3A       		.uleb128 0x3a
 4132 0261 0B       		.uleb128 0xb
 4133 0262 3B       		.uleb128 0x3b
 4134 0263 0B       		.uleb128 0xb
 4135 0264 27       		.uleb128 0x27
 4136 0265 19       		.uleb128 0x19
 4137 0266 11       		.uleb128 0x11
 4138 0267 01       		.uleb128 0x1
 4139 0268 12       		.uleb128 0x12
 4140 0269 06       		.uleb128 0x6
 4141 026a 40       		.uleb128 0x40
 4142 026b 18       		.uleb128 0x18
 4143 026c 9642     		.uleb128 0x2116
 4144 026e 19       		.uleb128 0x19
 4145 026f 00       		.byte	0
 4146 0270 00       		.byte	0
 4147 0271 2C       		.uleb128 0x2c
 4148 0272 34       		.uleb128 0x34
 4149 0273 00       		.byte	0
 4150 0274 03       		.uleb128 0x3
 4151 0275 08       		.uleb128 0x8
 4152 0276 3A       		.uleb128 0x3a
 4153 0277 0B       		.uleb128 0xb
 4154 0278 3B       		.uleb128 0x3b
 4155 0279 0B       		.uleb128 0xb
 4156 027a 49       		.uleb128 0x49
ARM GAS  /tmp/ccfeOUca.s 			page 132


 4157 027b 13       		.uleb128 0x13
 4158 027c 02       		.uleb128 0x2
 4159 027d 18       		.uleb128 0x18
 4160 027e 00       		.byte	0
 4161 027f 00       		.byte	0
 4162 0280 2D       		.uleb128 0x2d
 4163 0281 34       		.uleb128 0x34
 4164 0282 00       		.byte	0
 4165 0283 03       		.uleb128 0x3
 4166 0284 0E       		.uleb128 0xe
 4167 0285 3A       		.uleb128 0x3a
 4168 0286 0B       		.uleb128 0xb
 4169 0287 3B       		.uleb128 0x3b
 4170 0288 05       		.uleb128 0x5
 4171 0289 49       		.uleb128 0x49
 4172 028a 13       		.uleb128 0x13
 4173 028b 3F       		.uleb128 0x3f
 4174 028c 19       		.uleb128 0x19
 4175 028d 3C       		.uleb128 0x3c
 4176 028e 19       		.uleb128 0x19
 4177 028f 00       		.byte	0
 4178 0290 00       		.byte	0
 4179 0291 2E       		.uleb128 0x2e
 4180 0292 34       		.uleb128 0x34
 4181 0293 00       		.byte	0
 4182 0294 03       		.uleb128 0x3
 4183 0295 08       		.uleb128 0x8
 4184 0296 3A       		.uleb128 0x3a
 4185 0297 0B       		.uleb128 0xb
 4186 0298 3B       		.uleb128 0x3b
 4187 0299 05       		.uleb128 0x5
 4188 029a 49       		.uleb128 0x49
 4189 029b 13       		.uleb128 0x13
 4190 029c 3F       		.uleb128 0x3f
 4191 029d 19       		.uleb128 0x19
 4192 029e 3C       		.uleb128 0x3c
 4193 029f 19       		.uleb128 0x19
 4194 02a0 00       		.byte	0
 4195 02a1 00       		.byte	0
 4196 02a2 2F       		.uleb128 0x2f
 4197 02a3 34       		.uleb128 0x34
 4198 02a4 00       		.byte	0
 4199 02a5 03       		.uleb128 0x3
 4200 02a6 0E       		.uleb128 0xe
 4201 02a7 3A       		.uleb128 0x3a
 4202 02a8 0B       		.uleb128 0xb
 4203 02a9 3B       		.uleb128 0x3b
 4204 02aa 0B       		.uleb128 0xb
 4205 02ab 49       		.uleb128 0x49
 4206 02ac 13       		.uleb128 0x13
 4207 02ad 3F       		.uleb128 0x3f
 4208 02ae 19       		.uleb128 0x19
 4209 02af 3C       		.uleb128 0x3c
 4210 02b0 19       		.uleb128 0x19
 4211 02b1 00       		.byte	0
 4212 02b2 00       		.byte	0
 4213 02b3 30       		.uleb128 0x30
ARM GAS  /tmp/ccfeOUca.s 			page 133


 4214 02b4 21       		.uleb128 0x21
 4215 02b5 00       		.byte	0
 4216 02b6 00       		.byte	0
 4217 02b7 00       		.byte	0
 4218 02b8 31       		.uleb128 0x31
 4219 02b9 34       		.uleb128 0x34
 4220 02ba 00       		.byte	0
 4221 02bb 03       		.uleb128 0x3
 4222 02bc 08       		.uleb128 0x8
 4223 02bd 3A       		.uleb128 0x3a
 4224 02be 0B       		.uleb128 0xb
 4225 02bf 3B       		.uleb128 0x3b
 4226 02c0 0B       		.uleb128 0xb
 4227 02c1 49       		.uleb128 0x49
 4228 02c2 13       		.uleb128 0x13
 4229 02c3 3F       		.uleb128 0x3f
 4230 02c4 19       		.uleb128 0x19
 4231 02c5 3C       		.uleb128 0x3c
 4232 02c6 19       		.uleb128 0x19
 4233 02c7 00       		.byte	0
 4234 02c8 00       		.byte	0
 4235 02c9 32       		.uleb128 0x32
 4236 02ca 34       		.uleb128 0x34
 4237 02cb 00       		.byte	0
 4238 02cc 03       		.uleb128 0x3
 4239 02cd 0E       		.uleb128 0xe
 4240 02ce 3A       		.uleb128 0x3a
 4241 02cf 0B       		.uleb128 0xb
 4242 02d0 3B       		.uleb128 0x3b
 4243 02d1 0B       		.uleb128 0xb
 4244 02d2 49       		.uleb128 0x49
 4245 02d3 13       		.uleb128 0x13
 4246 02d4 3F       		.uleb128 0x3f
 4247 02d5 19       		.uleb128 0x19
 4248 02d6 02       		.uleb128 0x2
 4249 02d7 18       		.uleb128 0x18
 4250 02d8 00       		.byte	0
 4251 02d9 00       		.byte	0
 4252 02da 00       		.byte	0
 4253              		.section	.debug_aranges,"",%progbits
 4254 0000 8C000000 		.4byte	0x8c
 4255 0004 0200     		.2byte	0x2
 4256 0006 00000000 		.4byte	.Ldebug_info0
 4257 000a 04       		.byte	0x4
 4258 000b 00       		.byte	0
 4259 000c 0000     		.2byte	0
 4260 000e 0000     		.2byte	0
 4261 0010 00000000 		.4byte	.LFB127
 4262 0014 10000000 		.4byte	.LFE127-.LFB127
 4263 0018 00000000 		.4byte	.LFB128
 4264 001c 10000000 		.4byte	.LFE128-.LFB128
 4265 0020 00000000 		.4byte	.LFB136
 4266 0024 0A000000 		.4byte	.LFE136-.LFB136
 4267 0028 00000000 		.4byte	.LFB145
 4268 002c 0C000000 		.4byte	.LFE145-.LFB145
 4269 0030 00000000 		.4byte	.LFB167
 4270 0034 10000000 		.4byte	.LFE167-.LFB167
ARM GAS  /tmp/ccfeOUca.s 			page 134


 4271 0038 00000000 		.4byte	.LFB168
 4272 003c 4E000000 		.4byte	.LFE168-.LFB168
 4273 0040 00000000 		.4byte	.LFB175
 4274 0044 0C000000 		.4byte	.LFE175-.LFB175
 4275 0048 00000000 		.4byte	.LFB176
 4276 004c 1C000000 		.4byte	.LFE176-.LFB176
 4277 0050 00000000 		.4byte	.LFB189
 4278 0054 0E000000 		.4byte	.LFE189-.LFB189
 4279 0058 00000000 		.4byte	.LFB190
 4280 005c 0E000000 		.4byte	.LFE190-.LFB190
 4281 0060 00000000 		.4byte	.LFB241
 4282 0064 16000000 		.4byte	.LFE241-.LFB241
 4283 0068 00000000 		.4byte	.LFB242
 4284 006c 44010000 		.4byte	.LFE242-.LFB242
 4285 0070 00000000 		.4byte	.LFB243
 4286 0074 5C010000 		.4byte	.LFE243-.LFB243
 4287 0078 00000000 		.4byte	.LFB244
 4288 007c EA010000 		.4byte	.LFE244-.LFB244
 4289 0080 00000000 		.4byte	.LFB245
 4290 0084 BE000000 		.4byte	.LFE245-.LFB245
 4291 0088 00000000 		.4byte	0
 4292 008c 00000000 		.4byte	0
 4293              		.section	.debug_ranges,"",%progbits
 4294              	.Ldebug_ranges0:
 4295 0000 00000000 		.4byte	.LFB127
 4296 0004 10000000 		.4byte	.LFE127
 4297 0008 00000000 		.4byte	.LFB128
 4298 000c 10000000 		.4byte	.LFE128
 4299 0010 00000000 		.4byte	.LFB136
 4300 0014 0A000000 		.4byte	.LFE136
 4301 0018 00000000 		.4byte	.LFB145
 4302 001c 0C000000 		.4byte	.LFE145
 4303 0020 00000000 		.4byte	.LFB167
 4304 0024 10000000 		.4byte	.LFE167
 4305 0028 00000000 		.4byte	.LFB168
 4306 002c 4E000000 		.4byte	.LFE168
 4307 0030 00000000 		.4byte	.LFB175
 4308 0034 0C000000 		.4byte	.LFE175
 4309 0038 00000000 		.4byte	.LFB176
 4310 003c 1C000000 		.4byte	.LFE176
 4311 0040 00000000 		.4byte	.LFB189
 4312 0044 0E000000 		.4byte	.LFE189
 4313 0048 00000000 		.4byte	.LFB190
 4314 004c 0E000000 		.4byte	.LFE190
 4315 0050 00000000 		.4byte	.LFB241
 4316 0054 16000000 		.4byte	.LFE241
 4317 0058 00000000 		.4byte	.LFB242
 4318 005c 44010000 		.4byte	.LFE242
 4319 0060 00000000 		.4byte	.LFB243
 4320 0064 5C010000 		.4byte	.LFE243
 4321 0068 00000000 		.4byte	.LFB244
 4322 006c EA010000 		.4byte	.LFE244
 4323 0070 00000000 		.4byte	.LFB245
 4324 0074 BE000000 		.4byte	.LFE245
 4325 0078 00000000 		.4byte	0
 4326 007c 00000000 		.4byte	0
 4327              		.section	.debug_line,"",%progbits
ARM GAS  /tmp/ccfeOUca.s 			page 135


 4328              	.Ldebug_line0:
 4329 0000 9A040000 		.section	.debug_str,"MS",%progbits,1
 4329      02009202 
 4329      00000201 
 4329      FB0E0D00 
 4329      01010101 
 4330              	.LASF108:
 4331 0000 74625F70 		.ascii	"tb_ptr\000"
 4331      747200
 4332              	.LASF55:
 4333 0007 72656164 		.ascii	"ready_list_t\000"
 4333      795F6C69 
 4333      73745F74 
 4333      00
 4334              	.LASF93:
 4335 0014 44494552 		.ascii	"DIER\000"
 4335      00
 4336              	.LASF2:
 4337 0019 73697A65 		.ascii	"size_t\000"
 4337      5F7400
 4338              	.LASF123:
 4339 0020 7264796D 		.ascii	"rdymsg\000"
 4339      736700
 4340              	.LASF17:
 4341 0027 75696E74 		.ascii	"uint64_t\000"
 4341      36345F74 
 4341      00
 4342              	.LASF85:
 4343 0030 6B65726E 		.ascii	"kernel_stats\000"
 4343      656C5F73 
 4343      74617473 
 4343      00
 4344              	.LASF3:
 4345 003d 5F5F7569 		.ascii	"__uint8_t\000"
 4345      6E74385F 
 4345      7400
 4346              	.LASF91:
 4347 0047 706F7274 		.ascii	"port_intctx\000"
 4347      5F696E74 
 4347      63747800 
 4348              	.LASF54:
 4349 0053 63685F74 		.ascii	"ch_threads_queue\000"
 4349      68726561 
 4349      64735F71 
 4349      75657565 
 4349      00
 4350              	.LASF74:
 4351 0064 73797374 		.ascii	"system_debug_t\000"
 4351      656D5F64 
 4351      65627567 
 4351      5F7400
 4352              	.LASF144:
 4353 0073 706F7274 		.ascii	"port_lock\000"
 4353      5F6C6F63 
 4353      6B00
 4354              	.LASF114:
 4355 007d 776F7273 		.ascii	"worst\000"
ARM GAS  /tmp/ccfeOUca.s 			page 136


 4355      7400
 4356              	.LASF117:
 4357 0083 74696D65 		.ascii	"time_measurement_t\000"
 4357      5F6D6561 
 4357      73757265 
 4357      6D656E74 
 4357      5F7400
 4358              	.LASF13:
 4359 0096 6C6F6E67 		.ascii	"long long unsigned int\000"
 4359      206C6F6E 
 4359      6720756E 
 4359      7369676E 
 4359      65642069 
 4360              	.LASF110:
 4361 00ad 63685F74 		.ascii	"ch_trace_buffer_t\000"
 4361      72616365 
 4361      5F627566 
 4361      6665725F 
 4361      7400
 4362              	.LASF105:
 4363 00bf 73655F73 		.ascii	"se_state\000"
 4363      74617465 
 4363      00
 4364              	.LASF124:
 4365 00c8 65786974 		.ascii	"exitcode\000"
 4365      636F6465 
 4365      00
 4366              	.LASF84:
 4367 00d1 6D61696E 		.ascii	"mainthread\000"
 4367      74687265 
 4367      616400
 4368              	.LASF71:
 4369 00dc 76697274 		.ascii	"virtual_timers_list_t\000"
 4369      75616C5F 
 4369      74696D65 
 4369      72735F6C 
 4369      6973745F 
 4370              	.LASF161:
 4371 00f2 49544D5F 		.ascii	"ITM_RxBuffer\000"
 4371      52784275 
 4371      66666572 
 4371      00
 4372              	.LASF97:
 4373 00ff 42445452 		.ascii	"BDTR\000"
 4373      00
 4374              	.LASF19:
 4375 0104 72747469 		.ascii	"rttime_t\000"
 4375      6D655F74 
 4375      00
 4376              	.LASF32:
 4377 010d 705F7072 		.ascii	"p_prio\000"
 4377      696F00
 4378              	.LASF94:
 4379 0114 43434D52 		.ascii	"CCMR1\000"
 4379      3100
 4380              	.LASF95:
 4381 011a 43434D52 		.ascii	"CCMR2\000"
ARM GAS  /tmp/ccfeOUca.s 			page 137


 4381      3200
 4382              	.LASF99:
 4383 0120 43434D52 		.ascii	"CCMR3\000"
 4383      3300
 4384              	.LASF1:
 4385 0126 7369676E 		.ascii	"signed char\000"
 4385      65642063 
 4385      68617200 
 4386              	.LASF170:
 4387 0132 2F686F6D 		.ascii	"/home/jerker/git/AutoTux/stm32\000"
 4387      652F6A65 
 4387      726B6572 
 4387      2F676974 
 4387      2F417574 
 4388              	.LASF102:
 4389 0151 73655F74 		.ascii	"se_time\000"
 4389      696D6500 
 4390              	.LASF134:
 4391 0159 6D5F7175 		.ascii	"m_queue\000"
 4391      65756500 
 4392              	.LASF83:
 4393 0161 76746C69 		.ascii	"vtlist\000"
 4393      737400
 4394              	.LASF145:
 4395 0168 706F7274 		.ascii	"port_unlock\000"
 4395      5F756E6C 
 4395      6F636B00 
 4396              	.LASF126:
 4397 0174 77747472 		.ascii	"wttrp\000"
 4397      7000
 4398              	.LASF81:
 4399 017a 63685F73 		.ascii	"ch_system\000"
 4399      79737465 
 4399      6D00
 4400              	.LASF8:
 4401 0184 6C6F6E67 		.ascii	"long int\000"
 4401      20696E74 
 4401      00
 4402              	.LASF21:
 4403 018d 74737461 		.ascii	"tstate_t\000"
 4403      74655F74 
 4403      00
 4404              	.LASF96:
 4405 0196 43434552 		.ascii	"CCER\000"
 4405      00
 4406              	.LASF103:
 4407 019b 73655F74 		.ascii	"se_tp\000"
 4407      7000
 4408              	.LASF11:
 4409 01a1 6C6F6E67 		.ascii	"long long int\000"
 4409      206C6F6E 
 4409      6720696E 
 4409      7400
 4410              	.LASF165:
 4411 01af 74657374 		.ascii	"testthd3\000"
 4411      74686433 
 4411      00
ARM GAS  /tmp/ccfeOUca.s 			page 138


 4412              	.LASF34:
 4413 01b8 705F6E65 		.ascii	"p_newer\000"
 4413      77657200 
 4414              	.LASF131:
 4415 01c0 735F7175 		.ascii	"s_queue\000"
 4415      65756500 
 4416              	.LASF6:
 4417 01c8 73686F72 		.ascii	"short unsigned int\000"
 4417      7420756E 
 4417      7369676E 
 4417      65642069 
 4417      6E7400
 4418              	.LASF107:
 4419 01db 74625F73 		.ascii	"tb_size\000"
 4419      697A6500 
 4420              	.LASF60:
 4421 01e3 725F6E65 		.ascii	"r_newer\000"
 4421      77657200 
 4422              	.LASF47:
 4423 01eb 705F6D70 		.ascii	"p_mpool\000"
 4423      6F6F6C00 
 4424              	.LASF88:
 4425 01f3 72656761 		.ascii	"regarm_t\000"
 4425      726D5F74 
 4425      00
 4426              	.LASF67:
 4427 01fc 76745F70 		.ascii	"vt_prev\000"
 4427      72657600 
 4428              	.LASF154:
 4429 0204 74686431 		.ascii	"thd1_execute\000"
 4429      5F657865 
 4429      63757465 
 4429      00
 4430              	.LASF75:
 4431 0211 63685F73 		.ascii	"ch_system_debug\000"
 4431      79737465 
 4431      6D5F6465 
 4431      62756700 
 4432              	.LASF138:
 4433 0221 6D757465 		.ascii	"mutex_t\000"
 4433      785F7400 
 4434              	.LASF172:
 4435 0229 76616C75 		.ascii	"value\000"
 4435      6500
 4436              	.LASF78:
 4437 022f 6C6F636B 		.ascii	"lock_cnt\000"
 4437      5F636E74 
 4437      00
 4438              	.LASF86:
 4439 0238 69646C65 		.ascii	"idle_thread_wa\000"
 4439      5F746872 
 4439      6561645F 
 4439      776100
 4440              	.LASF26:
 4441 0247 636E745F 		.ascii	"cnt_t\000"
 4441      7400
 4442              	.LASF149:
ARM GAS  /tmp/ccfeOUca.s 			page 139


 4443 024d 63685654 		.ascii	"chVTGetSystemTimeX\000"
 4443      47657453 
 4443      79737465 
 4443      6D54696D 
 4443      655800
 4444              	.LASF37:
 4445 0260 705F7374 		.ascii	"p_stklimit\000"
 4445      6B6C696D 
 4445      697400
 4446              	.LASF0:
 4447 026b 756E7369 		.ascii	"unsigned int\000"
 4447      676E6564 
 4447      20696E74 
 4447      00
 4448              	.LASF155:
 4449 0278 74686432 		.ascii	"thd2_execute\000"
 4449      5F657865 
 4449      63757465 
 4449      00
 4450              	.LASF66:
 4451 0285 76745F6E 		.ascii	"vt_next\000"
 4451      65787400 
 4452              	.LASF127:
 4453 028d 77747365 		.ascii	"wtsemp\000"
 4453      6D7000
 4454              	.LASF42:
 4455 0294 705F6D73 		.ascii	"p_msgqueue\000"
 4455      67717565 
 4455      756500
 4456              	.LASF142:
 4457 029f 74656172 		.ascii	"teardown\000"
 4457      646F776E 
 4457      00
 4458              	.LASF118:
 4459 02a8 6E5F6972 		.ascii	"n_irq\000"
 4459      7100
 4460              	.LASF132:
 4461 02ae 735F636E 		.ascii	"s_cnt\000"
 4461      7400
 4462              	.LASF140:
 4463 02b4 6E616D65 		.ascii	"name\000"
 4463      00
 4464              	.LASF92:
 4465 02b9 534D4352 		.ascii	"SMCR\000"
 4465      00
 4466              	.LASF122:
 4467 02be 6B65726E 		.ascii	"kernel_stats_t\000"
 4467      656C5F73 
 4467      74617473 
 4467      5F7400
 4468              	.LASF51:
 4469 02cd 63685F74 		.ascii	"ch_thread\000"
 4469      68726561 
 4469      6400
 4470              	.LASF24:
 4471 02d7 6D73675F 		.ascii	"msg_t\000"
 4471      7400
ARM GAS  /tmp/ccfeOUca.s 			page 140


 4472              	.LASF115:
 4473 02dd 6C617374 		.ascii	"last\000"
 4473      00
 4474              	.LASF27:
 4475 02e2 75636E74 		.ascii	"ucnt_t\000"
 4475      5F7400
 4476              	.LASF80:
 4477 02e9 63685F73 		.ascii	"ch_system_t\000"
 4477      79737465 
 4477      6D5F7400 
 4478              	.LASF168:
 4479 02f5 474E5520 		.ascii	"GNU C 4.8.2 -mcpu=cortex-m4 -mno-thumb-interwork -m"
 4479      4320342E 
 4479      382E3220 
 4479      2D6D6370 
 4479      753D636F 
 4480 0328 7468756D 		.ascii	"thumb -ggdb -O0 -fomit-frame-pointer -falign-functi"
 4480      62202D67 
 4480      67646220 
 4480      2D4F3020 
 4480      2D666F6D 
 4481 035b 6F6E733D 		.ascii	"ons=16 -ffunction-sections -fdata-sections -fno-com"
 4481      3136202D 
 4481      6666756E 
 4481      6374696F 
 4481      6E2D7365 
 4482 038e 6D6F6E20 		.ascii	"mon -flto\000"
 4482      2D666C74 
 4482      6F00
 4483              	.LASF101:
 4484 0398 73746D33 		.ascii	"stm32_tim_t\000"
 4484      325F7469 
 4484      6D5F7400 
 4485              	.LASF157:
 4486 03a4 73797374 		.ascii	"systime\000"
 4486      696D6500 
 4487              	.LASF121:
 4488 03ac 6D5F6372 		.ascii	"m_crit_isr\000"
 4488      69745F69 
 4488      737200
 4489              	.LASF56:
 4490 03b7 63685F72 		.ascii	"ch_ready_list\000"
 4490      65616479 
 4490      5F6C6973 
 4490      7400
 4491              	.LASF25:
 4492 03c5 6576656E 		.ascii	"eventmask_t\000"
 4492      746D6173 
 4492      6B5F7400 
 4493              	.LASF7:
 4494 03d1 5F5F696E 		.ascii	"__int32_t\000"
 4494      7433325F 
 4494      7400
 4495              	.LASF89:
 4496 03db 73746B61 		.ascii	"stkalign_t\000"
 4496      6C69676E 
 4496      5F7400
ARM GAS  /tmp/ccfeOUca.s 			page 141


 4497              	.LASF112:
 4498 03e6 746D5F63 		.ascii	"tm_calibration_t\000"
 4498      616C6962 
 4498      72617469 
 4498      6F6E5F74 
 4498      00
 4499              	.LASF41:
 4500 03f7 705F7761 		.ascii	"p_waiting\000"
 4500      6974696E 
 4500      6700
 4501              	.LASF87:
 4502 0401 73697A65 		.ascii	"sizetype\000"
 4502      74797065 
 4502      00
 4503              	.LASF163:
 4504 040a 74657374 		.ascii	"testthd1\000"
 4504      74686431 
 4504      00
 4505              	.LASF164:
 4506 0413 74657374 		.ascii	"testthd2\000"
 4506      74686432 
 4506      00
 4507              	.LASF72:
 4508 041c 63685F76 		.ascii	"ch_virtual_timers_list\000"
 4508      69727475 
 4508      616C5F74 
 4508      696D6572 
 4508      735F6C69 
 4509              	.LASF166:
 4510 0433 74657374 		.ascii	"testthd4\000"
 4510      74686434 
 4510      00
 4511              	.LASF106:
 4512 043c 63685F73 		.ascii	"ch_swc_event_t\000"
 4512      77635F65 
 4512      76656E74 
 4512      5F7400
 4513              	.LASF73:
 4514 044b 76745F6C 		.ascii	"vt_lasttime\000"
 4514      61737474 
 4514      696D6500 
 4515              	.LASF35:
 4516 0457 705F6F6C 		.ascii	"p_older\000"
 4516      64657200 
 4517              	.LASF59:
 4518 045f 725F6374 		.ascii	"r_ctx\000"
 4518      7800
 4519              	.LASF151:
 4520 0465 63685468 		.ascii	"chThdGetPriorityX\000"
 4520      64476574 
 4520      5072696F 
 4520      72697479 
 4520      5800
 4521              	.LASF141:
 4522 0477 73657475 		.ascii	"setup\000"
 4522      7000
 4523              	.LASF174:
ARM GAS  /tmp/ccfeOUca.s 			page 142


 4524 047d 63685654 		.ascii	"chVTGetSystemTime\000"
 4524      47657453 
 4524      79737465 
 4524      6D54696D 
 4524      6500
 4525              	.LASF160:
 4526 048f 74696D65 		.ascii	"time\000"
 4526      00
 4527              	.LASF158:
 4528 0494 7072696F 		.ascii	"prio\000"
 4528      00
 4529              	.LASF61:
 4530 0499 725F6F6C 		.ascii	"r_older\000"
 4530      64657200 
 4531              	.LASF12:
 4532 04a1 5F5F7569 		.ascii	"__uint64_t\000"
 4532      6E743634 
 4532      5F7400
 4533              	.LASF116:
 4534 04ac 63756D75 		.ascii	"cumulative\000"
 4534      6C617469 
 4534      766500
 4535              	.LASF173:
 4536 04b7 5F5F6675 		.ascii	"__func__.5915\000"
 4536      6E635F5F 
 4536      2E353931 
 4536      3500
 4537              	.LASF22:
 4538 04c5 74726566 		.ascii	"trefs_t\000"
 4538      735F7400 
 4539              	.LASF109:
 4540 04cd 74625F62 		.ascii	"tb_buffer\000"
 4540      75666665 
 4540      7200
 4541              	.LASF156:
 4542 04d7 74686433 		.ascii	"thd3_execute\000"
 4542      5F657865 
 4542      63757465 
 4542      00
 4543              	.LASF64:
 4544 04e4 76697274 		.ascii	"virtual_timer_t\000"
 4544      75616C5F 
 4544      74696D65 
 4544      725F7400 
 4545              	.LASF31:
 4546 04f4 705F7072 		.ascii	"p_prev\000"
 4546      657600
 4547              	.LASF23:
 4548 04fb 74707269 		.ascii	"tprio_t\000"
 4548      6F5F7400 
 4549              	.LASF152:
 4550 0503 74687265 		.ascii	"thread\000"
 4550      616400
 4551              	.LASF119:
 4552 050a 6E5F6374 		.ascii	"n_ctxswc\000"
 4552      78737763 
 4552      00
ARM GAS  /tmp/ccfeOUca.s 			page 143


 4553              	.LASF15:
 4554 0513 696E7433 		.ascii	"int32_t\000"
 4554      325F7400 
 4555              	.LASF4:
 4556 051b 756E7369 		.ascii	"unsigned char\000"
 4556      676E6564 
 4556      20636861 
 4556      7200
 4557              	.LASF169:
 4558 0529 6C69622F 		.ascii	"lib/ChibiOS_16.1.4//test/rt/testthd.c\000"
 4558      43686962 
 4558      694F535F 
 4558      31362E31 
 4558      2E342F2F 
 4559              	.LASF143:
 4560 054f 65786563 		.ascii	"execute\000"
 4560      75746500 
 4561              	.LASF45:
 4562 0557 705F6D74 		.ascii	"p_mtxlist\000"
 4562      786C6973 
 4562      7400
 4563              	.LASF5:
 4564 0561 73686F72 		.ascii	"short int\000"
 4564      7420696E 
 4564      7400
 4565              	.LASF38:
 4566 056b 705F7374 		.ascii	"p_state\000"
 4566      61746500 
 4567              	.LASF162:
 4568 0573 74687265 		.ascii	"threads\000"
 4568      61647300 
 4569              	.LASF58:
 4570 057b 725F7072 		.ascii	"r_prio\000"
 4570      696F00
 4571              	.LASF129:
 4572 0582 65776D61 		.ascii	"ewmask\000"
 4572      736B00
 4573              	.LASF30:
 4574 0589 705F6E65 		.ascii	"p_next\000"
 4574      787400
 4575              	.LASF39:
 4576 0590 705F666C 		.ascii	"p_flags\000"
 4576      61677300 
 4577              	.LASF48:
 4578 0598 705F7374 		.ascii	"p_stats\000"
 4578      61747300 
 4579              	.LASF153:
 4580 05a0 63685379 		.ascii	"chSysLock\000"
 4580      734C6F63 
 4580      6B00
 4581              	.LASF65:
 4582 05aa 63685F76 		.ascii	"ch_virtual_timer\000"
 4582      69727475 
 4582      616C5F74 
 4582      696D6572 
 4582      00
 4583              	.LASF139:
ARM GAS  /tmp/ccfeOUca.s 			page 144


 4584 05bb 74657374 		.ascii	"testcase\000"
 4584      63617365 
 4584      00
 4585              	.LASF130:
 4586 05c4 63685F73 		.ascii	"ch_semaphore\000"
 4586      656D6170 
 4586      686F7265 
 4586      00
 4587              	.LASF100:
 4588 05d1 43435852 		.ascii	"CCXR\000"
 4588      00
 4589              	.LASF44:
 4590 05d6 705F6570 		.ascii	"p_epending\000"
 4590      656E6469 
 4590      6E6700
 4591              	.LASF146:
 4592 05e1 73745F6C 		.ascii	"st_lld_get_counter\000"
 4592      6C645F67 
 4592      65745F63 
 4592      6F756E74 
 4592      657200
 4593              	.LASF16:
 4594 05f4 75696E74 		.ascii	"uint32_t\000"
 4594      33325F74 
 4594      00
 4595              	.LASF128:
 4596 05fd 77746D74 		.ascii	"wtmtxp\000"
 4596      787000
 4597              	.LASF57:
 4598 0604 725F7175 		.ascii	"r_queue\000"
 4598      65756500 
 4599              	.LASF68:
 4600 060c 76745F64 		.ascii	"vt_delta\000"
 4600      656C7461 
 4600      00
 4601              	.LASF52:
 4602 0615 63685F74 		.ascii	"ch_threads_list\000"
 4602      68726561 
 4602      64735F6C 
 4602      69737400 
 4603              	.LASF10:
 4604 0625 6C6F6E67 		.ascii	"long unsigned int\000"
 4604      20756E73 
 4604      69676E65 
 4604      6420696E 
 4604      7400
 4605              	.LASF62:
 4606 0637 725F6375 		.ascii	"r_current\000"
 4606      7272656E 
 4606      7400
 4607              	.LASF137:
 4608 0641 63686172 		.ascii	"char\000"
 4608      00
 4609              	.LASF159:
 4610 0646 74686434 		.ascii	"thd4_execute\000"
 4610      5F657865 
 4610      63757465 
ARM GAS  /tmp/ccfeOUca.s 			page 145


 4610      00
 4611              	.LASF98:
 4612 0653 444D4152 		.ascii	"DMAR\000"
 4612      00
 4613              	.LASF167:
 4614 0658 70617474 		.ascii	"patternthd\000"
 4614      65726E74 
 4614      686400
 4615              	.LASF29:
 4616 0663 74687265 		.ascii	"thread_t\000"
 4616      61645F74 
 4616      00
 4617              	.LASF113:
 4618 066c 62657374 		.ascii	"best\000"
 4618      00
 4619              	.LASF136:
 4620 0671 6D5F6E65 		.ascii	"m_next\000"
 4620      787400
 4621              	.LASF28:
 4622 0678 73797374 		.ascii	"systime_t\000"
 4622      696D655F 
 4622      7400
 4623              	.LASF46:
 4624 0682 705F7265 		.ascii	"p_realprio\000"
 4624      616C7072 
 4624      696F00
 4625              	.LASF63:
 4626 068d 76746675 		.ascii	"vtfunc_t\000"
 4626      6E635F74 
 4626      00
 4627              	.LASF9:
 4628 0696 5F5F7569 		.ascii	"__uint32_t\000"
 4628      6E743332 
 4628      5F7400
 4629              	.LASF171:
 4630 06a1 5F5F7365 		.ascii	"__set_BASEPRI\000"
 4630      745F4241 
 4630      53455052 
 4630      4900
 4631              	.LASF76:
 4632 06af 70616E69 		.ascii	"panic_msg\000"
 4632      635F6D73 
 4632      6700
 4633              	.LASF111:
 4634 06b9 6F666673 		.ascii	"offset\000"
 4634      657400
 4635              	.LASF90:
 4636 06c0 636F6E74 		.ascii	"context\000"
 4636      65787400 
 4637              	.LASF147:
 4638 06c8 706F7274 		.ascii	"port_timer_get_time\000"
 4638      5F74696D 
 4638      65725F67 
 4638      65745F74 
 4638      696D6500 
 4639              	.LASF18:
 4640 06dc 7274636E 		.ascii	"rtcnt_t\000"
ARM GAS  /tmp/ccfeOUca.s 			page 146


 4640      745F7400 
 4641              	.LASF70:
 4642 06e4 76745F70 		.ascii	"vt_par\000"
 4642      617200
 4643              	.LASF53:
 4644 06eb 74687265 		.ascii	"threads_queue_t\000"
 4644      6164735F 
 4644      71756575 
 4644      655F7400 
 4645              	.LASF133:
 4646 06fb 63685F6D 		.ascii	"ch_mutex\000"
 4646      75746578 
 4646      00
 4647              	.LASF40:
 4648 0704 705F7265 		.ascii	"p_refs\000"
 4648      667300
 4649              	.LASF77:
 4650 070b 6973725F 		.ascii	"isr_cnt\000"
 4650      636E7400 
 4651              	.LASF82:
 4652 0713 726C6973 		.ascii	"rlist\000"
 4652      7400
 4653              	.LASF150:
 4654 0719 63685468 		.ascii	"chThdGetSelfX\000"
 4654      64476574 
 4654      53656C66 
 4654      5800
 4655              	.LASF14:
 4656 0727 75696E74 		.ascii	"uint8_t\000"
 4656      385F7400 
 4657              	.LASF49:
 4658 072f 74687265 		.ascii	"thread_reference_t\000"
 4658      61645F72 
 4658      65666572 
 4658      656E6365 
 4658      5F7400
 4659              	.LASF125:
 4660 0742 77746F62 		.ascii	"wtobjp\000"
 4660      6A7000
 4661              	.LASF36:
 4662 0749 705F6E61 		.ascii	"p_name\000"
 4662      6D6500
 4663              	.LASF50:
 4664 0750 74687265 		.ascii	"threads_list_t\000"
 4664      6164735F 
 4664      6C697374 
 4664      5F7400
 4665              	.LASF20:
 4666 075f 746D6F64 		.ascii	"tmode_t\000"
 4666      655F7400 
 4667              	.LASF79:
 4668 0767 74726163 		.ascii	"trace_buffer\000"
 4668      655F6275 
 4668      66666572 
 4668      00
 4669              	.LASF148:
 4670 0774 63685379 		.ascii	"chSysUnlock\000"
ARM GAS  /tmp/ccfeOUca.s 			page 147


 4670      73556E6C 
 4670      6F636B00 
 4671              	.LASF43:
 4672 0780 705F6D73 		.ascii	"p_msg\000"
 4672      6700
 4673              	.LASF120:
 4674 0786 6D5F6372 		.ascii	"m_crit_thd\000"
 4674      69745F74 
 4674      686400
 4675              	.LASF135:
 4676 0791 6D5F6F77 		.ascii	"m_owner\000"
 4676      6E657200 
 4677              	.LASF104:
 4678 0799 73655F77 		.ascii	"se_wtobjp\000"
 4678      746F626A 
 4678      7000
 4679              	.LASF33:
 4680 07a3 705F6374 		.ascii	"p_ctx\000"
 4680      7800
 4681              	.LASF69:
 4682 07a9 76745F66 		.ascii	"vt_func\000"
 4682      756E6300 
 4683              		.comm	__gnu_lto_v1,1,1
 4684              		.ident	"GCC: (4.8.2-14ubuntu1+6) 4.8.2"
ARM GAS  /tmp/ccfeOUca.s 			page 148


DEFINED SYMBOLS
                            *ABS*:0000000000000000 testthd.c
     /tmp/ccfeOUca.s:955    .text.port_lock:0000000000000000 $t
     /tmp/ccfeOUca.s:960    .text.port_lock:0000000000000000 port_lock
     /tmp/ccfeOUca.s:991    .text.port_unlock:0000000000000000 $t
     /tmp/ccfeOUca.s:996    .text.port_unlock:0000000000000000 port_unlock
     /tmp/ccfeOUca.s:1025   .text.st_lld_get_counter:0000000000000000 $t
     /tmp/ccfeOUca.s:1030   .text.st_lld_get_counter:0000000000000000 st_lld_get_counter
     /tmp/ccfeOUca.s:1048   .text.port_timer_get_time:0000000000000000 $t
     /tmp/ccfeOUca.s:1053   .text.port_timer_get_time:0000000000000000 port_timer_get_time
     /tmp/ccfeOUca.s:1074   .text.chSysLock:0000000000000000 $t
     /tmp/ccfeOUca.s:1079   .text.chSysLock:0000000000000000 chSysLock
     /tmp/ccfeOUca.s:1102   .text.chSysUnlock:0000000000000000 $t
     /tmp/ccfeOUca.s:1107   .text.chSysUnlock:0000000000000000 chSysUnlock
     /tmp/ccfeOUca.s:2050   .rodata.__func__.5915:0000000000000000 __func__.5915
     /tmp/ccfeOUca.s:1152   .text.chVTGetSystemTimeX:0000000000000000 $t
     /tmp/ccfeOUca.s:1157   .text.chVTGetSystemTimeX:0000000000000000 chVTGetSystemTimeX
     /tmp/ccfeOUca.s:1178   .text.chVTGetSystemTime:0000000000000000 $t
     /tmp/ccfeOUca.s:1183   .text.chVTGetSystemTime:0000000000000000 chVTGetSystemTime
     /tmp/ccfeOUca.s:1212   .text.chThdGetSelfX:0000000000000000 $t
     /tmp/ccfeOUca.s:1217   .text.chThdGetSelfX:0000000000000000 chThdGetSelfX
     /tmp/ccfeOUca.s:1236   .text.chThdGetPriorityX:0000000000000000 $t
     /tmp/ccfeOUca.s:1241   .text.chThdGetPriorityX:0000000000000000 chThdGetPriorityX
     /tmp/ccfeOUca.s:1262   .text.thread:0000000000000000 $t
     /tmp/ccfeOUca.s:1267   .text.thread:0000000000000000 thread
     /tmp/ccfeOUca.s:1293   .rodata:0000000000000000 $d
     /tmp/ccfeOUca.s:1294   .rodata:0000000000000000 .LC0
     /tmp/ccfeOUca.s:1297   .rodata:0000000000000004 .LC1
     /tmp/ccfeOUca.s:1300   .rodata:0000000000000008 .LC2
     /tmp/ccfeOUca.s:1303   .rodata:000000000000000c .LC3
     /tmp/ccfeOUca.s:1306   .rodata:0000000000000010 .LC4
     /tmp/ccfeOUca.s:1309   .rodata:0000000000000014 .LC5
     /tmp/ccfeOUca.s:1312   .text.thd1_execute:0000000000000000 $t
     /tmp/ccfeOUca.s:1317   .text.thd1_execute:0000000000000000 thd1_execute
     /tmp/ccfeOUca.s:1453   .rodata.testthd1:0000000000000000 testthd1
     /tmp/ccfeOUca.s:1450   .rodata.testthd1:0000000000000000 $d
     /tmp/ccfeOUca.s:1459   .text.thd2_execute:0000000000000000 $t
     /tmp/ccfeOUca.s:1464   .text.thd2_execute:0000000000000000 thd2_execute
     /tmp/ccfeOUca.s:1610   .rodata.testthd2:0000000000000000 testthd2
     /tmp/ccfeOUca.s:1607   .rodata.testthd2:0000000000000000 $d
     /tmp/ccfeOUca.s:1616   .text.thd3_execute:0000000000000000 $t
     /tmp/ccfeOUca.s:1621   .text.thd3_execute:0000000000000000 thd3_execute
     /tmp/ccfeOUca.s:1904   .rodata.testthd3:0000000000000000 testthd3
     /tmp/ccfeOUca.s:1901   .rodata.testthd3:0000000000000000 $d
     /tmp/ccfeOUca.s:1910   .text.thd4_execute:0000000000000000 $t
     /tmp/ccfeOUca.s:1915   .text.thd4_execute:0000000000000000 thd4_execute
     /tmp/ccfeOUca.s:2030   .rodata.testthd4:0000000000000000 testthd4
     /tmp/ccfeOUca.s:2027   .rodata.testthd4:0000000000000000 $d
     /tmp/ccfeOUca.s:2040   .rodata.patternthd:0000000000000000 patternthd
     /tmp/ccfeOUca.s:2037   .rodata.patternthd:0000000000000000 $d
     /tmp/ccfeOUca.s:2047   .rodata.__func__.5915:0000000000000000 $d
                            *COM*:0000000000000001 __gnu_lto_v1
                     .debug_frame:0000000000000010 $d

UNDEFINED SYMBOLS
_stats_start_measure_crit_thd
_dbg_check_lock
ARM GAS  /tmp/ccfeOUca.s 			page 149


_dbg_check_unlock
_stats_stop_measure_crit_thd
ch
chSysHalt
test_emit_token
wa
chThdCreateStatic
threads
test_wait_threads
_test_assert_sequence
chThdCreateI
chThdStart
chThdSetPriority
_test_assert
test_wait_tick
chThdSleep
_test_assert_time_window
chThdSleepUntil
