ARM GAS  /tmp/ccZLWL0x.s 			page 1


   1              		.syntax unified
   2              		.cpu cortex-m4
   3              		.fpu softvfp
   4              		.eabi_attribute 20, 1
   5              		.eabi_attribute 21, 1
   6              		.eabi_attribute 23, 3
   7              		.eabi_attribute 24, 1
   8              		.eabi_attribute 25, 1
   9              		.eabi_attribute 26, 1
  10              		.eabi_attribute 30, 6
  11              		.eabi_attribute 34, 1
  12              		.eabi_attribute 18, 4
  13              		.thumb
  14              		.file	"testthd.c"
  15              		.text
  16              	.Ltext0:
  17              		.section	.gnu.lto_.inline.ad57d27706fd9720,"",%progbits
  18 0000 789C6362 		.ascii	"x\234cb`b\300\006\016@\205\371\031\030X\230\031\030"
  18      6062C006 
  18      0E4085F9 
  18      19185898 
  18      1918
  19 0012 98583EE8 		.ascii	"\230X>\3501\260@\3242b\2100a\21003\260\362\002E\230"
  19      31B040D4 
  19      32628830 
  19      61883033 
  19      B0F20245 
  20 0027 16C8C3D5 		.ascii	"\026\310\303\325p\003\011\026\354\302\254\030\372\331"
  20      70030916 
  20      ECC2AC18 
  20      FAD9
  21 0035 19D8F8D0 		.ascii	"\031\330\370\320\354\000)\344\300.\314\311p\214a##\220"
  21      EC0029E4 
  21      C02ECCC9 
  21      708C6123 
  21      2390
  22 0047 A3F26105 		.ascii	"\243\362a\005\023L\206\205\027\344V.\220a\0020\205\304"
  22      134C8685 
  22      17E4562E 
  22      90610230 
  22      85C4
  23 0059 B27818D8 		.ascii	"\262x\030\330\024P\335\0116\010A\3602\010\232\000\025"
  23      1450DD09 
  23      360841F0 
  23      32089A00 
  23      15
  24 006a 887C58CD 		.ascii	"\210|X\315\210\242\002\254\033\241\214\237\3414\303"
  24      88A202AC 
  24      1BA18C9F 
  24      E134C3
  25 0079 4590C3D4 		.ascii	"E\220\303\324\016\354\300\3420\204j\204\325$\271X\200"
  25      0EECC0E2 
  25      30846A84 
  25      D524B958 
  25      80
  26 008a 815D118B 		.ascii	"\201]\021\213;\021\006\0112t1N\007\205m\316\206\333"
  26      3B110609 
ARM GAS  /tmp/ccZLWL0x.s 			page 2


  26      3274314E 
  26      07856DCE 
  26      86DB
  27 009c 6C986A10 		.ascii	"l\230j\020\012\301\216\202\304\021*\213\231\207\004"
  27      0AC18E82 
  27      C4112A8B 
  27      998704
  28 00ab 5934DB89 		.ascii	"Y4\333\2110\012,\006\346\0121X\254\001\005\225\322\202"
  28      300A2C06 
  28      E60A3158 
  28      AC010595 
  28      D282
  29 00bd 99F0A062 		.ascii	"\231\360\240b\345Cq)I\\\260\013\030\000]\317\036\374"
  29      E5437129 
  29      495CB00B 
  29      18005DCF 
  29      1EFC
  30              		.text
  31              		.section	.gnu.lto_port_lock.ad57d27706fd9720,"",%progbits
  32 0000 789C6362 		.ascii	"x\234cb`b@\007\"@,\310\310\300\320\000\342030\002U0"
  32      60624007 
  32      22402CC8 
  32      C8C0D000 
  32      E2303330 
  33 0017 32310205 		.ascii	"21\002\005\030\030\031\352\231\030\353#AL\006F%\206"
  33      181819EA 
  33      9918EB23 
  33      414C0646 
  33      2586
  34 0029 850D0D93 		.ascii	"\205\015\015\223\036\264>{\3144\263\341@\313\202\206"
  34      1EB43E7B 
  34      CC34B3E1 
  34      40CB8286 
  35 0039 3FFFFF33 		.ascii	"?\377\37732f2\002M\324gdHfd\210\000r\030\025\300\024"
  35      32663202 
  35      4DD46764 
  35      48666488 
  35      00721815 
  36 004f 130BAA15 		.ascii	"\023\013\252\025\353\231\016<\370\377\377D\347\363\275"
  36      EB990E3C 
  36      F8FFFF44 
  36      E7F3BD
  37 005e 40931912 		.ascii	"@\223\031\022\031\027\002M\003\002V\206\226\206\206"
  37      1917024D 
  37      03025686 
  37      968686
  38 006d 090A0C20 		.ascii	"\011\012\014 \335@\020\002&CA\016`>\313\320\264\003"
  38      DD401002 
  38      2643410E 
  38      603ECBD0 
  38      B403
  39 007f 48A73332 		.ascii	"H\24732\202\314c\000\252a8\307\320\364\361\355\214\307"
  39      82CC6300 
  39      AA6138C7 
  39      D0F4F1ED 
  39      8CC7
  40 0091 12705D60 		.ascii	"\022p]`F\303\201\356+\355\2540#\023\031\0273\262\002"
ARM GAS  /tmp/ccZLWL0x.s 			page 3


  40      46C381EE 
  40      2BEDAC30 
  40      23131917 
  40      33B202
  41 00a4 8D833819 		.ascii	"\215\2038\031\010S\231A>f\206x[\216\241ln\303\014\207"
  41      08539941 
  41      3E668678 
  41      5B8EA16C 
  41      6EC30C87 
  42 00b8 4C466610 		.ascii	"LFf\020/\035\254\012.U\011\221\202\272\374\"C\343\203"
  42      2F1DAC0A 
  42      2E550991 
  42      82BAFC22 
  42      43E383
  43 00cb 9DFA10E3 		.ascii	"\235\372\020\343` \004\244\001\244ZGOO\037\216\362\213"
  43      602004A4 
  43      01A45A47 
  43      4F4F1F8E 
  43      F28B
  44 00dd F58B4AF4 		.ascii	"\365\213J\364\013\362\213J\212\365\035\203|\235}+\364"
  44      0BF28B4A 
  44      8AF51D83 
  44      7C9D7D2B 
  44      F4
  45 00ee 933392F3 		.ascii	"\2233\222\363\213R\343\313\314s\3652\030X\313\022sJ"
  45      8B52E3CB 
  45      CC73F532 
  45      1858CB12 
  45      734A
  46 0100 53F5D1B4 		.ascii	"S\365\321\264\244V\224\350;\373\006{\006\353g\346%\347"
  46      A45694E8 
  46      3BFB067B 
  46      06EB67E6 
  46      25E7
  47 0112 94A6A4EA 		.ascii	"\224\246\244\352\203\265$\347\272\225\346%\003u\011"
  47      83B524E7 
  47      BA95E625 
  47      037509
  48 0121 F8060729 		.ascii	"\370\006\007)$%\026\247\026\024e\352(\250\03200\025"
  48      242516A7 
  48      161465EA 
  48      28A81A30 
  48      3015
  49 0133 31B0E7A6 		.ascii	"1\260\347\246\346\346\027U2\000\000%\366_c"
  49      E6E61755 
  49      32000025 
  49      F65F63
  50              		.text
  51              		.section	.gnu.lto_port_unlock.ad57d27706fd9720,"",%progbits
  52 0000 789C6362 		.ascii	"x\234cb`b@\007\"@,\310\310\300\320\000\342030\002U0"
  52      60624007 
  52      22402CC8 
  52      C8C0D000 
  52      E2303330 
  53 0017 32310205 		.ascii	"21\002\005\030\030\031\352\231\030\353#AL\006F%\206"
  53      181819EA 
  53      9918EB23 
ARM GAS  /tmp/ccZLWL0x.s 			page 4


  53      414C0646 
  53      2586
  54 0029 850D0D93 		.ascii	"\205\015\015\223\036\264~z\3144\263\341@\313\202\206"
  54      1EB47E7A 
  54      CC34B3E1 
  54      40CB8286 
  55 0039 3FFFFF33 		.ascii	"?\377\37732f2\002M\324gdHfd\210\000r\030\025\300\024"
  55      32663202 
  55      4DD46764 
  55      48666488 
  55      00721815 
  56 004f 130BAA15 		.ascii	"\023\013\252\025\353\231\016<\370\377\377E\347\376}"
  56      EB990E3C 
  56      F8FFFF45 
  56      E7FE7D
  57 005e 40931912 		.ascii	"@\223\031\022\031\027\002M\003\002V\206\226\206\206"
  57      1917024D 
  57      03025686 
  57      968686
  58 006d 090A0C20 		.ascii	"\011\012\014 \335@\020\002&CA\016`>\313\320\264\003"
  58      DD401002 
  58      2643410E 
  58      603ECBD0 
  58      B403
  59 007f 48A73332 		.ascii	"H\24732\202\314\003\033r\216\241\351\343\333\031\217"
  59      82CC031B 
  59      728EA1E9 
  59      E3DB198F 
  60 008f 25E0BAC0 		.ascii	"%\340\272\300\214\206\003\247\237\266\263\302\214Ld"
  60      8C8603A7 
  60      9FB6B3C2 
  60      8C4C64
  61 009e 5CCCC80A 		.ascii	"\\\314\310\0124\016\342d Le\006\371\230\031\342m9\206"
  61      340EE264 
  61      204C6506 
  61      F99819E2 
  61      6D3986
  62 00b1 B2B90D33 		.ascii	"\262\271\0153\0342\031\231A\274t\260*\270T%D\012\352"
  62      1C321999 
  62      41BC74B0 
  62      2AB85425 
  62      440AEA
  63 00c4 F28B0C8D 		.ascii	"\362\213\014\215\017\316\353C\214\203\201\020\220\006"
  63      0FCEEB43 
  63      8C838110 
  63      9006
  64 00d2 906A1D3D 		.ascii	"\220j\035==}8\312/\326/*\321/\310/*)\326w\014\362u\366"
  64      3D7D38CA 
  64      2FD62F2A 
  64      D12FC82F 
  64      2A29D677 
  65 00ea ADD04FCE 		.ascii	"\255\320O\316H\316/J\215/3\317\325\313``-K\314)M\325"
  65      48CE2F4A 
  65      8D2F33CF 
  65      D5CB6060 
  65      2D4BCC29 
  66 0100 47D3925A 		.ascii	"G\323\222ZQ\242\357\354\033\354\031\254\237\231\227"
ARM GAS  /tmp/ccZLWL0x.s 			page 5


  66      51A2EFEC 
  66      1BEC19AC 
  66      9F9997
  67 010f 9C539A92 		.ascii	"\234S\232\222\252\017\326\222\234\353V\232\227\014\324"
  67      AA0FD692 
  67      9CEB569A 
  67      970CD4
  68 011e 25E01B1C 		.ascii	"%\340\033\034\244\220\224X\234ZP\224\251\243\240j\300"
  68      A4909458 
  68      9C5A5094 
  68      A9A3A06A 
  68      C0
  69 012f C054C4C0 		.ascii	"\300T\304\300\236\233\232\233_T\311\000\000g\003_\257"
  69      9E9B9A9B 
  69      5F54C900 
  69      0067035F 
  69      AF
  70              		.text
  71              		.section	.gnu.lto_st_lld_get_counter.ad57d27706fd9720,"",%progbits
  72 0000 789C6362 		.ascii	"x\234cb`b@\007\322@l\314\310\300`\002\342\26000\002"
  72      60624007 
  72      D2406CCC 
  72      C8C06002 
  72      E2B03030 
  73 0015 55303231 		.ascii	"U0212\003IfF\2400\003#C=\0233c}$\210\315\300\244\304"
  73      32034966 
  73      46A03003 
  73      23433D13 
  73      33637D24 
  74 002e B0B0A161 		.ascii	"\260\260\241a\326\203\245\313gJv-h\232\320\360\357\377"
  74      D683A5CB 
  74      674A762D 
  74      689AD0F0 
  74      EFFF
  75 0040 7FC64C90 		.ascii	"\177\306L\220T2#C\004\220\305\250\000\246\230XP-\001"
  75      54322343 
  75      0490C5A8 
  75      00A69858 
  75      502D01
  76 0053 6B9BD430 		.ascii	"k\233\3240\371i\300\211\206\226\003\377\377\333g\202"
  76      F969C089 
  76      869603FF 
  76      FFDB6782 
  77 0063 6CC0AF67 		.ascii	"l\300\257g=\323\201\007\377\377\357\271\274\342\361"
  77      3DD38107 
  77      FFFFEFB9 
  77      BCE2F1
  78 0072 3C462166 		.ascii	"<F!fF\006\240\026&\006\260]\014\254\014-\015\015\023"
  78      4606A016 
  78      2606B05D 
  78      0CAC0C2D 
  78      0D0D13
  79 0085 14C02600 		.ascii	"\024\300&\000A\010\230\014\0059\235\371,C\323\216\035"
  79      4108980C 
  79      05399DF9 
  79      2C43D38E 
  79      1D
ARM GAS  /tmp/ccZLWL0x.s 			page 6


  80 0096 CB4FB224 		.ascii	"\313O\262$2.fdeHgd\004\031\315\334\000\004 \343\317"
  80      322E6664 
  80      65486764 
  80      0419CDDC 
  80      000420E3 
  81 00ab 321CBA55 		.ascii	"2\034\272U\000\223b\322fX\325\320\322\330`\232\311\310"
  81      009362D2 
  81      6658D5D0 
  81      D2D8609A 
  81      C9C8
  82 00bd 329B6156 		.ascii	"2\233aV#P\315d\240bV\230&\260+\222\030\221\335\024\012"
  82      2350CD64 
  82      A0625698 
  82      26B02B92 
  82      1891DD14 
  83 00d2 12653ECD 		.ascii	"\022e>\315\320\310\301\300\220\002\222\271\310\320x"
  83      D0C8C1C0 
  83      900292B9 
  83      C8D078
  84 00e1 80196E20 		.ascii	"\200\031n DQ\010(\334@l#==}8\312/\326\317H\314\321/"
  84      44510828 
  84      DC406C23 
  84      3D3D7D38 
  84      CA2FD6CF 
  85 00f9 C82F2A29 		.ascii	"\310/*)\326\017\016\36156\322\367\361q\321\017\361\364"
  85      D60F0EF1 
  85      3536D2F7 
  85      F171D10F 
  85      F1F4
  86 010b 2D33D42F 		.ascii	"-3\324/.\211\317\311I\321\313`\000\000\222\374R7"
  86      2E89CFC9 
  86      49D1CB60 
  86      000092FC 
  86      5237
  87              		.text
  88              		.section	.gnu.lto_port_timer_get_time.ad57d27706fd9720,"",%progbits
  89 0000 789C6362 		.ascii	"x\234cb`b@\007\322@|\004\210\015@\034\026\006F\240\012"
  89      60624007 
  89      D2407C04 
  89      880D401C 
  89      160646A0 
  90 0015 46264666 		.ascii	"F&Ff \311\314\310\010\024bd\250gbf\254\217\004\261\031"
  90      20C9CCC8 
  90      08146264 
  90      A8676266 
  90      AC8F04B1 
  91 002a 18951816 		.ascii	"\030\225\030\02664\314z\360\364\333\014\311\256\005"
  91      3634CC7A 
  91      F0F4DB0C 
  91      C9AE05
  92 0039 4D131AFE 		.ascii	"M\023\032\376\375\377\317\230\011\222Jfd\210\000\262"
  92      FDFFCF98 
  92      09924A66 
  92      648800B2 
  93 0049 1815C014 		.ascii	"\030\025\300\024\023\013\252%\353\231\016<\370\377\177"
  93      130BAA25 
  93      EB990E3C 
ARM GAS  /tmp/ccZLWL0x.s 			page 7


  93      F8FF7F
  94 0058 CEEE358F 		.ascii	"\316\3565\217\3570\012212\200\2650\2602\26444LP\000"
  94      EF300A32 
  94      313280B5 
  94      30B032B4 
  94      34344C50 
  95 006d 6B068210 		.ascii	"k\006\202\0200\031\012r\001\363y\206\346\007\267\223"
  95      30190A72 
  95      01F37986 
  95      E607B793 
  96 007d 13191731 		.ascii	"\023\031\0271\2622\24432V3\374j\350h\020\310ddN\006"
  96      B232A433 
  96      325633FC 
  96      6AE86810 
  96      C864644E 
  97 0092 3B8A0168 		.ascii	";\212\001h\002\324\212P\220[\231O34r00\244\200\344."
  97      02D48A50 
  97      905B994F 
  97      33347230 
  97      30A480E4 
  98 00a7 3230C2F5 		.ascii	"20\302\365A\224\204\200\030 \237\353\351\351\351\303"
  98      41948480 
  98      18209FEB 
  98      E9E9E9C3 
  99 00b7 517EB17E 		.ascii	"Q~\261~Q\211~A~QI\261\276c\220\257\263o\205~rFr~Qj|"
  99      51897E41 
  99      7E5149B1 
  99      BE6390AF 
  99      B36F857E 
 100 00d2 49666E6A 		.ascii	"Ifnj\221^\006\003\000\230\3118\314"
 100      915E0603 
 100      0098C938 
 100      CC
 101              		.text
 102              		.section	.gnu.lto_chVTGetSystemTimeX.ad57d27706fd9720,"",%progbits
 103 0000 789C6362 		.ascii	"x\234cb`b@\007\322@|\004\210\225A\034\026\006F\240\012"
 103      60624007 
 103      D2407C04 
 103      8895411C 
 103      160646A0 
 104 0015 46264666 		.ascii	"F&Ff \311\314\310\010\024bd\250gbf\254\217\004\261\031"
 104      20C9CCC8 
 104      08146264 
 104      A8676266 
 104      AC8F04B1 
 105 002a 18951816 		.ascii	"\030\225\030\02664\314z\260\364\333L\311\256\005M\023"
 105      3634CC7A 
 105      B0F4DB4C 
 105      C9AE054D 
 105      13
 106 003b 1AFEFDFF 		.ascii	"\032\376\375\377\317\230\011\222Jfd\210\000\262\030"
 106      CF980992 
 106      4A666488 
 106      00B218
 107 004a 15C01413 		.ascii	"\025\300\024\023\013\252%\353\231\016<\370\377\377\314"
 107      0BAA25EB 
 107      990E3CF8 
ARM GAS  /tmp/ccZLWL0x.s 			page 8


 107      FFFFCC
 108 0059 CF158F6F 		.ascii	"\317\025\217o3\012312\200\2650\2602\26444LP\000k\006"
 108      330A3331 
 108      3280B530 
 108      B032B434 
 108      344C5000 
 109 006f 82103019 		.ascii	"\202\0200\031\012r\001\363y\206\346\0077\323\023\031"
 109      0A7201F3 
 109      7986E607 
 109      37D31319 
 110 007f 1731B232 		.ascii	"\0271\2622\24432V3\374j\350h\020\310ddN\006;\212\001"
 110      A4333256 
 110      33FC6AE8 
 110      6810C864 
 110      644E063B 
 111 0095 6802D48A 		.ascii	"h\002\324\212P\220[\231O34r00\244\200\344.20\302\365"
 111      50905B99 
 111      4F333472 
 111      3030A480 
 111      E42E3230 
 112 00ab 41948480 		.ascii	"A\224\204\200\030 \237+\352\351\351\303Q~\261~Q\211"
 112      18209F2B 
 112      EAE9E9C3 
 112      517EB17E 
 112      5189
 113 00bd 7E665E72 		.ascii	"~f^rNiJ\252~rFY\211^\006\003\000\322E46"
 113      4E694AAA 
 113      7E724659 
 113      895E0603 
 113      00D24534 
 114              		.text
 115              		.section	.gnu.lto_chThdGetSelfX.ad57d27706fd9720,"",%progbits
 116 0000 789C6362 		.ascii	"x\234cb`b@\007\322@\374\007\2105@\034\026\006F\240\012"
 116      60624007 
 116      D240FC07 
 116      8835401C 
 116      160646A0 
 117 0015 46264666 		.ascii	"F&Ff \311\314\310\010\024bd\250gbf\254\217\004\261\031"
 117      20C9CCC8 
 117      08146264 
 117      A8676266 
 117      AC8F04B1 
 118 002a 18951816 		.ascii	"\030\225\030\02664\314z\320\272k\246d\327\202\246\011"
 118      3634CC7A 
 118      D0BA6BA6 
 118      64D782A6 
 118      09
 119 003b 0DFFFEFF 		.ascii	"\015\377\376\377g\314\004I%32D\000Y\214\012`\212\211"
 119      67CC0449 
 119      25333244 
 119      00598C0A 
 119      608A89
 120 004e 05D592F5 		.ascii	"\005\325\222\365L\007\036\374\377\377\346\366\227G/"
 120      4C071EFC 
 120      FFFFE6F6 
 120      97472F
 121 005d 19859818 		.ascii	"\031\205\230\030\031\300Z\030X\031Z\032\032&(\2005\003"
ARM GAS  /tmp/ccZLWL0x.s 			page 9


 121      19C05A18 
 121      58195A1A 
 121      1A262880 
 121      3503
 122 006f 4108980C 		.ascii	"A\010\230\014\005\271\200\371,C\323\255\031\273$\023"
 122      05B980F9 
 122      2C43D3AD 
 122      19BB2413 
 123 007f 191731B2 		.ascii	"\031\0271\2622\24432j3\254j\000\202P\240F(\3232\223"
 123      32A43332 
 123      6A33AC6A 
 123      008250A0 
 123      4628D332 
 124 0094 917936C3 		.ascii	"\221y6\303\254\306\206\006\201LF\226j\206_\015\035 "
 124      ACC68606 
 124      814C4696 
 124      6A865F0D 
 124      1D20
 125 00a6 166B2ED8 		.ascii	"\026k.\330\024\220#X\301V'12@iF$\007\205\202|\310|\232"
 125      14902358 
 125      C1562731 
 125      32406946 
 125      24078582 
 126 00be A1918381 		.ascii	"\241\221\203\201!\005$s\221\241\361\0003\334:\210\242"
 126      21052473 
 126      91A1F100 
 126      33DC3A88 
 126      A2
 127 00cf 10100314 		.ascii	"\020\020\003\024bjzz\372p\224_\254_T\242\237\231\227"
 127      626A7A7A 
 127      FA70945F 
 127      AC5F54A2 
 127      9F9997
 128 00e2 9C539A92 		.ascii	"\234S\232\222\252\237\234Q\222Q\224\232\230R\254\227"
 128      AA9F9C51 
 128      9251949A 
 128      9852AC97 
 129 00f2 C10000BE 		.ascii	"\301\000\000\276rCL"
 129      72434C
 130              		.text
 131              		.section	.gnu.lto_chThdGetPriorityX.ad57d27706fd9720,"",%progbits
 132 0000 789C6362 		.ascii	"x\234cb`b@\007\322@l\316\310\300\240\001\342\26000\002"
 132      60624007 
 132      D2406CCE 
 132      C8C0A001 
 132      E2B03030 
 133 0015 55303231 		.ascii	"U0212\003IfF\2400\003#C=\0233c}$\210\315\300\244\304"
 133      32034966 
 133      46A03003 
 133      23433D13 
 133      33637D24 
 134 002e B0B0A161 		.ascii	"\260\260\241a\326\203\245\373gJv-h\232\320\360\357\377"
 134      D683A5FB 
 134      674A762D 
 134      689AD0F0 
 134      EFFF
 135 0040 7FC64C90 		.ascii	"\177\306L\220T2#C\004\220\305\250\000\246\230XP-\001"
ARM GAS  /tmp/ccZLWL0x.s 			page 10


 135      54322343 
 135      0490C5A8 
 135      00A69858 
 135      502D01
 136 0053 6B9BD470 		.ascii	"k\233\324p\377I\300\211\206\226\003\377\377\333g\202"
 136      FF49C089 
 136      869603FF 
 136      FFDB6782 
 137 0063 6CC0AF67 		.ascii	"l\300\257g=\323\201\007\377\377\357\271\377\347\321"
 137      3DD38107 
 137      FFFFEFB9 
 137      FFE7D1
 138 0072 3F462166 		.ascii	"?F!fF\006\240\026&\006\260]\014\254\014-\015\015\023"
 138      4606A016 
 138      2606B05D 
 138      0CAC0C2D 
 138      0D0D13
 139 0085 14C02600 		.ascii	"\024\300&\000A\010\230\014\0059\235\371<C\363\203\277"
 139      4108980C 
 139      05399DF9 
 139      3C43F383 
 139      BF
 140 0096 4FB91319 		.ascii	"O\271\023\031\0273\2622\24432V3\374j\350h\020\310dd"
 140      1733B232 
 140      A4333256 
 140      33FC6AE8 
 140      6810C864 
 141 00ab 49067B87 		.ascii	"I\006{\207\001h\004+\003\303Y\206\246[\0050EL\332\014"
 141      0168042B 
 141      03C35986 
 141      A65B0530 
 141      454CDA0C 
 142 00bf AB1A80A0 		.ascii	"\253\032\200\240\030h\372l\206Y@\267\260\001u\202\334"
 142      1868FA6C 
 142      865940B7 
 142      B0017582 
 142      DC
 143 00d0 C40CD691 		.ascii	"\304\014\326\221\304\210\354\256P\220(\363i\206F\016"
 143      C488ECAE 
 143      509028F3 
 143      6986460E 
 144 00e0 06861490 		.ascii	"\006\206\024\220\314E\206\306\003\314p\263 \212B@\226"
 144      CC4586C6 
 144      03CC70B3 
 144      208A4240 
 144      96
 145 00f1 81D86A7A 		.ascii	"\201\330jzz\372p\224_\254_T\242\237\231\227\234S\232"
 145      7AFA7094 
 145      5FAC5F54 
 145      A29F9997 
 145      9C539A
 146 0104 92AA9F9C 		.ascii	"\222\252\237\234Q\222Q\224\232\230R\254\227\301\000"
 146      51925194 
 146      9A9852AC 
 146      97C100
 147 0113 0029814F 		.ascii	"\000)\201OV"
 147      56
ARM GAS  /tmp/ccZLWL0x.s 			page 11


 148              		.text
 149              		.section	.gnu.lto_thread.ad57d27706fd9720,"",%progbits
 150 0000 789C6362 		.ascii	"x\234cb`b@\007\"@|\013\210\025@\034f\006F\240\012F&"
 150      60624007 
 150      22407C0B 
 150      8815401C 
 150      660646A0 
 151 0017 46462087 		.ascii	"FF \207\221\241\236\211\261>\022\304d`TbX\330\3200\351"
 151      91A19E89 
 151      B13E12C4 
 151      64605462 
 151      58D8D030 
 152 002c C1D1F953 		.ascii	"\301\321\371S\305\273\0364Lh\370\367\377?c&H*\231\221"
 152      C5BB1E34 
 152      4C68F8F7 
 152      FF3F6326 
 152      482A9991 
 153 0040 2102C862 		.ascii	"!\002\310b\344\000SL\214\250\246\257g:\360\340\377\377"
 153      E400534C 
 153      8CA8A6AF 
 153      673AF0E0 
 153      FFFF
 154 0052 33FD93FE 		.ascii	"3\375\223\376\211332\3462\002\035\000\326\305\300\312"
 154      89333332 
 154      E632021D 
 154      00D6C5C0 
 154      CA
 155 0063 D0D2D030 		.ascii	"\320\322\3200A\001\254\037\010B\300d(\310v\346\263\014"
 155      4101AC1F 
 155      0842C064 
 155      28C876E6 
 155      B30C
 156 0075 4DBB5A7F 		.ascii	"M\273Z\177_fJd\\\304\310\312\220\316\3104\233a\026\310"
 156      5F664A64 
 156      5CC4C8CA 
 156      90CEC834 
 156      9B6116C8 
 157 0089 AE744646 		.ascii	"\256tFF\220\025\314P\243\3173\260@T00T3\374j\350h\020"
 157      9015CC50 
 157      A3CF33B0 
 157      40543030 
 157      5433FC6A 
 158 00a0 C8646449 		.ascii	"\310ddIf\2048\000\250+\023$u\221\241\361\301\177&\230"
 158      66843800 
 158      A82B1324 
 158      7591A1F1 
 158      C17F2698 
 159 00b4 3A080801 		.ascii	":\010\010\001\251\001\005\204\234\236\236>\034\225\244"
 159      A9010584 
 159      9C9E9E3E 
 159      1C95A4
 160 00c3 1697E817 		.ascii	"\026\227\350\027\225\200\351\222\214\024\275d\006\000"
 160      9580E992 
 160      8C14BD64 
 160      0600
 161 00d1 691D383F 		.ascii	"i\0358?"
 162              		.text
ARM GAS  /tmp/ccZLWL0x.s 			page 12


 163              		.section	.gnu.lto_thd1_execute.ad57d27706fd9720,"",%progbits
 164 0000 789CDD95 		.ascii	"x\234\335\225;l\023A\020\206gv\317\366\371\025\277C"
 164      3B6C1341 
 164      10866776 
 164      CFF6F915 
 164      BF43
 165 0012 68A28090 		.ascii	"h\242\200\220@HIh\240\205\274z\212D\202\022]P\270\""
 165      40484968 
 165      A085BC7A 
 165      8A448212 
 165      5D50B822 
 166 0026 0DB8A3C8 		.ascii	"\015\270\243\310:6(\022\024\021P8N@I\203(\220\020 !"
 166      3A362812 
 166      14115038 
 166      4E404983 
 166      28901020 
 167 003b E85C4541 		.ascii	"\350\\EA(\002:\012\012+Q$\012\012\312\010\002\307\316"
 167      28023A0A 
 167      0A2B5124 
 167      0A0ACA08 
 167      02C7CE
 168 004e 9ECF77E0 		.ascii	"\236\317w\340\207\316\205\033\257\354\271\335\331\371"
 168      87CE851B 
 168      AFECB9DD 
 168      D9F9
 169 005c 6767BEB3 		.ascii	"gg\276\263\326\014\030\374?\316\310\357~\024\340\002"
 169      D60C18FC 
 169      3FCEC8EF 
 169      7E14E002 
 170 006c 2D028032 		.ascii	"-\002\2002\002\031\343\000\202i\322h\034\345\0035D\271"
 170      0219E300 
 170      8269D268 
 170      1CE50335 
 170      44B9
 171 007e 8DB0C4B8 		.ascii	"\215\260\304\270\206KWi\001\271\223\260%\304\203\332"
 171      864B5769 
 171      01B993B0 
 171      25C483DA 
 172 008e C1DE8EB6 		.ascii	"\301\336\216\266\366\250Z\332\024G\226\205h\322\246"
 172      F6A85ADA 
 172      14479685 
 172      68D2A6
 173 009d 817045CE 		.ascii	"\201pE\316pD=(\223w\330B\261\276}?\262ZX\021\226\265"
 173      70443D28 
 173      9377D842 
 173      B1BE7D3F 
 173      B25A5811 
 174 00b3 6422F729 		.ascii	"d\"\367)zxpyG\224\252\226u\321\277\346\3253\021V\325"
 174      7A787079 
 174      4794AA96 
 174      75D1BFE6 
 174      D5331156 
 175 00c8 7193BAF1 		.ascii	"q\223\272\361\243\251\226\275\305\365EG\225\276\353"
 175      A3A996BD 
 175      C5F54547 
 175      95BEEB
 176 00d7 68A3EF3A 		.ascii	"h\243\357:z\322w\035\275\336~\267\205\342\256(\374\260"
ARM GAS  /tmp/ccZLWL0x.s 			page 13


 176      7AD2771D 
 176      BDDE7EB7 
 176      85E2AE28 
 176      FCB0
 177 00e9 AC848901 		.ascii	"\254\204\211\001W\246\3332\374W\366\202Uk\226\265\361"
 177      57A6DB32 
 177      FC57F682 
 177      556B96B5 
 177      F1
 178 00fa 7273AF82 		.ascii	"rs\257\202\251A\004\211\201I\3039\031M\032-@\276 -C"
 178      A9410489 
 178      8149C339 
 178      194D1A2D 
 178      40BE202D 
 179 010f 6474F285 		.ascii	"dt\362\205\311\027\241e\224L\214|q\362\015\3202A&I\276"
 179      C917A165 
 179      944C8C7C 
 179      71F20DD0 
 179      32412649 
 180 0124 14F9D2B4 		.ascii	"\024\371\322\264\314\220\311\222/\007\252,y\371\225"
 180      CC90C992 
 180      2F07AA2C 
 180      79F995
 181 0133 84581D51 		.ascii	"\204X\035Q\005\3121\253\354\034]\210|\027\226\277\036"
 181      05CA31AB 
 181      EC1C5D88 
 181      7C1796BF 
 181      1E
 182 0144 CA6BEE1A 		.ascii	"\312k\356\032\276\221\241\013\210\243\360\\$M\014\256"
 182      BE91A10B 
 182      88A3F05C 
 182      244D0CAE 
 183 0154 43A5B04A 		.ascii	"C\245\260J\263\320m\370)\3124\323\027\225\220z\323\301"
 183      B3D06DF8 
 183      29CA34D3 
 183      1795907A 
 183      D3C1
 184 0166 99853D1D 		.ascii	"\231\205=\035~\204b\365\036wR1\022\256\2200b\240\315"
 184      7E8462F5 
 184      1E775231 
 184      12AE9030 
 184      62A0CD
 185 0179 C244791F 		.ascii	"\302Dy\037\357Bq\245\370\2249a\\FR\"\376\313\222\034"
 185      EF4271A5 
 185      F8943961 
 185      5C465222 
 185      FECB921C 
 186 018d 55962167 		.ascii	"U\226!gOk\244\210\031h\337\360\262D\212\216\177c\244"
 186      4F6BA488 
 186      1968DFF0 
 186      B2448A8E 
 186      7F63A4
 187 01a0 A57DDDC4 		.ascii	"\245}\335\304\001\003\353\307\002y\206LL\014\303\211"
 187      0103EBC7 
 187      0279864C 
 187      4C0CC389 
 188 01b0 C7A27CC9 		.ascii	"\307\242|\311\304$\324wLL\321\341\313\357?\205l\017"
ARM GAS  /tmp/ccZLWL0x.s 			page 14


 188      C424D477 
 188      4C4CD1E1 
 188      CBEF3F85 
 188      6C0F
 189 01c2 B52AC779 		.ascii	"\265*\307yI\212\272\025tN\272qbfQ\025M\207eZt\273@\277"
 189      498ABA15 
 189      744EBA71 
 189      62665115 
 189      4D87655A 
 190 01da 13A257DE 		.ascii	"\023\242W\336w\351\005\272\246\207\355\350\005\375\321"
 190      77E905BA 
 190      A687EDE8 
 190      05FDD1
 191 01e9 0BC94845 		.ascii	"\013\311HE\357\250\231\236\336\212^\300\245\027\352"
 191      EFA8999E 
 191      DE8A5EC0 
 191      A517EA
 192 01f8 44EF542F 		.ascii	"D\357T/\350\241KO\267\351\275\365\320\013wM\217\265"
 192      E8A14B4F 
 192      B7E9BDF5 
 192      D00B774D 
 192      8FB5
 193 020a A317F147 		.ascii	"\243\027\361G/*#\025\275\337\315\364b\255\350\205]z"
 193      2F2A2315 
 193      BDDFCDF4 
 193      62ADE885 
 193      5D7A
 194 021c D14EF44E 		.ascii	"\321N\364N\367\202\036s\351\305lz_<\364\342]\323\343"
 194      F7821E73 
 194      E9C56C7A 
 194      5F3CF4E2 
 194      5DD3E3
 195 022f EDE80DF8 		.ascii	"\355\350\015\370\243\227\220\221\212\336\237fz\311V"
 195      A3979091 
 195      8ADE9F66 
 195      7AC956
 196 023e F4E22EBD 		.ascii	"\364\342.\275D'zg{A\217\273\364\2226\275C\017\275T\327"
 196      44277A67 
 196      7B418FBB 
 196      F49236BD 
 196      430FBD54 
 197 0253 F4B476F4 		.ascii	"\364\264v\364\322\376\350ed\244\242g5\323\313\266\242"
 197      D2FEE865 
 197      64A4A267 
 197      35D3CBB6 
 197      A2
 198 0264 9772E965 		.ascii	"\227r\351e:\321\033\355\005=\315\245\227U\015\327\312"
 198      3AD11BED 
 198      053DCDA5 
 198      97550DD7 
 198      CA
 199 0275 C568FD00 		.ascii	"\305h\375\000hh\263\006j\365\206s\024u\247\266f8=\345"
 199      6868B306 
 199      6AF58673 
 199      1475A7B6 
 199      66383DE5 
 200 0289 1A518386 		.ascii	"\032Q\203\206R\331\231\343\350\224~l\030\316\331\245"
ARM GAS  /tmp/ccZLWL0x.s 			page 15


 200      52D999E3 
 200      E8947E6C 
 200      18CED9A5 
 201 0299 0FB9A51F 		.ascii	"\017\271\245\037\007\330\201\322wld!M\000<c\226\376"
 201      07D881D2 
 201      776C6421 
 201      4D003C63 
 201      96FE
 202 02ab E4F91C1D 		.ascii	"\344\371\034\035\314?@A\276\241yB\366\031\320)\317\211"
 202      CC3F4041 
 202      BEA17942 
 202      F619D029 
 202      CF89
 203 02bd 936D11CB 		.ascii	"\223m\021\313\341\261\261\361\306'\177\375V~\374f^="
 203      E1B1B1F1 
 203      C6277FFD 
 203      567EFC66 
 203      5E3D
 204 02cf F337E6C7 		.ascii	"\3637\346\307\014`3\300\246\201M\001\233\0046\001\301"
 204      0C6033C0 
 204      A6814D01 
 204      9B043601 
 204      C1
 205 02e0 89C9A9E9 		.ascii	"\211\311\251\351\031\370\013e\032\253L"
 205      19F80B65 
 205      1AAB4C
 206              		.text
 207              		.section	.gnu.lto_chSysLock.ad57d27706fd9720,"",%progbits
 208 0000 789C6362 		.ascii	"x\234cb`b@\007\"@|\010\210U@\034f\006F\240\012F&FF "
 208      60624007 
 208      22407C08 
 208      8855401C 
 208      660646A0 
 209 001a 8791A19E 		.ascii	"\207\221\241\236\211\261>\222\021\254l=\323\201\007"
 209      89B13E92 
 209      11AC6C3D 
 209      D38107
 210 0029 FFFFAFFB 		.ascii	"\377\377\257\3732m\331\037\306\333L 1V\206\226\206\206"
 210      326DD91F 
 210      C6DB4C20 
 210      31568696 
 210      8686
 211 003b 090A0C0C 		.ascii	"\011\012\014\014\311`\025!`2\024\244\237\371<C\363\203"
 211      C9601521 
 211      603214A4 
 211      9FF93C43 
 211      F383
 212 004d 3DDDEC89 		.ascii	"=\335\354\211\214\013\031Y\201\202\325\014\277\032:"
 212      8C0B1959 
 212      8182D50C 
 212      BF1A3A
 213 005c 1A043219 		.ascii	"\032\0042\031\201J!\246e\202h\220\252\275\335B\330T"
 213      814A21A6 
 213      65826890 
 213      AABDDD42 
 213      D854
 214 006e 31A1AADA 		.ascii	"1\241\252\332w\232\013\233*f\204\252\213\014\215\017"
ARM GAS  /tmp/ccZLWL0x.s 			page 16


 214      779A0B9B 
 214      2A6684AA 
 214      8B0C8D0F 
 215 007e F66BC314 		.ascii	"\366k\303\024A@\010H\002d\222\222\236\236>\034\345\027"
 215      41400848 
 215      02649292 
 215      9E9E3E1C 
 215      E517
 216 0090 EB1795E8 		.ascii	"\353\027\225\350g\346%\347\224\246\244\352'g\024W\026"
 216      67E625E7 
 216      94A6A4EA 
 216      27671457 
 216      16
 217 00a1 EB653000 		.ascii	"\353e0\000\000\203q8C"
 217      00837138 
 217      43
 218              		.text
 219              		.section	.gnu.lto_chSysUnlock.ad57d27706fd9720,"",%progbits
 220 0000 789CCD92 		.ascii	"x\234\315\222\275J\003A\020\200gv\367.\211Qc#\250U\010"
 220      BD4A0341 
 220      10806776 
 220      F72E8951 
 220      6323A855 
 221 0015 560AC90B 		.ascii	"V\012\311\013\370\030\011\250\235\236\222\034\030\005"
 221      F81809A8 
 221      9D9E921C 
 221      1805
 222 0023 A38558B8 		.ascii	"\243\205X\270j\012\321&Xj\023\033\261\023\354\322YX"
 222      6A0AD126 
 222      586A131B 
 222      B113ECD2 
 222      5958
 223 0035 0444C44E 		.ascii	"\004D\304N\255\202\220*\351#\"\236\263{?9c\032\305\302"
 223      AD82902A 
 223      E923229E 
 223      B37B3F39 
 223      631AC5C2 
 224 0049 E16E666F 		.ascii	"\341nfoo\346\233\331\235a\300\240Wf\3505\005\300\244"
 224      6FE69BD9 
 224      9D61C0A0 
 224      5766E835 
 224      05C0A4
 225 005c FA880092 		.ascii	"\372\210\000\222\0072\344\2449\243m\311LRB0#X\033H\006"
 225      0732E4A4 
 225      39A36DC9 
 225      4C524230 
 225      23581B48 
 226 0071 4D440A40 		.ascii	"MD\012@\330a\\\030&\356\314\251O0Sp&\345q\243\3319\031"
 226      D8615C18 
 226      26EECCA9 
 226      4F305370 
 226      26E571A3 
 227 0088 3FACEE55 		.ascii	"?\254\356U\344\207\343\240\255~Y\010\263\264\302\244"
 227      E487E3A0 
 227      AD7E5908 
 227      B3B4C2A4 
 228 0098 360A1D16 		.ascii	"6\012\035\0267L^]\310XU\276;\016\377]\014\377/y\212"
ARM GAS  /tmp/ccZLWL0x.s 			page 17


 228      374C5E5D 
 228      C85855BE 
 228      3B0EFF5D 
 228      0CFF2F79 
 229 00ad 0897ECBA 		.ascii	"\010\227\354\272\3418\355Z\355\245\215\243&\002ebJq"
 229      E138ED5A 
 229      EDA58DA3 
 229      26026562 
 229      4A71
 230 00bf 525CA895 		.ascii	"R\\\250\225\001\232D\266,e%Y\364J!\311j\235S\315\340"
 230      019A44B6 
 230      2C652559 
 230      F44A21C9 
 230      6A9D53CD 
 231 00d4 F7B0DF78 		.ascii	"\367\260\337x<\212/\3409R\017`\033\336\344\201\034\261"
 231      3C8A2FE0 
 231      39520F60 
 231      1BDEE481 
 231      1CB1
 232 00e6 5158BA03 		.ascii	"QX\272\003@\020\332W^O\255D?/\326\365r\251\224\223\337"
 232      4010DA57 
 232      5E4FAD44 
 232      3F2FD6F5 
 232      72A99493 
 233 00fb C1DEF36B 		.ascii	"\301\336\363kg\302\365\317#N\303\024U\244\265\251u\344"
 233      67C2F5CF 
 233      234EC314 
 233      55A4B5A9 
 233      75E4
 234 010d 144E76A5 		.ascii	"\024Nv\245BD\003X\254\250S\252\003\3074k\321\255\200"
 234      42440358 
 234      ACA853AA 
 234      03C7346B 
 234      D1AD80
 235 0120 2C7AD61F 		.ascii	",z\326\037\260:\224\333\030\320\025!j\343@\230O\254"
 235      B03A94DB 
 235      18D01521 
 235      6AE34098 
 235      4FAC
 236 0132 DEF02F92 		.ascii	"\336\360/\222C\341\3269\357cX\250\310\037\226\307=h"
 236      43E1D639 
 236      EF6358A8 
 236      C81F96C7 
 236      3D68
 237 0144 18C73528 		.ascii	"\030\3075(N \012\030$\374\254;\251:@\364\011\020\177"
 237      4E200A18 
 237      24FCAC3B 
 237      A93A40F4 
 237      09107F
 238 0157 7D4961B8 		.ascii	"}Ia\270\321S\215\350WM\035n\232\301\255\362\274\337"
 238      D1538DE8 
 238      574D1D6E 
 238      9AC1ADF2 
 238      BCDF
 239 0169 52F7BA0C 		.ascii	"R\367\272\014=,\342\333\010\014Y\336\361\325\316\230"
 239      3D2CE2DB 
 239      080C59DE 
ARM GAS  /tmp/ccZLWL0x.s 			page 18


 239      F1D5CE98 
 240 0179 8DC33468 		.ascii	"\215\3034h\236\223\215\011?\332\364F\255u\033\3517D"
 240      9E938D09 
 240      3FDAF446 
 240      AD751BE9 
 240      3744
 241 018b A23B440F 		.ascii	"\242;D\017\260\333hO\373N\256d\325\331\324\261R\351"
 241      B0DB684F 
 241      FB4EAE64 
 241      D5D9D4B1 
 241      52E9
 242 019d 742678D6 		.ascii	"t&x\326J\231\365\215\214\275j\255l.-g\254Bi\253\224"
 242      4A99F58D 
 242      8CBD6AAD 
 242      6C2E2D67 
 242      AC4269AB 
 243 01b2 2EC027B8 		.ascii	".\300'\270W\315R"
 243      57CD52
 244              		.text
 245              		.section	.gnu.lto_thd2_execute.ad57d27706fd9720,"",%progbits
 246 0000 789CDD96 		.ascii	"x\234\335\226ML\023Q\020\307gv\267\355\366\213\266\224"
 246      4D4C1351 
 246      10C76776 
 246      B7EDF68B 
 246      B694
 247 0012 16D084A0 		.ascii	"\026\320\204\2401\321\030\001/zU\276\356\036 \321\243"
 247      31D11801 
 247      2F7A55BE 
 247      EE1E20D1 
 247      A3
 248 0023 590CEEC1 		.ascii	"Y\014\356\301\213\366f\"\257\264*Qc*r@\211\012\027\343"
 248      8BF66622 
 248      AFB42A51 
 248      632A7240 
 248      890A17E3 
 249 0037 C1C4440F 		.ascii	"\301\304D\017\350\255\211\211`\024\321\033\032\016\215"
 249      E8AD8989 
 249      6014D11B 
 249      1A0E8D
 250 0046 91848389 		.ascii	"\221\204\203\211\006.\370\305\372f\277\261\245\331\222"
 250      062EF8C5 
 250      FA66BFB1 
 250      A5D992
 251 0055 E0819776 		.ascii	"\340\201\227vv\337\274\2317\363\377uw\273\002\010\360"
 251      76DFBC99 
 251      37F3FF75 
 251      77BB0208 
 251      F0
 252 0066 EF38C0BF 		.ascii	"\3578\300\277\213\021\200\2434\361\001\362\010\024\004"
 252      8B1180A3 
 252      34F101F2 
 252      081404
 253 0075 11800912 		.ascii	"\021\200\011\0227\222\210\374\200\022\"_F\030\022D\011"
 253      379288FC 
 253      8012225F 
 253      46181244 
 253      09
ARM GAS  /tmp/ccZLWL0x.s 			page 19


 254 0086 874ED104 		.ascii	"\207N\321\004\322{a\212\261\321\322\322\267Y\351\316"
 254      D27B618A 
 254      B1D1D2D2 
 254      B759E9CE 
 255 0096 58313FC9 		.ascii	"X1?\311~k\032\242J\213\012\302I~\206\255\372\201vr\017"
 255      7E6B1AA2 
 255      4A8B0AC2 
 255      497E86AD 
 255      FA817672 
 256 00ab 23914DBC 		.ascii	"#\221M\274\272\021*dG\230\246\015\251(zL\272\275tb\226"
 256      BA112A64 
 256      4798A60D 
 256      A9287A4C 
 256      BABD7462 
 257 00c0 E58B9A76 		.ascii	"\345\213\232v\314{\316\323G,\250w'\252\244\306KN\261"
 257      CC7BCED3 
 257      472CA877 
 257      27AAA4C6 
 257      4B4EB1
 258 00d3 30E36A6E 		.ascii	"0\343jnG(\032\335q\212\306v\234\242\211\253\367\233"
 258      47281ADD 
 258      718AC676 
 258      9CA289AB 
 258      F79B
 259 00e5 AF4D0E17 		.ascii	"\257M\016\027\330:\277\225\274k\272\265\025M?\276\374"
 259      D83ABF95 
 259      BC6BBAB5 
 259      154D3FBE 
 259      FC
 260 00f6 1F4D0F66 		.ascii	"\037M\017fn\2725yM{6\363b\012\331\025\226\375\256i1"
 260      6EBA3579 
 260      4D7B36F3 
 260      620AD915 
 260      96FDAE69 
 261 010b 157D4E9A 		.ascii	"\025}N\232l\244\341\306\264'B\261\244i\213\323\223\237"
 261      6CA4E1C6 
 261      B42742B1 
 261      A4698BD3 
 261      939F
 262 011d 3F61A211 		.ascii	"?a\242\021\201\323\023\270\021E2\0227\222\217|~\232"
 262      81D313B8 
 262      11453212 
 262      37928F7C 
 262      7E9A
 263 012f 06C8C8E4 		.ascii	"\006\310\310\344\013\222/D\3230\231\010\371\242\344"
 263      0B922F44 
 263      D3309908 
 263      F9A2E4
 264 013e ABA3698C 		.ascii	"\253\243i\214L\234|\011\362\325\3234I\246\201|)2i\320"
 264      4C9C7C09 
 264      F2D5D334 
 264      49A6817C 
 264      293269D0 
 265 0152 7BE38FCE 		.ascii	"{\343\217\316<c\205V\275K>\372t\333O\217Sq\016\206\027"
 265      3C638556 
 265      BD4B3EFA 
 265      74DB4F8F 
ARM GAS  /tmp/ccZLWL0x.s 			page 20


 265      53710E86 
 266 0167 D7F843F2 		.ascii	"\327\370C\3624N\363\320A\3046x\314\342*\372'\340n\266"
 266      344EF3D0 
 266      41C43678 
 266      CCE22AFA 
 266      27E06EB6 
 267 017b 4067818B 		.ascii	"@g\201\213\360\223\215\323\231|NO$\2012XgA\227\324y"
 267      F0938DD3 
 267      997C4E4F 
 267      24813258 
 267      674197D4 
 268 0190 C815AF8B 		.ascii	"\310\025\257\213\326V\002%\216PbHA#J\3050\300\034\344"
 268      D6560225 
 268      8E506248 
 268      41234AC5 
 268      30C01CE4 
 269 01a4 46720F05 		.ascii	"Fr\017\005+L\344\221\264\221\310\1779-\246\357\322d"
 269      2B4CE491 
 269      B491C87F 
 269      392DA6EF 
 269      D264
 270 01b6 AD49F616 		.ascii	"\255I\366\026\021\005\215\377\007\336\"EG\227\005\312"
 270      11058DFF 
 270      07DE2245 
 270      479705CA 
 271 01c6 A57559C5 		.ascii	"\245uY\305:\005\315\262@\236&\025c-\260\347\036\033"
 271      3A05CDB2 
 271      409E2615 
 271      632DB0E7 
 271      1E1B
 272 01d8 3FAE621C 		.ascii	"?\256b\034\314\025\025\023T|\370\365\373\200\341!\251"
 272      CC151513 
 272      547CF8F5 
 272      FB80E121 
 272      A9
 273 01e9 7C1CE1A4 		.ascii	"|\034\341\244H-\243:\365v\305\3449\275i*\226\254\240"
 273      482DA33A 
 273      F576C5E4 
 273      39BD692A 
 273      96ACA0
 274 01fc 76902E16 		.ascii	"v\220.\026\2427\276\342\320\363\325L\0176\243\347\367"
 274      A237BEE2 
 274      D0F3D54C 
 274      0F36A3E7 
 274      F7
 275 020d 462FC023 		.ascii	"F/\300#uz\277\312\351\311\225\350\371\034z\201j\364"
 275      757ABFCA 
 275      E9C995E8 
 275      F91C7A81 
 275      6AF4
 276 021f F66D073D 		.ascii	"\366m\007=p\350\311\006\275\347.z\301\232\351I\233\321"
 276      70E8C906 
 276      BDE72E7A 
 276      C19AE949 
 276      9BD1
 277 0231 0B79A317 		.ascii	"\013y\243\027\346\221:=\255\234^\244\022\275\240C/\\"
 277      E6913A3D 
ARM GAS  /tmp/ccZLWL0x.s 			page 21


 277      AD9C5EA4 
 277      12BDA043 
 277      2F5C
 278 0243 8DDEFEED 		.ascii	"\215\336\376\355\240'9\364\"\006\275\005\027\275h\315"
 278      A02739F4 
 278      2206BD05 
 278      17BD68CD 
 279 0253 F4C4CDE8 		.ascii	"\364\304\315\350\325y\243\027\343\221:\275\365rz\361"
 279      D579A317 
 279      E3913ABD 
 279      F5727AF1 
 280 0263 4AF4A20E 		.ascii	"J\364\242\016\275X5z\007\267\203\236\350\320\213\353"
 280      BD58357A 
 280      07B7839E 
 280      E8D08BEB 
 281 0273 824B6F73 		.ascii	"\202Kos\346vFm=\267AA\311\024\2342\257\320\325\222\015"
 281      E676466D 
 281      3DB74141 
 281      C9149C32 
 281      AFD0D592 
 282 0288 26513363 		.ascii	"&Q3c\327K-1\276d\355T_\015\361\012ZaI\036\251#\376S"
 282      D74B2D31 
 282      BE64ED54 
 282      5F0DF10A 
 282      5A61491E 
 283 02a0 8EB8C18D 		.ascii	"\216\270\301\215\330gJK8\210\223\325\020\267m\007b["
 283      D8674A4B 
 283      388893D5 
 283      10B76D07 
 283      625B
 284 02b2 2C6FCE40 		.ascii	",o\316@\374\356eE\304\376\215\210\327V\227m\305\251"
 284      FCEE6545 
 284      C4FE8D88 
 284      D756976D 
 284      C5A9
 285 02c4 3638B4A5 		.ascii	"68\264\245\232TP*+\226V0`\266\224R\261\321\350j!\027"
 285      9A54502A 
 285      2B965630 
 285      60B69452 
 285      B1D1E86A 
 286 02da AED495EC 		.ascii	"\256\324\225\354t5\017\227K\037\025\253\247\264\035"
 286      74350F97 
 286      4B1F15AB 
 286      A7B41D
 287 02e9 D5A4980F 		.ascii	"\325\244\230\0171\0353Z@\233[\340\260\001t\227\003t"
 287      311D335A 
 287      409B5BE0 
 287      B0017497 
 287      0374
 288 02fb 37C02CE4 		.ascii	"7\300,\344\277\332\312\322\224\343\003\327\350\243w"
 288      BFDACAD2 
 288      94E303D7 
 288      E8A377
 289 030a 1BB19FAE 		.ascii	"\033\261\237\2568\361\015dy\375\001\272W>\000Z\355Y"
 289      38F10D64 
 289      79FD01BA 
 289      573E005A 
ARM GAS  /tmp/ccZLWL0x.s 			page 22


 289      ED59
 290 031c 715C3809 		.ascii	"q\\8\011mio\357\260?\2313\0272\035\3473\3721sv\240]"
 290      6D696FEF 
 290      B03F9933 
 290      17321DE7 
 290      33FA3173 
 291 0333 01A10784 		.ascii	"\001\241\007\204^\020:A\350\002\241\033\374\235]\335"
 291      5E103A41 
 291      E802A11B 
 291      FC9D5DDD 
 292 0343 3DBDF017 		.ascii	"=\275\360\027\314\254\345\272"
 292      CCACE5BA 
 293              		.text
 294              		.section	.gnu.lto_chVTGetSystemTime.ad57d27706fd9720,"",%progbits
 295 0000 789C858F 		.ascii	"x\234\205\217=K\003A\020\206\337\331\315%\226\202\325"
 295      3D4B0341 
 295      1086DFD9 
 295      CD259682 
 295      D5
 296 0011 6113839D 		.ascii	"a\023\203\235p\367g\"h\0316!9\320\010\336)\210E\326"
 296      70F76722 
 296      68193621 
 296      39D008DE 
 296      298845D6 
 297 0025 28281612 		.ascii	"((\026\022\354\264RI\357_H#AD\202\235\345\201\205\265"
 297      ECB45249 
 297      EF5F4823 
 297      4144829D 
 297      E58185B5 
 298 0039 6D8CAEB3 		.ascii	"m\214\256\263{\361\374@p\330\235\235}\367\231\217\025"
 298      7BF1FC40 
 298      70D89D9D 
 298      7DF7998F 
 298      15
 299 004a 10F86DF3 		.ascii	"\020\370m\363\274\333\004,\331K\001\304\004\011\222"
 299      BCDB042C 
 299      D94B01C4 
 299      040992
 300 0059 EC25B10C 		.ascii	"\354%\261\014BGH\352\254\332\030\242\202K\255\317\323"
 300      424748EA 
 300      ACDA18A2 
 300      824BADCF 
 300      D3
 301 006a 1B73E61F 		.ascii	"\033s\346\037_t{\372\335\030\212\354\223\"\254pDew\210"
 301      5F747BFA 
 301      DD188AEC 
 301      9322AC70 
 301      44657788 
 302 007e C2CF262E 		.ascii	"\302\317&.\355t\3602:\361\365\2674\201E\372'\363Z\014"
 302      ED74F032 
 302      3AF1F5B7 
 302      348145FA 
 302      27F35A0C 
 303 0092 5263266F 		.ascii	"Rc&o\375'Cs\222P\243+\252p\242k\012\017\007Z\367\312"
 303      FD274373 
 303      9250A32B 
 303      AA70A26B 
ARM GAS  /tmp/ccZLWL0x.s 			page 23


 303      0A0F075A 
 304 00a8 99E88660 		.ascii	"\231\350\206`\253:\277l\177\"G\330O\307\207\245\032"
 304      AB3ABF6C 
 304      7F2247D8 
 304      4FC787A5 
 304      1A
 305 00b9 F5C96371 		.ascii	"\365\311cq\027c}\244g#\222\312}\016\\\207\033Z\352\365"
 305      17637DA4 
 305      672392CA 
 305      7D0E5C87 
 305      1B5AEAF5 
 306 00cd B998514D 		.ascii	"\271\230QM\242\034\363\024\211)V\314\260\311\360\317"
 306      A21CF314 
 306      892956CC 
 306      B0C9F0CF 
 307 00dd 62F2ABD8 		.ascii	"b\362\253\330=\272\267\217\306\377,&\232\323N<\021S"
 307      3DBAB78F 
 307      C6FF2C26 
 307      9AD34E3C 
 307      1153
 308 00ef F20E7B33 		.ascii	"\362\016{3@\335j\017\240\234\312\220\252em\274\020\004"
 308      40DD6A0F 
 308      A09CCA90 
 308      AA656DBC 
 308      1004
 309 0101 61BE36E2 		.ascii	"a\2766\342p3\011\243\266Z\333\2527B\325\332N\202\026"
 309      703309A3 
 309      B65ADBAA 
 309      3742D5DA 
 309      4E8216
 310 0114 4AF14E9C 		.ascii	"J\361N\234D\353\215\017\217\032`\235"
 310      44EB8D0F 
 310      8F1A609D 
 311              		.text
 312              		.section	.gnu.lto_thd3_execute.ad57d27706fd9720,"",%progbits
 313 0000 789CED58 		.ascii	"x\234\355XKL\035U\030>\347\314\235\373\344\276\337@"
 313      4B4C1D55 
 313      183EE7CC 
 313      9DFBE4BE 
 313      DF40
 314 0012 29D0F228 		.ascii	")\320\362(\264<\312Cw\256\335\271(IuW/\015\336\225M"
 314      B43CCA43 
 314      77AEDDB9 
 314      28497557 
 314      2F0DDE95 
 315 0027 65E78281 		.ascii	"e\347\202\201{1\004\253!\004\324\252i\251\211\0215Q"
 315      7B3104AB 
 315      2104D4AA 
 315      69A98911 
 315      3551
 316 0039 D38DAF05 		.ascii	"\323\215\257\005\343\242\261@\364Fk\214ZM\210q\351\202"
 316      E3A2B140 
 316      F4466B8C 
 316      5A4D8871 
 316      E982
 317 004b 854913B5 		.ascii	"\205I\023\265\216\347;sg\356k\246LnR\322\005\023\370"
 317      8EE73B73 
ARM GAS  /tmp/ccZLWL0x.s 			page 24


 317      67EE6BA6 
 317      4C6E52D2 
 317      0513F8
 318 005e B9E73BFF 		.ascii	"\271\347;\377\371\317\367\375\377?s\356\300\010#\365"
 318      F9CFF7FD 
 318      FF3F73EE 
 318      C00823F5 
 319 006e D73DFEFB 		.ascii	"\327=\376\373z\212\220~\014Z\011\345\036\2241\211\020"
 319      7A8A907E 
 319      0C5A09E5 
 319      1E943189 
 319      10
 320 007f 85B9B871 		.ascii	"\205\271\270qI4\313\021\027\223\201\270\201\310\002"
 320      4934CB11 
 320      179381B8 
 320      81C802
 321 008e 71330F10 		.ascii	"q3\017\020/\020\217@\274\314\007\304\017\304'\020?\013"
 321      2F108F40 
 321      BCCC07C4 
 321      0FC42710 
 321      3F0B
 322 00a0 00690112 		.ascii	"\000i\001\022\020H\013\013\002\011\001\011\012$\304"
 322      10480B0B 
 322      02090109 
 322      0A24C4
 323 00af C2402240 		.ascii	"\302@\"@\302\002\211\260(\220\030\220\250@b,\016$\001"
 323      C20289B0 
 323      28901890 
 323      A840622C 
 323      0E2401
 324 00c2 242E9004 		.ascii	"$.\220\004K\002I\001I\012$\305\322@2@\322\002\311\010"
 324      4B024901 
 324      490A24C5 
 324      D2403240 
 324      D202C908 
 325 00d6 9BA5940B 		.ascii	"\233\245\224\013\243d\216I.\331\355\361\372\374\201"
 325      A3648E49 
 325      2ED9EDF1 
 325      FAFC81
 326 00e5 9660281C 		.ascii	"\226`(\034\211\306\342\211d*\235\311\322\271\247\341"
 326      89C6E289 
 326      642A9DC9 
 326      D2B9A7E1 
 327 00f5 41C6BAC9 		.ascii	"A\306\272\311\015EY\335{\367\235\257\244\253kjqC\371"
 327      0D4559DD 
 327      7BF79DAF 
 327      A4AB6B6A 
 327      7143F9
 328 0108 57D328CD 		.ascii	"W\323(\315c2G\311y\376\211v\212?HL\365\245/T\327w>\277"
 328      633247C9 
 328      79FE8976 
 328      8A3F484C 
 328      F5A52F54 
 329 0120 41959794 		.ascii	"A\225\227\224\371}M\013\347\251TY\346\325\227Q\253e"
 329      F97D4D0B 
 329      E7A95459 
 329      E6D59751 
ARM GAS  /tmp/ccZLWL0x.s 			page 25


 329      AB65
 330 0132 CA479B8A 		.ascii	"\312G\233\212$\366\222\034\257Q\337\330\271\342_\231"
 330      24F6921C 
 330      AF51DFD8 
 330      B9E25F99 
 331 0142 5F52346D 		.ascii	"_R4m\3161?\345\346\246\34236r\272\246\011rM\011\272"
 331      CE313FE5 
 331      E6A6E233 
 331      3672BAA6 
 331      09724D09 
 332 0157 D68CA0C3 		.ascii	"\326\214\240\303\"w\363Q&\267\265\274\226]\336XXQ\376"
 332      2277F351 
 332      26B7B5BC 
 332      965DDE58 
 332      5851FE
 333 016a E3DD9AA7 		.ascii	"\343\335\232\247.\207\364\356\375\361\324m\245\250j"
 333      2E87F4EE 
 333      FDF1D46D 
 333      A5A86A
 334 0179 DA130FB5 		.ascii	"\332\023\017\265\201\324;;\333\374\246X5n\212\207\270"
 334      81D43B3B 
 334      DBFCA658 
 334      356E8A87 
 334      B8
 335 018a D5A165FC 		.ascii	"\325\241e\374\356\362\333\325\031w\232\211\337\016\357"
 335      EEF2DBD5 
 335      19779A89 
 335      DF0EEF
 336 0199 F1B05FDD 		.ascii	"\361\260_\335\260N;\242\231\224?\312e\372\353(\011\253"
 336      B04E3BA2 
 336      99943FCA 
 336      65FAEB28 
 336      09AB
 337 01ab EAFDE67A 		.ascii	"\352\375\346zUk\356\256=,U\253\273G\245U_;J\302\252"
 337      556BEEAE 
 337      3D2C55AB 
 337      BB47A555 
 337      5F3B4AC2 
 338 01c0 7AFDE566 		.ascii	"z\375\345fN?\365\223&r\247\336\377\372\225\254R\331"
 338      4E3FF593 
 338      2672A7DE 
 338      FFFA95AC 
 338      52D9
 339 01d2 4B66A48B 		.ascii	"Kf\244\213:\313\306\235i\363\254\345\253z\017Z\3651"
 339      3ACBC69D 
 339      69F3ACE5 
 339      AB7A0F5A 
 339      F531
 340 01e4 53F734ED 		.ascii	"S\3674\355\327\255\215\337\357\322\330c\224\\\240\337"
 340      D7AD8DDF 
 340      EFD2D863 
 340      945CA0DF 
 341 01f4 D36EFED5 		.ascii	"\323n\376\325\235\247_\342\203\037\370\300\305\007\222"
 341      9DA75FE2 
 341      831FF8C0 
 341      C50792
 342 0203 0CE306EC 		.ascii	"\014\343\006\354\201\361b\350\203\361\227\275\002\200"
ARM GAS  /tmp/ccZLWL0x.s 			page 26


 342      81F162E8 
 342      83F197BD 
 342      0280
 343 0211 5B800461 		.ascii	"[\200\004aB\030\206\361)\002\023\345\306\025\003\026"
 343      421886F1 
 343      290213E5 
 343      C6150316 
 344 0221 8749C024 		.ascii	"\207I\300$aR\230M\303d0\314\226\243\265\002i\203i\307"
 344      6152984D 
 344      C36430CC 
 344      96A3B502 
 344      698369C7 
 345 0235 CA6398EB 		.ascii	"\312c\230\353\2009\016\254\023\246\013\023\335\300N"
 345      80390EAC 
 345      13A60B13 
 345      DDC04E
 346 0244 C09C04D6 		.ascii	"\300\234\004\326\003\323\213a_9P?\006\247\000\017\300"
 346      03D38B61 
 346      5F39503F 
 346      06A7000F 
 346      C0
 347 0255 0C62D169 		.ascii	"\014b\321i`g`\206\200\015\303\214`b\024\330Y\2301`\343"
 347      60676086 
 347      800DC38C 
 347      606214D8 
 347      59983160 
 348 026a 30139898 		.ascii	"0\023\230\230$\242tD&EEY\351\324\223\244o \012\312\257"
 348      24A27444 
 348      26454559 
 348      E9D493A4 
 348      6F200ACA 
 349 027f 73C24EE1 		.ascii	"s\302N\341\235F*\221\302\336\322\242\373\002\375\221"
 349      9D462A91 
 349      C2DED2A2 
 349      FB02FD91 
 350 028f CA6486D2 		.ascii	"\312d\206\322\027\311\337\312\222\022\311Sw\216\352"
 350      17C9DFCA 
 350      9212C953 
 350      778EEA
 351 029e BD95A7FC 		.ascii	"\275\225\247\374\215\346\033RX*\274\267\366\270\341"
 351      8DE61B52 
 351      582ABCB7 
 351      F6B8E1
 352 02ad C7B82B6A 		.ascii	"\307\270+jD\340S\"E\325\214 \231\021\2749\252\277Wq"
 352      44E05322 
 352      45D58C20 
 352      9911BC39 
 352      AABF5771 
 353 02c1 F73CF589 		.ascii	"\367<\365\211 \245\302\207k\222\341\352\342\3363\330"
 353      20A5C287 
 353      6B92E1EA 
 353      E2DE33D8 
 354 02d1 A5446403 		.ascii	"\245Dd\003\223\315\345\376\034\332\235_\330'@\341\237"
 354      93CDE5FE 
 354      1CDA9D5F 
 354      D82740E1 
 354      9F
ARM GAS  /tmp/ccZLWL0x.s 			page 27


 355 02e2 A7FC9DE9 		.ascii	"\247\374\235\3516)\376IMwLJ\325]r\016Ci\0129\200\270"
 355      3629FE49 
 355      4D774C4A 
 355      D55D720E 
 355      43690A39 
 356 02f8 8D2B6668 		.ascii	"\215+fh\367\003\264\231\234<\325\302@\330\234\361\362"
 356      F703B499 
 356      9C3CD5C2 
 356      40D89CF1 
 356      F2
 357 0309 0833F0AF 		.ascii	"\0103\360\257b\353\263a\313\340\337\310\326g\301V\026"
 357      62EBB361 
 357      CBE0DFC8 
 357      D667C156 
 357      16
 358 031a 6CDD826D 		.ascii	"l\335\202mq\357\325[\246\263\337*\221\222\221\310\245"
 358      71EFD55B 
 358      A6B3DF2A 
 358      919291C8 
 358      A5
 359 032b C2562591 		.ascii	"\302V%\221\001[\322-b\322_C:hCZ\202\177#\351\240\005"
 359      015BD22D 
 359      62D25F43 
 359      3A68435A 
 359      827F23E9 
 360 0341 698F20ED 		.ascii	"i\217 \355-\247\370\252\031:d\237\342\012\2470\367\253"
 360      2DA7F8AA 
 360      193A649F 
 360      E20AA730 
 360      F7AB
 361 0353 2F7BC486 		.ascii	"/{\304\206\223\013\376\215\234\"\026\234|\202\223\277"
 361      930BFE8D 
 361      9C22169C 
 361      7C8293BF 
 362 0363 DCD3D716 		.ascii	"\334\323\327\026=\2723!f\350`\216\272\312\234B\330\275"
 362      3DBA3321 
 362      66E8608E 
 362      BACA9C42 
 362      D8BD
 363 0375 B0777DD1 		.ascii	"\260w}\321o\204\214\232n\341\234X\006\267\010\250/\374"
 363      6F848C9A 
 363      6EE19C58 
 363      06B708A8 
 363      2FFC
 364 0387 B21F32BC 		.ascii	"\262\0372\274b\203\344\003E\201\227\374\026y\223\223"
 364      6283E403 
 364      458197FC 
 364      16799393 
 365 0397 88F295E7 		.ascii	"\210\362\225\347\365G,\277\2365\037\3075M\025\347\013"
 365      F5472CBF 
 365      9E351FC7 
 365      354D15E7 
 365      0B
 366 03a8 457D9898 		.ascii	"E}\230\230YxR\237p\026\213/\327\311n\336\262\224\344"
 366      5978529F 
 366      70168B2F 
 366      D7C96EDE 
ARM GAS  /tmp/ccZLWL0x.s 			page 28


 366      B294E4
 367 03bb AE95F4FE 		.ascii	"\256\225\364\376Ec\327\204\223~O\032\255\303\352['\305"
 367      4563D784 
 367      937E4F1A 
 367      ADC3EA5B 
 367      27C5
 368 03cd 23F0F99A 		.ascii	"#\360\371\2322\245m\312$\374\033\313\224\266(S@\224"
 368      32A56DCA 
 368      24FC1BCB 
 368      94B62853 
 368      4094
 369 03df 897B4AA2 		.ascii	"\211{J\242\213?]7\237)\031\333gJ\326\352V\310T\236)"
 369      8B3F5D37 
 369      9F2919DB 
 369      674AD6EA 
 369      56C8549E 
 370 03f4 5FAE9BAC 		.ascii	"_\256\233\254[\271w}s\265\331\260v\303\277\221u\233"
 370      5BB9777D 
 370      73B5D9B0 
 370      76C3BF91 
 370      759B
 371 0406 05EBA060 		.ascii	"\005\353\240`\035*7\374gf\350v\373\256y\306\36096H\006"
 371      1D2A37FC 
 371      6766E876 
 371      FBAE79C6 
 371      F0393648 
 372 041b AA6BDC7E 		.ascii	"\252k\334~`\277t\330\026\3458\017\307\347k\344u\332"
 372      60BF74D8 
 372      16E5380F 
 372      C7E76BE4 
 372      75DA
 373 042d C8F3C0BF 		.ascii	"\310\363\300\277Q^\247\205\274\260\220\027)\313\373"
 373      515EA785 
 373      BCB09017 
 373      29CBFB
 374 043c C20CDDE5 		.ascii	"\302\014\335\345@^w\235\274\256jy\324J\336\011\333\307"
 374      405E779D 
 374      BCAE6A79 
 374      D44ADE09 
 374      DBC7
 375 044e D5491E8E 		.ascii	"\325I\036\216\317\327\310\353\261\221\347\205\177\243"
 375      CFD7C8EB 
 375      B191E785 
 375      7FA3
 376 045c BC1E0B79 		.ascii	"\274\036\013yQ!/f\364\334?\225\236\3535\250H\365=\327"
 376      51212F66 
 376      F4DC3F95 
 376      9EEB35A8 
 376      48F53DD7 
 377 0470 67D573BD 		.ascii	"g\325s\275\225\307\257V\351\271~[=\247\304d_\215\236"
 377      95C7AF56 
 377      E9B97E5B 
 377      3DA7C464 
 377      5F8D9E
 378 0483 011B3D3E 		.ascii	"\001\033=>\3707\352\031\260\320\023\027z\022\345rm\233"
 378      F837EA19 
 378      B0D01317 
ARM GAS  /tmp/ccZLWL0x.s 			page 29


 378      7A12E572 
 378      6D9B
 379 0495 A1071D94 		.ascii	"\241\007\035\224\353t]\271\006\017\354\3063\3259\252"
 379      EB745DB9 
 379      060FECC6 
 379      33D539AA 
 380 04a5 9137C4C3 		.ascii	"\2217\304\303\361\371\032y\3036\362\374\360o\2247l!"
 380      F1F91A79 
 380      C336F2FC 
 380      F06F9437 
 380      6C21
 381 04b7 2F29E4A5 		.ascii	"/)\344\245\312\362v\315\320#\016\344\215\326\311\033"
 381      CAF276CD 
 381      D0230EE4 
 381      8DD6C91B 
 382 04c7 39B01BCF 		.ascii	"9\260\033\317\332\312\033\343\341\370|\215\274q\033"
 382      DACA1BE3 
 382      E1F87C8D 
 382      BC711B
 383 04d6 7901F837 		.ascii	"y\001\3707\312\033\267\220\227\026\3622\345\203\352"
 383      CA1BB790 
 383      9716F232 
 383      E583EA
 384 04e5 5B470755 		.ascii	"[G\007U\251rPM\330ga\3338\250\364\223E\231\252\316\304"
 384      A972504D 
 384      D86761DB 
 384      38A8F493 
 384      4599AACE 
 385 04fa 84D5D142 		.ascii	"\204\325\321B\365\360?U\302O>(|\330>\374dc\242\315\360"
 385      F5F03F55 
 385      C24F3E28 
 385      7CD83EFC 
 385      6463A2CD 
 386 050f 3F1F7872 		.ascii	"?\037xr\341\232\302?\246\245]2\317\277WL#\302w\342c"
 386      E19AC23F 
 386      A6A55D32 
 386      CFBF574C 
 386      23C277E2 
 387 0524 25711CC3 		.ascii	"%q\034\303\215\330144l\376\314^|av\370\362\254\370;"
 387      8DD83134 
 387      346CFECC 
 387      5E7C6176 
 387      F8F2ACF8 
 388 0539 FBDCF450 		.ascii	"\373\334\364P\216\270.]\316?\317.\215\376\017\304\037"
 388      8EB82E5D 
 388      CE3FCF2E 
 388      8DFE0FC4 
 388      1F
 389 054a BD82     		.ascii	"\275\202"
 390              		.text
 391              		.section	.gnu.lto_thd4_execute.ad57d27706fd9720,"",%progbits
 392 0000 789CCD95 		.ascii	"x\234\315\225\317k\023A\024\307\337\233\331\337\233"
 392      CF6B1341 
 392      14C7DF9B 
 392      D9DF9B
 393 000f 5FE2A9A0 		.ascii	"_\342\251\240R\013^<\244\377IO-\350\261&\245\346\340"
 393      520B5E3C 
ARM GAS  /tmp/ccZLWL0x.s 			page 30


 393      A4FF494F 
 393      2DE8B126 
 393      A5E6E0
 394 0022 4573F390 		.ascii	"Es\363\220\211\211\030\252H\320S\205Bz\020\322\203\006"
 394      898918AA 
 394      48D05385 
 394      427A10D2 
 394      8306
 395 0034 3D88070F 		.ascii	"=\210\007\017\271\251TS\004\357\015z\250\240\202\340"
 395      B9A95453 
 395      04EF0D7A 
 395      A8A082E0 
 396 0044 4DC5F5BD 		.ascii	"M\305\365\275\331\354n\232\037\255\012\205.\311\354"
 396      D9EC6E9A 
 396      1FAD0A85 
 396      2EC9EC
 397 0053 CCF7FD98 		.ascii	"\314\367\375\230\367\231\341\261\002\004\214>E\372\237"
 397      F799E1B1 
 397      02048C3E 
 397      45FA9F
 398 0062 B701CEF1 		.ascii	"\267\001\316\361\302\007$\017\024B\002(a\320`H\364H"
 398      C207240F 
 398      14420228 
 398      61D06048 
 398      F448
 399 0074 3184C98A 		.ascii	"1\204\311\212\305\212\251\025K\330\2548\254\330Zq\204"
 399      C58AA915 
 399      4BD8AC38 
 399      ACD85A71 
 399      84
 400 0085 CB8AC78A 		.ascii	"\313\212\307\212\253\025\017\221\222\"T\2044L\313v\\"
 400      AB150F91 
 400      92225484 
 400      344CCB76 
 400      5C
 401 0096 0F2B1759 		.ascii	"\017+\027Y\202\364\034l*u\257\177\363\343\372\314Z\353"
 401      82F41C6C 
 401      2A75AF7F 
 401      F3E3FACC 
 401      5AEB
 402 00a8 4653FD0E 		.ascii	"FS\375\016\002,\261\251\200p\201f8\253_\\\303\360\023"
 402      022CB1A9 
 402      80708166 
 402      38AB5F5C 
 402      C3F013
 403 00bb 86A9A76D 		.ascii	"\206\251\247m\345\266\324\257 \220\177\037\363\270\255"
 403      E5B6D4AF 
 403      20907F1F 
 403      F3B8AD
 404 00ca 64142393 		.ascii	"d\024#\223\030'\214\301I1\335g\275;^\263\332PAP9~\305"
 404      18278CC1 
 404      4931DD67 
 404      BD3B5EB3 
 404      DA504150 
 405 00e1 BD3FCEC5 		.ascii	"\275?\316\305\355\3666\376\343b\273\337{\2577\221\266"
 405      EDF636FE 
 405      E362BBDF 
ARM GAS  /tmp/ccZLWL0x.s 			page 31


 405      7BAF3791 
 405      B6
 406 00f2 AC7E0B82 		.ascii	"\254~\013\202\354\321V\370s\373\356\214J*4\004\234\305"
 406      ECD156F8 
 406      73FBEE8C 
 406      4A2A3404 
 406      9CC5
 407 0104 4376EB88 		.ascii	"Cv\353\210n?\010\336\354\266>\274\300\223'\020\226\361"
 407      6E3F08DE 
 407      ECB63EBC 
 407      C0932710 
 407      96F1
 408 0116 11CE514F 		.ascii	"\021\316QOQ\241\222\007\203\006i\016d\213\025\233\007"
 408      51A19207 
 408      8306690E 
 408      648B159B 
 408      07
 409 0127 87657720 		.ascii	"\207ew {\254\370<\244XN\363,3\260ey\221\003\315\000"
 409      7BACF83C 
 409      A4584EF3 
 409      2C33B065 
 409      799103CD 
 410 013c 26D4956A 		.ascii	"&\324\225j\316\206\026\315D\317\242\036\227\270K\345"
 410      CE8616CD 
 410      44CFA21E 
 410      97B84BE5 
 411 014c 0ED4FAC1 		.ascii	"\016\324\372\301Co\031;H\315\011\327\341\207j\250\\"
 411      436F193B 
 411      48CD09D7 
 411      E1876AA8 
 411      5C
 412 015d 09CD0286 		.ascii	"\011\315\002\206\304%\244~e\257\265[V\350\265\2128\354"
 412      C425A47E 
 412      65AFB55B 
 412      56E8B58A 
 412      38EC
 413 016f 2686DDEA 		.ascii	"&\206\335\352\375\333\253c\271\354\202\256\005\364q"
 413      FDDBAB63 
 413      B9EC82AE 
 413      05F471
 414 017e C027C6A1 		.ascii	"\300'\306\241\216\177\013\265F\355\311\251(\247\240"
 414      8E7F0BB5 
 414      46EDC9A9 
 414      28A7A0
 415 018d B4913D34 		.ascii	"\264\221=4\312\310$#\323g6\355@\\\207\021o\341\026\320"
 415      CAC82423 
 415      D36736ED 
 415      405C8711 
 415      6FE116D0 
 416 01a1 88B7F030 		.ascii	"\210\267\3600\314G\367\350\003\274\202\372\027\214#"
 416      CC47F7E8 
 416      03BC82FA 
 416      178C23
 417 01b0 D82E87AF 		.ascii	"\330.\207\257c\221\227r\211\303\365a\254'\230\346\001"
 417      63919772 
 417      89C3F561 
 417      AC2798E6 
ARM GAS  /tmp/ccZLWL0x.s 			page 32


 417      01
 418 01c1 980FFE09 		.ascii	"\230\017\376\011\363k\214iQ\332)\230vd\032\305t\246"
 418      F36B8C69 
 418      51DA2998 
 418      76641AC5 
 418      74A6
 419 01d3 608A309F 		.ascii	"`\2120\237=\216\351L\30045\2465\300l'\230\356\001\230"
 419      3D8EE94C 
 419      C03435A6 
 419      35C06C27 
 419      98EE0198 
 420 01e7 5B876136 		.ascii	"[\207a6\027\2060\267NG9=J\033\331G0\375\310t\177a?f"
 420      178630B7 
 420      4E47393D 
 420      4A1BD947 
 420      30FDC874 
 421 01ff 6A0AA60C 		.ascii	"j\012\246\014\363\371\343\230\251\011\230\266\306t\006"
 421      F3F9E398 
 421      A90998B6 
 421      C67406
 422 020e 989DBD4C 		.ascii	"\230\235\275L\344\234\236\202\251+\277\024ye\3101\271"
 422      E49C9E82 
 422      A92BBF14 
 422      7965C831 
 422      B9
 423 021f 1F3E82E7 		.ascii	"\037>\202\347/\307\273\203\316\300\324\031( \301\337"
 423      2FC7BB83 
 423      CEC0D419 
 423      2820C1DF 
 424 022f DB8821B3 		.ascii	"\333\210!\263d\320i\344~\306\334\024F#\334:;\316\230"
 424      64D069E4 
 424      7EC6DC14 
 424      4623DC3A 
 424      3BCE98
 425 0242 9BC0E86A 		.ascii	"\233\300\350jF\3728\312m\250\322\356En\325wz\2328\221"
 425      46FA38CA 
 425      6DA8D2EE 
 425      456ED577 
 425      7A9A3891 
 426 0256 C69467F2 		.ascii	"\306\224g\362\371\371\370W^\271V\236\277Z\326\357\362"
 426      F9F9F857 
 426      5EB9569E 
 426      BF5AD6EF 
 426      F2
 427 0267 E562BE00 		.ascii	"\345b\276\000F\271te\345\017\027\034\212n"
 427      46B97465 
 427      E50F171C 
 427      8A6E
 428              		.text
 429              		.section	.gnu.lto_.symbol_nodes.ad57d27706fd9720,"",%progbits
 430 0000 789C4D91 		.ascii	"x\234M\221\311r\323@\020\206\273[R\344\200\304XfK\342"
 430      C972D340 
 430      1086BB5B 
 430      52E480C4 
 430      58664BE2 
 431 0014 2406C2F6 		.ascii	"$\006\302\366Zy\2226\026\304\216\0156\204\"T\221*\250"
 431      5A799236 
ARM GAS  /tmp/ccZLWL0x.s 			page 33


 431      16C48E0D 
 431      36842254 
 431      912AA8
 432 0027 B20E7083 		.ascii	"\262\016p\203\013G(J\276s\342\001\260|\345\302\276&"
 432      0B47284A 
 432      BE73E201 
 432      B07CE5C2 
 432      BE26
 433 0039 61667A60 		.ascii	"afz`\244\3137_O\367\314/\211\200\340e\010\362\32010"
 433      A4CB375F 
 433      4FF7CC2F 
 433      8980E065 
 433      08F2D031 
 434 004e C0DDB700 		.ascii	"\300\335\267\000\314\017\006\333\324E\306\232\016\220"
 434      CC0F06DB 
 434      D445C69A 
 434      0E90
 435 005c A9A6F790 		.ascii	"\251\246\367\220\203\232>G\016k\372\0129\362\032\335"
 435      839A3E47 
 435      0E6BFA0A 
 435      39F21ADD 
 436 006c 20BD027A 		.ascii	" \275\002z\215\274Tk\372\210\034;}\267\273M\237\220"
 436      8DBC546B 
 436      FA881C3B 
 436      7DB7BB4D 
 436      9F90
 437 007e 1B5EA33F 		.ascii	"\033^\243?\210z&:B2\243O\221\227k\243\317\220O\324\316"
 437      887A263A 
 437      4232A34F 
 437      91976BA3 
 437      CF904FD4 
 438 0093 DFA520E4 		.ascii	"\337\245 \344\200\276 \237\254\035\370\0029\251\315"
 438      80BE209F 
 438      AC1DF802 
 438      39A9CD
 439 00a2 7C434E6B 		.ascii	"|CNk\273?\220O\325\256\373\205a\254\257\373\214\221"
 439      BB3F904F 
 439      D5AEFB85 
 439      61ACAFFB 
 439      8C91
 440 00b4 C1575C32 		.ascii	"\301W\\2\370\216\261\301Olh\340od%\023\335.b\227\270"
 440      F88EB1C1 
 440      4F6C68E0 
 440      6F642513 
 440      DD2E6297 
 441 00c9 E9ED1839 		.ascii	"\351\355\0309\363v\210\334\362v\213\370\264\267\233"
 441      F37688DC 
 441      F2768BF8 
 441      B4B79B
 442 00d8 C467BC0D 		.ascii	"\304g\274\015\210\317z\353\023\237\363\266C|\336[N\274"
 442      88CF7AEB 
 442      139FF3B6 
 442      437CDE5B 
 442      4EBC
 443 00ea E2AD47BC 		.ascii	"\342\255G\274\352mD\274\346mH\334\3666&^\3676!\336\360"
 443      EA6D44BC 
 443      E66D48DC 
ARM GAS  /tmp/ccZLWL0x.s 			page 34


 443      F636265E 
 443      F73621DE 
 444 00ff 768778D3 		.ascii	"v\207x\323\333m\342\316\177\013\002\202\336\373#\014"
 444      DB6DE2CE 
 444      7F0B0282 
 444      DEFB230C 
 445 010f C2401847 		.ascii	"\302@\030G\302\306\012\024\206\3131L-\333\260p^\316"
 445      C2C60A14 
 445      86CB314C 
 445      2DDBB070 
 445      5ECE
 446 0121 C5F39D0F 		.ascii	"\305\363\235\017\035\343\225e\033\212\276xo(>\033\212"
 446      1DE39565 
 446      1B8ABE78 
 446      6F283E1B 
 446      8A
 447 0132 4F47E20B 		.ascii	"OG\342\013\3135(\306\206\25303L@\356K6\344\276d\035"
 447      CB3528C6 
 447      86AB3033 
 447      4C40EE4B 
 447      36E4BE64 
 448 0147 6686E905 		.ascii	"f\206\351\005\310-;RO7\2410\367\244\010\245\241r\271"
 448      C82D3B52 
 448      4F37A130 
 448      F7A408A5 
 448      A172B9
 449 015a 94CBA55C 		.ascii	"\224\313\245\\.\345r)\227K\271\\\312\345R.\227J\240"
 449      2EE57229 
 449      974BB95C 
 449      CAE5522E 
 449      974AA0
 450 016d 37927A69 		.ascii	"7\222ziy\011r\223G\245PZ^\204|b\250\363Z\352\274\206"
 450      79097293 
 450      47A5505A 
 450      5E847C62 
 450      A8F35AEA 
 451 0183 CD44F236 		.ascii	"\315D\3626C\271\277\251\373\015\263X\352\331e\311\237"
 451      43B9BFA9 
 451      FB0DB358 
 451      EAD965C9 
 451      9F
 452 0194 6D413E97 		.ascii	"mA>\227\272\315\245\335\346\327\373\013\313-\230\231"
 452      BACDA5DD 
 452      E6D7FB0B 
 452      CB2D9899 
 453 01a4 5C99CB65 		.ascii	"\\\231\313e\334\322\345\312\"\371nY\012\323\261\364"
 453      DCD2E5CA 
 453      22F96E59 
 453      0AD3B1F4 
 454 01b4 D95CE69C 		.ascii	"\331\\\346\234\211\234\223\357\271\271=\351\357\335"
 454      899C93EF 
 454      B9B93DE9 
 454      EFDD
 455 01c2 17CFF7C5 		.ascii	"\027\317\367\305\313}\267\377P\372\213Gn\377\300\355"
 455      CB7DB7FF 
 455      50FA8B47 
 455      6EFFC0ED 
ARM GAS  /tmp/ccZLWL0x.s 			page 35


 456 01d2 1FB8FDC7 		.ascii	"\037\270\375\307n\376\211\333\257\336\034\006&H)\213"
 456      6EFE89DB 
 456      AFDE1C06 
 456      2648298B 
 457 01e2 08AA7F8B 		.ascii	"\010\252\177\213\351\302.R\250\354\242u]~R\253)\037"
 457      E9C22E52 
 457      A8ECA275 
 457      5D7E52AB 
 457      291F
 458 01f4 A3754D5E 		.ascii	"\243uM^\276u\005\212\271\324\253\271\324\355O\321u\373"
 458      BE75058A 
 458      B9D4ABB9 
 458      D4ED4FD1 
 458      75FB
 459 0206 F2A6DFBC 		.ascii	"\362\246\337\274\274\351\357K\275\030J\275\262\274\012"
 459      BCE9EF4B 
 459      BD184ABD 
 459      B2BC0A
 460 0215 C5C8F56B 		.ascii	"\305\310\365k\302_\337\262x\372"
 460      C25FDFB2 
 460      78FA
 461              		.text
 462              		.section	.gnu.lto_.refs.ad57d27706fd9720,"",%progbits
 463 0000 789C7D8A 		.ascii	"x\234}\212K\012\2000\020\305\336\004;X\213Vk?\247\364"
 463      4B0A8030 
 463      10C5DE04 
 463      3B588B56 
 463      6B3FA7F4 
 464 0014 FE5B05D7 		.ascii	"\376[\005\327\232@VA\350\322\213\005y\216Z\230-}5\254"
 464      9A405641 
 464      E8D28B05 
 464      798E5A98 
 464      2D7D35AC 
 465 0028 725C8F6C 		.ascii	"r\\\217l{\376\177\225\246\223J\2433\254\022\255\221"
 465      7BFE7F95 
 465      A6934AA3 
 465      33AC12AD 
 465      91
 466 0039 AD73D8A0 		.ascii	"\255s\330\240\350\006\275-\003N"
 466      E806BD2D 
 466      034E
 467              		.text
 468              		.section	.gnu.lto_.decls.ad57d27706fd9720,"",%progbits
 469 0000 789CBD5C 		.ascii	"x\234\275\\\013t\024E\272\356\356\311L\022\022!\200"
 469      0B741445 
 469      BAEEEEC9 
 469      4C121221 
 469      80
 470 0011 BAE003E3 		.ascii	"\272\340\003\343\256\373\270{W#\250+\273{v\305\215^"
 470      AEFBB87B 
 470      5723A82B 
 470      BB7B76C5 
 470      8D5E
 471 0023 F59E65AF 		.ascii	"\365\236e\257'\340=\236\263g\357\330L\032\222k2\311"
 471      27E03D9E 
 471      B367EFD8 
 471      4C1A926B 
ARM GAS  /tmp/ccZLWL0x.s 			page 36


 471      32C9
 472 0035 CE7440EF 		.ascii	"\316t@\357\313N\200\200\202\020\010\217\200\201\004"
 472      CB4E8080 
 472      8210088F 
 472      808104
 473 0044 10444010 		.ascii	"\020D@\020\204@x\016\"\201`\344\025\226\247\204 \202"
 473      8440780E 
 473      228160E4 
 473      1596A784 
 473      2082
 474 0056 B0220241 		.ascii	"\260\"\002AH\020\310\375\353\357\352\231\352\236\356"
 474      4810C8FD 
 474      EBEFEA99 
 474      EA9EEE
 475 0065 9EEEB8EE 		.ascii	"\236\356\270\356\234TuOw\325\367\277\377\252\256\256"
 475      9C54754F 
 475      77D5F7BF 
 475      FFAAAEAE 
 476 0075 89C0095C 		.ascii	"\211\300\011\\\256\217\343:\341\363S\211\3436\247q\\"
 476      AE8FE33A 
 476      E1F35389 
 476      E336A771 
 476      5C
 477 0086 06C771BF 		.ascii	"\006\307q\277\343b\237L(\363\240,\202\362.\224:(\365"
 477      E3629F4C 
 477      28F3A02C 
 477      82F22E94 
 477      3A28F5
 478 0099 50364299 		.ascii	"P6B\231\304s\334T(\263\240TC\251\2012\037\312B(\213"
 478      C473DC54 
 478      28B3A054 
 478      43A98132 
 478      1FCA4228 
 479 00ae A12C85B2 		.ascii	"\241,\205\262\034\312*(\033\240l\202\322\004e7\224\275"
 479      1CCA2A28 
 479      1BA06C82 
 479      D2046537 
 479      94BD
 480 00c0 500E4039 		.ascii	"P\016@9\010\3450\224O\241\264@9\005\345\013(_A\271\004"
 480      08E53094 
 480      4FA1B440 
 480      3905E50B 
 480      285F41B9 
 481 00d5 A50D4A2A 		.ascii	"\245\015J*\320\372\006\216\377#p\\)\224\261P&B\231\007"
 481      D0FA068E 
 481      FF23705C 
 481      2994B150 
 481      26429907 
 482 00e9 65299455 		.ascii	"e)\224UP6\012\234\356Cx\366BY\016\245;\224t(\333\241"
 482      50360A9C 
 482      EE4378F6 
 482      42590EA5 
 482      3B947428 
 483 00ff CD0EDA4E 		.ascii	"\315\016\332N\240m\032\015\3758*k\242\276\213,\372\022"
 483      A06D1A0D 
 483      FD382A6B 
 483      A2BE8B2C 
ARM GAS  /tmp/ccZLWL0x.s 			page 37


 483      FA12
 484 0111 1D814AB9 		.ascii	"\035\201J\271\245L\337\375\320\356\010\224f( \006\367"
 484      A54CDFFD 
 484      D0EE0894 
 484      66282006 
 484      F7
 485 0122 253D92B6 		.ascii	"%=\222\266\344\350\363\3501\352(}\026#\031\332,\341"
 485      E4E8F3E8 
 485      31EA287D 
 485      162319DA 
 485      2CE1
 486 0134 62F4EB98 		.ascii	"b\364\353\230\376)\206\376\365\016\372\327S\014\322"
 486      FE2986FE 
 486      F50EFAD7 
 486      530CD2
 487 0143 3FD5D07F 		.ascii	"?\325\320\177#\225a3\323\377&4\274\012\245\233G\355"
 487      23956133 
 487      D3FF2634 
 487      BC0AA59B 
 487      47ED
 488 0155 7F03CE6F 		.ascii	"\177\003\316o\243rl\244\230\304Fi\006,\342#\311p\334"
 488      A3726CA4 
 488      98C44669 
 488      062CE223 
 488      C970DC
 489 0168 C56011DC 		.ascii	"\305`\021\334th\267\011\216[(\017\215\024\203\264\337"
 489      7468B709 
 489      8E5B280F 
 489      8D1483B4 
 489      DF
 490 0179 48AFDD66 		.ascii	"H\257\335f\300\"\276F\370\272\312`\325\303\265\356\320"
 490      C022BE46 
 490      F8BACA60 
 490      D5C3B5EE 
 490      D0
 491 018a 6E051F93 		.ascii	"n\005\037\223m*\365;ri\006\257\307 \276z\027\034\237"
 491      6D2AF53B 
 491      726906AF 
 491      C720BE7A 
 491      171C9F
 492 019d 60754379 		.ascii	"`uCyZ\015\367\376\017\000\376\027J\017\300L\202k\031"
 492      5A0DF7FE 
 492      0F00FE17 
 492      4A0FC04C 
 492      826B19
 493 01b0 709C0CD7 		.ascii	"p\234\014\327{zT\2356\302y/\217\352\017\233\341\274"
 493      7B7A549D 
 493      36C2792F 
 493      8FEA0F9B 
 493      E1BC
 494 01c2 0C8EBDE1 		.ascii	"\014\216\275\341\373\0148\316\207\373\267\303\371\035"
 494      FB0C38CE 
 494      87FBB7C3 
 494      F91D
 495 01d0 50EE84F2 		.ascii	"P\356\204\362\001\245\355\243t'\321\030\230J\343\201"
 495      01A5EDA3 
 495      7427D118 
ARM GAS  /tmp/ccZLWL0x.s 			page 38


 495      984AE381 
 496 01e0 C4051151 		.ascii	"\304\005\021Q\363\353>\006yIL\021y4l\362I\242\327\211"
 496      F3EB3E06 
 496      79494C11 
 496      79346CF2 
 496      49A2D789 
 497 01f4 EFEEA6F1 		.ascii	"\357\356\246\361d\374\2208\3140\330/\231\301\031\310"
 497      64FC9038 
 497      CC30D82F 
 497      99C119C8 
 498 0204 EBEDD9D7 		.ascii	"\353\355\331\327\243\332\207\330\342.8\277\033\312>"
 498      A3DA87D8 
 498      E22E38BF 
 498      1BCA3E
 499 0213 5E9597D8 		.ascii	"^\225\227\330\331\003\375~G\355M\354\344\2454\016\322"
 499      D903FD7E 
 499      47ED4DEC 
 499      E4A5340E 
 499      D2
 500 0224 1826B1BC 		.ascii	"\030&\261\274\210\352\236\304\3467\006\236HN\270\347"
 500      88EA9EC4 
 500      E637069E 
 500      484EB8E7 
 501 0234 7BD4F93D 		.ascii	"{\324\371=p~\2047\327}7J\237\325}5\315754\367\230\331"
 501      707E8437 
 501      D77D374A 
 501      9FD57D35 
 501      CD373534 
 502 024b E25E832D 		.ascii	"\342^\203-\026R?fcJ\243\317\306V\022mKh\324S=\021V\372"
 502      16523F66 
 502      634AA3CF 
 502      C656126D 
 502      4B68D453 
 503 0263 19F0487E 		.ascii	"\031\360H~\354E\365\240\341\021]\020\235\354btp\037"
 503      EC45F5A0 
 503      E1115D10 
 503      9DEC6274 
 503      701F
 504 0275 1C3F8763 		.ascii	"\034?\207c&\325\305\011>F\227\215!\242{b\233 \345s1"
 504      26D5C509 
 504      3E46978D 
 504      21A27B62 
 504      9B20E573 
 505 028a 95F914CD 		.ascii	"\225\371\024\315\253\3254\2564~\3567\360Cru\272\011"
 505      ABD534AE 
 505      347EEE37 
 505      F0437275 
 505      BA09
 506 029c 3F4B19F9 		.ascii	"?K\031\371~\010\307\013p\355G\224\227\263\214\177/\245"
 506      7E08C70B 
 506      70ED4794 
 506      97B38C7F 
 506      2FA5
 507 02ae B97A21CD 		.ascii	"\271z!\315\333Z\016'M\0360\320\272\217\233\253D\366"
 507      DB5A0E27 
 507      4D1E30D0 
 507      BA8F9BAB 
ARM GAS  /tmp/ccZLWL0x.s 			page 39


 507      44F6
 508 02c0 B68E3D73 		.ascii	"\266\216=sJ\230\245D\306(0\374(|\346\235\334t\005>\265"
 508      4A98A544 
 508      C62830FC 
 508      287CE69D 
 508      DC74053E 
 509 02d5 E58AC2CB 		.ascii	"\345\212\302\313\"\377\273;\270\027y\221\357\236\012"
 509      22FFBB3B 
 509      B8177991 
 509      EF9E0A
 510 02e4 43103949 		.ascii	"C\0209IOE\335r\234\310\317\347\357\244g/Pd\201\313\342"
 510      4F45DD72 
 510      9CC8CFE7 
 510      EFA4672F 
 510      506481CB 
 511 02f9 B99F73EF 		.ascii	"\271\237s\357B\377\012E\231\337\2173\373\374\204[H\010"
 511      42FF0A45 
 511      99DF8F33 
 511      FBFC845B 
 511      4808
 512 030b 288B150F 		.ascii	"(\213\025\017\302\023\200y\374}l\023\221_\300\353\222"
 512      C2138079 
 512      FC7D6C13 
 512      915FC0EB 
 512      92
 513 031c BACA6AA4 		.ascii	"\272\312j\244\342DzEikggMm\206J^\340\006\361\320\372"
 513      E2447A45 
 513      696B6767 
 513      4D6D864A 
 513      5EE006F1 
 514 0332 6DFEE7B6 		.ascii	"m\376\347\266\360\213\214\360\357\230\301\267\3267|"
 514      F08B8CF0 
 514      EF98C1B7 
 514      D6377C
 515 0341 3295AF1C 		.ascii	"2\225\257\034\255\354T.vv\366\250H\321\251\"\225\033"
 515      ADEC542E 
 515      7676F6A8 
 515      48D1A922 
 515      951B
 516 0353 AF2865E4 		.ascii	"\257(e\344\313\263;\3012fJ\3711\3676\010\336\332\271"
 516      CBB33BC1 
 516      32664AF9 
 516      31F73608 
 516      DEDAB9
 517 0366 63CDCF15 		.ascii	"c\315\317\025%E\344\227\362\251\300\341;\274\236E\347"
 517      2545E497 
 517      F2A9C0E1 
 517      3BBC9E45 
 517      E7
 518 0377 40CD13B6 		.ascii	"@\315\023\266o\345\313\200\270\310/G\250=]\206\2724"
 518      6FE5CB80 
 518      B8C82F47 
 518      A83D5D86 
 518      BA34
 519 0389 69E3AF90 		.ascii	"i\343\257\220\247\225\010T.\350\201D>9U\257!\370\256"
 519      A7950854 
 519      2EE88144 
ARM GAS  /tmp/ccZLWL0x.s 			page 40


 519      3E3955AF 
 519      21F8AE
 520 039c 35206878 		.ascii	"5 hx\233\236\220yJ\017\356{nn\345tKL\234n\212`\352\004"
 520      9B9E9079 
 520      4A0FEE7B 
 520      6E6EE574 
 520      4B4C9C6E 
 521 03b4 65ADEB1A 		.ascii	"e\255\353\032>\021fM\213$\251\246 \235\336\005O0\207"
 521      3E11664D 
 521      8B24A9A6 
 521      209DDE05 
 521      4F3087
 522 03c7 C6DBAB4D 		.ascii	"\306\333\253M\375\242\252\371<\317D\210\312\204\000"
 522      FDA2AAF9 
 522      3CCF4488 
 522      CA8400
 523 03d6 F30873B2 		.ascii	"\363\010s\262\312\252\305Jj\214d\235=\311\265\246$\347"
 523      CAAAC54A 
 523      6A8C649D 
 523      3DC9B5A6 
 523      24E7
 524 03e8 CE3CE331 		.ascii	"\316<\3431!\371\272\307\021\311z{\222\353MI\266\317"
 524      21F9BAC7 
 524      11C97A7B 
 524      92EB4D49 
 524      B6CF
 525 03fa FEDA320F 		.ascii	"\376\3322\017\244qo\304\034\255\0277\205\334\311\034"
 525      A4716FC4 
 525      1CAD1737 
 525      85DCC91C 
 526 040a 4F921A25 		.ascii	"O\222\032%\243\3704:/qL l\3715:\335\026\276\0270\277"
 526      A3F8343A 
 526      2F714C20 
 526      6CF9353A 
 526      DD16BE17 
 527 0420 CDC07C62 		.ascii	"\315\300|b\034\201k\302>\037B\177\265'\"+\255\307\347"
 527      1C816BC2 
 527      3E1F427F 
 527      B527222B 
 527      ADC7E7
 528 0433 6E1FCD97 		.ascii	"n\037\315\227bd\220{\234A)\314\347~\256\0268\217\314"
 528      6264907B 
 528      9C4129CC 
 528      E77EAE16 
 528      388FCC
 529 0446 9C34A7AF 		.ascii	"\2344\247\257R\373!\264\337\314\247\001\356\365(\256"
 529      52FB21B4 
 529      DFCCA701 
 529      EEF528AE 
 530 0456 999EE8A9 		.ascii	"\231\236\350\251\372\241\015\364x\263w\247W\210\032"
 530      FAA10DF4 
 530      78B377A7 
 530      57881A
 531 0465 5869925B 		.ascii	"Xi\222[\260L\035X\315\356jd\316y8\257\374,\322g\223"
 531      B04C1D58 
 531      CDEE6A64 
 531      CE7938AF 
ARM GAS  /tmp/ccZLWL0x.s 			page 41


 531      FC2CD267 
 532 047a A24016DC 		.ascii	"\242@\026\334\205\361\034I2\306\363r\336u@\013\334N"
 532      85F11C49 
 532      32C6F372 
 532      DE75400B 
 532      DC4E
 533 048c 2782A458 		.ascii	"'\202\244Xi\205\230\245\251\022\023\350\303\324\266"
 533      698598A5 
 533      A91213E8 
 533      C3D4B6
 534 049b B53E2B41 		.ascii	"\265>+A \231!\261=F\323\2368\263\363\237\252P\264=\216"
 534      209921B1 
 534      3D46D39E 
 534      38B3F39F 
 534      AA50B43D 
 535 04b0 2CBB66D7 		.ascii	",\273f\327LT\236\251\2132\324k\005\215\374\003H^\361"
 535      4C549EA9 
 535      8B32D46B 
 535      058DFC03 
 535      485EF1
 536 04c3 12F2078C 		.ascii	"\022\362\007\214\344\027vn\345\321g\0178\242\276o\377"
 536      E417766E 
 536      E5D1670F 
 536      38A2BE6F 
 536      FF
 537 04d4 B478EA96 		.ascii	"\264x\352\226\243&\265\336\2113g\357\251A\021\017\243"
 537      A326B5DE 
 537      893367EF 
 537      A941110F 
 537      A3
 538 04e5 FF4CF41A 		.ascii	"\377L\364\032\255\367D\232\336x\360\235i p\323\243\314"
 538      ADF7449A 
 538      DE78F09D 
 538      692070D3 
 538      A3CC
 539 04f7 77C97D5B 		.ascii	"w\311}[\027.\331\205\261\356\321X\250r\015\250w\341"
 539      172ED985 
 539      B1EED158 
 539      A8720DA8 
 539      77E1
 540 0509 03FB311E 		.ascii	"\003\3731\036T\260\267\234\200Y\272QY\344 \0136\327"
 540      54B0B79C 
 540      8059BA51 
 540      59E4200B 
 540      36D7
 541 051b 35989EB3 		.ascii	"5\230\236\263\303,\330<'`\031\326\234\035e\301\336v"
 541      C32CD83C 
 541      276019D6 
 541      9C1D65C1 
 541      DE76
 542 052d 0DA6E7EC 		.ascii	"\015\246\347\354S\026\354\035'`}\2549ka\301\226\272"
 542      5316EC1D 
 542      27607DAC 
 542      396B61C1 
 542      96BA
 543 053f 06D37376 		.ascii	"\006\323sv\221\005[\341\004,\323\204\263\350\307j,o"
 543      91055BE1 
ARM GAS  /tmp/ccZLWL0x.s 			page 42


 543      042CD384 
 543      B3E8C76A 
 543      2C6F
 544 0551 E6A36E2E 		.ascii	"\346\243n.p\253\274Z:p\351\322\\\014\243\316\3536\177"
 544      70ABBC5A 
 544      3A70E9D2 
 544      5C0CA3CE 
 544      EB367F
 545 0564 E9E486FC 		.ascii	"\351\344\206\374\365\311\0025\177i\251}\243\023D\033"
 545      F5C90235 
 545      7F69A97D 
 545      A313441B 
 546 0574 87A963C7 		.ascii	"\207\251c\307\211\217\\\203\351\315r\200\200\3512\015"
 546      898F5C83 
 546      E9CD7280 
 546      80E9320D 
 547 0584 1D315A17 		.ascii	"\0351Z\027F\372T\305R]\212\206Ef\375j^\203\351\270\020"
 547      46FA54C5 
 547      525D8A86 
 547      4566FD6A 
 547      5E83E9B8 
 548 0599 6DACF4E9 		.ascii	"m\254\364\351c\336V\344\277\341\177\014\365U:x\220["
 548      63DE56E4 
 548      BFE17F0C 
 548      F5553A78 
 548      905B
 549 05ab EAB976D6 		.ascii	"\352\271v\326\211\317\302M^\223\307]\325\246\366]\255"
 549      89CFC24D 
 549      5E93C75D 
 549      D5A6F65D 
 549      AD
 550 05bc 3CA18DF5 		.ascii	"<\241\215\365\204}N\324d\023\012\027\255\324\024)W\306"
 550      847D4ED4 
 550      64130A17 
 550      ADD41429 
 550      57C6
 551 05ce F3A52BEF 		.ascii	"\363\245+\357\211\366\033\304\372D,9\337\273\004\223"
 551      89F61BC4 
 551      FA442C39 
 551      DFBB0493 
 552 05de F3B738B4 		.ascii	"\363\2678\264\036\366\232\316\271\035a5O\330\243M\340"
 552      1EF69ACE 
 552      B91D6135 
 552      4FD8A34D 
 552      E0
 553 05ef 6F21D8A9 		.ascii	"o!\330\251\256\203\325^\332}\217\0023\331R\201\000\235"
 553      AE83D55E 
 553      DA7D8F02 
 553      33D95281 
 553      009D
 554 0601 8F1B3252 		.ascii	"\217\0332R\015\343}\252~\274OM\215\235tj\037\275\025"
 554      0DE37DAA 
 554      7EBC4F4D 
 554      8D9D746A 
 554      1FBD15
 555 0614 BFD73E56 		.ascii	"\277\327>V\226\277\316Z\376\232k\313\353\002\244\365"
 555      96BFCE5A 
ARM GAS  /tmp/ccZLWL0x.s 			page 43


 555      FE9A6BCB 
 555      EB02A4F5 
 556 0624 D39616CF 		.ascii	"\323\226\026\317L%R\352a\\\3356.\310L\352\354!~4\232"
 556      4C2552EA 
 556      615CDD36 
 556      2EC84CEA 
 556      EC217E34 
 557 0639 A81C355B 		.ascii	"\250\0345[\34635\221\003\250\346\011\357\3753N\035^"
 557      E6333591 
 557      03A8E609 
 557      EFFD334E 
 557      1D5E
 558 064b 47A0095D 		.ascii	"G\240\011]\006\2724i\356@\004\232\210@\225>\243\255"
 558      06BA3469 
 558      EE40049A 
 558      8840953E 
 558      A3AD
 559 065d 8D733B5E 		.ascii	"\215s;^o\203h\330\321\250\373\276\332\012\334\034\237"
 559      6F8368D8 
 559      D1A8FBBE 
 559      DA0ADC1C 
 559      9F
 560 066e C1603A71 		.ascii	"\301`:ql\306\006-\341\266|^\311\267\225)U\017\273\261"
 560      6CC6062D 
 560      E1B67C5E 
 560      C9B79529 
 560      550FBBB1 
 561 0682 58AB66B1 		.ascii	"X\253f\261)\250\237\205q\372!\006p'\310{\256\005I\321"
 561      29A89F85 
 561      71FA2106 
 561      7027C87B 
 561      AE0549D1 
 562 0696 0B32F78B 		.ascii	"\0132\367\213.\010rQ\023d\006\012\262\346\357 \310&"
 562      2E087251 
 562      1364060A 
 562      B2E6EF20 
 562      C826
 563 06a8 D7826430 		.ascii	"\327\202d0\202\300\024\276\345\3124u\010\354\315M\265"
 563      82C014BE 
 563      E5CA3475 
 563      08ECCD4D 
 563      B5
 564 06b9 9FC2137E 		.ascii	"\237\302\023~\336\022z\353\346\317\221o\366\220\247"
 564      DE127AEB 
 564      E6CF916F 
 564      F690A7
 565 06c8 557239D1 		.ascii	"Ur9\321\344Y\211T\356g\236{\024g\317=;\351s\317\\\324"
 565      E4598954 
 565      EE679E7B 
 565      1467CF3D 
 565      3BE973CF 
 566 06de D8476631 		.ascii	"\330Gf1\346\004\251\266\371\343;H6\235\2070\273\272"
 566      E604A9B6 
 566      F9E33B48 
 566      369D8730 
 566      BBBA
 567 06f0 0AD37A69 		.ascii	"\012\323zi\367Z5T\337F\240\375q\026\364\031\014\350"
ARM GAS  /tmp/ccZLWL0x.s 			page 44


 567      F75A3554 
 567      DF46A0FD 
 567      7116F419 
 567      0CE8
 568 0702 D31B10BE 		.ascii	"\323\033\020\276\022J\355\230%_\243W\310\227d\356\037"
 568      124AED98 
 568      255FA357 
 568      C89764EE 
 568      1F
 569 0713 DE4FE03E 		.ascii	"\336O\340>E\366\211\361\\\316\301b\317\177\323\264\371"
 569      45F689F1 
 569      5CCEC162 
 569      CF7FD3B4 
 569      F9
 570 0724 936AA053 		.ascii	"\223j\240S\337\011\261,\262e\252\366\334\376\004\231"
 570      DF09B12C 
 570      B265AAF6 
 570      DCFE0499 
 571 0734 419DFF8E 		.ascii	"A\235\377\216p8\345\326M\015\014\017n[,\306\036mEc\\"
 571      7038E5D6 
 571      4D0D0C0F 
 571      6E5B2CC6 
 571      1E6D4563 
 572 0749 4374454E 		.ascii	"CtEN \014\265\305\031|3oxv#\027\230&V\221\364\236\300"
 572      200CB5C5 
 572      197C336F 
 572      78762317 
 572      98265691 
 573 0760 0C84E5C9 		.ascii	"\014\204\345\311\337IN0\304\211\267UC$z,~ICKG\302\023"
 573      DF494E30 
 573      C489B755 
 573      43247A2C 
 573      7E49434B 
 574 0777 91F06AC1 		.ascii	"\221\360j\301\360T\334v\275\265\234\312M\356%\016\355"
 574      F054DC76 
 574      BDB59CCA 
 574      4DEE250E 
 574      ED
 575 0788 63A75395 		.ascii	"c\247S\225\251\351&\364\314\246I\235\343\016L\341\307"
 575      A9E926F4 
 575      CCA6499D 
 575      E30E4CE1 
 575      C7
 576 0799 20FA3A81 		.ascii	" \372:\201\254\024mL6])\252\035d\005\004SR\354\262\301"
 576      AC146D4C 
 576      365D29AA 
 576      1D640504 
 576      5352ECB2 
 577 07ae C8F8F196 		.ascii	"\310\370\361\226ket\241h\203\003\306\313\"\227&\260"
 577      6B6574A1 
 577      688303C6 
 577      CB229726 
 577      B0
 578 07bf 0B4522DF 		.ascii	"\013E\"\337\300\013\024\267k\036w\371\343\350\003\200"
 578      C00B14B7 
 578      6B1E77F9 
 578      E3E80380 
ARM GAS  /tmp/ccZLWL0x.s 			page 45


 579 07cf C8       		.ascii	"\310"
 580 07d0 EF740D96 		.ascii	"\357t\015\226i\306\252\346Y1iE~\223@&\356\233\205\373"
 580      69C6AAE6 
 580      59316945 
 580      7E934026 
 580      EE9B85FB 
 581 07e4 A1DE0275 		.ascii	"\241\336\002u\364#p\307\24365S]\342\250n\273\336>Cu"
 581      F42370C7 
 581      A3363553 
 581      5DE2A86E 
 581      BBDE3E43 
 582 07f9 263789FA 		.ascii	"&7\211\372,M\324\037b\0368\235l\214\223y\306\241\315"
 582      2C4DD41F 
 582      621E389D 
 582      6C8C9379 
 582      C6A1CD
 583 080c 55A6FAD2 		.ascii	"U\246\372\322(\223\323%\206\350\307*\016?`\343\360\322"
 583      2893D325 
 583      86E8C72A 
 583      0E3F60E3 
 583      F0D2
 584 081e 778DC396 		.ascii	"w\215\303\226/\034\306\241\302kp\031H\271\035)7\032"
 584      2F1CC6A1 
 584      C26B7019 
 584      48B91D29 
 584      371A
 585 0830 FDB9727E 		.ascii	"\375\271r~\3438\352\317\215\216\002\361\033\014D-\260"
 585      E338EACF 
 585      8D8E02F1 
 585      1B0C442D 
 585      B0
 586 0841 DE4ED150 		.ascii	"\336N\321P\273\342\012e\221\216s\215<\302\251\017\264"
 586      BBE20A65 
 586      918E738D 
 586      3CC2A90F 
 586      B4
 587 0852 CB8C704E 		.ascii	"\313\214pN\255@\341nHn\025\243\272W\344\310i2\313\330"
 587      AD40E16E 
 587      486E15A3 
 587      BA57E4C8 
 587      6932CBD8 
 588 0866 8F32AD4E 		.ascii	"\2172\255N1\272\226\252\031\306\265\032\231@\371\030"
 588      31BA96AA 
 588      19C6B51A 
 588      9940F918 
 589 0876 03A50903 		.ascii	"\003\245\011\003e7\326{\331p\261r\213}\254[lt-w\246"
 589      6537D67B 
 589      D970B172 
 589      8B7DAC5B 
 589      6C742D77 
 590 088b 43EFDBC9 		.ascii	"C\357\333\311\222\331\226\362\335\274\357\323\226\257"
 590      92D996F2 
 590      DDBCEFD3 
 590      96AF
 591 0899 937095CF 		.ascii	"\223p\225\317\315\302\362a\032\267\207\325\231Q\234"
 591      CDC2F261 
 591      1AB787D5 
ARM GAS  /tmp/ccZLWL0x.s 			page 46


 591      99519C
 592 08a8 72BBB4B0 		.ascii	"r\273\264\260|\260\253\222D?\220\306R\034<\034f\232"
 592      7CB0AB92 
 592      443F90C6 
 592      521C3C1C 
 592      669A
 593 08ba 283D3A39 		.ascii	"(=:9\2716\315\341\342t\364\375ES)\035\227Z\320\325N"
 593      B936CDE1 
 593      E274F4FD 
 593      4553291D 
 593      975AD0D5 
 594 08cf A6988F4B 		.ascii	"\246\230\217K6\253\334\027\261\313\311\270qi\356\025"
 594      36ABDC17 
 594      B1CBC9B8 
 594      7169EE15 
 595 08df 6D5C3AE9 		.ascii	"m\\:\351h\\j6\035\227N\272\037\227\314>,\203\"\177\012"
 595      685C6A36 
 595      1D974EBA 
 595      1F97CC3E 
 595      2C83227F 
 596 08f4 23E473FD 		.ascii	"#\344s\375 \242\244:\320\376\317\254|Q\211t4W\363*\377"
 596      20A2A43A 
 596      D0FECFAC 
 596      7C518974 
 596      3457F32A 
 597 0909 6A267AC3 		.ascii	"j&z\303\210g\226\211tx:kF*\016\342\270\252\3162\247"
 597      88679689 
 597      74783A6B 
 597      462A0EE2 
 597      B8AACE32 
 598 091e 3B61EE61 		.ascii	";a\356a+\260\262H\265\012\246\272\374[N\300\006ZIZ\026"
 598      2BB0B248 
 598      B50AA6BA 
 598      FC5B4EC0 
 598      065A495A 
 599 0933 D93043B3 		.ascii	"\3310C\263\324N\234\".r\215\247g\256\371`5\305S\337"
 599      D44E9C22 
 599      2E728DA7 
 599      67AEF960 
 599      35C553DF 
 600 0947 F5BCEF04 		.ascii	"\365\274\357\004o\2205\177\227f\350\246\324\033\\\303"
 600      6F90357F 
 600      9766E8A6 
 600      D41B5CC3 
 601 0957 E90D71F3 		.ascii	"\351\015q\363 1\354\304>fo\363\"\321\334M\026mhT\315"
 601      2031ECC4 
 601      3E666FF3 
 601      22D1DC4D 
 601      166D6854 
 602 096c 5C7EA9AF 		.ascii	"\\~\251\257\372\324\333\206\236p:5\361kA=\020\2563\032"
 602      FAD4DB86 
 602      9E703A35 
 602      F16B413D 
 602      10AE331A 
 603 0980 222AB2B2 		.ascii	"\"*\262\262!\235<\320]u\024M\0374\270\177\343\266S{"
 603      219D3CD0 
 603      5D75144D 
ARM GAS  /tmp/ccZLWL0x.s 			page 47


 603      1F34B87F 
 603      E3B6537B 
 604 0994 58EF4037 		.ascii	"X\357@7iO\375\273dF\245\033O\245\351Z\216\237\271|_"
 604      694FFDBB 
 604      6446A51B 
 604      4FA5E95A 
 604      8E9FB97C 
 605 09a9 DFFA558A 		.ascii	"\337\372U\212\362\272Ocl\254kD\275\277\3255`0\250`\023"
 605      F2BA4F63 
 605      6CAC6B44 
 605      BDBFD535 
 605      6030A860 
 606 09be 9C80D98C 		.ascii	"\234\200\331\214\360\353\010\230\033-_\244\303O\231"
 606      F0EB0898 
 606      1B2D5FA4 
 606      C34F99
 607 09cd 8790AFE8 		.ascii	"\207\220\257\350\366wQ\362L\327R\350T\002J>\327\267"
 607      F67751F2 
 607      4CD752E8 
 607      54024A3E 
 607      D7B7
 608 09df 7EB5A2AC 		.ascii	"~\265\242\254|\311\315\352\357\312\317\366j.3\016\245"
 608      7CC9CDEA 
 608      EFCACFF6 
 608      6A2E330E 
 608      A5
 609 09f0 991527CD 		.ascii	"\231\025'\315-\2434\016WS\005n\276Q$\263\374i\366b\302"
 609      2DA3340E 
 609      5753056E 
 609      BE5124B3 
 609      FC69F662 
 610 0a05 ECC38693 		.ascii	"\354\303\206\223\310_\303\374\337\216s\243\233Xwb]\352"
 610      C85FC3FC 
 610      DF8E73A3 
 610      9B587762 
 610      5DEA
 611 0a17 2175B947 		.ascii	"!u\271G7.\274\327\315\220>\364\241JO\237u\314H\354U"
 611      372EBCD7 
 611      CD903EF4 
 611      A14A4F9F 
 611      75CC48EC 
 612 0a2c BFC87F84 		.ascii	"\277\310\177\204/#\266\363\204\354\016\254\033\261\336"
 612      2F23B6F3 
 612      84EC0EAC 
 612      1BB1DE
 613 0a3b 8DF505AC 		.ascii	"\215\365\005\254/b}\031\353\016\254\307\"\263\025XO"
 613      2F627D19 
 613      EB0EACC7 
 613      22B31558 
 613      4F
 614 0a4c C77A36D6 		.ascii	"\307z6\326\307\261>\203\365Y\254\377\206\365y\254/`"
 614      C7B13E83 
 614      F559ACFF 
 614      86F579AC 
 614      2F60
 615 0a5e 7D11EBCB 		.ascii	"}\021\353\313N&\204\016\037\3537\231\354WYc\360\203"
 615      4E26840E 
ARM GAS  /tmp/ccZLWL0x.s 			page 48


 615      1FEB3799 
 615      EC575963 
 615      F083
 616 0a70 E87E958E 		.ascii	"\350~\225\216\331_O\345+\267\225=\253-#\210\374F\373"
 616      D95F4FE5 
 616      2BB7953D 
 616      AB2D2388 
 616      FC46FB
 617 0a83 AD1C133D 		.ascii	"\255\034\023=f\373\244\256}L\336\211\227E:;\267D29\303"
 617      66FBA4AE 
 617      7D4CDE89 
 617      97453A3B 
 617      B7443239 
 618 0a98 8E2E328A 		.ascii	"\216.2\212Xq;\331\023\317\3556\013n\351\236\223]t\317"
 618      58713BD9 
 618      13CFED36 
 618      0B6EE99E 
 618      935D74CF 
 619 0aac C9248F2D 		.ascii	"\311$\217-\243\025f\214\266\036\253;9\216\237\242\355"
 619      A315668C 
 619      B61EAB3B 
 619      398E9FA2 
 619      ED
 620 0abd B8CA70BE 		.ascii	"\270\312p\276\367\254\2222\352\301\035w\034}C\376Bl"
 620      F7AC9232 
 620      EAC11D77 
 620      1C7D43FE 
 620      426C
 621 0acf 879BC05D 		.ascii	"\207\233\300]1\360\375\000\267@Q\246*\220+S\351\320"
 621      31F0FD00 
 621      B74051A6 
 621      2A902B53 
 621      E9D0
 622 0ae1 F72DB698 		.ascii	"\367-\266\230j\301\270\366\026\336lC\031\351\243s\333"
 622      6AC1B8F6 
 622      16DE6C43 
 622      19E9A373 
 622      DB
 623 0af2 E9A676A8 		.ascii	"\351\246v\250l\230\244\331a\020\247\355X\273i\256O\003"
 623      6C98A4D9 
 623      6110A7ED 
 623      58BB69AE 
 623      4F03
 624 0b04 8559460A 		.ascii	"\205YF\012\263M\025\270f\375\276?-#\351_\271\325\371"
 624      B34D15B8 
 624      66FDBE3F 
 624      2D23E95F 
 624      B9D5F9
 625 0b17 5A6919AF 		.ascii	"Zi\031\257\021y/\315\011\221j#\2219\246bT\037\212\333"
 625      11792FCD 
 625      09916A23 
 625      9139A662 
 625      541F8ADB 
 626 0b2b 76B7D611 		.ascii	"v\267\326\021~\215\021\277\326\302\013\316\335='*\204"
 626      7E8D11BF 
 626      D6C20BCE 
 626      DD3D272A 
ARM GAS  /tmp/ccZLWL0x.s 			page 49


 626      84
 627 0b3c A0D1D8E6 		.ascii	"\240\321\330\346\210\306|#\215\005\2464j\016]\253d\367"
 627      88C67C23 
 627      8D05A634 
 627      6A0E5DAB 
 627      64F7
 628 0b4e F6693BAA 		.ascii	"\366i;\252\366\232\0231\356\250Zh\357\335\213\254\344"
 628      F69A1331 
 628      EEA85A68 
 628      EFDD8BAC 
 628      E4
 629 0b5f BACF44AE 		.ascii	"\272\317D\256\317\034\311\265\330(\327\273\246\266i"
 629      CF1CC9B5 
 629      D828D7BB 
 629      A6B669
 630 0b6e FF98DA26 		.ascii	"\377\230\332&S\203\377\332\021\374R#\374\262x\370\326"
 630      5383FFDA 
 630      11FC5223 
 630      FCB278F8 
 630      D6
 631 0b7f 8AD68E2D 		.ascii	"\212\326\216-[\357\256Z\245\214A\021x\347\361\271\302"
 631      5BEFAE5A 
 631      A58C4111 
 631      78E7F1B9 
 631      C2
 632 0b90 189F57F1 		.ascii	"\030\237W\361\315\205.@\253\322\215\214\252MW\232q\022"
 632      CD852E40 
 632      ABD28D8C 
 632      AA4D579A 
 632      7112
 633 0ba2 B9DA3051 		.ascii	"\271\3320Q\341Q\324\373tl\244p\343\360}\313X\245\224"
 633      E151D4FB 
 633      746CA470 
 633      E3F07DCB 
 633      58A594
 634 0bb5 FF4B340F 		.ascii	"\377K4\017[\274\002\027\371\325\236\024 \2758\335\362"
 634      5BBC0217 
 634      F9D59E14 
 634      20BD38DD 
 634      F2
 635 0bc6 05366940 		.ascii	"\0056i@>\244\277z\256\235\331\274\305\374\300(\2567"
 635      3EA4BF7A 
 635      AE9DD9BC 
 635      C5FCC028 
 635      AE37
 636 0bd8 553B372C 		.ascii	"U;7,0_\265\311\276\365\2364\035+:m-\267\320\326zSm\335"
 636      305FB5C9 
 636      BEF59E34 
 636      1D2B3A6D 
 636      2DB7D0D6 
 637 0bf0 88694BF3 		.ascii	"\210iK\363\213\217,\0006\232\033\376h\323~\310\314\265"
 637      8B8F2C00 
 637      369A1BFE 
 637      68D37EC8 
 637      CCB5
 638 0c02 6ABC18C7 		.ascii	"j\274\030\307\0202:Y\016\214&\251\231\236;\237\010\036"
 638      10323A59 
ARM GAS  /tmp/ccZLWL0x.s 			page 50


 638      0E8C26A9 
 638      999E3B9F 
 638      081E
 639 0c14 3F73F2D7 		.ascii	"?s\362\327+p\"\270\025\247N\257\337f\234:y\0153'\257"
 639      2B7022B8 
 639      15A74EAF 
 639      DF669C3A 
 639      790D3327 
 640 0c29 7EE6E44D 		.ascii	"~\346\344M\215\235\304v\240FyRG-\013\033\221\301\305"
 640      8D9DC476 
 640      A0467952 
 640      472D0B1B 
 640      91C1C5
 641 0c3c 86B78ED9 		.ascii	"\206\267\216\331u?\303w>\015\0362\212T\030Xs\010\206"
 641      753FC377 
 641      3E0D1E32 
 641      8A541858 
 641      730886
 642 0c4f EB529E34 		.ascii	"\353R\2364\023\223X\335c\025\032\357\037U\267\231\233"
 642      139358DD 
 642      63151AEF 
 642      1F55B799 
 642      9B
 643 0c60 F76353F3 		.ascii	"\367cS\363\256\371r\353obq\255\271\310\036\013\214O"
 643      AEF972EB 
 643      6F6271AD 
 643      B9C81E0B 
 643      8C4F
 644 0c72 4C316E5D 		.ascii	"L1n]\350\350;K\371\220l\030}-:\272\215\351n\016\261"
 644      E8E83B4B 
 644      F9906C18 
 644      7D2D3ABA 
 644      8DE96E0E 
 645 0c87 C71462F5 		.ascii	"\307\024b\365\372K\377\032\205p\236]\366\031]\254\215"
 645      FA4BFF1A 
 645      85709E5D 
 645      F6195DAC 
 645      8D
 646 0c98 8F1BFEE7 		.ascii	"\217\033\376\347[0\322l!\313\326\273\342dYf\001\361"
 646      5B30D26C 
 646      21CBD6BB 
 646      E2645966 
 646      01F1
 647 0caa 577359BE 		.ascii	"WsY\276l\374M\034D\243\005\304!\213\240\373\244\213"
 647      6CFC4D1C 
 647      44A305C4 
 647      218BA0FB 
 647      A48B
 648 0cbc 4177C4A8 		.ascii	"Aw\304\250\221\315\361\0329f\301\3131\323\0142w\027"
 648      91CDF11A 
 648      3966C1CB 
 648      31D30C32 
 648      7717
 649 0cce 9341484C 		.ascii	"\223AHL\013\334\031\013\200\343\026C\307>\353\241\203"
 649      0BDC190B 
 649      80E31643 
 649      C73EEBA1 
ARM GAS  /tmp/ccZLWL0x.s 			page 51


 649      83
 650 0cdf E4532B59 		.ascii	"\344S+YNX'\323hz6\210\326f\301\331g\346\234\315\336"
 650      4E5827D3 
 650      687A3688 
 650      D666C1D9 
 650      67E69CCD 
 651 0cf4 BDCA5ACD 		.ascii	"\275\312Z\315v\363\343\317\215\254\355\212\037\326\224"
 651      76F3E3CF 
 651      8DACED8A 
 651      1FD694
 652 0d03 1EE6BC9C 		.ascii	"\036\346\274\234\261\320\322\311\256i\351\254\235\226"
 652      B1D0D2C9 
 652      AE69E9AC 
 652      9D96
 653 0d11 96EAD25B 		.ascii	"\226\352\322[\364\273\201\323)\026\234\2367\345\264"
 653      F4BB81D3 
 653      29169C9E 
 653      37E5B4
 654 0d20 FDE821A1 		.ascii	"\375\350!\241\013\261z\301\310\347\322x\225-\261`\344"
 654      0BB17AC1 
 654      C8E7D278 
 654      952DB160 
 654      E4
 655 0d31 A2A9677E 		.ascii	"\242\251g~\312z\346\005\364\314\365\026\000\227-t\336"
 655      CA7AE605 
 655      F4CCF516 
 655      00972D74 
 655      DE
 656 0d42 41E69BD1 		.ascii	"A\346\233\321\344\247\316\004\267[`\\\321c\374\220\233"
 656      E4A7CE04 
 656      B75B605C 
 656      D163FC90 
 656      9B
 657 0d53 47308EB7 		.ascii	"G0\216\2674\365YV\246\214Y\011Z\350\344;\2370]\265\372"
 657      34F55956 
 657      A68C5909 
 657      5AE8E43B 
 657      9F305DB5 
 658 0d68 B3A68CC3 		.ascii	"\263\246\214\303$cG\337v^\231G\227\005\256z\310\002"
 658      246347DF 
 658      765E9947 
 658      9705AE7A 
 658      C802
 659 0d7a D8010361 		.ascii	"\330\001\003a\007P\002\327\212\235:<\361\033\343\265"
 659      075002D7 
 659      8A9D3A3C 
 659      F11BE3B5 
 660 0d8a F743E45E 		.ascii	"\367C\344^\342\367CsZ\324uY\2237/\255\321'\371{\030"
 660      E2F74373 
 660      5AD47559 
 660      93372FAD 
 660      D127F97B 
 661 0d9f EE771C3A 		.ascii	"\356w\034:I\271\277\211\334\377\315\202{K \201\273\206"
 661      49B9BF89 
 661      DCFFCD82 
 661      7B4B2081 
 661      BB86
ARM GAS  /tmp/ccZLWL0x.s 			page 52


 662 0db1 5D94A438 		.ascii	"]\224\2448\336\017\224S\336\311\275\304\2747\037\325"
 662      DE0F9453 
 662      DEC9BDC4 
 662      BC371FD5 
 663 0dc1 AF298FCD 		.ascii	"\257)\217\315\320pm\326D\324\217\351b\325\201\243\270"
 663      D0706DD6 
 663      44D48FE9 
 663      62D581A3 
 663      B8
 664 0dd2 F2A52EB3 		.ascii	"\362\245.\263\276i\004s\265\362\245D\016\253`{\360\247"
 664      BE690473 
 664      B5F2A544 
 664      0EAB607B 
 664      F0A7
 665 0de4 0FD35C83 		.ascii	"\017\323\\\203e\3528;1[\377\363\205\331N\360l\266\245"
 665      65EA383B 
 665      315BFFF3 
 665      85D94EF0 
 665      6CB6A5
 666 0df7 5E3CCA6C 		.ascii	"^<\312lK\235\357\032L\317\334U\026l\211\0230\263\315"
 666      4B9DEF1A 
 666      4CCFDC55 
 666      166C8913 
 666      30B3CD
 667 0e0a 9B661FD6 		.ascii	"\233f\037\326ID\276,\211,\007\215N\302E\036\254\307"
 667      4944BE2C 
 667      892C078D 
 667      4EC2451E 
 667      ACC7
 668 0e1c 61FD3AD6 		.ascii	"a\375:\326\023\260~3I\267:\265:C\213\022SWL\344\022"
 668      13B07E33 
 668      49B73AB5 
 668      3A438B12 
 668      53574CE4 
 669 0e31 4A648D75 		.ascii	"Jd\215ux\230\275\230\204\340\376\242\224\037\253nNK"
 669      7898BD98 
 669      84E0FEA2 
 669      941FAB6E 
 669      4E4B
 670 0e43 22965F9F 		.ascii	"\"\226_\237\2210<\214\257~\367b\227iq\341\321rs,\015"
 670      91303C8C 
 670      AF7EF762 
 670      976971E1 
 670      D172732C 
 671 0e58 8F690EC2 		.ascii	"\217i\016\302\243,\3221s\216\263_FD\351\337\316\010"
 671      A32CD231 
 671      738EB35F 
 671      4644E9DF 
 671      CE08
 672 0e6a B2E3736D 		.ascii	"\262\343smO\306,\024\344\213\304\202\350\201 \316\261"
 672      4FC62C14 
 672      E48BC482 
 672      E88120CE 
 672      B1
 673 0e7b 4B75BC20 		.ascii	"Ku\274 _i\202T;\022\244~\246\346\375UI\304\307\306\367"
 673      5F698254 
 673      3B12A47E 
ARM GAS  /tmp/ccZLWL0x.s 			page 53


 673      A6E6FD55 
 673      49C4C7C6 
 674 0e90 D470BBB4 		.ascii	"\324p\273\264f\036Y\177\010\035V\005\253p\015\246\367"
 674      661E597F 
 674      081D5605 
 674      AB700DA6 
 674      F7
 675 0ea1 FE4D87B4 		.ascii	"\376M\207\264\3273\352\317\375\252\234\340\331\254\230"
 675      D733EACF 
 675      FDAA9CE0 
 675      D9AC98
 676 0eb0 6F3E64DC 		.ascii	"o>d\334\242\224\360\201\244s\\K)\335\235\263\010e\232"
 676      A294F081 
 676      A4735C4B 
 676      29DD9DB3 
 676      08659A
 677 0ec3 D733EE95 		.ascii	"\3273\356\225\270\307\260+\311\360x\001\201\353\232"
 677      B8C7B02B 
 677      C9F07801 
 677      81EB9A
 678 0ed2 6F9D1EC8 		.ascii	"o\235\036\310\306\301\205\332\336/\\][\345\004\320\371"
 678      C6C185DA 
 678      DE2F5C5D 
 678      5BE504D0 
 678      F9
 679 0ee3 0A753593 		.ascii	"\012u5\223\011\346b&\250\301\210\237\207\365\002\254"
 679      09E66226 
 679      A8C1889F 
 679      87F502AC 
 680 0ef3 1762BD84 		.ascii	"\027b\275\204\315\001V\323\022b\374(vm\222@#\256k\016"
 680      CD0156D3 
 680      1262FC28 
 680      766D9240 
 680      23AE6B0E 
 681 0f07 7523E650 		.ascii	"u#\346P0\361w\015\246w\250)GY\207\002\221\235\340\331"
 681      30F1770D 
 681      A677A829 
 681      47598702 
 681      919DE0D9 
 682 0f1b 38D4FB6A 		.ascii	"8\324\373jzV\275\263\276'\357\022,\323\316(\323\030"
 682      7A56BDB3 
 682      BE27EF12 
 682      2CD3CE28 
 682      D318
 683 0f2d A3CC40A3 		.ascii	"\243\314@\243\314D\023,\303\372=\254\227\353S\362\366"
 683      CC44132C 
 683      C3FA3DAC 
 683      97EB53F2 
 683      F6
 684 0f3e 9E8694AC 		.ascii	"\236\206\224\254O\177f#\004\253\037%\262\361?*D\263"
 684      4F7F6623 
 684      04AB1F25 
 684      B2F13F2A 
 684      44B3
 685 0f50 E4F3A4D6 		.ascii	"\344\363\244\326w\032\273\265l\307W\332+\374U\230\306"
 685      771ABBB5 
 685      6CC757DA 
ARM GAS  /tmp/ccZLWL0x.s 			page 54


 685      2BFC5598 
 685      C6
 686 0f61 9A7A264E 		.ascii	"\232z&Ncz$xp\302>k\342\347+\247\265\371\312\232\304"
 686      637A2478 
 686      70C23E6B 
 686      E2E72BA7 
 686      B5F9CA9A 
 687 0f76 796CCCE8 		.ascii	"yl\314\350\310\232\267\026\305\022\362\350ht_\261y\340"
 687      C89AB716 
 687      C512F2E8 
 687      68745FB1 
 687      79E0
 688 0f88 D0FD30E2 		.ascii	"\320\3750\342\313(\037]qS%\262\345\230\346Y\352\246"
 688      CB281F5D 
 688      715325B2 
 688      E598E659 
 688      EAA6
 689 0f9a AC6F5CE3 		.ascii	"\254o\\\343\351-"
 689      E92D
 690 0fa0 71F0187A 		.ascii	"q\360\030z\226\012v\323\011\230\315|\351\362\237L\315"
 690      960A76D3 
 690      0998CD7C 
 690      E9F29F4C 
 690      CD
 691 0fb1 1A89CEE1 		.ascii	"\032\211\316\341\3063f]\363\345\311~\352$4\202V-\357"
 691      C633665D 
 691      F3E5C97E 
 691      EA243482 
 691      562DEF
 692 0fc4 95D0AA06 		.ascii	"\225\320\252\006 \242\334m\006\213Fjv\340;\344m\216"
 692      20A2DC6D 
 692      068B466A 
 692      76E03BE4 
 692      6D8E
 693 0fd6 46A5B53B 		.ascii	"F\245\265;4mz1\357#\013\333\272\234C\266\214s6Z\233"
 693      346D7A31 
 693      EF230BDB 
 693      BA9C43B6 
 693      8C73365A 
 694 0feb EE879ABE 		.ascii	"\356\207\232\276\203\354\207jD]\324&\326\205\036\203"
 694      83EC876A 
 694      445DD426 
 694      D6851E83 
 695 0ffb 88DA6454 		.ascii	"\210\332dTE"
 695      45
 696 1000 B3FA3ABD 		.ascii	"\263\372:\275\311\221*\2165\350\307\300\025\310BS\227"
 696      C9912A8E 
 696      35E8C7C0 
 696      15C84253 
 696      97
 697 1011 75D156AE 		.ascii	"u\321V\256\237\356\256u\215\227\251\303\273\256\276"
 697      9FEEAE75 
 697      8D97A9C3 
 697      BBAEBE
 698 1020 D2C66169 		.ascii	"\322\306ai\223\023,\233tZ\271\243\372\007Jk\204\327"
 698      93132C9B 
 698      745AB9A3 
ARM GAS  /tmp/ccZLWL0x.s 			page 55


 698      FA074A6B 
 698      84D7
 699 1032 7EE6B1C3 		.ascii	"~\346\261\303\210g\266\341\336yFmb2\352'\230Qwc\026"
 699      8867B6E1 
 699      DE79466D 
 699      6232EA27 
 699      98517763 
 700 1047 DD8BF57E 		.ascii	"\335\213\365~\254\0178\031\340v&1\231c\257k\347d\025"
 700      AC0F3819 
 700      E0762631 
 700      9963AF6B 
 700      E76415
 701 105a 0891FE4C 		.ascii	"\010\221\376L\205\330\223\253\240~\244z\232\346K\321"
 701      85D893AB 
 701      A07EA47A 
 701      9AE64BD1 
 702 106a B852B4B8 		.ascii	"\270R\264\270:\234\324\023\317t\333E\261\211\025\263"
 702      3A9CD413 
 702      CF74DB45 
 702      B18915B3 
 703 107a 479262BF 		.ascii	"G\222b\277\032KO\215\235<\021\225\340\220Q\002\003]"
 703      1A4B4F8D 
 703      9D3C1195 
 703      E0905102 
 703      035D
 704 108c 1BC3992B 		.ascii	"\033\303\231+z\033\243\350\217P\321\333Q\271;\260>\244"
 704      7A1BA3E8 
 704      8F50D1DB 
 704      51B93BB0 
 704      3EA4
 705 109e 1FB44EF6 		.ascii	"\037\264N\3662$7C6qm\3465\014\365\265H}\035\322\335"
 705      32243743 
 705      36716DE6 
 705      350CF5B5 
 705      487D1DD2 
 706 10b3 80F526AC 		.ascii	"\200\365&\254\267\350y\270\320\3130p\032\306)zn\275"
 706      B7E879B8 
 706      D0CB3070 
 706      1AC6297A 
 706      6EBD
 707 10c5 67AAF5D3 		.ascii	"g\252\365\323\271\177M.U\"U\017k\277\310\277l\204\324"
 707      B97F4D2E 
 707      5522550F 
 707      6BBFC8BF 
 707      6C84D4
 708 10d8 FFFC9E9E 		.ascii	"\377\374\236\236Fl\262vKKz4m'\334O7s\371\271\307q\341"
 708      466CB276 
 708      4B4B7A34 
 708      6D27DC4F 
 708      3773F9B9 
 709 10ef BC1513D5 		.ascii	"\274\025\023\325M\363De\377\203\223S\306DuI\312T\257"
 709      4DF34465 
 709      FF839353 
 709      C6447549 
 709      CA54AF
 710 1102 3A78203A 		.ascii	":x :Mw\257\252{[&\365\346)\240\313,en\322S\214I?G\223"
 710      4D77AFAA 
ARM GAS  /tmp/ccZLWL0x.s 			page 56


 710      7B5B26F5 
 710      E629A0CB 
 710      2C656ED2 
 711 111c 9ED61B70 		.ascii	"\236\326\033pzo\203\266\315\350\325\306\002\301\250"
 711      7A6F83B6 
 711      CDE8D5C6 
 711      02C1A8
 712 112b 6CF2F336 		.ascii	"l\362\3636\325~\246+D\036\015b`L\343\235\027:T\215\237"
 712      D57EA62B 
 712      441E0D62 
 712      604CE39D 
 712      173A548D 
 713 1140 438D57F5 		.ascii	"C\215W\365v\260\322\244\303\301\345@S\225\237w\244\362"
 713      76B0D2A4 
 713      C3C1E540 
 713      53959F77 
 713      A4F2
 714 1152 364DE5EA 		.ascii	"6M\345\352~\236w\220\201\363]\036\030\256H\344\361B"
 714      7E9E7790 
 714      81F35D1E 
 714      18AE48E4 
 714      F142
 715 1164 C57ACF35 		.ascii	"\305z\3175V&\253\315\310U\357\370\321>m\023Z\235\021"
 715      5626ABCD 
 715      C855EFF8 
 715      D13E6D13 
 715      5A9D11
 716 1177 CC741B8B 		.ascii	"\314t\033\213M \\g\321\266:B\313t\354Z\347\031\327\372"
 716      4D205C67 
 716      D1B63A42 
 716      CB74EC5A 
 716      E719D7FA 
 717 118b 0A5DEB02 		.ascii	"\012]\353\002f\210\213X_\306\372\212\336\331\232\214"
 717      66888B58 
 717      5FC6FA8A 
 717      DED99A8C 
 718 119b CEA6B72B 		.ascii	"\316\246\267+=]l\343m\307[N?\216\336\246%~\360\022\365"
 718      3D5D6CE3 
 718      6DC75B4E 
 718      3F8EDEA6 
 718      257EF012 
 719 11b0 47B11A62 		.ascii	"G\261\032b\017\015\246\235\247\214\266\273\316\374\035"
 719      0F0DA69D 
 719      A78CB6BB 
 719      CEFC1D
 720 11bf 1699BF5F 		.ascii	"\026\231\277_T\222#q\222\350\351\322\363V3Q\314\325"
 720      54922371 
 720      92E8E9D2 
 720      F3563351 
 720      CCD5
 721 11d1 195B3505 		.ascii	"\031[5\005y<D\2357pkS\005*r%\326\307\261>\201\365Y\254"
 721      793C449D 
 721      37706B53 
 721      052A7225 
 721      D6C7B13E 
 722 11e9 AFE9157C 		.ascii	"\257\351\025|6\032K\032[\372%ZB\350\333\244\350\322"
 722      361A4B1A 
ARM GAS  /tmp/ccZLWL0x.s 			page 57


 722      5BFA255A 
 722      42E8DBA4 
 722      E8D2
 723 11fb 3159367E 		.ascii	"1Y6~\237,=7>\270\256\214,=+\355\235|\247'6\250F\347"
 723      9F2C3D37 
 723      3EB8AE8C 
 723      2C3D2BED 
 723      9D7CA727 
 724 1213 7D11BBFF 		.ascii	"}\021\273\377 \021\335\352\022\027v\354\360\314\374"
 724      2011DDEA 
 724      121776EC 
 724      F0CCFC
 725 1222 FB0891EF 		.ascii	"\373\010\221\357\2446\211\377\300\023\205!!\340\222"
 725      A43689FF 
 725      C0138521 
 725      21E092
 726 1231 9B57C774 		.ascii	"\233W\307tmE\244f\302t^\231W\246(\267:;y\226\016\363"
 726      6D45A466 
 726      C2745E99 
 726      57A628B7 
 726      3A3B7996 
 727 1247 464ABFF6 		.ascii	"FJ\277\366Cp\312\274n}a\264\327\334\027\222\242\374"
 727      4370CABC 
 727      6E7D61B4 
 727      D7DC1792 
 727      A2FC
 728 1259 5E302A3D 		.ascii	"^0*=\236\354\030=\373{\311\036\231\216?W*e;\2251\021"
 728      9EEC183D 
 728      FB7BC91E 
 728      998E3F57 
 728      2A653B95 
 729 126f E0FF3E4D 		.ascii	"\340\377>M\200*\375\243\327K\032P\272N\235U\372w\366"
 729      802AFDA3 
 729      D74B1A50 
 729      BA4E9D55 
 729      FA77F6
 730 1282 8656223F 		.ascii	"\206V\"?\316\265\224\343-\244\324\277\373\327Z\201\320"
 730      CEB594E3 
 730      2DA4D4BF 
 730      FBD75A81 
 730      D0
 731 1293 5751E89A 		.ascii	"WQ\350\232\330\016\024\003\023\002\327\331[\015\300"
 731      D80E1403 
 731      1302D7D9 
 731      5B0DC0
 732 12a2 7EDC9BB7 		.ascii	"~\334\233\267\317!\351\276\034\271B\237\213\264\036"
 732      CF21E9BE 
 732      1CB9429F 
 732      8BB41E
 733 12b1 ABDBFADB 		.ascii	"\253\333\372\333O\312\3106\024[\237\323\206_x\254\262"
 733      4FCAC836 
 733      145B9FD3 
 733      865F78AC 
 733      B2
 734 12c2 599C9C7D 		.ascii	"Y\234\234};\237\370\211\002B\311K\026-\246x\015\217"
 734      3B9FF889 
 734      0242C94B 
ARM GAS  /tmp/ccZLWL0x.s 			page 58


 734      162DA678 
 734      0D8F
 735 12d4 CC1D5B8E 		.ascii	"\314\035[\216h\257'\310=\007C\366\315\235\352\370\321"
 735      68AF27C8 
 735      3D0743F6 
 735      CD9DEAF8 
 735      D1
 736 12e5 860F020B 		.ascii	"\206\017\002\013n\347)l\327\306\217o\317!\234ay\215"
 736      6EE7296C 
 736      D7C68F6F 
 736      CF219C61 
 736      798D
 737 12f7 BCAAB5B2 		.ascii	"\274\252\265\262\326\014/3\215^\354\232|\246\216\374"
 737      D60C2F33 
 737      8D5EEC9A 
 737      7CA68EFC 
 738 1307 0D1CBE08 		.ascii	"\015\034\276\010\244\300-w\202e\363\034r\213\301Z\353"
 738      A4C02D77 
 738      8265F31C 
 738      728BC15A 
 738      EB
 739 1318 1A2BD3A0 		.ascii	"\032+\323\240n\315\016\"_\351\305\215\223XWa=\333\233"
 739      6ECD0E22 
 739      5FE9C58D 
 739      93585761 
 739      3DDB9B
 740 132b F071C3A0 		.ascii	"\360q\303\240\320\311\026\234\340:\2367\315@\333\"\224"
 740      D0C9169C 
 740      E03A9E37 
 740      CD40DB22 
 740      94
 741 133c D944433A 		.ascii	"\331DC:YF\374\034\032\202\261\004b\374*p[nO\2308\346"
 741      5946FC1C 
 741      1A82B104 
 741      62FC2A70 
 741      5B6E4F98 
 742 1352 D2C4F128 		.ascii	"\322\304\361(\367\2012>\362\274\310\277\011\270Q\325"
 742      F781323E 
 742      F2BCC8BF 
 742      09B851D5 
 743 1362 FF37775D 		.ascii	"\3777w]\251R \226\032\177\353Q\371!\321uqo\244\276|"
 743      A9522096 
 743      1A7FEB51 
 743      F921D175 
 743      716FA4BE 
 744 1377 0EAFD4D2 		.ascii	"\016\257\324\322\344\250\212.p\273\214\344\342\237\270"
 744      E4A88A2E 
 744      70BB8CE4 
 744      E29FB8
 745 1386 E7EBC80D 		.ascii	"\347\353\310\015R{\252\352WiE64\350\027\003,R\322\341"
 745      527BAAEA 
 745      57694536 
 745      34E81703 
 745      2C52D2E1 
 746 139a 28F4DD14 		.ascii	"(\364\335\024z\221\353\234\364\216EN\272\313\326\352"
 746      7A91EB9C 
 746      F48E454E 
ARM GAS  /tmp/ccZLWL0x.s 			page 59


 746      BACBD6EA 
 747 13aa 22BF3066 		.ascii	"\"\2770f\314~\\3\344\236\252A1\362\252\027\221\036j"
 747      CC7E5C33 
 747      E49EAA41 
 747      31F2AA17 
 747      911E6A
 748 13bd 10A9FEC4 		.ascii	"\020\251\376\304~\237M\205\035\257D\366\372\324\313"
 748      7E9F4D85 
 748      1DAF44F6 
 748      FAD4CB
 749 13cc FA9D8F94 		.ascii	"\372\235\217\224.\257\251du\017\275\356\307\231\350"
 749      2EAFA964 
 749      750FBDEE 
 749      C799E8
 750 13db FEEBC4BA 		.ascii	"\376\353\304\272_\226X\367;xU\272~\\\373w\022+Y\023"
 750      5F9658F7 
 750      3B7855BA 
 750      7E5CFB77 
 750      122B5913 
 751 13ef 6B7EBC58 		.ascii	"k~\274X\202F\255N/\326\206\011&bM\273#\241X\037$\024"
 751      8246AD4E 
 751      2FD68609 
 751      26624DBB 
 751      23A1581F 
 752 1405 6BD3C78E 		.ascii	"k\323\307\216\\jg\024\272/\205^\353\332\245\326Y\270"
 752      5C6A6714 
 752      BA2F855E 
 752      EBDAA5D6 
 752      59B8
 753 1417 549F042E 		.ascii	"T\237\004.U\307\272\324\234;T\335\257\355\212\356\367"
 753      55C7BAD4 
 753      9C3B54DD 
 753      AFED8AEE 
 753      F7
 754 1428 A769BA5F 		.ascii	"\247i\272_\034\257{\217\246\222uz\335\337\234d\242\373"
 754      1CAF7B8F 
 754      A692757A 
 754      DDDF9C64 
 754      A2FB
 755 143a B58975BF 		.ascii	"\265\211u\277)\241\356;w;\322}<\364V\327\272\377\320"
 755      29A1EE3B 
 755      773BD27D 
 755      3CF456D7 
 755      BAFFD0
 756 144d 42F73DF4 		.ascii	"B\367=\364:\210\353\027au\037\241\272\337\332\025\335"
 756      3A88EB17 
 756      61751FA1 
 756      BADFDA15 
 756      DD
 757 145e 4FEBA1E9 		.ascii	"O\353\241\351~i\274\356\223\360D\033\010\250\036j\007"
 757      7E69BCEE 
 757      93F0441B 
 757      08A81E6A 
 757      07
 758 146f 191491A1 		.ascii	"\031\024\221\241q'P\362\333]\353\241\301B\017\332\346"
 758      712750F2 
 758      DB5DEBA1 
ARM GAS  /tmp/ccZLWL0x.s 			page 60


 758      C1420FDA 
 758      E6
 759 1480 4F0B130C 		.ascii	"O\013\023\014\324\332%S\234\035\256)\357\264\240\354"
 759      D4DA2553 
 759      9C1DAE29 
 759      EFB4A0EC 
 760 1490 A394E90E 		.ascii	"\243\224\351\016\341\346\013\373'\362SV\224+d;\313k"
 760      E1E60BFB 
 760      27F25356 
 760      942B643B 
 760      CB6B
 761 14a2 35918A24 		.ascii	"5\221\212$\347\033kvy\015\033k\226\307o\254)\275\223"
 761      E71B6B76 
 761      790D1B6B 
 761      96C76FAC 
 761      29BD93
 762 14b5 9DDF634B 		.ascii	"\235\337cK\201\233|'\225\237\356\210\337\327\220^\301"
 762      819B7C27 
 762      959FEE88 
 762      DFD7905E 
 762      C1
 763 14c6 6BFF6274 		.ascii	"k\377bt\016\366h\364Z\355\211\247\277\277\241[\212\333"
 763      0EF668F4 
 763      5AED89A7 
 763      BFBFA15B 
 763      8ADB
 764 14d8 4A9FEF13 		.ascii	"J\237\357\023\335RL:1\037\221o\362\352v\316$\\\3316"
 764      DD524C3A 
 764      311F916F 
 764      F2EA76CE 
 764      245CD936 
 765 14ec FB1F9233 		.ascii	"\373\037\2223\333.\007\325\225\376f\014\305#w\352\237"
 765      DB2E07D5 
 765      95FE660C 
 765      C52377EA 
 765      9F
 766 14fd 5812E210 		.ascii	"X\022\342\020F\016\032\346\241\221\312c\270\272}0\361"
 766      460E1AE6 
 766      A191CA63 
 766      B8BA7D30 
 766      F1
 767 150e 1C74CCE8 		.ascii	"\034t\314\350\310\364c\314\217\305F\333\356^\025\371"
 767      C8F463CC 
 767      8FC546DB 
 767      EE5E15F9 
 768 151e 15F89B15 		.ascii	"\025\370\233\025'?J:\215\222\034\354\332\\\026\330\232"
 768      273F4A3A 
 768      8D921CEC 
 768      DA5C16D8 
 768      9A
 769 152f A1BE7D39 		.ascii	"\241\276}9\202o\037\316\271\006\313\324\201U\261`_9"
 769      826F1FCE 
 769      B906CBD4 
 769      8155B160 
 769      5F39
 770 1541 01B39A9A 		.ascii	"\001\263\232\232\002\330l\026\354\262k0=g\325,\3305"
 770      02D86C16 
ARM GAS  /tmp/ccZLWL0x.s 			page 61


 770      ECB26B30 
 770      3D67D52C 
 770      D835
 771 1553 276056FB 		.ascii	"'`V\373^\000l.\013v\3355\230\236\263\367Y\260[N\300"
 771      5E006C2E 
 771      0B76DD35 
 771      989EB3F7 
 771      59B05B4E 
 772 1568 ACFE6919 		.ascii	"\254\376i\031\200\255b\301\306\374\300-\230\236\263"
 772      80AD62C1 
 772      C6FCC02D 
 772      989EB3
 773 1577 D52CD81B 		.ascii	"\325,\330\033N\3002\2559\253c\301&\273\006\323s\266"
 773      4EC032AD 
 773      39AB63C1 
 773      26BB06D3 
 773      73B6
 774 1589 8E05AB74 		.ascii	"\216\005\253t\002f\365\233b\000[\317\202\315t\015\246"
 774      0266F59B 
 774      62005BCF 
 774      82CD740D 
 774      A6
 775 159a E76C230B 		.ascii	"\347l#\013\366\226\023\260\207\2558+\215l\376\223\376"
 775      F69613B0 
 775      87AD382B 
 775      8D6CFE93 
 775      FE
 776 15ab 7D0941B5 		.ascii	"}\011A\265\030\337\331f\313\355\246\001\337\270\036"
 776      18DFD966 
 776      CBEDA601 
 776      DFB81E
 777 15ba 84AE5A0C 		.ascii	"\204\256Z\014B\354\377\001\217\265\002\261k\214b\233"
 777      42ECFF01 
 777      8FB502B1 
 777      6B8C629B 
 778 15ca BE9BB7FA 		.ascii	"\276\233\267\372!5(q/\253\304\005N\2248\310\032l?\013"
 778      21352871 
 778      2FABC405 
 778      4E9438C8 
 778      1A6C3F0B 
 779 15de B6D80998 		.ascii	"\266\330\011\230\331\317\014)\330\001\026l\231k0=g\007"
 779      D9CF0C29 
 779      D801166C 
 779      996B303D 
 779      6707
 780 15f0 59B0954E 		.ascii	"Y\260\225N\300\236\267\346\3540\013\266\3325\030\313"
 780      C09EB7E6 
 780      EC300BB6 
 780      DA3518CB 
 781 1600 5969E468 		.ascii	"Yi\344h\314\361\310\177\313\321y\336 }\266\3255c<\317"
 781      CCF1C87F 
 781      CBD179DE 
 781      207DB6D5 
 781      35633CCF 
 782 1614 D04CE4C7 		.ascii	"\320L\344\307\370\264\011`\203\376\371\272!\3469\353"
 782      F8B40960 
 782      83FEF9BA 
ARM GAS  /tmp/ccZLWL0x.s 			page 62


 782      21E639EB 
 783 1624 8D7CEB50 		.ascii	"\215|\353P\350\351\213&J0\373\260\003\266\310\037\362"
 783      E8E98B26 
 783      4A30FBB0 
 783      03B6C81F 
 783      F2
 784 1635 9211F530 		.ascii	"\222\021\3650.E\034\303\3728\326'\260>\211\365)\254"
 784      2E451CC3 
 784      FA38D627 
 784      B03E89F5 
 784      29AC
 785 1647 4F63FD05 		.ascii	"Oc\375\005\326\347\260\376\022\353\257\260\376\032\353"
 785      D6E7B0FE 
 785      12EBAFB0 
 785      FE1AEB
 786 1656 4B58B761 		.ascii	"KX\267a\335\216\365u\254o`}\013k\305G\3522\237\203\267"
 786      DD8EF575 
 786      AC6F607D 
 786      0B6BC547 
 786      EA329F83 
 787 166b ACFB6333 		.ascii	"\254\373c3\346L\256\206,q\325\227\357\351\245\214I\211"
 787      E64CAE86 
 787      2C71D597 
 787      EFE9A58C 
 787      4989
 788 167d CE8ADE65 		.ascii	"\316\212\336e\377\367\274a\235d\211\315\302\3238\237"
 788      FFF7BC61 
 788      9D6489CD 
 788      C2D3389F 
 789 168d 11B9AAF2 		.ascii	"\021\271\252\362\002\317\"\327\261\310\264\315\334C"
 789      02CF22D7 
 789      B1C8B4CD 
 789      DC43
 790 169b 5F79D836 		.ascii	"_y\3306\3656\324\257Z\274\211\"\375\336\210\243\336"
 790      F536D4AF 
 790      5ABC8922 
 790      FDDE88A3 
 790      DE
 791 16ac 7EF48AC0 		.ascii	"~\364\212\300\"o\264A\336d#\327D#r\344\306\004E\020"
 791      226FB441 
 791      DE6423D7 
 791      442372E4 
 791      C6044510 
 792 16c0 A2B8933C 		.ascii	"\242\270\223<\326\270+l~K3)\206k\350u3\251\247e\257"
 792      D6B82B6C 
 792      7E4B3329 
 792      866BE875 
 792      33A9A765 
 793 16d5 C996BD26 		.ascii	"\311\226\275&\333\320\252\260\354\265\331\246\327\024"
 793      DBD0AAB0 
 793      ECB5D9A6 
 793      D714
 794 16e3 CB5EDBBD 		.ascii	"\313^\333\275\326\034N\265\354Uf\323\253\322\262\327"
 794      D61C4EB5 
 794      EC5566D3 
 794      ABD2B2D7 
 795 16f3 07361C4E 		.ascii	"\0076\034N\263\350e\361\234\364\260\376\251\006\236"
ARM GAS  /tmp/ccZLWL0x.s 			page 63


 795      B3E865F1 
 795      9CF4B0FE 
 795      A9069E
 796 1702 F87C6E87 		.ascii	"\370|n\207\250\231>\363!\312K\331\260\3527=\316?\217"
 796      A8993EF3 
 796      21CA4BD9 
 796      B0EA373D 
 796      CE3F8F
 797 1715 D6EDEBCB 		.ascii	"\326\355\353\313\372\347,\033?Zg\361\237\000\260\237"
 797      FAE72C1B 
 797      3F5A67F1 
 797      9F00B09F 
 798 1725 A5E6F6D9 		.ascii	"\245\346\366\331hn\266e\257r\033+\275e\331\353\210\015"
 798      686EB665 
 798      AF721B2B 
 798      BD65D9EB 
 798      880D
 799 1737 ADEAB808 		.ascii	"\255\352\270\010Z=\216\215 \335/b\243y\241S\227\027"
 799      5A3D8E8D 
 799      20DD2F62 
 799      A379A153 
 799      9717
 800 1749 16DA68E7 		.ascii	"\026\332h\347s\033\3325\226\034\237\260\351Ukb\255#"
 800      731BDA35 
 800      961C9FB0 
 800      E9556B62 
 800      AD23
 801 175b 0FB2FC2C 		.ascii	"\017\262\374,\266\341\347\202\015\362|K~\316\332\364"
 801      B6E1E782 
 801      0DF27C4B 
 801      7ECEDAF4 
 802 176b 5A10A7C1 		.ascii	"Z\020\247\301\366I\254\006\365?\216\375\305C\017eE\377"
 802      F649AC06 
 802      F53F8EFD 
 802      C5430F65 
 802      45FF
 803 177d 8AC25921 		.ascii	"\212\302Y!9\253\270($\207\263\236\314\031\234=\370\225"
 803      39ABB828 
 803      2487B39E 
 803      CC199C3D 
 803      F895
 804 178f AC405EA0 		.ascii	"\254@^\240($\371G>^\370P\036\227Jn\371\013\212\002/"
 804      2824F947 
 804      3E5EF850 
 804      1E974A6E 
 804      F90B8A02 
 805 17a4 FB9EF9E3 		.ascii	"\373\236\371\343\013\231\331\\\032^(\011\222K\003\014"
 805      0B99D95C 
 805      1A5E2809 
 805      924B030C 
 806 17b4 48796201 		.ascii	"Hyb\001\205\0322t\360#\003\262\376\360\207\247\262\206"
 806      851A3274 
 806      F02303B2 
 806      FEF087A7 
 806      B286
 807 17c6 3E377864 		.ascii	">7xd\377\2540`\024\344"
 807      FFAC3060 
ARM GAS  /tmp/ccZLWL0x.s 			page 64


 807      14E4
 808 17d0 02DE4FE3 		.ascii	"\002\336O\343\211\347\007\003\005%\271\022\320\015\277"
 808      89E70703 
 808      0525B912 
 808      D00DBF
 809 17df 1A965F2D 		.ascii	"\032\226_-\226\302\204.9\317/\224\374\362\275Y%\341"
 809      96C2842E 
 809      39CF2F94 
 809      FCF2BD59 
 809      25E1
 810 17f1 50B45150 		.ascii	"P\264QP\032U\220?\014\360r\363\2032\264K)\201\343#\003"
 810      1A55903F 
 810      0CF072F3 
 810      8332B44B 
 810      2981E323 
 811 1806 FCF28366 		.ascii	"\374\362\203f\315\012\305@^~P\312\362\347J\303\305\222"
 811      CD0AC540 
 811      5E7E50CA 
 811      F2E74AC3 
 811      C592
 812 1818 02D9AFC1 		.ascii	"\002\331\257\301w\363\373\265\216\275T\336\374#$\331"
 812      77F3FBB5 
 812      8EBD54DE 
 812      FC2324D9 
 813 1828 1F282A09 		.ascii	"\037(*\011\312R\350!g\032\"\374\205\000\2547\252\004"
 813      CA52E821 
 813      671A22FC 
 813      8500AC37 
 813      AA04
 814 183a BF210A39 		.ascii	"\277!\0129\273\337N\316\221\204\363^\201\274\177\037"
 814      BBDF4ECE 
 814      9184F35E 
 814      81BC7F1F 
 815 184a FA8C240F 		.ascii	"\372\214$\017\001A\245\302\241\320\347\305\237\330u"
 815      0141A5C2 
 815      A1D0E7C5 
 815      9FD875
 816 1859 92F34292 		.ascii	"\222\363B\222\230K\230OQO\375rj \317\257\236\377\310"
 816      984B984F 
 816      514FFD72 
 816      6A20CFAF 
 816      9EFFC8
 817 186c 56AD813C 		.ascii	"V\255\201<\242z_\261?(\275\"\303\2418$\215|<\221\214"
 817      A27A5FB1 
 817      3F28BD22 
 817      C3A13824 
 817      8D7C3C91 
 818 1881 4585C5F9 		.ascii	"E\205\305\371\005R(\234\365Lv6!O5\227,\027\207\362\213"
 818      0552289C 
 818      F54C7636 
 818      214F3597 
 818      2C1787F2 
 819 1896 FC2A4C7E 		.ascii	"\374*L~Qr\240\0104\366\212\3743G*\203\376\252\377\200"
 819      5172A008 
 819      34F68AFC 
 819      33472A83 
 819      FEAAFF80 
ARM GAS  /tmp/ccZLWL0x.s 			page 65


 820 18aa EE03F22B 		.ascii	"\356\003\362+)!i\204\030*\364\313B\350Q!\364\230\020"
 820      29216984 
 820      182AF4CB 
 820      42E85121 
 820      F49810
 821 18bd FAA5107A 		.ascii	"\372\245\020z\\\010\015\024B\277\362\204\372?\014\245"
 821      5C080D14 
 821      42BFF284 
 821      FA3F0CA5 
 822 18cd BF501082 		.ascii	"\277P\020\202\303#\336b?\264O&\022\214\222Bp,*\310\225"
 822      C323DE62 
 822      3FB44F26 
 822      128C9242 
 822      702C2AC8 
 823 18e2 4249813C 		.ascii	"BI\201<1D\304\022\013\245na\371e\261 \177D\320/\243"
 823      3144C412 
 823      0BA56E61 
 823      F965B120 
 823      7F44D02F 
 824 18f7 4FFCF251 		.ascii	"O\374\362Q\277L\255\214\247\305~hP\220_\230/\247\310"
 824      BF4CAD8C 
 824      A7C57E68 
 824      50905F98 
 824      2FA7C8
 825 190a 615994C1 		.ascii	"aY\224\301|\311\344\346@P\243\332\014\316\222I+\270"
 825      7CC9E4E6 
 825      4050A3DA 
 825      0CCE9249 
 825      2BB8
 826 191c 972C1716 		.ascii	"\227,\027\026\345J\370}x\2018\"\234,\207\244\341a\024"
 826      E54AF87D 
 826      78813822 
 826      9C2C87A4 
 826      E16114
 827 192f 9A9C780B 		.ascii	"\232\234x\013\303#\340&u \350N\317|\241\334W\341V\212"
 827      C323E026 
 827      7520E84E 
 827      CF7CA1DC 
 827      57E1568A 
 828 1943 F44ABE1C 		.ascii	"\364J\276\034\000\000\337(\271h\330\177\026\367\242"
 828      0000DF28 
 828      B968D87F 
 828      16F7A2
 829 1952 F682AE52 		.ascii	"\366\202\256RH\012\006\000\330;J\226C\305\351`\277\260"
 829      480A0600 
 829      D83B4A96 
 829      43C5E960 
 829      BFB0
 830 1964 542816E7 		.ascii	"T(\026\347\201n~hkB\211\004c\017\352\003\376\277\224"
 830      816E7E68 
 830      6B428904 
 830      630FEA03 
 830      FEBF94
 831 1977 48258092 		.ascii	"H%\200\222\021\265?\275\224L\217\336@\020\334\320\033"
 831      11B53FBD 
 831      944C8FDE 
 831      4010DCD0 
ARM GAS  /tmp/ccZLWL0x.s 			page 66


 831      1B
 832 1988 F6C31198 		.ascii	"\366\303\021\230\200\336\305)\320\266\260\004LeK\247"
 832      80DEC529 
 832      D0B6B004 
 832      4C654BA7 
 833 1998 507E85D8 		.ascii	"P~\205\330\270\220\302\025\372\213F\005A\337\330\021"
 833      B890C215 
 833      FA8B4605 
 833      41DFD811 
 834 19a8 E42B543D 		.ascii	"\344+T=h\224\014\355\212\323\244\221RP.\024\303/\303"
 834      68940CED 
 834      8AD3A491 
 834      52502E14 
 834      C32FC3
 835 19bb 1D691439 		.ascii	"\035i\0249\361\024\373K\272k\034\025\344Cd\311=\030"
 835      F114FB4B 
 835      BA6B1C15 
 835      E44364C9 
 835      3D18
 836 19cd 1EC995D4 		.ascii	"\036\311\225\324b\377(1_\316\017\216\000\223\200\262"
 836      62FF2831 
 836      5FCE0F8E 
 836      009380B2 
 837 19dd 547EF114 		.ascii	"T~\361\024.H\305R\020\"{\004\264\002\022\244}7\242r"
 837      2E48C552 
 837      10227B04 
 837      B40212A4 
 837      7D37A272 
 838 19f1 B1007D0D 		.ascii	"\261\000}\015.\026\027\025\025\330\306\226L\024\325"
 838      2E161715 
 838      15D8C696 
 838      4C14D5
 839 1a00 0B5347A1 		.ascii	"\013SG\241$\206KBR\241D\224\221\034\222Q)I\303\2440"
 839      24864B42 
 839      52A14494 
 839      911C9251 
 839      2949C3A4 
 840 1a15 A8BF2814 		.ascii	"\250\277(\024\226\223\012\304\260\354+\301\313|0%$\253"
 840      96930AC4 
 840      B0EC2BC1 
 840      CB7C3025 
 840      24AB
 841 1a27 09A75BA0 		.ascii	"\011\247[\240\244\260\244@\224\363GJ\324\037\302\267"
 841      A4B0A440 
 841      94F3474A 
 841      D41FC2B7 
 842 1a37 05F286E6 		.ascii	"\005\362\206\346\345\222`\225\012\206\277\330S\373\366"
 842      E5926095 
 842      0A86BFD8 
 842      53FBF6
 843 1a46 3C3015CA 		.ascii	"<0\025\312\227_}\261\037\313\221\014\004\010O\344(C"
 843      975F7DB1 
 843      1FCB910C 
 843      04084FE4 
 843      2843
 844 1a58 E405389F 		.ascii	"\344\0058\237\252\000\2768\035\276\367\367K\257H\001"
 844      AA00BE38 
ARM GAS  /tmp/ccZLWL0x.s 			page 67


 844      1DBEF7F7 
 844      4BAF4801 
 845 1a68 50A8BDC1 		.ascii	"P\250\275\301_\305,\030\310\203\364\360\007H\265ix\366"
 845      5FC52C18 
 845      C883F4F0 
 845      0748B569 
 845      78F6
 846 1a7a 02A65D82 		.ascii	"\002\246]\2022@C\351\031\227F\310\355G\264\333\344\313"
 846      324043E9 
 846      199746C8 
 846      ED47B4DB 
 846      E4CB
 847 1a8c A3DA97BB 		.ascii	"\243\332\227\273\255\330D\337\202\243_\202\370\360\313"
 847      ADD844DF 
 847      82A35F82 
 847      F8F0CB
 848 1a9b 452F4B41 		.ascii	"E/KA\257\377\367\240\352;\374xY\014\207%\210\332\260"
 848      AFFFF7A0 
 848      EA3BFC78 
 848      590C8725 
 848      88DAB0
 849 1aae 04D602FF 		.ascii	"\004\326\002\377\355\211\027\211\0315\323\016\300\354"
 849      ED891789 
 849      1935D30E 
 849      C0EC
 850 1abc 4B52EE88 		.ascii	"KR\356\210@ \013b\372\301`QPzP\022\207\345g=\372\320"
 850      40200B62 
 850      FAC16051 
 850      507A5012 
 850      87E5673D 
 851 1ad2 C0870644 		.ascii	"\300\207\006DE\203\314\015\311\230\244\243p\376\177"
 851      4583CC0D 
 851      C998A4A3 
 851      70FE7F
 852 1ae1 91109387 		.ascii	"\221\020\223\207\227\004\003~YUj6\240\311\322\020\320"
 852      9704037E 
 852      59556A36 
 852      A0C9D210 
 852      D0
 853 1af2 797EE001 		.ascii	"y~\340\001;\375\344J\303JF\020\266\375\271\303F\370"
 853      3BFDE44A 
 853      C34A4610 
 853      B6FDB9C3 
 853      46F8
 854 1b04 037952E0 		.ascii	"\003yR\340e\034\245l;\241-\241\323\275\252UI\015RQ7"
 854      651CA56C 
 854      3BA12DA1 
 854      D3BDAA55 
 854      490D5251 
 855 1b19 F1074228 		.ascii	"\361\007B(O\256\252\364g\305\002\371\236h\273\242\342"
 855      4FAEAAF4 
 855      67C502F9 
 855      9E68BBA2 
 855      E2
 856 1b2a B8663D19 		.ascii	"\270f=\031\312\352p\330\015E\030B@\323\031i\236Kg\225"
 856      CAEA70D8 
 856      0D451842 
ARM GAS  /tmp/ccZLWL0x.s 			page 68


 856      40D31969 
 856      9E4B6795 
 857 1b3e 98A1368A 		.ascii	"\230\2416\2129O\037\235\212\321\005G\345\007s\213F\365"
 857      394F1F9D 
 857      8AD10547 
 857      E507738B 
 857      46F5
 858 1b50 505B1648 		.ascii	"P[\026HR\361\013A9\277\240[\354{w\306\000\371\350\034"
 858      52F10B41 
 858      39BFA05B 
 858      EC7B77C6 
 858      00F9E81C 
 859 1b64 FE30DA5F 		.ascii	"\3760\332_\035\023\324\363tb\231Wi\030\202\007\373c"
 859      1D13D4F3 
 859      74629957 
 859      69188207 
 859      FB63
 860 1b76 DF93436A 		.ascii	"\337\223Cj\200\373B\230\304\275!\314\256!\232]CjvM\205"
 860      80FB4298 
 860      C4BD21CC 
 860      AE219A5D 
 860      436A764D 
 861 1b8b AB252148 		.ascii	"\253%!HX\2627D:\33512?$\227\210\005\352H\247\305\367"
 861      58B23744 
 861      3ADD3132 
 861      3F249788 
 861      05EA48A7 
 862 1ba1 9D006C72 		.ascii	"\235\000lr\243\207\356\232\232\252t\227\222G\312\230"
 862      A387EE9A 
 862      9AAA7497 
 862      9247CA98 
 863 1bb1 4CC8918C 		.ascii	"L\310\221\214G)p\314\225\012d\021NT\217 w\310\231\217"
 863      472970CC 
 863      950A6411 
 863      4E548F20 
 863      77C8998F 
 864 1bc5 B4104369 		.ascii	"\264\020Cip \001Kz\303%B\244;\025\032\235AM5\354\225"
 864      7020014B 
 864      7AC32542 
 864      A43B151A 
 864      9D414D35 
 865 1bdb D4623198 		.ascii	"\324b1\230\037 \231%9?\034\"\2710\205\230\211\234\364"
 865      1F209925 
 865      393F1C22 
 865      B9308598 
 865      899CF4
 866 1bee 24592924 		.ascii	"$Y)$B*\036V2|8a0Y\036\346'\036\331\235\200\214\012\370"
 866      422A1E56 
 866      327C3861 
 866      30591EE6 
 866      271ED99D 
 867 1c06 31B9C1E5 		.ascii	"1\271\301\345\260:\316{\311\2618\025j5\247\247\300\031"
 867      B03ACE7B 
 867      C9B13815 
 867      6A35A7A7 
 867      C019
 868 1c18 0E153EE8 		.ascii	"\016\025>\350W,\207R\341\240B\245\263\270\036\360\221"
ARM GAS  /tmp/ccZLWL0x.s 			page 69


 868      572C8752 
 868      E1A042A5 
 868      B3B81EF0 
 868      91
 869 1c29 6E85228C 		.ascii	"n\205\"\214\017\030'\031r\241?\000\243\324\260\0208"
 869      0F182719 
 869      72A13F00 
 869      A3D4B010 
 869      38
 870 1c3a 78110C55 		.ascii	"x\021\014U\276\242\341\303\303\222,\310\205\335_\226"
 870      BEA2E1C3 
 870      C3922CC8 
 870      85DD5F96 
 871 1c4a 4241A980 		.ascii	"BA\251\200z\234\354\015\372\363C\177I\011\022\303\000"
 871      7A9CEC0D 
 871      FAF3437F 
 871      490912C3 
 871      00
 872 1c5b 3BDD0AA3 		.ascii	";\335\012\243~\247\235\202H\351l\237\356\371\271\005"
 872      7EA79D82 
 872      48E96C9F 
 872      EEF9B905 
 873 1c6b 128D4770 		.ascii	"\022\215Gp\015!\220'\214\022\223i|\246\370Q\225~\377"
 873      0D219027 
 873      8C129369 
 873      7CA6F851 
 873      957EFF
 874 1c7e 6DDAC943 		.ascii	"m\332\311C\217\375\252\377c\351LV\201i\0058U@\014KI"
 874      8FFDAAFF 
 874      63E94C56 
 874      81690538 
 874      55400C4B 
 875 1c93 643C0581 		.ascii	"d<\005\201\345\222b\270&\206\300\027\203\3114\205t+"
 875      E59262B8 
 875      2686C017 
 875      83C93485 
 875      742B
 876 1ca5 16659821 		.ascii	"\026e\230!\201<\271)4\301\365\277{\250J\344\027\231"
 876      813CB929 
 876      34C1F5BF 
 876      7BA84AE4 
 876      1799
 877 1cb7 5290B815 		.ascii	"R\220\270\025\344\357Lr/\363G\3759\255\321\000\353F"
 877      E4EF4C72 
 877      2FF347FD 
 877      39ADD100 
 877      EB46
 878 1cc9 03A28D1E 		.ascii	"\003\242\215\036\351\033mTL\243#\023\206\370\340\010"
 878      E91B6D54 
 878      4CA32313 
 878      86F8E008 
 879 1cd9 29DAE4D1 		.ascii	")\332\344\321\214h\023\360\026\361\3250\227e\210x\360"
 879      8C6813F0 
 879      16F1D530 
 879      97658878 
 879      F0
 880 1cea A9ACECC1 		.ascii	"\251\254\354\301C\236\033\022\013|2Y\013\024\376\013"
ARM GAS  /tmp/ccZLWL0x.s 			page 70


 880      439E1B12 
 880      0B7C3259 
 880      0B14FE0B 
 881 1cfa C80DC10F 		.ascii	"\310\015\301\017\032\000\321\374\277\177r\310\323\317"
 881      1A00D1FC 
 881      BF7F72C8 
 881      D3CF
 882 1d08 E73C779B 		.ascii	"\347<w\233X0\012P`\004/\200\211\242w\244XP\"=\346bZ"
 882      58300A50 
 882      60042F80 
 882      89A277A4 
 882      5850223D 
 883 1d1f 5B48C6FD 		.ascii	"[H\306\375|2\346\244E\277\370eOvN\177(\003\222\206\014"
 883      7C32E6A4 
 883      45BFF865 
 883      4F764E7F 
 883      28039286 
 884 1d34 CECE497A 		.ascii	"\316\316Iz\352\271\247s\204!9\236\247\237\311\361fg"
 884      EAB9A773 
 884      8421399E 
 884      A79FC9F1 
 884      6667
 885 1d46 0FCEE98F 		.ascii	"\017\316\351\217\365\200\244\354\354\247s<\331\177\034"
 885      F580A4EC 
 885      ECA7733C 
 885      D97F1C
 886 1d55 EA797E48 		.ascii	"\352y~H\266\347\311\234\034ON6|\207\016\277\177jh\216"
 886      B6E7C99C 
 886      1C4F4E36 
 886      7C870EBF 
 886      7F6A688E 
 887 1d69 E729D273 		.ascii	"\347)\322s\360\2239\302\277\251\275\036\201\366/\346"
 887      F09339C2 
 887      BFA9BD1E 
 887      81F62FE6 
 888 1d79 FC3F43D3 		.ascii	"\374?C\323\204-"
 888      842D
 889              		.text
 890              		.section	.gnu.lto_.symtab.ad57d27706fd9720,"",%progbits
 891 0000 70617474 		.ascii	"patternthd\000\000\000\000\000\000\000\000\000\000\000"
 891      65726E74 
 891      68640000 
 891      00000000 
 891      00000000 
 892 0015 008C0200 		.ascii	"\000\214\002\000\000testthd1\000\000\000\000\000\000"
 892      00746573 
 892      74746864 
 892      31000000 
 892      000000
 893 0028 00000000 		.ascii	"\000\000\000\000\000\000\241\002\000\000testthd2\000"
 893      0000A102 
 893      00007465 
 893      73747468 
 893      643200
 894 003b 00000000 		.ascii	"\000\000\000\000\000\000\000\000\000\000\000\253\002"
 894      00000000 
 894      000000AB 
ARM GAS  /tmp/ccZLWL0x.s 			page 71


 894      02
 895 0048 00007465 		.ascii	"\000\000testthd3\000\000\000\000\000\000\000\000\000"
 895      73747468 
 895      64330000 
 895      00000000 
 895      000000
 896 005b 000000B2 		.ascii	"\000\000\000\262\002\000\000testthd4\000\000\000\000"
 896      02000074 
 896      65737474 
 896      68643400 
 896      000000
 897 006e 00000000 		.ascii	"\000\000\000\000\000\000\000\000\274\002\000\000ch\000"
 897      00000000 
 897      BC020000 
 897      636800
 898 007d 00020000 		.ascii	"\000\002\000\000\000\000\000\000\000\000\000\365\001"
 898      00000000 
 898      000000F5 
 898      01
 899 008a 00007761 		.ascii	"\000\000wa\000\000\002\000\000\000\000\000\000\000\000"
 899      00000200 
 899      00000000 
 899      000000
 900 0099 007C0200 		.ascii	"\000|\002\000\000threads\000\000\002\000\000\000\000"
 900      00746872 
 900      65616473 
 900      00000200 
 900      000000
 901 00ac 00000000 		.ascii	"\000\000\000\000\000\201\002\000\000test_emit_token"
 901      00810200 
 901      00746573 
 901      745F656D 
 901      69745F74 
 902 00c4 00000200 		.ascii	"\000\000\002\000\000\000\000\000\000\000\000\000\256"
 902      00000000 
 902      00000000 
 902      AE
 903 00d1 0100005F 		.ascii	"\001\000\000_test_assert_sequence\000\000\002\000\000"
 903      74657374 
 903      5F617373 
 903      6572745F 
 903      73657175 
 904 00ee 00000000 		.ascii	"\000\000\000\000\000\000\000\262\001\000\000test_wa"
 904      000000B2 
 904      01000074 
 904      6573745F 
 904      7761
 905 0100 69745F74 		.ascii	"it_threads\000\000\002\000\000\000\000\000\000\000\000"
 905      68726561 
 905      64730000 
 905      02000000 
 905      00000000 
 906 0115 00BB0100 		.ascii	"\000\273\001\000\000chThdCreateStatic\000\000\002\000"
 906      00636854 
 906      68644372 
 906      65617465 
 906      53746174 
ARM GAS  /tmp/ccZLWL0x.s 			page 72


 907 012f 00000000 		.ascii	"\000\000\000\000\000\000\000\000\275\001\000\000_db"
 907      00000000 
 907      BD010000 
 907      5F6462
 908 013e 675F6368 		.ascii	"g_check_lock\000\000\002\000\000\000\000\000\000\000"
 908      65636B5F 
 908      6C6F636B 
 908      00000200 
 908      00000000 
 909 0154 0000CC01 		.ascii	"\000\000\314\001\000\000_stats_start_measure_crit_t"
 909      00005F73 
 909      74617473 
 909      5F737461 
 909      72745F6D 
 910 0175 68640000 		.ascii	"hd\000\000\002\000\000\000\000\000\000\000\000\000\316"
 910      02000000 
 910      00000000 
 910      0000CE
 911 0184 01000063 		.ascii	"\001\000\000chSysHalt\000\000\002\000\000\000\000\000"
 911      68537973 
 911      48616C74 
 911      00000200 
 911      00000000 
 912 0198 00000000 		.ascii	"\000\000\000\000\320\001\000\000_stats_stop_measure"
 912      D0010000 
 912      5F737461 
 912      74735F73 
 912      746F705F 
 913 01b3 5F637269 		.ascii	"_crit_thd\000\000\002\000\000\000\000\000\000\000\000"
 913      745F7468 
 913      64000002 
 913      00000000 
 913      00000000 
 914 01c7 00D40100 		.ascii	"\000\324\001\000\000_dbg_check_unlock\000\000\002\000"
 914      005F6462 
 914      675F6368 
 914      65636B5F 
 914      756E6C6F 
 915 01e1 00000000 		.ascii	"\000\000\000\000\000\000\000\000\326\001\000\000chT"
 915      00000000 
 915      D6010000 
 915      636854
 916 01f0 68645374 		.ascii	"hdStart\000\000\002\000\000\000\000\000\000\000\000"
 916      61727400 
 916      00020000 
 916      00000000 
 916      0000
 917 0202 00D80100 		.ascii	"\000\330\001\000\000chThdCreateI\000\000\002\000\000"
 917      00636854 
 917      68644372 
 917      65617465 
 917      49000002 
 918 0218 00000000 		.ascii	"\000\000\000\000\000\000\000\334\001\000\000_test_a"
 918      000000DC 
 918      0100005F 
 918      74657374 
 918      5F61
ARM GAS  /tmp/ccZLWL0x.s 			page 73


 919 022a 73736572 		.ascii	"ssert\000\000\002\000\000\000\000\000\000\000\000\000"
 919      74000002 
 919      00000000 
 919      00000000 
 919      00
 920 023b DE010000 		.ascii	"\336\001\000\000chThdSetPriority\000\000\002\000\000"
 920      63685468 
 920      64536574 
 920      5072696F 
 920      72697479 
 921 0254 00000000 		.ascii	"\000\000\000\000\000\000\000\343\001\000\000_test_a"
 921      000000E3 
 921      0100005F 
 921      74657374 
 921      5F61
 922 0266 73736572 		.ascii	"ssert_time_window\000\000\002\000\000\000\000\000\000"
 922      745F7469 
 922      6D655F77 
 922      696E646F 
 922      77000002 
 923 0280 000000E7 		.ascii	"\000\000\000\347\001\000\000chThdSleepUntil\000\000"
 923      01000063 
 923      68546864 
 923      536C6565 
 923      70556E74 
 924 0298 02000000 		.ascii	"\002\000\000\000\000\000\000\000\000\000\355\001\000"
 924      00000000 
 924      0000ED01 
 924      00
 925 02a5 00636854 		.ascii	"\000chThdSleep\000\000\002\000\000\000\000\000\000\000"
 925      6864536C 
 925      65657000 
 925      00020000 
 925      00000000 
 926 02ba 0000F101 		.ascii	"\000\000\361\001\000\000test_wait_tick\000\000\002\000"
 926      00007465 
 926      73745F77 
 926      6169745F 
 926      7469636B 
 927 02d2 00000000 		.ascii	"\000\000\000\000\000\000\000\000\363\001\000\000"
 927      00000000 
 927      F3010000 
 928              		.text
 929              		.section	.gnu.lto_.opts,"",%progbits
 930 0000 272D6D63 		.ascii	"'-mcpu=cortex-m4' '-mno-thumb-interwork' '-mthumb' "
 930      70753D63 
 930      6F727465 
 930      782D6D34 
 930      2720272D 
 931 0033 272D6767 		.ascii	"'-ggdb' '-O0' '-fomit-frame-pointer' '-falign-funct"
 931      64622720 
 931      272D4F30 
 931      2720272D 
 931      666F6D69 
 932 0066 696F6E73 		.ascii	"ions=16' '-ffunction-sections' '-fdata-sections' '-"
 932      3D313627 
 932      20272D66 
ARM GAS  /tmp/ccZLWL0x.s 			page 74


 932      66756E63 
 932      74696F6E 
 933 0099 666E6F2D 		.ascii	"fno-common' '-flto'\000"
 933      636F6D6D 
 933      6F6E2720 
 933      272D666C 
 933      746F2700 
 934              		.text
 935              		.cfi_sections	.debug_frame
 936              		.section	.text.port_lock,"ax",%progbits
 937              		.align	2
 938              		.p2align 4,,15
 939              		.thumb
 940              		.thumb_func
 941              		.type	port_lock, %function
 942              	port_lock:
 943              	.LFB127:
 944              		.file 1 "../../../../os/rt/ports/ARMCMx/chcore_v7m.h"
 945              		.loc 1 456 0
 946              		.cfi_startproc
 947              		@ args = 0, pretend = 0, frame = 8
 948              		@ frame_needed = 0, uses_anonymous_args = 0
 949              		@ link register save eliminated.
 950 0000 82B0     		sub	sp, sp, #8
 951              		.cfi_def_cfa_offset 8
 952 0002 2023     		movs	r3, #32
 953 0004 0193     		str	r3, [sp, #4]
 954              	.LBB6:
 955              	.LBB7:
 956              		.file 2 "../../../../os/ext/CMSIS/include/core_cmFunc.h"
 957              		.loc 2 548 0
 958 0006 019B     		ldr	r3, [sp, #4]
 959              	@ 548 "../../../../os/ext/CMSIS/include/core_cmFunc.h" 1
 960 0008 83F31188 		MSR basepri, r3
 961              	@ 0 "" 2
 962              		.thumb
 963              	.LBE7:
 964              	.LBE6:
 965              		.loc 1 473 0
 966 000c 02B0     		add	sp, sp, #8
 967              		@ sp needed
 968 000e 7047     		bx	lr
 969              		.cfi_endproc
 970              	.LFE127:
 971              		.size	port_lock, .-port_lock
 972              		.section	.text.port_unlock,"ax",%progbits
 973              		.align	2
 974              		.p2align 4,,15
 975              		.thumb
 976              		.thumb_func
 977              		.type	port_unlock, %function
 978              	port_unlock:
 979              	.LFB128:
 980              		.loc 1 480 0
 981              		.cfi_startproc
 982              		@ args = 0, pretend = 0, frame = 8
 983              		@ frame_needed = 0, uses_anonymous_args = 0
ARM GAS  /tmp/ccZLWL0x.s 			page 75


 984              		@ link register save eliminated.
 985 0000 82B0     		sub	sp, sp, #8
 986              		.cfi_def_cfa_offset 8
 987 0002 0023     		movs	r3, #0
 988 0004 0193     		str	r3, [sp, #4]
 989              	.LBB8:
 990              	.LBB9:
 991              		.loc 2 548 0
 992 0006 019B     		ldr	r3, [sp, #4]
 993              	@ 548 "../../../../os/ext/CMSIS/include/core_cmFunc.h" 1
 994 0008 83F31188 		MSR basepri, r3
 995              	@ 0 "" 2
 996              		.thumb
 997              	.LBE9:
 998              	.LBE8:
 999              		.loc 1 487 0
 1000 000c 02B0     		add	sp, sp, #8
 1001              		@ sp needed
 1002 000e 7047     		bx	lr
 1003              		.cfi_endproc
 1004              	.LFE128:
 1005              		.size	port_unlock, .-port_unlock
 1006              		.section	.text.st_lld_get_counter,"ax",%progbits
 1007              		.align	2
 1008              		.p2align 4,,15
 1009              		.thumb
 1010              		.thumb_func
 1011              		.type	st_lld_get_counter, %function
 1012              	st_lld_get_counter:
 1013              	.LFB136:
 1014              		.file 3 "../../../../os/hal/ports/STM32/LLD/TIMv1/st_lld.h"
 1015              		.loc 3 139 0
 1016              		.cfi_startproc
 1017              		@ args = 0, pretend = 0, frame = 0
 1018              		@ frame_needed = 0, uses_anonymous_args = 0
 1019              		@ link register save eliminated.
 1020              		.loc 3 141 0
 1021 0000 4FF08043 		mov	r3, #1073741824
 1022 0004 5B6A     		ldr	r3, [r3, #36]
 1023              		.loc 3 142 0
 1024 0006 1846     		mov	r0, r3
 1025 0008 7047     		bx	lr
 1026              		.cfi_endproc
 1027              	.LFE136:
 1028              		.size	st_lld_get_counter, .-st_lld_get_counter
 1029 000a 00BFAFF3 		.section	.text.port_timer_get_time,"ax",%progbits
 1029      0080
 1030              		.align	2
 1031              		.p2align 4,,15
 1032              		.thumb
 1033              		.thumb_func
 1034              		.type	port_timer_get_time, %function
 1035              	port_timer_get_time:
 1036              	.LFB145:
 1037              		.file 4 "../../../../os/rt/ports/ARMCMx/chcore_timer.h"
 1038              		.loc 4 105 0
 1039              		.cfi_startproc
ARM GAS  /tmp/ccZLWL0x.s 			page 76


 1040              		@ args = 0, pretend = 0, frame = 0
 1041              		@ frame_needed = 0, uses_anonymous_args = 0
 1042 0000 08B5     		push	{r3, lr}
 1043              		.cfi_def_cfa_offset 8
 1044              		.cfi_offset 3, -8
 1045              		.cfi_offset 14, -4
 1046              		.loc 4 107 0
 1047 0002 FFF7FEFF 		bl	st_lld_get_counter
 1048 0006 0346     		mov	r3, r0
 1049              		.loc 4 108 0
 1050 0008 1846     		mov	r0, r3
 1051 000a 08BD     		pop	{r3, pc}
 1052              		.cfi_endproc
 1053              	.LFE145:
 1054              		.size	port_timer_get_time, .-port_timer_get_time
 1055              		.section	.text.chSysLock,"ax",%progbits
 1056              		.align	2
 1057              		.p2align 4,,15
 1058              		.thumb
 1059              		.thumb_func
 1060              		.type	chSysLock, %function
 1061              	chSysLock:
 1062              	.LFB167:
 1063              		.file 5 "../../../../os/rt/include/chsys.h"
 1064              		.loc 5 346 0
 1065              		.cfi_startproc
 1066              		@ args = 0, pretend = 0, frame = 0
 1067              		@ frame_needed = 0, uses_anonymous_args = 0
 1068 0000 08B5     		push	{r3, lr}
 1069              		.cfi_def_cfa_offset 8
 1070              		.cfi_offset 3, -8
 1071              		.cfi_offset 14, -4
 1072              		.loc 5 348 0
 1073 0002 FFF7FEFF 		bl	port_lock
 1074              		.loc 5 349 0
 1075 0006 FFF7FEFF 		bl	_stats_start_measure_crit_thd
 1076              		.loc 5 350 0
 1077 000a FFF7FEFF 		bl	_dbg_check_lock
 1078              		.loc 5 351 0
 1079 000e 08BD     		pop	{r3, pc}
 1080              		.cfi_endproc
 1081              	.LFE167:
 1082              		.size	chSysLock, .-chSysLock
 1083              		.section	.text.chSysUnlock,"ax",%progbits
 1084              		.align	2
 1085              		.p2align 4,,15
 1086              		.thumb
 1087              		.thumb_func
 1088              		.type	chSysUnlock, %function
 1089              	chSysUnlock:
 1090              	.LFB168:
 1091              		.loc 5 358 0
 1092              		.cfi_startproc
 1093              		@ args = 0, pretend = 0, frame = 0
 1094              		@ frame_needed = 0, uses_anonymous_args = 0
 1095 0000 08B5     		push	{r3, lr}
 1096              		.cfi_def_cfa_offset 8
ARM GAS  /tmp/ccZLWL0x.s 			page 77


 1097              		.cfi_offset 3, -8
 1098              		.cfi_offset 14, -4
 1099              		.loc 5 360 0
 1100 0002 FFF7FEFF 		bl	_dbg_check_unlock
 1101              		.loc 5 361 0
 1102 0006 FFF7FEFF 		bl	_stats_stop_measure_crit_thd
 1103              		.loc 5 367 0
 1104 000a 40F20003 		movw	r3, #:lower16:ch
 1105 000e C0F20003 		movt	r3, #:upper16:ch
 1106 0012 1A68     		ldr	r2, [r3]
 1107 0014 40F20003 		movw	r3, #:lower16:ch
 1108 0018 C0F20003 		movt	r3, #:upper16:ch
 1109 001c 9A42     		cmp	r2, r3
 1110 001e 13D0     		beq	.L9
 1111              		.loc 5 367 0 is_stmt 0 discriminator 1
 1112 0020 40F20003 		movw	r3, #:lower16:ch
 1113 0024 C0F20003 		movt	r3, #:upper16:ch
 1114 0028 9B69     		ldr	r3, [r3, #24]
 1115 002a 9A68     		ldr	r2, [r3, #8]
 1116 002c 40F20003 		movw	r3, #:lower16:ch
 1117 0030 C0F20003 		movt	r3, #:upper16:ch
 1118 0034 1B68     		ldr	r3, [r3]
 1119 0036 9B68     		ldr	r3, [r3, #8]
 1120 0038 9A42     		cmp	r2, r3
 1121 003a 05D2     		bcs	.L9
 1122 003c 40F20000 		movw	r0, #:lower16:__func__.5915
 1123 0040 C0F20000 		movt	r0, #:upper16:__func__.5915
 1124 0044 FFF7FEFF 		bl	chSysHalt
 1125              	.L9:
 1126              		.loc 5 371 0 is_stmt 1
 1127 0048 FFF7FEFF 		bl	port_unlock
 1128              		.loc 5 372 0
 1129 004c 08BD     		pop	{r3, pc}
 1130              		.cfi_endproc
 1131              	.LFE168:
 1132              		.size	chSysUnlock, .-chSysUnlock
 1133 004e 00BF     		.section	.text.chVTGetSystemTimeX,"ax",%progbits
 1134              		.align	2
 1135              		.p2align 4,,15
 1136              		.thumb
 1137              		.thumb_func
 1138              		.type	chVTGetSystemTimeX, %function
 1139              	chVTGetSystemTimeX:
 1140              	.LFB175:
 1141              		.file 6 "../../../../os/rt/include/chvt.h"
 1142              		.loc 6 228 0
 1143              		.cfi_startproc
 1144              		@ args = 0, pretend = 0, frame = 0
 1145              		@ frame_needed = 0, uses_anonymous_args = 0
 1146 0000 08B5     		push	{r3, lr}
 1147              		.cfi_def_cfa_offset 8
 1148              		.cfi_offset 3, -8
 1149              		.cfi_offset 14, -4
 1150              		.loc 6 233 0
 1151 0002 FFF7FEFF 		bl	port_timer_get_time
 1152 0006 0346     		mov	r3, r0
 1153              		.loc 6 235 0
ARM GAS  /tmp/ccZLWL0x.s 			page 78


 1154 0008 1846     		mov	r0, r3
 1155 000a 08BD     		pop	{r3, pc}
 1156              		.cfi_endproc
 1157              	.LFE175:
 1158              		.size	chVTGetSystemTimeX, .-chVTGetSystemTimeX
 1159              		.section	.text.chVTGetSystemTime,"ax",%progbits
 1160              		.align	2
 1161              		.p2align 4,,15
 1162              		.thumb
 1163              		.thumb_func
 1164              		.type	chVTGetSystemTime, %function
 1165              	chVTGetSystemTime:
 1166              	.LFB176:
 1167              		.loc 6 247 0
 1168              		.cfi_startproc
 1169              		@ args = 0, pretend = 0, frame = 8
 1170              		@ frame_needed = 0, uses_anonymous_args = 0
 1171 0000 00B5     		push	{lr}
 1172              		.cfi_def_cfa_offset 4
 1173              		.cfi_offset 14, -4
 1174 0002 83B0     		sub	sp, sp, #12
 1175              		.cfi_def_cfa_offset 16
 1176              		.loc 6 250 0
 1177 0004 FFF7FEFF 		bl	chSysLock
 1178              		.loc 6 251 0
 1179 0008 FFF7FEFF 		bl	chVTGetSystemTimeX
 1180 000c 0190     		str	r0, [sp, #4]
 1181              		.loc 6 252 0
 1182 000e FFF7FEFF 		bl	chSysUnlock
 1183              		.loc 6 254 0
 1184 0012 019B     		ldr	r3, [sp, #4]
 1185              		.loc 6 255 0
 1186 0014 1846     		mov	r0, r3
 1187 0016 03B0     		add	sp, sp, #12
 1188              		@ sp needed
 1189 0018 5DF804FB 		ldr	pc, [sp], #4
 1190              		.cfi_endproc
 1191              	.LFE176:
 1192              		.size	chVTGetSystemTime, .-chVTGetSystemTime
 1193 001c AFF30080 		.section	.text.chThdGetSelfX,"ax",%progbits
 1194              		.align	2
 1195              		.p2align 4,,15
 1196              		.thumb
 1197              		.thumb_func
 1198              		.type	chThdGetSelfX, %function
 1199              	chThdGetSelfX:
 1200              	.LFB189:
 1201              		.file 7 "../../../../os/rt/include/chthreads.h"
 1202              		.loc 7 174 0
 1203              		.cfi_startproc
 1204              		@ args = 0, pretend = 0, frame = 0
 1205              		@ frame_needed = 0, uses_anonymous_args = 0
 1206              		@ link register save eliminated.
 1207              		.loc 7 176 0
 1208 0000 40F20003 		movw	r3, #:lower16:ch
 1209 0004 C0F20003 		movt	r3, #:upper16:ch
 1210 0008 9B69     		ldr	r3, [r3, #24]
ARM GAS  /tmp/ccZLWL0x.s 			page 79


 1211              		.loc 7 177 0
 1212 000a 1846     		mov	r0, r3
 1213 000c 7047     		bx	lr
 1214              		.cfi_endproc
 1215              	.LFE189:
 1216              		.size	chThdGetSelfX, .-chThdGetSelfX
 1217 000e 00BF     		.section	.text.chThdGetPriorityX,"ax",%progbits
 1218              		.align	2
 1219              		.p2align 4,,15
 1220              		.thumb
 1221              		.thumb_func
 1222              		.type	chThdGetPriorityX, %function
 1223              	chThdGetPriorityX:
 1224              	.LFB190:
 1225              		.loc 7 187 0
 1226              		.cfi_startproc
 1227              		@ args = 0, pretend = 0, frame = 0
 1228              		@ frame_needed = 0, uses_anonymous_args = 0
 1229 0000 08B5     		push	{r3, lr}
 1230              		.cfi_def_cfa_offset 8
 1231              		.cfi_offset 3, -8
 1232              		.cfi_offset 14, -4
 1233              		.loc 7 189 0
 1234 0002 FFF7FEFF 		bl	chThdGetSelfX
 1235 0006 0346     		mov	r3, r0
 1236 0008 9B68     		ldr	r3, [r3, #8]
 1237              		.loc 7 190 0
 1238 000a 1846     		mov	r0, r3
 1239 000c 08BD     		pop	{r3, pc}
 1240              		.cfi_endproc
 1241              	.LFE190:
 1242              		.size	chThdGetPriorityX, .-chThdGetPriorityX
 1243 000e 00BF     		.section	.text.thread,"ax",%progbits
 1244              		.align	2
 1245              		.p2align 4,,15
 1246              		.thumb
 1247              		.thumb_func
 1248              		.type	thread, %function
 1249              	thread:
 1250              	.LFB241:
 1251              		.file 8 "../../../../test/rt/testthd.c"
 1252              		.loc 8 60 0
 1253              		.cfi_startproc
 1254              		@ args = 0, pretend = 0, frame = 8
 1255              		@ frame_needed = 0, uses_anonymous_args = 0
 1256 0000 00B5     		push	{lr}
 1257              		.cfi_def_cfa_offset 4
 1258              		.cfi_offset 14, -4
 1259 0002 83B0     		sub	sp, sp, #12
 1260              		.cfi_def_cfa_offset 16
 1261 0004 0190     		str	r0, [sp, #4]
 1262              		.loc 8 62 0
 1263 0006 019B     		ldr	r3, [sp, #4]
 1264 0008 1B78     		ldrb	r3, [r3]	@ zero_extendqisi2
 1265 000a 1846     		mov	r0, r3
 1266 000c FFF7FEFF 		bl	test_emit_token
 1267              		.loc 8 63 0
ARM GAS  /tmp/ccZLWL0x.s 			page 80


 1268 0010 03B0     		add	sp, sp, #12
 1269              		@ sp needed
 1270 0012 5DF804FB 		ldr	pc, [sp], #4
 1271              		.cfi_endproc
 1272              	.LFE241:
 1273              		.size	thread, .-thread
 1274 0016 00BFAFF3 		.section	.rodata
 1274      0080AFF3 
 1274      0080
 1275              		.align	2
 1276              	.LC0:
 1277 0000 4500     		.ascii	"E\000"
 1278 0002 0000     		.align	2
 1279              	.LC1:
 1280 0004 4400     		.ascii	"D\000"
 1281 0006 0000     		.align	2
 1282              	.LC2:
 1283 0008 4300     		.ascii	"C\000"
 1284 000a 0000     		.align	2
 1285              	.LC3:
 1286 000c 4200     		.ascii	"B\000"
 1287 000e 0000     		.align	2
 1288              	.LC4:
 1289 0010 4100     		.ascii	"A\000"
 1290 0012 0000     		.align	2
 1291              	.LC5:
 1292 0014 41424344 		.ascii	"ABCDE\000"
 1292      4500
 1293              		.section	.text.thd1_execute,"ax",%progbits
 1294              		.align	2
 1295              		.p2align 4,,15
 1296              		.thumb
 1297              		.thumb_func
 1298              		.type	thd1_execute, %function
 1299              	thd1_execute:
 1300              	.LFB242:
 1301              		.loc 8 65 0
 1302              		.cfi_startproc
 1303              		@ args = 0, pretend = 0, frame = 0
 1304              		@ frame_needed = 0, uses_anonymous_args = 0
 1305 0000 10B5     		push	{r4, lr}
 1306              		.cfi_def_cfa_offset 8
 1307              		.cfi_offset 4, -8
 1308              		.cfi_offset 14, -4
 1309 0002 82B0     		sub	sp, sp, #8
 1310              		.cfi_def_cfa_offset 16
 1311              		.loc 8 67 0
 1312 0004 40F20003 		movw	r3, #:lower16:wa
 1313 0008 C0F20003 		movt	r3, #:upper16:wa
 1314 000c 1C68     		ldr	r4, [r3]
 1315 000e FFF7FEFF 		bl	chThdGetPriorityX
 1316 0012 0346     		mov	r3, r0
 1317 0014 5A1F     		subs	r2, r3, #5
 1318 0016 40F20003 		movw	r3, #:lower16:.LC0
 1319 001a C0F20003 		movt	r3, #:upper16:.LC0
 1320 001e 0093     		str	r3, [sp]
 1321 0020 2046     		mov	r0, r4
ARM GAS  /tmp/ccZLWL0x.s 			page 81


 1322 0022 4FF4B471 		mov	r1, #360
 1323 0026 40F20003 		movw	r3, #:lower16:thread
 1324 002a C0F20003 		movt	r3, #:upper16:thread
 1325 002e FFF7FEFF 		bl	chThdCreateStatic
 1326 0032 0246     		mov	r2, r0
 1327 0034 40F20003 		movw	r3, #:lower16:threads
 1328 0038 C0F20003 		movt	r3, #:upper16:threads
 1329 003c 1A60     		str	r2, [r3]
 1330              		.loc 8 68 0
 1331 003e 40F20003 		movw	r3, #:lower16:wa
 1332 0042 C0F20003 		movt	r3, #:upper16:wa
 1333 0046 5C68     		ldr	r4, [r3, #4]
 1334 0048 FFF7FEFF 		bl	chThdGetPriorityX
 1335 004c 0346     		mov	r3, r0
 1336 004e 1A1F     		subs	r2, r3, #4
 1337 0050 40F20003 		movw	r3, #:lower16:.LC1
 1338 0054 C0F20003 		movt	r3, #:upper16:.LC1
 1339 0058 0093     		str	r3, [sp]
 1340 005a 2046     		mov	r0, r4
 1341 005c 4FF4B471 		mov	r1, #360
 1342 0060 40F20003 		movw	r3, #:lower16:thread
 1343 0064 C0F20003 		movt	r3, #:upper16:thread
 1344 0068 FFF7FEFF 		bl	chThdCreateStatic
 1345 006c 0246     		mov	r2, r0
 1346 006e 40F20003 		movw	r3, #:lower16:threads
 1347 0072 C0F20003 		movt	r3, #:upper16:threads
 1348 0076 5A60     		str	r2, [r3, #4]
 1349              		.loc 8 69 0
 1350 0078 40F20003 		movw	r3, #:lower16:wa
 1351 007c C0F20003 		movt	r3, #:upper16:wa
 1352 0080 9C68     		ldr	r4, [r3, #8]
 1353 0082 FFF7FEFF 		bl	chThdGetPriorityX
 1354 0086 0346     		mov	r3, r0
 1355 0088 DA1E     		subs	r2, r3, #3
 1356 008a 40F20003 		movw	r3, #:lower16:.LC2
 1357 008e C0F20003 		movt	r3, #:upper16:.LC2
 1358 0092 0093     		str	r3, [sp]
 1359 0094 2046     		mov	r0, r4
 1360 0096 4FF4B471 		mov	r1, #360
 1361 009a 40F20003 		movw	r3, #:lower16:thread
 1362 009e C0F20003 		movt	r3, #:upper16:thread
 1363 00a2 FFF7FEFF 		bl	chThdCreateStatic
 1364 00a6 0246     		mov	r2, r0
 1365 00a8 40F20003 		movw	r3, #:lower16:threads
 1366 00ac C0F20003 		movt	r3, #:upper16:threads
 1367 00b0 9A60     		str	r2, [r3, #8]
 1368              		.loc 8 70 0
 1369 00b2 40F20003 		movw	r3, #:lower16:wa
 1370 00b6 C0F20003 		movt	r3, #:upper16:wa
 1371 00ba DC68     		ldr	r4, [r3, #12]
 1372 00bc FFF7FEFF 		bl	chThdGetPriorityX
 1373 00c0 0346     		mov	r3, r0
 1374 00c2 9A1E     		subs	r2, r3, #2
 1375 00c4 40F20003 		movw	r3, #:lower16:.LC3
 1376 00c8 C0F20003 		movt	r3, #:upper16:.LC3
 1377 00cc 0093     		str	r3, [sp]
 1378 00ce 2046     		mov	r0, r4
ARM GAS  /tmp/ccZLWL0x.s 			page 82


 1379 00d0 4FF4B471 		mov	r1, #360
 1380 00d4 40F20003 		movw	r3, #:lower16:thread
 1381 00d8 C0F20003 		movt	r3, #:upper16:thread
 1382 00dc FFF7FEFF 		bl	chThdCreateStatic
 1383 00e0 0246     		mov	r2, r0
 1384 00e2 40F20003 		movw	r3, #:lower16:threads
 1385 00e6 C0F20003 		movt	r3, #:upper16:threads
 1386 00ea DA60     		str	r2, [r3, #12]
 1387              		.loc 8 71 0
 1388 00ec 40F20003 		movw	r3, #:lower16:wa
 1389 00f0 C0F20003 		movt	r3, #:upper16:wa
 1390 00f4 1C69     		ldr	r4, [r3, #16]
 1391 00f6 FFF7FEFF 		bl	chThdGetPriorityX
 1392 00fa 0346     		mov	r3, r0
 1393 00fc 5A1E     		subs	r2, r3, #1
 1394 00fe 40F20003 		movw	r3, #:lower16:.LC4
 1395 0102 C0F20003 		movt	r3, #:upper16:.LC4
 1396 0106 0093     		str	r3, [sp]
 1397 0108 2046     		mov	r0, r4
 1398 010a 4FF4B471 		mov	r1, #360
 1399 010e 40F20003 		movw	r3, #:lower16:thread
 1400 0112 C0F20003 		movt	r3, #:upper16:thread
 1401 0116 FFF7FEFF 		bl	chThdCreateStatic
 1402 011a 0246     		mov	r2, r0
 1403 011c 40F20003 		movw	r3, #:lower16:threads
 1404 0120 C0F20003 		movt	r3, #:upper16:threads
 1405 0124 1A61     		str	r2, [r3, #16]
 1406              		.loc 8 72 0
 1407 0126 FFF7FEFF 		bl	test_wait_threads
 1408              		.loc 8 73 0
 1409 012a 0120     		movs	r0, #1
 1410 012c 40F20001 		movw	r1, #:lower16:.LC5
 1411 0130 C0F20001 		movt	r1, #:upper16:.LC5
 1412 0134 FFF7FEFF 		bl	_test_assert_sequence
 1413 0138 0346     		mov	r3, r0
 1414 013a 002B     		cmp	r3, #0
 1415 013c 00D0     		beq	.L19
 1416              		.loc 8 73 0 is_stmt 0 discriminator 1
 1417 013e 00BF     		nop
 1418              	.L19:
 1419              		.loc 8 74 0 is_stmt 1
 1420 0140 02B0     		add	sp, sp, #8
 1421              		@ sp needed
 1422 0142 10BD     		pop	{r4, pc}
 1423              		.cfi_endproc
 1424              	.LFE242:
 1425              		.size	thd1_execute, .-thd1_execute
 1426              		.global	testthd1
 1427 0144 AFF30080 		.section	.rodata
 1427      AFF30080 
 1427      AFF30080 
 1428 001a 0000     		.align	2
 1429              	.LC6:
 1430 001c 54687265 		.ascii	"Threads, enqueuing test #1\000"
 1430      6164732C 
 1430      20656E71 
 1430      75657569 
ARM GAS  /tmp/ccZLWL0x.s 			page 83


 1430      6E672074 
 1431              		.section	.rodata.testthd1,"a",%progbits
 1432              		.align	2
 1433              		.type	testthd1, %object
 1434              		.size	testthd1, 16
 1435              	testthd1:
 1436 0000 1C000000 		.word	.LC6
 1437 0004 00000000 		.word	0
 1438 0008 00000000 		.word	0
 1439 000c 00000000 		.word	thd1_execute
 1440              		.section	.text.thd2_execute,"ax",%progbits
 1441              		.align	2
 1442              		.p2align 4,,15
 1443              		.thumb
 1444              		.thumb_func
 1445              		.type	thd2_execute, %function
 1446              	thd2_execute:
 1447              	.LFB243:
 1448              		.loc 8 93 0
 1449              		.cfi_startproc
 1450              		@ args = 0, pretend = 0, frame = 0
 1451              		@ frame_needed = 0, uses_anonymous_args = 0
 1452 0000 10B5     		push	{r4, lr}
 1453              		.cfi_def_cfa_offset 8
 1454              		.cfi_offset 4, -8
 1455              		.cfi_offset 14, -4
 1456 0002 82B0     		sub	sp, sp, #8
 1457              		.cfi_def_cfa_offset 16
 1458              		.loc 8 95 0
 1459 0004 40F20003 		movw	r3, #:lower16:wa
 1460 0008 C0F20003 		movt	r3, #:upper16:wa
 1461 000c 5C68     		ldr	r4, [r3, #4]
 1462 000e FFF7FEFF 		bl	chThdGetPriorityX
 1463 0012 0346     		mov	r3, r0
 1464 0014 1A1F     		subs	r2, r3, #4
 1465 0016 40F20003 		movw	r3, #:lower16:.LC1
 1466 001a C0F20003 		movt	r3, #:upper16:.LC1
 1467 001e 0093     		str	r3, [sp]
 1468 0020 2046     		mov	r0, r4
 1469 0022 4FF4B471 		mov	r1, #360
 1470 0026 40F20003 		movw	r3, #:lower16:thread
 1471 002a C0F20003 		movt	r3, #:upper16:thread
 1472 002e FFF7FEFF 		bl	chThdCreateStatic
 1473 0032 0246     		mov	r2, r0
 1474 0034 40F20003 		movw	r3, #:lower16:threads
 1475 0038 C0F20003 		movt	r3, #:upper16:threads
 1476 003c 5A60     		str	r2, [r3, #4]
 1477              		.loc 8 96 0
 1478 003e 40F20003 		movw	r3, #:lower16:wa
 1479 0042 C0F20003 		movt	r3, #:upper16:wa
 1480 0046 1C68     		ldr	r4, [r3]
 1481 0048 FFF7FEFF 		bl	chThdGetPriorityX
 1482 004c 0346     		mov	r3, r0
 1483 004e 5A1F     		subs	r2, r3, #5
 1484 0050 40F20003 		movw	r3, #:lower16:.LC0
 1485 0054 C0F20003 		movt	r3, #:upper16:.LC0
 1486 0058 0093     		str	r3, [sp]
ARM GAS  /tmp/ccZLWL0x.s 			page 84


 1487 005a 2046     		mov	r0, r4
 1488 005c 4FF4B471 		mov	r1, #360
 1489 0060 40F20003 		movw	r3, #:lower16:thread
 1490 0064 C0F20003 		movt	r3, #:upper16:thread
 1491 0068 FFF7FEFF 		bl	chThdCreateStatic
 1492 006c 0246     		mov	r2, r0
 1493 006e 40F20003 		movw	r3, #:lower16:threads
 1494 0072 C0F20003 		movt	r3, #:upper16:threads
 1495 0076 1A60     		str	r2, [r3]
 1496              		.loc 8 97 0
 1497 0078 40F20003 		movw	r3, #:lower16:wa
 1498 007c C0F20003 		movt	r3, #:upper16:wa
 1499 0080 1C69     		ldr	r4, [r3, #16]
 1500 0082 FFF7FEFF 		bl	chThdGetPriorityX
 1501 0086 0346     		mov	r3, r0
 1502 0088 5A1E     		subs	r2, r3, #1
 1503 008a 40F20003 		movw	r3, #:lower16:.LC4
 1504 008e C0F20003 		movt	r3, #:upper16:.LC4
 1505 0092 0093     		str	r3, [sp]
 1506 0094 2046     		mov	r0, r4
 1507 0096 4FF4B471 		mov	r1, #360
 1508 009a 40F20003 		movw	r3, #:lower16:thread
 1509 009e C0F20003 		movt	r3, #:upper16:thread
 1510 00a2 FFF7FEFF 		bl	chThdCreateStatic
 1511 00a6 0246     		mov	r2, r0
 1512 00a8 40F20003 		movw	r3, #:lower16:threads
 1513 00ac C0F20003 		movt	r3, #:upper16:threads
 1514 00b0 1A61     		str	r2, [r3, #16]
 1515              		.loc 8 98 0
 1516 00b2 40F20003 		movw	r3, #:lower16:wa
 1517 00b6 C0F20003 		movt	r3, #:upper16:wa
 1518 00ba DC68     		ldr	r4, [r3, #12]
 1519 00bc FFF7FEFF 		bl	chThdGetPriorityX
 1520 00c0 0346     		mov	r3, r0
 1521 00c2 9A1E     		subs	r2, r3, #2
 1522 00c4 40F20003 		movw	r3, #:lower16:.LC3
 1523 00c8 C0F20003 		movt	r3, #:upper16:.LC3
 1524 00cc 0093     		str	r3, [sp]
 1525 00ce 2046     		mov	r0, r4
 1526 00d0 4FF4B471 		mov	r1, #360
 1527 00d4 40F20003 		movw	r3, #:lower16:thread
 1528 00d8 C0F20003 		movt	r3, #:upper16:thread
 1529 00dc FFF7FEFF 		bl	chThdCreateStatic
 1530 00e0 0246     		mov	r2, r0
 1531 00e2 40F20003 		movw	r3, #:lower16:threads
 1532 00e6 C0F20003 		movt	r3, #:upper16:threads
 1533 00ea DA60     		str	r2, [r3, #12]
 1534              		.loc 8 100 0
 1535 00ec FFF7FEFF 		bl	chSysLock
 1536              		.loc 8 101 0
 1537 00f0 40F20003 		movw	r3, #:lower16:wa
 1538 00f4 C0F20003 		movt	r3, #:upper16:wa
 1539 00f8 9C68     		ldr	r4, [r3, #8]
 1540 00fa FFF7FEFF 		bl	chThdGetPriorityX
 1541 00fe 0346     		mov	r3, r0
 1542 0100 DA1E     		subs	r2, r3, #3
 1543 0102 40F20003 		movw	r3, #:lower16:.LC2
ARM GAS  /tmp/ccZLWL0x.s 			page 85


 1544 0106 C0F20003 		movt	r3, #:upper16:.LC2
 1545 010a 0093     		str	r3, [sp]
 1546 010c 2046     		mov	r0, r4
 1547 010e 4FF4B471 		mov	r1, #360
 1548 0112 40F20003 		movw	r3, #:lower16:thread
 1549 0116 C0F20003 		movt	r3, #:upper16:thread
 1550 011a FFF7FEFF 		bl	chThdCreateI
 1551 011e 0246     		mov	r2, r0
 1552 0120 40F20003 		movw	r3, #:lower16:threads
 1553 0124 C0F20003 		movt	r3, #:upper16:threads
 1554 0128 9A60     		str	r2, [r3, #8]
 1555              		.loc 8 102 0
 1556 012a FFF7FEFF 		bl	chSysUnlock
 1557              		.loc 8 103 0
 1558 012e 40F20003 		movw	r3, #:lower16:threads
 1559 0132 C0F20003 		movt	r3, #:upper16:threads
 1560 0136 9B68     		ldr	r3, [r3, #8]
 1561 0138 1846     		mov	r0, r3
 1562 013a FFF7FEFF 		bl	chThdStart
 1563              		.loc 8 104 0
 1564 013e FFF7FEFF 		bl	test_wait_threads
 1565              		.loc 8 105 0
 1566 0142 0120     		movs	r0, #1
 1567 0144 40F20001 		movw	r1, #:lower16:.LC5
 1568 0148 C0F20001 		movt	r1, #:upper16:.LC5
 1569 014c FFF7FEFF 		bl	_test_assert_sequence
 1570 0150 0346     		mov	r3, r0
 1571 0152 002B     		cmp	r3, #0
 1572 0154 00D0     		beq	.L21
 1573              		.loc 8 105 0 is_stmt 0 discriminator 1
 1574 0156 00BF     		nop
 1575              	.L21:
 1576              		.loc 8 106 0 is_stmt 1
 1577 0158 02B0     		add	sp, sp, #8
 1578              		@ sp needed
 1579 015a 10BD     		pop	{r4, pc}
 1580              		.cfi_endproc
 1581              	.LFE243:
 1582              		.size	thd2_execute, .-thd2_execute
 1583              		.global	testthd2
 1584 015c AFF30080 		.section	.rodata
 1585 0037 00       		.align	2
 1586              	.LC7:
 1587 0038 54687265 		.ascii	"Threads, enqueuing test #2\000"
 1587      6164732C 
 1587      20656E71 
 1587      75657569 
 1587      6E672074 
 1588              		.section	.rodata.testthd2,"a",%progbits
 1589              		.align	2
 1590              		.type	testthd2, %object
 1591              		.size	testthd2, 16
 1592              	testthd2:
 1593 0000 38000000 		.word	.LC7
 1594 0004 00000000 		.word	0
 1595 0008 00000000 		.word	0
 1596 000c 00000000 		.word	thd2_execute
ARM GAS  /tmp/ccZLWL0x.s 			page 86


 1597              		.section	.text.thd3_execute,"ax",%progbits
 1598              		.align	2
 1599              		.p2align 4,,15
 1600              		.thumb
 1601              		.thumb_func
 1602              		.type	thd3_execute, %function
 1603              	thd3_execute:
 1604              	.LFB244:
 1605              		.loc 8 125 0
 1606              		.cfi_startproc
 1607              		@ args = 0, pretend = 0, frame = 8
 1608              		@ frame_needed = 0, uses_anonymous_args = 0
 1609 0000 00B5     		push	{lr}
 1610              		.cfi_def_cfa_offset 4
 1611              		.cfi_offset 14, -4
 1612 0002 83B0     		sub	sp, sp, #12
 1613              		.cfi_def_cfa_offset 16
 1614              		.loc 8 128 0
 1615 0004 FFF7FEFF 		bl	chThdGetPriorityX
 1616 0008 0190     		str	r0, [sp, #4]
 1617              		.loc 8 129 0
 1618 000a 019B     		ldr	r3, [sp, #4]
 1619 000c 0133     		adds	r3, r3, #1
 1620 000e 1846     		mov	r0, r3
 1621 0010 FFF7FEFF 		bl	chThdSetPriority
 1622 0014 0090     		str	r0, [sp]
 1623              		.loc 8 130 0
 1624 0016 009A     		ldr	r2, [sp]
 1625 0018 019B     		ldr	r3, [sp, #4]
 1626 001a 9A42     		cmp	r2, r3
 1627 001c 14BF     		ite	ne
 1628 001e 0023     		movne	r3, #0
 1629 0020 0123     		moveq	r3, #1
 1630 0022 DBB2     		uxtb	r3, r3
 1631 0024 0120     		movs	r0, #1
 1632 0026 1946     		mov	r1, r3
 1633 0028 FFF7FEFF 		bl	_test_assert
 1634 002c 0346     		mov	r3, r0
 1635 002e 002B     		cmp	r3, #0
 1636 0030 00D0     		beq	.L24
 1637              		.loc 8 130 0 is_stmt 0 discriminator 1
 1638 0032 D7E0     		b	.L23
 1639              	.L24:
 1640              		.loc 8 132 0 is_stmt 1
 1641 0034 FFF7FEFF 		bl	chThdGetPriorityX
 1642 0038 0246     		mov	r2, r0
 1643 003a 019B     		ldr	r3, [sp, #4]
 1644 003c 0133     		adds	r3, r3, #1
 1645 003e 9A42     		cmp	r2, r3
 1646 0040 14BF     		ite	ne
 1647 0042 0023     		movne	r3, #0
 1648 0044 0123     		moveq	r3, #1
 1649 0046 DBB2     		uxtb	r3, r3
 1650 0048 0220     		movs	r0, #2
 1651 004a 1946     		mov	r1, r3
 1652 004c FFF7FEFF 		bl	_test_assert
 1653 0050 0346     		mov	r3, r0
ARM GAS  /tmp/ccZLWL0x.s 			page 87


 1654 0052 002B     		cmp	r3, #0
 1655 0054 00D0     		beq	.L26
 1656              		.loc 8 132 0 is_stmt 0 discriminator 1
 1657 0056 C5E0     		b	.L23
 1658              	.L26:
 1659              		.loc 8 134 0 is_stmt 1
 1660 0058 0098     		ldr	r0, [sp]
 1661 005a FFF7FEFF 		bl	chThdSetPriority
 1662 005e 0090     		str	r0, [sp]
 1663              		.loc 8 135 0
 1664 0060 019B     		ldr	r3, [sp, #4]
 1665 0062 5A1C     		adds	r2, r3, #1
 1666 0064 009B     		ldr	r3, [sp]
 1667 0066 9A42     		cmp	r2, r3
 1668 0068 14BF     		ite	ne
 1669 006a 0023     		movne	r3, #0
 1670 006c 0123     		moveq	r3, #1
 1671 006e DBB2     		uxtb	r3, r3
 1672 0070 0320     		movs	r0, #3
 1673 0072 1946     		mov	r1, r3
 1674 0074 FFF7FEFF 		bl	_test_assert
 1675 0078 0346     		mov	r3, r0
 1676 007a 002B     		cmp	r3, #0
 1677 007c 00D0     		beq	.L27
 1678              		.loc 8 135 0 is_stmt 0 discriminator 1
 1679 007e B1E0     		b	.L23
 1680              	.L27:
 1681              		.loc 8 137 0 is_stmt 1
 1682 0080 FFF7FEFF 		bl	chThdGetPriorityX
 1683 0084 0246     		mov	r2, r0
 1684 0086 019B     		ldr	r3, [sp, #4]
 1685 0088 9A42     		cmp	r2, r3
 1686 008a 14BF     		ite	ne
 1687 008c 0023     		movne	r3, #0
 1688 008e 0123     		moveq	r3, #1
 1689 0090 DBB2     		uxtb	r3, r3
 1690 0092 0420     		movs	r0, #4
 1691 0094 1946     		mov	r1, r3
 1692 0096 FFF7FEFF 		bl	_test_assert
 1693 009a 0346     		mov	r3, r0
 1694 009c 002B     		cmp	r3, #0
 1695 009e 00D0     		beq	.L28
 1696              		.loc 8 137 0 is_stmt 0 discriminator 1
 1697 00a0 A0E0     		b	.L23
 1698              	.L28:
 1699              		.loc 8 142 0 is_stmt 1
 1700 00a2 FFF7FEFF 		bl	chSysLock
 1701              		.loc 8 143 0
 1702 00a6 FFF7FEFF 		bl	chThdGetSelfX
 1703 00aa 0346     		mov	r3, r0
 1704 00ac 9A68     		ldr	r2, [r3, #8]
 1705 00ae 0232     		adds	r2, r2, #2
 1706 00b0 9A60     		str	r2, [r3, #8]
 1707              		.loc 8 144 0
 1708 00b2 FFF7FEFF 		bl	chSysUnlock
 1709              		.loc 8 145 0
 1710 00b6 FFF7FEFF 		bl	chThdGetPriorityX
ARM GAS  /tmp/ccZLWL0x.s 			page 88


 1711 00ba 0246     		mov	r2, r0
 1712 00bc 019B     		ldr	r3, [sp, #4]
 1713 00be 0233     		adds	r3, r3, #2
 1714 00c0 9A42     		cmp	r2, r3
 1715 00c2 14BF     		ite	ne
 1716 00c4 0023     		movne	r3, #0
 1717 00c6 0123     		moveq	r3, #1
 1718 00c8 DBB2     		uxtb	r3, r3
 1719 00ca 0520     		movs	r0, #5
 1720 00cc 1946     		mov	r1, r3
 1721 00ce FFF7FEFF 		bl	_test_assert
 1722 00d2 0346     		mov	r3, r0
 1723 00d4 002B     		cmp	r3, #0
 1724 00d6 00D0     		beq	.L29
 1725              		.loc 8 145 0 is_stmt 0 discriminator 1
 1726 00d8 84E0     		b	.L23
 1727              	.L29:
 1728              		.loc 8 149 0 is_stmt 1
 1729 00da 019B     		ldr	r3, [sp, #4]
 1730 00dc 0133     		adds	r3, r3, #1
 1731 00de 1846     		mov	r0, r3
 1732 00e0 FFF7FEFF 		bl	chThdSetPriority
 1733 00e4 0090     		str	r0, [sp]
 1734              		.loc 8 150 0
 1735 00e6 009A     		ldr	r2, [sp]
 1736 00e8 019B     		ldr	r3, [sp, #4]
 1737 00ea 9A42     		cmp	r2, r3
 1738 00ec 14BF     		ite	ne
 1739 00ee 0023     		movne	r3, #0
 1740 00f0 0123     		moveq	r3, #1
 1741 00f2 DBB2     		uxtb	r3, r3
 1742 00f4 0620     		movs	r0, #6
 1743 00f6 1946     		mov	r1, r3
 1744 00f8 FFF7FEFF 		bl	_test_assert
 1745 00fc 0346     		mov	r3, r0
 1746 00fe 002B     		cmp	r3, #0
 1747 0100 00D0     		beq	.L30
 1748              		.loc 8 150 0 is_stmt 0 discriminator 1
 1749 0102 6FE0     		b	.L23
 1750              	.L30:
 1751              		.loc 8 152 0 is_stmt 1
 1752 0104 FFF7FEFF 		bl	chThdGetSelfX
 1753 0108 0346     		mov	r3, r0
 1754 010a 9A68     		ldr	r2, [r3, #8]
 1755 010c 019B     		ldr	r3, [sp, #4]
 1756 010e 0233     		adds	r3, r3, #2
 1757 0110 9A42     		cmp	r2, r3
 1758 0112 14BF     		ite	ne
 1759 0114 0023     		movne	r3, #0
 1760 0116 0123     		moveq	r3, #1
 1761 0118 DBB2     		uxtb	r3, r3
 1762 011a 0720     		movs	r0, #7
 1763 011c 1946     		mov	r1, r3
 1764 011e FFF7FEFF 		bl	_test_assert
 1765 0122 0346     		mov	r3, r0
 1766 0124 002B     		cmp	r3, #0
 1767 0126 00D0     		beq	.L31
ARM GAS  /tmp/ccZLWL0x.s 			page 89


 1768              		.loc 8 152 0 is_stmt 0 discriminator 1
 1769 0128 5CE0     		b	.L23
 1770              	.L31:
 1771              		.loc 8 154 0 is_stmt 1
 1772 012a FFF7FEFF 		bl	chThdGetSelfX
 1773 012e 0346     		mov	r3, r0
 1774 0130 1A6C     		ldr	r2, [r3, #64]
 1775 0132 019B     		ldr	r3, [sp, #4]
 1776 0134 0133     		adds	r3, r3, #1
 1777 0136 9A42     		cmp	r2, r3
 1778 0138 14BF     		ite	ne
 1779 013a 0023     		movne	r3, #0
 1780 013c 0123     		moveq	r3, #1
 1781 013e DBB2     		uxtb	r3, r3
 1782 0140 0820     		movs	r0, #8
 1783 0142 1946     		mov	r1, r3
 1784 0144 FFF7FEFF 		bl	_test_assert
 1785 0148 0346     		mov	r3, r0
 1786 014a 002B     		cmp	r3, #0
 1787 014c 00D0     		beq	.L32
 1788              		.loc 8 154 0 is_stmt 0 discriminator 1
 1789 014e 49E0     		b	.L23
 1790              	.L32:
 1791              		.loc 8 158 0 is_stmt 1
 1792 0150 019B     		ldr	r3, [sp, #4]
 1793 0152 0333     		adds	r3, r3, #3
 1794 0154 1846     		mov	r0, r3
 1795 0156 FFF7FEFF 		bl	chThdSetPriority
 1796 015a 0090     		str	r0, [sp]
 1797              		.loc 8 159 0
 1798 015c 019B     		ldr	r3, [sp, #4]
 1799 015e 5A1C     		adds	r2, r3, #1
 1800 0160 009B     		ldr	r3, [sp]
 1801 0162 9A42     		cmp	r2, r3
 1802 0164 14BF     		ite	ne
 1803 0166 0023     		movne	r3, #0
 1804 0168 0123     		moveq	r3, #1
 1805 016a DBB2     		uxtb	r3, r3
 1806 016c 0920     		movs	r0, #9
 1807 016e 1946     		mov	r1, r3
 1808 0170 FFF7FEFF 		bl	_test_assert
 1809 0174 0346     		mov	r3, r0
 1810 0176 002B     		cmp	r3, #0
 1811 0178 00D0     		beq	.L33
 1812              		.loc 8 159 0 is_stmt 0 discriminator 1
 1813 017a 33E0     		b	.L23
 1814              	.L33:
 1815              		.loc 8 161 0 is_stmt 1
 1816 017c FFF7FEFF 		bl	chThdGetSelfX
 1817 0180 0346     		mov	r3, r0
 1818 0182 9A68     		ldr	r2, [r3, #8]
 1819 0184 019B     		ldr	r3, [sp, #4]
 1820 0186 0333     		adds	r3, r3, #3
 1821 0188 9A42     		cmp	r2, r3
 1822 018a 14BF     		ite	ne
 1823 018c 0023     		movne	r3, #0
 1824 018e 0123     		moveq	r3, #1
ARM GAS  /tmp/ccZLWL0x.s 			page 90


 1825 0190 DBB2     		uxtb	r3, r3
 1826 0192 0A20     		movs	r0, #10
 1827 0194 1946     		mov	r1, r3
 1828 0196 FFF7FEFF 		bl	_test_assert
 1829 019a 0346     		mov	r3, r0
 1830 019c 002B     		cmp	r3, #0
 1831 019e 00D0     		beq	.L34
 1832              		.loc 8 161 0 is_stmt 0 discriminator 1
 1833 01a0 20E0     		b	.L23
 1834              	.L34:
 1835              		.loc 8 163 0 is_stmt 1
 1836 01a2 FFF7FEFF 		bl	chThdGetSelfX
 1837 01a6 0346     		mov	r3, r0
 1838 01a8 1A6C     		ldr	r2, [r3, #64]
 1839 01aa 019B     		ldr	r3, [sp, #4]
 1840 01ac 0333     		adds	r3, r3, #3
 1841 01ae 9A42     		cmp	r2, r3
 1842 01b0 14BF     		ite	ne
 1843 01b2 0023     		movne	r3, #0
 1844 01b4 0123     		moveq	r3, #1
 1845 01b6 DBB2     		uxtb	r3, r3
 1846 01b8 0B20     		movs	r0, #11
 1847 01ba 1946     		mov	r1, r3
 1848 01bc FFF7FEFF 		bl	_test_assert
 1849 01c0 0346     		mov	r3, r0
 1850 01c2 002B     		cmp	r3, #0
 1851 01c4 00D0     		beq	.L35
 1852              		.loc 8 163 0 is_stmt 0 discriminator 1
 1853 01c6 0DE0     		b	.L23
 1854              	.L35:
 1855              		.loc 8 166 0 is_stmt 1
 1856 01c8 FFF7FEFF 		bl	chSysLock
 1857              		.loc 8 167 0
 1858 01cc FFF7FEFF 		bl	chThdGetSelfX
 1859 01d0 0346     		mov	r3, r0
 1860 01d2 019A     		ldr	r2, [sp, #4]
 1861 01d4 9A60     		str	r2, [r3, #8]
 1862              		.loc 8 168 0
 1863 01d6 FFF7FEFF 		bl	chThdGetSelfX
 1864 01da 0346     		mov	r3, r0
 1865 01dc 019A     		ldr	r2, [sp, #4]
 1866 01de 1A64     		str	r2, [r3, #64]
 1867              		.loc 8 169 0
 1868 01e0 FFF7FEFF 		bl	chSysUnlock
 1869              	.L23:
 1870              		.loc 8 171 0
 1871 01e4 03B0     		add	sp, sp, #12
 1872              		@ sp needed
 1873 01e6 5DF804FB 		ldr	pc, [sp], #4
 1874              		.cfi_endproc
 1875              	.LFE244:
 1876              		.size	thd3_execute, .-thd3_execute
 1877              		.global	testthd3
 1878 01ea 00BFAFF3 		.section	.rodata
 1878      0080
 1879 0053 00       		.align	2
 1880              	.LC8:
ARM GAS  /tmp/ccZLWL0x.s 			page 91


 1881 0054 54687265 		.ascii	"Threads, priority change\000"
 1881      6164732C 
 1881      20707269 
 1881      6F726974 
 1881      79206368 
 1882              		.section	.rodata.testthd3,"a",%progbits
 1883              		.align	2
 1884              		.type	testthd3, %object
 1885              		.size	testthd3, 16
 1886              	testthd3:
 1887 0000 54000000 		.word	.LC8
 1888 0004 00000000 		.word	0
 1889 0008 00000000 		.word	0
 1890 000c 00000000 		.word	thd3_execute
 1891              		.section	.text.thd4_execute,"ax",%progbits
 1892              		.align	2
 1893              		.p2align 4,,15
 1894              		.thumb
 1895              		.thumb_func
 1896              		.type	thd4_execute, %function
 1897              	thd4_execute:
 1898              	.LFB245:
 1899              		.loc 8 188 0
 1900              		.cfi_startproc
 1901              		@ args = 0, pretend = 0, frame = 8
 1902              		@ frame_needed = 0, uses_anonymous_args = 0
 1903 0000 00B5     		push	{lr}
 1904              		.cfi_def_cfa_offset 4
 1905              		.cfi_offset 14, -4
 1906 0002 83B0     		sub	sp, sp, #12
 1907              		.cfi_def_cfa_offset 16
 1908              		.loc 8 191 0
 1909 0004 FFF7FEFF 		bl	test_wait_tick
 1910              		.loc 8 194 0
 1911 0008 FFF7FEFF 		bl	chVTGetSystemTime
 1912 000c 0190     		str	r0, [sp, #4]
 1913              		.loc 8 195 0
 1914 000e 4FF47A70 		mov	r0, #1000
 1915 0012 FFF7FEFF 		bl	chThdSleep
 1916              		.loc 8 196 0
 1917 0016 019B     		ldr	r3, [sp, #4]
 1918 0018 03F57A72 		add	r2, r3, #1000
 1919 001c 019B     		ldr	r3, [sp, #4]
 1920 001e 03F2EB33 		addw	r3, r3, #1003
 1921 0022 0120     		movs	r0, #1
 1922 0024 1146     		mov	r1, r2
 1923 0026 1A46     		mov	r2, r3
 1924 0028 FFF7FEFF 		bl	_test_assert_time_window
 1925 002c 0346     		mov	r3, r0
 1926 002e 002B     		cmp	r3, #0
 1927 0030 00D0     		beq	.L37
 1928              		.loc 8 196 0 is_stmt 0 discriminator 1
 1929 0032 41E0     		b	.L36
 1930              	.L37:
 1931              		.loc 8 201 0 is_stmt 1
 1932 0034 FFF7FEFF 		bl	chVTGetSystemTime
 1933 0038 0190     		str	r0, [sp, #4]
ARM GAS  /tmp/ccZLWL0x.s 			page 92


 1934              		.loc 8 202 0
 1935 003a 4FF47A70 		mov	r0, #1000
 1936 003e FFF7FEFF 		bl	chThdSleep
 1937              		.loc 8 203 0
 1938 0042 019B     		ldr	r3, [sp, #4]
 1939 0044 03F57A72 		add	r2, r3, #1000
 1940 0048 019B     		ldr	r3, [sp, #4]
 1941 004a 03F2EB33 		addw	r3, r3, #1003
 1942 004e 0220     		movs	r0, #2
 1943 0050 1146     		mov	r1, r2
 1944 0052 1A46     		mov	r2, r3
 1945 0054 FFF7FEFF 		bl	_test_assert_time_window
 1946 0058 0346     		mov	r3, r0
 1947 005a 002B     		cmp	r3, #0
 1948 005c 00D0     		beq	.L39
 1949              		.loc 8 203 0 is_stmt 0 discriminator 1
 1950 005e 2BE0     		b	.L36
 1951              	.L39:
 1952              		.loc 8 208 0 is_stmt 1
 1953 0060 FFF7FEFF 		bl	chVTGetSystemTime
 1954 0064 0190     		str	r0, [sp, #4]
 1955              		.loc 8 209 0
 1956 0066 42F21070 		movw	r0, #10000
 1957 006a FFF7FEFF 		bl	chThdSleep
 1958              		.loc 8 210 0
 1959 006e 019B     		ldr	r3, [sp, #4]
 1960 0070 03F51C52 		add	r2, r3, #9984
 1961 0074 1032     		adds	r2, r2, #16
 1962 0076 019B     		ldr	r3, [sp, #4]
 1963 0078 03F51C53 		add	r3, r3, #9984
 1964 007c 1333     		adds	r3, r3, #19
 1965 007e 0320     		movs	r0, #3
 1966 0080 1146     		mov	r1, r2
 1967 0082 1A46     		mov	r2, r3
 1968 0084 FFF7FEFF 		bl	_test_assert_time_window
 1969 0088 0346     		mov	r3, r0
 1970 008a 002B     		cmp	r3, #0
 1971 008c 00D0     		beq	.L40
 1972              		.loc 8 210 0 is_stmt 0 discriminator 1
 1973 008e 13E0     		b	.L36
 1974              	.L40:
 1975              		.loc 8 215 0 is_stmt 1
 1976 0090 FFF7FEFF 		bl	chVTGetSystemTime
 1977 0094 0346     		mov	r3, r0
 1978 0096 03F57A73 		add	r3, r3, #1000
 1979 009a 0193     		str	r3, [sp, #4]
 1980              		.loc 8 216 0
 1981 009c 0198     		ldr	r0, [sp, #4]
 1982 009e FFF7FEFF 		bl	chThdSleepUntil
 1983              		.loc 8 217 0
 1984 00a2 019B     		ldr	r3, [sp, #4]
 1985 00a4 0333     		adds	r3, r3, #3
 1986 00a6 0420     		movs	r0, #4
 1987 00a8 0199     		ldr	r1, [sp, #4]
 1988 00aa 1A46     		mov	r2, r3
 1989 00ac FFF7FEFF 		bl	_test_assert_time_window
 1990 00b0 0346     		mov	r3, r0
ARM GAS  /tmp/ccZLWL0x.s 			page 93


 1991 00b2 002B     		cmp	r3, #0
 1992 00b4 00D0     		beq	.L36
 1993              		.loc 8 217 0 is_stmt 0 discriminator 1
 1994 00b6 00BF     		nop
 1995              	.L36:
 1996              		.loc 8 220 0 is_stmt 1
 1997 00b8 03B0     		add	sp, sp, #12
 1998              		@ sp needed
 1999 00ba 5DF804FB 		ldr	pc, [sp], #4
 2000              		.cfi_endproc
 2001              	.LFE245:
 2002              		.size	thd4_execute, .-thd4_execute
 2003              		.global	testthd4
 2004 00be 00BF     		.section	.rodata
 2005 006d 000000   		.align	2
 2006              	.LC9:
 2007 0070 54687265 		.ascii	"Threads, delays\000"
 2007      6164732C 
 2007      2064656C 
 2007      61797300 
 2008              		.section	.rodata.testthd4,"a",%progbits
 2009              		.align	2
 2010              		.type	testthd4, %object
 2011              		.size	testthd4, 16
 2012              	testthd4:
 2013 0000 70000000 		.word	.LC9
 2014 0004 00000000 		.word	0
 2015 0008 00000000 		.word	0
 2016 000c 00000000 		.word	thd4_execute
 2017              		.global	patternthd
 2018              		.section	.rodata.patternthd,"a",%progbits
 2019              		.align	2
 2020              		.type	patternthd, %object
 2021              		.size	patternthd, 20
 2022              	patternthd:
 2023 0000 00000000 		.word	testthd1
 2024 0004 00000000 		.word	testthd2
 2025 0008 00000000 		.word	testthd3
 2026 000c 00000000 		.word	testthd4
 2027 0010 00000000 		.word	0
 2028              		.section	.rodata.__func__.5915,"a",%progbits
 2029              		.align	2
 2030              		.type	__func__.5915, %object
 2031              		.size	__func__.5915, 12
 2032              	__func__.5915:
 2033 0000 63685379 		.ascii	"chSysUnlock\000"
 2033      73556E6C 
 2033      6F636B00 
 2034              		.text
 2035              	.Letext0:
 2036              		.file 9 "/usr/lib/gcc/arm-none-eabi/4.8.2/include/stddef.h"
 2037              		.file 10 "/usr/include/newlib/machine/_default_types.h"
 2038              		.file 11 "/usr/include/newlib/stdint.h"
 2039              		.file 12 "../../../../os/rt/ports/ARMCMx/compilers/GCC/chtypes.h"
 2040              		.file 13 "../../../../os/rt/include/chsystypes.h"
 2041              		.file 14 "../../../../os/rt/include/chschd.h"
 2042              		.file 15 "../../../../os/rt/ports/ARMCMx/chcore.h"
ARM GAS  /tmp/ccZLWL0x.s 			page 94


 2043              		.file 16 "../../../../os/hal/ports/STM32/LLD/TIMv1/stm32_tim.h"
 2044              		.file 17 "../../../../os/rt/include/chdebug.h"
 2045              		.file 18 "../../../../os/rt/include/chtm.h"
 2046              		.file 19 "../../../../os/rt/include/chstats.h"
 2047              		.file 20 "../../../../os/rt/include/chsem.h"
 2048              		.file 21 "../../../../os/rt/include/chmtx.h"
 2049              		.file 22 "../../../../test/rt/test.h"
 2050              		.file 23 "../../../../os/ext/CMSIS/include/core_cm4.h"
 2051              		.section	.debug_info,"",%progbits
 2052              	.Ldebug_info0:
 2053 0000 F30B0000 		.4byte	0xbf3
 2054 0004 0400     		.2byte	0x4
 2055 0006 00000000 		.4byte	.Ldebug_abbrev0
 2056 000a 04       		.byte	0x4
 2057 000b 01       		.uleb128 0x1
 2058 000c 1A030000 		.4byte	.LASF168
 2059 0010 01       		.byte	0x1
 2060 0011 5E070000 		.4byte	.LASF169
 2061 0015 C3020000 		.4byte	.LASF170
 2062 0019 00000000 		.4byte	.Ldebug_ranges0+0
 2063 001d 00000000 		.4byte	0
 2064 0021 00000000 		.4byte	.Ldebug_line0
 2065 0025 02       		.uleb128 0x2
 2066 0026 04       		.byte	0x4
 2067 0027 05       		.byte	0x5
 2068 0028 696E7400 		.ascii	"int\000"
 2069 002c 03       		.uleb128 0x3
 2070 002d 19000000 		.4byte	.LASF2
 2071 0031 09       		.byte	0x9
 2072 0032 D4       		.byte	0xd4
 2073 0033 37000000 		.4byte	0x37
 2074 0037 04       		.uleb128 0x4
 2075 0038 04       		.byte	0x4
 2076 0039 07       		.byte	0x7
 2077 003a 4C020000 		.4byte	.LASF0
 2078 003e 04       		.uleb128 0x4
 2079 003f 01       		.byte	0x1
 2080 0040 06       		.byte	0x6
 2081 0041 26010000 		.4byte	.LASF1
 2082 0045 03       		.uleb128 0x3
 2083 0046 3D000000 		.4byte	.LASF3
 2084 004a 0A       		.byte	0xa
 2085 004b 1C       		.byte	0x1c
 2086 004c 50000000 		.4byte	0x50
 2087 0050 04       		.uleb128 0x4
 2088 0051 01       		.byte	0x1
 2089 0052 08       		.byte	0x8
 2090 0053 40050000 		.4byte	.LASF4
 2091 0057 04       		.uleb128 0x4
 2092 0058 02       		.byte	0x2
 2093 0059 05       		.byte	0x5
 2094 005a 60050000 		.4byte	.LASF5
 2095 005e 04       		.uleb128 0x4
 2096 005f 02       		.byte	0x2
 2097 0060 07       		.byte	0x7
 2098 0061 A9010000 		.4byte	.LASF6
 2099 0065 03       		.uleb128 0x3
ARM GAS  /tmp/ccZLWL0x.s 			page 95


 2100 0066 F6030000 		.4byte	.LASF7
 2101 006a 0A       		.byte	0xa
 2102 006b 37       		.byte	0x37
 2103 006c 70000000 		.4byte	0x70
 2104 0070 04       		.uleb128 0x4
 2105 0071 04       		.byte	0x4
 2106 0072 05       		.byte	0x5
 2107 0073 65010000 		.4byte	.LASF8
 2108 0077 03       		.uleb128 0x3
 2109 0078 95060000 		.4byte	.LASF9
 2110 007c 0A       		.byte	0xa
 2111 007d 38       		.byte	0x38
 2112 007e 82000000 		.4byte	0x82
 2113 0082 04       		.uleb128 0x4
 2114 0083 04       		.byte	0x4
 2115 0084 07       		.byte	0x7
 2116 0085 24060000 		.4byte	.LASF10
 2117 0089 04       		.uleb128 0x4
 2118 008a 08       		.byte	0x8
 2119 008b 05       		.byte	0x5
 2120 008c 82010000 		.4byte	.LASF11
 2121 0090 03       		.uleb128 0x3
 2122 0091 C6040000 		.4byte	.LASF12
 2123 0095 0A       		.byte	0xa
 2124 0096 4E       		.byte	0x4e
 2125 0097 9B000000 		.4byte	0x9b
 2126 009b 04       		.uleb128 0x4
 2127 009c 08       		.byte	0x8
 2128 009d 07       		.byte	0x7
 2129 009e 96000000 		.4byte	.LASF13
 2130 00a2 03       		.uleb128 0x3
 2131 00a3 26070000 		.4byte	.LASF14
 2132 00a7 0B       		.byte	0xb
 2133 00a8 2A       		.byte	0x2a
 2134 00a9 45000000 		.4byte	0x45
 2135 00ad 03       		.uleb128 0x3
 2136 00ae 38050000 		.4byte	.LASF15
 2137 00b2 0B       		.byte	0xb
 2138 00b3 41       		.byte	0x41
 2139 00b4 65000000 		.4byte	0x65
 2140 00b8 03       		.uleb128 0x3
 2141 00b9 F3050000 		.4byte	.LASF16
 2142 00bd 0B       		.byte	0xb
 2143 00be 42       		.byte	0x42
 2144 00bf 77000000 		.4byte	0x77
 2145 00c3 03       		.uleb128 0x3
 2146 00c4 27000000 		.4byte	.LASF17
 2147 00c8 0B       		.byte	0xb
 2148 00c9 4E       		.byte	0x4e
 2149 00ca 90000000 		.4byte	0x90
 2150 00ce 03       		.uleb128 0x3
 2151 00cf DB060000 		.4byte	.LASF18
 2152 00d3 0C       		.byte	0xc
 2153 00d4 39       		.byte	0x39
 2154 00d5 B8000000 		.4byte	0xb8
 2155 00d9 03       		.uleb128 0x3
 2156 00da 04010000 		.4byte	.LASF19
ARM GAS  /tmp/ccZLWL0x.s 			page 96


 2157 00de 0C       		.byte	0xc
 2158 00df 3A       		.byte	0x3a
 2159 00e0 C3000000 		.4byte	0xc3
 2160 00e4 03       		.uleb128 0x3
 2161 00e5 7C070000 		.4byte	.LASF20
 2162 00e9 0C       		.byte	0xc
 2163 00ea 3C       		.byte	0x3c
 2164 00eb A2000000 		.4byte	0xa2
 2165 00ef 03       		.uleb128 0x3
 2166 00f0 6E010000 		.4byte	.LASF21
 2167 00f4 0C       		.byte	0xc
 2168 00f5 3D       		.byte	0x3d
 2169 00f6 A2000000 		.4byte	0xa2
 2170 00fa 03       		.uleb128 0x3
 2171 00fb EA040000 		.4byte	.LASF22
 2172 00ff 0C       		.byte	0xc
 2173 0100 3E       		.byte	0x3e
 2174 0101 A2000000 		.4byte	0xa2
 2175 0105 03       		.uleb128 0x3
 2176 0106 20050000 		.4byte	.LASF23
 2177 010a 0C       		.byte	0xc
 2178 010b 40       		.byte	0x40
 2179 010c B8000000 		.4byte	0xb8
 2180 0110 03       		.uleb128 0x3
 2181 0111 B8020000 		.4byte	.LASF24
 2182 0115 0C       		.byte	0xc
 2183 0116 41       		.byte	0x41
 2184 0117 AD000000 		.4byte	0xad
 2185 011b 03       		.uleb128 0x3
 2186 011c EA030000 		.4byte	.LASF25
 2187 0120 0C       		.byte	0xc
 2188 0121 43       		.byte	0x43
 2189 0122 B8000000 		.4byte	0xb8
 2190 0126 03       		.uleb128 0x3
 2191 0127 28020000 		.4byte	.LASF26
 2192 012b 0C       		.byte	0xc
 2193 012c 45       		.byte	0x45
 2194 012d AD000000 		.4byte	0xad
 2195 0131 03       		.uleb128 0x3
 2196 0132 07030000 		.4byte	.LASF27
 2197 0136 0C       		.byte	0xc
 2198 0137 46       		.byte	0x46
 2199 0138 B8000000 		.4byte	0xb8
 2200 013c 03       		.uleb128 0x3
 2201 013d 77060000 		.4byte	.LASF28
 2202 0141 0D       		.byte	0xd
 2203 0142 33       		.byte	0x33
 2204 0143 B8000000 		.4byte	0xb8
 2205 0147 03       		.uleb128 0x3
 2206 0148 62060000 		.4byte	.LASF29
 2207 014c 0D       		.byte	0xd
 2208 014d 3F       		.byte	0x3f
 2209 014e 52010000 		.4byte	0x152
 2210 0152 05       		.uleb128 0x5
 2211 0153 AE020000 		.4byte	.LASF51
 2212 0157 60       		.byte	0x60
 2213 0158 0E       		.byte	0xe
ARM GAS  /tmp/ccZLWL0x.s 			page 97


 2214 0159 C2       		.byte	0xc2
 2215 015a 58020000 		.4byte	0x258
 2216 015e 06       		.uleb128 0x6
 2217 015f 88050000 		.4byte	.LASF30
 2218 0163 0E       		.byte	0xe
 2219 0164 C3       		.byte	0xc3
 2220 0165 63020000 		.4byte	0x263
 2221 0169 00       		.byte	0
 2222 016a 06       		.uleb128 0x6
 2223 016b 19050000 		.4byte	.LASF31
 2224 016f 0E       		.byte	0xe
 2225 0170 C5       		.byte	0xc5
 2226 0171 63020000 		.4byte	0x263
 2227 0175 04       		.byte	0x4
 2228 0176 06       		.uleb128 0x6
 2229 0177 0D010000 		.4byte	.LASF32
 2230 017b 0E       		.byte	0xe
 2231 017c C7       		.byte	0xc7
 2232 017d 05010000 		.4byte	0x105
 2233 0181 08       		.byte	0x8
 2234 0182 06       		.uleb128 0x6
 2235 0183 C0070000 		.4byte	.LASF33
 2236 0187 0E       		.byte	0xe
 2237 0188 C8       		.byte	0xc8
 2238 0189 F1040000 		.4byte	0x4f1
 2239 018d 0C       		.byte	0xc
 2240 018e 06       		.uleb128 0x6
 2241 018f 99010000 		.4byte	.LASF34
 2242 0193 0E       		.byte	0xe
 2243 0194 CA       		.byte	0xca
 2244 0195 63020000 		.4byte	0x263
 2245 0199 10       		.byte	0x10
 2246 019a 06       		.uleb128 0x6
 2247 019b 7C040000 		.4byte	.LASF35
 2248 019f 0E       		.byte	0xe
 2249 01a0 CB       		.byte	0xcb
 2250 01a1 63020000 		.4byte	0x263
 2251 01a5 14       		.byte	0x14
 2252 01a6 06       		.uleb128 0x6
 2253 01a7 48070000 		.4byte	.LASF36
 2254 01ab 0E       		.byte	0xe
 2255 01ac D2       		.byte	0xd2
 2256 01ad B7080000 		.4byte	0x8b7
 2257 01b1 18       		.byte	0x18
 2258 01b2 06       		.uleb128 0x6
 2259 01b3 41020000 		.4byte	.LASF37
 2260 01b7 0E       		.byte	0xe
 2261 01b8 D8       		.byte	0xd8
 2262 01b9 C9080000 		.4byte	0x8c9
 2263 01bd 1C       		.byte	0x1c
 2264 01be 06       		.uleb128 0x6
 2265 01bf 6A050000 		.4byte	.LASF38
 2266 01c3 0E       		.byte	0xe
 2267 01c4 DD       		.byte	0xdd
 2268 01c5 EF000000 		.4byte	0xef
 2269 01c9 20       		.byte	0x20
 2270 01ca 06       		.uleb128 0x6
ARM GAS  /tmp/ccZLWL0x.s 			page 98


 2271 01cb 8F050000 		.4byte	.LASF39
 2272 01cf 0E       		.byte	0xe
 2273 01d0 E1       		.byte	0xe1
 2274 01d1 E4000000 		.4byte	0xe4
 2275 01d5 21       		.byte	0x21
 2276 01d6 06       		.uleb128 0x6
 2277 01d7 03070000 		.4byte	.LASF40
 2278 01db 0E       		.byte	0xe
 2279 01dc E6       		.byte	0xe6
 2280 01dd FA000000 		.4byte	0xfa
 2281 01e1 22       		.byte	0x22
 2282 01e2 07       		.uleb128 0x7
 2283 01e3 705F7500 		.ascii	"p_u\000"
 2284 01e7 0E       		.byte	0xe
 2285 01e8 3101     		.2byte	0x131
 2286 01ea F2070000 		.4byte	0x7f2
 2287 01ee 24       		.byte	0x24
 2288 01ef 08       		.uleb128 0x8
 2289 01f0 1C040000 		.4byte	.LASF41
 2290 01f4 0E       		.byte	0xe
 2291 01f5 3601     		.2byte	0x136
 2292 01f7 69020000 		.4byte	0x269
 2293 01fb 28       		.byte	0x28
 2294 01fc 08       		.uleb128 0x8
 2295 01fd 75020000 		.4byte	.LASF42
 2296 0201 0E       		.byte	0xe
 2297 0202 3C01     		.2byte	0x13c
 2298 0204 8D020000 		.4byte	0x28d
 2299 0208 2C       		.byte	0x2c
 2300 0209 08       		.uleb128 0x8
 2301 020a 9D070000 		.4byte	.LASF43
 2302 020e 0E       		.byte	0xe
 2303 020f 4001     		.2byte	0x140
 2304 0211 10010000 		.4byte	0x110
 2305 0215 34       		.byte	0x34
 2306 0216 08       		.uleb128 0x8
 2307 0217 D5050000 		.4byte	.LASF44
 2308 021b 0E       		.byte	0xe
 2309 021c 4601     		.2byte	0x146
 2310 021e 1B010000 		.4byte	0x11b
 2311 0222 38       		.byte	0x38
 2312 0223 08       		.uleb128 0x8
 2313 0224 56050000 		.4byte	.LASF45
 2314 0228 0E       		.byte	0xe
 2315 0229 4D01     		.2byte	0x14d
 2316 022b B1080000 		.4byte	0x8b1
 2317 022f 3C       		.byte	0x3c
 2318 0230 08       		.uleb128 0x8
 2319 0231 81060000 		.4byte	.LASF46
 2320 0235 0E       		.byte	0xe
 2321 0236 5101     		.2byte	0x151
 2322 0238 05010000 		.4byte	0x105
 2323 023c 40       		.byte	0x40
 2324 023d 08       		.uleb128 0x8
 2325 023e CC010000 		.4byte	.LASF47
 2326 0242 0E       		.byte	0xe
 2327 0243 5801     		.2byte	0x158
ARM GAS  /tmp/ccZLWL0x.s 			page 99


 2328 0245 40030000 		.4byte	0x340
 2329 0249 44       		.byte	0x44
 2330 024a 08       		.uleb128 0x8
 2331 024b 97050000 		.4byte	.LASF48
 2332 024f 0E       		.byte	0xe
 2333 0250 5E01     		.2byte	0x15e
 2334 0252 A3070000 		.4byte	0x7a3
 2335 0256 48       		.byte	0x48
 2336 0257 00       		.byte	0
 2337 0258 03       		.uleb128 0x3
 2338 0259 2E070000 		.4byte	.LASF49
 2339 025d 0D       		.byte	0xd
 2340 025e 44       		.byte	0x44
 2341 025f 63020000 		.4byte	0x263
 2342 0263 09       		.uleb128 0x9
 2343 0264 04       		.byte	0x4
 2344 0265 47010000 		.4byte	0x147
 2345 0269 03       		.uleb128 0x3
 2346 026a 4F070000 		.4byte	.LASF50
 2347 026e 0D       		.byte	0xd
 2348 026f 49       		.byte	0x49
 2349 0270 74020000 		.4byte	0x274
 2350 0274 05       		.uleb128 0x5
 2351 0275 14060000 		.4byte	.LASF52
 2352 0279 04       		.byte	0x4
 2353 027a 0E       		.byte	0xe
 2354 027b B0       		.byte	0xb0
 2355 027c 8D020000 		.4byte	0x28d
 2356 0280 06       		.uleb128 0x6
 2357 0281 88050000 		.4byte	.LASF30
 2358 0285 0E       		.byte	0xe
 2359 0286 B1       		.byte	0xb1
 2360 0287 63020000 		.4byte	0x263
 2361 028b 00       		.byte	0
 2362 028c 00       		.byte	0
 2363 028d 03       		.uleb128 0x3
 2364 028e EA060000 		.4byte	.LASF53
 2365 0292 0D       		.byte	0xd
 2366 0293 50       		.byte	0x50
 2367 0294 98020000 		.4byte	0x298
 2368 0298 05       		.uleb128 0x5
 2369 0299 53000000 		.4byte	.LASF54
 2370 029d 08       		.byte	0x8
 2371 029e 0E       		.byte	0xe
 2372 029f B7       		.byte	0xb7
 2373 02a0 BD020000 		.4byte	0x2bd
 2374 02a4 06       		.uleb128 0x6
 2375 02a5 88050000 		.4byte	.LASF30
 2376 02a9 0E       		.byte	0xe
 2377 02aa B8       		.byte	0xb8
 2378 02ab 63020000 		.4byte	0x263
 2379 02af 00       		.byte	0
 2380 02b0 06       		.uleb128 0x6
 2381 02b1 19050000 		.4byte	.LASF31
 2382 02b5 0E       		.byte	0xe
 2383 02b6 B9       		.byte	0xb9
 2384 02b7 63020000 		.4byte	0x263
ARM GAS  /tmp/ccZLWL0x.s 			page 100


 2385 02bb 04       		.byte	0x4
 2386 02bc 00       		.byte	0
 2387 02bd 03       		.uleb128 0x3
 2388 02be 07000000 		.4byte	.LASF55
 2389 02c2 0D       		.byte	0xd
 2390 02c3 57       		.byte	0x57
 2391 02c4 C8020000 		.4byte	0x2c8
 2392 02c8 0A       		.uleb128 0xa
 2393 02c9 DC030000 		.4byte	.LASF56
 2394 02cd 1C       		.byte	0x1c
 2395 02ce 0E       		.byte	0xe
 2396 02cf 9001     		.2byte	0x190
 2397 02d1 24030000 		.4byte	0x324
 2398 02d5 08       		.uleb128 0x8
 2399 02d6 03060000 		.4byte	.LASF57
 2400 02da 0E       		.byte	0xe
 2401 02db 9101     		.2byte	0x191
 2402 02dd 8D020000 		.4byte	0x28d
 2403 02e1 00       		.byte	0
 2404 02e2 08       		.uleb128 0x8
 2405 02e3 7A050000 		.4byte	.LASF58
 2406 02e7 0E       		.byte	0xe
 2407 02e8 9201     		.2byte	0x192
 2408 02ea 05010000 		.4byte	0x105
 2409 02ee 08       		.byte	0x8
 2410 02ef 08       		.uleb128 0x8
 2411 02f0 84040000 		.4byte	.LASF59
 2412 02f4 0E       		.byte	0xe
 2413 02f5 9401     		.2byte	0x194
 2414 02f7 F1040000 		.4byte	0x4f1
 2415 02fb 0C       		.byte	0xc
 2416 02fc 08       		.uleb128 0x8
 2417 02fd C4010000 		.4byte	.LASF60
 2418 0301 0E       		.byte	0xe
 2419 0302 9701     		.2byte	0x197
 2420 0304 63020000 		.4byte	0x263
 2421 0308 10       		.byte	0x10
 2422 0309 08       		.uleb128 0x8
 2423 030a BE040000 		.4byte	.LASF61
 2424 030e 0E       		.byte	0xe
 2425 030f 9801     		.2byte	0x198
 2426 0311 63020000 		.4byte	0x263
 2427 0315 14       		.byte	0x14
 2428 0316 08       		.uleb128 0x8
 2429 0317 36060000 		.4byte	.LASF62
 2430 031b 0E       		.byte	0xe
 2431 031c 9B01     		.2byte	0x19b
 2432 031e 63020000 		.4byte	0x263
 2433 0322 18       		.byte	0x18
 2434 0323 00       		.byte	0
 2435 0324 03       		.uleb128 0x3
 2436 0325 8C060000 		.4byte	.LASF63
 2437 0329 0D       		.byte	0xd
 2438 032a 5C       		.byte	0x5c
 2439 032b 2F030000 		.4byte	0x32f
 2440 032f 09       		.uleb128 0x9
 2441 0330 04       		.byte	0x4
ARM GAS  /tmp/ccZLWL0x.s 			page 101


 2442 0331 35030000 		.4byte	0x335
 2443 0335 0B       		.uleb128 0xb
 2444 0336 40030000 		.4byte	0x340
 2445 033a 0C       		.uleb128 0xc
 2446 033b 40030000 		.4byte	0x340
 2447 033f 00       		.byte	0
 2448 0340 0D       		.uleb128 0xd
 2449 0341 04       		.byte	0x4
 2450 0342 03       		.uleb128 0x3
 2451 0343 09050000 		.4byte	.LASF64
 2452 0347 0D       		.byte	0xd
 2453 0348 61       		.byte	0x61
 2454 0349 4D030000 		.4byte	0x34d
 2455 034d 0A       		.uleb128 0xa
 2456 034e A9050000 		.4byte	.LASF65
 2457 0352 14       		.byte	0x14
 2458 0353 0E       		.byte	0xe
 2459 0354 6B01     		.2byte	0x16b
 2460 0356 9C030000 		.4byte	0x39c
 2461 035a 08       		.uleb128 0x8
 2462 035b 66020000 		.4byte	.LASF66
 2463 035f 0E       		.byte	0xe
 2464 0360 6C01     		.2byte	0x16c
 2465 0362 CF080000 		.4byte	0x8cf
 2466 0366 00       		.byte	0
 2467 0367 08       		.uleb128 0x8
 2468 0368 DD010000 		.4byte	.LASF67
 2469 036c 0E       		.byte	0xe
 2470 036d 6D01     		.2byte	0x16d
 2471 036f CF080000 		.4byte	0x8cf
 2472 0373 04       		.byte	0x4
 2473 0374 08       		.uleb128 0x8
 2474 0375 0B060000 		.4byte	.LASF68
 2475 0379 0E       		.byte	0xe
 2476 037a 6E01     		.2byte	0x16e
 2477 037c 3C010000 		.4byte	0x13c
 2478 0380 08       		.byte	0x8
 2479 0381 08       		.uleb128 0x8
 2480 0382 C6070000 		.4byte	.LASF69
 2481 0386 0E       		.byte	0xe
 2482 0387 6F01     		.2byte	0x16f
 2483 0389 24030000 		.4byte	0x324
 2484 038d 0C       		.byte	0xc
 2485 038e 08       		.uleb128 0x8
 2486 038f E3060000 		.4byte	.LASF70
 2487 0393 0E       		.byte	0xe
 2488 0394 7101     		.2byte	0x171
 2489 0396 40030000 		.4byte	0x340
 2490 039a 10       		.byte	0x10
 2491 039b 00       		.byte	0
 2492 039c 03       		.uleb128 0x3
 2493 039d DC000000 		.4byte	.LASF71
 2494 03a1 0D       		.byte	0xd
 2495 03a2 66       		.byte	0x66
 2496 03a3 A7030000 		.4byte	0x3a7
 2497 03a7 0A       		.uleb128 0xa
 2498 03a8 41040000 		.4byte	.LASF72
ARM GAS  /tmp/ccZLWL0x.s 			page 102


 2499 03ac 10       		.byte	0x10
 2500 03ad 0E       		.byte	0xe
 2501 03ae 7B01     		.2byte	0x17b
 2502 03b0 E9030000 		.4byte	0x3e9
 2503 03b4 08       		.uleb128 0x8
 2504 03b5 66020000 		.4byte	.LASF66
 2505 03b9 0E       		.byte	0xe
 2506 03ba 7C01     		.2byte	0x17c
 2507 03bc CF080000 		.4byte	0x8cf
 2508 03c0 00       		.byte	0
 2509 03c1 08       		.uleb128 0x8
 2510 03c2 DD010000 		.4byte	.LASF67
 2511 03c6 0E       		.byte	0xe
 2512 03c7 7E01     		.2byte	0x17e
 2513 03c9 CF080000 		.4byte	0x8cf
 2514 03cd 04       		.byte	0x4
 2515 03ce 08       		.uleb128 0x8
 2516 03cf 0B060000 		.4byte	.LASF68
 2517 03d3 0E       		.byte	0xe
 2518 03d4 8001     		.2byte	0x180
 2519 03d6 3C010000 		.4byte	0x13c
 2520 03da 08       		.byte	0x8
 2521 03db 08       		.uleb128 0x8
 2522 03dc 70040000 		.4byte	.LASF73
 2523 03e0 0E       		.byte	0xe
 2524 03e1 8801     		.2byte	0x188
 2525 03e3 3C010000 		.4byte	0x13c
 2526 03e7 0C       		.byte	0xc
 2527 03e8 00       		.byte	0
 2528 03e9 03       		.uleb128 0x3
 2529 03ea 64000000 		.4byte	.LASF74
 2530 03ee 0D       		.byte	0xd
 2531 03ef 6B       		.byte	0x6b
 2532 03f0 F4030000 		.4byte	0x3f4
 2533 03f4 0E       		.uleb128 0xe
 2534 03f5 F2010000 		.4byte	.LASF75
 2535 03f9 1404     		.2byte	0x414
 2536 03fb 0E       		.byte	0xe
 2537 03fc A201     		.2byte	0x1a2
 2538 03fe 37040000 		.4byte	0x437
 2539 0402 08       		.uleb128 0x8
 2540 0403 AE060000 		.4byte	.LASF76
 2541 0407 0E       		.byte	0xe
 2542 0408 AA01     		.2byte	0x1aa
 2543 040a D5080000 		.4byte	0x8d5
 2544 040e 00       		.byte	0
 2545 040f 08       		.uleb128 0x8
 2546 0410 0A070000 		.4byte	.LASF77
 2547 0414 0E       		.byte	0xe
 2548 0415 AF01     		.2byte	0x1af
 2549 0417 26010000 		.4byte	0x126
 2550 041b 04       		.byte	0x4
 2551 041c 08       		.uleb128 0x8
 2552 041d 10020000 		.4byte	.LASF78
 2553 0421 0E       		.byte	0xe
 2554 0422 B301     		.2byte	0x1b3
 2555 0424 26010000 		.4byte	0x126
ARM GAS  /tmp/ccZLWL0x.s 			page 103


 2556 0428 08       		.byte	0x8
 2557 0429 08       		.uleb128 0x8
 2558 042a 84070000 		.4byte	.LASF79
 2559 042e 0E       		.byte	0xe
 2560 042f B901     		.2byte	0x1b9
 2561 0431 35070000 		.4byte	0x735
 2562 0435 0C       		.byte	0xc
 2563 0436 00       		.byte	0
 2564 0437 03       		.uleb128 0x3
 2565 0438 0E030000 		.4byte	.LASF80
 2566 043c 0D       		.byte	0xd
 2567 043d 70       		.byte	0x70
 2568 043e 42040000 		.4byte	0x442
 2569 0442 0E       		.uleb128 0xe
 2570 0443 5B010000 		.4byte	.LASF81
 2571 0447 D805     		.2byte	0x5d8
 2572 0449 0E       		.byte	0xe
 2573 044a C201     		.2byte	0x1c2
 2574 044c AF040000 		.4byte	0x4af
 2575 0450 08       		.uleb128 0x8
 2576 0451 12070000 		.4byte	.LASF82
 2577 0455 0E       		.byte	0xe
 2578 0456 C601     		.2byte	0x1c6
 2579 0458 BD020000 		.4byte	0x2bd
 2580 045c 00       		.byte	0
 2581 045d 08       		.uleb128 0x8
 2582 045e 42010000 		.4byte	.LASF83
 2583 0462 0E       		.byte	0xe
 2584 0463 CA01     		.2byte	0x1ca
 2585 0465 9C030000 		.4byte	0x39c
 2586 0469 1C       		.byte	0x1c
 2587 046a 07       		.uleb128 0x7
 2588 046b 64626700 		.ascii	"dbg\000"
 2589 046f 0E       		.byte	0xe
 2590 0470 CE01     		.2byte	0x1ce
 2591 0472 E9030000 		.4byte	0x3e9
 2592 0476 2C       		.byte	0x2c
 2593 0477 0F       		.uleb128 0xf
 2594 0478 D1000000 		.4byte	.LASF84
 2595 047c 0E       		.byte	0xe
 2596 047d D201     		.2byte	0x1d2
 2597 047f 47010000 		.4byte	0x147
 2598 0483 4004     		.2byte	0x440
 2599 0485 10       		.uleb128 0x10
 2600 0486 746D00   		.ascii	"tm\000"
 2601 0489 0E       		.byte	0xe
 2602 048a D701     		.2byte	0x1d7
 2603 048c 55070000 		.4byte	0x755
 2604 0490 A004     		.2byte	0x4a0
 2605 0492 0F       		.uleb128 0xf
 2606 0493 30000000 		.4byte	.LASF85
 2607 0497 0E       		.byte	0xe
 2608 0498 DD01     		.2byte	0x1dd
 2609 049a E7070000 		.4byte	0x7e7
 2610 049e A804     		.2byte	0x4a8
 2611 04a0 0F       		.uleb128 0xf
 2612 04a1 19020000 		.4byte	.LASF86
ARM GAS  /tmp/ccZLWL0x.s 			page 104


 2613 04a5 0E       		.byte	0xe
 2614 04a6 E301     		.2byte	0x1e3
 2615 04a8 DA080000 		.4byte	0x8da
 2616 04ac E004     		.2byte	0x4e0
 2617 04ae 00       		.byte	0
 2618 04af 04       		.uleb128 0x4
 2619 04b0 04       		.byte	0x4
 2620 04b1 07       		.byte	0x7
 2621 04b2 26040000 		.4byte	.LASF87
 2622 04b6 11       		.uleb128 0x11
 2623 04b7 B8000000 		.4byte	0xb8
 2624 04bb 12       		.uleb128 0x12
 2625 04bc B8000000 		.4byte	0xb8
 2626 04c0 CB040000 		.4byte	0x4cb
 2627 04c4 13       		.uleb128 0x13
 2628 04c5 AF040000 		.4byte	0x4af
 2629 04c9 01       		.byte	0x1
 2630 04ca 00       		.byte	0
 2631 04cb 12       		.uleb128 0x12
 2632 04cc B8000000 		.4byte	0xb8
 2633 04d0 DB040000 		.4byte	0x4db
 2634 04d4 13       		.uleb128 0x13
 2635 04d5 AF040000 		.4byte	0x4af
 2636 04d9 03       		.byte	0x3
 2637 04da 00       		.byte	0
 2638 04db 03       		.uleb128 0x3
 2639 04dc D4010000 		.4byte	.LASF88
 2640 04e0 0F       		.byte	0xf
 2641 04e1 65       		.byte	0x65
 2642 04e2 40030000 		.4byte	0x340
 2643 04e6 03       		.uleb128 0x3
 2644 04e7 00040000 		.4byte	.LASF89
 2645 04eb 0F       		.byte	0xf
 2646 04ec 6D       		.byte	0x6d
 2647 04ed C3000000 		.4byte	0xc3
 2648 04f1 05       		.uleb128 0x5
 2649 04f2 BF060000 		.4byte	.LASF90
 2650 04f6 04       		.byte	0x4
 2651 04f7 0F       		.byte	0xf
 2652 04f8 89       		.byte	0x89
 2653 04f9 0A050000 		.4byte	0x50a
 2654 04fd 14       		.uleb128 0x14
 2655 04fe 72313300 		.ascii	"r13\000"
 2656 0502 0F       		.byte	0xf
 2657 0503 8A       		.byte	0x8a
 2658 0504 85050000 		.4byte	0x585
 2659 0508 00       		.byte	0
 2660 0509 00       		.byte	0
 2661 050a 05       		.uleb128 0x5
 2662 050b 47000000 		.4byte	.LASF91
 2663 050f 24       		.byte	0x24
 2664 0510 01       		.byte	0x1
 2665 0511 FD       		.byte	0xfd
 2666 0512 85050000 		.4byte	0x585
 2667 0516 07       		.uleb128 0x7
 2668 0517 723400   		.ascii	"r4\000"
 2669 051a 01       		.byte	0x1
ARM GAS  /tmp/ccZLWL0x.s 			page 105


 2670 051b 1001     		.2byte	0x110
 2671 051d DB040000 		.4byte	0x4db
 2672 0521 00       		.byte	0
 2673 0522 07       		.uleb128 0x7
 2674 0523 723500   		.ascii	"r5\000"
 2675 0526 01       		.byte	0x1
 2676 0527 1101     		.2byte	0x111
 2677 0529 DB040000 		.4byte	0x4db
 2678 052d 04       		.byte	0x4
 2679 052e 07       		.uleb128 0x7
 2680 052f 723600   		.ascii	"r6\000"
 2681 0532 01       		.byte	0x1
 2682 0533 1201     		.2byte	0x112
 2683 0535 DB040000 		.4byte	0x4db
 2684 0539 08       		.byte	0x8
 2685 053a 07       		.uleb128 0x7
 2686 053b 723700   		.ascii	"r7\000"
 2687 053e 01       		.byte	0x1
 2688 053f 1301     		.2byte	0x113
 2689 0541 DB040000 		.4byte	0x4db
 2690 0545 0C       		.byte	0xc
 2691 0546 07       		.uleb128 0x7
 2692 0547 723800   		.ascii	"r8\000"
 2693 054a 01       		.byte	0x1
 2694 054b 1401     		.2byte	0x114
 2695 054d DB040000 		.4byte	0x4db
 2696 0551 10       		.byte	0x10
 2697 0552 07       		.uleb128 0x7
 2698 0553 723900   		.ascii	"r9\000"
 2699 0556 01       		.byte	0x1
 2700 0557 1501     		.2byte	0x115
 2701 0559 DB040000 		.4byte	0x4db
 2702 055d 14       		.byte	0x14
 2703 055e 07       		.uleb128 0x7
 2704 055f 72313000 		.ascii	"r10\000"
 2705 0563 01       		.byte	0x1
 2706 0564 1601     		.2byte	0x116
 2707 0566 DB040000 		.4byte	0x4db
 2708 056a 18       		.byte	0x18
 2709 056b 07       		.uleb128 0x7
 2710 056c 72313100 		.ascii	"r11\000"
 2711 0570 01       		.byte	0x1
 2712 0571 1701     		.2byte	0x117
 2713 0573 DB040000 		.4byte	0x4db
 2714 0577 1C       		.byte	0x1c
 2715 0578 07       		.uleb128 0x7
 2716 0579 6C7200   		.ascii	"lr\000"
 2717 057c 01       		.byte	0x1
 2718 057d 1801     		.2byte	0x118
 2719 057f DB040000 		.4byte	0x4db
 2720 0583 20       		.byte	0x20
 2721 0584 00       		.byte	0
 2722 0585 09       		.uleb128 0x9
 2723 0586 04       		.byte	0x4
 2724 0587 0A050000 		.4byte	0x50a
 2725 058b 15       		.uleb128 0x15
 2726 058c 60       		.byte	0x60
ARM GAS  /tmp/ccZLWL0x.s 			page 106


 2727 058d 10       		.byte	0x10
 2728 058e A101     		.2byte	0x1a1
 2729 0590 97060000 		.4byte	0x697
 2730 0594 07       		.uleb128 0x7
 2731 0595 43523100 		.ascii	"CR1\000"
 2732 0599 10       		.byte	0x10
 2733 059a A201     		.2byte	0x1a2
 2734 059c B6040000 		.4byte	0x4b6
 2735 05a0 00       		.byte	0
 2736 05a1 07       		.uleb128 0x7
 2737 05a2 43523200 		.ascii	"CR2\000"
 2738 05a6 10       		.byte	0x10
 2739 05a7 A301     		.2byte	0x1a3
 2740 05a9 B6040000 		.4byte	0x4b6
 2741 05ad 04       		.byte	0x4
 2742 05ae 08       		.uleb128 0x8
 2743 05af 9A020000 		.4byte	.LASF92
 2744 05b3 10       		.byte	0x10
 2745 05b4 A401     		.2byte	0x1a4
 2746 05b6 B6040000 		.4byte	0x4b6
 2747 05ba 08       		.byte	0x8
 2748 05bb 08       		.uleb128 0x8
 2749 05bc 14000000 		.4byte	.LASF93
 2750 05c0 10       		.byte	0x10
 2751 05c1 A501     		.2byte	0x1a5
 2752 05c3 B6040000 		.4byte	0x4b6
 2753 05c7 0C       		.byte	0xc
 2754 05c8 07       		.uleb128 0x7
 2755 05c9 535200   		.ascii	"SR\000"
 2756 05cc 10       		.byte	0x10
 2757 05cd A601     		.2byte	0x1a6
 2758 05cf B6040000 		.4byte	0x4b6
 2759 05d3 10       		.byte	0x10
 2760 05d4 07       		.uleb128 0x7
 2761 05d5 45475200 		.ascii	"EGR\000"
 2762 05d9 10       		.byte	0x10
 2763 05da A701     		.2byte	0x1a7
 2764 05dc B6040000 		.4byte	0x4b6
 2765 05e0 14       		.byte	0x14
 2766 05e1 08       		.uleb128 0x8
 2767 05e2 14010000 		.4byte	.LASF94
 2768 05e6 10       		.byte	0x10
 2769 05e7 A801     		.2byte	0x1a8
 2770 05e9 B6040000 		.4byte	0x4b6
 2771 05ed 18       		.byte	0x18
 2772 05ee 08       		.uleb128 0x8
 2773 05ef 1A010000 		.4byte	.LASF95
 2774 05f3 10       		.byte	0x10
 2775 05f4 A901     		.2byte	0x1a9
 2776 05f6 B6040000 		.4byte	0x4b6
 2777 05fa 1C       		.byte	0x1c
 2778 05fb 08       		.uleb128 0x8
 2779 05fc 77010000 		.4byte	.LASF96
 2780 0600 10       		.byte	0x10
 2781 0601 AA01     		.2byte	0x1aa
 2782 0603 B6040000 		.4byte	0x4b6
 2783 0607 20       		.byte	0x20
ARM GAS  /tmp/ccZLWL0x.s 			page 107


 2784 0608 07       		.uleb128 0x7
 2785 0609 434E5400 		.ascii	"CNT\000"
 2786 060d 10       		.byte	0x10
 2787 060e AB01     		.2byte	0x1ab
 2788 0610 B6040000 		.4byte	0x4b6
 2789 0614 24       		.byte	0x24
 2790 0615 07       		.uleb128 0x7
 2791 0616 50534300 		.ascii	"PSC\000"
 2792 061a 10       		.byte	0x10
 2793 061b AC01     		.2byte	0x1ac
 2794 061d B6040000 		.4byte	0x4b6
 2795 0621 28       		.byte	0x28
 2796 0622 07       		.uleb128 0x7
 2797 0623 41525200 		.ascii	"ARR\000"
 2798 0627 10       		.byte	0x10
 2799 0628 AD01     		.2byte	0x1ad
 2800 062a B6040000 		.4byte	0x4b6
 2801 062e 2C       		.byte	0x2c
 2802 062f 07       		.uleb128 0x7
 2803 0630 52435200 		.ascii	"RCR\000"
 2804 0634 10       		.byte	0x10
 2805 0635 AE01     		.2byte	0x1ae
 2806 0637 B6040000 		.4byte	0x4b6
 2807 063b 30       		.byte	0x30
 2808 063c 07       		.uleb128 0x7
 2809 063d 43435200 		.ascii	"CCR\000"
 2810 0641 10       		.byte	0x10
 2811 0642 AF01     		.2byte	0x1af
 2812 0644 97060000 		.4byte	0x697
 2813 0648 34       		.byte	0x34
 2814 0649 08       		.uleb128 0x8
 2815 064a FF000000 		.4byte	.LASF97
 2816 064e 10       		.byte	0x10
 2817 064f B001     		.2byte	0x1b0
 2818 0651 B6040000 		.4byte	0x4b6
 2819 0655 44       		.byte	0x44
 2820 0656 07       		.uleb128 0x7
 2821 0657 44435200 		.ascii	"DCR\000"
 2822 065b 10       		.byte	0x10
 2823 065c B101     		.2byte	0x1b1
 2824 065e B6040000 		.4byte	0x4b6
 2825 0662 48       		.byte	0x48
 2826 0663 08       		.uleb128 0x8
 2827 0664 52060000 		.4byte	.LASF98
 2828 0668 10       		.byte	0x10
 2829 0669 B201     		.2byte	0x1b2
 2830 066b B6040000 		.4byte	0x4b6
 2831 066f 4C       		.byte	0x4c
 2832 0670 07       		.uleb128 0x7
 2833 0671 4F5200   		.ascii	"OR\000"
 2834 0674 10       		.byte	0x10
 2835 0675 B301     		.2byte	0x1b3
 2836 0677 B6040000 		.4byte	0x4b6
 2837 067b 50       		.byte	0x50
 2838 067c 08       		.uleb128 0x8
 2839 067d 20010000 		.4byte	.LASF99
 2840 0681 10       		.byte	0x10
ARM GAS  /tmp/ccZLWL0x.s 			page 108


 2841 0682 B401     		.2byte	0x1b4
 2842 0684 B6040000 		.4byte	0x4b6
 2843 0688 54       		.byte	0x54
 2844 0689 08       		.uleb128 0x8
 2845 068a D0050000 		.4byte	.LASF100
 2846 068e 10       		.byte	0x10
 2847 068f B501     		.2byte	0x1b5
 2848 0691 9C060000 		.4byte	0x69c
 2849 0695 58       		.byte	0x58
 2850 0696 00       		.byte	0
 2851 0697 11       		.uleb128 0x11
 2852 0698 CB040000 		.4byte	0x4cb
 2853 069c 11       		.uleb128 0x11
 2854 069d BB040000 		.4byte	0x4bb
 2855 06a1 16       		.uleb128 0x16
 2856 06a2 BD030000 		.4byte	.LASF101
 2857 06a6 10       		.byte	0x10
 2858 06a7 B601     		.2byte	0x1b6
 2859 06a9 8B050000 		.4byte	0x58b
 2860 06ad 17       		.uleb128 0x17
 2861 06ae 10       		.byte	0x10
 2862 06af 11       		.byte	0x11
 2863 06b0 51       		.byte	0x51
 2864 06b1 E6060000 		.4byte	0x6e6
 2865 06b5 06       		.uleb128 0x6
 2866 06b6 32010000 		.4byte	.LASF102
 2867 06ba 11       		.byte	0x11
 2868 06bb 55       		.byte	0x55
 2869 06bc 3C010000 		.4byte	0x13c
 2870 06c0 00       		.byte	0
 2871 06c1 06       		.uleb128 0x6
 2872 06c2 7C010000 		.4byte	.LASF103
 2873 06c6 11       		.byte	0x11
 2874 06c7 59       		.byte	0x59
 2875 06c8 63020000 		.4byte	0x263
 2876 06cc 04       		.byte	0x4
 2877 06cd 06       		.uleb128 0x6
 2878 06ce B6070000 		.4byte	.LASF104
 2879 06d2 11       		.byte	0x11
 2880 06d3 5D       		.byte	0x5d
 2881 06d4 40030000 		.4byte	0x340
 2882 06d8 08       		.byte	0x8
 2883 06d9 06       		.uleb128 0x6
 2884 06da BF000000 		.4byte	.LASF105
 2885 06de 11       		.byte	0x11
 2886 06df 61       		.byte	0x61
 2887 06e0 A2000000 		.4byte	0xa2
 2888 06e4 0C       		.byte	0xc
 2889 06e5 00       		.byte	0
 2890 06e6 03       		.uleb128 0x3
 2891 06e7 61040000 		.4byte	.LASF106
 2892 06eb 11       		.byte	0x11
 2893 06ec 62       		.byte	0x62
 2894 06ed AD060000 		.4byte	0x6ad
 2895 06f1 18       		.uleb128 0x18
 2896 06f2 0804     		.2byte	0x408
 2897 06f4 11       		.byte	0x11
ARM GAS  /tmp/ccZLWL0x.s 			page 109


 2898 06f5 67       		.byte	0x67
 2899 06f6 1F070000 		.4byte	0x71f
 2900 06fa 06       		.uleb128 0x6
 2901 06fb BC010000 		.4byte	.LASF107
 2902 06ff 11       		.byte	0x11
 2903 0700 6B       		.byte	0x6b
 2904 0701 37000000 		.4byte	0x37
 2905 0705 00       		.byte	0
 2906 0706 06       		.uleb128 0x6
 2907 0707 00000000 		.4byte	.LASF108
 2908 070b 11       		.byte	0x11
 2909 070c 6F       		.byte	0x6f
 2910 070d 1F070000 		.4byte	0x71f
 2911 0711 04       		.byte	0x4
 2912 0712 06       		.uleb128 0x6
 2913 0713 F2040000 		.4byte	.LASF109
 2914 0717 11       		.byte	0x11
 2915 0718 73       		.byte	0x73
 2916 0719 25070000 		.4byte	0x725
 2917 071d 08       		.byte	0x8
 2918 071e 00       		.byte	0
 2919 071f 09       		.uleb128 0x9
 2920 0720 04       		.byte	0x4
 2921 0721 E6060000 		.4byte	0x6e6
 2922 0725 12       		.uleb128 0x12
 2923 0726 E6060000 		.4byte	0x6e6
 2924 072a 35070000 		.4byte	0x735
 2925 072e 13       		.uleb128 0x13
 2926 072f AF040000 		.4byte	0x4af
 2927 0733 3F       		.byte	0x3f
 2928 0734 00       		.byte	0
 2929 0735 03       		.uleb128 0x3
 2930 0736 AD000000 		.4byte	.LASF110
 2931 073a 11       		.byte	0x11
 2932 073b 74       		.byte	0x74
 2933 073c F1060000 		.4byte	0x6f1
 2934 0740 17       		.uleb128 0x17
 2935 0741 04       		.byte	0x4
 2936 0742 12       		.byte	0x12
 2937 0743 38       		.byte	0x38
 2938 0744 55070000 		.4byte	0x755
 2939 0748 06       		.uleb128 0x6
 2940 0749 B8060000 		.4byte	.LASF111
 2941 074d 12       		.byte	0x12
 2942 074e 3C       		.byte	0x3c
 2943 074f CE000000 		.4byte	0xce
 2944 0753 00       		.byte	0
 2945 0754 00       		.byte	0
 2946 0755 03       		.uleb128 0x3
 2947 0756 0B040000 		.4byte	.LASF112
 2948 075a 12       		.byte	0x12
 2949 075b 3D       		.byte	0x3d
 2950 075c 40070000 		.4byte	0x740
 2951 0760 17       		.uleb128 0x17
 2952 0761 18       		.byte	0x18
 2953 0762 12       		.byte	0x12
 2954 0763 48       		.byte	0x48
ARM GAS  /tmp/ccZLWL0x.s 			page 110


 2955 0764 A3070000 		.4byte	0x7a3
 2956 0768 06       		.uleb128 0x6
 2957 0769 6B060000 		.4byte	.LASF113
 2958 076d 12       		.byte	0x12
 2959 076e 49       		.byte	0x49
 2960 076f CE000000 		.4byte	0xce
 2961 0773 00       		.byte	0
 2962 0774 06       		.uleb128 0x6
 2963 0775 7D000000 		.4byte	.LASF114
 2964 0779 12       		.byte	0x12
 2965 077a 4A       		.byte	0x4a
 2966 077b CE000000 		.4byte	0xce
 2967 077f 04       		.byte	0x4
 2968 0780 06       		.uleb128 0x6
 2969 0781 BE020000 		.4byte	.LASF115
 2970 0785 12       		.byte	0x12
 2971 0786 4B       		.byte	0x4b
 2972 0787 CE000000 		.4byte	0xce
 2973 078b 08       		.byte	0x8
 2974 078c 14       		.uleb128 0x14
 2975 078d 6E00     		.ascii	"n\000"
 2976 078f 12       		.byte	0x12
 2977 0790 4C       		.byte	0x4c
 2978 0791 31010000 		.4byte	0x131
 2979 0795 0C       		.byte	0xc
 2980 0796 06       		.uleb128 0x6
 2981 0797 D1040000 		.4byte	.LASF116
 2982 079b 12       		.byte	0x12
 2983 079c 4D       		.byte	0x4d
 2984 079d D9000000 		.4byte	0xd9
 2985 07a1 10       		.byte	0x10
 2986 07a2 00       		.byte	0
 2987 07a3 03       		.uleb128 0x3
 2988 07a4 83000000 		.4byte	.LASF117
 2989 07a8 12       		.byte	0x12
 2990 07a9 4E       		.byte	0x4e
 2991 07aa 60070000 		.4byte	0x760
 2992 07ae 17       		.uleb128 0x17
 2993 07af 38       		.byte	0x38
 2994 07b0 13       		.byte	0x13
 2995 07b1 38       		.byte	0x38
 2996 07b2 E7070000 		.4byte	0x7e7
 2997 07b6 06       		.uleb128 0x6
 2998 07b7 89020000 		.4byte	.LASF118
 2999 07bb 13       		.byte	0x13
 3000 07bc 39       		.byte	0x39
 3001 07bd 31010000 		.4byte	0x131
 3002 07c1 00       		.byte	0
 3003 07c2 06       		.uleb128 0x6
 3004 07c3 2F050000 		.4byte	.LASF119
 3005 07c7 13       		.byte	0x13
 3006 07c8 3A       		.byte	0x3a
 3007 07c9 31010000 		.4byte	0x131
 3008 07cd 04       		.byte	0x4
 3009 07ce 06       		.uleb128 0x6
 3010 07cf A3070000 		.4byte	.LASF120
 3011 07d3 13       		.byte	0x13
ARM GAS  /tmp/ccZLWL0x.s 			page 111


 3012 07d4 3B       		.byte	0x3b
 3013 07d5 A3070000 		.4byte	0x7a3
 3014 07d9 08       		.byte	0x8
 3015 07da 06       		.uleb128 0x6
 3016 07db D1030000 		.4byte	.LASF121
 3017 07df 13       		.byte	0x13
 3018 07e0 3D       		.byte	0x3d
 3019 07e1 A3070000 		.4byte	0x7a3
 3020 07e5 20       		.byte	0x20
 3021 07e6 00       		.byte	0
 3022 07e7 03       		.uleb128 0x3
 3023 07e8 9F020000 		.4byte	.LASF122
 3024 07ec 13       		.byte	0x13
 3025 07ed 3F       		.byte	0x3f
 3026 07ee AE070000 		.4byte	0x7ae
 3027 07f2 19       		.uleb128 0x19
 3028 07f3 04       		.byte	0x4
 3029 07f4 0E       		.byte	0xe
 3030 07f5 FA       		.byte	0xfa
 3031 07f6 4F080000 		.4byte	0x84f
 3032 07fa 1A       		.uleb128 0x1a
 3033 07fb 20000000 		.4byte	.LASF123
 3034 07ff 0E       		.byte	0xe
 3035 0800 0101     		.2byte	0x101
 3036 0802 10010000 		.4byte	0x110
 3037 0806 1A       		.uleb128 0x1a
 3038 0807 C8000000 		.4byte	.LASF124
 3039 080b 0E       		.byte	0xe
 3040 080c 0801     		.2byte	0x108
 3041 080e 10010000 		.4byte	0x110
 3042 0812 1A       		.uleb128 0x1a
 3043 0813 41070000 		.4byte	.LASF125
 3044 0817 0E       		.byte	0xe
 3045 0818 0F01     		.2byte	0x10f
 3046 081a 40030000 		.4byte	0x340
 3047 081e 1A       		.uleb128 0x1a
 3048 081f 55010000 		.4byte	.LASF126
 3049 0823 0E       		.byte	0xe
 3050 0824 1601     		.2byte	0x116
 3051 0826 4F080000 		.4byte	0x84f
 3052 082a 1A       		.uleb128 0x1a
 3053 082b 6E020000 		.4byte	.LASF127
 3054 082f 0E       		.byte	0xe
 3055 0830 1E01     		.2byte	0x11e
 3056 0832 7A080000 		.4byte	0x87a
 3057 0836 1A       		.uleb128 0x1a
 3058 0837 FC050000 		.4byte	.LASF128
 3059 083b 0E       		.byte	0xe
 3060 083c 2701     		.2byte	0x127
 3061 083e B1080000 		.4byte	0x8b1
 3062 0842 1A       		.uleb128 0x1a
 3063 0843 81050000 		.4byte	.LASF129
 3064 0847 0E       		.byte	0xe
 3065 0848 2F01     		.2byte	0x12f
 3066 084a 1B010000 		.4byte	0x11b
 3067 084e 00       		.byte	0
 3068 084f 09       		.uleb128 0x9
ARM GAS  /tmp/ccZLWL0x.s 			page 112


 3069 0850 04       		.byte	0x4
 3070 0851 58020000 		.4byte	0x258
 3071 0855 05       		.uleb128 0x5
 3072 0856 C3050000 		.4byte	.LASF130
 3073 085a 0C       		.byte	0xc
 3074 085b 14       		.byte	0x14
 3075 085c 34       		.byte	0x34
 3076 085d 7A080000 		.4byte	0x87a
 3077 0861 06       		.uleb128 0x6
 3078 0862 A1010000 		.4byte	.LASF131
 3079 0866 14       		.byte	0x14
 3080 0867 35       		.byte	0x35
 3081 0868 8D020000 		.4byte	0x28d
 3082 086c 00       		.byte	0
 3083 086d 06       		.uleb128 0x6
 3084 086e 8F020000 		.4byte	.LASF132
 3085 0872 14       		.byte	0x14
 3086 0873 37       		.byte	0x37
 3087 0874 26010000 		.4byte	0x126
 3088 0878 08       		.byte	0x8
 3089 0879 00       		.byte	0
 3090 087a 09       		.uleb128 0x9
 3091 087b 04       		.byte	0x4
 3092 087c 55080000 		.4byte	0x855
 3093 0880 05       		.uleb128 0x5
 3094 0881 FA060000 		.4byte	.LASF133
 3095 0885 10       		.byte	0x10
 3096 0886 15       		.byte	0x15
 3097 0887 39       		.byte	0x39
 3098 0888 B1080000 		.4byte	0x8b1
 3099 088c 06       		.uleb128 0x6
 3100 088d 3A010000 		.4byte	.LASF134
 3101 0891 15       		.byte	0x15
 3102 0892 3A       		.byte	0x3a
 3103 0893 8D020000 		.4byte	0x28d
 3104 0897 00       		.byte	0
 3105 0898 06       		.uleb128 0x6
 3106 0899 AE070000 		.4byte	.LASF135
 3107 089d 15       		.byte	0x15
 3108 089e 3C       		.byte	0x3c
 3109 089f 63020000 		.4byte	0x263
 3110 08a3 08       		.byte	0x8
 3111 08a4 06       		.uleb128 0x6
 3112 08a5 70060000 		.4byte	.LASF136
 3113 08a9 15       		.byte	0x15
 3114 08aa 3E       		.byte	0x3e
 3115 08ab F5080000 		.4byte	0x8f5
 3116 08af 0C       		.byte	0xc
 3117 08b0 00       		.byte	0
 3118 08b1 09       		.uleb128 0x9
 3119 08b2 04       		.byte	0x4
 3120 08b3 80080000 		.4byte	0x880
 3121 08b7 09       		.uleb128 0x9
 3122 08b8 04       		.byte	0x4
 3123 08b9 BD080000 		.4byte	0x8bd
 3124 08bd 1B       		.uleb128 0x1b
 3125 08be C2080000 		.4byte	0x8c2
ARM GAS  /tmp/ccZLWL0x.s 			page 113


 3126 08c2 04       		.uleb128 0x4
 3127 08c3 01       		.byte	0x1
 3128 08c4 08       		.byte	0x8
 3129 08c5 40060000 		.4byte	.LASF137
 3130 08c9 09       		.uleb128 0x9
 3131 08ca 04       		.byte	0x4
 3132 08cb E6040000 		.4byte	0x4e6
 3133 08cf 09       		.uleb128 0x9
 3134 08d0 04       		.byte	0x4
 3135 08d1 42030000 		.4byte	0x342
 3136 08d5 11       		.uleb128 0x11
 3137 08d6 B7080000 		.4byte	0x8b7
 3138 08da 12       		.uleb128 0x12
 3139 08db E6040000 		.4byte	0x4e6
 3140 08df EA080000 		.4byte	0x8ea
 3141 08e3 13       		.uleb128 0x13
 3142 08e4 AF040000 		.4byte	0x4af
 3143 08e8 1E       		.byte	0x1e
 3144 08e9 00       		.byte	0
 3145 08ea 03       		.uleb128 0x3
 3146 08eb 02020000 		.4byte	.LASF138
 3147 08ef 15       		.byte	0x15
 3148 08f0 34       		.byte	0x34
 3149 08f1 80080000 		.4byte	0x880
 3150 08f5 09       		.uleb128 0x9
 3151 08f6 04       		.byte	0x4
 3152 08f7 EA080000 		.4byte	0x8ea
 3153 08fb 05       		.uleb128 0x5
 3154 08fc BA050000 		.4byte	.LASF139
 3155 0900 10       		.byte	0x10
 3156 0901 16       		.byte	0x16
 3157 0902 3B       		.byte	0x3b
 3158 0903 38090000 		.4byte	0x938
 3159 0907 06       		.uleb128 0x6
 3160 0908 95020000 		.4byte	.LASF140
 3161 090c 16       		.byte	0x16
 3162 090d 3C       		.byte	0x3c
 3163 090e B7080000 		.4byte	0x8b7
 3164 0912 00       		.byte	0
 3165 0913 06       		.uleb128 0x6
 3166 0914 9C040000 		.4byte	.LASF141
 3167 0918 16       		.byte	0x16
 3168 0919 3D       		.byte	0x3d
 3169 091a 39090000 		.4byte	0x939
 3170 091e 04       		.byte	0x4
 3171 091f 06       		.uleb128 0x6
 3172 0920 80020000 		.4byte	.LASF142
 3173 0924 16       		.byte	0x16
 3174 0925 3E       		.byte	0x3e
 3175 0926 39090000 		.4byte	0x939
 3176 092a 08       		.byte	0x8
 3177 092b 06       		.uleb128 0x6
 3178 092c 4E050000 		.4byte	.LASF143
 3179 0930 16       		.byte	0x16
 3180 0931 3F       		.byte	0x3f
 3181 0932 39090000 		.4byte	0x939
 3182 0936 0C       		.byte	0xc
ARM GAS  /tmp/ccZLWL0x.s 			page 114


 3183 0937 00       		.byte	0
 3184 0938 1C       		.uleb128 0x1c
 3185 0939 09       		.uleb128 0x9
 3186 093a 04       		.byte	0x4
 3187 093b 38090000 		.4byte	0x938
 3188 093f 1D       		.uleb128 0x1d
 3189 0940 A0060000 		.4byte	.LASF171
 3190 0944 02       		.byte	0x2
 3191 0945 2202     		.2byte	0x222
 3192 0947 03       		.byte	0x3
 3193 0948 59090000 		.4byte	0x959
 3194 094c 1E       		.uleb128 0x1e
 3195 094d 0A020000 		.4byte	.LASF172
 3196 0951 02       		.byte	0x2
 3197 0952 2202     		.2byte	0x222
 3198 0954 B8000000 		.4byte	0xb8
 3199 0958 00       		.byte	0
 3200 0959 1F       		.uleb128 0x1f
 3201 095a 73000000 		.4byte	.LASF144
 3202 095e 01       		.byte	0x1
 3203 095f C801     		.2byte	0x1c8
 3204 0961 00000000 		.4byte	.LFB127
 3205 0965 10000000 		.4byte	.LFE127-.LFB127
 3206 0969 01       		.uleb128 0x1
 3207 096a 9C       		.byte	0x9c
 3208 096b 89090000 		.4byte	0x989
 3209 096f 20       		.uleb128 0x20
 3210 0970 3F090000 		.4byte	0x93f
 3211 0974 06000000 		.4byte	.LBB6
 3212 0978 06000000 		.4byte	.LBE6-.LBB6
 3213 097c 01       		.byte	0x1
 3214 097d D001     		.2byte	0x1d0
 3215 097f 21       		.uleb128 0x21
 3216 0980 4C090000 		.4byte	0x94c
 3217 0984 02       		.uleb128 0x2
 3218 0985 91       		.byte	0x91
 3219 0986 7C       		.sleb128 -4
 3220 0987 00       		.byte	0
 3221 0988 00       		.byte	0
 3222 0989 1F       		.uleb128 0x1f
 3223 098a 49010000 		.4byte	.LASF145
 3224 098e 01       		.byte	0x1
 3225 098f E001     		.2byte	0x1e0
 3226 0991 00000000 		.4byte	.LFB128
 3227 0995 10000000 		.4byte	.LFE128-.LFB128
 3228 0999 01       		.uleb128 0x1
 3229 099a 9C       		.byte	0x9c
 3230 099b B9090000 		.4byte	0x9b9
 3231 099f 20       		.uleb128 0x20
 3232 09a0 3F090000 		.4byte	0x93f
 3233 09a4 06000000 		.4byte	.LBB8
 3234 09a8 06000000 		.4byte	.LBE8-.LBB8
 3235 09ac 01       		.byte	0x1
 3236 09ad E301     		.2byte	0x1e3
 3237 09af 21       		.uleb128 0x21
 3238 09b0 4C090000 		.4byte	0x94c
 3239 09b4 02       		.uleb128 0x2
ARM GAS  /tmp/ccZLWL0x.s 			page 115


 3240 09b5 91       		.byte	0x91
 3241 09b6 7C       		.sleb128 -4
 3242 09b7 00       		.byte	0
 3243 09b8 00       		.byte	0
 3244 09b9 22       		.uleb128 0x22
 3245 09ba E0050000 		.4byte	.LASF146
 3246 09be 03       		.byte	0x3
 3247 09bf 8B       		.byte	0x8b
 3248 09c0 3C010000 		.4byte	0x13c
 3249 09c4 00000000 		.4byte	.LFB136
 3250 09c8 0A000000 		.4byte	.LFE136-.LFB136
 3251 09cc 01       		.uleb128 0x1
 3252 09cd 9C       		.byte	0x9c
 3253 09ce 23       		.uleb128 0x23
 3254 09cf C7060000 		.4byte	.LASF147
 3255 09d3 04       		.byte	0x4
 3256 09d4 69       		.byte	0x69
 3257 09d5 3C010000 		.4byte	0x13c
 3258 09d9 00000000 		.4byte	.LFB145
 3259 09dd 0C000000 		.4byte	.LFE145-.LFB145
 3260 09e1 01       		.uleb128 0x1
 3261 09e2 9C       		.byte	0x9c
 3262 09e3 24       		.uleb128 0x24
 3263 09e4 9F050000 		.4byte	.LASF153
 3264 09e8 05       		.byte	0x5
 3265 09e9 5A01     		.2byte	0x15a
 3266 09eb 00000000 		.4byte	.LFB167
 3267 09ef 10000000 		.4byte	.LFE167-.LFB167
 3268 09f3 01       		.uleb128 0x1
 3269 09f4 9C       		.byte	0x9c
 3270 09f5 25       		.uleb128 0x25
 3271 09f6 91070000 		.4byte	.LASF148
 3272 09fa 05       		.byte	0x5
 3273 09fb 6601     		.2byte	0x166
 3274 09fd 00000000 		.4byte	.LFB168
 3275 0a01 4E000000 		.4byte	.LFE168-.LFB168
 3276 0a05 01       		.uleb128 0x1
 3277 0a06 9C       		.byte	0x9c
 3278 0a07 1B0A0000 		.4byte	0xa1b
 3279 0a0b 26       		.uleb128 0x26
 3280 0a0c DC040000 		.4byte	.LASF173
 3281 0a10 2B0A0000 		.4byte	0xa2b
 3282 0a14 05       		.uleb128 0x5
 3283 0a15 03       		.byte	0x3
 3284 0a16 00000000 		.4byte	__func__.5915
 3285 0a1a 00       		.byte	0
 3286 0a1b 12       		.uleb128 0x12
 3287 0a1c C2080000 		.4byte	0x8c2
 3288 0a20 2B0A0000 		.4byte	0xa2b
 3289 0a24 13       		.uleb128 0x13
 3290 0a25 AF040000 		.4byte	0x4af
 3291 0a29 0B       		.byte	0xb
 3292 0a2a 00       		.byte	0
 3293 0a2b 1B       		.uleb128 0x1b
 3294 0a2c 1B0A0000 		.4byte	0xa1b
 3295 0a30 23       		.uleb128 0x23
 3296 0a31 2E020000 		.4byte	.LASF149
ARM GAS  /tmp/ccZLWL0x.s 			page 116


 3297 0a35 06       		.byte	0x6
 3298 0a36 E4       		.byte	0xe4
 3299 0a37 3C010000 		.4byte	0x13c
 3300 0a3b 00000000 		.4byte	.LFB175
 3301 0a3f 0C000000 		.4byte	.LFE175-.LFB175
 3302 0a43 01       		.uleb128 0x1
 3303 0a44 9C       		.byte	0x9c
 3304 0a45 27       		.uleb128 0x27
 3305 0a46 A2040000 		.4byte	.LASF174
 3306 0a4a 06       		.byte	0x6
 3307 0a4b F7       		.byte	0xf7
 3308 0a4c 3C010000 		.4byte	0x13c
 3309 0a50 00000000 		.4byte	.LFB176
 3310 0a54 1C000000 		.4byte	.LFE176-.LFB176
 3311 0a58 01       		.uleb128 0x1
 3312 0a59 9C       		.byte	0x9c
 3313 0a5a 6D0A0000 		.4byte	0xa6d
 3314 0a5e 28       		.uleb128 0x28
 3315 0a5f C9030000 		.4byte	.LASF157
 3316 0a63 06       		.byte	0x6
 3317 0a64 F8       		.byte	0xf8
 3318 0a65 3C010000 		.4byte	0x13c
 3319 0a69 02       		.uleb128 0x2
 3320 0a6a 91       		.byte	0x91
 3321 0a6b 74       		.sleb128 -12
 3322 0a6c 00       		.byte	0
 3323 0a6d 22       		.uleb128 0x22
 3324 0a6e 18070000 		.4byte	.LASF150
 3325 0a72 07       		.byte	0x7
 3326 0a73 AE       		.byte	0xae
 3327 0a74 63020000 		.4byte	0x263
 3328 0a78 00000000 		.4byte	.LFB189
 3329 0a7c 0E000000 		.4byte	.LFE189-.LFB189
 3330 0a80 01       		.uleb128 0x1
 3331 0a81 9C       		.byte	0x9c
 3332 0a82 23       		.uleb128 0x23
 3333 0a83 8A040000 		.4byte	.LASF151
 3334 0a87 07       		.byte	0x7
 3335 0a88 BB       		.byte	0xbb
 3336 0a89 05010000 		.4byte	0x105
 3337 0a8d 00000000 		.4byte	.LFB190
 3338 0a91 0E000000 		.4byte	.LFE190-.LFB190
 3339 0a95 01       		.uleb128 0x1
 3340 0a96 9C       		.byte	0x9c
 3341 0a97 29       		.uleb128 0x29
 3342 0a98 28050000 		.4byte	.LASF152
 3343 0a9c 08       		.byte	0x8
 3344 0a9d 3C       		.byte	0x3c
 3345 0a9e 00000000 		.4byte	.LFB241
 3346 0aa2 16000000 		.4byte	.LFE241-.LFB241
 3347 0aa6 01       		.uleb128 0x1
 3348 0aa7 9C       		.byte	0x9c
 3349 0aa8 B90A0000 		.4byte	0xab9
 3350 0aac 2A       		.uleb128 0x2a
 3351 0aad 7000     		.ascii	"p\000"
 3352 0aaf 08       		.byte	0x8
 3353 0ab0 3C       		.byte	0x3c
ARM GAS  /tmp/ccZLWL0x.s 			page 117


 3354 0ab1 40030000 		.4byte	0x340
 3355 0ab5 02       		.uleb128 0x2
 3356 0ab6 91       		.byte	0x91
 3357 0ab7 74       		.sleb128 -12
 3358 0ab8 00       		.byte	0
 3359 0ab9 2B       		.uleb128 0x2b
 3360 0aba E5010000 		.4byte	.LASF154
 3361 0abe 08       		.byte	0x8
 3362 0abf 41       		.byte	0x41
 3363 0ac0 00000000 		.4byte	.LFB242
 3364 0ac4 44010000 		.4byte	.LFE242-.LFB242
 3365 0ac8 01       		.uleb128 0x1
 3366 0ac9 9C       		.byte	0x9c
 3367 0aca 2B       		.uleb128 0x2b
 3368 0acb 59020000 		.4byte	.LASF155
 3369 0acf 08       		.byte	0x8
 3370 0ad0 5D       		.byte	0x5d
 3371 0ad1 00000000 		.4byte	.LFB243
 3372 0ad5 5C010000 		.4byte	.LFE243-.LFB243
 3373 0ad9 01       		.uleb128 0x1
 3374 0ada 9C       		.byte	0x9c
 3375 0adb 29       		.uleb128 0x29
 3376 0adc FC040000 		.4byte	.LASF156
 3377 0ae0 08       		.byte	0x8
 3378 0ae1 7D       		.byte	0x7d
 3379 0ae2 00000000 		.4byte	.LFB244
 3380 0ae6 EA010000 		.4byte	.LFE244-.LFB244
 3381 0aea 01       		.uleb128 0x1
 3382 0aeb 9C       		.byte	0x9c
 3383 0aec 0C0B0000 		.4byte	0xb0c
 3384 0af0 28       		.uleb128 0x28
 3385 0af1 B9040000 		.4byte	.LASF158
 3386 0af5 08       		.byte	0x8
 3387 0af6 7E       		.byte	0x7e
 3388 0af7 05010000 		.4byte	0x105
 3389 0afb 02       		.uleb128 0x2
 3390 0afc 91       		.byte	0x91
 3391 0afd 74       		.sleb128 -12
 3392 0afe 2C       		.uleb128 0x2c
 3393 0aff 703100   		.ascii	"p1\000"
 3394 0b02 08       		.byte	0x8
 3395 0b03 7E       		.byte	0x7e
 3396 0b04 05010000 		.4byte	0x105
 3397 0b08 02       		.uleb128 0x2
 3398 0b09 91       		.byte	0x91
 3399 0b0a 70       		.sleb128 -16
 3400 0b0b 00       		.byte	0
 3401 0b0c 29       		.uleb128 0x29
 3402 0b0d 45060000 		.4byte	.LASF159
 3403 0b11 08       		.byte	0x8
 3404 0b12 BC       		.byte	0xbc
 3405 0b13 00000000 		.4byte	.LFB245
 3406 0b17 BE000000 		.4byte	.LFE245-.LFB245
 3407 0b1b 01       		.uleb128 0x1
 3408 0b1c 9C       		.byte	0x9c
 3409 0b1d 300B0000 		.4byte	0xb30
 3410 0b21 28       		.uleb128 0x28
ARM GAS  /tmp/ccZLWL0x.s 			page 118


 3411 0b22 B4040000 		.4byte	.LASF160
 3412 0b26 08       		.byte	0x8
 3413 0b27 BD       		.byte	0xbd
 3414 0b28 3C010000 		.4byte	0x13c
 3415 0b2c 02       		.uleb128 0x2
 3416 0b2d 91       		.byte	0x91
 3417 0b2e 74       		.sleb128 -12
 3418 0b2f 00       		.byte	0
 3419 0b30 2D       		.uleb128 0x2d
 3420 0b31 F2000000 		.4byte	.LASF161
 3421 0b35 17       		.byte	0x17
 3422 0b36 FA06     		.2byte	0x6fa
 3423 0b38 3C0B0000 		.4byte	0xb3c
 3424 0b3c 11       		.uleb128 0x11
 3425 0b3d AD000000 		.4byte	0xad
 3426 0b41 2E       		.uleb128 0x2e
 3427 0b42 636800   		.ascii	"ch\000"
 3428 0b45 0E       		.byte	0xe
 3429 0b46 0902     		.2byte	0x209
 3430 0b48 37040000 		.4byte	0x437
 3431 0b4c 12       		.uleb128 0x12
 3432 0b4d 63020000 		.4byte	0x263
 3433 0b51 5C0B0000 		.4byte	0xb5c
 3434 0b55 13       		.uleb128 0x13
 3435 0b56 AF040000 		.4byte	0x4af
 3436 0b5a 04       		.byte	0x4
 3437 0b5b 00       		.byte	0
 3438 0b5c 2F       		.uleb128 0x2f
 3439 0b5d 72050000 		.4byte	.LASF162
 3440 0b61 16       		.byte	0x16
 3441 0b62 A7       		.byte	0xa7
 3442 0b63 4C0B0000 		.4byte	0xb4c
 3443 0b67 12       		.uleb128 0x12
 3444 0b68 40030000 		.4byte	0x340
 3445 0b6c 720B0000 		.4byte	0xb72
 3446 0b70 30       		.uleb128 0x30
 3447 0b71 00       		.byte	0
 3448 0b72 31       		.uleb128 0x31
 3449 0b73 776100   		.ascii	"wa\000"
 3450 0b76 16       		.byte	0x16
 3451 0b77 A9       		.byte	0xa9
 3452 0b78 7C0B0000 		.4byte	0xb7c
 3453 0b7c 1B       		.uleb128 0x1b
 3454 0b7d 670B0000 		.4byte	0xb67
 3455 0b81 32       		.uleb128 0x32
 3456 0b82 2F040000 		.4byte	.LASF163
 3457 0b86 08       		.byte	0x8
 3458 0b87 4C       		.byte	0x4c
 3459 0b88 920B0000 		.4byte	0xb92
 3460 0b8c 05       		.uleb128 0x5
 3461 0b8d 03       		.byte	0x3
 3462 0b8e 00000000 		.4byte	testthd1
 3463 0b92 1B       		.uleb128 0x1b
 3464 0b93 FB080000 		.4byte	0x8fb
 3465 0b97 32       		.uleb128 0x32
 3466 0b98 38040000 		.4byte	.LASF164
 3467 0b9c 08       		.byte	0x8
ARM GAS  /tmp/ccZLWL0x.s 			page 119


 3468 0b9d 6C       		.byte	0x6c
 3469 0b9e 920B0000 		.4byte	0xb92
 3470 0ba2 05       		.uleb128 0x5
 3471 0ba3 03       		.byte	0x3
 3472 0ba4 00000000 		.4byte	testthd2
 3473 0ba8 32       		.uleb128 0x32
 3474 0ba9 90010000 		.4byte	.LASF165
 3475 0bad 08       		.byte	0x8
 3476 0bae AD       		.byte	0xad
 3477 0baf 920B0000 		.4byte	0xb92
 3478 0bb3 05       		.uleb128 0x5
 3479 0bb4 03       		.byte	0x3
 3480 0bb5 00000000 		.4byte	testthd3
 3481 0bb9 32       		.uleb128 0x32
 3482 0bba 58040000 		.4byte	.LASF166
 3483 0bbe 08       		.byte	0x8
 3484 0bbf DE       		.byte	0xde
 3485 0bc0 920B0000 		.4byte	0xb92
 3486 0bc4 05       		.uleb128 0x5
 3487 0bc5 03       		.byte	0x3
 3488 0bc6 00000000 		.4byte	testthd4
 3489 0bca 12       		.uleb128 0x12
 3490 0bcb DA0B0000 		.4byte	0xbda
 3491 0bcf DA0B0000 		.4byte	0xbda
 3492 0bd3 13       		.uleb128 0x13
 3493 0bd4 AF040000 		.4byte	0x4af
 3494 0bd8 04       		.byte	0x4
 3495 0bd9 00       		.byte	0
 3496 0bda 09       		.uleb128 0x9
 3497 0bdb 04       		.byte	0x4
 3498 0bdc 920B0000 		.4byte	0xb92
 3499 0be0 32       		.uleb128 0x32
 3500 0be1 57060000 		.4byte	.LASF167
 3501 0be5 08       		.byte	0x8
 3502 0be6 E8       		.byte	0xe8
 3503 0be7 F10B0000 		.4byte	0xbf1
 3504 0beb 05       		.uleb128 0x5
 3505 0bec 03       		.byte	0x3
 3506 0bed 00000000 		.4byte	patternthd
 3507 0bf1 1B       		.uleb128 0x1b
 3508 0bf2 CA0B0000 		.4byte	0xbca
 3509 0bf6 00       		.byte	0
 3510              		.section	.debug_abbrev,"",%progbits
 3511              	.Ldebug_abbrev0:
 3512 0000 01       		.uleb128 0x1
 3513 0001 11       		.uleb128 0x11
 3514 0002 01       		.byte	0x1
 3515 0003 25       		.uleb128 0x25
 3516 0004 0E       		.uleb128 0xe
 3517 0005 13       		.uleb128 0x13
 3518 0006 0B       		.uleb128 0xb
 3519 0007 03       		.uleb128 0x3
 3520 0008 0E       		.uleb128 0xe
 3521 0009 1B       		.uleb128 0x1b
 3522 000a 0E       		.uleb128 0xe
 3523 000b 55       		.uleb128 0x55
 3524 000c 17       		.uleb128 0x17
ARM GAS  /tmp/ccZLWL0x.s 			page 120


 3525 000d 11       		.uleb128 0x11
 3526 000e 01       		.uleb128 0x1
 3527 000f 10       		.uleb128 0x10
 3528 0010 17       		.uleb128 0x17
 3529 0011 00       		.byte	0
 3530 0012 00       		.byte	0
 3531 0013 02       		.uleb128 0x2
 3532 0014 24       		.uleb128 0x24
 3533 0015 00       		.byte	0
 3534 0016 0B       		.uleb128 0xb
 3535 0017 0B       		.uleb128 0xb
 3536 0018 3E       		.uleb128 0x3e
 3537 0019 0B       		.uleb128 0xb
 3538 001a 03       		.uleb128 0x3
 3539 001b 08       		.uleb128 0x8
 3540 001c 00       		.byte	0
 3541 001d 00       		.byte	0
 3542 001e 03       		.uleb128 0x3
 3543 001f 16       		.uleb128 0x16
 3544 0020 00       		.byte	0
 3545 0021 03       		.uleb128 0x3
 3546 0022 0E       		.uleb128 0xe
 3547 0023 3A       		.uleb128 0x3a
 3548 0024 0B       		.uleb128 0xb
 3549 0025 3B       		.uleb128 0x3b
 3550 0026 0B       		.uleb128 0xb
 3551 0027 49       		.uleb128 0x49
 3552 0028 13       		.uleb128 0x13
 3553 0029 00       		.byte	0
 3554 002a 00       		.byte	0
 3555 002b 04       		.uleb128 0x4
 3556 002c 24       		.uleb128 0x24
 3557 002d 00       		.byte	0
 3558 002e 0B       		.uleb128 0xb
 3559 002f 0B       		.uleb128 0xb
 3560 0030 3E       		.uleb128 0x3e
 3561 0031 0B       		.uleb128 0xb
 3562 0032 03       		.uleb128 0x3
 3563 0033 0E       		.uleb128 0xe
 3564 0034 00       		.byte	0
 3565 0035 00       		.byte	0
 3566 0036 05       		.uleb128 0x5
 3567 0037 13       		.uleb128 0x13
 3568 0038 01       		.byte	0x1
 3569 0039 03       		.uleb128 0x3
 3570 003a 0E       		.uleb128 0xe
 3571 003b 0B       		.uleb128 0xb
 3572 003c 0B       		.uleb128 0xb
 3573 003d 3A       		.uleb128 0x3a
 3574 003e 0B       		.uleb128 0xb
 3575 003f 3B       		.uleb128 0x3b
 3576 0040 0B       		.uleb128 0xb
 3577 0041 01       		.uleb128 0x1
 3578 0042 13       		.uleb128 0x13
 3579 0043 00       		.byte	0
 3580 0044 00       		.byte	0
 3581 0045 06       		.uleb128 0x6
ARM GAS  /tmp/ccZLWL0x.s 			page 121


 3582 0046 0D       		.uleb128 0xd
 3583 0047 00       		.byte	0
 3584 0048 03       		.uleb128 0x3
 3585 0049 0E       		.uleb128 0xe
 3586 004a 3A       		.uleb128 0x3a
 3587 004b 0B       		.uleb128 0xb
 3588 004c 3B       		.uleb128 0x3b
 3589 004d 0B       		.uleb128 0xb
 3590 004e 49       		.uleb128 0x49
 3591 004f 13       		.uleb128 0x13
 3592 0050 38       		.uleb128 0x38
 3593 0051 0B       		.uleb128 0xb
 3594 0052 00       		.byte	0
 3595 0053 00       		.byte	0
 3596 0054 07       		.uleb128 0x7
 3597 0055 0D       		.uleb128 0xd
 3598 0056 00       		.byte	0
 3599 0057 03       		.uleb128 0x3
 3600 0058 08       		.uleb128 0x8
 3601 0059 3A       		.uleb128 0x3a
 3602 005a 0B       		.uleb128 0xb
 3603 005b 3B       		.uleb128 0x3b
 3604 005c 05       		.uleb128 0x5
 3605 005d 49       		.uleb128 0x49
 3606 005e 13       		.uleb128 0x13
 3607 005f 38       		.uleb128 0x38
 3608 0060 0B       		.uleb128 0xb
 3609 0061 00       		.byte	0
 3610 0062 00       		.byte	0
 3611 0063 08       		.uleb128 0x8
 3612 0064 0D       		.uleb128 0xd
 3613 0065 00       		.byte	0
 3614 0066 03       		.uleb128 0x3
 3615 0067 0E       		.uleb128 0xe
 3616 0068 3A       		.uleb128 0x3a
 3617 0069 0B       		.uleb128 0xb
 3618 006a 3B       		.uleb128 0x3b
 3619 006b 05       		.uleb128 0x5
 3620 006c 49       		.uleb128 0x49
 3621 006d 13       		.uleb128 0x13
 3622 006e 38       		.uleb128 0x38
 3623 006f 0B       		.uleb128 0xb
 3624 0070 00       		.byte	0
 3625 0071 00       		.byte	0
 3626 0072 09       		.uleb128 0x9
 3627 0073 0F       		.uleb128 0xf
 3628 0074 00       		.byte	0
 3629 0075 0B       		.uleb128 0xb
 3630 0076 0B       		.uleb128 0xb
 3631 0077 49       		.uleb128 0x49
 3632 0078 13       		.uleb128 0x13
 3633 0079 00       		.byte	0
 3634 007a 00       		.byte	0
 3635 007b 0A       		.uleb128 0xa
 3636 007c 13       		.uleb128 0x13
 3637 007d 01       		.byte	0x1
 3638 007e 03       		.uleb128 0x3
ARM GAS  /tmp/ccZLWL0x.s 			page 122


 3639 007f 0E       		.uleb128 0xe
 3640 0080 0B       		.uleb128 0xb
 3641 0081 0B       		.uleb128 0xb
 3642 0082 3A       		.uleb128 0x3a
 3643 0083 0B       		.uleb128 0xb
 3644 0084 3B       		.uleb128 0x3b
 3645 0085 05       		.uleb128 0x5
 3646 0086 01       		.uleb128 0x1
 3647 0087 13       		.uleb128 0x13
 3648 0088 00       		.byte	0
 3649 0089 00       		.byte	0
 3650 008a 0B       		.uleb128 0xb
 3651 008b 15       		.uleb128 0x15
 3652 008c 01       		.byte	0x1
 3653 008d 27       		.uleb128 0x27
 3654 008e 19       		.uleb128 0x19
 3655 008f 01       		.uleb128 0x1
 3656 0090 13       		.uleb128 0x13
 3657 0091 00       		.byte	0
 3658 0092 00       		.byte	0
 3659 0093 0C       		.uleb128 0xc
 3660 0094 05       		.uleb128 0x5
 3661 0095 00       		.byte	0
 3662 0096 49       		.uleb128 0x49
 3663 0097 13       		.uleb128 0x13
 3664 0098 00       		.byte	0
 3665 0099 00       		.byte	0
 3666 009a 0D       		.uleb128 0xd
 3667 009b 0F       		.uleb128 0xf
 3668 009c 00       		.byte	0
 3669 009d 0B       		.uleb128 0xb
 3670 009e 0B       		.uleb128 0xb
 3671 009f 00       		.byte	0
 3672 00a0 00       		.byte	0
 3673 00a1 0E       		.uleb128 0xe
 3674 00a2 13       		.uleb128 0x13
 3675 00a3 01       		.byte	0x1
 3676 00a4 03       		.uleb128 0x3
 3677 00a5 0E       		.uleb128 0xe
 3678 00a6 0B       		.uleb128 0xb
 3679 00a7 05       		.uleb128 0x5
 3680 00a8 3A       		.uleb128 0x3a
 3681 00a9 0B       		.uleb128 0xb
 3682 00aa 3B       		.uleb128 0x3b
 3683 00ab 05       		.uleb128 0x5
 3684 00ac 01       		.uleb128 0x1
 3685 00ad 13       		.uleb128 0x13
 3686 00ae 00       		.byte	0
 3687 00af 00       		.byte	0
 3688 00b0 0F       		.uleb128 0xf
 3689 00b1 0D       		.uleb128 0xd
 3690 00b2 00       		.byte	0
 3691 00b3 03       		.uleb128 0x3
 3692 00b4 0E       		.uleb128 0xe
 3693 00b5 3A       		.uleb128 0x3a
 3694 00b6 0B       		.uleb128 0xb
 3695 00b7 3B       		.uleb128 0x3b
ARM GAS  /tmp/ccZLWL0x.s 			page 123


 3696 00b8 05       		.uleb128 0x5
 3697 00b9 49       		.uleb128 0x49
 3698 00ba 13       		.uleb128 0x13
 3699 00bb 38       		.uleb128 0x38
 3700 00bc 05       		.uleb128 0x5
 3701 00bd 00       		.byte	0
 3702 00be 00       		.byte	0
 3703 00bf 10       		.uleb128 0x10
 3704 00c0 0D       		.uleb128 0xd
 3705 00c1 00       		.byte	0
 3706 00c2 03       		.uleb128 0x3
 3707 00c3 08       		.uleb128 0x8
 3708 00c4 3A       		.uleb128 0x3a
 3709 00c5 0B       		.uleb128 0xb
 3710 00c6 3B       		.uleb128 0x3b
 3711 00c7 05       		.uleb128 0x5
 3712 00c8 49       		.uleb128 0x49
 3713 00c9 13       		.uleb128 0x13
 3714 00ca 38       		.uleb128 0x38
 3715 00cb 05       		.uleb128 0x5
 3716 00cc 00       		.byte	0
 3717 00cd 00       		.byte	0
 3718 00ce 11       		.uleb128 0x11
 3719 00cf 35       		.uleb128 0x35
 3720 00d0 00       		.byte	0
 3721 00d1 49       		.uleb128 0x49
 3722 00d2 13       		.uleb128 0x13
 3723 00d3 00       		.byte	0
 3724 00d4 00       		.byte	0
 3725 00d5 12       		.uleb128 0x12
 3726 00d6 01       		.uleb128 0x1
 3727 00d7 01       		.byte	0x1
 3728 00d8 49       		.uleb128 0x49
 3729 00d9 13       		.uleb128 0x13
 3730 00da 01       		.uleb128 0x1
 3731 00db 13       		.uleb128 0x13
 3732 00dc 00       		.byte	0
 3733 00dd 00       		.byte	0
 3734 00de 13       		.uleb128 0x13
 3735 00df 21       		.uleb128 0x21
 3736 00e0 00       		.byte	0
 3737 00e1 49       		.uleb128 0x49
 3738 00e2 13       		.uleb128 0x13
 3739 00e3 2F       		.uleb128 0x2f
 3740 00e4 0B       		.uleb128 0xb
 3741 00e5 00       		.byte	0
 3742 00e6 00       		.byte	0
 3743 00e7 14       		.uleb128 0x14
 3744 00e8 0D       		.uleb128 0xd
 3745 00e9 00       		.byte	0
 3746 00ea 03       		.uleb128 0x3
 3747 00eb 08       		.uleb128 0x8
 3748 00ec 3A       		.uleb128 0x3a
 3749 00ed 0B       		.uleb128 0xb
 3750 00ee 3B       		.uleb128 0x3b
 3751 00ef 0B       		.uleb128 0xb
 3752 00f0 49       		.uleb128 0x49
ARM GAS  /tmp/ccZLWL0x.s 			page 124


 3753 00f1 13       		.uleb128 0x13
 3754 00f2 38       		.uleb128 0x38
 3755 00f3 0B       		.uleb128 0xb
 3756 00f4 00       		.byte	0
 3757 00f5 00       		.byte	0
 3758 00f6 15       		.uleb128 0x15
 3759 00f7 13       		.uleb128 0x13
 3760 00f8 01       		.byte	0x1
 3761 00f9 0B       		.uleb128 0xb
 3762 00fa 0B       		.uleb128 0xb
 3763 00fb 3A       		.uleb128 0x3a
 3764 00fc 0B       		.uleb128 0xb
 3765 00fd 3B       		.uleb128 0x3b
 3766 00fe 05       		.uleb128 0x5
 3767 00ff 01       		.uleb128 0x1
 3768 0100 13       		.uleb128 0x13
 3769 0101 00       		.byte	0
 3770 0102 00       		.byte	0
 3771 0103 16       		.uleb128 0x16
 3772 0104 16       		.uleb128 0x16
 3773 0105 00       		.byte	0
 3774 0106 03       		.uleb128 0x3
 3775 0107 0E       		.uleb128 0xe
 3776 0108 3A       		.uleb128 0x3a
 3777 0109 0B       		.uleb128 0xb
 3778 010a 3B       		.uleb128 0x3b
 3779 010b 05       		.uleb128 0x5
 3780 010c 49       		.uleb128 0x49
 3781 010d 13       		.uleb128 0x13
 3782 010e 00       		.byte	0
 3783 010f 00       		.byte	0
 3784 0110 17       		.uleb128 0x17
 3785 0111 13       		.uleb128 0x13
 3786 0112 01       		.byte	0x1
 3787 0113 0B       		.uleb128 0xb
 3788 0114 0B       		.uleb128 0xb
 3789 0115 3A       		.uleb128 0x3a
 3790 0116 0B       		.uleb128 0xb
 3791 0117 3B       		.uleb128 0x3b
 3792 0118 0B       		.uleb128 0xb
 3793 0119 01       		.uleb128 0x1
 3794 011a 13       		.uleb128 0x13
 3795 011b 00       		.byte	0
 3796 011c 00       		.byte	0
 3797 011d 18       		.uleb128 0x18
 3798 011e 13       		.uleb128 0x13
 3799 011f 01       		.byte	0x1
 3800 0120 0B       		.uleb128 0xb
 3801 0121 05       		.uleb128 0x5
 3802 0122 3A       		.uleb128 0x3a
 3803 0123 0B       		.uleb128 0xb
 3804 0124 3B       		.uleb128 0x3b
 3805 0125 0B       		.uleb128 0xb
 3806 0126 01       		.uleb128 0x1
 3807 0127 13       		.uleb128 0x13
 3808 0128 00       		.byte	0
 3809 0129 00       		.byte	0
ARM GAS  /tmp/ccZLWL0x.s 			page 125


 3810 012a 19       		.uleb128 0x19
 3811 012b 17       		.uleb128 0x17
 3812 012c 01       		.byte	0x1
 3813 012d 0B       		.uleb128 0xb
 3814 012e 0B       		.uleb128 0xb
 3815 012f 3A       		.uleb128 0x3a
 3816 0130 0B       		.uleb128 0xb
 3817 0131 3B       		.uleb128 0x3b
 3818 0132 0B       		.uleb128 0xb
 3819 0133 01       		.uleb128 0x1
 3820 0134 13       		.uleb128 0x13
 3821 0135 00       		.byte	0
 3822 0136 00       		.byte	0
 3823 0137 1A       		.uleb128 0x1a
 3824 0138 0D       		.uleb128 0xd
 3825 0139 00       		.byte	0
 3826 013a 03       		.uleb128 0x3
 3827 013b 0E       		.uleb128 0xe
 3828 013c 3A       		.uleb128 0x3a
 3829 013d 0B       		.uleb128 0xb
 3830 013e 3B       		.uleb128 0x3b
 3831 013f 05       		.uleb128 0x5
 3832 0140 49       		.uleb128 0x49
 3833 0141 13       		.uleb128 0x13
 3834 0142 00       		.byte	0
 3835 0143 00       		.byte	0
 3836 0144 1B       		.uleb128 0x1b
 3837 0145 26       		.uleb128 0x26
 3838 0146 00       		.byte	0
 3839 0147 49       		.uleb128 0x49
 3840 0148 13       		.uleb128 0x13
 3841 0149 00       		.byte	0
 3842 014a 00       		.byte	0
 3843 014b 1C       		.uleb128 0x1c
 3844 014c 15       		.uleb128 0x15
 3845 014d 00       		.byte	0
 3846 014e 27       		.uleb128 0x27
 3847 014f 19       		.uleb128 0x19
 3848 0150 00       		.byte	0
 3849 0151 00       		.byte	0
 3850 0152 1D       		.uleb128 0x1d
 3851 0153 2E       		.uleb128 0x2e
 3852 0154 01       		.byte	0x1
 3853 0155 03       		.uleb128 0x3
 3854 0156 0E       		.uleb128 0xe
 3855 0157 3A       		.uleb128 0x3a
 3856 0158 0B       		.uleb128 0xb
 3857 0159 3B       		.uleb128 0x3b
 3858 015a 05       		.uleb128 0x5
 3859 015b 27       		.uleb128 0x27
 3860 015c 19       		.uleb128 0x19
 3861 015d 20       		.uleb128 0x20
 3862 015e 0B       		.uleb128 0xb
 3863 015f 01       		.uleb128 0x1
 3864 0160 13       		.uleb128 0x13
 3865 0161 00       		.byte	0
 3866 0162 00       		.byte	0
ARM GAS  /tmp/ccZLWL0x.s 			page 126


 3867 0163 1E       		.uleb128 0x1e
 3868 0164 05       		.uleb128 0x5
 3869 0165 00       		.byte	0
 3870 0166 03       		.uleb128 0x3
 3871 0167 0E       		.uleb128 0xe
 3872 0168 3A       		.uleb128 0x3a
 3873 0169 0B       		.uleb128 0xb
 3874 016a 3B       		.uleb128 0x3b
 3875 016b 05       		.uleb128 0x5
 3876 016c 49       		.uleb128 0x49
 3877 016d 13       		.uleb128 0x13
 3878 016e 00       		.byte	0
 3879 016f 00       		.byte	0
 3880 0170 1F       		.uleb128 0x1f
 3881 0171 2E       		.uleb128 0x2e
 3882 0172 01       		.byte	0x1
 3883 0173 03       		.uleb128 0x3
 3884 0174 0E       		.uleb128 0xe
 3885 0175 3A       		.uleb128 0x3a
 3886 0176 0B       		.uleb128 0xb
 3887 0177 3B       		.uleb128 0x3b
 3888 0178 05       		.uleb128 0x5
 3889 0179 27       		.uleb128 0x27
 3890 017a 19       		.uleb128 0x19
 3891 017b 11       		.uleb128 0x11
 3892 017c 01       		.uleb128 0x1
 3893 017d 12       		.uleb128 0x12
 3894 017e 06       		.uleb128 0x6
 3895 017f 40       		.uleb128 0x40
 3896 0180 18       		.uleb128 0x18
 3897 0181 9742     		.uleb128 0x2117
 3898 0183 19       		.uleb128 0x19
 3899 0184 01       		.uleb128 0x1
 3900 0185 13       		.uleb128 0x13
 3901 0186 00       		.byte	0
 3902 0187 00       		.byte	0
 3903 0188 20       		.uleb128 0x20
 3904 0189 1D       		.uleb128 0x1d
 3905 018a 01       		.byte	0x1
 3906 018b 31       		.uleb128 0x31
 3907 018c 13       		.uleb128 0x13
 3908 018d 11       		.uleb128 0x11
 3909 018e 01       		.uleb128 0x1
 3910 018f 12       		.uleb128 0x12
 3911 0190 06       		.uleb128 0x6
 3912 0191 58       		.uleb128 0x58
 3913 0192 0B       		.uleb128 0xb
 3914 0193 59       		.uleb128 0x59
 3915 0194 05       		.uleb128 0x5
 3916 0195 00       		.byte	0
 3917 0196 00       		.byte	0
 3918 0197 21       		.uleb128 0x21
 3919 0198 05       		.uleb128 0x5
 3920 0199 00       		.byte	0
 3921 019a 31       		.uleb128 0x31
 3922 019b 13       		.uleb128 0x13
 3923 019c 02       		.uleb128 0x2
ARM GAS  /tmp/ccZLWL0x.s 			page 127


 3924 019d 18       		.uleb128 0x18
 3925 019e 00       		.byte	0
 3926 019f 00       		.byte	0
 3927 01a0 22       		.uleb128 0x22
 3928 01a1 2E       		.uleb128 0x2e
 3929 01a2 00       		.byte	0
 3930 01a3 03       		.uleb128 0x3
 3931 01a4 0E       		.uleb128 0xe
 3932 01a5 3A       		.uleb128 0x3a
 3933 01a6 0B       		.uleb128 0xb
 3934 01a7 3B       		.uleb128 0x3b
 3935 01a8 0B       		.uleb128 0xb
 3936 01a9 27       		.uleb128 0x27
 3937 01aa 19       		.uleb128 0x19
 3938 01ab 49       		.uleb128 0x49
 3939 01ac 13       		.uleb128 0x13
 3940 01ad 11       		.uleb128 0x11
 3941 01ae 01       		.uleb128 0x1
 3942 01af 12       		.uleb128 0x12
 3943 01b0 06       		.uleb128 0x6
 3944 01b1 40       		.uleb128 0x40
 3945 01b2 18       		.uleb128 0x18
 3946 01b3 9742     		.uleb128 0x2117
 3947 01b5 19       		.uleb128 0x19
 3948 01b6 00       		.byte	0
 3949 01b7 00       		.byte	0
 3950 01b8 23       		.uleb128 0x23
 3951 01b9 2E       		.uleb128 0x2e
 3952 01ba 00       		.byte	0
 3953 01bb 03       		.uleb128 0x3
 3954 01bc 0E       		.uleb128 0xe
 3955 01bd 3A       		.uleb128 0x3a
 3956 01be 0B       		.uleb128 0xb
 3957 01bf 3B       		.uleb128 0x3b
 3958 01c0 0B       		.uleb128 0xb
 3959 01c1 27       		.uleb128 0x27
 3960 01c2 19       		.uleb128 0x19
 3961 01c3 49       		.uleb128 0x49
 3962 01c4 13       		.uleb128 0x13
 3963 01c5 11       		.uleb128 0x11
 3964 01c6 01       		.uleb128 0x1
 3965 01c7 12       		.uleb128 0x12
 3966 01c8 06       		.uleb128 0x6
 3967 01c9 40       		.uleb128 0x40
 3968 01ca 18       		.uleb128 0x18
 3969 01cb 9642     		.uleb128 0x2116
 3970 01cd 19       		.uleb128 0x19
 3971 01ce 00       		.byte	0
 3972 01cf 00       		.byte	0
 3973 01d0 24       		.uleb128 0x24
 3974 01d1 2E       		.uleb128 0x2e
 3975 01d2 00       		.byte	0
 3976 01d3 03       		.uleb128 0x3
 3977 01d4 0E       		.uleb128 0xe
 3978 01d5 3A       		.uleb128 0x3a
 3979 01d6 0B       		.uleb128 0xb
 3980 01d7 3B       		.uleb128 0x3b
ARM GAS  /tmp/ccZLWL0x.s 			page 128


 3981 01d8 05       		.uleb128 0x5
 3982 01d9 27       		.uleb128 0x27
 3983 01da 19       		.uleb128 0x19
 3984 01db 11       		.uleb128 0x11
 3985 01dc 01       		.uleb128 0x1
 3986 01dd 12       		.uleb128 0x12
 3987 01de 06       		.uleb128 0x6
 3988 01df 40       		.uleb128 0x40
 3989 01e0 18       		.uleb128 0x18
 3990 01e1 9642     		.uleb128 0x2116
 3991 01e3 19       		.uleb128 0x19
 3992 01e4 00       		.byte	0
 3993 01e5 00       		.byte	0
 3994 01e6 25       		.uleb128 0x25
 3995 01e7 2E       		.uleb128 0x2e
 3996 01e8 01       		.byte	0x1
 3997 01e9 03       		.uleb128 0x3
 3998 01ea 0E       		.uleb128 0xe
 3999 01eb 3A       		.uleb128 0x3a
 4000 01ec 0B       		.uleb128 0xb
 4001 01ed 3B       		.uleb128 0x3b
 4002 01ee 05       		.uleb128 0x5
 4003 01ef 27       		.uleb128 0x27
 4004 01f0 19       		.uleb128 0x19
 4005 01f1 11       		.uleb128 0x11
 4006 01f2 01       		.uleb128 0x1
 4007 01f3 12       		.uleb128 0x12
 4008 01f4 06       		.uleb128 0x6
 4009 01f5 40       		.uleb128 0x40
 4010 01f6 18       		.uleb128 0x18
 4011 01f7 9642     		.uleb128 0x2116
 4012 01f9 19       		.uleb128 0x19
 4013 01fa 01       		.uleb128 0x1
 4014 01fb 13       		.uleb128 0x13
 4015 01fc 00       		.byte	0
 4016 01fd 00       		.byte	0
 4017 01fe 26       		.uleb128 0x26
 4018 01ff 34       		.uleb128 0x34
 4019 0200 00       		.byte	0
 4020 0201 03       		.uleb128 0x3
 4021 0202 0E       		.uleb128 0xe
 4022 0203 49       		.uleb128 0x49
 4023 0204 13       		.uleb128 0x13
 4024 0205 34       		.uleb128 0x34
 4025 0206 19       		.uleb128 0x19
 4026 0207 02       		.uleb128 0x2
 4027 0208 18       		.uleb128 0x18
 4028 0209 00       		.byte	0
 4029 020a 00       		.byte	0
 4030 020b 27       		.uleb128 0x27
 4031 020c 2E       		.uleb128 0x2e
 4032 020d 01       		.byte	0x1
 4033 020e 03       		.uleb128 0x3
 4034 020f 0E       		.uleb128 0xe
 4035 0210 3A       		.uleb128 0x3a
 4036 0211 0B       		.uleb128 0xb
 4037 0212 3B       		.uleb128 0x3b
ARM GAS  /tmp/ccZLWL0x.s 			page 129


 4038 0213 0B       		.uleb128 0xb
 4039 0214 27       		.uleb128 0x27
 4040 0215 19       		.uleb128 0x19
 4041 0216 49       		.uleb128 0x49
 4042 0217 13       		.uleb128 0x13
 4043 0218 11       		.uleb128 0x11
 4044 0219 01       		.uleb128 0x1
 4045 021a 12       		.uleb128 0x12
 4046 021b 06       		.uleb128 0x6
 4047 021c 40       		.uleb128 0x40
 4048 021d 18       		.uleb128 0x18
 4049 021e 9642     		.uleb128 0x2116
 4050 0220 19       		.uleb128 0x19
 4051 0221 01       		.uleb128 0x1
 4052 0222 13       		.uleb128 0x13
 4053 0223 00       		.byte	0
 4054 0224 00       		.byte	0
 4055 0225 28       		.uleb128 0x28
 4056 0226 34       		.uleb128 0x34
 4057 0227 00       		.byte	0
 4058 0228 03       		.uleb128 0x3
 4059 0229 0E       		.uleb128 0xe
 4060 022a 3A       		.uleb128 0x3a
 4061 022b 0B       		.uleb128 0xb
 4062 022c 3B       		.uleb128 0x3b
 4063 022d 0B       		.uleb128 0xb
 4064 022e 49       		.uleb128 0x49
 4065 022f 13       		.uleb128 0x13
 4066 0230 02       		.uleb128 0x2
 4067 0231 18       		.uleb128 0x18
 4068 0232 00       		.byte	0
 4069 0233 00       		.byte	0
 4070 0234 29       		.uleb128 0x29
 4071 0235 2E       		.uleb128 0x2e
 4072 0236 01       		.byte	0x1
 4073 0237 03       		.uleb128 0x3
 4074 0238 0E       		.uleb128 0xe
 4075 0239 3A       		.uleb128 0x3a
 4076 023a 0B       		.uleb128 0xb
 4077 023b 3B       		.uleb128 0x3b
 4078 023c 0B       		.uleb128 0xb
 4079 023d 27       		.uleb128 0x27
 4080 023e 19       		.uleb128 0x19
 4081 023f 11       		.uleb128 0x11
 4082 0240 01       		.uleb128 0x1
 4083 0241 12       		.uleb128 0x12
 4084 0242 06       		.uleb128 0x6
 4085 0243 40       		.uleb128 0x40
 4086 0244 18       		.uleb128 0x18
 4087 0245 9642     		.uleb128 0x2116
 4088 0247 19       		.uleb128 0x19
 4089 0248 01       		.uleb128 0x1
 4090 0249 13       		.uleb128 0x13
 4091 024a 00       		.byte	0
 4092 024b 00       		.byte	0
 4093 024c 2A       		.uleb128 0x2a
 4094 024d 05       		.uleb128 0x5
ARM GAS  /tmp/ccZLWL0x.s 			page 130


 4095 024e 00       		.byte	0
 4096 024f 03       		.uleb128 0x3
 4097 0250 08       		.uleb128 0x8
 4098 0251 3A       		.uleb128 0x3a
 4099 0252 0B       		.uleb128 0xb
 4100 0253 3B       		.uleb128 0x3b
 4101 0254 0B       		.uleb128 0xb
 4102 0255 49       		.uleb128 0x49
 4103 0256 13       		.uleb128 0x13
 4104 0257 02       		.uleb128 0x2
 4105 0258 18       		.uleb128 0x18
 4106 0259 00       		.byte	0
 4107 025a 00       		.byte	0
 4108 025b 2B       		.uleb128 0x2b
 4109 025c 2E       		.uleb128 0x2e
 4110 025d 00       		.byte	0
 4111 025e 03       		.uleb128 0x3
 4112 025f 0E       		.uleb128 0xe
 4113 0260 3A       		.uleb128 0x3a
 4114 0261 0B       		.uleb128 0xb
 4115 0262 3B       		.uleb128 0x3b
 4116 0263 0B       		.uleb128 0xb
 4117 0264 27       		.uleb128 0x27
 4118 0265 19       		.uleb128 0x19
 4119 0266 11       		.uleb128 0x11
 4120 0267 01       		.uleb128 0x1
 4121 0268 12       		.uleb128 0x12
 4122 0269 06       		.uleb128 0x6
 4123 026a 40       		.uleb128 0x40
 4124 026b 18       		.uleb128 0x18
 4125 026c 9642     		.uleb128 0x2116
 4126 026e 19       		.uleb128 0x19
 4127 026f 00       		.byte	0
 4128 0270 00       		.byte	0
 4129 0271 2C       		.uleb128 0x2c
 4130 0272 34       		.uleb128 0x34
 4131 0273 00       		.byte	0
 4132 0274 03       		.uleb128 0x3
 4133 0275 08       		.uleb128 0x8
 4134 0276 3A       		.uleb128 0x3a
 4135 0277 0B       		.uleb128 0xb
 4136 0278 3B       		.uleb128 0x3b
 4137 0279 0B       		.uleb128 0xb
 4138 027a 49       		.uleb128 0x49
 4139 027b 13       		.uleb128 0x13
 4140 027c 02       		.uleb128 0x2
 4141 027d 18       		.uleb128 0x18
 4142 027e 00       		.byte	0
 4143 027f 00       		.byte	0
 4144 0280 2D       		.uleb128 0x2d
 4145 0281 34       		.uleb128 0x34
 4146 0282 00       		.byte	0
 4147 0283 03       		.uleb128 0x3
 4148 0284 0E       		.uleb128 0xe
 4149 0285 3A       		.uleb128 0x3a
 4150 0286 0B       		.uleb128 0xb
 4151 0287 3B       		.uleb128 0x3b
ARM GAS  /tmp/ccZLWL0x.s 			page 131


 4152 0288 05       		.uleb128 0x5
 4153 0289 49       		.uleb128 0x49
 4154 028a 13       		.uleb128 0x13
 4155 028b 3F       		.uleb128 0x3f
 4156 028c 19       		.uleb128 0x19
 4157 028d 3C       		.uleb128 0x3c
 4158 028e 19       		.uleb128 0x19
 4159 028f 00       		.byte	0
 4160 0290 00       		.byte	0
 4161 0291 2E       		.uleb128 0x2e
 4162 0292 34       		.uleb128 0x34
 4163 0293 00       		.byte	0
 4164 0294 03       		.uleb128 0x3
 4165 0295 08       		.uleb128 0x8
 4166 0296 3A       		.uleb128 0x3a
 4167 0297 0B       		.uleb128 0xb
 4168 0298 3B       		.uleb128 0x3b
 4169 0299 05       		.uleb128 0x5
 4170 029a 49       		.uleb128 0x49
 4171 029b 13       		.uleb128 0x13
 4172 029c 3F       		.uleb128 0x3f
 4173 029d 19       		.uleb128 0x19
 4174 029e 3C       		.uleb128 0x3c
 4175 029f 19       		.uleb128 0x19
 4176 02a0 00       		.byte	0
 4177 02a1 00       		.byte	0
 4178 02a2 2F       		.uleb128 0x2f
 4179 02a3 34       		.uleb128 0x34
 4180 02a4 00       		.byte	0
 4181 02a5 03       		.uleb128 0x3
 4182 02a6 0E       		.uleb128 0xe
 4183 02a7 3A       		.uleb128 0x3a
 4184 02a8 0B       		.uleb128 0xb
 4185 02a9 3B       		.uleb128 0x3b
 4186 02aa 0B       		.uleb128 0xb
 4187 02ab 49       		.uleb128 0x49
 4188 02ac 13       		.uleb128 0x13
 4189 02ad 3F       		.uleb128 0x3f
 4190 02ae 19       		.uleb128 0x19
 4191 02af 3C       		.uleb128 0x3c
 4192 02b0 19       		.uleb128 0x19
 4193 02b1 00       		.byte	0
 4194 02b2 00       		.byte	0
 4195 02b3 30       		.uleb128 0x30
 4196 02b4 21       		.uleb128 0x21
 4197 02b5 00       		.byte	0
 4198 02b6 00       		.byte	0
 4199 02b7 00       		.byte	0
 4200 02b8 31       		.uleb128 0x31
 4201 02b9 34       		.uleb128 0x34
 4202 02ba 00       		.byte	0
 4203 02bb 03       		.uleb128 0x3
 4204 02bc 08       		.uleb128 0x8
 4205 02bd 3A       		.uleb128 0x3a
 4206 02be 0B       		.uleb128 0xb
 4207 02bf 3B       		.uleb128 0x3b
 4208 02c0 0B       		.uleb128 0xb
ARM GAS  /tmp/ccZLWL0x.s 			page 132


 4209 02c1 49       		.uleb128 0x49
 4210 02c2 13       		.uleb128 0x13
 4211 02c3 3F       		.uleb128 0x3f
 4212 02c4 19       		.uleb128 0x19
 4213 02c5 3C       		.uleb128 0x3c
 4214 02c6 19       		.uleb128 0x19
 4215 02c7 00       		.byte	0
 4216 02c8 00       		.byte	0
 4217 02c9 32       		.uleb128 0x32
 4218 02ca 34       		.uleb128 0x34
 4219 02cb 00       		.byte	0
 4220 02cc 03       		.uleb128 0x3
 4221 02cd 0E       		.uleb128 0xe
 4222 02ce 3A       		.uleb128 0x3a
 4223 02cf 0B       		.uleb128 0xb
 4224 02d0 3B       		.uleb128 0x3b
 4225 02d1 0B       		.uleb128 0xb
 4226 02d2 49       		.uleb128 0x49
 4227 02d3 13       		.uleb128 0x13
 4228 02d4 3F       		.uleb128 0x3f
 4229 02d5 19       		.uleb128 0x19
 4230 02d6 02       		.uleb128 0x2
 4231 02d7 18       		.uleb128 0x18
 4232 02d8 00       		.byte	0
 4233 02d9 00       		.byte	0
 4234 02da 00       		.byte	0
 4235              		.section	.debug_aranges,"",%progbits
 4236 0000 8C000000 		.4byte	0x8c
 4237 0004 0200     		.2byte	0x2
 4238 0006 00000000 		.4byte	.Ldebug_info0
 4239 000a 04       		.byte	0x4
 4240 000b 00       		.byte	0
 4241 000c 0000     		.2byte	0
 4242 000e 0000     		.2byte	0
 4243 0010 00000000 		.4byte	.LFB127
 4244 0014 10000000 		.4byte	.LFE127-.LFB127
 4245 0018 00000000 		.4byte	.LFB128
 4246 001c 10000000 		.4byte	.LFE128-.LFB128
 4247 0020 00000000 		.4byte	.LFB136
 4248 0024 0A000000 		.4byte	.LFE136-.LFB136
 4249 0028 00000000 		.4byte	.LFB145
 4250 002c 0C000000 		.4byte	.LFE145-.LFB145
 4251 0030 00000000 		.4byte	.LFB167
 4252 0034 10000000 		.4byte	.LFE167-.LFB167
 4253 0038 00000000 		.4byte	.LFB168
 4254 003c 4E000000 		.4byte	.LFE168-.LFB168
 4255 0040 00000000 		.4byte	.LFB175
 4256 0044 0C000000 		.4byte	.LFE175-.LFB175
 4257 0048 00000000 		.4byte	.LFB176
 4258 004c 1C000000 		.4byte	.LFE176-.LFB176
 4259 0050 00000000 		.4byte	.LFB189
 4260 0054 0E000000 		.4byte	.LFE189-.LFB189
 4261 0058 00000000 		.4byte	.LFB190
 4262 005c 0E000000 		.4byte	.LFE190-.LFB190
 4263 0060 00000000 		.4byte	.LFB241
 4264 0064 16000000 		.4byte	.LFE241-.LFB241
 4265 0068 00000000 		.4byte	.LFB242
ARM GAS  /tmp/ccZLWL0x.s 			page 133


 4266 006c 44010000 		.4byte	.LFE242-.LFB242
 4267 0070 00000000 		.4byte	.LFB243
 4268 0074 5C010000 		.4byte	.LFE243-.LFB243
 4269 0078 00000000 		.4byte	.LFB244
 4270 007c EA010000 		.4byte	.LFE244-.LFB244
 4271 0080 00000000 		.4byte	.LFB245
 4272 0084 BE000000 		.4byte	.LFE245-.LFB245
 4273 0088 00000000 		.4byte	0
 4274 008c 00000000 		.4byte	0
 4275              		.section	.debug_ranges,"",%progbits
 4276              	.Ldebug_ranges0:
 4277 0000 00000000 		.4byte	.LFB127
 4278 0004 10000000 		.4byte	.LFE127
 4279 0008 00000000 		.4byte	.LFB128
 4280 000c 10000000 		.4byte	.LFE128
 4281 0010 00000000 		.4byte	.LFB136
 4282 0014 0A000000 		.4byte	.LFE136
 4283 0018 00000000 		.4byte	.LFB145
 4284 001c 0C000000 		.4byte	.LFE145
 4285 0020 00000000 		.4byte	.LFB167
 4286 0024 10000000 		.4byte	.LFE167
 4287 0028 00000000 		.4byte	.LFB168
 4288 002c 4E000000 		.4byte	.LFE168
 4289 0030 00000000 		.4byte	.LFB175
 4290 0034 0C000000 		.4byte	.LFE175
 4291 0038 00000000 		.4byte	.LFB176
 4292 003c 1C000000 		.4byte	.LFE176
 4293 0040 00000000 		.4byte	.LFB189
 4294 0044 0E000000 		.4byte	.LFE189
 4295 0048 00000000 		.4byte	.LFB190
 4296 004c 0E000000 		.4byte	.LFE190
 4297 0050 00000000 		.4byte	.LFB241
 4298 0054 16000000 		.4byte	.LFE241
 4299 0058 00000000 		.4byte	.LFB242
 4300 005c 44010000 		.4byte	.LFE242
 4301 0060 00000000 		.4byte	.LFB243
 4302 0064 5C010000 		.4byte	.LFE243
 4303 0068 00000000 		.4byte	.LFB244
 4304 006c EA010000 		.4byte	.LFE244
 4305 0070 00000000 		.4byte	.LFB245
 4306 0074 BE000000 		.4byte	.LFE245
 4307 0078 00000000 		.4byte	0
 4308 007c 00000000 		.4byte	0
 4309              		.section	.debug_line,"",%progbits
 4310              	.Ldebug_line0:
 4311 0000 6A040000 		.section	.debug_str,"MS",%progbits,1
 4311      02006202 
 4311      00000201 
 4311      FB0E0D00 
 4311      01010101 
 4312              	.LASF108:
 4313 0000 74625F70 		.ascii	"tb_ptr\000"
 4313      747200
 4314              	.LASF55:
 4315 0007 72656164 		.ascii	"ready_list_t\000"
 4315      795F6C69 
 4315      73745F74 
ARM GAS  /tmp/ccZLWL0x.s 			page 134


 4315      00
 4316              	.LASF93:
 4317 0014 44494552 		.ascii	"DIER\000"
 4317      00
 4318              	.LASF2:
 4319 0019 73697A65 		.ascii	"size_t\000"
 4319      5F7400
 4320              	.LASF123:
 4321 0020 7264796D 		.ascii	"rdymsg\000"
 4321      736700
 4322              	.LASF17:
 4323 0027 75696E74 		.ascii	"uint64_t\000"
 4323      36345F74 
 4323      00
 4324              	.LASF85:
 4325 0030 6B65726E 		.ascii	"kernel_stats\000"
 4325      656C5F73 
 4325      74617473 
 4325      00
 4326              	.LASF3:
 4327 003d 5F5F7569 		.ascii	"__uint8_t\000"
 4327      6E74385F 
 4327      7400
 4328              	.LASF91:
 4329 0047 706F7274 		.ascii	"port_intctx\000"
 4329      5F696E74 
 4329      63747800 
 4330              	.LASF54:
 4331 0053 63685F74 		.ascii	"ch_threads_queue\000"
 4331      68726561 
 4331      64735F71 
 4331      75657565 
 4331      00
 4332              	.LASF74:
 4333 0064 73797374 		.ascii	"system_debug_t\000"
 4333      656D5F64 
 4333      65627567 
 4333      5F7400
 4334              	.LASF144:
 4335 0073 706F7274 		.ascii	"port_lock\000"
 4335      5F6C6F63 
 4335      6B00
 4336              	.LASF114:
 4337 007d 776F7273 		.ascii	"worst\000"
 4337      7400
 4338              	.LASF117:
 4339 0083 74696D65 		.ascii	"time_measurement_t\000"
 4339      5F6D6561 
 4339      73757265 
 4339      6D656E74 
 4339      5F7400
 4340              	.LASF13:
 4341 0096 6C6F6E67 		.ascii	"long long unsigned int\000"
 4341      206C6F6E 
 4341      6720756E 
 4341      7369676E 
 4341      65642069 
ARM GAS  /tmp/ccZLWL0x.s 			page 135


 4342              	.LASF110:
 4343 00ad 63685F74 		.ascii	"ch_trace_buffer_t\000"
 4343      72616365 
 4343      5F627566 
 4343      6665725F 
 4343      7400
 4344              	.LASF105:
 4345 00bf 73655F73 		.ascii	"se_state\000"
 4345      74617465 
 4345      00
 4346              	.LASF124:
 4347 00c8 65786974 		.ascii	"exitcode\000"
 4347      636F6465 
 4347      00
 4348              	.LASF84:
 4349 00d1 6D61696E 		.ascii	"mainthread\000"
 4349      74687265 
 4349      616400
 4350              	.LASF71:
 4351 00dc 76697274 		.ascii	"virtual_timers_list_t\000"
 4351      75616C5F 
 4351      74696D65 
 4351      72735F6C 
 4351      6973745F 
 4352              	.LASF161:
 4353 00f2 49544D5F 		.ascii	"ITM_RxBuffer\000"
 4353      52784275 
 4353      66666572 
 4353      00
 4354              	.LASF97:
 4355 00ff 42445452 		.ascii	"BDTR\000"
 4355      00
 4356              	.LASF19:
 4357 0104 72747469 		.ascii	"rttime_t\000"
 4357      6D655F74 
 4357      00
 4358              	.LASF32:
 4359 010d 705F7072 		.ascii	"p_prio\000"
 4359      696F00
 4360              	.LASF94:
 4361 0114 43434D52 		.ascii	"CCMR1\000"
 4361      3100
 4362              	.LASF95:
 4363 011a 43434D52 		.ascii	"CCMR2\000"
 4363      3200
 4364              	.LASF99:
 4365 0120 43434D52 		.ascii	"CCMR3\000"
 4365      3300
 4366              	.LASF1:
 4367 0126 7369676E 		.ascii	"signed char\000"
 4367      65642063 
 4367      68617200 
 4368              	.LASF102:
 4369 0132 73655F74 		.ascii	"se_time\000"
 4369      696D6500 
 4370              	.LASF134:
 4371 013a 6D5F7175 		.ascii	"m_queue\000"
ARM GAS  /tmp/ccZLWL0x.s 			page 136


 4371      65756500 
 4372              	.LASF83:
 4373 0142 76746C69 		.ascii	"vtlist\000"
 4373      737400
 4374              	.LASF145:
 4375 0149 706F7274 		.ascii	"port_unlock\000"
 4375      5F756E6C 
 4375      6F636B00 
 4376              	.LASF126:
 4377 0155 77747472 		.ascii	"wttrp\000"
 4377      7000
 4378              	.LASF81:
 4379 015b 63685F73 		.ascii	"ch_system\000"
 4379      79737465 
 4379      6D00
 4380              	.LASF8:
 4381 0165 6C6F6E67 		.ascii	"long int\000"
 4381      20696E74 
 4381      00
 4382              	.LASF21:
 4383 016e 74737461 		.ascii	"tstate_t\000"
 4383      74655F74 
 4383      00
 4384              	.LASF96:
 4385 0177 43434552 		.ascii	"CCER\000"
 4385      00
 4386              	.LASF103:
 4387 017c 73655F74 		.ascii	"se_tp\000"
 4387      7000
 4388              	.LASF11:
 4389 0182 6C6F6E67 		.ascii	"long long int\000"
 4389      206C6F6E 
 4389      6720696E 
 4389      7400
 4390              	.LASF165:
 4391 0190 74657374 		.ascii	"testthd3\000"
 4391      74686433 
 4391      00
 4392              	.LASF34:
 4393 0199 705F6E65 		.ascii	"p_newer\000"
 4393      77657200 
 4394              	.LASF131:
 4395 01a1 735F7175 		.ascii	"s_queue\000"
 4395      65756500 
 4396              	.LASF6:
 4397 01a9 73686F72 		.ascii	"short unsigned int\000"
 4397      7420756E 
 4397      7369676E 
 4397      65642069 
 4397      6E7400
 4398              	.LASF107:
 4399 01bc 74625F73 		.ascii	"tb_size\000"
 4399      697A6500 
 4400              	.LASF60:
 4401 01c4 725F6E65 		.ascii	"r_newer\000"
 4401      77657200 
 4402              	.LASF47:
ARM GAS  /tmp/ccZLWL0x.s 			page 137


 4403 01cc 705F6D70 		.ascii	"p_mpool\000"
 4403      6F6F6C00 
 4404              	.LASF88:
 4405 01d4 72656761 		.ascii	"regarm_t\000"
 4405      726D5F74 
 4405      00
 4406              	.LASF67:
 4407 01dd 76745F70 		.ascii	"vt_prev\000"
 4407      72657600 
 4408              	.LASF154:
 4409 01e5 74686431 		.ascii	"thd1_execute\000"
 4409      5F657865 
 4409      63757465 
 4409      00
 4410              	.LASF75:
 4411 01f2 63685F73 		.ascii	"ch_system_debug\000"
 4411      79737465 
 4411      6D5F6465 
 4411      62756700 
 4412              	.LASF138:
 4413 0202 6D757465 		.ascii	"mutex_t\000"
 4413      785F7400 
 4414              	.LASF172:
 4415 020a 76616C75 		.ascii	"value\000"
 4415      6500
 4416              	.LASF78:
 4417 0210 6C6F636B 		.ascii	"lock_cnt\000"
 4417      5F636E74 
 4417      00
 4418              	.LASF86:
 4419 0219 69646C65 		.ascii	"idle_thread_wa\000"
 4419      5F746872 
 4419      6561645F 
 4419      776100
 4420              	.LASF26:
 4421 0228 636E745F 		.ascii	"cnt_t\000"
 4421      7400
 4422              	.LASF149:
 4423 022e 63685654 		.ascii	"chVTGetSystemTimeX\000"
 4423      47657453 
 4423      79737465 
 4423      6D54696D 
 4423      655800
 4424              	.LASF37:
 4425 0241 705F7374 		.ascii	"p_stklimit\000"
 4425      6B6C696D 
 4425      697400
 4426              	.LASF0:
 4427 024c 756E7369 		.ascii	"unsigned int\000"
 4427      676E6564 
 4427      20696E74 
 4427      00
 4428              	.LASF155:
 4429 0259 74686432 		.ascii	"thd2_execute\000"
 4429      5F657865 
 4429      63757465 
 4429      00
ARM GAS  /tmp/ccZLWL0x.s 			page 138


 4430              	.LASF66:
 4431 0266 76745F6E 		.ascii	"vt_next\000"
 4431      65787400 
 4432              	.LASF127:
 4433 026e 77747365 		.ascii	"wtsemp\000"
 4433      6D7000
 4434              	.LASF42:
 4435 0275 705F6D73 		.ascii	"p_msgqueue\000"
 4435      67717565 
 4435      756500
 4436              	.LASF142:
 4437 0280 74656172 		.ascii	"teardown\000"
 4437      646F776E 
 4437      00
 4438              	.LASF118:
 4439 0289 6E5F6972 		.ascii	"n_irq\000"
 4439      7100
 4440              	.LASF132:
 4441 028f 735F636E 		.ascii	"s_cnt\000"
 4441      7400
 4442              	.LASF140:
 4443 0295 6E616D65 		.ascii	"name\000"
 4443      00
 4444              	.LASF92:
 4445 029a 534D4352 		.ascii	"SMCR\000"
 4445      00
 4446              	.LASF122:
 4447 029f 6B65726E 		.ascii	"kernel_stats_t\000"
 4447      656C5F73 
 4447      74617473 
 4447      5F7400
 4448              	.LASF51:
 4449 02ae 63685F74 		.ascii	"ch_thread\000"
 4449      68726561 
 4449      6400
 4450              	.LASF24:
 4451 02b8 6D73675F 		.ascii	"msg_t\000"
 4451      7400
 4452              	.LASF115:
 4453 02be 6C617374 		.ascii	"last\000"
 4453      00
 4454              	.LASF170:
 4455 02c3 2F686F6D 		.ascii	"/home/jerker/chibios/ChibiOS_16.1.4/testhal/STM32/S"
 4455      652F6A65 
 4455      726B6572 
 4455      2F636869 
 4455      62696F73 
 4456 02f6 544D3332 		.ascii	"TM32F4xx/USB_CDC\000"
 4456      46347878 
 4456      2F555342 
 4456      5F434443 
 4456      00
 4457              	.LASF27:
 4458 0307 75636E74 		.ascii	"ucnt_t\000"
 4458      5F7400
 4459              	.LASF80:
 4460 030e 63685F73 		.ascii	"ch_system_t\000"
ARM GAS  /tmp/ccZLWL0x.s 			page 139


 4460      79737465 
 4460      6D5F7400 
 4461              	.LASF168:
 4462 031a 474E5520 		.ascii	"GNU C 4.8.2 -mcpu=cortex-m4 -mno-thumb-interwork -m"
 4462      4320342E 
 4462      382E3220 
 4462      2D6D6370 
 4462      753D636F 
 4463 034d 7468756D 		.ascii	"thumb -ggdb -O0 -fomit-frame-pointer -falign-functi"
 4463      62202D67 
 4463      67646220 
 4463      2D4F3020 
 4463      2D666F6D 
 4464 0380 6F6E733D 		.ascii	"ons=16 -ffunction-sections -fdata-sections -fno-com"
 4464      3136202D 
 4464      6666756E 
 4464      6374696F 
 4464      6E2D7365 
 4465 03b3 6D6F6E20 		.ascii	"mon -flto\000"
 4465      2D666C74 
 4465      6F00
 4466              	.LASF101:
 4467 03bd 73746D33 		.ascii	"stm32_tim_t\000"
 4467      325F7469 
 4467      6D5F7400 
 4468              	.LASF157:
 4469 03c9 73797374 		.ascii	"systime\000"
 4469      696D6500 
 4470              	.LASF121:
 4471 03d1 6D5F6372 		.ascii	"m_crit_isr\000"
 4471      69745F69 
 4471      737200
 4472              	.LASF56:
 4473 03dc 63685F72 		.ascii	"ch_ready_list\000"
 4473      65616479 
 4473      5F6C6973 
 4473      7400
 4474              	.LASF25:
 4475 03ea 6576656E 		.ascii	"eventmask_t\000"
 4475      746D6173 
 4475      6B5F7400 
 4476              	.LASF7:
 4477 03f6 5F5F696E 		.ascii	"__int32_t\000"
 4477      7433325F 
 4477      7400
 4478              	.LASF89:
 4479 0400 73746B61 		.ascii	"stkalign_t\000"
 4479      6C69676E 
 4479      5F7400
 4480              	.LASF112:
 4481 040b 746D5F63 		.ascii	"tm_calibration_t\000"
 4481      616C6962 
 4481      72617469 
 4481      6F6E5F74 
 4481      00
 4482              	.LASF41:
 4483 041c 705F7761 		.ascii	"p_waiting\000"
ARM GAS  /tmp/ccZLWL0x.s 			page 140


 4483      6974696E 
 4483      6700
 4484              	.LASF87:
 4485 0426 73697A65 		.ascii	"sizetype\000"
 4485      74797065 
 4485      00
 4486              	.LASF163:
 4487 042f 74657374 		.ascii	"testthd1\000"
 4487      74686431 
 4487      00
 4488              	.LASF164:
 4489 0438 74657374 		.ascii	"testthd2\000"
 4489      74686432 
 4489      00
 4490              	.LASF72:
 4491 0441 63685F76 		.ascii	"ch_virtual_timers_list\000"
 4491      69727475 
 4491      616C5F74 
 4491      696D6572 
 4491      735F6C69 
 4492              	.LASF166:
 4493 0458 74657374 		.ascii	"testthd4\000"
 4493      74686434 
 4493      00
 4494              	.LASF106:
 4495 0461 63685F73 		.ascii	"ch_swc_event_t\000"
 4495      77635F65 
 4495      76656E74 
 4495      5F7400
 4496              	.LASF73:
 4497 0470 76745F6C 		.ascii	"vt_lasttime\000"
 4497      61737474 
 4497      696D6500 
 4498              	.LASF35:
 4499 047c 705F6F6C 		.ascii	"p_older\000"
 4499      64657200 
 4500              	.LASF59:
 4501 0484 725F6374 		.ascii	"r_ctx\000"
 4501      7800
 4502              	.LASF151:
 4503 048a 63685468 		.ascii	"chThdGetPriorityX\000"
 4503      64476574 
 4503      5072696F 
 4503      72697479 
 4503      5800
 4504              	.LASF141:
 4505 049c 73657475 		.ascii	"setup\000"
 4505      7000
 4506              	.LASF174:
 4507 04a2 63685654 		.ascii	"chVTGetSystemTime\000"
 4507      47657453 
 4507      79737465 
 4507      6D54696D 
 4507      6500
 4508              	.LASF160:
 4509 04b4 74696D65 		.ascii	"time\000"
 4509      00
ARM GAS  /tmp/ccZLWL0x.s 			page 141


 4510              	.LASF158:
 4511 04b9 7072696F 		.ascii	"prio\000"
 4511      00
 4512              	.LASF61:
 4513 04be 725F6F6C 		.ascii	"r_older\000"
 4513      64657200 
 4514              	.LASF12:
 4515 04c6 5F5F7569 		.ascii	"__uint64_t\000"
 4515      6E743634 
 4515      5F7400
 4516              	.LASF116:
 4517 04d1 63756D75 		.ascii	"cumulative\000"
 4517      6C617469 
 4517      766500
 4518              	.LASF173:
 4519 04dc 5F5F6675 		.ascii	"__func__.5915\000"
 4519      6E635F5F 
 4519      2E353931 
 4519      3500
 4520              	.LASF22:
 4521 04ea 74726566 		.ascii	"trefs_t\000"
 4521      735F7400 
 4522              	.LASF109:
 4523 04f2 74625F62 		.ascii	"tb_buffer\000"
 4523      75666665 
 4523      7200
 4524              	.LASF156:
 4525 04fc 74686433 		.ascii	"thd3_execute\000"
 4525      5F657865 
 4525      63757465 
 4525      00
 4526              	.LASF64:
 4527 0509 76697274 		.ascii	"virtual_timer_t\000"
 4527      75616C5F 
 4527      74696D65 
 4527      725F7400 
 4528              	.LASF31:
 4529 0519 705F7072 		.ascii	"p_prev\000"
 4529      657600
 4530              	.LASF23:
 4531 0520 74707269 		.ascii	"tprio_t\000"
 4531      6F5F7400 
 4532              	.LASF152:
 4533 0528 74687265 		.ascii	"thread\000"
 4533      616400
 4534              	.LASF119:
 4535 052f 6E5F6374 		.ascii	"n_ctxswc\000"
 4535      78737763 
 4535      00
 4536              	.LASF15:
 4537 0538 696E7433 		.ascii	"int32_t\000"
 4537      325F7400 
 4538              	.LASF4:
 4539 0540 756E7369 		.ascii	"unsigned char\000"
 4539      676E6564 
 4539      20636861 
 4539      7200
ARM GAS  /tmp/ccZLWL0x.s 			page 142


 4540              	.LASF143:
 4541 054e 65786563 		.ascii	"execute\000"
 4541      75746500 
 4542              	.LASF45:
 4543 0556 705F6D74 		.ascii	"p_mtxlist\000"
 4543      786C6973 
 4543      7400
 4544              	.LASF5:
 4545 0560 73686F72 		.ascii	"short int\000"
 4545      7420696E 
 4545      7400
 4546              	.LASF38:
 4547 056a 705F7374 		.ascii	"p_state\000"
 4547      61746500 
 4548              	.LASF162:
 4549 0572 74687265 		.ascii	"threads\000"
 4549      61647300 
 4550              	.LASF58:
 4551 057a 725F7072 		.ascii	"r_prio\000"
 4551      696F00
 4552              	.LASF129:
 4553 0581 65776D61 		.ascii	"ewmask\000"
 4553      736B00
 4554              	.LASF30:
 4555 0588 705F6E65 		.ascii	"p_next\000"
 4555      787400
 4556              	.LASF39:
 4557 058f 705F666C 		.ascii	"p_flags\000"
 4557      61677300 
 4558              	.LASF48:
 4559 0597 705F7374 		.ascii	"p_stats\000"
 4559      61747300 
 4560              	.LASF153:
 4561 059f 63685379 		.ascii	"chSysLock\000"
 4561      734C6F63 
 4561      6B00
 4562              	.LASF65:
 4563 05a9 63685F76 		.ascii	"ch_virtual_timer\000"
 4563      69727475 
 4563      616C5F74 
 4563      696D6572 
 4563      00
 4564              	.LASF139:
 4565 05ba 74657374 		.ascii	"testcase\000"
 4565      63617365 
 4565      00
 4566              	.LASF130:
 4567 05c3 63685F73 		.ascii	"ch_semaphore\000"
 4567      656D6170 
 4567      686F7265 
 4567      00
 4568              	.LASF100:
 4569 05d0 43435852 		.ascii	"CCXR\000"
 4569      00
 4570              	.LASF44:
 4571 05d5 705F6570 		.ascii	"p_epending\000"
 4571      656E6469 
ARM GAS  /tmp/ccZLWL0x.s 			page 143


 4571      6E6700
 4572              	.LASF146:
 4573 05e0 73745F6C 		.ascii	"st_lld_get_counter\000"
 4573      6C645F67 
 4573      65745F63 
 4573      6F756E74 
 4573      657200
 4574              	.LASF16:
 4575 05f3 75696E74 		.ascii	"uint32_t\000"
 4575      33325F74 
 4575      00
 4576              	.LASF128:
 4577 05fc 77746D74 		.ascii	"wtmtxp\000"
 4577      787000
 4578              	.LASF57:
 4579 0603 725F7175 		.ascii	"r_queue\000"
 4579      65756500 
 4580              	.LASF68:
 4581 060b 76745F64 		.ascii	"vt_delta\000"
 4581      656C7461 
 4581      00
 4582              	.LASF52:
 4583 0614 63685F74 		.ascii	"ch_threads_list\000"
 4583      68726561 
 4583      64735F6C 
 4583      69737400 
 4584              	.LASF10:
 4585 0624 6C6F6E67 		.ascii	"long unsigned int\000"
 4585      20756E73 
 4585      69676E65 
 4585      6420696E 
 4585      7400
 4586              	.LASF62:
 4587 0636 725F6375 		.ascii	"r_current\000"
 4587      7272656E 
 4587      7400
 4588              	.LASF137:
 4589 0640 63686172 		.ascii	"char\000"
 4589      00
 4590              	.LASF159:
 4591 0645 74686434 		.ascii	"thd4_execute\000"
 4591      5F657865 
 4591      63757465 
 4591      00
 4592              	.LASF98:
 4593 0652 444D4152 		.ascii	"DMAR\000"
 4593      00
 4594              	.LASF167:
 4595 0657 70617474 		.ascii	"patternthd\000"
 4595      65726E74 
 4595      686400
 4596              	.LASF29:
 4597 0662 74687265 		.ascii	"thread_t\000"
 4597      61645F74 
 4597      00
 4598              	.LASF113:
 4599 066b 62657374 		.ascii	"best\000"
ARM GAS  /tmp/ccZLWL0x.s 			page 144


 4599      00
 4600              	.LASF136:
 4601 0670 6D5F6E65 		.ascii	"m_next\000"
 4601      787400
 4602              	.LASF28:
 4603 0677 73797374 		.ascii	"systime_t\000"
 4603      696D655F 
 4603      7400
 4604              	.LASF46:
 4605 0681 705F7265 		.ascii	"p_realprio\000"
 4605      616C7072 
 4605      696F00
 4606              	.LASF63:
 4607 068c 76746675 		.ascii	"vtfunc_t\000"
 4607      6E635F74 
 4607      00
 4608              	.LASF9:
 4609 0695 5F5F7569 		.ascii	"__uint32_t\000"
 4609      6E743332 
 4609      5F7400
 4610              	.LASF171:
 4611 06a0 5F5F7365 		.ascii	"__set_BASEPRI\000"
 4611      745F4241 
 4611      53455052 
 4611      4900
 4612              	.LASF76:
 4613 06ae 70616E69 		.ascii	"panic_msg\000"
 4613      635F6D73 
 4613      6700
 4614              	.LASF111:
 4615 06b8 6F666673 		.ascii	"offset\000"
 4615      657400
 4616              	.LASF90:
 4617 06bf 636F6E74 		.ascii	"context\000"
 4617      65787400 
 4618              	.LASF147:
 4619 06c7 706F7274 		.ascii	"port_timer_get_time\000"
 4619      5F74696D 
 4619      65725F67 
 4619      65745F74 
 4619      696D6500 
 4620              	.LASF18:
 4621 06db 7274636E 		.ascii	"rtcnt_t\000"
 4621      745F7400 
 4622              	.LASF70:
 4623 06e3 76745F70 		.ascii	"vt_par\000"
 4623      617200
 4624              	.LASF53:
 4625 06ea 74687265 		.ascii	"threads_queue_t\000"
 4625      6164735F 
 4625      71756575 
 4625      655F7400 
 4626              	.LASF133:
 4627 06fa 63685F6D 		.ascii	"ch_mutex\000"
 4627      75746578 
 4627      00
 4628              	.LASF40:
ARM GAS  /tmp/ccZLWL0x.s 			page 145


 4629 0703 705F7265 		.ascii	"p_refs\000"
 4629      667300
 4630              	.LASF77:
 4631 070a 6973725F 		.ascii	"isr_cnt\000"
 4631      636E7400 
 4632              	.LASF82:
 4633 0712 726C6973 		.ascii	"rlist\000"
 4633      7400
 4634              	.LASF150:
 4635 0718 63685468 		.ascii	"chThdGetSelfX\000"
 4635      64476574 
 4635      53656C66 
 4635      5800
 4636              	.LASF14:
 4637 0726 75696E74 		.ascii	"uint8_t\000"
 4637      385F7400 
 4638              	.LASF49:
 4639 072e 74687265 		.ascii	"thread_reference_t\000"
 4639      61645F72 
 4639      65666572 
 4639      656E6365 
 4639      5F7400
 4640              	.LASF125:
 4641 0741 77746F62 		.ascii	"wtobjp\000"
 4641      6A7000
 4642              	.LASF36:
 4643 0748 705F6E61 		.ascii	"p_name\000"
 4643      6D6500
 4644              	.LASF50:
 4645 074f 74687265 		.ascii	"threads_list_t\000"
 4645      6164735F 
 4645      6C697374 
 4645      5F7400
 4646              	.LASF169:
 4647 075e 2E2E2F2E 		.ascii	"../../../../test/rt/testthd.c\000"
 4647      2E2F2E2E 
 4647      2F2E2E2F 
 4647      74657374 
 4647      2F72742F 
 4648              	.LASF20:
 4649 077c 746D6F64 		.ascii	"tmode_t\000"
 4649      655F7400 
 4650              	.LASF79:
 4651 0784 74726163 		.ascii	"trace_buffer\000"
 4651      655F6275 
 4651      66666572 
 4651      00
 4652              	.LASF148:
 4653 0791 63685379 		.ascii	"chSysUnlock\000"
 4653      73556E6C 
 4653      6F636B00 
 4654              	.LASF43:
 4655 079d 705F6D73 		.ascii	"p_msg\000"
 4655      6700
 4656              	.LASF120:
 4657 07a3 6D5F6372 		.ascii	"m_crit_thd\000"
 4657      69745F74 
ARM GAS  /tmp/ccZLWL0x.s 			page 146


 4657      686400
 4658              	.LASF135:
 4659 07ae 6D5F6F77 		.ascii	"m_owner\000"
 4659      6E657200 
 4660              	.LASF104:
 4661 07b6 73655F77 		.ascii	"se_wtobjp\000"
 4661      746F626A 
 4661      7000
 4662              	.LASF33:
 4663 07c0 705F6374 		.ascii	"p_ctx\000"
 4663      7800
 4664              	.LASF69:
 4665 07c6 76745F66 		.ascii	"vt_func\000"
 4665      756E6300 
 4666              		.comm	__gnu_lto_v1,1,1
 4667              		.ident	"GCC: (4.8.2-14ubuntu1+6) 4.8.2"
ARM GAS  /tmp/ccZLWL0x.s 			page 147


DEFINED SYMBOLS
                            *ABS*:0000000000000000 testthd.c
     /tmp/ccZLWL0x.s:937    .text.port_lock:0000000000000000 $t
     /tmp/ccZLWL0x.s:942    .text.port_lock:0000000000000000 port_lock
     /tmp/ccZLWL0x.s:973    .text.port_unlock:0000000000000000 $t
     /tmp/ccZLWL0x.s:978    .text.port_unlock:0000000000000000 port_unlock
     /tmp/ccZLWL0x.s:1007   .text.st_lld_get_counter:0000000000000000 $t
     /tmp/ccZLWL0x.s:1012   .text.st_lld_get_counter:0000000000000000 st_lld_get_counter
     /tmp/ccZLWL0x.s:1030   .text.port_timer_get_time:0000000000000000 $t
     /tmp/ccZLWL0x.s:1035   .text.port_timer_get_time:0000000000000000 port_timer_get_time
     /tmp/ccZLWL0x.s:1056   .text.chSysLock:0000000000000000 $t
     /tmp/ccZLWL0x.s:1061   .text.chSysLock:0000000000000000 chSysLock
     /tmp/ccZLWL0x.s:1084   .text.chSysUnlock:0000000000000000 $t
     /tmp/ccZLWL0x.s:1089   .text.chSysUnlock:0000000000000000 chSysUnlock
     /tmp/ccZLWL0x.s:2032   .rodata.__func__.5915:0000000000000000 __func__.5915
     /tmp/ccZLWL0x.s:1134   .text.chVTGetSystemTimeX:0000000000000000 $t
     /tmp/ccZLWL0x.s:1139   .text.chVTGetSystemTimeX:0000000000000000 chVTGetSystemTimeX
     /tmp/ccZLWL0x.s:1160   .text.chVTGetSystemTime:0000000000000000 $t
     /tmp/ccZLWL0x.s:1165   .text.chVTGetSystemTime:0000000000000000 chVTGetSystemTime
     /tmp/ccZLWL0x.s:1194   .text.chThdGetSelfX:0000000000000000 $t
     /tmp/ccZLWL0x.s:1199   .text.chThdGetSelfX:0000000000000000 chThdGetSelfX
     /tmp/ccZLWL0x.s:1218   .text.chThdGetPriorityX:0000000000000000 $t
     /tmp/ccZLWL0x.s:1223   .text.chThdGetPriorityX:0000000000000000 chThdGetPriorityX
     /tmp/ccZLWL0x.s:1244   .text.thread:0000000000000000 $t
     /tmp/ccZLWL0x.s:1249   .text.thread:0000000000000000 thread
     /tmp/ccZLWL0x.s:1275   .rodata:0000000000000000 $d
     /tmp/ccZLWL0x.s:1276   .rodata:0000000000000000 .LC0
     /tmp/ccZLWL0x.s:1279   .rodata:0000000000000004 .LC1
     /tmp/ccZLWL0x.s:1282   .rodata:0000000000000008 .LC2
     /tmp/ccZLWL0x.s:1285   .rodata:000000000000000c .LC3
     /tmp/ccZLWL0x.s:1288   .rodata:0000000000000010 .LC4
     /tmp/ccZLWL0x.s:1291   .rodata:0000000000000014 .LC5
     /tmp/ccZLWL0x.s:1294   .text.thd1_execute:0000000000000000 $t
     /tmp/ccZLWL0x.s:1299   .text.thd1_execute:0000000000000000 thd1_execute
     /tmp/ccZLWL0x.s:1435   .rodata.testthd1:0000000000000000 testthd1
     /tmp/ccZLWL0x.s:1432   .rodata.testthd1:0000000000000000 $d
     /tmp/ccZLWL0x.s:1441   .text.thd2_execute:0000000000000000 $t
     /tmp/ccZLWL0x.s:1446   .text.thd2_execute:0000000000000000 thd2_execute
     /tmp/ccZLWL0x.s:1592   .rodata.testthd2:0000000000000000 testthd2
     /tmp/ccZLWL0x.s:1589   .rodata.testthd2:0000000000000000 $d
     /tmp/ccZLWL0x.s:1598   .text.thd3_execute:0000000000000000 $t
     /tmp/ccZLWL0x.s:1603   .text.thd3_execute:0000000000000000 thd3_execute
     /tmp/ccZLWL0x.s:1886   .rodata.testthd3:0000000000000000 testthd3
     /tmp/ccZLWL0x.s:1883   .rodata.testthd3:0000000000000000 $d
     /tmp/ccZLWL0x.s:1892   .text.thd4_execute:0000000000000000 $t
     /tmp/ccZLWL0x.s:1897   .text.thd4_execute:0000000000000000 thd4_execute
     /tmp/ccZLWL0x.s:2012   .rodata.testthd4:0000000000000000 testthd4
     /tmp/ccZLWL0x.s:2009   .rodata.testthd4:0000000000000000 $d
     /tmp/ccZLWL0x.s:2022   .rodata.patternthd:0000000000000000 patternthd
     /tmp/ccZLWL0x.s:2019   .rodata.patternthd:0000000000000000 $d
     /tmp/ccZLWL0x.s:2029   .rodata.__func__.5915:0000000000000000 $d
                            *COM*:0000000000000001 __gnu_lto_v1
                     .debug_frame:0000000000000010 $d

UNDEFINED SYMBOLS
_stats_start_measure_crit_thd
_dbg_check_lock
ARM GAS  /tmp/ccZLWL0x.s 			page 148


_dbg_check_unlock
_stats_stop_measure_crit_thd
ch
chSysHalt
test_emit_token
wa
chThdCreateStatic
threads
test_wait_threads
_test_assert_sequence
chThdCreateI
chThdStart
chThdSetPriority
_test_assert
test_wait_tick
chThdSleep
_test_assert_time_window
chThdSleepUntil
