ARM GAS  /tmp/cc0Z7oom.s 			page 1


   1              		.syntax unified
   2              		.cpu cortex-m4
   3              		.fpu softvfp
   4              		.eabi_attribute 20, 1
   5              		.eabi_attribute 21, 1
   6              		.eabi_attribute 23, 3
   7              		.eabi_attribute 24, 1
   8              		.eabi_attribute 25, 1
   9              		.eabi_attribute 26, 1
  10              		.eabi_attribute 30, 6
  11              		.eabi_attribute 34, 1
  12              		.eabi_attribute 18, 4
  13              		.thumb
  14              		.file	"testheap.c"
  15              		.text
  16              	.Ltext0:
  17              		.section	.gnu.lto_.inline.9c427744d24026c3,"",%progbits
  18 0000 789C6362 		.ascii	"x\234cb`b\300\006\034\031!4P\226\235\037H1-\220g`\201"
  18      6062C006 
  18      1C192134 
  18      50969D1F 
  18      48312D90 
  19 0017 A865E105 		.ascii	"\250e\341\005\022\314\014\317\031\257\262\002%\302\016"
  19      12CC0CCF 
  19      19AFB202 
  19      25C20E
  20 0026 AC674591 		.ascii	"\254gE\221A\020L\334\230b\314<\230J\260\251\303&\206"
  20      41104CDC 
  20      9862CC3C 
  20      984AB0A9 
  20      C32686
  21 0039 5F07E906 		.ascii	"_\007\351\006\3407\005\277:l\376@\223e\344\002\205\011"
  21      E03705BF 
  21      3A6CFE40 
  21      9365E402 
  21      8509
  22 004b 00749A08 		.ascii	"\000t\232\0103"
  22      33
  23              		.text
  24              		.section	.gnu.lto_heap1_setup.9c427744d24026c3,"",%progbits
  25 0000 789C6362 		.ascii	"x\234cb`b@\007\"@\274\013\210\025A\034f\006F\240\012"
  25      60624007 
  25      2240BC0B 
  25      8815411C 
  25      660646A0 
  26 0015 46264646 		.ascii	"F&FF \207\221\241\236\211\261>\222\021\254l=\323\201"
  26      208791A1 
  26      9E89B13E 
  26      9211AC6C 
  26      3DD381
  27 0028 07FFFFAF 		.ascii	"\007\377\377\257\233pl\376\036\306\031L 1V\206\226\206"
  27      9B706CFE 
  27      1EC6194C 
  27      20315686 
  27      9686
  28 003a 86090A0C 		.ascii	"\206\011\012\014\014\311`\025!`2\024\244\237\371<C\333"
  28      0CC96015 
ARM GAS  /tmp/cc0Z7oom.s 			page 2


  28      21603214 
  28      A49FF93C 
  28      43DB
  29 004c 83AEC75C 		.ascii	"\203\256\307\\\211\214\013\031Y\201\202\325\014\277"
  29      898C0B19 
  29      598182D5 
  29      0CBF
  30 005a 1A3A1A04 		.ascii	"\032:\032\0042\031\201J!\246\201D82\031\031s\031\031"
  30      3219814A 
  30      21A68144 
  30      38321919 
  30      731919
  31 006d A08A206A 		.ascii	"\240\212 j\032&2f22i3\254j\000\202\231@6s.#c\022D\017"
  31      1A263266 
  31      32326933 
  31      AC6A0082 
  31      99403673 
  32 0087 4C650450 		.ascii	"Le\004P\230\245\203\217!\023\304\271\310\320\370\240"
  32      98A5838F 
  32      2113C4B9 
  32      C8D0F8A0 
  33 0097 5B196611 		.ascii	"[\031f\021\004\204\200,\001yT^OO\037\216JR\213K\364"
  33      0484802C 
  33      0179545E 
  33      4F4F1F8E 
  33      4A528B4B 
  34 00ac 8B4AC074 		.ascii	"\213J\300tFjb\201^2\003\000f\3263\337"
  34      466A6281 
  34      5E320300 
  34      66D633DF 
  35              		.text
  36              		.section	.gnu.lto_heap1_execute.9c427744d24026c3,"",%progbits
  37 0000 789CCD59 		.ascii	"x\234\315Y[l\024U\030>\347\314\336\357\327\356\255\355"
  37      5B6C1455 
  37      183EE7CC 
  37      DEEFD7EE 
  37      ADED
  38 0012 2EE54E61 		.ascii	".\345Na{\003JH\214\306\370\342;\215\030\023\223fA\\"
  38      7B034A48 
  38      8CC6F8E2 
  38      3B8D1813 
  38      9366415C 
  39 0026 0DA4913E 		.ascii	"\015\244\221>\301\003\003-\006\021\"!\232\020\242\261"
  39      C103032D 
  39      06112221 
  39      9A10A2B1 
  40 0036 0435180C 		.ascii	"\0045\030\014\336\210\232 \272Q\201\026\254\225\020"
  40      DE889A20 
  40      BA518116 
  40      AC9510
  41 0045 63215E36 		.ascii	"c!^6\276\210J\220G\243\310\372\377gf\316t;\263\343\262"
  41      BE884A90 
  41      47A3C8FA 
  41      FF6766CE 
  41      743BB3E3 
  42 005a AE6437E5 		.ascii	"\256d7\345\314\354\367_\316\377\177\337\277\263g\003"
  42      CCECF75F 
ARM GAS  /tmp/cc0Z7oom.s 			page 3


  42      CEFF7FDF 
  42      BFB36703 
  43 006a 238CCC7F 		.ascii	"#\214\314\177\255\247\204<\236!\344!|\263\200P\360\240"
  43      ADA7843C 
  43      9E21E421 
  43      7CB38050 
  43      F0A0
  44 007c 8C4984C8 		.ascii	"\214I\204\310\314\006\213M\242Y@l\314\216\210\003\021"
  44      CC068B4D 
  44      A259406C 
  44      CC8E8803 
  44      11
  45 008d 3B471CCC 		.ascii	";G\034\314\211\210\013\021'G\\\314\215\210\007\0217"
  45      89880B11 
  45      27475CCC 
  45      8D880711 
  45      37
  46 009e 473CCC8B 		.ascii	"G<\314\213\210\017\021/G|,\200\210\037\021\277r\037"
  46      880F112F 
  46      477C2C80 
  46      881F11BF 
  46      721F
  47 00b0 C4FB000D 		.ascii	"\304\373\000\015\2015\310\327\020\013#\036A<\314\243"
  47      8135C8D7 
  47      100B231E 
  47      413CCCA3 
  48 00c0 222C8A48 		.ascii	"\",\212H\014\221(Gb,\216H\033\"q\216\264\261\004\"I"
  48      0C912847 
  48      622C8E48 
  48      1B22718E 
  48      B4B10422 
  49 00d5 44121C49 		.ascii	"D\022\034I\262\024\"iDR\034I\263\014\"\355\210d8\322"
  49      B2142269 
  49      44521C49 
  49      B30C22ED 
  49      886438D2 
  50 00e9 CE3A10E9 		.ascii	"\316:\020\351D\244\203#\2354\007k\226\2579\012\344\020"
  50      44A48323 
  50      9D34076B 
  50      96AF390A 
  50      E410
  51 00fb 4A7631C9 		.ascii	"Jv1\311fw8]n\217\327\347\017\004C\341H4\026oK$S\351"
  51      6677385D 
  51      6E8FD7E7 
  51      0F0443E1 
  51      4834166F 
  52 0113 4C7B4767 		.ascii	"L{Gg6Gw=\212\216\244\273\213\034\223\345\303\345s\277"
  52      3647773D 
  52      8A8EA4BB 
  52      8B1C93E5 
  52      C3E573BF 
  53 0127 1E49EC2F 		.ascii	"\036I\354/\313\207\344;\225\012-\242\251@\311F\270\243"
  53      CB87E43B 
  53      950A2DA2 
  53      A940C946 
  53      B8A3
  54 0139 2E7E61B4 		.ascii	".~a\264Z\003%L>uB\226&\344\333\225\212TwL\351\332\371"
ARM GAS  /tmp/cc0Z7oom.s 			page 4


  54      5A03254C 
  54      3E754296 
  54      26E4DB95 
  54      8A54774C 
  55 0150 E73DEFC8 		.ascii	"\347=\357\310\373\344Je\327\377\273\321\341\013\007"
  55      FBE44A65 
  55      D7FFBBD1 
  55      E10B07
  56 015f 3C8776AB 		.ascii	"<\207v\253\033IzPN\011\2625k\243\206\212;\335\312\305"
  56      1B497A50 
  56      4E09B235 
  56      6BA3868A 
  56      3BDDCAC5 
  57 0173 7DDDBAC5 		.ascii	"}\335\272\305\035*\315\316-\316\306H\027\255\257\276"
  57      1D2ACDCE 
  57      2DCEC648 
  57      17ADAFBE 
  58 0183 F74EC86E 		.ascii	"\367N\310nm\257z{j$\346^\211t\253uE:\\\272\335\312\305"
  58      6DAF7A7B 
  58      6A24E65E 
  58      8974AB75 
  58      453A5CBA 
  59 019a BD78B185 		.ascii	"\275x\261\205\213{\345\342K\251\375\023{\264'\261\304"
  59      8B7BE5E2 
  59      4BA9FD13 
  59      7BB427B1 
  59      C4
  60 01ab C88AFA06 		.ascii	"\310\212\372\006\274\364\352\305\251c\024v\335}\253"
  60      BCF4EAC5 
  60      A9631476 
  60      DD7DAB
  61 01ba 5209B65E 		.ascii	"R\011\266^c\247[\231\365\017\252\212c$\337\310C\205"
  61      63A75B99 
  61      F50FAA8A 
  61      6324DFC8 
  61      4385
  62 01cc 91FE3AC3 		.ascii	"\221\376:\303\356\3310\235?\220\222\365a\26232Xg\205"
  62      EED9309D 
  62      3F9092F5 
  62      61B23332 
  62      586785
  63 01df 67374DCA 		.ascii	"g7M\312\343\245J\345~\036\265\276\316\250o\253\242\356"
  63      E3A54AE5 
  63      7E1EB5BE 
  63      CEA86FAB 
  63      A2EE
  64 01f1 AB27AA04 		.ascii	"\253'\252\004\203\373\354\301\271U:\030y\240\276H\371"
  64      83FBECC1 
  64      B9553A18 
  64      79A0BE48 
  64      F9
  65 0202 8CBE1F44 		.ascii	"\214\276\037D=\370oQo\263R\271R\371\356\335\327~z\231"
  65      3DF86F51 
  65      6FB352B9 
  65      52F9EEDD 
  65      D77E7A99 
  66 0216 46D65132 		.ascii	"F\326Q2LO\321.8a\016\323Kp\225\010\020k\303\305\256"
ARM GAS  /tmp/cc0Z7oom.s 			page 5


  66      4C4FD12E 
  66      38610ED3 
  66      4B709508 
  66      106BC3C5 
  67 022b 220E7CE3 		.ascii	"\"\016|\343\304\305\245\"n\270N\303\325\003\327\031"
  67      C4C5A522 
  67      6EB84EC3 
  67      D503D719 
  68 023b B87AC128 		.ascii	"\270z\301(\371\320\303\217K@u\013\252n!\325-\214n\021"
  68      F9D0C38F 
  68      4B40750B 
  68      AA6E21D5 
  68      2D8C6E11 
  69 024f F488E212 		.ascii	"\364\210\342\022S\335\342\252[\033\232\023hI\342\222"
  69      53DDE2AA 
  69      5B1B9A13 
  69      6849E292 
  70 025f 52CD6984 		.ascii	"R\315i\2043\270\264\253\245v\250\327Nt\313\342\222C"
  70      33B8B4AB 
  70      A576A8D7 
  70      4E74CBE2 
  70      9243
  71 0271 F302BCEB 		.ascii	"\363\002\274\353\302e\241\032\272H\315\274\030\315K"
  71      C265A11A 
  71      BA48CDBC 
  71      18CD4B
  72 0280 D0B21497 		.ascii	"\320\262\024\227e\252y9\302+\020\351\306e%\300g\001"
  72      65AA7939 
  72      C22B10E9 
  72      C66525C0 
  72      6701
  73 0292 5EA59AF3 		.ascii	"^\245\232\363h\356AK/.}\370\266\037\357\006pY\015^\347"
  73      68EE414B 
  73      2F2E7DF8 
  73      B61FEF06 
  73      70590D5E 
  74 02a7 C06B0D5C 		.ascii	"\300k\015\\/\300u-\202\203\204O%P7\016_\3229%\217R\203"
  74      2FC0752D 
  74      8283844F 
  74      2550370E 
  74      5FD23925 
  75 02be 42C130BD 		.ascii	"B\3010\275\314\327+\260\362\351\205\327\006\276\016"
  75      CCD72BB0 
  75      F2E985D7 
  75      06BE0E
  76 02cd E1095E9A 		.ascii	"\341\011^\232!c\345\243\205a\372\015\205s;\331I\376"
  76      2163E5A3 
  76      8561FA0D 
  76      85733BD9 
  76      49FE
  77 02df 842362A8 		.ascii	"\204#b\250H\235\005\252\214v\021&\235\314\220\275\023"
  77      489D05AA 
  77      8C761126 
  77      9DCC90BD 
  77      13
  78 02f0 27248393 		.ascii	"'$\203\223\273@\225\237\011(\272G1\300\353\261\"\365"
  78      BB40959F 
ARM GAS  /tmp/cc0Z7oom.s 			page 6


  78      0928BA47 
  78      31C0EBB1 
  78      22F5
  79 0302 2A1BAA11 		.ascii	"*\033\252\021E\352\3439\312o~N\025h\013e\"\213\277\200"
  79      45EAE339 
  79      CA6F7E4E 
  79      15680B65 
  79      228BBF80 
  80 0316 8F253D0B 		.ascii	"\217%=\013^\034!\010\202C\3774\031\233\035;yP\322\242"
  80      5E1C2108 
  80      8243FF34 
  80      199B1D3B 
  80      7950D2A2 
  81 032a 2408443B 		.ascii	"$\010D;\226\001\031\355\032n\023\331\202\005j\023\331"
  81      960119ED 
  81      1A6E13D9 
  81      82056A13 
  81      D9
  82 033b 248A3145 		.ascii	"$\2121E\374\2610I\306o\210\315m\033\225\303\266\376"
  82      FCB13049 
  82      C66F88CD 
  82      6D1B95C3 
  82      B6FE
  83 034d DA803548 		.ascii	"\332\2005HC\030\013\224\214\227O\036w\032\332\015\027"
  83      43180B94 
  83      8C974F1E 
  83      771ADA0D 
  83      17
  84 035e 947DB1FA 		.ascii	"\224}\261\372\"\215(-\275\245\267d\267lI\302\217YP\264"
  84      228D282D 
  84      BDA5B764 
  84      B76C49C2 
  84      8F5950B4 
  85 0372 3533F6A1 		.ascii	"53\366\241\336\226\003\202\315\332r\326h\213a\214\261"
  85      DE960382 
  85      CDDA72D6 
  85      688B618C 
  85      B1
  86 0383 2DA7495B 		.ascii	"-\247I[v\336\226\203\267\265w\342#\013\021\025\004\325"
  86      76DE9683 
  86      B7B577E2 
  86      230B1115 
  86      04D5
  87 0395 F36CA59A 		.ascii	"\363l\245\232t;\311\216\232j\236\321[w\031[W\323=R\225"
  87      743BC98E 
  87      9A6A9ED1 
  87      5B77195B 
  87      57D33D52 
  88 03aa 6EAEB698 		.ascii	"n\256\266\230\342c=\205\273\301\024g\365\024\236\206"
  88      E2633D85 
  88      BBC11467 
  88      F5149E86 
  89 03ba 528C973F 		.ascii	"R\214\227?\261\026\333\245\212=>\361\251\221\2769~n"
  89      B116DBA5 
  89      8A3D3EF1 
  89      A991BE39 
  89      7E6E
ARM GAS  /tmp/cc0Z7oom.s 			page 7


  90 03cc E13769E9 		.ascii	"\3417i\351\347\021\3033U\320J\367\232\353\3412\025\343"
  90      E711C333 
  90      55D04AF7 
  90      9AEBE132 
  90      15E3
  91 03de F23C3170 		.ascii	"\362<1p\234\304,\371 \031o\220V\317\222\277\306,I\030"
  91      9CC42CF9 
  91      20196F90 
  91      56CF92BF 
  91      C62C4918 
  92 03f2 639C25BF 		.ascii	"c\234%\277\311,9\371,\271\224Y*\177\251\023\037hP\273"
  92      C92C39F9 
  92      2CB99459 
  92      2A7FA913 
  92      1F6850BB 
  93 0406 693D45B0 		.ascii	"i=E\260\301\024_\351)B\015\312?c-\177H\310:k)kP\370"
  93      C1145FE9 
  93      29420DCA 
  93      3F632D7F 
  93      48C83A6B 
  94 041e 5DB5F40B 		.ascii	"]\265\364\013\010\371\257\011\371\303M\223?\002\311"
  94      08F9AF09 
  94      F9C34D93 
  94      3F02C9
  95 042d CCE48FD6 		.ascii	"\314\344\217\326\220\337\2061F\371\243&\362\273\271"
  95      90DF8631 
  95      46F9A326 
  95      F2BBB9
  96 043c FC1E55FE 		.ascii	"\374\036U\376\357u\342cwC|X\327\356\007=E\274A\355~"
  96      EF75E263 
  96      77437C58 
  96      D7EE073D 
  96      45BC41ED 
  97 0451 B4D62E26 		.ascii	"\264\326.&\270\276.\270nk\032\327\011H\266Q99Uq\235"
  97      B8BE2EB8 
  97      6E6B1AD7 
  97      0948B651 
  97      39395571 
  98 0466 ACC1358F 		.ascii	"\254\3015\2171r\2354\341\332\313\271\366\251\\\377\242"
  98      31729D34 
  98      E1DACBB9 
  98      F6A95CFF 
  98      A2
  99 0477 13956AF0 		.ascii	"\023\225j\360srC\364\237\376/\375O\222/~\026\265\244"
  99      737243F4 
  99      9FFE2FFD 
  99      4F922F7E 
  99      16B5A4
 100 048a C5A069AF 		.ascii	"\305\240i\257!\352\347%\013*2M\333,#\230\3267\203\336"
 100      21EAE725 
 100      0B2A324D 
 100      DB2C2398 
 100      D63783DE 
 101 049e A469B267 		.ascii	"\244i\262g\235\346\323\201>6*\354\301y\366vn\327\343"
 101      9DE6D381 
 101      3E362AEC 
 101      C179F676 
ARM GAS  /tmp/cc0Z7oom.s 			page 8


 101      6ED7E3
 102 04b1 438AFDA6 		.ascii	"C\212\375\246P\264s\013\036{\346\324\237\255!\245\003"
 102      50B4730B 
 102      1E7BE6D4 
 102      9FAD21A5 
 102      03
 103 04c2 9D8D5266 		.ascii	"\235\215Rf\347Iy\225P\250*\200[\007\271\256a\256kD="
 103      E7497995 
 103      50A82A80 
 103      5B07B9AE 
 103      61AE6B44 
 104 04d7 65DCB49E 		.ascii	"e\334\264\236\336\270x\242\374n\371DI\211)\377C\250"
 104      DEB878A2 
 104      FC6EF944 
 104      498929FF 
 104      43A8
 105 04e9 9C6BDA94 		.ascii	"\234k\332\224/\200dfO\224\256\032\32481\306HM\227\311"
 105      2F806466 
 105      4F94AE1A 
 105      D43831C6 
 105      484D97C9 
 106 04fd 9447391B 		.ascii	"\224G9\0331u\312\377\322\247|a\203S~[O\261\250\301'"
 106      3175CAFF 
 106      D2A77C61 
 106      83537E5B 
 106      4FB1A8C1 
 107 0512 CADFD69A 		.ascii	"\312\337\326\232,\024\\\337\021\\/n\032\327K \231\331"
 107      2C145CDF 
 107      115C2F6E 
 107      1AD74B20 
 107      99D9
 108 0524 1365690D 		.ascii	"\023ei\015\256]\030c\344z\251\011\327q\316u\233\312"
 108      AE5D1863 
 108      E47AA909 
 108      D771CE75 
 108      9BCA
 109 0536 7545276A 		.ascii	"uE'j\331\335\020\225\323\211\332\367\272%Q\313\304\360"
 109      D9DD1095 
 109      D389DAF7 
 109      BA2551CB 
 109      C4F0
 110 0548 3E67B7F2 		.ascii	">g\267\362[$\010\335\277Y+iy\323\010]\001\311\314\206"
 110      5B2408DD 
 110      BF592B69 
 110      79D3085D 
 110      01C9CC86 
 111 055c B7BB06A1 		.ascii	"\267\273\006\241n\2141\022\332mBh\202\023\232TO\326"
 111      6E8C3112 
 111      DA6D4268 
 111      82139A54 
 111      4FD6
 112 056e 078D4DD6 		.ascii	"\007\215M\326w\2626\226\277gj\366\370U\246m\275Rq\341"
 112      77B23696 
 112      BF676AF6 
 112      F855A66D 
 112      BD5271E1 
 113 0582 14951C1A 		.ascii	"\024\225\034\032\272\252N\321 ^|8^\020\374\346\233\306"
ARM GAS  /tmp/cc0Z7oom.s 			page 9


 113      BAAA4ED1 
 113      205E7C38 
 113      5E10FCE6 
 113      9BC6
 114 0594 6F0F24E3 		.ascii	"o\017$\343\374\222j~{k\360\353\301\030#\277\275&\374"
 114      FC926A7E 
 114      7B6BF0EB 
 114      C11823BF 
 114      BD26FC
 115 05a7 A638BF69 		.ascii	"\2468\277i\365Qy\304z\332V\211):*\272\354kZ\227\375"
 115      F55179C4 
 115      7ADA5689 
 115      293A2ABA 
 115      EC6B5A97 
 116 05bc 90CC6C8A 		.ascii	"\220\314l\212\006jt\351\305\030c\227\003&]fx\227\355"
 116      066A74E9 
 116      C5186397 
 116      03265D66 
 116      7897ED
 117 05cf CA17D1D4 		.ascii	"\312\027\321\324\3657\204\363jMw\300\037\326\3005\332"
 117      F53784F3 
 117      6A4D77C0 
 117      1FD6C035 
 117      DA
 118 05e0 0FF9AAF2 		.ascii	"\017\371\252\362\326\2027\330\252J\033\254Q\232\017"
 118      D68237D8 
 118      AA4A1BAC 
 118      519A0F
 119 05ef FD8DA50D 		.ascii	"\375\215\245\015\232\224\326\301K\353\344\245}\366\233"
 119      9A94D6C1 
 119      4BEBE4A5 
 119      7DF69B
 120 05fe 3A904A55 		.ascii	":\220JU\253\311\373\362>U\366*\343\225yF|\015\341\177"
 120      ABC9FBF2 
 120      3E55F62A 
 120      E3957946 
 120      7C0DE17F 
 121 0612 97F11C93 		.ascii	"\227\361\034\223OY$y\332:G\016r\\\"\273\341\327\307"
 121      4F592479 
 121      DA3A470E 
 121      725C22BB 
 121      E1D7C7
 122 0625 26FC8EBE 		.ascii	"&\374\216\276\314o\365b\001B\211\263\371|\217\370\033"
 122      CC6FF562 
 122      014289B3 
 122      F97C8FF8 
 122      1B
 123 0636 DDBC7DB4 		.ascii	"\335\274}\264\347\231Q~}r\363\360H\276@\234\305'F\267"
 123      E799517E 
 123      7D72F3F0 
 123      48BE409C 
 123      C52746B7 
 124 064a 8EE47BA5 		.ascii	"\216\344{\245m\371>\370\327o\333\276#?\300F\372\330"
 124      6DF93EF8 
 124      D76FDBBE 
 124      233FC046 
 124      FAD8
ARM GAS  /tmp/cc0Z7oom.s 			page 10


 125 065c 483F1B19 		.ascii	"H?\033\031\240\333\330\366\035\377\000\347[\3723"
 125      A0DBD8F6 
 125      1DFF00E7 
 125      5BFA33
 126              		.text
 127              		.section	.gnu.lto_.symbol_nodes.9c427744d24026c3,"",%progbits
 128 0000 789C4D90 		.ascii	"x\234M\220KN\303@\014\206\355\031\222\320r\010\016\306"
 128      4B4EC340 
 128      0C86ED19 
 128      92D07208 
 128      0EC6
 129 0012 8A93B8D2 		.ascii	"\212\223\270\322H \212\324\242T*R*\245\213\\\004i\366"
 129      48208AD4 
 129      A2542A52 
 129      2AA58B5C 
 129      0469F6
 130 0025 5DF50084 		.ascii	"]\365\000\204\221\350\0026\274\337\210\351\370OC6\237"
 130      91E80236 
 130      BCDF88E9 
 130      F84F4336 
 130      9F
 131 0036 1FFF6F7B 		.ascii	"\037\377o{b\310\320\221!\375\314#\013\321\305\212Hd"
 131      62C8D091 
 131      21FDCC23 
 131      0BD1C58A 
 131      4864
 132 0048 7D769C3D 		.ascii	"}v\234=0\345b\2637f\0222O,\374\257\371\302\246\020\312"
 132      30E562B3 
 132      37661232 
 132      4F2CFCAF 
 132      F9C2A610 
 133 005d 9ED946F0 		.ascii	"\236\331F\360+\213\321\346h\304\374\305b\373\354\203"
 133      2B8BD1E6 
 133      68C4FCC5 
 133      62FBEC83 
 134 006d 65AFCFBE 		.ascii	"e\257\317\276Y\262>\373d\311\373\354\235\245\330e\226"
 134      59B23EFB 
 134      64C9FBEC 
 134      9DA5D865 
 134      96
 135 007e 7272D7BF 		.ascii	"rr\327\277l\355\001\270OM\342\220|bA\256\335r@\276\325"
 135      6CED01B8 
 135      4F4DE290 
 135      7C6241AE 
 135      DD7240BE 
 136 0093 7A68B5DE 		.ascii	"zh\265\336\234\334\037n\365!qH\356T\331\200>q@\001t"
 136      9CDC1F6E 
 136      F5217148 
 136      EE54D980 
 136      3E714001 
 137 00a8 63653356 		.ascii	"ce3V\237O\214\363\317\241\007\003\350&\320\203\036\014"
 137      9F4F8CF3 
 137      CFA10703 
 137      E826D083 
 137      1E0C
 138 00ba 13F5BBA9 		.ascii	"\023\365\273\251\372\375\024\372\022\373K\350K\334W"
 138      FAFD14FA 
ARM GAS  /tmp/cc0Z7oom.s 			page 11


 138      12FB4BE8 
 138      4BDC57
 139 00c9 AAAE9961 		.ascii	"\252\256\231a\376\014\3769\356\230k?\\b_\005\177\005"
 139      FE0CFE39 
 139      EE986B3F 
 139      5C625F05 
 139      7F05
 140 00db 7F05FF02 		.ascii	"\177\005\377\002~\320\325\320\327\230S\343=K\274g\211"
 140      7ED0D5D0 
 140      D79853E3 
 140      3D4BBC67 
 140      89
 141 00ec 7B417773 		.ascii	"{Aws\365c\323\017\326 n\334UB\012\342\354\200\212\273"
 141      F563D30F 
 141      D6206EDC 
 141      55420AE2 
 141      EC808ABB 
 142 0100 85C66B10 		.ascii	"\205\306k\020\355\233N\274\351\354]\340\356b@\177>\221"
 142      ED9B4EBC 
 142      E9EC5DE0 
 142      EE62407F 
 142      3E91
 143 0112 BD24     		.ascii	"\275$"
 144              		.text
 145              		.section	.gnu.lto_.refs.9c427744d24026c3,"",%progbits
 146 0000 789C6362 		.ascii	"x\234cb`bpe\200\000&\006&F&&If I\"ddab\005B\006&f\006"
 146      60627065 
 146      80002606 
 146      26462626 
 146      49662049 
 147 001f 002AF400 		.ascii	"\000*\364\000\324"
 147      D4
 148              		.text
 149              		.section	.gnu.lto_.decls.9c427744d24026c3,"",%progbits
 150 0000 789CBD5B 		.ascii	"x\234\275[\177t\024\325\275\277w6\331\037I\212TO-\364"
 150      7F7414D5 
 150      BDBF7736 
 150      D91F498A 
 150      544F2DF4 
 151 0014 97ABADAD 		.ascii	"\227\253\255\255\257O\211(U<\247\247\320r\216\332_\366"
 151      AF4F8928 
 151      553CA7A7 
 151      D0728EDA 
 151      5FF6
 152 0026 BCF7E839 		.ascii	"\274\367\3509\375o\0356C\262m\366Ggg\011\266\177t\022"
 152      FD6F1D36 
 152      43B26DF6 
 152      47676709 
 152      B67F7412 
 153 003a 3044A115 		.ascii	"0D\241\025L5\001A\002\"\024\036D\"H\244D\030\255l\243"
 153      4C350141 
 153      0222141E 
 153      442248A4 
 153      4418AD6C 
 154 004f E521BF1E 		.ascii	"\345!\277\036`[C\004#\261P\014\305\024\342\017\322\357"
 154      605B4304 
 154      23B1500C 
ARM GAS  /tmp/cc0Z7oom.s 			page 12


 154      C514E20F 
 154      D2EF
 155 0061 BD776677 		.ascii	"\275wfw\356\354\314\356\314\242\235\223\231\2713{\357"
 155      EEECCCEE 
 155      CCA29D93 
 155      99B9337B 
 155      EF
 156 0072 E7FBF37E 		.ascii	"\347\373\363~\357\367\336\271\021\220\200n\306\010\215"
 156      EFF7DEB9 
 156      1190806E 
 156      C6088D
 157 0081 C331341D 		.ascii	"\30314\035\241\373\375\010\371\020B\337B\371#\010\347"
 157      A1FBFD08 
 157      F91042DF 
 157      42F92308 
 157      E7
 158 0092 1A38D7C3 		.ascii	"\0328\327\303\271\021\316-P\37798w\301\271\007\316\227"
 158      B911CE2D 
 158      50FF3938 
 158      77C1B907 
 158      CE97
 159 00a4 E1AC80F7 		.ascii	"\341\254\200\367\177\204\373+p\236\204\363\022F\334"
 159      7F84FB2B 
 159      709E84F3 
 159      1246DC
 160 00b3 41DA0334 		.ascii	"A\332\0034\022\004\2046\303\335\007\367\001\250S\011"
 160      12048436 
 160      C3DD07F7 
 160      01A85309 
 161 00c3 E54D7092 		.ascii	"\345Mp\222\352o\300E\320\353\022:\202\011\323|\020>"
 161      EA6FC045 
 161      D0EB123A 
 161      8209D37C 
 161      103E
 162 00d5 AE81F319 		.ascii	"\256\201\363\031x?\001\3565\210\341\020\036f\300\331"
 162      783F01EE 
 162      3588E110 
 162      1E66C0D9 
 163 00e5 4BCAD078 		.ascii	"K\312\320x/\301\327\351\355\204\362\0168\375\360\254"
 163      2FC1D7E9 
 163      ED84F20E 
 163      38FDF0AC 
 164 00f5 C13D00F7 		.ascii	"\301=\000\367n\270\007\341\336\247\343\373u\354\227"
 164      6EB807E1 
 164      DEA7E3FB 
 164      75EC97
 165 0104 75F9886C 		.ascii	"u\371\210l[t9\015^B\002\317\313u\350IU;0\370\340\311"
 165      5B74390D 
 165      5E4202CF 
 165      CB75E849 
 165      553B30F8 
 166 011a 61BC5CD5 		.ascii	"a\274\\\325\026\252\240F\025\243k\321c*\034]\255\252"
 166      16AAA046 
 166      15A36BD1 
 166      632A1C5D 
 166      ADAA
 167 012c 8A15117F 		.ascii	"\212\025\021\177\3533\350'X\304\023B(L\0135!\312+B\""
ARM GAS  /tmp/cc0Z7oom.s 			page 13


 167      EB33E827 
 167      58C41342 
 167      284C0B35 
 167      21CA2B42 
 168 0141 5E8BAFD5 		.ascii	"^\213\257\325K?\3661D\001\335\200\321\327\321Fh\277"
 168      4B3FF631 
 168      4401DD80 
 168      D1D7D146 
 168      68BF
 169 0153 54555FFA 		.ascii	"TU_\372,\262;\276\212\236&\004\324\337\251>\012O\000"
 169      2CB23BBE 
 169      8A9E2604 
 169      D4DFA93E 
 169      0A4F00
 170 0166 D6E0EBCC 		.ascii	"\326\340\353\314UD\374\024\346\230e\254j+\2625K\233"
 170      5544FC14 
 170      E69865AC 
 170      6A2BB235 
 170      4B9B
 171 0178 07C7C757 		.ascii	"\007\307\307W\207\031u\001}\003C\345u\370\353E\321\327"
 171      87197501 
 171      7D0343E5 
 171      75F8EB45 
 171      D1D7
 172 018a 5BD13714 		.ascii	"[\3217\024\242\017.\035\354h=\335\214\227-\350\352W"
 172      A20F2E1D 
 172      EC683DDD 
 172      8C972DE8 
 172      EA57
 173 019c 47C6C7AF 		.ascii	"G\306\307\257\362\240\210M\272\"|T\325\250\032=\254"
 173      F2A0884D 
 173      BA227C54 
 173      D5A81A3D 
 173      AC
 174 01ad AA2DA4E1 		.ascii	"\252-\244\341\275\375\023\256F\313\010J\270\355\024"
 174      BDFD13AE 
 174      46CB084A 
 174      B8ED14
 175 01bc 58400750 		.ascii	"X@\007P\005\003!\014\325oD\353@]\332\330y\014Rm\301"
 175      0503210C 
 175      D56F44EB 
 175      405DDAD8 
 175      790C526D 
 176 01d1 5703483D 		.ascii	"W\003H=/Ui\014\001eH\223\255\320\2325\244\240\252\266"
 176      2F55690C 
 176      01654893 
 176      ADD09A35 
 176      A4A0AAB6 
 177 01e5 A7B546AD 		.ascii	"\247\265F\255`\357\221EQ\246\343z\324\005\014k\007\263"
 177      60EF9145 
 177      51A6E37A 
 177      D4050C6B 
 177      07B3
 178 01f7 2B27AB5D 		.ascii	"+'\253]/a\216\177\213\026fT;j\3419^\013!\324\226GA\266"
 178      2F618E7F 
 178      8B166654 
 178      3B6AE139 
ARM GAS  /tmp/cc0Z7oom.s 			page 14


 178      5E0B21D4 
 179 020f AD98E483 		.ascii	"\255\230\344\203\355\017\037\275\200[\000_\304\2758"
 179      ED0F1FBD 
 179      805B005F 
 179      C4BD38
 180 021e 04ADB763 		.ascii	"\004\255\267c^~\021W\206x\003\302\263Q\201\340\321\237"
 180      5E7E1157 
 180      867803C2 
 180      B35181E0 
 180      D19F
 181 0230 F5028906 		.ascii	"\365\002\211\006W\231\235\022\025%~q\361\216\377P\325"
 181      57999D12 
 181      15257E71 
 181      F18EFF50 
 181      D5
 182 0241 A088B783 		.ascii	"\240\210\267\203\334\002\364\177\2364\247\013&\243\223"
 182      DC02F47F 
 182      9E34A70B 
 182      26A393
 183 0250 FC7D0060 		.ascii	"\374}\000`\257\342\202\337\004\364.6\354e\007\247\027"
 183      AFE282DF 
 183      04F42E36 
 183      EC6507A7 
 183      17
 184 0261 39E6CDB6 		.ascii	"9\346\315\266R\301W\377\177\031~j\201\332\266\300\177"
 184      52C157FF 
 184      7F197E6A 
 184      81DAB6C0 
 184      7F
 185 0272 0D7A9458 		.ascii	"\015z\224XH\363\233\335c\246\201\021\244\344\336\247"
 185      48F39BDD 
 185      63A68111 
 185      A4E4DEA7 
 186 0282 E4F6E06B 		.ascii	"\344\366\340kx\367h\317\372\302\354ui\357x\254\365\221"
 186      78F768CF 
 186      FAC2EC75 
 186      69EF78AC 
 186      F591
 187 0294 CFA95D4B 		.ascii	"\317\251]K&\351v\325Z\3256\334\334\363\005{\212\272"
 187      26E976D5 
 187      5AD536DC 
 187      DCF3057B 
 187      8ABA
 188 02a6 72571D3A 		.ascii	"rW\035:\267F\267\354\037\250e\237\021x\365z\001\033"
 188      B746B7EC 
 188      1FA8659F 
 188      1178F57A 
 188      011B
 189 02b8 6D7FED45 		.ascii	"m\177\355E\035,K\301\216\227\017\326\325~\354\013\244"
 189      1D2C4BC1 
 189      8E970FD6 
 189      D57EEC0B 
 189      A4
 190 02c9 63BC4281 		.ascii	"c\274B\201\036\361Y\375-d\361\267\020\357o\241P\276"
 190      1EF159FD 
 190      2D64F1B7 
 190      10EF6FA1 
ARM GAS  /tmp/cc0Z7oom.s 			page 15


 190      50BE
 191 02db 306E1C7C 		.ascii	"0n\034|\244\377D\333\010h\205\3170\250\235\220.\374"
 191      A4FF44DB 
 191      086885CF 
 191      30A89D90 
 191      2EFC
 192 02ed 27BBEFBF 		.ascii	"'\273\357\277\232!\350\373\364\330\3225\323\324I9,\302"
 192      9A21E8FB 
 192      F4D8D235 
 192      D3D44939 
 192      2CC2
 193 02ff D67E6B5C 		.ascii	"\326~k\\\351\310\222`\265\337EXQ\265\325\331?a\365\321"
 193      E9C89260 
 193      B5DF4558 
 193      51B5D5D9 
 193      3F61F5D1 
 194 0313 1ADD4DBB 		.ascii	"\032\335M\273\374N\321\200 \035\264z\350\362\254\020"
 194      FC4ED180 
 194      201DB47A 
 194      E8F2AC10 
 195 0323 66AF4B7B 		.ascii	"f\257K{\350\023\255\253\012\343\027\247\244\002zG\240"
 195      E813ADAB 
 195      0AE317A7 
 195      A4027A47 
 195      A0
 196 0334 B27E08A8 		.ascii	"\262~\010\250\213\352\364\240C\365R:m\321V\302\350$"
 196      8BEAF4A0 
 196      43F5523A 
 196      6DD156C2 
 196      E824
 197 0346 8A78330D 		.ascii	"\212x3\015$O\227\013\226;\004\264\211b\354/3H\264h="
 197      244F970B 
 197      963B04B4 
 197      8962EC2F 
 197      3348B468 
 198 035b 7A4037E2 		.ascii	"z@7\342\352f\317x\341\002\236z\312u<\023\3066\237%\370"
 198      EA66CF78 
 198      E1029E7A 
 198      CA753C13 
 198      C6369F25 
 199 0370 D961049D 		.ascii	"\331a\004\235\344R\265\343w/\025\2151\321\344M\220\274"
 199      E452B5E3 
 199      772F158D 
 199      31D1E44D 
 199      90BC
 200 0382 E86D27A2 		.ascii	"\350m'\242\\\324x\357\211;HG\037\240\343\352\033>\373"
 200      5CD478EF 
 200      893B4847 
 200      1FA0E3EA 
 200      1B3EFB
 201 0395 81D51144 		.ascii	"\201\325\021D@C\264\311\233\326\016pA\014\263\267\245"
 201      4043B4C9 
 201      9BD60E70 
 201      410CB3B7 
 201      A5
 202 03a6 FD7F7428 		.ascii	"\375\177t(\004\356oC\312.\310\275\260\372\3102\274\220"
 202      04EE6F43 
ARM GAS  /tmp/cc0Z7oom.s 			page 16


 202      CA2EC8BD 
 202      B0FAC832 
 202      BC90
 203 03b8 06B921CA 		.ascii	"\006\271!\312\362\343\025\266,;\367W\001\255\247M\206"
 203      F2E315B6 
 203      2C3BF757 
 203      01ADA74D 
 203      86
 204 03c9 2D2C0F9E 		.ascii	"-,\017\2368uiJ\247\252Nd?\225\356N\347\027\333t'\333"
 204      3875694A 
 204      A7AA4E64 
 204      3F95EE4E 
 204      E717DB74 
 205 03df 54C46FD0 		.ascii	"T\304o\320\277?/H\337\211\031D\357\177\247B\374\305"
 205      BF3F2F48 
 205      DF891944 
 205      EF7FA742 
 205      FCC5
 206 03f1 5E882228 		.ascii	"^\210\"(\002z\213\266\031)\224\342\300t&\305\210+):"
 206      027A8BB6 
 206      192994E2 
 206      C07426C5 
 206      882B293A 
 207 0405 7EB34AEF 		.ascii	"~\263J\357\003gi\277<\227\203-\257O\255\330O;9\003\033"
 207      036769BF 
 207      3C97832D 
 207      AF4FADD8 
 207      4F3B3903 
 208 041a F50C16E6 		.ascii	"\365\014\026\346\300V\357g\035\324}\2564vZ\233\364\002"
 208      C056EF67 
 208      1DD47DAE 
 208      34765A9B 
 208      F402
 209 042c 15FF124B 		.ascii	"\025\377\022K\225*m\307@\027H\243\355{\215\341\364\003"
 209      952A6DC7 
 209      401748A3 
 209      ED7B8DE1 
 209      F403
 210 043e 0AD55736 		.ascii	"\012\325W6T{G\337]4\207\272L\201\366VZ\207\323\200e"
 210      547B47DF 
 210      5D3487BA 
 210      4C81F656 
 210      5A87D380 
 211 0453 380DF0C3 		.ascii	"8\015\360\303\\ \224/\350\351\333'[]@\007*]X\3169\004"
 211      5C20942F 
 211      E8E9DB27 
 211      5B5D4007 
 211      2A5D58CE 
 212 0469 0D0E9CD2 		.ascii	"\015\016\234\322\356Zn\036?\035\2075\001\035\243\264"
 212      EE5A6E1E 
 212      3F1D8735 
 212      011DA3B4 
 213 0479 1608164F 		.ascii	"\026\010\026O^uh_\013n\246\006 \277\225v\345\347^\355"
 213      5E75685F 
 213      0B6EA606 
 213      20BF9576 
 213      E5E75EED 
ARM GAS  /tmp/cc0Z7oom.s 			page 17


 214 048d 70EE9026 		.ascii	"p\356\220&\362]\271\251\301W(\375\023\224~\233\225~"
 214      F25DB9A9 
 214      C15728FD 
 214      13947E9B 
 214      957E
 215 049f EFBBC333 		.ascii	"\357\273\3033XOjsE\376\340\241\337\332\015\257\016\363"
 215      584F6A73 
 215      45FEE0A1 
 215      DFDA0DAF 
 215      0EF3
 216 04b1 A25C06F8 		.ascii	"\242\\\006\370\366y]\310%\002\3512\235~\253s\314\250"
 216      F6795DC8 
 216      2502E932 
 216      9D7EAB73 
 216      CCA8
 217 04c3 3613A3CF 		.ascii	"6\023\243\317\\\252\274\306o\260_V\217\0059\373\277"
 217      5CAABCC6 
 217      6FB05F56 
 217      8F0539FB 
 217      BF
 218 04d4 B7F15955 		.ascii	"\267\361YU}\310o\360\260\3163b\230\323\304\221C4\006"
 218      7DC86FF0 
 218      B0CE3362 
 218      98D3C491 
 218      433406
 219 04e7 30B00D6E 		.ascii	"0\260\015n\300\034=\251E;j\006\333\344\031\214\347\354"
 219      C01C3DA9 
 219      453B6A06 
 219      DBE4198C 
 219      E7EC
 220 04f9 B8196C8B 		.ascii	"\270\031l\213\033\260\211\316\234\375\331\014\266\325"
 220      1BB089CE 
 220      9CFDD90C 
 220      B6D5
 221 0507 3318CFD9 		.ascii	"3\030\317\331_\315`\333\334\200Mr\346l\300\014\326\353"
 221      5FCD60DB 
 221      DC804D72 
 221      E66CC00C 
 221      D6EB
 222 0519 198CE76C 		.ascii	"\031\214\347l\304\014\266\313\015X\330\206\263\334\341"
 222      C40CB6CB 
 222      0D58D886 
 222      B3DCE1
 223 0528 946A2E12 		.ascii	"\224j.\022L\251\346n\277\021\022\312\317\016_\362{\015"
 223      4CA9E66E 
 223      BF1112CA 
 223      CF0E5FF2 
 223      7B0D
 224 053a 619CDC64 		.ascii	"a\234\334d$\275\353\367z\277`\303Y\277\033\304\"\016"
 224      24BDEBF7 
 224      7ABF60C3 
 224      59BF1BC4 
 224      220E
 225 054c B3C33C36 		.ascii	"\263\303<6\036\360\014\306\233\345\010\001\343b\215"
 225      1EF00CC6 
 225      9BE50801 
 225      E3628D
ARM GAS  /tmp/cc0Z7oom.s 			page 18


 226 055b 3E200D3E 		.ascii	"> \015>\255M\352\314G\273\240\201E\346R,\264-UU!WY\235"
 226      AD4DEACC 
 226      47BBA081 
 226      45E6522C 
 226      B42D5555 
 227 0573 34C9BEAE 		.ascii	"4\311\276\256\2107\0127\222\325\033!\224\343\202\225"
 227      88370A37 
 227      92D51B21 
 227      94E38295 
 228 0583 8D129B6A 		.ascii	"\215\022\233j\035\367[\326\360\214\243TS'O\330`\366"
 228      1DF75BD6 
 228      F08CA354 
 228      53274FD8 
 228      60F6
 229 0595 8437DCA8 		.ascii	"\2047\334\250\251HW\030)P\023\233k;\021\3576\023\177"
 229      A9485718 
 229      2950139B 
 229      6B3B11EF 
 229      36137F
 230 05a8 CB3371DE 		.ascii	"\3133q\336F\037\354_\371YuP\303&e\027\265\014\311_\206"
 230      461FEC5F 
 230      F9597550 
 230      C3266517 
 230      B50CC95F 
 231 05bd 8FE10574 		.ascii	"\217\341\005t<\350\021H\262\360\256\3376\353p\0015\332"
 231      3CE81148 
 231      B2F0AEDF 
 231      36EB7001 
 231      35DA
 232 05cf BEE53FD9 		.ascii	"\276\345?\331\312\015\005\272T6P{\307\223\323)P/\005"
 232      CA0D05BA 
 232      5436507B 
 232      C793D329 
 232      502F05
 233 05e2 5203D611 		.ascii	"R\003\326\021\012[\322\027\314'\0308\224/\024\314\350"
 233      0A5BD217 
 233      CC271838 
 233      942F14CC 
 233      E8
 234 05f3 3FC6BA02 		.ascii	"?\306\272\002z8`\261\027'N\221\350\224\353\362\375\337"
 234      7A3860B1 
 234      17274E91 
 234      E894EBF2 
 234      FDDF
 235 0605 DCD9ADAA 		.ascii	"\334\331\255\252\013\374^,6hX\254\217\352\347\321\002"
 235      0BFC5E2C 
 235      366858AC 
 235      8FEAE7D1 
 235      02
 236 0616 FD6C17BC 		.ascii	"\375l\027\274)H@+<\013\022\264\0102R\206 #\206 /RA\326"
 236      2948402B 
 236      3C0B12B4 
 236      08325286 
 236      20238620 
 237 062e 7E0C826C 		.ascii	"~\014\202l\362,\310D\223 d:\323\177\337N\032\204]\255"
 237      F22CC844 
 237      9320643A 
ARM GAS  /tmp/cc0Z7oom.s 			page 19


 237      D37FDF4E 
 237      1A845DAD 
 238 0642 8F6405CB 		.ascii	"\217d\005\313\372\310\350kd!\206\274.=\021m?d\232m\250"
 238      FAC8E86B 
 238      642186BC 
 238      2E3D116D 
 238      3F649A6D 
 239 0657 EE661BFD 		.ascii	"\356f\033\375\372l\343\025\252\261\236\200M\037s\203"
 239      FA6CE315 
 239      AAB19E80 
 239      4D1F7383 
 240 0667 D4357AF8 		.ascii	"\3245z\3703d:\270\217\302\364\226\0133\330~\254\227"
 240      33643AB8 
 240      8FC2F496 
 240      0B33D87E 
 240      AC97
 241 0679 75D5D728 		.ascii	"u\325\327(\320\236\002\013\372-\006\364\363\006\204"
 241      D09E020B 
 241      FA2D06F4 
 241      F30684
 242 0688 4742E912 		.ascii	"GB\351\022]G\373\225\376\206<\004\320\277\275\235\200"
 242      5D47FB95 
 242      FE863C04 
 242      D0BFBD9D 
 242      80
 243 0699 5EA1EC13 		.ascii	"^\241\354\023\343\225\223\331\022\347\321\276\273S\037"
 243      E39593D9 
 243      12E7D1BE 
 243      BB531F
 244 06a8 C199810E 		.ascii	"\301\231\201\016\\\021b\213\266\347Qc\266<\203\214\341"
 244      5C11628B 
 244      B6E75163 
 244      B63C838C 
 244      E1
 245 06b9 AF5F211C 		.ascii	"\257_!\034M\372\270\301\3112R\375\335a\350\311\255\206"
 245      4DFAB8C1 
 245      C93252FD 
 245      DD61E8C9 
 245      AD86
 246 06cb 648D39EA 		.ascii	"d\2159\352\3534=\033,0\370Yl\231>\234\345\227\332\235"
 246      EB343D1B 
 246      2C30F859 
 246      6C993E9C 
 246      E597DA9D 
 247 06df 7AD271F3 		.ascii	"z\322q\3638x\341\312\344$\341\350\373,\225*57\273\337"
 247      3878E1CA 
 247      E424E1E8 
 247      FB2C952A 
 247      3537BBDF 
 248 06f3 40ABA184 		.ascii	"@\253\241\204\307(\341\023\005S\303\265o\266\352r\237"
 248      C728E113 
 248      0553C3B5 
 248      6FB6EA72 
 248      9F
 249 0704 70313753 		.ascii	"p17S\265\277\3205&c\315hc\320@\325\251\3164\247\203"
 249      B5BFD035 
 249      2663CD68 
ARM GAS  /tmp/cc0Z7oom.s 			page 20


 249      63D040D5 
 249      A9CE34A7 
 250 0719 25FD4A1B 		.ascii	"%\375J\033\220\372o\365\022$\206\365 1\304\202D\320"
 250      90FA6FF5 
 250      122486F5 
 250      2031C482 
 250      44D0
 251 072b 6AA37DD6 		.ascii	"j\243}\326\260\352\251\227\364Z\245q;\301\312\035N>"
 251      B0EAA997 
 251      F45AA571 
 251      3BC1CA1D 
 251      4E3E
 252 073d 3060F681 		.ascii	"0`\366\201\027\202W\352\003\227~`\343\003l\225\320\211"
 252      178257EA 
 252      03977E60 
 252      E3036C95 
 252      D089
 253 074f 8333660E 		.ascii	"\2033f\016^\2762\016\264=\207\275\257&\035\327Mw\216"
 253      5EBE320E 
 253      B43D87BD 
 253      AF261DD7 
 253      4D778E
 254 0762 9AEE4F05 		.ascii	"\232\356O\005\246\373\300\232\373\270Y\\9V\256 \271"
 254      A6FBC09A 
 254      FBB8595C 
 254      3956AE20 
 254      B9
 255 0773 43400341 		.ascii	"C@\003A\027\251i\2307\257\311\207I\227\324\007\326\222"
 255      17A96998 
 255      37AFC987 
 255      4997D407 
 255      D692
 256 0785 2B3446B0 		.ascii	"+4F\2609\261\257Y_z}O \335\350\244E\033.\226z\316\323"
 256      39B1AF59 
 256      5F7A7D4F 
 256      20DDE8A4 
 256      451B2E96 
 257 079c 2617ADFD 		.ascii	"&\027\255\375\031\002\265\276\364z\321\325R\313\341"
 257      1902B5BE 
 257      F47AD1D5 
 257      52CBE1
 258 07ab C5E6454B 		.ascii	"\305\346EK\340\007\013:l\271\012\345l\230\347O\304c"
 258      E0070B3A 
 258      6CB90AE5 
 258      6C98E74F 
 258      C463
 259 07bd 740EF4BE 		.ascii	"t\016\364\276p\275Y\371\315!\027\312\277\311\311\023"
 259      70BD59F9 
 259      CD2117CA 
 259      BFC9C913 
 260 07cd 556DEC   		.ascii	"Um\354"
 261 07d0 F04ACCF8 		.ascii	"\360J\314\370g\001i\261\025\317. qx\2341\265\245G\351"
 261      670169B1 
 261      15CF2E20 
 261      71789C31 
 261      B5A547E9 
 262 07e4 C4928D71 		.ascii	"\304\222\215q\217\273a\356V'\260\026m%\003c\036\277"
ARM GAS  /tmp/cc0Z7oom.s 			page 21


 262      8FBB61EE 
 262      5627B016 
 262      6D250363 
 262      1EBF
 263 07f6 D20DD874 		.ascii	"\322\015\330t'I[\264]\217\033\226:\303V\203<\343\361"
 263      27495BB4 
 263      5D8F1B96 
 263      3AC35683 
 263      3CE3F1
 264 0809 CC1D3E6A 		.ascii	"\314\035>j|\262a\353\273=n\360f:\363w\376qn@\357\363"
 264      7CB261EB 
 264      BB3D6EF0 
 264      663AF377 
 264      FE716E40 
 265 081f 0CC71BE2 		.ascii	"\014\307\033\342\243\243\304\260K&\331-\340k\271/'d"
 265      A3A3C4B0 
 265      4B26D92D 
 265      E06BB92F 
 265      2764
 266 0831 C6A877AA 		.ascii	"\306\250w\252\345\335\347'\263\234\373!\037\361\204"
 266      E5DDE727 
 266      B39CFB21 
 266      1FF184
 267 0840 B743A5BF 		.ascii	"\267C\245\277\004\360@\304a\227\370,\237_z\262t_\003"
 267      04F040C4 
 267      6197F82C 
 267      9F5F7AB2 
 267      745F03
 268 0853 795FBA37 		.ascii	"y_\2727m\313z\217\213\375\306T\341\021\0371\303X\350"
 268      6DCB7A8F 
 268      8BFDC654 
 268      E1111F31 
 268      C358E8
 269 0866 63098CCD 		.ascii	"c\011\214\315UX\227\246\2741fy\367\301\311F\302\307"
 269      555897A6 
 269      BC316679 
 269      F7C1C946 
 269      C2C7
 270 0878 186BF58C 		.ascii	"\030k\365\214\310\373\333\016\366\315\222\201-q\003"
 270      C8FBDB0E 
 270      F6CD9281 
 270      2D7103
 271 0887 566429F3 		.ascii	"Vd)\363y\002\346E\313#\372\350\323I\311/\253\372X\224"
 271      7902E645 
 271      CB23FAE8 
 271      D349C92F 
 271      ABFA5894 
 272 089b DCE9590A 		.ascii	"\334\351Y\012N%\240\344w&\357\334\256\252=\367{\331"
 272      4E25A0E4 
 272      7726EFDC 
 272      AEAA3DF7 
 272      7BD9
 273 08ad 9D3076FA 		.ascii	"\2350v\372\200\3412\253\2504+\012\244\311Z\245q\375"
 273      80E132AB 
 273      A8342B0A 
 273      A4C95AA5 
 273      71FD
ARM GAS  /tmp/cc0Z7oom.s 			page 22


 274 08bf B5FF29AB 		.ascii	"\265\377)\253Hv\361\323na\316\3560w'\021\377\332G\342"
 274      4876F1D3 
 274      6E61CEEE 
 274      30772711 
 274      FFDA47E2 
 275 08d3 FF6F7CD7 		.ascii	"\377o|\327\303\265\235^\037\243\327\016z]\351\343\306"
 275      C3B59D5E 
 275      1FA3D70E 
 275      7A5DE9E3 
 275      C6
 276 08e4 85EE2A4B 		.ascii	"\205\356*K\370\340\273\252^\274\3275#\371\257{\"\376"
 276      F8E0BBAA 
 276      5EBCD735 
 276      23F9AF7B 
 276      22FE
 277 08f6 07268C5C 		.ascii	"\007&\214\\\300\204\354(\275^\244\327\026\201\\\327"
 277      C084EC28 
 277      BD5EA4D7 
 277      16815CD7 
 278 0906 D2EB3A7A 		.ascii	"\322\353:z]O\257[\350u+\275\356\242W\215^\367\322\353"
 278      5D4FAF5B 
 278      E8752BBD 
 278      EEA2578D 
 278      5EF7D2EB 
 279 091a 057AFD90 		.ascii	"\005z\375\220^/\323\253J\005j\241\327\205\364\332J\257"
 279      5E2FD3AB 
 279      4A056AA1 
 279      D785F4DA 
 279      4AAF
 280 092c 6D66119D 		.ascii	"mf\021\235\3624\313\244\302\030\221\207\313\375\214"
 280      F234CBA4 
 280      C2189187 
 280      CBFD8C
 281 093b 48E6FDB5 		.ascii	"H\346\375\265\346\305W\021\377\3233b\270\230j\207M\252"
 281      E6C55711 
 281      FFD33362 
 281      B8986A87 
 281      4DAA
 282 094d FD1B55ED 		.ascii	"\375\033U\355\031\252\316\265\274EwT\031\237\267\313"
 282      19AACEB5 
 282      BC457754 
 282      199FB7CB 
 283 095d 992AB40C 		.ascii	"\231*\264\014\276\367\304n\356\363\352n+\236\307\020"
 283      BEF7C46E 
 283      EEF3EA6E 
 283      2B9EC710 
 284 096d F2214C3D 		.ascii	"\362!L=,\371\363@\221\374y\203\317\224?g=\323.\252\301"
 284      2CF9F340 
 284      91FC7983 
 284      CF943F67 
 284      3DD32EAA 
 285 0982 374D1A3C 		.ascii	"7M\032<E5\370\026\325\340:\3526\353y=\376_\225eK\003"
 285      4535F816 
 285      D5E03AEA 
 285      36EB793D 
 285      FE5F9565 
 286 0998 BF8FC073 		.ascii	"\277\217\300s\027\335j\"\376,%\276\215\022\337M\257"
ARM GAS  /tmp/cc0Z7oom.s 			page 23


 286      17DD6A22 
 286      FE2C25BE 
 286      8D12DF4D 
 286      AF
 287 09a9 6F60173E 		.ascii	"o`\027>\2739?3\326\267\344\031\337\332r\217\275,\"q"
 287      BB393F33 
 287      D6B7E419 
 287      DFDA728F 
 287      BD2C2271 
 288 09bd 7BE50474 		.ascii	"{\345\004t\330\022\271\014\2366\373\354vM.\357=\370"
 288      D812B90C 
 288      9E36FBEC 
 288      764D2EEF 
 288      3DF8
 289 09cf F9CE67D5 		.ascii	"\371\316g\325\205\017\251\227\307\177\205\271\355\202"
 289      850FA997 
 289      C77F85B9 
 289      ED82
 290 09dd 41B488AE 		.ascii	"A\264\210\256\315=\2506\343\237\347\030uX\260\027\361"
 290      CD3DA836 
 290      E39FE718 
 290      7558B017 
 290      F1
 291 09ee 33BE2059 		.ascii	"3\276 Y~\255v\\n'\025\014\211Y\331(\025Ym\357\366q\333"
 291      7EAD765C 
 291      6E27150C 
 291      8959D928 
 291      15596DEF 
 292 0a05 12E91EC1 		.ascii	"\022\351\036\301\\YG\264(\240\265\332^\001\333m\025"
 292      5C5947B4 
 292      28A0B5DA 
 292      5E01DB6D 
 292      15
 293 0a16 D0913DBB 		.ascii	"\320\221=\273\306y\333ho\221\265\370\035V\326\210\311"
 293      C679DB68 
 293      6F91B5F8 
 293      1D56D688 
 293      C9
 294 0a27 EC369116 		.ascii	"\3546\221\026\207\331\351\253\346\330\344diw\220\345"
 294      87D9E9AB 
 294      E6D8E464 
 294      697790E5 
 295 0a37 F776B268 		.ascii	"\367v\262h=\213\226LV\327\264h\343\3433<\354\177\355"
 295      3D8B964C 
 295      56D7B468 
 295      E3E3333C 
 295      EC7FED
 296 0a4a B3CA413F 		.ascii	"\263\312A?\341rlt9\260\261\333\226\215\325\177td\243"
 296      E1726C74 
 296      39B0B1DB 
 296      968DD57F 
 296      7464A3
 297 0a5d C80654AD 		.ascii	"\310\006T\255\210:\235|\375\177\035\370\372\203\255"
 297      883A9D7C 
 297      FD7F1DF8 
 297      FA83AD
 298 0a6c A92F2E1E 		.ascii	"\251/.\036*\323\324{}\205{\245{\035hgy\3327\2405d\233"
ARM GAS  /tmp/cc0Z7oom.s 			page 24


 298      2AD3D47B 
 298      7D857BA5 
 298      7B1D6867 
 298      79DA37A0 
 299 0a83 F6D08A0E 		.ascii	"\366\320\212\016\222z\303lr|\374:c\243p\177\016\302"
 299      927AC36C 
 299      727CFC3A 
 299      63A3707F 
 299      0EC2
 300 0a95 083BDCB6 		.ascii	"\010;\334\266`\202\326\237G#H\264\307\276x\313\256\026"
 300      6082D69F 
 300      472348B4 
 300      C7BE78CB 
 300      AE16
 301 0aa7 75610FF0 		.ascii	"ua\017\360>\216\307g\350+\317|\016\2362p\332&Pf\017"
 301      3E8EC767 
 301      E82BCF7C 
 301      0E9E3270 
 301      DA265066 
 302 0abc 514AAFFA 		.ascii	"QJ\257\372,\353\317\035t\007)y]z\221\352\271l\225zR"
 302      2CEBCF1D 
 302      74072979 
 302      5D7A91EA 
 302      B96C957A 
 303 0ad1 C3B6293F 		.ascii	"\303\266)?O\216\3569\264\346\374\313\331\236C\027)\277"
 303      4F8EEE39 
 303      B4E6FCCB 
 303      D99E4317 
 303      29BF
 304 0ae3 AA3DC148 		.ascii	"\252=\301H}\032-5Hq_\305\264k\015r\303\202N\356\240"
 304      7D1A2D35 
 304      48715FC5 
 304      B46B0D72 
 304      C3824EEE 
 305 0af8 EFD3B4C4 		.ascii	"\357\323\264\304\255{\321*N&=\344\313\177\374\253\011"
 305      AD7BD12A 
 305      4E263DE4 
 305      CB7FFCAB 
 305      09
 306 0b09 E50B37E7 		.ascii	"\345\0137\347\234\353\004\325\331\376|\332f\241[jxU"
 306      9CEB04D5 
 306      D9FE7CDA 
 306      66A15B6A 
 306      7855
 307 0b1b B595772F 		.ascii	"\265\225w/m\255a\314\011\350\244;8]$[\274'\315xC\356"
 307      6DAD61CC 
 307      09E8A43B 
 307      385D245B 
 307      BC27CD78 
 308 0b31 F00E543A 		.ascii	"\360\016T:\343m5\343\015\273\303{\276\310\316\276g\315"
 308      E36D35E3 
 308      0DBBC37B 
 308      BEC8CEBE 
 308      67CD
 309 0b43 7867DCE1 		.ascii	"xg\334\341uU\333\340\345\016\001\235\313y\256\275\263"
 309      7555DBE0 
 309      E50E019D 
ARM GAS  /tmp/cc0Z7oom.s 			page 25


 309      CB79AEBD 
 309      B3
 310 0b54 95B6426F 		.ascii	"\225\266Bo\366\327\230|\3464\334\251s\002\373T\344\354"
 310      F6D7987C 
 310      E634DCA9 
 310      7302FB54 
 310      E4EC
 311 0b66 BC039EBD 		.ascii	"\274\003\236\275\351\204\2037-\232\220\023\344|\371"
 311      E9848337 
 311      2D9A9013 
 311      E47CF9
 312 0b75 8298D471 		.ascii	"\202\230\324q\311\0322l\330\177\223\217\031[\265\301"
 312      C91A326C 
 312      D87F938F 
 312      195BB5C1 
 313 0b85 BDDDEF54 		.ascii	"\275\335\357T\220\375\302\252\372!\314I\014M\220]\210"
 313      90FDC2AA 
 313      FA21CC49 
 313      0C4D905D 
 313      88
 314 0b96 B9814ACB 		.ascii	"\271\201J\313\257x\203\326p\221=\225\037\001\013%\267"
 314      AF7883D6 
 314      70913D95 
 314      1F010B25 
 314      B7
 315 0ba7 5E8AF86D 		.ascii	"^\212\370m\037\311\210O[\342\000\204\257\327\027\351"
 315      1FC9884F 
 315      5BE20084 
 315      AFD717E9 
 316 0bb7 5B8A4EBB 		.ascii	"[\212N\273\232\377\217}\324\217\351\352\370\006\272"
 316      9AFF8F7D 
 316      D48FE9EA 
 316      F806BA
 317 0bc6 44D35A83 		.ascii	"D\323Z\203u\330\262Rw\355\203w(\234e\200^[\344?\003"
 317      75D8B252 
 317      77ED8377 
 317      289C6580 
 317      5E5BE43F 
 318 0bdb CE9AB3D4 		.ascii	"\316\232\263\324\305\236\311\2079\362$Cf\2200cv\203"
 318      C59EC987 
 318      39F22443 
 318      66903063 
 318      7683
 319 0bed 5524DBBE 		.ascii	"U$\333\276l\302Z\341\031+lQ\267a\007\021\277CS\3443"
 319      6CC25AE1 
 319      192B6C51 
 319      B7610711 
 319      BF4353E4 
 320 0c02 F47A8E5E 		.ascii	"\364z\216^GJ\317\262,\012\035r\340\204\340\377\203\313"
 320      474ACFB2 
 320      2C0A1D72 
 320      E084E0FF 
 320      83CB
 321 0c14 784C9033 		.ascii	"xL\2203yFMn\312\032\331W\203\351\242\347\376\372\236"
 321      79464D6E 
 321      CA1AD957 
 321      83E9A2E7 
ARM GAS  /tmp/cc0Z7oom.s 			page 26


 321      FEFA9E
 322 0c27 437F3527 		.ascii	"C\1775'\257\371Z\344ks\215\245\337\02501\252\367\272"
 322      AFF95AE4 
 322      6B738DA5 
 322      DF153031 
 322      AAF7BA
 323 0c3a 69689BDA 		.ascii	"ih\233\332\246\301Xw\012\270\312\331\355\227\350}\265"
 323      A6C15877 
 323      0AB8CAD9 
 323      ED97E87D 
 323      B5
 324 0c4b 1372E967 		.ascii	"\023r\351g&3QH\307\0349\240\275\360\360*H\013ZT\310"
 324      26335148 
 324      C71C39A0 
 324      BDF0F02A 
 324      480B5A54 
 325 0c60 BEC731D3 		.ascii	"\276\3071\323\032\314\323\255\264\370\256E\210\215q"
 325      1ACCD3AD 
 325      B4F8AE45 
 325      888D71
 326 0c6f C466B296 		.ascii	"\304f\262\226\314r\214\222\266\347U~\253\2379\372m2"
 326      CC728C92 
 326      B6E7557E 
 326      AB9F39FA 
 326      6D32
 327 0c81 45BF5CC6 		.ascii	"E\277\\\306q\223\016\375\221ge^vP\346\327\212:\014\314"
 327      71930EFD 
 327      9167655E 
 327      7650E6D7 
 327      8A3A0CCC 
 328 0c95 EFF37EF0 		.ascii	"\357\363~\360%\364|\315*\265sf\236<s@\"L\033\344OU\314"
 328      25F47CCD 
 328      2AB57366 
 328      9E3C7340 
 328      224C1BE4 
 329 0cac CF73FF6A 		.ascii	"\317s\377j\306\034\223\340\261\336\311\\T\257}$W\333"
 329      C61C93E0 
 329      B1DEC95C 
 329      54AF7D24 
 329      57DB
 330 0cbe FCAF633A 		.ascii	"\374\257c:\027L\225\206\013Z\274vS\2210\320R\221\343"
 330      174C9586 
 330      0B5ABC76 
 330      539130D0 
 330      5291E3
 331 0cd1 D63AC5CD 		.ascii	"\326:\305\315\033\272\240\325\002\307V$\247tj\265\320"
 331      1BBAA0D5 
 331      02C75624 
 331      A7746AB5 
 331      D0
 332 0ce2 B1D58E22 		.ascii	"\261\325\216\"\255\036tl\245\025i\325\352\330\252\273"
 332      AD1E746C 
 332      A51569D5 
 332      EAD8AABB 
 333 0cf2 48AB458E 		.ascii	"H\253E\216\255\372\212\264j\253\340\026b\302h5\031\240"
 333      ADFA8AB4 
 333      6AABE016 
ARM GAS  /tmp/cc0Z7oom.s 			page 27


 333      62C26835 
 333      19A0
 334 0d04 77BEAA86 		.ascii	"w\276\252\206\303\016\377\356w\335\224)\265\271?EJ+"
 334      C30EFFEE 
 334      77DD9429 
 334      B5B93F45 
 334      4A2B
 335 0d16 B5B242EF 		.ascii	"\265\262B\357\015\222\230\232\022E\325\344>5\222\226"
 335      0D92989A 
 335      1245D5E4 
 335      3E359296 
 336 0d26 944CCA7F 		.ascii	"\224L\312\177\317}?\016\317B\237b\257\244\371R4\243"
 336      CF7D3F0E 
 336      CF429F62 
 336      AFA4F952 
 336      34A3
 337 0d38 485F3603 		.ascii	"H_6\003$\323\244y,\021m\314\324I\265\321\006\012\322"
 337      24D3A479 
 337      2C116DCC 
 337      D449B5D1 
 337      060AD2
 338 0d4b 803E1597 		.ascii	"\200>\025\227\342I\371\201\010y\214(\325\246\247\333"
 338      E249F981 
 338      08798C28 
 338      D5A6A7DB 
 339 0d5b 6A3369B9 		.ascii	"j3i\271\26616\247\266>\032\255\025\345\370-\211dB\272"
 339      B63136A7 
 339      B63E1AAD 
 339      15E5F82D 
 339      896442BA 
 340 0d6f 4512E7C4 		.ascii	"E\022\347\304j\247M\231>\345\266\034XZ\251\253\223\346"
 340      6AA74D99 
 340      3EE5B61C 
 340      585AA9AB 
 340      93E6
 341 0d81 02983F1D 		.ascii	"\002\230?\035\373\205\024Q\276Z\214.P\210&e\011j\327"
 341      FB851451 
 341      BE5A8C2E 
 341      50882665 
 341      096AD7
 342 0d94 40B15E52 		.ascii	"@\261^R\346f\022\321\210R\325\020I\311\311y\261:I\246"
 342      E66612D1 
 342      8852D510 
 342      49C9C979 
 342      B13A49A6 
 343 0da8 721116A0 		.ascii	"r\021\026\240|S!T*)+\351\332o\377\367\017g\375p>\340"
 343      7C532154 
 343      2A292BE9 
 343      DA6FFFF7 
 343      0F67FD70 
 344 0dbe E9605569 		.ascii	"\351`Ui\345gbc\254>\021Q\276H\0317(&\244&\"\003\360"
 344      E5676263 
 344      AC3E1151 
 344      BE481937 
 344      2826A426 
 345 0dd5 184B2850 		.ascii	"\030K(P1\230\201\373\035\323\"\312-v\325\342b\264!\226"
 345      319881FB 
ARM GAS  /tmp/cc0Z7oom.s 			page 28


 345      1DD322CA 
 345      2D76D5E2 
 345      62B42196 
 346 0de9 906A2320 		.ascii	"\220j# \220\230iT\"\312\003))M\360#\021\243a%\245S\221"
 346      90986954 
 346      22CA0329 
 346      294DF023 
 346      11A36125 
 347 0e00 90E62B15 		.ascii	"\220\346+\025\204U\234\251 r\343\006\177Cd\256,I7\024"
 347      84559CA9 
 347      2072E306 
 347      7F4364AE 
 347      2C493714 
 348 0e14 155F990F 		.ascii	"\025_\231\017h\2018\230g~D\011F\033\"\264\370\265bm"
 348      68813898 
 348      677E4409 
 348      461B22B4 
 348      F8B5626D 
 349 0e28 D20FA40D 		.ascii	"\322\017\244\0156\256R\032dPL:\362\363\214\224\001U"
 349      36AE521A 
 349      64504C3A 
 349      F2F38C94 
 349      0155
 350 0e3a 4F0400EE 		.ascii	"O\004\000\356UQ\233\247\243\015uD\005\254ED\011\345"
 350      55519BA7 
 350      A30D7544 
 350      05AC4544 
 350      09E5
 351 0e4c 5AFB5311 		.ascii	"Z\373S\021\"\017\334R\2624\357\316RZO\306S\261FIN\327"
 351      220FDC52 
 351      B234EFCE 
 351      525A4FC6 
 351      53B14649 
 352 0e62 DE336B16 		.ascii	"\3363k\026\340\032\334\005\224\224\034K\202XDU\267\337"
 352      E01ADC05 
 352      94941C4B 
 352      82584455 
 352      B7DF
 353 0e74 0656655A 		.ascii	"\006VeZ#E\012\035K\006\242\311\004\310\253T\023\300"
 353      23450A1D 
 353      4B06A2C9 
 353      04C8AB54 
 353      13C0
 354 0e86 08FC1655 		.ascii	"\010\374\026U\346\337\354\312\310\221yw\306\011\363"
 354      E6DFECCA 
 354      C8917977 
 354      C609F3
 355 0e95 B2540FCE 		.ascii	"\262T\017\316\030Q\004y\232 \177C\220\357\020\344;\005"
 355      18510479 
 355      9A207F43 
 355      90EF10E4 
 355      3B05
 356 0ea7 79BA20DF 		.ascii	"y\272 \337\345\223\247\336\012\347T\241Q\206\333\355"
 356      E593A7DE 
 356      0AE754A1 
 356      5186DBED 
 357 0eb7 95A90880 		.ascii	"\225\251\010\200\007\210dM\222\014\367d#xTE\264A\224"
ARM GAS  /tmp/cc0Z7oom.s 			page 29


 357      0788644D 
 357      920CF764 
 357      23785445 
 357      B44194
 358 0eca 89B8625C 		.ascii	"\211\270b\\\252JE\300m\032c\361\230\022T\322\212\250"
 358      AA4A45C0 
 358      6D1A63F1 
 358      981254D2 
 358      8AA8
 359 0edc 80460384 		.ascii	"\200F\003\204\341\351\240\033\306:\224\002\244\026\374"
 359      E1E9A01B 
 359      C63A9402 
 359      A416FC
 360 0eeb 1650E2C9 		.ascii	"\026P\342\311:\211>\317m\024\353\323\001E\226\346\246"
 360      3A893ECF 
 360      6D14EBD3 
 360      014596E6 
 360      A6
 361 0efc A964A450 		.ascii	"\251d\244P\031O\327\303\217\272\270\320\334\020\\\256"
 361      194FD7C3 
 361      8FBAB8D0 
 361      DC105CAE 
 362 0f0c 7B007E0A 		.ascii	"{\000~\012J\363cJ\024\000\374MJr\316OSW\353F\200\246"
 362      4AF3634A 
 362      1400FC4D 
 362      4A72CE4F 
 362      5357EB46 
 363 0f22 922C25A2 		.ascii	"\222,%\242\000\\\331\244(r\252\006\214\222\226\342b"
 363      005CD9A4 
 363      2872AA06 
 363      8C9296E2 
 363      62
 364 0f33 AA01842E 		.ascii	"\252\001\204.\352KP\213(]\267|e4\001\356Z\231\216\300"
 364      EA4B508B 
 364      285DB77C 
 364      653401EE 
 364      5A998EC0 
 365 0f47 1D68C08F 		.ascii	"\035h\300\217)\270\201\277\245\252\245yRB\211\213\351"
 365      29B881BF 
 365      A5AAA579 
 365      5242898B 
 365      E9
 366 0f58 9F013752 		.ascii	"\237\0017R\023)\370R\221\314\004\303q\032cihy\225\311"
 366      1329F852 
 366      91CC04C3 
 366      711A6369 
 366      687995C9 
 367 0f6c 95C89B50 		.ascii	"\225\310\233P*\322$\306\224X\242\036\324\004\0020\""
 367      2AD224C6 
 367      9458A21E 
 367      D4040230 
 367      22
 368 0f7d B4082FA4 		.ascii	"\264\010/\244\224\224\200\036U\017\265\200\004\251_"
 368      9494801E 
 368      550FB580 
 368      04A95F
 369 0f8c 45D42036 		.ascii	"E\324 6R#\303\313T2\331x}1\356\025\302\374\325J"
ARM GAS  /tmp/cc0Z7oom.s 			page 30


 369      5223C3CB 
 369      5432D978 
 369      7D31EE15 
 369      C2FCD54A 
 370 0fa0 2C2E45E2 		.ascii	",.E\342\222\230\316\310R\\\"\022\004d\205JR1\007B]e"
 370      9298CEC8 
 370      525C2212 
 370      0464854A 
 370      52310742 
 371 0fb6 53524E2B 		.ascii	"SRN+\025\215bZ\361g\350k\234\010\312\012m\245TE3\361"
 371      158D625A 
 371      F167E86B 
 371      9C08CA0A 
 371      6DA55445 
 372 0fcc 4CA3A8C4 		.ascii	"L\243\250\304\346I\272\215\322\2018S\006\334\223M\011"
 372      E649BA8D 
 372      D2813853 
 372      06DC934D 
 372      09
 373 0fdd 49F6C7A9 		.ascii	"I\366\307\251_W6\020.\241\263\334\013\375\365Gs~*E\225"
 373      5F573610 
 373      2EA1B3DC 
 373      0BFDF547 
 373      737E2A45 
 374 0ff2 EF2662CA 		.ascii	"\357&b\312\347\235\",pV\031\371\016H"
 374      E79D222C 
 374      705619F9 
 374      0E48
 375 1000 5013218F 		.ascii	"P\023!\217\0211\235\226d\245\206\265\377\037 \224IW"
 375      11319D96 
 375      64A586B5 
 375      FF1F2094 
 375      4957
 376 1012 B187BBA1 		.ascii	"\261\207\273\241\303W\263\342\267\033\033\223Q\2401"
 376      C357B3E2 
 376      B71B1B93 
 376      51A031
 377 1021 0BEC768F 		.ascii	"\013\354v\217\244\260j?\011Q\000\022'jhiNf.\030<-\314"
 377      A4B06A3F 
 377      09510012 
 377      276A6869 
 377      4E662E18 
 378 1038 BE55983D 		.ascii	"\276U\230=U\230}\2330\373va\3664\241I\364\263_*H\255"
 378      55987D9B 
 378      30FB7661 
 378      F634A149 
 378      F4B35F2A 
 379 104e 20B944C5 		.ascii	" \271D\305\264TA\334\264\222\206xx'\312u U@\017\357"
 379      B45441DC 
 379      B4928678 
 379      7827CA75 
 379      2055400F 
 380 1063 D5295151 		.ascii	"\325)QQ$9A\260C\306\2700\365&\302\312\315a\2210\003"
 380      243941B0 
 380      43C6B830 
 380      F526C2CA 
 380      CD619130 
ARM GAS  /tmp/cc0Z7oom.s 			page 31


 381 1078 AA4926C2 		.ascii	"\252I&\302b\242.<W\026\353\211z\331\033R\031\375\013"
 381      62A22E3C 
 381      5716EB89 
 381      7AD91B52 
 381      19FD0B
 382 108b 1BEEC8C3 		.ascii	"\033\356\310\303"
 383              		.text
 384              		.section	.gnu.lto_.symtab.9c427744d24026c3,"",%progbits
 385 0000 70617474 		.ascii	"patternheap\000\000\000\000\000\000\000\000\000\000"
 385      65726E68 
 385      65617000 
 385      00000000 
 385      00000000 
 386 0015 0000E201 		.ascii	"\000\000\342\001\000\000testheap1\000\000\000\000\000"
 386      00007465 
 386      73746865 
 386      61703100 
 386      00000000 
 387 0029 00000000 		.ascii	"\000\000\000\000\000\000\000\370\001\000\000test\000"
 387      000000F8 
 387      01000074 
 387      65737400 
 388 0039 00020000 		.ascii	"\000\002\000\000\000\000\000\000\000\000\000\311\001"
 388      00000000 
 388      000000C9 
 388      01
 389 0046 00006368 		.ascii	"\000\000chHeapObjectInit\000\000\002\000\000\000\000"
 389      48656170 
 389      4F626A65 
 389      6374496E 
 389      69740000 
 390 005f 00000000 		.ascii	"\000\000\000\000\000\251\000\000\000_test_assert\000"
 390      00A90000 
 390      005F7465 
 390      73745F61 
 390      73736572 
 391 0075 00020000 		.ascii	"\000\002\000\000\000\000\000\000\000\000\000\255\001"
 391      00000000 
 391      000000AD 
 391      01
 392 0082 00006368 		.ascii	"\000\000chHeapStatus\000\000\002\000\000\000\000\000"
 392      48656170 
 392      53746174 
 392      75730000 
 392      02000000 
 393 0098 00000000 		.ascii	"\000\000\000\000\265\001\000\000chHeapFree\000\000\002"
 393      B5010000 
 393      63684865 
 393      61704672 
 393      65650000 
 394 00ad 00000000 		.ascii	"\000\000\000\000\000\000\000\000\000\273\001\000\000"
 394      00000000 
 394      00BB0100 
 394      00
 395 00ba 63684865 		.ascii	"chHeapAlloc\000\000\002\000\000\000\000\000\000\000"
 395      6170416C 
 395      6C6F6300 
ARM GAS  /tmp/cc0Z7oom.s 			page 32


 395      00020000 
 395      00000000 
 396 00cf 0000BF01 		.ascii	"\000\000\277\001\000\000chCoreGetStatusX\000\000\002"
 396      00006368 
 396      436F7265 
 396      47657453 
 396      74617475 
 397 00e8 00000000 		.ascii	"\000\000\000\000\000\000\000\000\000\304\001\000\000"
 397      00000000 
 397      00C40100 
 397      00
 398              		.text
 399              		.section	.gnu.lto_.opts,"",%progbits
 400 0000 272D6D63 		.ascii	"'-mcpu=cortex-m4' '-mno-thumb-interwork' '-mthumb' "
 400      70753D63 
 400      6F727465 
 400      782D6D34 
 400      2720272D 
 401 0033 272D6767 		.ascii	"'-ggdb' '-O0' '-fomit-frame-pointer' '-falign-funct"
 401      64622720 
 401      272D4F30 
 401      2720272D 
 401      666F6D69 
 402 0066 696F6E73 		.ascii	"ions=16' '-ffunction-sections' '-fdata-sections' '-"
 402      3D313627 
 402      20272D66 
 402      66756E63 
 402      74696F6E 
 403 0099 666E6F2D 		.ascii	"fno-common' '-flto'\000"
 403      636F6D6D 
 403      6F6E2720 
 403      272D666C 
 403      746F2700 
 404              		.text
 405              		.cfi_sections	.debug_frame
 406              		.section	.bss.test_heap,"aw",%nobits
 407              		.align	3
 408              		.type	test_heap, %object
 409              		.size	test_heap, 32
 410              	test_heap:
 411 0000 00000000 		.space	32
 411      00000000 
 411      00000000 
 411      00000000 
 411      00000000 
 412              		.section	.text.heap1_setup,"ax",%progbits
 413              		.align	2
 414              		.p2align 4,,15
 415              		.thumb
 416              		.thumb_func
 417              		.type	heap1_setup, %function
 418              	heap1_setup:
 419              	.LFB241:
 420              		.file 1 "../../../../test/rt/testheap.c"
 421              		.loc 1 64 0
 422              		.cfi_startproc
 423              		@ args = 0, pretend = 0, frame = 0
ARM GAS  /tmp/cc0Z7oom.s 			page 33


 424              		@ frame_needed = 0, uses_anonymous_args = 0
 425 0000 08B5     		push	{r3, lr}
 426              		.cfi_def_cfa_offset 8
 427              		.cfi_offset 3, -8
 428              		.cfi_offset 14, -4
 429              		.loc 1 66 0
 430 0002 40F20000 		movw	r0, #:lower16:test_heap
 431 0006 C0F20000 		movt	r0, #:upper16:test_heap
 432 000a 40F20001 		movw	r1, #:lower16:test
 433 000e C0F20001 		movt	r1, #:upper16:test
 434 0012 4FF4E162 		mov	r2, #1800
 435 0016 FFF7FEFF 		bl	chHeapObjectInit
 436              		.loc 1 67 0
 437 001a 08BD     		pop	{r3, pc}
 438              		.cfi_endproc
 439              	.LFE241:
 440              		.size	heap1_setup, .-heap1_setup
 441 001c AFF30080 		.section	.text.heap1_execute,"ax",%progbits
 442              		.align	2
 443              		.p2align 4,,15
 444              		.thumb
 445              		.thumb_func
 446              		.type	heap1_execute, %function
 447              	heap1_execute:
 448              	.LFB242:
 449              		.loc 1 69 0
 450              		.cfi_startproc
 451              		@ args = 0, pretend = 0, frame = 24
 452              		@ frame_needed = 0, uses_anonymous_args = 0
 453 0000 00B5     		push	{lr}
 454              		.cfi_def_cfa_offset 4
 455              		.cfi_offset 14, -4
 456 0002 87B0     		sub	sp, sp, #28
 457              		.cfi_def_cfa_offset 32
 458              		.loc 1 74 0
 459 0004 FFF7FEFF 		bl	chCoreGetStatusX
 460              		.loc 1 80 0
 461 0008 01AB     		add	r3, sp, #4
 462 000a 0020     		movs	r0, #0
 463 000c 1946     		mov	r1, r3
 464 000e FFF7FEFF 		bl	chHeapStatus
 465              		.loc 1 81 0
 466 0012 0020     		movs	r0, #0
 467 0014 1021     		movs	r1, #16
 468 0016 FFF7FEFF 		bl	chHeapAlloc
 469 001a 0590     		str	r0, [sp, #20]
 470              		.loc 1 82 0
 471 001c 059B     		ldr	r3, [sp, #20]
 472 001e 002B     		cmp	r3, #0
 473 0020 0CBF     		ite	eq
 474 0022 0023     		moveq	r3, #0
 475 0024 0123     		movne	r3, #1
 476 0026 DBB2     		uxtb	r3, r3
 477 0028 0120     		movs	r0, #1
 478 002a 1946     		mov	r1, r3
 479 002c FFF7FEFF 		bl	_test_assert
 480 0030 0346     		mov	r3, r0
ARM GAS  /tmp/cc0Z7oom.s 			page 34


 481 0032 002B     		cmp	r3, #0
 482 0034 00D0     		beq	.L3
 483              		.loc 1 82 0 is_stmt 0 discriminator 1
 484 0036 99E1     		b	.L2
 485              	.L3:
 486              		.loc 1 83 0 is_stmt 1
 487 0038 0598     		ldr	r0, [sp, #20]
 488 003a FFF7FEFF 		bl	chHeapFree
 489              		.loc 1 84 0
 490 003e 0020     		movs	r0, #0
 491 0040 6FF0FF01 		mvn	r1, #255
 492 0044 FFF7FEFF 		bl	chHeapAlloc
 493 0048 0590     		str	r0, [sp, #20]
 494              		.loc 1 85 0
 495 004a 059B     		ldr	r3, [sp, #20]
 496 004c 002B     		cmp	r3, #0
 497 004e 14BF     		ite	ne
 498 0050 0023     		movne	r3, #0
 499 0052 0123     		moveq	r3, #1
 500 0054 DBB2     		uxtb	r3, r3
 501 0056 0220     		movs	r0, #2
 502 0058 1946     		mov	r1, r3
 503 005a FFF7FEFF 		bl	_test_assert
 504 005e 0346     		mov	r3, r0
 505 0060 002B     		cmp	r3, #0
 506 0062 00D0     		beq	.L5
 507              		.loc 1 85 0 is_stmt 0 discriminator 1
 508 0064 82E1     		b	.L2
 509              	.L5:
 510              		.loc 1 88 0 is_stmt 1
 511 0066 01AB     		add	r3, sp, #4
 512 0068 40F20000 		movw	r0, #:lower16:test_heap
 513 006c C0F20000 		movt	r0, #:upper16:test_heap
 514 0070 1946     		mov	r1, r3
 515 0072 FFF7FEFF 		bl	chHeapStatus
 516              		.loc 1 91 0
 517 0076 40F20000 		movw	r0, #:lower16:test_heap
 518 007a C0F20000 		movt	r0, #:upper16:test_heap
 519 007e 1021     		movs	r1, #16
 520 0080 FFF7FEFF 		bl	chHeapAlloc
 521 0084 0590     		str	r0, [sp, #20]
 522              		.loc 1 92 0
 523 0086 40F20000 		movw	r0, #:lower16:test_heap
 524 008a C0F20000 		movt	r0, #:upper16:test_heap
 525 008e 1021     		movs	r1, #16
 526 0090 FFF7FEFF 		bl	chHeapAlloc
 527 0094 0490     		str	r0, [sp, #16]
 528              		.loc 1 93 0
 529 0096 40F20000 		movw	r0, #:lower16:test_heap
 530 009a C0F20000 		movt	r0, #:upper16:test_heap
 531 009e 1021     		movs	r1, #16
 532 00a0 FFF7FEFF 		bl	chHeapAlloc
 533 00a4 0390     		str	r0, [sp, #12]
 534              		.loc 1 94 0
 535 00a6 0598     		ldr	r0, [sp, #20]
 536 00a8 FFF7FEFF 		bl	chHeapFree
 537              		.loc 1 95 0
ARM GAS  /tmp/cc0Z7oom.s 			page 35


 538 00ac 0498     		ldr	r0, [sp, #16]
 539 00ae FFF7FEFF 		bl	chHeapFree
 540              		.loc 1 96 0
 541 00b2 0398     		ldr	r0, [sp, #12]
 542 00b4 FFF7FEFF 		bl	chHeapFree
 543              		.loc 1 97 0
 544 00b8 02AB     		add	r3, sp, #8
 545 00ba 40F20000 		movw	r0, #:lower16:test_heap
 546 00be C0F20000 		movt	r0, #:upper16:test_heap
 547 00c2 1946     		mov	r1, r3
 548 00c4 FFF7FEFF 		bl	chHeapStatus
 549 00c8 0346     		mov	r3, r0
 550 00ca 012B     		cmp	r3, #1
 551 00cc 14BF     		ite	ne
 552 00ce 0023     		movne	r3, #0
 553 00d0 0123     		moveq	r3, #1
 554 00d2 DBB2     		uxtb	r3, r3
 555 00d4 0320     		movs	r0, #3
 556 00d6 1946     		mov	r1, r3
 557 00d8 FFF7FEFF 		bl	_test_assert
 558 00dc 0346     		mov	r3, r0
 559 00de 002B     		cmp	r3, #0
 560 00e0 00D0     		beq	.L6
 561              		.loc 1 97 0 is_stmt 0 discriminator 1
 562 00e2 43E1     		b	.L2
 563              	.L6:
 564              		.loc 1 100 0 is_stmt 1
 565 00e4 40F20000 		movw	r0, #:lower16:test_heap
 566 00e8 C0F20000 		movt	r0, #:upper16:test_heap
 567 00ec 1021     		movs	r1, #16
 568 00ee FFF7FEFF 		bl	chHeapAlloc
 569 00f2 0590     		str	r0, [sp, #20]
 570              		.loc 1 101 0
 571 00f4 40F20000 		movw	r0, #:lower16:test_heap
 572 00f8 C0F20000 		movt	r0, #:upper16:test_heap
 573 00fc 1021     		movs	r1, #16
 574 00fe FFF7FEFF 		bl	chHeapAlloc
 575 0102 0490     		str	r0, [sp, #16]
 576              		.loc 1 102 0
 577 0104 40F20000 		movw	r0, #:lower16:test_heap
 578 0108 C0F20000 		movt	r0, #:upper16:test_heap
 579 010c 1021     		movs	r1, #16
 580 010e FFF7FEFF 		bl	chHeapAlloc
 581 0112 0390     		str	r0, [sp, #12]
 582              		.loc 1 103 0
 583 0114 0398     		ldr	r0, [sp, #12]
 584 0116 FFF7FEFF 		bl	chHeapFree
 585              		.loc 1 104 0
 586 011a 0498     		ldr	r0, [sp, #16]
 587 011c FFF7FEFF 		bl	chHeapFree
 588              		.loc 1 105 0
 589 0120 0598     		ldr	r0, [sp, #20]
 590 0122 FFF7FEFF 		bl	chHeapFree
 591              		.loc 1 106 0
 592 0126 02AB     		add	r3, sp, #8
 593 0128 40F20000 		movw	r0, #:lower16:test_heap
 594 012c C0F20000 		movt	r0, #:upper16:test_heap
ARM GAS  /tmp/cc0Z7oom.s 			page 36


 595 0130 1946     		mov	r1, r3
 596 0132 FFF7FEFF 		bl	chHeapStatus
 597 0136 0346     		mov	r3, r0
 598 0138 012B     		cmp	r3, #1
 599 013a 14BF     		ite	ne
 600 013c 0023     		movne	r3, #0
 601 013e 0123     		moveq	r3, #1
 602 0140 DBB2     		uxtb	r3, r3
 603 0142 0420     		movs	r0, #4
 604 0144 1946     		mov	r1, r3
 605 0146 FFF7FEFF 		bl	_test_assert
 606 014a 0346     		mov	r3, r0
 607 014c 002B     		cmp	r3, #0
 608 014e 00D0     		beq	.L7
 609              		.loc 1 106 0 is_stmt 0 discriminator 1
 610 0150 0CE1     		b	.L2
 611              	.L7:
 612              		.loc 1 109 0 is_stmt 1
 613 0152 40F20000 		movw	r0, #:lower16:test_heap
 614 0156 C0F20000 		movt	r0, #:upper16:test_heap
 615 015a 1121     		movs	r1, #17
 616 015c FFF7FEFF 		bl	chHeapAlloc
 617 0160 0590     		str	r0, [sp, #20]
 618              		.loc 1 110 0
 619 0162 40F20000 		movw	r0, #:lower16:test_heap
 620 0166 C0F20000 		movt	r0, #:upper16:test_heap
 621 016a 1021     		movs	r1, #16
 622 016c FFF7FEFF 		bl	chHeapAlloc
 623 0170 0490     		str	r0, [sp, #16]
 624              		.loc 1 111 0
 625 0172 0598     		ldr	r0, [sp, #20]
 626 0174 FFF7FEFF 		bl	chHeapFree
 627              		.loc 1 112 0
 628 0178 02AB     		add	r3, sp, #8
 629 017a 40F20000 		movw	r0, #:lower16:test_heap
 630 017e C0F20000 		movt	r0, #:upper16:test_heap
 631 0182 1946     		mov	r1, r3
 632 0184 FFF7FEFF 		bl	chHeapStatus
 633 0188 0346     		mov	r3, r0
 634 018a 022B     		cmp	r3, #2
 635 018c 14BF     		ite	ne
 636 018e 0023     		movne	r3, #0
 637 0190 0123     		moveq	r3, #1
 638 0192 DBB2     		uxtb	r3, r3
 639 0194 0520     		movs	r0, #5
 640 0196 1946     		mov	r1, r3
 641 0198 FFF7FEFF 		bl	_test_assert
 642 019c 0346     		mov	r3, r0
 643 019e 002B     		cmp	r3, #0
 644 01a0 00D0     		beq	.L8
 645              		.loc 1 112 0 is_stmt 0 discriminator 1
 646 01a2 E3E0     		b	.L2
 647              	.L8:
 648              		.loc 1 113 0 is_stmt 1
 649 01a4 40F20000 		movw	r0, #:lower16:test_heap
 650 01a8 C0F20000 		movt	r0, #:upper16:test_heap
 651 01ac 1021     		movs	r1, #16
ARM GAS  /tmp/cc0Z7oom.s 			page 37


 652 01ae FFF7FEFF 		bl	chHeapAlloc
 653 01b2 0590     		str	r0, [sp, #20]
 654              		.loc 1 116 0
 655 01b4 02AB     		add	r3, sp, #8
 656 01b6 40F20000 		movw	r0, #:lower16:test_heap
 657 01ba C0F20000 		movt	r0, #:upper16:test_heap
 658 01be 1946     		mov	r1, r3
 659 01c0 FFF7FEFF 		bl	chHeapStatus
 660 01c4 0346     		mov	r3, r0
 661 01c6 012B     		cmp	r3, #1
 662 01c8 0AD0     		beq	.L9
 663              		.loc 1 116 0 is_stmt 0 discriminator 2
 664 01ca 02AB     		add	r3, sp, #8
 665 01cc 40F20000 		movw	r0, #:lower16:test_heap
 666 01d0 C0F20000 		movt	r0, #:upper16:test_heap
 667 01d4 1946     		mov	r1, r3
 668 01d6 FFF7FEFF 		bl	chHeapStatus
 669 01da 0346     		mov	r3, r0
 670 01dc 022B     		cmp	r3, #2
 671 01de 01D1     		bne	.L10
 672              	.L9:
 673              		.loc 1 116 0 discriminator 1
 674 01e0 0123     		movs	r3, #1
 675 01e2 00E0     		b	.L11
 676              	.L10:
 677              		.loc 1 116 0 discriminator 3
 678 01e4 0023     		movs	r3, #0
 679              	.L11:
 680              		.loc 1 116 0 discriminator 4
 681 01e6 03F00103 		and	r3, r3, #1
 682 01ea DBB2     		uxtb	r3, r3
 683 01ec 0620     		movs	r0, #6
 684 01ee 1946     		mov	r1, r3
 685 01f0 FFF7FEFF 		bl	_test_assert
 686 01f4 0346     		mov	r3, r0
 687 01f6 002B     		cmp	r3, #0
 688 01f8 00D0     		beq	.L12
 689              		.loc 1 116 0 discriminator 1
 690 01fa B7E0     		b	.L2
 691              	.L12:
 692              		.loc 1 118 0 is_stmt 1
 693 01fc 0498     		ldr	r0, [sp, #16]
 694 01fe FFF7FEFF 		bl	chHeapFree
 695              		.loc 1 119 0
 696 0202 0598     		ldr	r0, [sp, #20]
 697 0204 FFF7FEFF 		bl	chHeapFree
 698              		.loc 1 120 0
 699 0208 02AB     		add	r3, sp, #8
 700 020a 40F20000 		movw	r0, #:lower16:test_heap
 701 020e C0F20000 		movt	r0, #:upper16:test_heap
 702 0212 1946     		mov	r1, r3
 703 0214 FFF7FEFF 		bl	chHeapStatus
 704 0218 0346     		mov	r3, r0
 705 021a 012B     		cmp	r3, #1
 706 021c 14BF     		ite	ne
 707 021e 0023     		movne	r3, #0
 708 0220 0123     		moveq	r3, #1
ARM GAS  /tmp/cc0Z7oom.s 			page 38


 709 0222 DBB2     		uxtb	r3, r3
 710 0224 0720     		movs	r0, #7
 711 0226 1946     		mov	r1, r3
 712 0228 FFF7FEFF 		bl	_test_assert
 713 022c 0346     		mov	r3, r0
 714 022e 002B     		cmp	r3, #0
 715 0230 00D0     		beq	.L13
 716              		.loc 1 120 0 is_stmt 0 discriminator 1
 717 0232 9BE0     		b	.L2
 718              	.L13:
 719              		.loc 1 123 0 is_stmt 1
 720 0234 40F20000 		movw	r0, #:lower16:test_heap
 721 0238 C0F20000 		movt	r0, #:upper16:test_heap
 722 023c 1021     		movs	r1, #16
 723 023e FFF7FEFF 		bl	chHeapAlloc
 724 0242 0590     		str	r0, [sp, #20]
 725              		.loc 1 124 0
 726 0244 40F20000 		movw	r0, #:lower16:test_heap
 727 0248 C0F20000 		movt	r0, #:upper16:test_heap
 728 024c 1021     		movs	r1, #16
 729 024e FFF7FEFF 		bl	chHeapAlloc
 730 0252 0490     		str	r0, [sp, #16]
 731              		.loc 1 125 0
 732 0254 0598     		ldr	r0, [sp, #20]
 733 0256 FFF7FEFF 		bl	chHeapFree
 734              		.loc 1 126 0
 735 025a 02AB     		add	r3, sp, #8
 736 025c 40F20000 		movw	r0, #:lower16:test_heap
 737 0260 C0F20000 		movt	r0, #:upper16:test_heap
 738 0264 1946     		mov	r1, r3
 739 0266 FFF7FEFF 		bl	chHeapStatus
 740 026a 0346     		mov	r3, r0
 741 026c 022B     		cmp	r3, #2
 742 026e 14BF     		ite	ne
 743 0270 0023     		movne	r3, #0
 744 0272 0123     		moveq	r3, #1
 745 0274 DBB2     		uxtb	r3, r3
 746 0276 0820     		movs	r0, #8
 747 0278 1946     		mov	r1, r3
 748 027a FFF7FEFF 		bl	_test_assert
 749 027e 0346     		mov	r3, r0
 750 0280 002B     		cmp	r3, #0
 751 0282 00D0     		beq	.L14
 752              		.loc 1 126 0 is_stmt 0 discriminator 1
 753 0284 72E0     		b	.L2
 754              	.L14:
 755              		.loc 1 127 0 is_stmt 1
 756 0286 40F20000 		movw	r0, #:lower16:test_heap
 757 028a C0F20000 		movt	r0, #:upper16:test_heap
 758 028e 2021     		movs	r1, #32
 759 0290 FFF7FEFF 		bl	chHeapAlloc
 760 0294 0590     		str	r0, [sp, #20]
 761              		.loc 1 128 0
 762 0296 0598     		ldr	r0, [sp, #20]
 763 0298 FFF7FEFF 		bl	chHeapFree
 764              		.loc 1 129 0
 765 029c 0498     		ldr	r0, [sp, #16]
ARM GAS  /tmp/cc0Z7oom.s 			page 39


 766 029e FFF7FEFF 		bl	chHeapFree
 767              		.loc 1 130 0
 768 02a2 02AB     		add	r3, sp, #8
 769 02a4 40F20000 		movw	r0, #:lower16:test_heap
 770 02a8 C0F20000 		movt	r0, #:upper16:test_heap
 771 02ac 1946     		mov	r1, r3
 772 02ae FFF7FEFF 		bl	chHeapStatus
 773 02b2 0346     		mov	r3, r0
 774 02b4 012B     		cmp	r3, #1
 775 02b6 14BF     		ite	ne
 776 02b8 0023     		movne	r3, #0
 777 02ba 0123     		moveq	r3, #1
 778 02bc DBB2     		uxtb	r3, r3
 779 02be 0920     		movs	r0, #9
 780 02c0 1946     		mov	r1, r3
 781 02c2 FFF7FEFF 		bl	_test_assert
 782 02c6 0346     		mov	r3, r0
 783 02c8 002B     		cmp	r3, #0
 784 02ca 00D0     		beq	.L15
 785              		.loc 1 130 0 is_stmt 0 discriminator 1
 786 02cc 4EE0     		b	.L2
 787              	.L15:
 788              		.loc 1 133 0 is_stmt 1
 789 02ce 02AB     		add	r3, sp, #8
 790 02d0 40F20000 		movw	r0, #:lower16:test_heap
 791 02d4 C0F20000 		movt	r0, #:upper16:test_heap
 792 02d8 1946     		mov	r1, r3
 793 02da FFF7FEFF 		bl	chHeapStatus
 794              		.loc 1 134 0
 795 02de 029B     		ldr	r3, [sp, #8]
 796 02e0 40F20000 		movw	r0, #:lower16:test_heap
 797 02e4 C0F20000 		movt	r0, #:upper16:test_heap
 798 02e8 1946     		mov	r1, r3
 799 02ea FFF7FEFF 		bl	chHeapAlloc
 800 02ee 0590     		str	r0, [sp, #20]
 801              		.loc 1 135 0
 802 02f0 02AB     		add	r3, sp, #8
 803 02f2 40F20000 		movw	r0, #:lower16:test_heap
 804 02f6 C0F20000 		movt	r0, #:upper16:test_heap
 805 02fa 1946     		mov	r1, r3
 806 02fc FFF7FEFF 		bl	chHeapStatus
 807 0300 0346     		mov	r3, r0
 808 0302 002B     		cmp	r3, #0
 809 0304 14BF     		ite	ne
 810 0306 0023     		movne	r3, #0
 811 0308 0123     		moveq	r3, #1
 812 030a DBB2     		uxtb	r3, r3
 813 030c 0A20     		movs	r0, #10
 814 030e 1946     		mov	r1, r3
 815 0310 FFF7FEFF 		bl	_test_assert
 816 0314 0346     		mov	r3, r0
 817 0316 002B     		cmp	r3, #0
 818 0318 00D0     		beq	.L16
 819              		.loc 1 135 0 is_stmt 0 discriminator 1
 820 031a 27E0     		b	.L2
 821              	.L16:
 822              		.loc 1 136 0 is_stmt 1
ARM GAS  /tmp/cc0Z7oom.s 			page 40


 823 031c 0598     		ldr	r0, [sp, #20]
 824 031e FFF7FEFF 		bl	chHeapFree
 825              		.loc 1 138 0
 826 0322 02AB     		add	r3, sp, #8
 827 0324 40F20000 		movw	r0, #:lower16:test_heap
 828 0328 C0F20000 		movt	r0, #:upper16:test_heap
 829 032c 1946     		mov	r1, r3
 830 032e FFF7FEFF 		bl	chHeapStatus
 831 0332 0346     		mov	r3, r0
 832 0334 012B     		cmp	r3, #1
 833 0336 14BF     		ite	ne
 834 0338 0023     		movne	r3, #0
 835 033a 0123     		moveq	r3, #1
 836 033c DBB2     		uxtb	r3, r3
 837 033e 0B20     		movs	r0, #11
 838 0340 1946     		mov	r1, r3
 839 0342 FFF7FEFF 		bl	_test_assert
 840 0346 0346     		mov	r3, r0
 841 0348 002B     		cmp	r3, #0
 842 034a 00D0     		beq	.L17
 843              		.loc 1 138 0 is_stmt 0 discriminator 1
 844 034c 0EE0     		b	.L2
 845              	.L17:
 846              		.loc 1 139 0 is_stmt 1
 847 034e 029A     		ldr	r2, [sp, #8]
 848 0350 019B     		ldr	r3, [sp, #4]
 849 0352 9A42     		cmp	r2, r3
 850 0354 14BF     		ite	ne
 851 0356 0023     		movne	r3, #0
 852 0358 0123     		moveq	r3, #1
 853 035a DBB2     		uxtb	r3, r3
 854 035c 0C20     		movs	r0, #12
 855 035e 1946     		mov	r1, r3
 856 0360 FFF7FEFF 		bl	_test_assert
 857 0364 0346     		mov	r3, r0
 858 0366 002B     		cmp	r3, #0
 859 0368 00D0     		beq	.L2
 860 036a 00BF     		nop
 861              	.L2:
 862              		.loc 1 140 0
 863 036c 07B0     		add	sp, sp, #28
 864              		@ sp needed
 865 036e 5DF804FB 		ldr	pc, [sp], #4
 866              		.cfi_endproc
 867              	.LFE242:
 868              		.size	heap1_execute, .-heap1_execute
 869              		.global	testheap1
 870 0372 00BFAFF3 		.section	.rodata
 870      0080AFF3 
 870      0080AFF3 
 870      0080
 871              		.align	2
 872              	.LC0:
 873 0000 48656170 		.ascii	"Heap, allocation and fragmentation test\000"
 873      2C20616C 
 873      6C6F6361 
 873      74696F6E 
ARM GAS  /tmp/cc0Z7oom.s 			page 41


 873      20616E64 
 874              		.section	.rodata.testheap1,"a",%progbits
 875              		.align	2
 876              		.type	testheap1, %object
 877              		.size	testheap1, 16
 878              	testheap1:
 879 0000 00000000 		.word	.LC0
 880 0004 00000000 		.word	heap1_setup
 881 0008 00000000 		.word	0
 882 000c 00000000 		.word	heap1_execute
 883              		.global	patternheap
 884              		.section	.rodata.patternheap,"a",%progbits
 885              		.align	2
 886              		.type	patternheap, %object
 887              		.size	patternheap, 8
 888              	patternheap:
 889 0000 00000000 		.word	testheap1
 890 0004 00000000 		.word	0
 891              		.text
 892              	.Letext0:
 893              		.file 2 "/usr/lib/gcc/arm-none-eabi/4.8.2/include/stddef.h"
 894              		.file 3 "/usr/include/newlib/machine/_default_types.h"
 895              		.file 4 "/usr/include/newlib/stdint.h"
 896              		.file 5 "../../../../os/rt/ports/ARMCMx/compilers/GCC/chtypes.h"
 897              		.file 6 "../../../../os/rt/include/chsystypes.h"
 898              		.file 7 "../../../../os/rt/include/chschd.h"
 899              		.file 8 "../../../../os/rt/ports/ARMCMx/chcore.h"
 900              		.file 9 "../../../../os/rt/ports/ARMCMx/chcore_v7m.h"
 901              		.file 10 "../../../../os/rt/include/chdebug.h"
 902              		.file 11 "../../../../os/rt/include/chtm.h"
 903              		.file 12 "../../../../os/rt/include/chstats.h"
 904              		.file 13 "../../../../os/rt/include/chsem.h"
 905              		.file 14 "../../../../os/rt/include/chmtx.h"
 906              		.file 15 "../../../../os/rt/include/chmemcore.h"
 907              		.file 16 "../../../../os/rt/include/chheap.h"
 908              		.file 17 "../../../../test/rt/test.h"
 909              		.file 18 "../../../../os/ext/CMSIS/include/core_cm4.h"
 910              		.section	.debug_info,"",%progbits
 911              	.Ldebug_info0:
 912 0000 260A0000 		.4byte	0xa26
 913 0004 0400     		.2byte	0x4
 914 0006 00000000 		.4byte	.Ldebug_abbrev0
 915 000a 04       		.byte	0x4
 916 000b 01       		.uleb128 0x1
 917 000c E7020000 		.4byte	.LASF152
 918 0010 01       		.byte	0x1
 919 0011 C1030000 		.4byte	.LASF153
 920 0015 90020000 		.4byte	.LASF154
 921 0019 00000000 		.4byte	.Ldebug_ranges0+0
 922 001d 00000000 		.4byte	0
 923 0021 00000000 		.4byte	.Ldebug_line0
 924 0025 02       		.uleb128 0x2
 925 0026 04       		.byte	0x4
 926 0027 05       		.byte	0x5
 927 0028 696E7400 		.ascii	"int\000"
 928 002c 03       		.uleb128 0x3
 929 002d 15000000 		.4byte	.LASF2
ARM GAS  /tmp/cc0Z7oom.s 			page 42


 930 0031 02       		.byte	0x2
 931 0032 D4       		.byte	0xd4
 932 0033 37000000 		.4byte	0x37
 933 0037 04       		.uleb128 0x4
 934 0038 04       		.byte	0x4
 935 0039 07       		.byte	0x7
 936 003a 0D020000 		.4byte	.LASF0
 937 003e 04       		.uleb128 0x4
 938 003f 01       		.byte	0x1
 939 0040 06       		.byte	0x6
 940 0041 2F010000 		.4byte	.LASF1
 941 0045 03       		.uleb128 0x3
 942 0046 3E000000 		.4byte	.LASF3
 943 004a 03       		.byte	0x3
 944 004b 1C       		.byte	0x1c
 945 004c 50000000 		.4byte	0x50
 946 0050 04       		.uleb128 0x4
 947 0051 01       		.byte	0x1
 948 0052 08       		.byte	0x8
 949 0053 F7040000 		.4byte	.LASF4
 950 0057 04       		.uleb128 0x4
 951 0058 02       		.byte	0x2
 952 0059 05       		.byte	0x5
 953 005a 1B050000 		.4byte	.LASF5
 954 005e 04       		.uleb128 0x4
 955 005f 02       		.byte	0x2
 956 0060 07       		.byte	0x7
 957 0061 4E020000 		.4byte	.LASF6
 958 0065 03       		.uleb128 0x3
 959 0066 B7030000 		.4byte	.LASF7
 960 006a 03       		.byte	0x3
 961 006b 37       		.byte	0x37
 962 006c 70000000 		.4byte	0x70
 963 0070 04       		.uleb128 0x4
 964 0071 04       		.byte	0x4
 965 0072 05       		.byte	0x5
 966 0073 68010000 		.4byte	.LASF8
 967 0077 03       		.uleb128 0x3
 968 0078 14060000 		.4byte	.LASF9
 969 007c 03       		.byte	0x3
 970 007d 38       		.byte	0x38
 971 007e 82000000 		.4byte	0x82
 972 0082 04       		.uleb128 0x4
 973 0083 04       		.byte	0x4
 974 0084 07       		.byte	0x7
 975 0085 CA050000 		.4byte	.LASF10
 976 0089 04       		.uleb128 0x4
 977 008a 08       		.byte	0x8
 978 008b 05       		.byte	0x5
 979 008c 21010000 		.4byte	.LASF11
 980 0090 03       		.uleb128 0x3
 981 0091 8B040000 		.4byte	.LASF12
 982 0095 03       		.byte	0x3
 983 0096 4E       		.byte	0x4e
 984 0097 9B000000 		.4byte	0x9b
 985 009b 04       		.uleb128 0x4
 986 009c 08       		.byte	0x8
ARM GAS  /tmp/cc0Z7oom.s 			page 43


 987 009d 07       		.byte	0x7
 988 009e 8D000000 		.4byte	.LASF13
 989 00a2 03       		.uleb128 0x3
 990 00a3 7F060000 		.4byte	.LASF14
 991 00a7 04       		.byte	0x4
 992 00a8 2A       		.byte	0x2a
 993 00a9 45000000 		.4byte	0x45
 994 00ad 03       		.uleb128 0x3
 995 00ae EF040000 		.4byte	.LASF15
 996 00b2 04       		.byte	0x4
 997 00b3 41       		.byte	0x41
 998 00b4 65000000 		.4byte	0x65
 999 00b8 03       		.uleb128 0x3
 1000 00b9 94050000 		.4byte	.LASF16
 1001 00bd 04       		.byte	0x4
 1002 00be 42       		.byte	0x42
 1003 00bf 77000000 		.4byte	0x77
 1004 00c3 03       		.uleb128 0x3
 1005 00c4 28000000 		.4byte	.LASF17
 1006 00c8 04       		.byte	0x4
 1007 00c9 4E       		.byte	0x4e
 1008 00ca 90000000 		.4byte	0x90
 1009 00ce 03       		.uleb128 0x3
 1010 00cf 38060000 		.4byte	.LASF18
 1011 00d3 05       		.byte	0x5
 1012 00d4 39       		.byte	0x39
 1013 00d5 B8000000 		.4byte	0xb8
 1014 00d9 03       		.uleb128 0x3
 1015 00da FD000000 		.4byte	.LASF19
 1016 00de 05       		.byte	0x5
 1017 00df 3A       		.byte	0x3a
 1018 00e0 C3000000 		.4byte	0xc3
 1019 00e4 03       		.uleb128 0x3
 1020 00e5 8A030000 		.4byte	.LASF20
 1021 00e9 05       		.byte	0x5
 1022 00ea 3C       		.byte	0x3c
 1023 00eb A2000000 		.4byte	0xa2
 1024 00ef 03       		.uleb128 0x3
 1025 00f0 71010000 		.4byte	.LASF21
 1026 00f4 05       		.byte	0x5
 1027 00f5 3D       		.byte	0x3d
 1028 00f6 A2000000 		.4byte	0xa2
 1029 00fa 03       		.uleb128 0x3
 1030 00fb A1040000 		.4byte	.LASF22
 1031 00ff 05       		.byte	0x5
 1032 0100 3E       		.byte	0x3e
 1033 0101 A2000000 		.4byte	0xa2
 1034 0105 03       		.uleb128 0x3
 1035 0106 D2040000 		.4byte	.LASF23
 1036 010a 05       		.byte	0x5
 1037 010b 40       		.byte	0x40
 1038 010c B8000000 		.4byte	0xb8
 1039 0110 03       		.uleb128 0x3
 1040 0111 85020000 		.4byte	.LASF24
 1041 0115 05       		.byte	0x5
 1042 0116 41       		.byte	0x41
 1043 0117 AD000000 		.4byte	0xad
ARM GAS  /tmp/cc0Z7oom.s 			page 44


 1044 011b 03       		.uleb128 0x3
 1045 011c AB030000 		.4byte	.LASF25
 1046 0120 05       		.byte	0x5
 1047 0121 43       		.byte	0x43
 1048 0122 B8000000 		.4byte	0xb8
 1049 0126 03       		.uleb128 0x3
 1050 0127 FC010000 		.4byte	.LASF26
 1051 012b 05       		.byte	0x5
 1052 012c 45       		.byte	0x45
 1053 012d AD000000 		.4byte	0xad
 1054 0131 03       		.uleb128 0x3
 1055 0132 D4020000 		.4byte	.LASF27
 1056 0136 05       		.byte	0x5
 1057 0137 46       		.byte	0x46
 1058 0138 B8000000 		.4byte	0xb8
 1059 013c 03       		.uleb128 0x3
 1060 013d F6050000 		.4byte	.LASF28
 1061 0141 06       		.byte	0x6
 1062 0142 33       		.byte	0x33
 1063 0143 B8000000 		.4byte	0xb8
 1064 0147 03       		.uleb128 0x3
 1065 0148 E1050000 		.4byte	.LASF29
 1066 014c 06       		.byte	0x6
 1067 014d 3F       		.byte	0x3f
 1068 014e 52010000 		.4byte	0x152
 1069 0152 05       		.uleb128 0x5
 1070 0153 70020000 		.4byte	.LASF51
 1071 0157 60       		.byte	0x60
 1072 0158 07       		.byte	0x7
 1073 0159 C2       		.byte	0xc2
 1074 015a 58020000 		.4byte	0x258
 1075 015e 06       		.uleb128 0x6
 1076 015f 3B050000 		.4byte	.LASF30
 1077 0163 07       		.byte	0x7
 1078 0164 C3       		.byte	0xc3
 1079 0165 63020000 		.4byte	0x263
 1080 0169 00       		.byte	0
 1081 016a 06       		.uleb128 0x6
 1082 016b C3040000 		.4byte	.LASF31
 1083 016f 07       		.byte	0x7
 1084 0170 C5       		.byte	0xc5
 1085 0171 63020000 		.4byte	0x263
 1086 0175 04       		.byte	0x4
 1087 0176 06       		.uleb128 0x6
 1088 0177 06010000 		.4byte	.LASF32
 1089 017b 07       		.byte	0x7
 1090 017c C7       		.byte	0xc7
 1091 017d 05010000 		.4byte	0x105
 1092 0181 08       		.byte	0x8
 1093 0182 06       		.uleb128 0x6
 1094 0183 EE060000 		.4byte	.LASF33
 1095 0187 07       		.byte	0x7
 1096 0188 C8       		.byte	0xc8
 1097 0189 CC040000 		.4byte	0x4cc
 1098 018d 0C       		.byte	0xc
 1099 018e 06       		.uleb128 0x6
 1100 018f 95010000 		.4byte	.LASF34
ARM GAS  /tmp/cc0Z7oom.s 			page 45


 1101 0193 07       		.byte	0x7
 1102 0194 CA       		.byte	0xca
 1103 0195 63020000 		.4byte	0x263
 1104 0199 10       		.byte	0x10
 1105 019a 06       		.uleb128 0x6
 1106 019b 54040000 		.4byte	.LASF35
 1107 019f 07       		.byte	0x7
 1108 01a0 CB       		.byte	0xcb
 1109 01a1 63020000 		.4byte	0x263
 1110 01a5 14       		.byte	0x14
 1111 01a6 06       		.uleb128 0x6
 1112 01a7 A3060000 		.4byte	.LASF36
 1113 01ab 07       		.byte	0x7
 1114 01ac D2       		.byte	0xd2
 1115 01ad 70070000 		.4byte	0x770
 1116 01b1 18       		.byte	0x18
 1117 01b2 06       		.uleb128 0x6
 1118 01b3 02020000 		.4byte	.LASF37
 1119 01b7 07       		.byte	0x7
 1120 01b8 D8       		.byte	0xd8
 1121 01b9 82070000 		.4byte	0x782
 1122 01bd 1C       		.byte	0x1c
 1123 01be 06       		.uleb128 0x6
 1124 01bf 25050000 		.4byte	.LASF38
 1125 01c3 07       		.byte	0x7
 1126 01c4 DD       		.byte	0xdd
 1127 01c5 EF000000 		.4byte	0xef
 1128 01c9 20       		.byte	0x20
 1129 01ca 06       		.uleb128 0x6
 1130 01cb 42050000 		.4byte	.LASF39
 1131 01cf 07       		.byte	0x7
 1132 01d0 E1       		.byte	0xe1
 1133 01d1 E4000000 		.4byte	0xe4
 1134 01d5 21       		.byte	0x21
 1135 01d6 06       		.uleb128 0x6
 1136 01d7 6A060000 		.4byte	.LASF40
 1137 01db 07       		.byte	0x7
 1138 01dc E6       		.byte	0xe6
 1139 01dd FA000000 		.4byte	0xfa
 1140 01e1 22       		.byte	0x22
 1141 01e2 07       		.uleb128 0x7
 1142 01e3 705F7500 		.ascii	"p_u\000"
 1143 01e7 07       		.byte	0x7
 1144 01e8 3101     		.2byte	0x131
 1145 01ea AB060000 		.4byte	0x6ab
 1146 01ee 24       		.byte	0x24
 1147 01ef 08       		.uleb128 0x8
 1148 01f0 F5030000 		.4byte	.LASF41
 1149 01f4 07       		.byte	0x7
 1150 01f5 3601     		.2byte	0x136
 1151 01f7 69020000 		.4byte	0x269
 1152 01fb 28       		.byte	0x28
 1153 01fc 08       		.uleb128 0x8
 1154 01fd 29020000 		.4byte	.LASF42
 1155 0201 07       		.byte	0x7
 1156 0202 3C01     		.2byte	0x13c
 1157 0204 8D020000 		.4byte	0x28d
ARM GAS  /tmp/cc0Z7oom.s 			page 46


 1158 0208 2C       		.byte	0x2c
 1159 0209 08       		.uleb128 0x8
 1160 020a CB060000 		.4byte	.LASF43
 1161 020e 07       		.byte	0x7
 1162 020f 4001     		.2byte	0x140
 1163 0211 10010000 		.4byte	0x110
 1164 0215 34       		.byte	0x34
 1165 0216 08       		.uleb128 0x8
 1166 0217 89050000 		.4byte	.LASF44
 1167 021b 07       		.byte	0x7
 1168 021c 4601     		.2byte	0x146
 1169 021e 1B010000 		.4byte	0x11b
 1170 0222 38       		.byte	0x38
 1171 0223 08       		.uleb128 0x8
 1172 0224 11050000 		.4byte	.LASF45
 1173 0228 07       		.byte	0x7
 1174 0229 4D01     		.2byte	0x14d
 1175 022b 6A070000 		.4byte	0x76a
 1176 022f 3C       		.byte	0x3c
 1177 0230 08       		.uleb128 0x8
 1178 0231 00060000 		.4byte	.LASF46
 1179 0235 07       		.byte	0x7
 1180 0236 5101     		.2byte	0x151
 1181 0238 05010000 		.4byte	0x105
 1182 023c 40       		.byte	0x40
 1183 023d 08       		.uleb128 0x8
 1184 023e 41010000 		.4byte	.LASF47
 1185 0242 07       		.byte	0x7
 1186 0243 5801     		.2byte	0x158
 1187 0245 40030000 		.4byte	0x340
 1188 0249 44       		.byte	0x44
 1189 024a 08       		.uleb128 0x8
 1190 024b 4A050000 		.4byte	.LASF48
 1191 024f 07       		.byte	0x7
 1192 0250 5E01     		.2byte	0x15e
 1193 0252 5C060000 		.4byte	0x65c
 1194 0256 48       		.byte	0x48
 1195 0257 00       		.byte	0
 1196 0258 03       		.uleb128 0x3
 1197 0259 08040000 		.4byte	.LASF49
 1198 025d 06       		.byte	0x6
 1199 025e 44       		.byte	0x44
 1200 025f 63020000 		.4byte	0x263
 1201 0263 09       		.uleb128 0x9
 1202 0264 04       		.byte	0x4
 1203 0265 47010000 		.4byte	0x147
 1204 0269 03       		.uleb128 0x3
 1205 026a AF060000 		.4byte	.LASF50
 1206 026e 06       		.byte	0x6
 1207 026f 49       		.byte	0x49
 1208 0270 74020000 		.4byte	0x274
 1209 0274 05       		.uleb128 0x5
 1210 0275 B5050000 		.4byte	.LASF52
 1211 0279 04       		.byte	0x4
 1212 027a 07       		.byte	0x7
 1213 027b B0       		.byte	0xb0
 1214 027c 8D020000 		.4byte	0x28d
ARM GAS  /tmp/cc0Z7oom.s 			page 47


 1215 0280 06       		.uleb128 0x6
 1216 0281 3B050000 		.4byte	.LASF30
 1217 0285 07       		.byte	0x7
 1218 0286 B1       		.byte	0xb1
 1219 0287 63020000 		.4byte	0x263
 1220 028b 00       		.byte	0
 1221 028c 00       		.byte	0
 1222 028d 03       		.uleb128 0x3
 1223 028e 52050000 		.4byte	.LASF53
 1224 0292 06       		.byte	0x6
 1225 0293 50       		.byte	0x50
 1226 0294 98020000 		.4byte	0x298
 1227 0298 05       		.uleb128 0x5
 1228 0299 54000000 		.4byte	.LASF54
 1229 029d 08       		.byte	0x8
 1230 029e 07       		.byte	0x7
 1231 029f B7       		.byte	0xb7
 1232 02a0 BD020000 		.4byte	0x2bd
 1233 02a4 06       		.uleb128 0x6
 1234 02a5 3B050000 		.4byte	.LASF30
 1235 02a9 07       		.byte	0x7
 1236 02aa B8       		.byte	0xb8
 1237 02ab 63020000 		.4byte	0x263
 1238 02af 00       		.byte	0
 1239 02b0 06       		.uleb128 0x6
 1240 02b1 C3040000 		.4byte	.LASF31
 1241 02b5 07       		.byte	0x7
 1242 02b6 B9       		.byte	0xb9
 1243 02b7 63020000 		.4byte	0x263
 1244 02bb 04       		.byte	0x4
 1245 02bc 00       		.byte	0
 1246 02bd 03       		.uleb128 0x3
 1247 02be 00000000 		.4byte	.LASF55
 1248 02c2 06       		.byte	0x6
 1249 02c3 57       		.byte	0x57
 1250 02c4 C8020000 		.4byte	0x2c8
 1251 02c8 0A       		.uleb128 0xa
 1252 02c9 9D030000 		.4byte	.LASF56
 1253 02cd 1C       		.byte	0x1c
 1254 02ce 07       		.byte	0x7
 1255 02cf 9001     		.2byte	0x190
 1256 02d1 24030000 		.4byte	0x324
 1257 02d5 08       		.uleb128 0x8
 1258 02d6 A4050000 		.4byte	.LASF57
 1259 02da 07       		.byte	0x7
 1260 02db 9101     		.2byte	0x191
 1261 02dd 8D020000 		.4byte	0x28d
 1262 02e1 00       		.byte	0
 1263 02e2 08       		.uleb128 0x8
 1264 02e3 2D050000 		.4byte	.LASF58
 1265 02e7 07       		.byte	0x7
 1266 02e8 9201     		.2byte	0x192
 1267 02ea 05010000 		.4byte	0x105
 1268 02ee 08       		.byte	0x8
 1269 02ef 08       		.uleb128 0x8
 1270 02f0 5C040000 		.4byte	.LASF59
 1271 02f4 07       		.byte	0x7
ARM GAS  /tmp/cc0Z7oom.s 			page 48


 1272 02f5 9401     		.2byte	0x194
 1273 02f7 CC040000 		.4byte	0x4cc
 1274 02fb 0C       		.byte	0xc
 1275 02fc 08       		.uleb128 0x8
 1276 02fd AD010000 		.4byte	.LASF60
 1277 0301 07       		.byte	0x7
 1278 0302 9701     		.2byte	0x197
 1279 0304 63020000 		.4byte	0x263
 1280 0308 10       		.byte	0x10
 1281 0309 08       		.uleb128 0x8
 1282 030a 83040000 		.4byte	.LASF61
 1283 030e 07       		.byte	0x7
 1284 030f 9801     		.2byte	0x198
 1285 0311 63020000 		.4byte	0x263
 1286 0315 14       		.byte	0x14
 1287 0316 08       		.uleb128 0x8
 1288 0317 79040000 		.4byte	.LASF62
 1289 031b 07       		.byte	0x7
 1290 031c 9B01     		.2byte	0x19b
 1291 031e 63020000 		.4byte	0x263
 1292 0322 18       		.byte	0x18
 1293 0323 00       		.byte	0
 1294 0324 03       		.uleb128 0x3
 1295 0325 0B060000 		.4byte	.LASF63
 1296 0329 06       		.byte	0x6
 1297 032a 5C       		.byte	0x5c
 1298 032b 2F030000 		.4byte	0x32f
 1299 032f 09       		.uleb128 0x9
 1300 0330 04       		.byte	0x4
 1301 0331 35030000 		.4byte	0x335
 1302 0335 0B       		.uleb128 0xb
 1303 0336 40030000 		.4byte	0x340
 1304 033a 0C       		.uleb128 0xc
 1305 033b 40030000 		.4byte	0x340
 1306 033f 00       		.byte	0
 1307 0340 0D       		.uleb128 0xd
 1308 0341 04       		.byte	0x4
 1309 0342 03       		.uleb128 0x3
 1310 0343 B3040000 		.4byte	.LASF64
 1311 0347 06       		.byte	0x6
 1312 0348 61       		.byte	0x61
 1313 0349 4D030000 		.4byte	0x34d
 1314 034d 0A       		.uleb128 0xa
 1315 034e 62050000 		.4byte	.LASF65
 1316 0352 14       		.byte	0x14
 1317 0353 07       		.byte	0x7
 1318 0354 6B01     		.2byte	0x16b
 1319 0356 9C030000 		.4byte	0x39c
 1320 035a 08       		.uleb128 0x8
 1321 035b 1A020000 		.4byte	.LASF66
 1322 035f 07       		.byte	0x7
 1323 0360 6C01     		.2byte	0x16c
 1324 0362 88070000 		.4byte	0x788
 1325 0366 00       		.byte	0
 1326 0367 08       		.uleb128 0x8
 1327 0368 BE010000 		.4byte	.LASF67
 1328 036c 07       		.byte	0x7
ARM GAS  /tmp/cc0Z7oom.s 			page 49


 1329 036d 6D01     		.2byte	0x16d
 1330 036f 88070000 		.4byte	0x788
 1331 0373 04       		.byte	0x4
 1332 0374 08       		.uleb128 0x8
 1333 0375 AC050000 		.4byte	.LASF68
 1334 0379 07       		.byte	0x7
 1335 037a 6E01     		.2byte	0x16e
 1336 037c 3C010000 		.4byte	0x13c
 1337 0380 08       		.byte	0x8
 1338 0381 08       		.uleb128 0x8
 1339 0382 F4060000 		.4byte	.LASF69
 1340 0386 07       		.byte	0x7
 1341 0387 6F01     		.2byte	0x16f
 1342 0389 24030000 		.4byte	0x324
 1343 038d 0C       		.byte	0xc
 1344 038e 08       		.uleb128 0x8
 1345 038f 4D060000 		.4byte	.LASF70
 1346 0393 07       		.byte	0x7
 1347 0394 7101     		.2byte	0x171
 1348 0396 40030000 		.4byte	0x340
 1349 039a 10       		.byte	0x10
 1350 039b 00       		.byte	0
 1351 039c 03       		.uleb128 0x3
 1352 039d D4000000 		.4byte	.LASF71
 1353 03a1 06       		.byte	0x6
 1354 03a2 66       		.byte	0x66
 1355 03a3 A7030000 		.4byte	0x3a7
 1356 03a7 0A       		.uleb128 0xa
 1357 03a8 1B040000 		.4byte	.LASF72
 1358 03ac 10       		.byte	0x10
 1359 03ad 07       		.byte	0x7
 1360 03ae 7B01     		.2byte	0x17b
 1361 03b0 E9030000 		.4byte	0x3e9
 1362 03b4 08       		.uleb128 0x8
 1363 03b5 1A020000 		.4byte	.LASF66
 1364 03b9 07       		.byte	0x7
 1365 03ba 7C01     		.2byte	0x17c
 1366 03bc 88070000 		.4byte	0x788
 1367 03c0 00       		.byte	0
 1368 03c1 08       		.uleb128 0x8
 1369 03c2 BE010000 		.4byte	.LASF67
 1370 03c6 07       		.byte	0x7
 1371 03c7 7E01     		.2byte	0x17e
 1372 03c9 88070000 		.4byte	0x788
 1373 03cd 04       		.byte	0x4
 1374 03ce 08       		.uleb128 0x8
 1375 03cf AC050000 		.4byte	.LASF68
 1376 03d3 07       		.byte	0x7
 1377 03d4 8001     		.2byte	0x180
 1378 03d6 3C010000 		.4byte	0x13c
 1379 03da 08       		.byte	0x8
 1380 03db 08       		.uleb128 0x8
 1381 03dc 48040000 		.4byte	.LASF73
 1382 03e0 07       		.byte	0x7
 1383 03e1 8801     		.2byte	0x188
 1384 03e3 3C010000 		.4byte	0x13c
 1385 03e7 0C       		.byte	0xc
ARM GAS  /tmp/cc0Z7oom.s 			page 50


 1386 03e8 00       		.byte	0
 1387 03e9 03       		.uleb128 0x3
 1388 03ea 65000000 		.4byte	.LASF74
 1389 03ee 06       		.byte	0x6
 1390 03ef 6B       		.byte	0x6b
 1391 03f0 F4030000 		.4byte	0x3f4
 1392 03f4 0E       		.uleb128 0xe
 1393 03f5 C6010000 		.4byte	.LASF75
 1394 03f9 1404     		.2byte	0x414
 1395 03fb 07       		.byte	0x7
 1396 03fc A201     		.2byte	0x1a2
 1397 03fe 37040000 		.4byte	0x437
 1398 0402 08       		.uleb128 0x8
 1399 0403 1F060000 		.4byte	.LASF76
 1400 0407 07       		.byte	0x7
 1401 0408 AA01     		.2byte	0x1aa
 1402 040a 8E070000 		.4byte	0x78e
 1403 040e 00       		.byte	0
 1404 040f 08       		.uleb128 0x8
 1405 0410 71060000 		.4byte	.LASF77
 1406 0414 07       		.byte	0x7
 1407 0415 AF01     		.2byte	0x1af
 1408 0417 26010000 		.4byte	0x126
 1409 041b 04       		.byte	0x4
 1410 041c 08       		.uleb128 0x8
 1411 041d E4010000 		.4byte	.LASF78
 1412 0421 07       		.byte	0x7
 1413 0422 B301     		.2byte	0x1b3
 1414 0424 26010000 		.4byte	0x126
 1415 0428 08       		.byte	0x8
 1416 0429 08       		.uleb128 0x8
 1417 042a BE060000 		.4byte	.LASF79
 1418 042e 07       		.byte	0x7
 1419 042f B901     		.2byte	0x1b9
 1420 0431 EE050000 		.4byte	0x5ee
 1421 0435 0C       		.byte	0xc
 1422 0436 00       		.byte	0
 1423 0437 03       		.uleb128 0x3
 1424 0438 DB020000 		.4byte	.LASF80
 1425 043c 06       		.byte	0x6
 1426 043d 70       		.byte	0x70
 1427 043e 42040000 		.4byte	0x442
 1428 0442 0E       		.uleb128 0xe
 1429 0443 5E010000 		.4byte	.LASF81
 1430 0447 D805     		.2byte	0x5d8
 1431 0449 07       		.byte	0x7
 1432 044a C201     		.2byte	0x1c2
 1433 044c AF040000 		.4byte	0x4af
 1434 0450 08       		.uleb128 0x8
 1435 0451 79060000 		.4byte	.LASF82
 1436 0455 07       		.byte	0x7
 1437 0456 C601     		.2byte	0x1c6
 1438 0458 BD020000 		.4byte	0x2bd
 1439 045c 00       		.byte	0
 1440 045d 08       		.uleb128 0x8
 1441 045e 51010000 		.4byte	.LASF83
 1442 0462 07       		.byte	0x7
ARM GAS  /tmp/cc0Z7oom.s 			page 51


 1443 0463 CA01     		.2byte	0x1ca
 1444 0465 9C030000 		.4byte	0x39c
 1445 0469 1C       		.byte	0x1c
 1446 046a 07       		.uleb128 0x7
 1447 046b 64626700 		.ascii	"dbg\000"
 1448 046f 07       		.byte	0x7
 1449 0470 CE01     		.2byte	0x1ce
 1450 0472 E9030000 		.4byte	0x3e9
 1451 0476 2C       		.byte	0x2c
 1452 0477 0F       		.uleb128 0xf
 1453 0478 7A020000 		.4byte	.LASF84
 1454 047c 07       		.byte	0x7
 1455 047d D201     		.2byte	0x1d2
 1456 047f 47010000 		.4byte	0x147
 1457 0483 4004     		.2byte	0x440
 1458 0485 10       		.uleb128 0x10
 1459 0486 746D00   		.ascii	"tm\000"
 1460 0489 07       		.byte	0x7
 1461 048a D701     		.2byte	0x1d7
 1462 048c 0E060000 		.4byte	0x60e
 1463 0490 A004     		.2byte	0x4a0
 1464 0492 0F       		.uleb128 0xf
 1465 0493 31000000 		.4byte	.LASF85
 1466 0497 07       		.byte	0x7
 1467 0498 DD01     		.2byte	0x1dd
 1468 049a A0060000 		.4byte	0x6a0
 1469 049e A804     		.2byte	0x4a8
 1470 04a0 0F       		.uleb128 0xf
 1471 04a1 ED010000 		.4byte	.LASF86
 1472 04a5 07       		.byte	0x7
 1473 04a6 E301     		.2byte	0x1e3
 1474 04a8 93070000 		.4byte	0x793
 1475 04ac E004     		.2byte	0x4e0
 1476 04ae 00       		.byte	0
 1477 04af 04       		.uleb128 0x4
 1478 04b0 04       		.byte	0x4
 1479 04b1 07       		.byte	0x7
 1480 04b2 FF030000 		.4byte	.LASF87
 1481 04b6 03       		.uleb128 0x3
 1482 04b7 B5010000 		.4byte	.LASF88
 1483 04bb 08       		.byte	0x8
 1484 04bc 65       		.byte	0x65
 1485 04bd 40030000 		.4byte	0x340
 1486 04c1 03       		.uleb128 0x3
 1487 04c2 E0030000 		.4byte	.LASF89
 1488 04c6 08       		.byte	0x8
 1489 04c7 6D       		.byte	0x6d
 1490 04c8 C3000000 		.4byte	0xc3
 1491 04cc 05       		.uleb128 0x5
 1492 04cd 30060000 		.4byte	.LASF90
 1493 04d1 04       		.byte	0x4
 1494 04d2 08       		.byte	0x8
 1495 04d3 89       		.byte	0x89
 1496 04d4 E5040000 		.4byte	0x4e5
 1497 04d8 11       		.uleb128 0x11
 1498 04d9 72313300 		.ascii	"r13\000"
 1499 04dd 08       		.byte	0x8
ARM GAS  /tmp/cc0Z7oom.s 			page 52


 1500 04de 8A       		.byte	0x8a
 1501 04df 60050000 		.4byte	0x560
 1502 04e3 00       		.byte	0
 1503 04e4 00       		.byte	0
 1504 04e5 05       		.uleb128 0x5
 1505 04e6 48000000 		.4byte	.LASF91
 1506 04ea 24       		.byte	0x24
 1507 04eb 09       		.byte	0x9
 1508 04ec FD       		.byte	0xfd
 1509 04ed 60050000 		.4byte	0x560
 1510 04f1 07       		.uleb128 0x7
 1511 04f2 723400   		.ascii	"r4\000"
 1512 04f5 09       		.byte	0x9
 1513 04f6 1001     		.2byte	0x110
 1514 04f8 B6040000 		.4byte	0x4b6
 1515 04fc 00       		.byte	0
 1516 04fd 07       		.uleb128 0x7
 1517 04fe 723500   		.ascii	"r5\000"
 1518 0501 09       		.byte	0x9
 1519 0502 1101     		.2byte	0x111
 1520 0504 B6040000 		.4byte	0x4b6
 1521 0508 04       		.byte	0x4
 1522 0509 07       		.uleb128 0x7
 1523 050a 723600   		.ascii	"r6\000"
 1524 050d 09       		.byte	0x9
 1525 050e 1201     		.2byte	0x112
 1526 0510 B6040000 		.4byte	0x4b6
 1527 0514 08       		.byte	0x8
 1528 0515 07       		.uleb128 0x7
 1529 0516 723700   		.ascii	"r7\000"
 1530 0519 09       		.byte	0x9
 1531 051a 1301     		.2byte	0x113
 1532 051c B6040000 		.4byte	0x4b6
 1533 0520 0C       		.byte	0xc
 1534 0521 07       		.uleb128 0x7
 1535 0522 723800   		.ascii	"r8\000"
 1536 0525 09       		.byte	0x9
 1537 0526 1401     		.2byte	0x114
 1538 0528 B6040000 		.4byte	0x4b6
 1539 052c 10       		.byte	0x10
 1540 052d 07       		.uleb128 0x7
 1541 052e 723900   		.ascii	"r9\000"
 1542 0531 09       		.byte	0x9
 1543 0532 1501     		.2byte	0x115
 1544 0534 B6040000 		.4byte	0x4b6
 1545 0538 14       		.byte	0x14
 1546 0539 07       		.uleb128 0x7
 1547 053a 72313000 		.ascii	"r10\000"
 1548 053e 09       		.byte	0x9
 1549 053f 1601     		.2byte	0x116
 1550 0541 B6040000 		.4byte	0x4b6
 1551 0545 18       		.byte	0x18
 1552 0546 07       		.uleb128 0x7
 1553 0547 72313100 		.ascii	"r11\000"
 1554 054b 09       		.byte	0x9
 1555 054c 1701     		.2byte	0x117
 1556 054e B6040000 		.4byte	0x4b6
ARM GAS  /tmp/cc0Z7oom.s 			page 53


 1557 0552 1C       		.byte	0x1c
 1558 0553 07       		.uleb128 0x7
 1559 0554 6C7200   		.ascii	"lr\000"
 1560 0557 09       		.byte	0x9
 1561 0558 1801     		.2byte	0x118
 1562 055a B6040000 		.4byte	0x4b6
 1563 055e 20       		.byte	0x20
 1564 055f 00       		.byte	0
 1565 0560 09       		.uleb128 0x9
 1566 0561 04       		.byte	0x4
 1567 0562 E5040000 		.4byte	0x4e5
 1568 0566 12       		.uleb128 0x12
 1569 0567 10       		.byte	0x10
 1570 0568 0A       		.byte	0xa
 1571 0569 51       		.byte	0x51
 1572 056a 9F050000 		.4byte	0x59f
 1573 056e 06       		.uleb128 0x6
 1574 056f 0D000000 		.4byte	.LASF92
 1575 0573 0A       		.byte	0xa
 1576 0574 55       		.byte	0x55
 1577 0575 3C010000 		.4byte	0x13c
 1578 0579 00       		.byte	0
 1579 057a 06       		.uleb128 0x6
 1580 057b 88010000 		.4byte	.LASF93
 1581 057f 0A       		.byte	0xa
 1582 0580 59       		.byte	0x59
 1583 0581 63020000 		.4byte	0x263
 1584 0585 04       		.byte	0x4
 1585 0586 06       		.uleb128 0x6
 1586 0587 E4060000 		.4byte	.LASF94
 1587 058b 0A       		.byte	0xa
 1588 058c 5D       		.byte	0x5d
 1589 058d 40030000 		.4byte	0x340
 1590 0591 08       		.byte	0x8
 1591 0592 06       		.uleb128 0x6
 1592 0593 B6000000 		.4byte	.LASF95
 1593 0597 0A       		.byte	0xa
 1594 0598 61       		.byte	0x61
 1595 0599 A2000000 		.4byte	0xa2
 1596 059d 0C       		.byte	0xc
 1597 059e 00       		.byte	0
 1598 059f 03       		.uleb128 0x3
 1599 05a0 39040000 		.4byte	.LASF96
 1600 05a4 0A       		.byte	0xa
 1601 05a5 62       		.byte	0x62
 1602 05a6 66050000 		.4byte	0x566
 1603 05aa 13       		.uleb128 0x13
 1604 05ab 0804     		.2byte	0x408
 1605 05ad 0A       		.byte	0xa
 1606 05ae 67       		.byte	0x67
 1607 05af D8050000 		.4byte	0x5d8
 1608 05b3 06       		.uleb128 0x6
 1609 05b4 A5010000 		.4byte	.LASF97
 1610 05b8 0A       		.byte	0xa
 1611 05b9 6B       		.byte	0x6b
 1612 05ba 37000000 		.4byte	0x37
 1613 05be 00       		.byte	0
ARM GAS  /tmp/cc0Z7oom.s 			page 54


 1614 05bf 06       		.uleb128 0x6
 1615 05c0 32040000 		.4byte	.LASF98
 1616 05c4 0A       		.byte	0xa
 1617 05c5 6F       		.byte	0x6f
 1618 05c6 D8050000 		.4byte	0x5d8
 1619 05ca 04       		.byte	0x4
 1620 05cb 06       		.uleb128 0x6
 1621 05cc A9040000 		.4byte	.LASF99
 1622 05d0 0A       		.byte	0xa
 1623 05d1 73       		.byte	0x73
 1624 05d2 DE050000 		.4byte	0x5de
 1625 05d6 08       		.byte	0x8
 1626 05d7 00       		.byte	0
 1627 05d8 09       		.uleb128 0x9
 1628 05d9 04       		.byte	0x4
 1629 05da 9F050000 		.4byte	0x59f
 1630 05de 14       		.uleb128 0x14
 1631 05df 9F050000 		.4byte	0x59f
 1632 05e3 EE050000 		.4byte	0x5ee
 1633 05e7 15       		.uleb128 0x15
 1634 05e8 AF040000 		.4byte	0x4af
 1635 05ec 3F       		.byte	0x3f
 1636 05ed 00       		.byte	0
 1637 05ee 03       		.uleb128 0x3
 1638 05ef A4000000 		.4byte	.LASF100
 1639 05f3 0A       		.byte	0xa
 1640 05f4 74       		.byte	0x74
 1641 05f5 AA050000 		.4byte	0x5aa
 1642 05f9 12       		.uleb128 0x12
 1643 05fa 04       		.byte	0x4
 1644 05fb 0B       		.byte	0xb
 1645 05fc 38       		.byte	0x38
 1646 05fd 0E060000 		.4byte	0x60e
 1647 0601 06       		.uleb128 0x6
 1648 0602 29060000 		.4byte	.LASF101
 1649 0606 0B       		.byte	0xb
 1650 0607 3C       		.byte	0x3c
 1651 0608 CE000000 		.4byte	0xce
 1652 060c 00       		.byte	0
 1653 060d 00       		.byte	0
 1654 060e 03       		.uleb128 0x3
 1655 060f 62040000 		.4byte	.LASF102
 1656 0613 0B       		.byte	0xb
 1657 0614 3D       		.byte	0x3d
 1658 0615 F9050000 		.4byte	0x5f9
 1659 0619 12       		.uleb128 0x12
 1660 061a 18       		.byte	0x18
 1661 061b 0B       		.byte	0xb
 1662 061c 48       		.byte	0x48
 1663 061d 5C060000 		.4byte	0x65c
 1664 0621 06       		.uleb128 0x6
 1665 0622 EA050000 		.4byte	.LASF103
 1666 0626 0B       		.byte	0xb
 1667 0627 49       		.byte	0x49
 1668 0628 CE000000 		.4byte	0xce
 1669 062c 00       		.byte	0
 1670 062d 06       		.uleb128 0x6
ARM GAS  /tmp/cc0Z7oom.s 			page 55


 1671 062e 74000000 		.4byte	.LASF104
 1672 0632 0B       		.byte	0xb
 1673 0633 4A       		.byte	0x4a
 1674 0634 CE000000 		.4byte	0xce
 1675 0638 04       		.byte	0x4
 1676 0639 06       		.uleb128 0x6
 1677 063a 8B020000 		.4byte	.LASF105
 1678 063e 0B       		.byte	0xb
 1679 063f 4B       		.byte	0x4b
 1680 0640 CE000000 		.4byte	0xce
 1681 0644 08       		.byte	0x8
 1682 0645 11       		.uleb128 0x11
 1683 0646 6E00     		.ascii	"n\000"
 1684 0648 0B       		.byte	0xb
 1685 0649 4C       		.byte	0x4c
 1686 064a 31010000 		.4byte	0x131
 1687 064e 0C       		.byte	0xc
 1688 064f 06       		.uleb128 0x6
 1689 0650 96040000 		.4byte	.LASF106
 1690 0654 0B       		.byte	0xb
 1691 0655 4D       		.byte	0x4d
 1692 0656 D9000000 		.4byte	0xd9
 1693 065a 10       		.byte	0x10
 1694 065b 00       		.byte	0
 1695 065c 03       		.uleb128 0x3
 1696 065d 7A000000 		.4byte	.LASF107
 1697 0661 0B       		.byte	0xb
 1698 0662 4E       		.byte	0x4e
 1699 0663 19060000 		.4byte	0x619
 1700 0667 12       		.uleb128 0x12
 1701 0668 38       		.byte	0x38
 1702 0669 0C       		.byte	0xc
 1703 066a 38       		.byte	0x38
 1704 066b A0060000 		.4byte	0x6a0
 1705 066f 06       		.uleb128 0x6
 1706 0670 3D020000 		.4byte	.LASF108
 1707 0674 0C       		.byte	0xc
 1708 0675 39       		.byte	0x39
 1709 0676 31010000 		.4byte	0x131
 1710 067a 00       		.byte	0
 1711 067b 06       		.uleb128 0x6
 1712 067c E6040000 		.4byte	.LASF109
 1713 0680 0C       		.byte	0xc
 1714 0681 3A       		.byte	0x3a
 1715 0682 31010000 		.4byte	0x131
 1716 0686 04       		.byte	0x4
 1717 0687 06       		.uleb128 0x6
 1718 0688 D1060000 		.4byte	.LASF110
 1719 068c 0C       		.byte	0xc
 1720 068d 3B       		.byte	0x3b
 1721 068e 5C060000 		.4byte	0x65c
 1722 0692 08       		.byte	0x8
 1723 0693 06       		.uleb128 0x6
 1724 0694 92030000 		.4byte	.LASF111
 1725 0698 0C       		.byte	0xc
 1726 0699 3D       		.byte	0x3d
 1727 069a 5C060000 		.4byte	0x65c
ARM GAS  /tmp/cc0Z7oom.s 			page 56


 1728 069e 20       		.byte	0x20
 1729 069f 00       		.byte	0
 1730 06a0 03       		.uleb128 0x3
 1731 06a1 61020000 		.4byte	.LASF112
 1732 06a5 0C       		.byte	0xc
 1733 06a6 3F       		.byte	0x3f
 1734 06a7 67060000 		.4byte	0x667
 1735 06ab 16       		.uleb128 0x16
 1736 06ac 04       		.byte	0x4
 1737 06ad 07       		.byte	0x7
 1738 06ae FA       		.byte	0xfa
 1739 06af 08070000 		.4byte	0x708
 1740 06b3 17       		.uleb128 0x17
 1741 06b4 21000000 		.4byte	.LASF113
 1742 06b8 07       		.byte	0x7
 1743 06b9 0101     		.2byte	0x101
 1744 06bb 10010000 		.4byte	0x110
 1745 06bf 17       		.uleb128 0x17
 1746 06c0 BF000000 		.4byte	.LASF114
 1747 06c4 07       		.byte	0x7
 1748 06c5 0801     		.2byte	0x108
 1749 06c7 10010000 		.4byte	0x110
 1750 06cb 17       		.uleb128 0x17
 1751 06cc 9C060000 		.4byte	.LASF115
 1752 06d0 07       		.byte	0x7
 1753 06d1 0F01     		.2byte	0x10f
 1754 06d3 40030000 		.4byte	0x340
 1755 06d7 17       		.uleb128 0x17
 1756 06d8 58010000 		.4byte	.LASF116
 1757 06dc 07       		.byte	0x7
 1758 06dd 1601     		.2byte	0x116
 1759 06df 08070000 		.4byte	0x708
 1760 06e3 17       		.uleb128 0x17
 1761 06e4 22020000 		.4byte	.LASF117
 1762 06e8 07       		.byte	0x7
 1763 06e9 1E01     		.2byte	0x11e
 1764 06eb 33070000 		.4byte	0x733
 1765 06ef 17       		.uleb128 0x17
 1766 06f0 9D050000 		.4byte	.LASF118
 1767 06f4 07       		.byte	0x7
 1768 06f5 2701     		.2byte	0x127
 1769 06f7 6A070000 		.4byte	0x76a
 1770 06fb 17       		.uleb128 0x17
 1771 06fc 34050000 		.4byte	.LASF119
 1772 0700 07       		.byte	0x7
 1773 0701 2F01     		.2byte	0x12f
 1774 0703 1B010000 		.4byte	0x11b
 1775 0707 00       		.byte	0
 1776 0708 09       		.uleb128 0x9
 1777 0709 04       		.byte	0x4
 1778 070a 58020000 		.4byte	0x258
 1779 070e 05       		.uleb128 0x5
 1780 070f 7C050000 		.4byte	.LASF120
 1781 0713 0C       		.byte	0xc
 1782 0714 0D       		.byte	0xd
 1783 0715 34       		.byte	0x34
 1784 0716 33070000 		.4byte	0x733
ARM GAS  /tmp/cc0Z7oom.s 			page 57


 1785 071a 06       		.uleb128 0x6
 1786 071b 9D010000 		.4byte	.LASF121
 1787 071f 0D       		.byte	0xd
 1788 0720 35       		.byte	0x35
 1789 0721 8D020000 		.4byte	0x28d
 1790 0725 00       		.byte	0
 1791 0726 06       		.uleb128 0x6
 1792 0727 43020000 		.4byte	.LASF122
 1793 072b 0D       		.byte	0xd
 1794 072c 37       		.byte	0x37
 1795 072d 26010000 		.4byte	0x126
 1796 0731 08       		.byte	0x8
 1797 0732 00       		.byte	0
 1798 0733 09       		.uleb128 0x9
 1799 0734 04       		.byte	0x4
 1800 0735 0E070000 		.4byte	0x70e
 1801 0739 05       		.uleb128 0x5
 1802 073a 61060000 		.4byte	.LASF123
 1803 073e 10       		.byte	0x10
 1804 073f 0E       		.byte	0xe
 1805 0740 39       		.byte	0x39
 1806 0741 6A070000 		.4byte	0x76a
 1807 0745 06       		.uleb128 0x6
 1808 0746 49010000 		.4byte	.LASF124
 1809 074a 0E       		.byte	0xe
 1810 074b 3A       		.byte	0x3a
 1811 074c 8D020000 		.4byte	0x28d
 1812 0750 00       		.byte	0
 1813 0751 06       		.uleb128 0x6
 1814 0752 DC060000 		.4byte	.LASF125
 1815 0756 0E       		.byte	0xe
 1816 0757 3C       		.byte	0x3c
 1817 0758 63020000 		.4byte	0x263
 1818 075c 08       		.byte	0x8
 1819 075d 06       		.uleb128 0x6
 1820 075e EF050000 		.4byte	.LASF126
 1821 0762 0E       		.byte	0xe
 1822 0763 3E       		.byte	0x3e
 1823 0764 AE070000 		.4byte	0x7ae
 1824 0768 0C       		.byte	0xc
 1825 0769 00       		.byte	0
 1826 076a 09       		.uleb128 0x9
 1827 076b 04       		.byte	0x4
 1828 076c 39070000 		.4byte	0x739
 1829 0770 09       		.uleb128 0x9
 1830 0771 04       		.byte	0x4
 1831 0772 76070000 		.4byte	0x776
 1832 0776 18       		.uleb128 0x18
 1833 0777 7B070000 		.4byte	0x77b
 1834 077b 04       		.uleb128 0x4
 1835 077c 01       		.byte	0x1
 1836 077d 08       		.byte	0x8
 1837 077e DC050000 		.4byte	.LASF127
 1838 0782 09       		.uleb128 0x9
 1839 0783 04       		.byte	0x4
 1840 0784 C1040000 		.4byte	0x4c1
 1841 0788 09       		.uleb128 0x9
ARM GAS  /tmp/cc0Z7oom.s 			page 58


 1842 0789 04       		.byte	0x4
 1843 078a 42030000 		.4byte	0x342
 1844 078e 19       		.uleb128 0x19
 1845 078f 70070000 		.4byte	0x770
 1846 0793 14       		.uleb128 0x14
 1847 0794 C1040000 		.4byte	0x4c1
 1848 0798 A3070000 		.4byte	0x7a3
 1849 079c 15       		.uleb128 0x15
 1850 079d AF040000 		.4byte	0x4af
 1851 07a1 1E       		.byte	0x1e
 1852 07a2 00       		.byte	0
 1853 07a3 03       		.uleb128 0x3
 1854 07a4 19010000 		.4byte	.LASF128
 1855 07a8 0E       		.byte	0xe
 1856 07a9 34       		.byte	0x34
 1857 07aa 39070000 		.4byte	0x739
 1858 07ae 09       		.uleb128 0x9
 1859 07af 04       		.byte	0x4
 1860 07b0 A3070000 		.4byte	0x7a3
 1861 07b4 03       		.uleb128 0x3
 1862 07b5 40060000 		.4byte	.LASF129
 1863 07b9 0F       		.byte	0xf
 1864 07ba 34       		.byte	0x34
 1865 07bb BF070000 		.4byte	0x7bf
 1866 07bf 09       		.uleb128 0x9
 1867 07c0 04       		.byte	0x4
 1868 07c1 C5070000 		.4byte	0x7c5
 1869 07c5 1A       		.uleb128 0x1a
 1870 07c6 40030000 		.4byte	0x340
 1871 07ca D4070000 		.4byte	0x7d4
 1872 07ce 0C       		.uleb128 0xc
 1873 07cf 2C000000 		.4byte	0x2c
 1874 07d3 00       		.byte	0
 1875 07d4 03       		.uleb128 0x3
 1876 07d5 7A010000 		.4byte	.LASF130
 1877 07d9 10       		.byte	0x10
 1878 07da 3C       		.byte	0x3c
 1879 07db DF070000 		.4byte	0x7df
 1880 07df 05       		.uleb128 0x5
 1881 07e0 FC060000 		.4byte	.LASF131
 1882 07e4 20       		.byte	0x20
 1883 07e5 10       		.byte	0x10
 1884 07e6 4F       		.byte	0x4f
 1885 07e7 10080000 		.4byte	0x810
 1886 07eb 06       		.uleb128 0x6
 1887 07ec 91060000 		.4byte	.LASF132
 1888 07f0 10       		.byte	0x10
 1889 07f1 50       		.byte	0x50
 1890 07f2 B4070000 		.4byte	0x7b4
 1891 07f6 00       		.byte	0
 1892 07f7 06       		.uleb128 0x6
 1893 07f8 C8000000 		.4byte	.LASF133
 1894 07fc 10       		.byte	0x10
 1895 07fd 52       		.byte	0x52
 1896 07fe 2F080000 		.4byte	0x82f
 1897 0802 08       		.byte	0x8
 1898 0803 06       		.uleb128 0x6
ARM GAS  /tmp/cc0Z7oom.s 			page 59


 1899 0804 3B010000 		.4byte	.LASF134
 1900 0808 10       		.byte	0x10
 1901 0809 54       		.byte	0x54
 1902 080a A3070000 		.4byte	0x7a3
 1903 080e 10       		.byte	0x10
 1904 080f 00       		.byte	0
 1905 0810 16       		.uleb128 0x16
 1906 0811 04       		.byte	0x4
 1907 0812 10       		.byte	0x10
 1908 0813 44       		.byte	0x44
 1909 0814 2F080000 		.4byte	0x82f
 1910 0818 1B       		.uleb128 0x1b
 1911 0819 1C000000 		.4byte	.LASF135
 1912 081d 10       		.byte	0x10
 1913 081e 45       		.byte	0x45
 1914 081f 50080000 		.4byte	0x850
 1915 0823 1B       		.uleb128 0x1b
 1916 0824 C5050000 		.4byte	.LASF136
 1917 0828 10       		.byte	0x10
 1918 0829 46       		.byte	0x46
 1919 082a 56080000 		.4byte	0x856
 1920 082e 00       		.byte	0
 1921 082f 1C       		.uleb128 0x1c
 1922 0830 05050000 		.4byte	.LASF144
 1923 0834 08       		.byte	0x8
 1924 0835 10       		.byte	0x10
 1925 0836 41       		.byte	0x41
 1926 0837 50080000 		.4byte	0x850
 1927 083b 1B       		.uleb128 0x1b
 1928 083c F7000000 		.4byte	.LASF137
 1929 0840 10       		.byte	0x10
 1930 0841 42       		.byte	0x42
 1931 0842 C1040000 		.4byte	0x4c1
 1932 0846 1D       		.uleb128 0x1d
 1933 0847 6800     		.ascii	"h\000"
 1934 0849 10       		.byte	0x10
 1935 084a 49       		.byte	0x49
 1936 084b 5C080000 		.4byte	0x85c
 1937 084f 00       		.byte	0
 1938 0850 09       		.uleb128 0x9
 1939 0851 04       		.byte	0x4
 1940 0852 2F080000 		.4byte	0x82f
 1941 0856 09       		.uleb128 0x9
 1942 0857 04       		.byte	0x4
 1943 0858 D4070000 		.4byte	0x7d4
 1944 085c 12       		.uleb128 0x12
 1945 085d 08       		.byte	0x8
 1946 085e 10       		.byte	0x10
 1947 085f 43       		.byte	0x43
 1948 0860 7B080000 		.4byte	0x87b
 1949 0864 11       		.uleb128 0x11
 1950 0865 7500     		.ascii	"u\000"
 1951 0867 10       		.byte	0x10
 1952 0868 47       		.byte	0x47
 1953 0869 10080000 		.4byte	0x810
 1954 086d 00       		.byte	0
 1955 086e 06       		.uleb128 0x6
ARM GAS  /tmp/cc0Z7oom.s 			page 60


 1956 086f AA060000 		.4byte	.LASF138
 1957 0873 10       		.byte	0x10
 1958 0874 48       		.byte	0x48
 1959 0875 2C000000 		.4byte	0x2c
 1960 0879 04       		.byte	0x4
 1961 087a 00       		.byte	0
 1962 087b 05       		.uleb128 0x5
 1963 087c 73050000 		.4byte	.LASF139
 1964 0880 10       		.byte	0x10
 1965 0881 11       		.byte	0x11
 1966 0882 3B       		.byte	0x3b
 1967 0883 B8080000 		.4byte	0x8b8
 1968 0887 06       		.uleb128 0x6
 1969 0888 49020000 		.4byte	.LASF140
 1970 088c 11       		.byte	0x11
 1971 088d 3C       		.byte	0x3c
 1972 088e 70070000 		.4byte	0x770
 1973 0892 00       		.byte	0
 1974 0893 06       		.uleb128 0x6
 1975 0894 73040000 		.4byte	.LASF141
 1976 0898 11       		.byte	0x11
 1977 0899 3D       		.byte	0x3d
 1978 089a B9080000 		.4byte	0x8b9
 1979 089e 04       		.byte	0x4
 1980 089f 06       		.uleb128 0x6
 1981 08a0 34020000 		.4byte	.LASF142
 1982 08a4 11       		.byte	0x11
 1983 08a5 3E       		.byte	0x3e
 1984 08a6 B9080000 		.4byte	0x8b9
 1985 08aa 08       		.byte	0x8
 1986 08ab 06       		.uleb128 0x6
 1987 08ac CA040000 		.4byte	.LASF143
 1988 08b0 11       		.byte	0x11
 1989 08b1 3F       		.byte	0x3f
 1990 08b2 B9080000 		.4byte	0x8b9
 1991 08b6 0C       		.byte	0xc
 1992 08b7 00       		.byte	0
 1993 08b8 1E       		.uleb128 0x1e
 1994 08b9 09       		.uleb128 0x9
 1995 08ba 04       		.byte	0x4
 1996 08bb B8080000 		.4byte	0x8b8
 1997 08bf 13       		.uleb128 0x13
 1998 08c0 0807     		.2byte	0x708
 1999 08c2 11       		.byte	0x11
 2000 08c3 44       		.byte	0x44
 2001 08c4 04090000 		.4byte	0x904
 2002 08c8 11       		.uleb128 0x11
 2003 08c9 543000   		.ascii	"T0\000"
 2004 08cc 11       		.byte	0x11
 2005 08cd 45       		.byte	0x45
 2006 08ce 04090000 		.4byte	0x904
 2007 08d2 00       		.byte	0
 2008 08d3 1F       		.uleb128 0x1f
 2009 08d4 543100   		.ascii	"T1\000"
 2010 08d7 11       		.byte	0x11
 2011 08d8 46       		.byte	0x46
 2012 08d9 04090000 		.4byte	0x904
ARM GAS  /tmp/cc0Z7oom.s 			page 61


 2013 08dd 6801     		.2byte	0x168
 2014 08df 1F       		.uleb128 0x1f
 2015 08e0 543200   		.ascii	"T2\000"
 2016 08e3 11       		.byte	0x11
 2017 08e4 47       		.byte	0x47
 2018 08e5 04090000 		.4byte	0x904
 2019 08e9 D002     		.2byte	0x2d0
 2020 08eb 1F       		.uleb128 0x1f
 2021 08ec 543300   		.ascii	"T3\000"
 2022 08ef 11       		.byte	0x11
 2023 08f0 48       		.byte	0x48
 2024 08f1 04090000 		.4byte	0x904
 2025 08f5 3804     		.2byte	0x438
 2026 08f7 1F       		.uleb128 0x1f
 2027 08f8 543400   		.ascii	"T4\000"
 2028 08fb 11       		.byte	0x11
 2029 08fc 49       		.byte	0x49
 2030 08fd 04090000 		.4byte	0x904
 2031 0901 A005     		.2byte	0x5a0
 2032 0903 00       		.byte	0
 2033 0904 14       		.uleb128 0x14
 2034 0905 C1040000 		.4byte	0x4c1
 2035 0909 14090000 		.4byte	0x914
 2036 090d 15       		.uleb128 0x15
 2037 090e AF040000 		.4byte	0x4af
 2038 0912 2C       		.byte	0x2c
 2039 0913 00       		.byte	0
 2040 0914 20       		.uleb128 0x20
 2041 0915 54060000 		.4byte	.LASF145
 2042 0919 0807     		.2byte	0x708
 2043 091b 11       		.byte	0x11
 2044 091c 43       		.byte	0x43
 2045 091d 37090000 		.4byte	0x937
 2046 0921 1D       		.uleb128 0x1d
 2047 0922 776100   		.ascii	"wa\000"
 2048 0925 11       		.byte	0x11
 2049 0926 4A       		.byte	0x4a
 2050 0927 BF080000 		.4byte	0x8bf
 2051 092b 1B       		.uleb128 0x1b
 2052 092c 8E010000 		.4byte	.LASF146
 2053 0930 11       		.byte	0x11
 2054 0931 4B       		.byte	0x4b
 2055 0932 37090000 		.4byte	0x937
 2056 0936 00       		.byte	0
 2057 0937 14       		.uleb128 0x14
 2058 0938 A2000000 		.4byte	0xa2
 2059 093c 48090000 		.4byte	0x948
 2060 0940 21       		.uleb128 0x21
 2061 0941 AF040000 		.4byte	0x4af
 2062 0945 0707     		.2byte	0x707
 2063 0947 00       		.byte	0
 2064 0948 22       		.uleb128 0x22
 2065 0949 DA040000 		.4byte	.LASF155
 2066 094d 01       		.byte	0x1
 2067 094e 40       		.byte	0x40
 2068 094f 00000000 		.4byte	.LFB241
 2069 0953 1C000000 		.4byte	.LFE241-.LFB241
ARM GAS  /tmp/cc0Z7oom.s 			page 62


 2070 0957 01       		.uleb128 0x1
 2071 0958 9C       		.byte	0x9c
 2072 0959 23       		.uleb128 0x23
 2073 095a D6010000 		.4byte	.LASF156
 2074 095e 01       		.byte	0x1
 2075 095f 45       		.byte	0x45
 2076 0960 00000000 		.4byte	.LFB242
 2077 0964 72030000 		.4byte	.LFE242-.LFB242
 2078 0968 01       		.uleb128 0x1
 2079 0969 9C       		.byte	0x9c
 2080 096a AF090000 		.4byte	0x9af
 2081 096e 24       		.uleb128 0x24
 2082 096f 703100   		.ascii	"p1\000"
 2083 0972 01       		.byte	0x1
 2084 0973 46       		.byte	0x46
 2085 0974 40030000 		.4byte	0x340
 2086 0978 02       		.uleb128 0x2
 2087 0979 91       		.byte	0x91
 2088 097a 74       		.sleb128 -12
 2089 097b 24       		.uleb128 0x24
 2090 097c 703200   		.ascii	"p2\000"
 2091 097f 01       		.byte	0x1
 2092 0980 46       		.byte	0x46
 2093 0981 40030000 		.4byte	0x340
 2094 0985 02       		.uleb128 0x2
 2095 0986 91       		.byte	0x91
 2096 0987 70       		.sleb128 -16
 2097 0988 24       		.uleb128 0x24
 2098 0989 703300   		.ascii	"p3\000"
 2099 098c 01       		.byte	0x1
 2100 098d 46       		.byte	0x46
 2101 098e 40030000 		.4byte	0x340
 2102 0992 02       		.uleb128 0x2
 2103 0993 91       		.byte	0x91
 2104 0994 6C       		.sleb128 -20
 2105 0995 24       		.uleb128 0x24
 2106 0996 6E00     		.ascii	"n\000"
 2107 0998 01       		.byte	0x1
 2108 0999 47       		.byte	0x47
 2109 099a 2C000000 		.4byte	0x2c
 2110 099e 02       		.uleb128 0x2
 2111 099f 91       		.byte	0x91
 2112 09a0 68       		.sleb128 -24
 2113 09a1 24       		.uleb128 0x24
 2114 09a2 737A00   		.ascii	"sz\000"
 2115 09a5 01       		.byte	0x1
 2116 09a6 47       		.byte	0x47
 2117 09a7 2C000000 		.4byte	0x2c
 2118 09ab 02       		.uleb128 0x2
 2119 09ac 91       		.byte	0x91
 2120 09ad 64       		.sleb128 -28
 2121 09ae 00       		.byte	0
 2122 09af 25       		.uleb128 0x25
 2123 09b0 87060000 		.4byte	.LASF147
 2124 09b4 01       		.byte	0x1
 2125 09b5 33       		.byte	0x33
 2126 09b6 D4070000 		.4byte	0x7d4
ARM GAS  /tmp/cc0Z7oom.s 			page 63


 2127 09ba 05       		.uleb128 0x5
 2128 09bb 03       		.byte	0x3
 2129 09bc 00000000 		.4byte	test_heap
 2130 09c0 26       		.uleb128 0x26
 2131 09c1 EA000000 		.4byte	.LASF148
 2132 09c5 12       		.byte	0x12
 2133 09c6 FA06     		.2byte	0x6fa
 2134 09c8 CC090000 		.4byte	0x9cc
 2135 09cc 19       		.uleb128 0x19
 2136 09cd AD000000 		.4byte	0xad
 2137 09d1 27       		.uleb128 0x27
 2138 09d2 636800   		.ascii	"ch\000"
 2139 09d5 07       		.byte	0x7
 2140 09d6 0902     		.2byte	0x209
 2141 09d8 37040000 		.4byte	0x437
 2142 09dc 28       		.uleb128 0x28
 2143 09dd CF000000 		.4byte	.LASF149
 2144 09e1 11       		.byte	0x11
 2145 09e2 A8       		.byte	0xa8
 2146 09e3 14090000 		.4byte	0x914
 2147 09e7 29       		.uleb128 0x29
 2148 09e8 EB030000 		.4byte	.LASF150
 2149 09ec 01       		.byte	0x1
 2150 09ed 8E       		.byte	0x8e
 2151 09ee F8090000 		.4byte	0x9f8
 2152 09f2 05       		.uleb128 0x5
 2153 09f3 03       		.byte	0x3
 2154 09f4 00000000 		.4byte	testheap1
 2155 09f8 18       		.uleb128 0x18
 2156 09f9 7B080000 		.4byte	0x87b
 2157 09fd 14       		.uleb128 0x14
 2158 09fe 0D0A0000 		.4byte	0xa0d
 2159 0a02 0D0A0000 		.4byte	0xa0d
 2160 0a06 15       		.uleb128 0x15
 2161 0a07 AF040000 		.4byte	0x4af
 2162 0a0b 01       		.byte	0x1
 2163 0a0c 00       		.byte	0
 2164 0a0d 09       		.uleb128 0x9
 2165 0a0e 04       		.byte	0x4
 2166 0a0f F8090000 		.4byte	0x9f8
 2167 0a13 29       		.uleb128 0x29
 2168 0a14 0D010000 		.4byte	.LASF151
 2169 0a18 01       		.byte	0x1
 2170 0a19 9A       		.byte	0x9a
 2171 0a1a 240A0000 		.4byte	0xa24
 2172 0a1e 05       		.uleb128 0x5
 2173 0a1f 03       		.byte	0x3
 2174 0a20 00000000 		.4byte	patternheap
 2175 0a24 18       		.uleb128 0x18
 2176 0a25 FD090000 		.4byte	0x9fd
 2177 0a29 00       		.byte	0
 2178              		.section	.debug_abbrev,"",%progbits
 2179              	.Ldebug_abbrev0:
 2180 0000 01       		.uleb128 0x1
 2181 0001 11       		.uleb128 0x11
 2182 0002 01       		.byte	0x1
 2183 0003 25       		.uleb128 0x25
ARM GAS  /tmp/cc0Z7oom.s 			page 64


 2184 0004 0E       		.uleb128 0xe
 2185 0005 13       		.uleb128 0x13
 2186 0006 0B       		.uleb128 0xb
 2187 0007 03       		.uleb128 0x3
 2188 0008 0E       		.uleb128 0xe
 2189 0009 1B       		.uleb128 0x1b
 2190 000a 0E       		.uleb128 0xe
 2191 000b 55       		.uleb128 0x55
 2192 000c 17       		.uleb128 0x17
 2193 000d 11       		.uleb128 0x11
 2194 000e 01       		.uleb128 0x1
 2195 000f 10       		.uleb128 0x10
 2196 0010 17       		.uleb128 0x17
 2197 0011 00       		.byte	0
 2198 0012 00       		.byte	0
 2199 0013 02       		.uleb128 0x2
 2200 0014 24       		.uleb128 0x24
 2201 0015 00       		.byte	0
 2202 0016 0B       		.uleb128 0xb
 2203 0017 0B       		.uleb128 0xb
 2204 0018 3E       		.uleb128 0x3e
 2205 0019 0B       		.uleb128 0xb
 2206 001a 03       		.uleb128 0x3
 2207 001b 08       		.uleb128 0x8
 2208 001c 00       		.byte	0
 2209 001d 00       		.byte	0
 2210 001e 03       		.uleb128 0x3
 2211 001f 16       		.uleb128 0x16
 2212 0020 00       		.byte	0
 2213 0021 03       		.uleb128 0x3
 2214 0022 0E       		.uleb128 0xe
 2215 0023 3A       		.uleb128 0x3a
 2216 0024 0B       		.uleb128 0xb
 2217 0025 3B       		.uleb128 0x3b
 2218 0026 0B       		.uleb128 0xb
 2219 0027 49       		.uleb128 0x49
 2220 0028 13       		.uleb128 0x13
 2221 0029 00       		.byte	0
 2222 002a 00       		.byte	0
 2223 002b 04       		.uleb128 0x4
 2224 002c 24       		.uleb128 0x24
 2225 002d 00       		.byte	0
 2226 002e 0B       		.uleb128 0xb
 2227 002f 0B       		.uleb128 0xb
 2228 0030 3E       		.uleb128 0x3e
 2229 0031 0B       		.uleb128 0xb
 2230 0032 03       		.uleb128 0x3
 2231 0033 0E       		.uleb128 0xe
 2232 0034 00       		.byte	0
 2233 0035 00       		.byte	0
 2234 0036 05       		.uleb128 0x5
 2235 0037 13       		.uleb128 0x13
 2236 0038 01       		.byte	0x1
 2237 0039 03       		.uleb128 0x3
 2238 003a 0E       		.uleb128 0xe
 2239 003b 0B       		.uleb128 0xb
 2240 003c 0B       		.uleb128 0xb
ARM GAS  /tmp/cc0Z7oom.s 			page 65


 2241 003d 3A       		.uleb128 0x3a
 2242 003e 0B       		.uleb128 0xb
 2243 003f 3B       		.uleb128 0x3b
 2244 0040 0B       		.uleb128 0xb
 2245 0041 01       		.uleb128 0x1
 2246 0042 13       		.uleb128 0x13
 2247 0043 00       		.byte	0
 2248 0044 00       		.byte	0
 2249 0045 06       		.uleb128 0x6
 2250 0046 0D       		.uleb128 0xd
 2251 0047 00       		.byte	0
 2252 0048 03       		.uleb128 0x3
 2253 0049 0E       		.uleb128 0xe
 2254 004a 3A       		.uleb128 0x3a
 2255 004b 0B       		.uleb128 0xb
 2256 004c 3B       		.uleb128 0x3b
 2257 004d 0B       		.uleb128 0xb
 2258 004e 49       		.uleb128 0x49
 2259 004f 13       		.uleb128 0x13
 2260 0050 38       		.uleb128 0x38
 2261 0051 0B       		.uleb128 0xb
 2262 0052 00       		.byte	0
 2263 0053 00       		.byte	0
 2264 0054 07       		.uleb128 0x7
 2265 0055 0D       		.uleb128 0xd
 2266 0056 00       		.byte	0
 2267 0057 03       		.uleb128 0x3
 2268 0058 08       		.uleb128 0x8
 2269 0059 3A       		.uleb128 0x3a
 2270 005a 0B       		.uleb128 0xb
 2271 005b 3B       		.uleb128 0x3b
 2272 005c 05       		.uleb128 0x5
 2273 005d 49       		.uleb128 0x49
 2274 005e 13       		.uleb128 0x13
 2275 005f 38       		.uleb128 0x38
 2276 0060 0B       		.uleb128 0xb
 2277 0061 00       		.byte	0
 2278 0062 00       		.byte	0
 2279 0063 08       		.uleb128 0x8
 2280 0064 0D       		.uleb128 0xd
 2281 0065 00       		.byte	0
 2282 0066 03       		.uleb128 0x3
 2283 0067 0E       		.uleb128 0xe
 2284 0068 3A       		.uleb128 0x3a
 2285 0069 0B       		.uleb128 0xb
 2286 006a 3B       		.uleb128 0x3b
 2287 006b 05       		.uleb128 0x5
 2288 006c 49       		.uleb128 0x49
 2289 006d 13       		.uleb128 0x13
 2290 006e 38       		.uleb128 0x38
 2291 006f 0B       		.uleb128 0xb
 2292 0070 00       		.byte	0
 2293 0071 00       		.byte	0
 2294 0072 09       		.uleb128 0x9
 2295 0073 0F       		.uleb128 0xf
 2296 0074 00       		.byte	0
 2297 0075 0B       		.uleb128 0xb
ARM GAS  /tmp/cc0Z7oom.s 			page 66


 2298 0076 0B       		.uleb128 0xb
 2299 0077 49       		.uleb128 0x49
 2300 0078 13       		.uleb128 0x13
 2301 0079 00       		.byte	0
 2302 007a 00       		.byte	0
 2303 007b 0A       		.uleb128 0xa
 2304 007c 13       		.uleb128 0x13
 2305 007d 01       		.byte	0x1
 2306 007e 03       		.uleb128 0x3
 2307 007f 0E       		.uleb128 0xe
 2308 0080 0B       		.uleb128 0xb
 2309 0081 0B       		.uleb128 0xb
 2310 0082 3A       		.uleb128 0x3a
 2311 0083 0B       		.uleb128 0xb
 2312 0084 3B       		.uleb128 0x3b
 2313 0085 05       		.uleb128 0x5
 2314 0086 01       		.uleb128 0x1
 2315 0087 13       		.uleb128 0x13
 2316 0088 00       		.byte	0
 2317 0089 00       		.byte	0
 2318 008a 0B       		.uleb128 0xb
 2319 008b 15       		.uleb128 0x15
 2320 008c 01       		.byte	0x1
 2321 008d 27       		.uleb128 0x27
 2322 008e 19       		.uleb128 0x19
 2323 008f 01       		.uleb128 0x1
 2324 0090 13       		.uleb128 0x13
 2325 0091 00       		.byte	0
 2326 0092 00       		.byte	0
 2327 0093 0C       		.uleb128 0xc
 2328 0094 05       		.uleb128 0x5
 2329 0095 00       		.byte	0
 2330 0096 49       		.uleb128 0x49
 2331 0097 13       		.uleb128 0x13
 2332 0098 00       		.byte	0
 2333 0099 00       		.byte	0
 2334 009a 0D       		.uleb128 0xd
 2335 009b 0F       		.uleb128 0xf
 2336 009c 00       		.byte	0
 2337 009d 0B       		.uleb128 0xb
 2338 009e 0B       		.uleb128 0xb
 2339 009f 00       		.byte	0
 2340 00a0 00       		.byte	0
 2341 00a1 0E       		.uleb128 0xe
 2342 00a2 13       		.uleb128 0x13
 2343 00a3 01       		.byte	0x1
 2344 00a4 03       		.uleb128 0x3
 2345 00a5 0E       		.uleb128 0xe
 2346 00a6 0B       		.uleb128 0xb
 2347 00a7 05       		.uleb128 0x5
 2348 00a8 3A       		.uleb128 0x3a
 2349 00a9 0B       		.uleb128 0xb
 2350 00aa 3B       		.uleb128 0x3b
 2351 00ab 05       		.uleb128 0x5
 2352 00ac 01       		.uleb128 0x1
 2353 00ad 13       		.uleb128 0x13
 2354 00ae 00       		.byte	0
ARM GAS  /tmp/cc0Z7oom.s 			page 67


 2355 00af 00       		.byte	0
 2356 00b0 0F       		.uleb128 0xf
 2357 00b1 0D       		.uleb128 0xd
 2358 00b2 00       		.byte	0
 2359 00b3 03       		.uleb128 0x3
 2360 00b4 0E       		.uleb128 0xe
 2361 00b5 3A       		.uleb128 0x3a
 2362 00b6 0B       		.uleb128 0xb
 2363 00b7 3B       		.uleb128 0x3b
 2364 00b8 05       		.uleb128 0x5
 2365 00b9 49       		.uleb128 0x49
 2366 00ba 13       		.uleb128 0x13
 2367 00bb 38       		.uleb128 0x38
 2368 00bc 05       		.uleb128 0x5
 2369 00bd 00       		.byte	0
 2370 00be 00       		.byte	0
 2371 00bf 10       		.uleb128 0x10
 2372 00c0 0D       		.uleb128 0xd
 2373 00c1 00       		.byte	0
 2374 00c2 03       		.uleb128 0x3
 2375 00c3 08       		.uleb128 0x8
 2376 00c4 3A       		.uleb128 0x3a
 2377 00c5 0B       		.uleb128 0xb
 2378 00c6 3B       		.uleb128 0x3b
 2379 00c7 05       		.uleb128 0x5
 2380 00c8 49       		.uleb128 0x49
 2381 00c9 13       		.uleb128 0x13
 2382 00ca 38       		.uleb128 0x38
 2383 00cb 05       		.uleb128 0x5
 2384 00cc 00       		.byte	0
 2385 00cd 00       		.byte	0
 2386 00ce 11       		.uleb128 0x11
 2387 00cf 0D       		.uleb128 0xd
 2388 00d0 00       		.byte	0
 2389 00d1 03       		.uleb128 0x3
 2390 00d2 08       		.uleb128 0x8
 2391 00d3 3A       		.uleb128 0x3a
 2392 00d4 0B       		.uleb128 0xb
 2393 00d5 3B       		.uleb128 0x3b
 2394 00d6 0B       		.uleb128 0xb
 2395 00d7 49       		.uleb128 0x49
 2396 00d8 13       		.uleb128 0x13
 2397 00d9 38       		.uleb128 0x38
 2398 00da 0B       		.uleb128 0xb
 2399 00db 00       		.byte	0
 2400 00dc 00       		.byte	0
 2401 00dd 12       		.uleb128 0x12
 2402 00de 13       		.uleb128 0x13
 2403 00df 01       		.byte	0x1
 2404 00e0 0B       		.uleb128 0xb
 2405 00e1 0B       		.uleb128 0xb
 2406 00e2 3A       		.uleb128 0x3a
 2407 00e3 0B       		.uleb128 0xb
 2408 00e4 3B       		.uleb128 0x3b
 2409 00e5 0B       		.uleb128 0xb
 2410 00e6 01       		.uleb128 0x1
 2411 00e7 13       		.uleb128 0x13
ARM GAS  /tmp/cc0Z7oom.s 			page 68


 2412 00e8 00       		.byte	0
 2413 00e9 00       		.byte	0
 2414 00ea 13       		.uleb128 0x13
 2415 00eb 13       		.uleb128 0x13
 2416 00ec 01       		.byte	0x1
 2417 00ed 0B       		.uleb128 0xb
 2418 00ee 05       		.uleb128 0x5
 2419 00ef 3A       		.uleb128 0x3a
 2420 00f0 0B       		.uleb128 0xb
 2421 00f1 3B       		.uleb128 0x3b
 2422 00f2 0B       		.uleb128 0xb
 2423 00f3 01       		.uleb128 0x1
 2424 00f4 13       		.uleb128 0x13
 2425 00f5 00       		.byte	0
 2426 00f6 00       		.byte	0
 2427 00f7 14       		.uleb128 0x14
 2428 00f8 01       		.uleb128 0x1
 2429 00f9 01       		.byte	0x1
 2430 00fa 49       		.uleb128 0x49
 2431 00fb 13       		.uleb128 0x13
 2432 00fc 01       		.uleb128 0x1
 2433 00fd 13       		.uleb128 0x13
 2434 00fe 00       		.byte	0
 2435 00ff 00       		.byte	0
 2436 0100 15       		.uleb128 0x15
 2437 0101 21       		.uleb128 0x21
 2438 0102 00       		.byte	0
 2439 0103 49       		.uleb128 0x49
 2440 0104 13       		.uleb128 0x13
 2441 0105 2F       		.uleb128 0x2f
 2442 0106 0B       		.uleb128 0xb
 2443 0107 00       		.byte	0
 2444 0108 00       		.byte	0
 2445 0109 16       		.uleb128 0x16
 2446 010a 17       		.uleb128 0x17
 2447 010b 01       		.byte	0x1
 2448 010c 0B       		.uleb128 0xb
 2449 010d 0B       		.uleb128 0xb
 2450 010e 3A       		.uleb128 0x3a
 2451 010f 0B       		.uleb128 0xb
 2452 0110 3B       		.uleb128 0x3b
 2453 0111 0B       		.uleb128 0xb
 2454 0112 01       		.uleb128 0x1
 2455 0113 13       		.uleb128 0x13
 2456 0114 00       		.byte	0
 2457 0115 00       		.byte	0
 2458 0116 17       		.uleb128 0x17
 2459 0117 0D       		.uleb128 0xd
 2460 0118 00       		.byte	0
 2461 0119 03       		.uleb128 0x3
 2462 011a 0E       		.uleb128 0xe
 2463 011b 3A       		.uleb128 0x3a
 2464 011c 0B       		.uleb128 0xb
 2465 011d 3B       		.uleb128 0x3b
 2466 011e 05       		.uleb128 0x5
 2467 011f 49       		.uleb128 0x49
 2468 0120 13       		.uleb128 0x13
ARM GAS  /tmp/cc0Z7oom.s 			page 69


 2469 0121 00       		.byte	0
 2470 0122 00       		.byte	0
 2471 0123 18       		.uleb128 0x18
 2472 0124 26       		.uleb128 0x26
 2473 0125 00       		.byte	0
 2474 0126 49       		.uleb128 0x49
 2475 0127 13       		.uleb128 0x13
 2476 0128 00       		.byte	0
 2477 0129 00       		.byte	0
 2478 012a 19       		.uleb128 0x19
 2479 012b 35       		.uleb128 0x35
 2480 012c 00       		.byte	0
 2481 012d 49       		.uleb128 0x49
 2482 012e 13       		.uleb128 0x13
 2483 012f 00       		.byte	0
 2484 0130 00       		.byte	0
 2485 0131 1A       		.uleb128 0x1a
 2486 0132 15       		.uleb128 0x15
 2487 0133 01       		.byte	0x1
 2488 0134 27       		.uleb128 0x27
 2489 0135 19       		.uleb128 0x19
 2490 0136 49       		.uleb128 0x49
 2491 0137 13       		.uleb128 0x13
 2492 0138 01       		.uleb128 0x1
 2493 0139 13       		.uleb128 0x13
 2494 013a 00       		.byte	0
 2495 013b 00       		.byte	0
 2496 013c 1B       		.uleb128 0x1b
 2497 013d 0D       		.uleb128 0xd
 2498 013e 00       		.byte	0
 2499 013f 03       		.uleb128 0x3
 2500 0140 0E       		.uleb128 0xe
 2501 0141 3A       		.uleb128 0x3a
 2502 0142 0B       		.uleb128 0xb
 2503 0143 3B       		.uleb128 0x3b
 2504 0144 0B       		.uleb128 0xb
 2505 0145 49       		.uleb128 0x49
 2506 0146 13       		.uleb128 0x13
 2507 0147 00       		.byte	0
 2508 0148 00       		.byte	0
 2509 0149 1C       		.uleb128 0x1c
 2510 014a 17       		.uleb128 0x17
 2511 014b 01       		.byte	0x1
 2512 014c 03       		.uleb128 0x3
 2513 014d 0E       		.uleb128 0xe
 2514 014e 0B       		.uleb128 0xb
 2515 014f 0B       		.uleb128 0xb
 2516 0150 3A       		.uleb128 0x3a
 2517 0151 0B       		.uleb128 0xb
 2518 0152 3B       		.uleb128 0x3b
 2519 0153 0B       		.uleb128 0xb
 2520 0154 01       		.uleb128 0x1
 2521 0155 13       		.uleb128 0x13
 2522 0156 00       		.byte	0
 2523 0157 00       		.byte	0
 2524 0158 1D       		.uleb128 0x1d
 2525 0159 0D       		.uleb128 0xd
ARM GAS  /tmp/cc0Z7oom.s 			page 70


 2526 015a 00       		.byte	0
 2527 015b 03       		.uleb128 0x3
 2528 015c 08       		.uleb128 0x8
 2529 015d 3A       		.uleb128 0x3a
 2530 015e 0B       		.uleb128 0xb
 2531 015f 3B       		.uleb128 0x3b
 2532 0160 0B       		.uleb128 0xb
 2533 0161 49       		.uleb128 0x49
 2534 0162 13       		.uleb128 0x13
 2535 0163 00       		.byte	0
 2536 0164 00       		.byte	0
 2537 0165 1E       		.uleb128 0x1e
 2538 0166 15       		.uleb128 0x15
 2539 0167 00       		.byte	0
 2540 0168 27       		.uleb128 0x27
 2541 0169 19       		.uleb128 0x19
 2542 016a 00       		.byte	0
 2543 016b 00       		.byte	0
 2544 016c 1F       		.uleb128 0x1f
 2545 016d 0D       		.uleb128 0xd
 2546 016e 00       		.byte	0
 2547 016f 03       		.uleb128 0x3
 2548 0170 08       		.uleb128 0x8
 2549 0171 3A       		.uleb128 0x3a
 2550 0172 0B       		.uleb128 0xb
 2551 0173 3B       		.uleb128 0x3b
 2552 0174 0B       		.uleb128 0xb
 2553 0175 49       		.uleb128 0x49
 2554 0176 13       		.uleb128 0x13
 2555 0177 38       		.uleb128 0x38
 2556 0178 05       		.uleb128 0x5
 2557 0179 00       		.byte	0
 2558 017a 00       		.byte	0
 2559 017b 20       		.uleb128 0x20
 2560 017c 17       		.uleb128 0x17
 2561 017d 01       		.byte	0x1
 2562 017e 03       		.uleb128 0x3
 2563 017f 0E       		.uleb128 0xe
 2564 0180 0B       		.uleb128 0xb
 2565 0181 05       		.uleb128 0x5
 2566 0182 3A       		.uleb128 0x3a
 2567 0183 0B       		.uleb128 0xb
 2568 0184 3B       		.uleb128 0x3b
 2569 0185 0B       		.uleb128 0xb
 2570 0186 01       		.uleb128 0x1
 2571 0187 13       		.uleb128 0x13
 2572 0188 00       		.byte	0
 2573 0189 00       		.byte	0
 2574 018a 21       		.uleb128 0x21
 2575 018b 21       		.uleb128 0x21
 2576 018c 00       		.byte	0
 2577 018d 49       		.uleb128 0x49
 2578 018e 13       		.uleb128 0x13
 2579 018f 2F       		.uleb128 0x2f
 2580 0190 05       		.uleb128 0x5
 2581 0191 00       		.byte	0
 2582 0192 00       		.byte	0
ARM GAS  /tmp/cc0Z7oom.s 			page 71


 2583 0193 22       		.uleb128 0x22
 2584 0194 2E       		.uleb128 0x2e
 2585 0195 00       		.byte	0
 2586 0196 03       		.uleb128 0x3
 2587 0197 0E       		.uleb128 0xe
 2588 0198 3A       		.uleb128 0x3a
 2589 0199 0B       		.uleb128 0xb
 2590 019a 3B       		.uleb128 0x3b
 2591 019b 0B       		.uleb128 0xb
 2592 019c 27       		.uleb128 0x27
 2593 019d 19       		.uleb128 0x19
 2594 019e 11       		.uleb128 0x11
 2595 019f 01       		.uleb128 0x1
 2596 01a0 12       		.uleb128 0x12
 2597 01a1 06       		.uleb128 0x6
 2598 01a2 40       		.uleb128 0x40
 2599 01a3 18       		.uleb128 0x18
 2600 01a4 9642     		.uleb128 0x2116
 2601 01a6 19       		.uleb128 0x19
 2602 01a7 00       		.byte	0
 2603 01a8 00       		.byte	0
 2604 01a9 23       		.uleb128 0x23
 2605 01aa 2E       		.uleb128 0x2e
 2606 01ab 01       		.byte	0x1
 2607 01ac 03       		.uleb128 0x3
 2608 01ad 0E       		.uleb128 0xe
 2609 01ae 3A       		.uleb128 0x3a
 2610 01af 0B       		.uleb128 0xb
 2611 01b0 3B       		.uleb128 0x3b
 2612 01b1 0B       		.uleb128 0xb
 2613 01b2 27       		.uleb128 0x27
 2614 01b3 19       		.uleb128 0x19
 2615 01b4 11       		.uleb128 0x11
 2616 01b5 01       		.uleb128 0x1
 2617 01b6 12       		.uleb128 0x12
 2618 01b7 06       		.uleb128 0x6
 2619 01b8 40       		.uleb128 0x40
 2620 01b9 18       		.uleb128 0x18
 2621 01ba 9642     		.uleb128 0x2116
 2622 01bc 19       		.uleb128 0x19
 2623 01bd 01       		.uleb128 0x1
 2624 01be 13       		.uleb128 0x13
 2625 01bf 00       		.byte	0
 2626 01c0 00       		.byte	0
 2627 01c1 24       		.uleb128 0x24
 2628 01c2 34       		.uleb128 0x34
 2629 01c3 00       		.byte	0
 2630 01c4 03       		.uleb128 0x3
 2631 01c5 08       		.uleb128 0x8
 2632 01c6 3A       		.uleb128 0x3a
 2633 01c7 0B       		.uleb128 0xb
 2634 01c8 3B       		.uleb128 0x3b
 2635 01c9 0B       		.uleb128 0xb
 2636 01ca 49       		.uleb128 0x49
 2637 01cb 13       		.uleb128 0x13
 2638 01cc 02       		.uleb128 0x2
 2639 01cd 18       		.uleb128 0x18
ARM GAS  /tmp/cc0Z7oom.s 			page 72


 2640 01ce 00       		.byte	0
 2641 01cf 00       		.byte	0
 2642 01d0 25       		.uleb128 0x25
 2643 01d1 34       		.uleb128 0x34
 2644 01d2 00       		.byte	0
 2645 01d3 03       		.uleb128 0x3
 2646 01d4 0E       		.uleb128 0xe
 2647 01d5 3A       		.uleb128 0x3a
 2648 01d6 0B       		.uleb128 0xb
 2649 01d7 3B       		.uleb128 0x3b
 2650 01d8 0B       		.uleb128 0xb
 2651 01d9 49       		.uleb128 0x49
 2652 01da 13       		.uleb128 0x13
 2653 01db 02       		.uleb128 0x2
 2654 01dc 18       		.uleb128 0x18
 2655 01dd 00       		.byte	0
 2656 01de 00       		.byte	0
 2657 01df 26       		.uleb128 0x26
 2658 01e0 34       		.uleb128 0x34
 2659 01e1 00       		.byte	0
 2660 01e2 03       		.uleb128 0x3
 2661 01e3 0E       		.uleb128 0xe
 2662 01e4 3A       		.uleb128 0x3a
 2663 01e5 0B       		.uleb128 0xb
 2664 01e6 3B       		.uleb128 0x3b
 2665 01e7 05       		.uleb128 0x5
 2666 01e8 49       		.uleb128 0x49
 2667 01e9 13       		.uleb128 0x13
 2668 01ea 3F       		.uleb128 0x3f
 2669 01eb 19       		.uleb128 0x19
 2670 01ec 3C       		.uleb128 0x3c
 2671 01ed 19       		.uleb128 0x19
 2672 01ee 00       		.byte	0
 2673 01ef 00       		.byte	0
 2674 01f0 27       		.uleb128 0x27
 2675 01f1 34       		.uleb128 0x34
 2676 01f2 00       		.byte	0
 2677 01f3 03       		.uleb128 0x3
 2678 01f4 08       		.uleb128 0x8
 2679 01f5 3A       		.uleb128 0x3a
 2680 01f6 0B       		.uleb128 0xb
 2681 01f7 3B       		.uleb128 0x3b
 2682 01f8 05       		.uleb128 0x5
 2683 01f9 49       		.uleb128 0x49
 2684 01fa 13       		.uleb128 0x13
 2685 01fb 3F       		.uleb128 0x3f
 2686 01fc 19       		.uleb128 0x19
 2687 01fd 3C       		.uleb128 0x3c
 2688 01fe 19       		.uleb128 0x19
 2689 01ff 00       		.byte	0
 2690 0200 00       		.byte	0
 2691 0201 28       		.uleb128 0x28
 2692 0202 34       		.uleb128 0x34
 2693 0203 00       		.byte	0
 2694 0204 03       		.uleb128 0x3
 2695 0205 0E       		.uleb128 0xe
 2696 0206 3A       		.uleb128 0x3a
ARM GAS  /tmp/cc0Z7oom.s 			page 73


 2697 0207 0B       		.uleb128 0xb
 2698 0208 3B       		.uleb128 0x3b
 2699 0209 0B       		.uleb128 0xb
 2700 020a 49       		.uleb128 0x49
 2701 020b 13       		.uleb128 0x13
 2702 020c 3F       		.uleb128 0x3f
 2703 020d 19       		.uleb128 0x19
 2704 020e 3C       		.uleb128 0x3c
 2705 020f 19       		.uleb128 0x19
 2706 0210 00       		.byte	0
 2707 0211 00       		.byte	0
 2708 0212 29       		.uleb128 0x29
 2709 0213 34       		.uleb128 0x34
 2710 0214 00       		.byte	0
 2711 0215 03       		.uleb128 0x3
 2712 0216 0E       		.uleb128 0xe
 2713 0217 3A       		.uleb128 0x3a
 2714 0218 0B       		.uleb128 0xb
 2715 0219 3B       		.uleb128 0x3b
 2716 021a 0B       		.uleb128 0xb
 2717 021b 49       		.uleb128 0x49
 2718 021c 13       		.uleb128 0x13
 2719 021d 3F       		.uleb128 0x3f
 2720 021e 19       		.uleb128 0x19
 2721 021f 02       		.uleb128 0x2
 2722 0220 18       		.uleb128 0x18
 2723 0221 00       		.byte	0
 2724 0222 00       		.byte	0
 2725 0223 00       		.byte	0
 2726              		.section	.debug_aranges,"",%progbits
 2727 0000 24000000 		.4byte	0x24
 2728 0004 0200     		.2byte	0x2
 2729 0006 00000000 		.4byte	.Ldebug_info0
 2730 000a 04       		.byte	0x4
 2731 000b 00       		.byte	0
 2732 000c 0000     		.2byte	0
 2733 000e 0000     		.2byte	0
 2734 0010 00000000 		.4byte	.LFB241
 2735 0014 1C000000 		.4byte	.LFE241-.LFB241
 2736 0018 00000000 		.4byte	.LFB242
 2737 001c 72030000 		.4byte	.LFE242-.LFB242
 2738 0020 00000000 		.4byte	0
 2739 0024 00000000 		.4byte	0
 2740              		.section	.debug_ranges,"",%progbits
 2741              	.Ldebug_ranges0:
 2742 0000 00000000 		.4byte	.LFB241
 2743 0004 1C000000 		.4byte	.LFE241
 2744 0008 00000000 		.4byte	.LFB242
 2745 000c 72030000 		.4byte	.LFE242
 2746 0010 00000000 		.4byte	0
 2747 0014 00000000 		.4byte	0
 2748              		.section	.debug_line,"",%progbits
 2749              	.Ldebug_line0:
 2750 0000 B1020000 		.section	.debug_str,"MS",%progbits,1
 2750      0200F301 
 2750      00000201 
 2750      FB0E0D00 
ARM GAS  /tmp/cc0Z7oom.s 			page 74


 2750      01010101 
 2751              	.LASF55:
 2752 0000 72656164 		.ascii	"ready_list_t\000"
 2752      795F6C69 
 2752      73745F74 
 2752      00
 2753              	.LASF92:
 2754 000d 73655F74 		.ascii	"se_time\000"
 2754      696D6500 
 2755              	.LASF2:
 2756 0015 73697A65 		.ascii	"size_t\000"
 2756      5F7400
 2757              	.LASF135:
 2758 001c 6E657874 		.ascii	"next\000"
 2758      00
 2759              	.LASF113:
 2760 0021 7264796D 		.ascii	"rdymsg\000"
 2760      736700
 2761              	.LASF17:
 2762 0028 75696E74 		.ascii	"uint64_t\000"
 2762      36345F74 
 2762      00
 2763              	.LASF85:
 2764 0031 6B65726E 		.ascii	"kernel_stats\000"
 2764      656C5F73 
 2764      74617473 
 2764      00
 2765              	.LASF3:
 2766 003e 5F5F7569 		.ascii	"__uint8_t\000"
 2766      6E74385F 
 2766      7400
 2767              	.LASF91:
 2768 0048 706F7274 		.ascii	"port_intctx\000"
 2768      5F696E74 
 2768      63747800 
 2769              	.LASF54:
 2770 0054 63685F74 		.ascii	"ch_threads_queue\000"
 2770      68726561 
 2770      64735F71 
 2770      75657565 
 2770      00
 2771              	.LASF74:
 2772 0065 73797374 		.ascii	"system_debug_t\000"
 2772      656D5F64 
 2772      65627567 
 2772      5F7400
 2773              	.LASF104:
 2774 0074 776F7273 		.ascii	"worst\000"
 2774      7400
 2775              	.LASF107:
 2776 007a 74696D65 		.ascii	"time_measurement_t\000"
 2776      5F6D6561 
 2776      73757265 
 2776      6D656E74 
 2776      5F7400
 2777              	.LASF13:
 2778 008d 6C6F6E67 		.ascii	"long long unsigned int\000"
ARM GAS  /tmp/cc0Z7oom.s 			page 75


 2778      206C6F6E 
 2778      6720756E 
 2778      7369676E 
 2778      65642069 
 2779              	.LASF100:
 2780 00a4 63685F74 		.ascii	"ch_trace_buffer_t\000"
 2780      72616365 
 2780      5F627566 
 2780      6665725F 
 2780      7400
 2781              	.LASF95:
 2782 00b6 73655F73 		.ascii	"se_state\000"
 2782      74617465 
 2782      00
 2783              	.LASF114:
 2784 00bf 65786974 		.ascii	"exitcode\000"
 2784      636F6465 
 2784      00
 2785              	.LASF133:
 2786 00c8 685F6672 		.ascii	"h_free\000"
 2786      656500
 2787              	.LASF149:
 2788 00cf 74657374 		.ascii	"test\000"
 2788      00
 2789              	.LASF71:
 2790 00d4 76697274 		.ascii	"virtual_timers_list_t\000"
 2790      75616C5F 
 2790      74696D65 
 2790      72735F6C 
 2790      6973745F 
 2791              	.LASF148:
 2792 00ea 49544D5F 		.ascii	"ITM_RxBuffer\000"
 2792      52784275 
 2792      66666572 
 2792      00
 2793              	.LASF137:
 2794 00f7 616C6967 		.ascii	"align\000"
 2794      6E00
 2795              	.LASF19:
 2796 00fd 72747469 		.ascii	"rttime_t\000"
 2796      6D655F74 
 2796      00
 2797              	.LASF32:
 2798 0106 705F7072 		.ascii	"p_prio\000"
 2798      696F00
 2799              	.LASF151:
 2800 010d 70617474 		.ascii	"patternheap\000"
 2800      65726E68 
 2800      65617000 
 2801              	.LASF128:
 2802 0119 6D757465 		.ascii	"mutex_t\000"
 2802      785F7400 
 2803              	.LASF11:
 2804 0121 6C6F6E67 		.ascii	"long long int\000"
 2804      206C6F6E 
 2804      6720696E 
 2804      7400
ARM GAS  /tmp/cc0Z7oom.s 			page 76


 2805              	.LASF1:
 2806 012f 7369676E 		.ascii	"signed char\000"
 2806      65642063 
 2806      68617200 
 2807              	.LASF134:
 2808 013b 685F6D74 		.ascii	"h_mtx\000"
 2808      7800
 2809              	.LASF47:
 2810 0141 705F6D70 		.ascii	"p_mpool\000"
 2810      6F6F6C00 
 2811              	.LASF124:
 2812 0149 6D5F7175 		.ascii	"m_queue\000"
 2812      65756500 
 2813              	.LASF83:
 2814 0151 76746C69 		.ascii	"vtlist\000"
 2814      737400
 2815              	.LASF116:
 2816 0158 77747472 		.ascii	"wttrp\000"
 2816      7000
 2817              	.LASF81:
 2818 015e 63685F73 		.ascii	"ch_system\000"
 2818      79737465 
 2818      6D00
 2819              	.LASF8:
 2820 0168 6C6F6E67 		.ascii	"long int\000"
 2820      20696E74 
 2820      00
 2821              	.LASF21:
 2822 0171 74737461 		.ascii	"tstate_t\000"
 2822      74655F74 
 2822      00
 2823              	.LASF130:
 2824 017a 6D656D6F 		.ascii	"memory_heap_t\000"
 2824      72795F68 
 2824      6561705F 
 2824      7400
 2825              	.LASF93:
 2826 0188 73655F74 		.ascii	"se_tp\000"
 2826      7000
 2827              	.LASF146:
 2828 018e 62756666 		.ascii	"buffer\000"
 2828      657200
 2829              	.LASF34:
 2830 0195 705F6E65 		.ascii	"p_newer\000"
 2830      77657200 
 2831              	.LASF121:
 2832 019d 735F7175 		.ascii	"s_queue\000"
 2832      65756500 
 2833              	.LASF97:
 2834 01a5 74625F73 		.ascii	"tb_size\000"
 2834      697A6500 
 2835              	.LASF60:
 2836 01ad 725F6E65 		.ascii	"r_newer\000"
 2836      77657200 
 2837              	.LASF88:
 2838 01b5 72656761 		.ascii	"regarm_t\000"
 2838      726D5F74 
ARM GAS  /tmp/cc0Z7oom.s 			page 77


 2838      00
 2839              	.LASF67:
 2840 01be 76745F70 		.ascii	"vt_prev\000"
 2840      72657600 
 2841              	.LASF75:
 2842 01c6 63685F73 		.ascii	"ch_system_debug\000"
 2842      79737465 
 2842      6D5F6465 
 2842      62756700 
 2843              	.LASF156:
 2844 01d6 68656170 		.ascii	"heap1_execute\000"
 2844      315F6578 
 2844      65637574 
 2844      6500
 2845              	.LASF78:
 2846 01e4 6C6F636B 		.ascii	"lock_cnt\000"
 2846      5F636E74 
 2846      00
 2847              	.LASF86:
 2848 01ed 69646C65 		.ascii	"idle_thread_wa\000"
 2848      5F746872 
 2848      6561645F 
 2848      776100
 2849              	.LASF26:
 2850 01fc 636E745F 		.ascii	"cnt_t\000"
 2850      7400
 2851              	.LASF37:
 2852 0202 705F7374 		.ascii	"p_stklimit\000"
 2852      6B6C696D 
 2852      697400
 2853              	.LASF0:
 2854 020d 756E7369 		.ascii	"unsigned int\000"
 2854      676E6564 
 2854      20696E74 
 2854      00
 2855              	.LASF66:
 2856 021a 76745F6E 		.ascii	"vt_next\000"
 2856      65787400 
 2857              	.LASF117:
 2858 0222 77747365 		.ascii	"wtsemp\000"
 2858      6D7000
 2859              	.LASF42:
 2860 0229 705F6D73 		.ascii	"p_msgqueue\000"
 2860      67717565 
 2860      756500
 2861              	.LASF142:
 2862 0234 74656172 		.ascii	"teardown\000"
 2862      646F776E 
 2862      00
 2863              	.LASF108:
 2864 023d 6E5F6972 		.ascii	"n_irq\000"
 2864      7100
 2865              	.LASF122:
 2866 0243 735F636E 		.ascii	"s_cnt\000"
 2866      7400
 2867              	.LASF140:
 2868 0249 6E616D65 		.ascii	"name\000"
ARM GAS  /tmp/cc0Z7oom.s 			page 78


 2868      00
 2869              	.LASF6:
 2870 024e 73686F72 		.ascii	"short unsigned int\000"
 2870      7420756E 
 2870      7369676E 
 2870      65642069 
 2870      6E7400
 2871              	.LASF112:
 2872 0261 6B65726E 		.ascii	"kernel_stats_t\000"
 2872      656C5F73 
 2872      74617473 
 2872      5F7400
 2873              	.LASF51:
 2874 0270 63685F74 		.ascii	"ch_thread\000"
 2874      68726561 
 2874      6400
 2875              	.LASF84:
 2876 027a 6D61696E 		.ascii	"mainthread\000"
 2876      74687265 
 2876      616400
 2877              	.LASF24:
 2878 0285 6D73675F 		.ascii	"msg_t\000"
 2878      7400
 2879              	.LASF105:
 2880 028b 6C617374 		.ascii	"last\000"
 2880      00
 2881              	.LASF154:
 2882 0290 2F686F6D 		.ascii	"/home/jerker/chibios/ChibiOS_16.1.4/testhal/STM32/S"
 2882      652F6A65 
 2882      726B6572 
 2882      2F636869 
 2882      62696F73 
 2883 02c3 544D3332 		.ascii	"TM32F4xx/USB_CDC\000"
 2883      46347878 
 2883      2F555342 
 2883      5F434443 
 2883      00
 2884              	.LASF27:
 2885 02d4 75636E74 		.ascii	"ucnt_t\000"
 2885      5F7400
 2886              	.LASF80:
 2887 02db 63685F73 		.ascii	"ch_system_t\000"
 2887      79737465 
 2887      6D5F7400 
 2888              	.LASF152:
 2889 02e7 474E5520 		.ascii	"GNU C 4.8.2 -mcpu=cortex-m4 -mno-thumb-interwork -m"
 2889      4320342E 
 2889      382E3220 
 2889      2D6D6370 
 2889      753D636F 
 2890 031a 7468756D 		.ascii	"thumb -ggdb -O0 -fomit-frame-pointer -falign-functi"
 2890      62202D67 
 2890      67646220 
 2890      2D4F3020 
 2890      2D666F6D 
 2891 034d 6F6E733D 		.ascii	"ons=16 -ffunction-sections -fdata-sections -fno-com"
 2891      3136202D 
ARM GAS  /tmp/cc0Z7oom.s 			page 79


 2891      6666756E 
 2891      6374696F 
 2891      6E2D7365 
 2892 0380 6D6F6E20 		.ascii	"mon -flto\000"
 2892      2D666C74 
 2892      6F00
 2893              	.LASF20:
 2894 038a 746D6F64 		.ascii	"tmode_t\000"
 2894      655F7400 
 2895              	.LASF111:
 2896 0392 6D5F6372 		.ascii	"m_crit_isr\000"
 2896      69745F69 
 2896      737200
 2897              	.LASF56:
 2898 039d 63685F72 		.ascii	"ch_ready_list\000"
 2898      65616479 
 2898      5F6C6973 
 2898      7400
 2899              	.LASF25:
 2900 03ab 6576656E 		.ascii	"eventmask_t\000"
 2900      746D6173 
 2900      6B5F7400 
 2901              	.LASF7:
 2902 03b7 5F5F696E 		.ascii	"__int32_t\000"
 2902      7433325F 
 2902      7400
 2903              	.LASF153:
 2904 03c1 2E2E2F2E 		.ascii	"../../../../test/rt/testheap.c\000"
 2904      2E2F2E2E 
 2904      2F2E2E2F 
 2904      74657374 
 2904      2F72742F 
 2905              	.LASF89:
 2906 03e0 73746B61 		.ascii	"stkalign_t\000"
 2906      6C69676E 
 2906      5F7400
 2907              	.LASF150:
 2908 03eb 74657374 		.ascii	"testheap1\000"
 2908      68656170 
 2908      3100
 2909              	.LASF41:
 2910 03f5 705F7761 		.ascii	"p_waiting\000"
 2910      6974696E 
 2910      6700
 2911              	.LASF87:
 2912 03ff 73697A65 		.ascii	"sizetype\000"
 2912      74797065 
 2912      00
 2913              	.LASF49:
 2914 0408 74687265 		.ascii	"thread_reference_t\000"
 2914      61645F72 
 2914      65666572 
 2914      656E6365 
 2914      5F7400
 2915              	.LASF72:
 2916 041b 63685F76 		.ascii	"ch_virtual_timers_list\000"
 2916      69727475 
ARM GAS  /tmp/cc0Z7oom.s 			page 80


 2916      616C5F74 
 2916      696D6572 
 2916      735F6C69 
 2917              	.LASF98:
 2918 0432 74625F70 		.ascii	"tb_ptr\000"
 2918      747200
 2919              	.LASF96:
 2920 0439 63685F73 		.ascii	"ch_swc_event_t\000"
 2920      77635F65 
 2920      76656E74 
 2920      5F7400
 2921              	.LASF73:
 2922 0448 76745F6C 		.ascii	"vt_lasttime\000"
 2922      61737474 
 2922      696D6500 
 2923              	.LASF35:
 2924 0454 705F6F6C 		.ascii	"p_older\000"
 2924      64657200 
 2925              	.LASF59:
 2926 045c 725F6374 		.ascii	"r_ctx\000"
 2926      7800
 2927              	.LASF102:
 2928 0462 746D5F63 		.ascii	"tm_calibration_t\000"
 2928      616C6962 
 2928      72617469 
 2928      6F6E5F74 
 2928      00
 2929              	.LASF141:
 2930 0473 73657475 		.ascii	"setup\000"
 2930      7000
 2931              	.LASF62:
 2932 0479 725F6375 		.ascii	"r_current\000"
 2932      7272656E 
 2932      7400
 2933              	.LASF61:
 2934 0483 725F6F6C 		.ascii	"r_older\000"
 2934      64657200 
 2935              	.LASF12:
 2936 048b 5F5F7569 		.ascii	"__uint64_t\000"
 2936      6E743634 
 2936      5F7400
 2937              	.LASF106:
 2938 0496 63756D75 		.ascii	"cumulative\000"
 2938      6C617469 
 2938      766500
 2939              	.LASF22:
 2940 04a1 74726566 		.ascii	"trefs_t\000"
 2940      735F7400 
 2941              	.LASF99:
 2942 04a9 74625F62 		.ascii	"tb_buffer\000"
 2942      75666665 
 2942      7200
 2943              	.LASF64:
 2944 04b3 76697274 		.ascii	"virtual_timer_t\000"
 2944      75616C5F 
 2944      74696D65 
 2944      725F7400 
ARM GAS  /tmp/cc0Z7oom.s 			page 81


 2945              	.LASF31:
 2946 04c3 705F7072 		.ascii	"p_prev\000"
 2946      657600
 2947              	.LASF143:
 2948 04ca 65786563 		.ascii	"execute\000"
 2948      75746500 
 2949              	.LASF23:
 2950 04d2 74707269 		.ascii	"tprio_t\000"
 2950      6F5F7400 
 2951              	.LASF155:
 2952 04da 68656170 		.ascii	"heap1_setup\000"
 2952      315F7365 
 2952      74757000 
 2953              	.LASF109:
 2954 04e6 6E5F6374 		.ascii	"n_ctxswc\000"
 2954      78737763 
 2954      00
 2955              	.LASF15:
 2956 04ef 696E7433 		.ascii	"int32_t\000"
 2956      325F7400 
 2957              	.LASF4:
 2958 04f7 756E7369 		.ascii	"unsigned char\000"
 2958      676E6564 
 2958      20636861 
 2958      7200
 2959              	.LASF144:
 2960 0505 68656170 		.ascii	"heap_header\000"
 2960      5F686561 
 2960      64657200 
 2961              	.LASF45:
 2962 0511 705F6D74 		.ascii	"p_mtxlist\000"
 2962      786C6973 
 2962      7400
 2963              	.LASF5:
 2964 051b 73686F72 		.ascii	"short int\000"
 2964      7420696E 
 2964      7400
 2965              	.LASF38:
 2966 0525 705F7374 		.ascii	"p_state\000"
 2966      61746500 
 2967              	.LASF58:
 2968 052d 725F7072 		.ascii	"r_prio\000"
 2968      696F00
 2969              	.LASF119:
 2970 0534 65776D61 		.ascii	"ewmask\000"
 2970      736B00
 2971              	.LASF30:
 2972 053b 705F6E65 		.ascii	"p_next\000"
 2972      787400
 2973              	.LASF39:
 2974 0542 705F666C 		.ascii	"p_flags\000"
 2974      61677300 
 2975              	.LASF48:
 2976 054a 705F7374 		.ascii	"p_stats\000"
 2976      61747300 
 2977              	.LASF53:
 2978 0552 74687265 		.ascii	"threads_queue_t\000"
ARM GAS  /tmp/cc0Z7oom.s 			page 82


 2978      6164735F 
 2978      71756575 
 2978      655F7400 
 2979              	.LASF65:
 2980 0562 63685F76 		.ascii	"ch_virtual_timer\000"
 2980      69727475 
 2980      616C5F74 
 2980      696D6572 
 2980      00
 2981              	.LASF139:
 2982 0573 74657374 		.ascii	"testcase\000"
 2982      63617365 
 2982      00
 2983              	.LASF120:
 2984 057c 63685F73 		.ascii	"ch_semaphore\000"
 2984      656D6170 
 2984      686F7265 
 2984      00
 2985              	.LASF44:
 2986 0589 705F6570 		.ascii	"p_epending\000"
 2986      656E6469 
 2986      6E6700
 2987              	.LASF16:
 2988 0594 75696E74 		.ascii	"uint32_t\000"
 2988      33325F74 
 2988      00
 2989              	.LASF118:
 2990 059d 77746D74 		.ascii	"wtmtxp\000"
 2990      787000
 2991              	.LASF57:
 2992 05a4 725F7175 		.ascii	"r_queue\000"
 2992      65756500 
 2993              	.LASF68:
 2994 05ac 76745F64 		.ascii	"vt_delta\000"
 2994      656C7461 
 2994      00
 2995              	.LASF52:
 2996 05b5 63685F74 		.ascii	"ch_threads_list\000"
 2996      68726561 
 2996      64735F6C 
 2996      69737400 
 2997              	.LASF136:
 2998 05c5 68656170 		.ascii	"heap\000"
 2998      00
 2999              	.LASF10:
 3000 05ca 6C6F6E67 		.ascii	"long unsigned int\000"
 3000      20756E73 
 3000      69676E65 
 3000      6420696E 
 3000      7400
 3001              	.LASF127:
 3002 05dc 63686172 		.ascii	"char\000"
 3002      00
 3003              	.LASF29:
 3004 05e1 74687265 		.ascii	"thread_t\000"
 3004      61645F74 
 3004      00
ARM GAS  /tmp/cc0Z7oom.s 			page 83


 3005              	.LASF103:
 3006 05ea 62657374 		.ascii	"best\000"
 3006      00
 3007              	.LASF126:
 3008 05ef 6D5F6E65 		.ascii	"m_next\000"
 3008      787400
 3009              	.LASF28:
 3010 05f6 73797374 		.ascii	"systime_t\000"
 3010      696D655F 
 3010      7400
 3011              	.LASF46:
 3012 0600 705F7265 		.ascii	"p_realprio\000"
 3012      616C7072 
 3012      696F00
 3013              	.LASF63:
 3014 060b 76746675 		.ascii	"vtfunc_t\000"
 3014      6E635F74 
 3014      00
 3015              	.LASF9:
 3016 0614 5F5F7569 		.ascii	"__uint32_t\000"
 3016      6E743332 
 3016      5F7400
 3017              	.LASF76:
 3018 061f 70616E69 		.ascii	"panic_msg\000"
 3018      635F6D73 
 3018      6700
 3019              	.LASF101:
 3020 0629 6F666673 		.ascii	"offset\000"
 3020      657400
 3021              	.LASF90:
 3022 0630 636F6E74 		.ascii	"context\000"
 3022      65787400 
 3023              	.LASF18:
 3024 0638 7274636E 		.ascii	"rtcnt_t\000"
 3024      745F7400 
 3025              	.LASF129:
 3026 0640 6D656D67 		.ascii	"memgetfunc_t\000"
 3026      65746675 
 3026      6E635F74 
 3026      00
 3027              	.LASF70:
 3028 064d 76745F70 		.ascii	"vt_par\000"
 3028      617200
 3029              	.LASF145:
 3030 0654 74657374 		.ascii	"test_buffers\000"
 3030      5F627566 
 3030      66657273 
 3030      00
 3031              	.LASF123:
 3032 0661 63685F6D 		.ascii	"ch_mutex\000"
 3032      75746578 
 3032      00
 3033              	.LASF40:
 3034 066a 705F7265 		.ascii	"p_refs\000"
 3034      667300
 3035              	.LASF77:
 3036 0671 6973725F 		.ascii	"isr_cnt\000"
ARM GAS  /tmp/cc0Z7oom.s 			page 84


 3036      636E7400 
 3037              	.LASF82:
 3038 0679 726C6973 		.ascii	"rlist\000"
 3038      7400
 3039              	.LASF14:
 3040 067f 75696E74 		.ascii	"uint8_t\000"
 3040      385F7400 
 3041              	.LASF147:
 3042 0687 74657374 		.ascii	"test_heap\000"
 3042      5F686561 
 3042      7000
 3043              	.LASF132:
 3044 0691 685F7072 		.ascii	"h_provider\000"
 3044      6F766964 
 3044      657200
 3045              	.LASF115:
 3046 069c 77746F62 		.ascii	"wtobjp\000"
 3046      6A7000
 3047              	.LASF36:
 3048 06a3 705F6E61 		.ascii	"p_name\000"
 3048      6D6500
 3049              	.LASF138:
 3050 06aa 73697A65 		.ascii	"size\000"
 3050      00
 3051              	.LASF50:
 3052 06af 74687265 		.ascii	"threads_list_t\000"
 3052      6164735F 
 3052      6C697374 
 3052      5F7400
 3053              	.LASF79:
 3054 06be 74726163 		.ascii	"trace_buffer\000"
 3054      655F6275 
 3054      66666572 
 3054      00
 3055              	.LASF43:
 3056 06cb 705F6D73 		.ascii	"p_msg\000"
 3056      6700
 3057              	.LASF110:
 3058 06d1 6D5F6372 		.ascii	"m_crit_thd\000"
 3058      69745F74 
 3058      686400
 3059              	.LASF125:
 3060 06dc 6D5F6F77 		.ascii	"m_owner\000"
 3060      6E657200 
 3061              	.LASF94:
 3062 06e4 73655F77 		.ascii	"se_wtobjp\000"
 3062      746F626A 
 3062      7000
 3063              	.LASF33:
 3064 06ee 705F6374 		.ascii	"p_ctx\000"
 3064      7800
 3065              	.LASF69:
 3066 06f4 76745F66 		.ascii	"vt_func\000"
 3066      756E6300 
 3067              	.LASF131:
 3068 06fc 6D656D6F 		.ascii	"memory_heap\000"
 3068      72795F68 
ARM GAS  /tmp/cc0Z7oom.s 			page 85


 3068      65617000 
 3069              		.comm	__gnu_lto_v1,1,1
 3070              		.ident	"GCC: (4.8.2-14ubuntu1+6) 4.8.2"
ARM GAS  /tmp/cc0Z7oom.s 			page 86


DEFINED SYMBOLS
                            *ABS*:0000000000000000 testheap.c
     /tmp/cc0Z7oom.s:407    .bss.test_heap:0000000000000000 $d
     /tmp/cc0Z7oom.s:410    .bss.test_heap:0000000000000000 test_heap
     /tmp/cc0Z7oom.s:413    .text.heap1_setup:0000000000000000 $t
     /tmp/cc0Z7oom.s:418    .text.heap1_setup:0000000000000000 heap1_setup
     /tmp/cc0Z7oom.s:442    .text.heap1_execute:0000000000000000 $t
     /tmp/cc0Z7oom.s:447    .text.heap1_execute:0000000000000000 heap1_execute
     /tmp/cc0Z7oom.s:878    .rodata.testheap1:0000000000000000 testheap1
     /tmp/cc0Z7oom.s:871    .rodata:0000000000000000 $d
     /tmp/cc0Z7oom.s:875    .rodata.testheap1:0000000000000000 $d
     /tmp/cc0Z7oom.s:888    .rodata.patternheap:0000000000000000 patternheap
     /tmp/cc0Z7oom.s:885    .rodata.patternheap:0000000000000000 $d
                            *COM*:0000000000000001 __gnu_lto_v1
                     .debug_frame:0000000000000010 $d

UNDEFINED SYMBOLS
test
chHeapObjectInit
chCoreGetStatusX
chHeapStatus
chHeapAlloc
_test_assert
chHeapFree
