ARM GAS  /tmp/ccuZSfQH.s 			page 1


   1              		.syntax unified
   2              		.cpu cortex-m4
   3              		.fpu softvfp
   4              		.eabi_attribute 20, 1
   5              		.eabi_attribute 21, 1
   6              		.eabi_attribute 23, 3
   7              		.eabi_attribute 24, 1
   8              		.eabi_attribute 25, 1
   9              		.eabi_attribute 26, 1
  10              		.eabi_attribute 30, 6
  11              		.eabi_attribute 34, 1
  12              		.eabi_attribute 18, 4
  13              		.thumb
  14              		.file	"testmbox.c"
  15              		.text
  16              	.Ltext0:
  17              		.section	.gnu.lto_.inline.5c91fc6299eb1437,"",%progbits
  18 0000 789C6362 		.ascii	"x\234cb`b\300\006v1ChN\006\006\026 \223\211\345\203"
  18      6062C006 
  18      76314368 
  18      4E060616 
  18      209389E5 
  19 0015 1E030B44 		.ascii	"\036\003\013D-#\206\010\023\003;?\220dZ \017\023a\341"
  19      2D238608 
  19      13033B3F 
  19      90645A20 
  19      0F1361E1 
  20 0029 0512AC0C 		.ascii	"\005\022\254\014\254\274hZ\271\200\004\033\003\273\004"
  20      ACBC685A 
  20      B980041B 
  20      03BB04
  21 0038 AA6A661E 		.ascii	"\252jf\036\230\034;\0369\016\0066\005T9\2600\202\340"
  21      981C3B1E 
  21      390E0636 
  21      055439B0 
  21      3082E0
  22 004b 64103401 		.ascii	"d\0204\001*\020\371\260\232\021E\005\0237\2122\036\206"
  22      2A10F9B0 
  22      9A114505 
  22      13378A32 
  22      1E86
  23 005d 6D2C47F9 		.ascii	"m,G\371\200\302\017\230.\234\025\3054\013\354v4\243"
  23      80C20F98 
  23      2E9C15C5 
  23      340BEC76 
  23      34A3
  24 006f 718A219C 		.ascii	"q\212!\234\207S\002l=\232\001\304\352\005s\321\014@"
  24      8753026C 
  24      3D9A01C4 
  24      EA0573D1 
  24      0C40
  25 0081 6361E312 		.ascii	"ca\343\022A`\363\326 q\025u\202\035\247\323X\3710\355"
  25      4160F3D6 
  25      20711575 
  25      821DA7D3 
  25      58F930ED 
  26 0095 45882158 		.ascii	"E\210!X\010\017\202\305\350\346*\374\262h,\234\0261"
ARM GAS  /tmp/ccuZSfQH.s 			page 2


  26      080F82C5 
  26      E8E62AFC 
  26      B2682C9C 
  26      1631
  27 00a7 0000D424 		.ascii	"\000\000\324$\027\026"
  27      1716
  28              		.text
  29              		.section	.gnu.lto_port_lock.5c91fc6299eb1437,"",%progbits
  30 0000 789C6362 		.ascii	"x\234cb`b@\007\"@,\314\310\3000\001\304af`\004\252`"
  30      60624007 
  30      22402CCC 
  30      C8C03001 
  30      C4616660 
  31 0017 6462040A 		.ascii	"db\004\012002\32431\326G\202\230\014\214J\014\013\033"
  31      303032D4 
  31      3331D647 
  31      82980C8C 
  31      4A0C0B1B 
  32 002b 1A263D68 		.ascii	"\032&=h}\366\230if\303\201\226\005\015\177\376\377g"
  32      7DF69869 
  32      66C38196 
  32      050D7FFE 
  32      FF67
  33 003d 64CC6404 		.ascii	"d\314d\004\232h\316\310\220\314\310\020\001\3440*\200"
  33      9A68CEC8 
  33      90CCC810 
  33      01E4302A 
  33      80
  34 004e 29261654 		.ascii	")&\026T+\3263\035x\360\377\377\211\316\347{\201&3$2"
  34      2BD6331D 
  34      78F0FFFF 
  34      89CEE77B 
  34      81263324 
  35 0063 2E049A06 		.ascii	".\004\232\006\004\254\014-\015\015\023\024\030@\272"
  35      04AC0C2D 
  35      0D0D1314 
  35      1840BA
  36 0072 8120044C 		.ascii	"\201 \004L\206\202\034\300|\226\241i\007\220Ngd\004"
  36      86821CC0 
  36      7C96A169 
  36      07904E67 
  36      6404
  37 0084 99C70054 		.ascii	"\231\307\000T\303p\216\241\351\343\337\031\217%\340"
  37      C3708EA1 
  37      E9E3DF19 
  37      8F25E0
  38 0093 BAC08C86 		.ascii	"\272\300\214\206\003\335W\332YaF&2.fd\005\032\007q2"
  38      03DD57DA 
  38      59614626 
  38      322E6664 
  38      051A0771 
  39 00a8 10963283 		.ascii	"\020\2262\203|\314\014\361\266\034C\033\343\334\206"
  39      7CCC0CF1 
  39      B61C431B 
  39      E3DC86
  40 00b7 190E998C 		.ascii	"\031\016\231\214\314 n:X\031\\\256\023*\007u\373E\206"
  40      CC206E3A 
ARM GAS  /tmp/ccuZSfQH.s 			page 3


  40      58195CAE 
  40      132A0775 
  40      FB4586
  41 00ca C6073BF5 		.ascii	"\306\007;\365!\006\302@\010H\007H\271INf\222\276sFf"
  41      2106C240 
  41      08480748 
  41      B9494E66 
  41      92BE7346 
  42 00df 52A67F70 		.ascii	"R\246\177p\274\241\231\236\241\236\211\276~~\261~Q\211"
  42      BCA1999E 
  42      A19E89BE 
  42      7E7EB17E 
  42      5189
  43 00f1 7E417E51 		.ascii	"~A~QI\261\276c\220\257\263o\205~rFr~Qj|\231y\256^\006"
  43      49B1BE63 
  43      90AFB36F 
  43      857E7246 
  43      727E516A 
  44 010b 036B5962 		.ascii	"\003kYbNi\2529\016\255\251\025%\372\316\276\301\236"
  44      4E69AA39 
  44      0EADA915 
  44      25FACEBE 
  44      C19E
  45 011d C1FA9979 		.ascii	"\301\372\231y\3119\245)\251\372`\255\311\271n\245y\311"
  45      C939A529 
  45      A9FA60AD 
  45      C9B96EA5 
  45      79C9
  46 012f 40DD02BE 		.ascii	"@\335\002\276\301A\012I\211\305\251\005E\231:\012\252"
  46      C1410A49 
  46      89C5A905 
  46      45993A0A 
  46      AA
  47 0140 060C4C45 		.ascii	"\006\014LE\014\354\271\251\271\371E\225\014\000\027"
  47      0CECB9A9 
  47      B9F94595 
  47      0C0017
  48 014f 1D670F   		.ascii	"\035g\017"
  49              		.text
  50              		.section	.gnu.lto_port_unlock.5c91fc6299eb1437,"",%progbits
  51 0000 789C6362 		.ascii	"x\234cb`b@\007\"@,\314\310\3000\001\304af`\004\252`"
  51      60624007 
  51      22402CCC 
  51      C8C03001 
  51      C4616660 
  52 0017 6462040A 		.ascii	"db\004\012002\32431\326G\202\230\014\214J\014\013\033"
  52      303032D4 
  52      3331D647 
  52      82980C8C 
  52      4A0C0B1B 
  53 002b 1A263D68 		.ascii	"\032&=h\375\364\230if\303\201\226\005\015\177\376\377"
  53      FDF49869 
  53      66C38196 
  53      050D7FFE 
  53      FF
  54 003c 6764CC64 		.ascii	"gd\314d\004\232h\316\310\220\314\310\020\001\3440*\200"
  54      049A68CE 
ARM GAS  /tmp/ccuZSfQH.s 			page 4


  54      C890CCC8 
  54      1001E430 
  54      2A80
  55 004e 29261654 		.ascii	")&\026T+\3263\035x\360\377\377\213\316\375\373\200&"
  55      2BD6331D 
  55      78F0FFFF 
  55      8BCEFDFB 
  55      8026
  56 0060 3324322E 		.ascii	"3$2.\004\232\006\004\254\014-\015\015\023\024\030@\272"
  56      049A0604 
  56      AC0C2D0D 
  56      0D131418 
  56      40BA
  57 0072 8120044C 		.ascii	"\201 \004L\206\202\034\300|\226\241i\007\220Ngd\004"
  57      86821CC0 
  57      7C96A169 
  57      07904E67 
  57      6404
  58 0084 990736E4 		.ascii	"\231\0076\344\034C\323\307\2773\036K\300u\201\031\015"
  58      1C43D3C7 
  58      BF331E4B 
  58      C0758119 
  58      0D
  59 0095 074E3F6D 		.ascii	"\007N?mg\205\031\231\310\270\230\221\025h\034\304\311"
  59      67851999 
  59      C8B89891 
  59      15681CC4 
  59      C9
  60 00a6 4058CA0C 		.ascii	"@X\312\014\36213\304\333r\014m\214s\033f8d22\203\270"
  60      F23133C4 
  60      DB720C6D 
  60      8C731B66 
  60      38643232 
  61 00bc E9606570 		.ascii	"\351`ep\271N\250\034\324\355\027\031\032\037\234\327"
  61      B94EA81C 
  61      D4ED1719 
  61      1A1F9CD7 
  62 00cc 87180803 		.ascii	"\207\030\010\003! \035 \345&9\231I\372\316\031\231I"
  62      21201D20 
  62      E5263999 
  62      49FACE19 
  62      9949
  63 00de 99FEC1F1 		.ascii	"\231\376\301\361\206fz\206z&\372\372\371\305\372E%\372"
  63      86667A86 
  63      7A26FAFA 
  63      F9C5FA45 
  63      25FA
  64 00f0 05F94525 		.ascii	"\005\371E%\305\372\216A\276\316\276\025\372\311\031"
  64      C5FA8E41 
  64      BECEBE15 
  64      FAC919
  65 00ff C9F945A9 		.ascii	"\311\371E\251\361e\346\271z\031\014\254e\2119\245\251"
  65      F165E6B9 
  65      7A190CAC 
  65      658939A5 
  65      A9
  66 0110 E638B4A6 		.ascii	"\3468\264\246V\224\350;\373\006{\006\353g\346%\347\224"
ARM GAS  /tmp/ccuZSfQH.s 			page 5


  66      5694E83B 
  66      FB067B06 
  66      EB67E625 
  66      E794
  67 0122 A6A4EA83 		.ascii	"\246\244\352\203\265&\347\272\225\346%\003u\013\370"
  67      B526E7BA 
  67      95E62503 
  67      750BF8
  68 0131 06072924 		.ascii	"\006\007)$%\026\247\026\024e\352(\250\03200\0251\260"
  68      2516A716 
  68      1465EA28 
  68      A81A3030 
  68      1531B0
  69 0144 E7A6E6E6 		.ascii	"\347\246\346\346\027U2\000\000]Vg["
  69      17553200 
  69      005D5667 
  69      5B
  70              		.text
  71              		.section	.gnu.lto_mbox1_setup.5c91fc6299eb1437,"",%progbits
  72 0000 789C6362 		.ascii	"x\234cb`b@\007\"@|\026\2105A\034f\006F\240\012F&FF "
  72      60624007 
  72      22407C16 
  72      8835411C 
  72      660646A0 
  73 001a 8791A19E 		.ascii	"\207\221\241\236\211\261>\222\021\254l=\323\201\007"
  73      89B13E92 
  73      11AC6C3D 
  73      D38107
  74 0029 FFFFAF9B 		.ascii	"\377\377\257\233wl\376\032\306\231L 1V\206\226\206\206"
  74      776CFE1A 
  74      C6994C20 
  74      31568696 
  74      8686
  75 003b 090A0C0C 		.ascii	"\011\012\014\014\311`\025!`2\024\244\237\371<C\333\203"
  75      C9601521 
  75      603214A4 
  75      9FF93C43 
  75      DB83
  76 004d 998BB912 		.ascii	"\231\213\271\022\031\0272\262\002\005\253\031~5t4\010"
  76      191732B2 
  76      0205AB19 
  76      7E357434 
  76      08
  77 005e 64320295 		.ascii	"d2\002\225BL\003\211pd22\34622@\025A\3244Lf\314dd\322"
  77      424C0389 
  77      70643232 
  77      E6323240 
  77      1541D434 
  78 0078 6658D500 		.ascii	"fX\325\000\004\033\201lf({6\220\315\222\313\310\230"
  78      041B816C 
  78      66287B36 
  78      90CD92CB 
  78      C898
  79 008a 04D1CF90 		.ascii	"\004\321\317\220\0045\010\252;\002(\315\312\312\220"
  79      043508AA 
  79      3B0228CD 
  79      CACA90
ARM GAS  /tmp/ccuZSfQH.s 			page 6


  80 0099 C9C8C6C0 		.ascii	"\311\310\306\300p\221\241\361\301,e\230\335\020\020"
  80      7091A1F1 
  80      C12C6598 
  80      DD1010
  81 00a8 02520EF2 		.ascii	"\002R\016\362\273zNf\222\276sFfR\246\177p\274\241\231"
  81      BB7A4E66 
  81      92BE7346 
  81      6652A67F 
  81      70BCA199 
  82 00bc 9EA19E89 		.ascii	"\236\241\236\211\276~Ijq\211~Q\011\230\316M\312\257"
  82      BE7E496A 
  82      71897E51 
  82      0998CE4D 
  82      CAAF
  83 00ce D04B6600 		.ascii	"\320Kf\000\000\217w;e"
  83      008F773B 
  83      65
  84              		.text
  85              		.section	.gnu.lto_chSemGetCounterI.5c91fc6299eb1437,"",%progbits
  86 0000 789C6362 		.ascii	"x\234cb`b@\007\322@\314\302\310\300\240\003\342\260"
  86      60624007 
  86      D240CCC2 
  86      C8C0A003 
  86      E2B0
  87 0012 30300255 		.ascii	"00\002U0212\003IfF\2400\003#C=\0233c}$\210\315\300\250"
  87      30323132 
  87      03496646 
  87      A0300323 
  87      433D1333 
  88 002d C4B0B0A1 		.ascii	"\304\260\260\241a\306\203\245\353fJv-h\232\320\360\357"
  88      61C683A5 
  88      EB664A76 
  88      2D689AD0 
  88      F0EF
  89 003f FF7FC64C 		.ascii	"\377\177\306L\220T2#C\004\220\305\250\000\246\230XP"
  89      90543223 
  89      430490C5 
  89      A800A698 
  89      5850
  90 0051 2D59CF74 		.ascii	"-Y\317t\340\301\377\377w\256\356y\274\213Q\010hn.#\320"
  90      E0C1FFFF 
  90      77AEEE79 
  90      BC8B5108 
  90      686E2E23 
  91 0066 25607D0C 		.ascii	"%`}\014\254\014-\015\015\023\024\300&\000A\010\230\014"
  91      AC0C2D0D 
  91      0D1314C0 
  91      26004108 
  91      980C
  92 0078 053983F9 		.ascii	"\0059\203\371<C\363\203\365O\271\022\031\0271\262\002"
  92      3C43F383 
  92      F54FB912 
  92      191731B2 
  92      02
  93 0089 05AB197E 		.ascii	"\005\253\031~5t4\010d22'\203]\306\0004\001h\317Y\206"
  93      35743408 
  93      64323227 
ARM GAS  /tmp/ccuZSfQH.s 			page 7


  93      835DC600 
  93      340168CF 
  94 009f A65B3BD6 		.ascii	"\246[;\326IBT\24532i3\254j\000\002K\240\361\263\031"
  94      494254A5 
  94      33326933 
  94      AC6A0002 
  94      4BA0F1B3 
  95 00b4 66011DC3 		.ascii	"f\001\035\303\232\316\310\010r\024\033XO\022#\262\303"
  95      9ACEC808 
  95      72141B58 
  95      4F1223B2 
  95      C3
  96 00c5 42413E65 		.ascii	"BA>e>\315\320\310\301\300\220\0022\365\"C\343\001f\270"
  96      3ECDD0C8 
  96      C1C09002 
  96      32F52243 
  96      E30166B8 
  97 00d9 59104521 		.ascii	"Y\020E! \011\020[+'3I\3379#3)\323?8\336\320L\317P\317"
  97      2009105B 
  97      2B273349 
  97      DF392333 
  97      29D33F38 
  98 00f3 445F3FBF 		.ascii	"D_?\277X\277\250D?3/9\2474%U?9\24385W/\203\001\000\207"
  98      58BFA844 
  98      3F332F39 
  98      A7342555 
  98      3F39A338 
  99 010e 9C4492   		.ascii	"\234D\222"
 100              		.text
 101              		.section	.gnu.lto_chMBGetFreeCountI.5c91fc6299eb1437,"",%progbits
 102 0000 789C6362 		.ascii	"x\234cb`b@\007\322@\234\313\310\300\240\017\342\260"
 102      60624007 
 102      D2409CCB 
 102      C8C0A00F 
 102      E2B0
 103 0012 30300255 		.ascii	"00\002U0212\003IfF\2400\003#C=\0233c}$\210\315\300\244"
 103      30323132 
 103      03496646 
 103      A0300323 
 103      433D1333 
 104 002d C4B0B0A1 		.ascii	"\304\260\260\241a\306\203\243\233fJv-h\232\320\360\357"
 104      61C683A3 
 104      9B664A76 
 104      2D689AD0 
 104      F0EF
 105 003f FF7FC64C 		.ascii	"\377\177\306L\220T2#C\004\220\305\250\000\246\230XP"
 105      90543223 
 105      430490C5 
 105      A800A698 
 105      5850
 106 0051 2D016B9B 		.ascii	"-\001k\233\324\360\365I\300\211\206\226\003\377\377"
 106      D4F0F549 
 106      C0898696 
 106      03FFFF
 107 0060 DB67826C 		.ascii	"\333g\202l\300\257g=\323\201\007\377\377\277\271\276"
 107      C0AF673D 
 107      D38107FF 
ARM GAS  /tmp/ccuZSfQH.s 			page 8


 107      FFBFB9BE 
 108 0070 E7F16946 		.ascii	"\347\361iF!\026FF\240#\231\030\200\372\230\031\300\026"
 108      21164646 
 108      A0239918 
 108      80FA9819 
 108      C016
 109 0082 32B032B4 		.ascii	"2\2602\26444LP\000\033\003\004!`2\024\344~\346\363\014"
 109      34344C50 
 109      001B0304 
 109      21603214 
 109      E47EE6F3 
 110 0097 CD0F4E3C 		.ascii	"\315\017N<\345Jd\\\314\310\012\024\254f\370\325\320"
 110      E54A645C 
 110      CCC80A14 
 110      AC66F8D5 
 110      D0
 111 00a8 D12090C9 		.ascii	"\321 \220\311\310\222\014\366\022\003\320\004\240\370"
 111      C8920CF6 
 111      1203D004 
 111      A0F8
 112 00b6 5986A65F 		.ascii	"Y\206\246_\315\253\247YA\224\24532U3T\001\315\327fX"
 112      CDABA759 
 112      4194A533 
 112      32553354 
 112      01CDD766 
 113 00cb D50004F5 		.ascii	"\325\000\004\365\231\214l\263\031f\001\035\306\236\316"
 113      998C6CB3 
 113      1966011D 
 113      C69ECE
 114 00da C8087220 		.ascii	"\310\010r \007Xk\022#\222\033\3173\264\034`\206\351"
 114      07586B12 
 114      23921BCF 
 114      33B41C60 
 114      86E9
 115 00ec 6786DBC3 		.ascii	"g\206\333\303\231\314\010\011h\240\241\231\214\\\020"
 115      99CC0809 
 115      68A0A199 
 115      8C5C10
 116 00fb B5A1202F 		.ascii	"\265\241 /3\237fh\004\232\223\002r\307E\006F\270V\210"
 116      339F6668 
 116      049A9302 
 116      72C74506 
 116      46B85688 
 117 010f 92109030 		.ascii	"\222\020\2200H\247nNf\222\276sFfR\246\177p\274\241\231"
 117      48A76E4E 
 117      6692BE73 
 117      466652A6 
 117      7F70BCA1 
 118 0124 9EA19E89 		.ascii	"\236\241\236\211\276~~\261~Q\211~f^rNiJ\252~rFnR~Ej"
 118      BE7E7EB1 
 118      7E51897E 
 118      665E724E 
 118      694AAA7E 
 119 013f B15E0603 		.ascii	"\261^\006\003\000\360]\\\305"
 119      00F05D5C 
 119      C5
 120              		.text
ARM GAS  /tmp/ccuZSfQH.s 			page 9


 121              		.section	.gnu.lto_chMBGetUsedCountI.5c91fc6299eb1437,"",%progbits
 122 0000 789C6362 		.ascii	"x\234cb`b@\007\322@\234\313\310\300\240\017\342\260"
 122      60624007 
 122      D2409CCB 
 122      C8C0A00F 
 122      E2B0
 123 0012 30300255 		.ascii	"00\002U0212\003IfF\2400\003#C=\0233c}$\210\315\300\244"
 123      30323132 
 123      03496646 
 123      A0300323 
 123      433D1333 
 124 002d C4B0B0A1 		.ascii	"\304\260\260\241a\306\203\245\273gJv-h\232\320\360\357"
 124      61C683A5 
 124      BB674A76 
 124      2D689AD0 
 124      F0EF
 125 003f FF7FC64C 		.ascii	"\377\177\306L\220T2#C\004\220\305\250\000\246\230XP"
 125      90543223 
 125      430490C5 
 125      A800A698 
 125      5850
 126 0051 2D016B9B 		.ascii	"-\001k\233\324\360\365I\300\211\206\226\003\377\377"
 126      D4F0F549 
 126      C0898696 
 126      03FFFF
 127 0060 DB67826C 		.ascii	"\333g\202l\300\257g=\323\201\007\377\377\317\271\273"
 127      C0AF673D 
 127      D38107FF 
 127      FFCFB9BB 
 128 0070 E7F13B46 		.ascii	"\347\361;F!\026FF\240#\231\030\200\372\230\031\300\026"
 128      21164646 
 128      A0239918 
 128      80FA9819 
 128      C016
 129 0082 32B032B4 		.ascii	"2\2602\26444LP\000\033\003\004!`2\024\344~\346\363\014"
 129      34344C50 
 129      001B0304 
 129      21603214 
 129      E47EE6F3 
 130 0097 CD0F5E3F 		.ascii	"\315\017^?\345Jd\\\314\310\012\024\254f\370\325\320"
 130      E54A645C 
 130      CCC80A14 
 130      AC66F8D5 
 130      D0
 131 00a8 D12090C9 		.ascii	"\321 \220\311\310\222\014\366\022\003\320\004\240\370"
 131      C8920CF6 
 131      1203D004 
 131      A0F8
 132 00b6 5986A65F 		.ascii	"Y\206\246_\315\333\247[A\224\24532U3T\001\315\327fX"
 132      CDDBA75B 
 132      4194A533 
 132      32553354 
 132      01CDD766 
 133 00cb D50004F5 		.ascii	"\325\000\004\365\231\214l\263\031f\001\035\306\236\316"
 133      998C6CB3 
 133      1966011D 
 133      C69ECE
ARM GAS  /tmp/ccuZSfQH.s 			page 10


 134 00da C8087220 		.ascii	"\310\010r \007Xk\022#\222\033\3173\264\034`\206\351"
 134      07586B12 
 134      23921BCF 
 134      33B41C60 
 134      86E9
 135 00ec 6786DBC3 		.ascii	"g\206\333\303\231\314\010\011h\240\241\231\214\\\020"
 135      99CC0809 
 135      68A0A199 
 135      8C5C10
 136 00fb B5A1202F 		.ascii	"\265\241 /3\237fh\004\232\223\002r\307E\006F\270V\210"
 136      339F6668 
 136      049A9302 
 136      72C74506 
 136      46B85688 
 137 010f 92109030 		.ascii	"\222\020\2200H\247nNf\222\276sFfR\246\177p\274\241\231"
 137      48A76E4E 
 137      6692BE73 
 137      466652A6 
 137      7F70BCA1 
 138 0124 9EA19E89 		.ascii	"\236\241\236\211\276~~\261~Q\211~f^rNiJ\252~rFnR~Ej"
 138      BE7E7EB1 
 138      7E51897E 
 138      665E724E 
 138      694AAA7E 
 139 013f B15E0603 		.ascii	"\261^\006\003\000\311\230\\\267"
 139      00C9985C 
 139      B7
 140              		.text
 141              		.section	.gnu.lto_chSysLock.5c91fc6299eb1437,"",%progbits
 142 0000 789C6362 		.ascii	"x\234cb`b@\007\"@|\010\210u@\034f\006F\240\012F&FF "
 142      60624007 
 142      22407C08 
 142      8875401C 
 142      660646A0 
 143 001a 8791A19E 		.ascii	"\207\221\241\236\211\261>\222\021\254l=\323\201\007"
 143      89B13E92 
 143      11AC6C3D 
 143      D38107
 144 0029 FFFFAFFB 		.ascii	"\377\377\257\3732m\331\037\306\333L 1V\206\226\206\206"
 144      326DD91F 
 144      C6DB4C20 
 144      31568696 
 144      8686
 145 003b 090A0C0C 		.ascii	"\011\012\014\014\311`\025!`2\024\244\237\371<C\363\203"
 145      C9601521 
 145      603214A4 
 145      9FF93C43 
 145      F383
 146 004d 3DDDEC89 		.ascii	"=\335\354\211\214\013\031Y\201\202\325\014\277\032:"
 146      8C0B1959 
 146      8182D50C 
 146      BF1A3A
 147 005c 1A043219 		.ascii	"\032\0042\031\201J!\246e\202h\220\252\275\335B\330T"
 147      814A21A6 
 147      65826890 
 147      AABDDD42 
 147      D854
ARM GAS  /tmp/ccuZSfQH.s 			page 11


 148 006e 31A1AADA 		.ascii	"1\241\252\332w\232\013\233*f\204\252\213\014\215\017"
 148      779A0B9B 
 148      2A6684AA 
 148      8B0C8D0F 
 149 007e F66BC314 		.ascii	"\366k\303\024A@\010H\002d\222VNf\222\276sFfR\246\177"
 149      41400848 
 149      02649256 
 149      4E6692BE 
 149      73466652 
 150 0094 70BCA199 		.ascii	"p\274\241\231\236\241\236\211\276~~\261~Q\211~f^rNi"
 150      9EA19E89 
 150      BE7E7EB1 
 150      7E51897E 
 150      665E724E 
 151 00a9 4AAA7E72 		.ascii	"J\252~rFqe\261^\006\003\000\204\275;\363"
 151      467165B1 
 151      5E060300 
 151      84BD3BF3 
 152              		.text
 153              		.section	.gnu.lto_chSysUnlock.5c91fc6299eb1437,"",%progbits
 154 0000 789CCD92 		.ascii	"x\234\315\222\275/DA\020\300gv\367\275s\276\033\011"
 154      BD2F4441 
 154      10C06776 
 154      F7BD73BE 
 154      1B09
 155 0012 2A513AB9 		.ascii	"*Q:\271\027\211\250t\376\000\005\0224\342\036q\233\334"
 155      1789A874 
 155      FE000512 
 155      34E21E71 
 155      9BDC
 156 0024 91380A51 		.ascii	"\2218\012Q\330;W\010\215(ihD'\321\351\024\012\211\210"
 156      D83B5708 
 156      8D286968 
 156      4427D1E9 
 156      140A8988 
 157 0038 E8505D24 		.ascii	"\350P]$*\327\023\021\317\354\276\367\316s\256!\012\223"
 157      2AD71311 
 157      CFECBEF7 
 157      CE73AE21 
 157      0A93
 158 004a BC99DD7D 		.ascii	"\274\231\335}3\277\231\335\031\006\014\252e\220>[\000"
 158      33BF99DD 
 158      19060CAA 
 158      65903E5B 
 158      00
 159 005b F4EA4D0C 		.ascii	"\364\352M\014\220<\220!'\315\031\035+f\223\022\202Y"
 159      903C9021 
 159      27CD191D 
 159      2B669312 
 159      8259
 160 006d 95B58564 		.ascii	"\225\265\205d\320F\244\000\2045\306\205e\343\332\204"
 160      D046A400 
 160      8435C685 
 160      65E3DA84 
 161 007d DE82DD0D 		.ascii	"\336\202\335\015\007J\355\224\036\237w;6\367\013\333"
 161      074AED94 
 161      1E9F773B 
ARM GAS  /tmp/ccuZSfQH.s 			page 12


 161      36F70BDB 
 162 008d EADDF350 		.ascii	"\352\335\363P\352_.\3028\255\260\313\030\215\216\212"
 162      EA5F2EC2 
 162      38ADB0CB 
 162      188D8E8A 
 163 009d 1FA64E8E 		.ascii	"\037\246N\216T|_\275y\036\377]\014\377/y\262\010\307"
 163      547C5FBD 
 163      791EFF5D 
 163      0CFF2F79 
 163      B208C7
 164 00b0 ECACE479 		.ascii	"\354\254\344y\345\323\323\2072\266\331\010\224\211i"
 164      E5D3D387 
 164      32B6D908 
 164      948969
 165 00bf C54971A1 		.ascii	"\305Iq\241W\026\030\022\331\242R\333]\331\240\024\222"
 165      57161812 
 165      D9A252DB 
 165      5DD9A014 
 165      92
 166 00d0 51A3C774 		.ascii	"Q\243\307t3\3705\254\227n\267\032\246\361\020\251\007"
 166      33F835AC 
 166      976EB71A 
 166      A6F110A9 
 166      07
 167 00e1 B00AAF6A 		.ascii	"\260\012\257jC\265J\024\256\351\000\020\204\316\265"
 167      43B54A14 
 167      AEE90010 
 167      84CEB5
 168 00f0 D7DD534B 		.ascii	"\327\335SK-/\366\351\345S)'\277\202\302\375\313s\247"
 168      2D2FF6E9 
 168      E5532927 
 168      BF82C2FD 
 168      CB73A7
 169 0103 EF3F8798 		.ascii	"\357?\207\230\200\036\252\310h\333\350\330\036\354\346"
 169      801EAAC8 
 169      68DBE8D8 
 169      1EECE6
 170 0112 9546D455 		.ascii	"\225F\324U`\361\254I\251/\0347\254\224_\001Y\014l8`"
 170      60F1AC49 
 170      A92F1C37 
 170      AC945F01 
 170      590C6C38 
 171 0127 17502C63 		.ascii	"\027P,c\205\256\011u\022\353\243|bU\207\177\2211\024"
 171      85AE0975 
 171      12EBA37C 
 171      6255877F 
 171      913114
 172 013a 7E9D9321 		.ascii	"~\235\223!\206E\212\374ay<\200Fq\334\200\032\010D\001"
 172      86458AFC 
 172      61793C80 
 172      4671DC80 
 172      1A084401 
 173 014e 8D841FF7 		.ascii	"\215\204\037\367'\325\004\210\032\001\342\257\037)\012"
 173      27D50488 
 173      1A01E2AF 
 173      1F290A
 174 015d B7AAAA11 		.ascii	"\267\252\252\021\265\252\271\200\363\307\312\253\362"
ARM GAS  /tmp/ccuZSfQH.s 			page 13


 174      B5AAB980 
 174      F3C7CAAB 
 174      F2
 175 016a B9B0A5FE 		.ascii	"\271\260\245\376sYfX\304\267\021hr\203\353\353\223v"
 175      73596658 
 175      C4B71168 
 175      7283EBEB 
 175      9376
 176 017c 89CD3468 		.ascii	"\211\3154h\201\223\304\2260\332\016F\355\3512Vk\210"
 176      8193C496 
 176      30DA0E46 
 176      EDE93256 
 176      6B88
 177 018e C4E710DD 		.ascii	"\304\347\020\335@\276TN\204N\276\214\352\273\351k\365"
 177      40BE544E 
 177      844EBE8C 
 177      EABBE96B 
 177      F5
 178 019f 6464CA19 		.ascii	"dd\312\031J\313\224\034\036\231\352\033H\366%\373\035"
 178      4ACB941C 
 178      1E99EA1B 
 178      48F625FB 
 178      1D
 179 01b0 6721E72C 		.ascii	"g!\347,.9r\336\315,\317\314:n:\267\222K\246\341\003"
 179      2E3972DE 
 179      CD2CCFCC 
 179      3A6E3AB7 
 179      924BA6E1 
 180 01c5 7DC6D102 		.ascii	"}\306\321\002"
 181              		.text
 182              		.section	.gnu.lto_mbox1_execute.5c91fc6299eb1437,"",%progbits
 183 0000 789CDD5B 		.ascii	"x\234\335[ix\024E\032\256\252\231\334\204$$\220\003"
 183      69781445 
 183      1AAEAA99 
 183      DC842424 
 183      9003
 184 0012 12423802 		.ascii	"\022B8\002\011$$\204\373\010\341P\016\2253r\011H\006"
 184      09242484 
 184      FB08E150 
 184      0E953372 
 184      094806
 185 0025 0883E089 		.ascii	"\010\203\340\211\267.\003\341R\010\214\010\0305\010"
 185      B72E03E1 
 185      52088C08 
 185      183508
 186 0034 8AABECBA 		.ascii	"\212\253\354\272\217\272\262\317.\013\256\216\272\002"
 186      8FBAB2CF 
 186      2E0BAE8E 
 186      BA02
 187 0042 1201592F 		.ascii	"\022\001Y/\300+\212\212\202\327\343\036\236\353l\275"
 187      C02B8A8A 
 187      82D7E31E 
 187      9EEB6CBD 
 188 0052 D53DDD33 		.ascii	"\325=\3353\351j\350N\326y\362d~|\335\365v}U\337\373"
 188      E96AE84E 
 188      D679F264 
 188      7E7CDDF5 
ARM GAS  /tmp/ccuZSfQH.s 			page 14


 188      767D55DF 
 189 0067 76D5D75F 		.ascii	"v\325\327_w\200\021F\032\376j\234\204\3740\201\220I"
 189      77801146 
 189      1AFE6A9C 
 189      84FC3081 
 189      9049
 190 0079 685C4328 		.ascii	"h\\C(\357A\031s\020\342a\374\212\307\351\240K9\342\244"
 190      EF411973 
 190      10E261FC 
 190      8AC7E9A0 
 190      4B39E2A4 
 191 008d D1DC46B0 		.ascii	"\321\334F\260H\340Q\300#\005\036%\360h\026\001<\006"
 191      48E051C0 
 191      23051E25 
 191      F0681601 
 191      3C06
 192 009f 780C8BC5 		.ascii	"x\014\213\305y\034\316cE\2378\326\012H<\220V\002\211"
 192      791CCE63 
 192      459F38D6 
 192      0A483C90 
 192      560289
 193 00b2 67AD8124 		.ascii	"g\255\201$\000i-\220\004\226\010$\011H\242@\222X\033"
 193      00692D90 
 193      04960824 
 193      0948A240 
 193      92581B
 194 00c5 20C940DA 		.ascii	" \311@\332\010$\231\245\000i\013$E mY; \251@\332\011"
 194      082499A5 
 194      00690B24 
 194      45206D59 
 194      3B20A940 
 195 00db 2495A501 		.ascii	"$\225\245\001I\007\222&\220t\232\311m\006k\017\274\003"
 195      49079226 
 195      90749AC9 
 195      6D066B0F 
 195      BC03
 196 00ed F0F602EF 		.ascii	"\360\366\002\357 \360L\226\001<\013x\026\353\210\363"
 196      20F04C96 
 196      013C0B78 
 196      16EB88F3 
 197 00fd 6C9C7714 		.ascii	"l\234w\024}\262Y' 9@:\011$\207u\006\322\005Hg\201ta"
 197      7DB25927 
 197      2039403A 
 197      09248775 
 197      06D20548 
 198 0115 5D817403 		.ascii	"]\201t\003\322U \335X.\220\356@r\005\322\235\365\000"
 198      D25520DD 
 198      582E90EE 
 198      407205D2 
 198      9DF500
 199 0128 9207A487 		.ascii	"\222\007\244\207@\362X>\220\236@\362\005\322\223\365"
 199      40F2583E 
 199      909E40F2 
 199      05D293F5 
 200 0138 025200A4 		.ascii	"\002R\000\244\227@\012X!\220\336@\012\005\322\233\025"
 200      97400A58 
 200      2190DE40 
ARM GAS  /tmp/ccuZSfQH.s 			page 15


 200      0A05D29B 
 200      15
 201 0149 01290652 		.ascii	"\001)\006R$\220b\326\007H\011\220>\002)a}\201\364\003"
 201      249062D6 
 201      07480990 
 201      3E022961 
 201      7D81F403 
 202 015d D25720FD 		.ascii	"\322W \375X\177 \003\200\364\027\310\0006\020\310  "
 202      587F2003 
 202      80F417C8 
 202      003610C8 
 202      2020
 203 016f 03053288 		.ascii	"\003\0052\210\015\0062\004\310`\201\014aC\201\014\003"
 203      0D063204 
 203      C860810C 
 203      6143810C 
 203      03
 204 0180 325420C3 		.ascii	"2T \303\350\010nK\331p\340e\300}D\\x\201\210+/\022V"
 204      E8086E4B 
 204      D970E065 
 204      C07D445C 
 204      7881882B 
 205 0197 8A4B2371 		.ascii	"\212K#q\351%\302F\2411\032\215\277+\375^&\354\"`\027"
 205      E925C246 
 205      A1311A8D 
 205      BF2BFD5E 
 205      26EC2260 
 206 01ac 033BA060 		.ascii	"\003;\240`\007\011\033\003l,\260C\012\366\012a\343\200"
 206      07091B03 
 206      6C2CB043 
 206      0AF60A61 
 206      E380
 207 01be 8D077658 		.ascii	"\215\007vX\301\352\010\273\004\330\245\300^U\260#\204"
 207      C1EA08BB 
 207      04D8A5C0 
 207      5E55B023 
 207      84
 208 01cf 5D066C02 		.ascii	"]\006l\002\260\243\012v\214\260\211\300&\001{M\301\216"
 208      B0A30A76 
 208      8CB089C0 
 208      26017B4D 
 208      C18E
 209 01e1 133619D8 		.ascii	"\0236\031\330\024`\377P\260\327\011\233\012\254\034"
 209      1460FF50 
 209      B0D7099B 
 209      0AAC1C
 210 01f0 D81B0AF6 		.ascii	"\330\033\012\366&a\227\003\233\006\354-\005{\233\320"
 210      26619703 
 210      9B06EC2D 
 210      057B9BD0 
 211 0200 59FC7082 		.ascii	"Y\374p\202\260\031\2704\023\227N*\227N)\227\336!l:."
 211      B019B834 
 211      13974E2A 
 211      974E2997 
 211      DE216C3A 
 212 0215 5D814BEF 		.ascii	"]\201K\357\0226\033\2159h\274\247\364{\237\260\271\300"
 212      12361B8D 
ARM GAS  /tmp/ccuZSfQH.s 			page 16


 212      3968BCA7 
 212      F47B9FB0 
 212      B9C0
 213 0227 AE04F681 		.ascii	"\256\004\366\201\202\325\0236\017X\005\260\017\025\354"
 213      82D51336 
 213      0F5805B0 
 213      0F15EC
 214 0236 23C25CC0 		.ascii	"#\302\\\300\346\003;\255`\037\023\266\000\330B`\237"
 214      E6033BAD 
 214      601F13B6 
 214      00D84260 
 214      9F
 215 0247 28D8A784 		.ascii	"(\330\247\204U\002[\004\354\214\202}F\230\033\330b`"
 215      55025B04 
 215      EC8C827D 
 215      46981BD8 
 215      6260
 216 0259 9F2BD859 		.ascii	"\237+\330Y\302\256\002\266\004\3309\005\373\202\320"
 216      C2AE02B6 
 216      04D83905 
 216      FB82D0
 217 0268 ABF9E14B 		.ascii	"\253\371\341K\345\360\025\241\224\357zJ\2263\2073\""
 217      E5F015A1 
 217      94EF7A4A 
 217      96338733 
 217      22
 218 0279 322A3A26 		.ascii	"2*:&6\256U|\353\204\304\2446\311)m\333\245\246\245g"
 218      36AE557C 
 218      EB84C4A4 
 218      36C9296D 
 218      DBA5A6A5 
 219 028e B4EF9099 		.ascii	"\264\357\220\231\3251\273SN\347.]\273\345v\357\221\227"
 219      D531BB53 
 219      4EE72E5D 
 219      BBE576EF 
 219      9197
 220 02a0 DFB35741 		.ascii	"\337\263WAa\357\242\342>%}\373\365\0370p\320\340!C\207"
 220      61EFA2E2 
 220      3E257DFB 
 220      F51F3070 
 220      D0E02143 
 221 02b5 95FAC80B 		.ascii	"\225\372\310\013\344E\362\022\371;y\231\034 \007\311"
 221      E445F212 
 221      F93B7999 
 221      1C2007C9 
 222 02c5 21F20A39 		.ascii	"!\362\0129L\352\310\253\344\0109J\216\221\327\310q\362"
 222      4CEAC8AB 
 222      E408394A 
 222      8E91D7C8 
 222      71F2
 223 02d7 0FF23A79 		.ascii	"\017\362:y\203\274I\336\"o\223\023\344$9E\336!\357\222"
 223      83BC49DE 
 223      226F9313 
 223      E4243945 
 223      DE21EF92 
 224 02eb F7C8FBE4 		.ascii	"\367\310\373\344\003RO>$\037\221\323\344c\362\011\371"
 224      03524F3E 
ARM GAS  /tmp/ccuZSfQH.s 			page 17


 224      241F91D3 
 224      E463F209 
 224      F9
 225 02fc 949C219F 		.ascii	"\224\234!\237\221\317\311Yr\216|A\276$<\306\3453\020"
 225      91CFC959 
 225      728E7C41 
 225      BE243CC6 
 225      E53310
 226 030f 25594B73 		.ascii	"%YKs\310\303\036\217\267\376\223\2635\351w\357\\\351"
 226      C8C31E8F 
 226      B7FE93B3 
 226      35E977EF 
 226      5CE9
 227 0321 F5FCE2F7 		.ascii	"\365\374\342\367S7\256\271(\231\316\317h\2668 q\005"
 227      5337AEB9 
 227      2899CECF 
 227      68B63820 
 227      7105
 228 0333 FF84DB66 		.ascii	"\377\204\333f\317\223\273=\216\235\236\237\375~\207"
 228      CF93BB3D 
 228      8E9D9E9F 
 228      FD7E87
 229 0342 9B3A749F 		.ascii	"\233:t\237h\305\207\376\277||\377<\260#8<\247\245\360"
 229      68C587FE 
 229      BF7C7CFF 
 229      3CB02338 
 229      3CA7A5F0 
 230 0356 BC9E931F 		.ascii	"\274\236\223\037O<\344Y\345\363\373K-S\362\375\373\300"
 230      4F3CE459 
 230      E5F3FB4B 
 230      2D53F2FD 
 230      FBC0
 231 0368 BE87A967 		.ascii	"\276\207\251g\215g\3057~\177\302\257\313\352\247\003"
 231      8D67C537 
 231      7E7FC2AF 
 231      CBEAA703 
 232 0378 7F0DD754 		.ascii	"\177\015\327T\333\016\256\217}\332\263\316\343\367/"
 232      DB0EAE8F 
 232      7DDAB3CE 
 232      E3F72F
 233 0387 FF75277A 		.ascii	"\377u'z(\\\023=\023\256\211\366\205g\"\257\357\215\203"
 233      285C133D 
 233      13AE89F6 
 233      856722AF 
 233      EF8D83
 234 039a 1B62BD2B 		.ascii	"\033b\275+\324\211H\263\332\201^\337[\3157\270\315\276"
 234      D48948B3 
 234      DA815EDF 
 234      5BCD37B8 
 234      CDBE
 235 03ac 13C1C145 		.ascii	"\023\301\301EX\014\356\231\335\236\230\300DV}\302E\350"
 235      580CEE99 
 235      DD9E98C0 
 235      44567DC2 
 235      45E8
 236 03be BB83614A 		.ascii	"\273\203aJB^\337\017k\267\205d~F\362\250}1\"-\022\373"
 236      425EDF0F 
ARM GAS  /tmp/ccuZSfQH.s 			page 18


 236      6BB78564 
 236      7E46F2A8 
 236      7D31222D 
 237 03d4 EFC1C6A4 		.ascii	"\357\301\306\244<\337}\207\037jL\376\177\263\021\371"
 237      3CDF7D87 
 237      1F6A4CFE 
 237      7FB311F9 
 238 03e4 FFFEC361 		.ascii	"\377\376\303aK\312\265\207\303\225\224\017\267\260\375"
 238      4BCAB587 
 238      C395940F 
 238      B7B0FD
 239 03f3 F1744B23 		.ascii	"\361tK#\364l\270\226\302\033\341\231\310\353{\377p\263"
 239      F46CB896 
 239      C21BE199 
 239      C8EB7BFF 
 239      70B3
 240 0405 7D60787D 		.ascii	"}`x}\3374\337\3406\373\276mi\213\333[\027\246\305\275"
 240      DF34DFE0 
 240      36FBBE6D 
 240      698BDB5B 
 240      17A6C5BD 
 241 0419 255C13D5 		.ascii	"%\\\023\325\204k\242\332pM\364L\270&\372S]\013[\335"
 241      846BA2DA 
 241      704DF44C 
 241      B826FA53 
 241      5D0B5BDD 
 242 042d CFD785AD 		.ascii	"\317\327\205\255V;\276\276a\255V\364+\326jo\3265\242"
 242      563BBEBE 
 242      61AD56F4 
 242      2BD66A6F 
 242      D635A2
 243 0440 12E26F0A 		.ascii	"\022\342o\012u\3156\267z}'\232op\233}\247Z\332\326\370"
 243      75CD36B7 
 243      7A7D279A 
 243      6F709B7D 
 243      A75ADAD6 
 244 0455 365C49E5 		.ascii	"6\\I\345?\341\232\350\307pM\364K\330\236\231G\3034\321"
 244      3FE19AE8 
 244      C7704DF4 
 244      4BD89E99 
 244      47C334D1 
 245 0469 B6A32D6C 		.ascii	"\266\243-lu\377\361h\330\022\377\236\215\015\023\377"
 245      75FFF168 
 245      D812FF9E 
 245      8D0D13FF 
 246 0479 805F31F1 		.ascii	"\200_1\361\377\345h\243\022\377\336\243\3156\267z}\373"
 246      FFE568A3 
 246      12FFDEA3 
 246      CD36B77A 
 246      7DFB
 247 048b 9A6F70FC 		.ascii	"\232op\374\355\257em\015\376~\325|\325\366\372\276m"
 247      EDAF656D 
 247      0DFE7ED5 
 247      7CD5F6FA 
 247      BE6D
 248 049d BEC16DF6 		.ascii	"\276\301m\366\375\253e-\005\376hnY\204\274\276\375\007"
 248      FDAB652D 
ARM GAS  /tmp/ccuZSfQH.s 			page 19


 248      05FE686E 
 248      5984BCBE 
 248      FD07
 249 04af 36A47BF4 		.ascii	"6\244{\364\\\034\305H\251\225\\\354\363z\236\237\257"
 249      5C1CC548 
 249      A9955CEC 
 249      F37A9E9F 
 249      AF
 250 04c0 7D8DE45E 		.ascii	"}\215\344^\243\254ep\337\337\326l\014\236\317\311\310"
 250      A3AC6570 
 250      DFDFD66C 
 250      0C9ECFC9 
 250      C8
 251 04d1 D80B793E 		.ascii	"\330\013y>\305|\365~\377\253{\036\375\350Y\232\274\233"
 251      C57CF57E 
 251      FFAB7B1E 
 251      FDE8599A 
 251      BC9B
 252 04e3 52328FFE 		.ascii	"R2\217\376\201\345\360\247\206rt\250G\247z\214 |\037"
 252      81E5F0A7 
 252      867274A8 
 252      47A77A8C 
 252      207C1F
 253 04f6 4472E388 		.ascii	"Dr\343\210\202\211V\341\030\336p\306\342Z\034Gvs\244"
 253      828956E1 
 253      18DE70C6 
 253      E25A1C47 
 253      7673A4
 254 0509 152EC7C3 		.ascii	"\025.\307\303\264V\373$\250W\022\001&\301\264Q\221d"
 254      B456FB24 
 254      A8571201 
 254      26C1B451 
 254      9164
 255 051b 345260DA 		.ascii	"4R`\332\252H;4Ra\322T$\035\215\014\230\366*\322\001"
 255      AA483B34 
 255      5261D254 
 255      241D8D0C 
 255      98F62AD2 
 256 0530 8D4C982C 		.ascii	"\215L\230,L\334\021g\3310\235\320\314\301Yg\230.\334"
 256      4CDC1167 
 256      D9309DD0 
 256      CCC15967 
 256      982EDC
 257 0543 447485E9 		.ascii	"Dt\205\351\206f.Lw5\246\036\352Xy\000\363azr\3449\232"
 257      86662E4C 
 257      7735A61E 
 257      EA587900 
 257      F3617A72 
 258 055a 437AF146 		.ascii	"Cz\361Fd\201\332\255\020Wz\203c\021\306.V\275\372\000"
 258      6481DAAD 
 258      10577A83 
 258      6311C62E 
 258      56BDFA00 
 259 056e 2E81E9AB 		.ascii	".\201\351\253\"\375\320\350\0173\000\023\016\204\031"
 259      22FDD0E8 
 259      0F330013 
 259      0E8419
ARM GAS  /tmp/ccuZSfQH.s 			page 20


 260 057d 84E66098 		.ascii	"\204\346`\230!h\016\205\031\206f)\314p\325\263\014\215"
 260      21680E85 
 260      19866629 
 260      CC70D5B3 
 260      0C8D
 261 058f 11302355 		.ascii	"\0210#Ud\024\032\243a.\302\244\027\343l\014\314X4\307"
 261      64141AA3 
 261      612EC2A4 
 261      17E36C0C 
 261      CC5834C7 
 262 05a3 E16C3CCC 		.ascii	"\341l<\314%\030\360R\230\313\320\234\0003Q\035c\022"
 262      2518F052 
 262      98CBD09C 
 262      0033511D 
 262      6312
 263 05b5 1A9361A6 		.ascii	"\032\223a\246\250\310T4\312a.W\221ihL\207\231\241\""
 263      A8C85434 
 263      CA612E57 
 263      9169684C 
 263      8799A122 
 264 05c9 33D19805 		.ascii	"3\321\230\005s\205\212\314Fc\016\314\\Lt%\314<4+`\\"
 264      73858ACC 
 264      46630ECC 
 264      5C4C7425 
 264      CC3C342B 
 265 05df AA4CF3D5 		.ascii	"\252L\363\325\336\013\000.\204\251\344\310W\\\315EP"
 265      DE0B002E 
 265      84A9E4C8 
 265      575CCD45 
 265      50
 266 05f0 D3AD765B 		.ascii	"\323\255v[\214+W\201\304\022\234-\205\271\032\315kp"
 266      8C2B5781 
 266      C4129C2D 
 266      85B91ACD 
 266      6B70
 267 0602 762DCC75 		.ascii	"v-\314u\230\340z\230\033\320\\\006s\243:\372Mh\334\014"
 267      98E07A98 
 267      1BD05C06 
 267      73A33AFA 
 267      4D68DC0C 
 268 0616 738B8ADC 		.ascii	"s\213\212\334\212\306m0\267\253\310\035h\334\011\363"
 268      8AC66D30 
 268      B7ABC81D 
 268      68DC09F3 
 269 0626 1B15598E 		.ascii	"\033\025Y\216\206\207\302\256\240*\266R4\253\204]\005"
 269      8687C2AE 
 269      A02AB652 
 269      34AB845D 
 269      05
 270 0637 1BB15AD8 		.ascii	"\033\261Z\3305\002Y+\354\272\300\216\270+\340u\267\300"
 270      3502592B 
 270      ECBAC08E 
 270      B82BE075 
 270      B7C0
 271 0649 D70BBB01 		.ascii	"\327\013\273\001\340\006\016V\243\031\2711\320y\223"
 271      E0060E56 
 271      A319B931 
ARM GAS  /tmp/ccuZSfQH.s 			page 21


 271      D07993
 272 0658 B8EA8525 		.ascii	"\270\352\205%\367\210\363\315\302\336+\220-\342|\253"
 272      F788F3CD 
 272      C2DE2B90 
 272      2DE27CAB 
 273 0668 B0DBC48C 		.ascii	"\260\333\304\214\367\011[#\220\373\205}@\364|P\234\327"
 273      F7095B23 
 273      90FB857D 
 273      40F47C50 
 273      9CD7
 274 067a 0ABB5D20 		.ascii	"\012\273] \017\211\363\035\302\356\024^\017\013\373"
 274      0F89F31D 
 274      C2EE145E 
 274      0F0BFB
 275 0689 88407609 		.ascii	"\210@v\011\373\250@~+\354c\002y\\X\276\335#\310*\236"
 275      FBA8407E 
 275      2BEC6302 
 275      795C58BE 
 275      DD23C82A 
 276 069e 98B21526 		.ascii	"\230\262\025&\363\350\357\205E\304\"\243\361\337Ta\313"
 276      F3E8EF85 
 276      45C422A3 
 276      F1DF5461 
 276      CB
 277 06af 2923C471 		.ascii	")#\304q\214T\325?\341\232G\237\304?0\"\267\223\037y"
 277      8C54D53F 
 277      E19A479F 
 277      C43F3022 
 277      B7931F79 
 278 06c3 ED9FE8A6 		.ascii	"\355\237\350\246\321.\252\244;7\215!\344\030q*=*i\204"
 278      D12EAAA4 
 278      3B378D21 
 278      E418712A 
 278      3D2A6984 
 279 06d7 D625D645 		.ascii	"\326%\326E\225\177\353\004$\332M\343\226B\0311\216\233"
 279      957FEB04 
 279      24DA4DE3 
 279      96421931 
 279      8E9B
 280 06e9 B622E408 		.ascii	"\266\"\344\010\251:\346\010\270ErO\244&\202Y\216\221"
 280      A93AE608 
 280      B845724F 
 280      A4268259 
 280      8E91
 281 06fb 88001EA5 		.ascii	"\210\000\036\245\015\027\357\022\301\023\221\301\234"
 281      0D17EF12 
 281      C11391C1 
 281      9C
 282 0708 143E6EDA 		.ascii	"\024>n\332\232\220Cd\325\027T\353\216\213\216\340\334"
 282      9A904364 
 282      D51754EB 
 282      8E8B8EE0 
 282      DC
 283 0719 568E2667 		.ascii	"V\216&g\341\220Qp\352\024\224\276NK}\217\220\225{k\276"
 283      E1905170 
 283      EA1494BE 
 283      4E4B7D8F 
ARM GAS  /tmp/ccuZSfQH.s 			page 22


 283      90957B6B 
 284 072e 7A4D9B35 		.ascii	"zM\2335Z\204\244\317\310]\035\234\335\272\2523\325\245"
 284      5A84A4CF 
 284      C85D1D9C 
 284      DDBAAA33 
 284      D5A5
 285 0740 813E3195 		.ascii	"\201>1\225\224\212n#\210\030\340\253\252g4\377\330J"
 285      948A6E23 
 285      8818E0AB 
 285      AA6734FF 
 285      D84A
 286 0752 45C435BE 		.ascii	"E\3045\276\214\000\024\247M\235\340\302xZ0\236\031!"
 286      8C0014A7 
 286      4D9DE0C2 
 286      785A309E 
 286      1921
 287 0764 4A72678C 		.ascii	"Jrg\214\232\350\347\277\004\036]\222\242k\325\271jM"
 287      9AE8E7BF 
 287      041E5D92 
 287      A26BD5B9 
 287      6A4D
 288 0776 C2567C34 		.ascii	"\302V|4!-\011\2256\336DZ\006\037\243\264\361\006i\247"
 288      212D0995 
 288      36DE445A 
 288      061FA3B4 
 288      F10669A7 
 289 078a E20DC151 		.ascii	"\342\015\301QN\243\002tOW\217\015\364n\035\240K5U\242"
 289      4EA30274 
 289      4F578F0D 
 289      F46E1DA0 
 289      4B3555A2 
 290 079e 79373EE2 		.ascii	"y7>\342\247+\242\002\235\224\036\372\230'\011\345b:"
 290      A72BA202 
 290      9D941EFA 
 290      982709E5 
 290      623A
 291 07b0 773BB87F 		.ascii	"w;\270\177TM\014\234b\304\015YS\377lUd\300+!X\232\310"
 291      544D0C9C 
 291      62C40D59 
 291      53FF6C55 
 291      64C02B21 
 292 07c7 6069E686 		.ascii	"`i\346\206H\203\301\243\312"
 292      4883C1A3 
 292      CA
 293 07d0 88549EEF 		.ascii	"\210T\236\357\252\265\225\227\310G\224\311\223d\"\217"
 293      AAB59597 
 293      C84794C9 
 293      9364228F 
 294 07e0 033E4679 		.ascii	"\003>Fy\222$\362\304\012y\342T\012\207u\012mL\357n\271"
 294      9224F2C4 
 294      0A79E254 
 294      0A87750A 
 294      6D4CEF6E 
 295 07f5 91C27471 		.ascii	"\221\302tqhC\203\302\177j\243\026~2\037M\204\357\017"
 295      684383C2 
 295      7F6AA316 
 295      7E321F4D 
ARM GAS  /tmp/ccuZSfQH.s 			page 23


 295      84EF0F
 296 0808 FCE8F210 		.ascii	"\374\350\362\020\036)&<\234p6\362H\221\360h%x\304\253"
 296      1E29263C 
 296      9C7036F2 
 296      4891F068 
 296      2578C4AB 
 297 081c D9E0D5AA 		.ascii	"\331\340\325\252\250\013\246\203\325\365Gt\266m\265"
 297      A80BA683 
 297      D5F54774 
 297      B66DB5
 298 082b 6EC92E2C 		.ascii	"n\311.,\026\235\3554\031[7M\301\020U\365G_\222N\024"
 298      169DED34 
 298      195B374D 
 298      C11055F5 
 298      475F924E 
 299 0840 B211B918 		.ascii	"\262\021\271\030\317\353b\264\343\223\235W\214T\023"
 299      CFEB62B4 
 299      E3939D57 
 299      8C5413
 300 084f 3184B351 		.ascii	"1\204\263Q\214T\211\030\255\205\030\011\352M=\241\323"
 300      8C548918 
 300      AD851809 
 300      EA4D3DA1 
 300      D3
 301 0860 4CB3B32E 		.ascii	"L\263\263.%7\365\214\316#\235\217v^\036\031&<\"\341"
 301      2537F58C 
 301      CE239D8F 
 301      765E1E19 
 301      263C22E1 
 302 0874 6CE49121 		.ascii	"l\344\221!\341\221(x$\2517\365\224\245\233\372\216\316"
 302      E1912878 
 302      24A937F5 
 302      94A59BFA 
 302      8ECE
 303 0886 B67DF04D 		.ascii	"\266}\360M\215\016f{\335yo\352\273\326n\352w\272\030"
 303      8D0E667B 
 303      DD796FEA 
 303      BBD66EEA 
 303      77BA18
 304 0899 1DF864E7 		.ascii	"\035\370d\347\025#\323D\214(8\033\305\310\224\210\321"
 304      1523D344 
 304      8C28381B 
 304      C5C89488 
 304      D1
 305 08aa 468891AC 		.ascii	"F\210\221\254\210\261\363\254\364\001 \177\336e5\356"
 305      88B1F3AC 
 305      F401207F 
 305      DE6535EE 
 306 08ba 79D7917B 		.ascii	"y\327\221{\312\262N\266\011\227h\370\030\271dK\236w"
 306      CAB24EB6 
 306      099768F8 
 306      18B9644B 
 306      9E77
 307 08cc 29369E77 		.ascii	")6\236wm-\365\205&\347lh\322)X\223\030\313\232\344p"
 307      6D2DF585 
 307      26E76C68 
 307      D2295893 
ARM GAS  /tmp/ccuZSfQH.s 			page 24


 307      18CB9AE4 
 308 08e1 4F590DD0 		.ascii	"OY\015\320\331D\223\030\370\0305\351,\321\244\235\015"
 308      D9449318 
 308      F81835E9 
 308      2CD1A49D 
 308      0D
 309 08f2 4D522D6B 		.ascii	"MR-k\362\305\2054\341\317\371\231\201\260\272\344\223"
 309      F2C58534 
 309      E1CFF999 
 309      81B0BAE4 
 309      93
 310 0903 3C5E8B3D 		.ascii	"<^\213=H\036X\341AO=+B\024\225S\234\360\255\320\336"
 310      481E58E1 
 310      414F3D2B 
 310      42149553 
 310      9CF0ADD0 
 311 0918 248307E8 		.ascii	"$\203\007\350jg\000\252\015\020$p7\036\005\037'D\334"
 311      6A6700AA 
 311      0D102470 
 311      371E051F 
 311      2744DC
 312 092b 5C137163 		.ascii	"\\\023qc\321\337(n\256D\3344\033\342\246[.\260\366\376"
 312      D1DF286E 
 312      AE44DC34 
 312      1BE2A65B 
 312      2EB0F6FE 
 313 093f A21758DD 		.ascii	"\242\027X\335\033\024X\031J\366\335\371\243F\255\207"
 313      1B145819 
 313      4AF6DDF9 
 313      A346AD87 
 314 094f 36523B17 		.ascii	"6R;\027\236\273\332\330\236Y!\253\356vr\033^[\324\242"
 314      9EBBDAD8 
 314      9E5921AB 
 314      EE76721B 
 314      5E5BD4A2 
 315 0963 57CB505A 		.ascii	"W\313PZ\201\220\252\346\237\2577i\012\345\361\321e["
 315      8190AAE6 
 315      9FAF3769 
 315      0AE5F1D1 
 315      655B
 316 0975 35DF44B9 		.ascii	"5\337D\2718\370\030\225\313\227\244\235\366\"\355t\020"
 316      38F81895 
 316      CB97A49D 
 316      F622ED74 
 316      10
 317 0986 F5D3CA57 		.ascii	"\365\323\312Wj\374\365,\320\273\247\022\242\220\342"
 317      6AFCF52C 
 317      D0BBA712 
 317      A290E2
 318 0995 9CC6B217 		.ascii	"\234\306\262\027\277\020\264\323\202\364Ks\251\267\236"
 318      BF10B4D3 
 318      82F44B73 
 318      A9B79E
 319 09a4 77724365 		.ascii	"wrCe\245\376\33444\340ZPIY\203\202,\323P\2201\2652\010"
 319      A5FEDC34 
 319      34E05A50 
 319      49598382 
ARM GAS  /tmp/ccuZSfQH.s 			page 25


 319      2CD35090 
 320 09bc FC4E12C6 		.ascii	"\374N\022\306\305OGAV\320\341D\024\234\262\204\364\253"
 320      C54F4741 
 320      56D0E144 
 320      149CB284 
 320      F4AB
 321 09ce EB7F7105 		.ascii	"\353\177q\005\234\012\265 2\\\330\323\001\035Z\211\350"
 321      9C0AB520 
 321      325CD8D3 
 321      011D5A89 
 321      E8
 322 09df D2DCB47D 		.ascii	"\322\334\264}\026\031\277\335S3\334\315\231j\233?\263"
 322      1619BFDD 
 322      5333DCCD 
 322      996A9B3F 
 322      B3
 323 09f0 813C8512 		.ascii	"\201<\205\022y:\012y\262\003\345\345S[46\275\003\261"
 323      793A0A79 
 323      B203E5E5 
 323      535B3436 
 323      BD03B1
 324 0a03 6AD5F4EF 		.ascii	"j\325\364\357\265\221\212\370e\245\232N\013@\305\026"
 324      B5918AF8 
 324      65A59A4E 
 324      0B40C516 
 325 0a13 EB2DEE2C 		.ascii	"\353-\356,-\027\367l\321nA\037>\232l5\224\230\254\206"
 325      2D17F76C 
 325      D16E411F 
 325      3E9A6C35 
 325      9498AC86 
 326 0a27 78F81857 		.ascii	"x\370\030WC\211\204n'A7G\255,\252Wk\317\332\276\246"
 326      4389846E 
 326      27413747 
 326      AD2CAA57 
 326      6BCFDABE 
 327 0a3c 8B7B5AA3 		.ascii	"\213{Z\243\026\367~\235N?>\272\214N\177\023:\255\341"
 327      16F77E9D 
 327      4E3F3EBA 
 327      8C4E7F13 
 327      3AADE1
 328 0a4f 63A4D35F 		.ascii	"c\244\323_B\247\263\240\323EY\334\247>\333\245u\036"
 328      42A7B3A0 
 328      D34559DC 
 328      A73EDBA5 
 328      751E
 329 0a61 60279105 		.ascii	"`'\221\005\376\273Lp&\034\330\344L8\210G\301\307\011"
 329      FEBB4C70 
 329      261CD8E4 
 329      4C388847 
 329      C1C709
 330 0a74 A13CD884 		.ascii	"\241<\330\204r\002\372\033)\017\226P\356*(wS)\257{L"
 330      7202FA1B 
 330      290F9650 
 330      EE2A2877 
 330      5329AF7B 
 331 0a89 EB3CA4A9 		.ascii	"\353<\244\251\224\2076\356\351\021Dy\030\217\202\217"
 331      948736EE 
ARM GAS  /tmp/ccuZSfQH.s 			page 26


 331      E9114479 
 331      188F828F 
 332 0a99 1342B9D4 		.ascii	"\023B\271\324\204r\"\372\033)\227J(\347\012\312\335"
 332      847222FA 
 332      1B29974A 
 332      28E70ACA 
 332      DD
 333 0aaa D545BB5D 		.ascii	"\325E\273]_\264\303\233\266hEi\034X\260?\351\013\266"
 333      5FB4C39B 
 333      B6684569 
 333      1C58B03F 
 333      E90BB6
 334 0abd 8C8F7CDE 		.ascii	"\214\217|\336jp\204\011\247$8\0339\215\220p\352!8\345"
 334      6A708409 
 334      A724381B 
 334      398D9070 
 334      EA2138E5 
 335 0ad1 A9A5F18E 		.ascii	"\251\245\361\216\325VJ\343\335:\363\221Z\267,\027\336"
 335      D5564AE3 
 335      DD3AF391 
 335      5AB72C17 
 335      DE
 336 0ae2 9A88C9BB 		.ascii	"\232\210\311\273\273\204\271\0339\017\223\376\356eK"
 336      BB84B91B 
 336      390F93FE 
 336      EE654B
 337 0af1 65F2135B 		.ascii	"e\362\023[5aF\361\211\317+\314h\023a\332\300\331(\314"
 337      356146F1 
 337      89CF2BCC 
 337      681361DA 
 337      C0D928CC 
 338 0b05 688930F9 		.ascii	"h\2110\371B\230\236j\231\374T\204\365\222\360\242\306"
 338      42989E6A 
 338      99FC5484 
 338      F592F0A2 
 338      C6
 339 0b16 95C91773 		.ascii	"\225\311\027sOYI8\306\204K2|\214\\\306H\252\226^6\252"
 339      4F594938 
 339      C6844B32 
 339      7C8C5CC6 
 339      48AA965E 
 340 0b2c 9602CB25 		.ascii	"\226\002\313%\341^\033\232\214m\\\231<\216{\312R\366"
 340      E15E1B9A 
 340      8C6D5C99 
 340      3C8E7BCA 
 340      52F6
 341 0b3e 78134D52 		.ascii	"x\023MR\340c\324d\274D\223B\033\232\364\266\254\311"
 341      E063D464 
 341      BC449342 
 341      1B9AF4B6 
 341      ACC9
 342 0b50 5F2FA449 		.ascii	"_/\244Ip\242\273\244\251e\362\245M~8\\\306\243\340\343"
 342      70A2BBA4 
 342      A965F2A5 
 342      4D7E385C 
 342      C6A3E0E3 
 343 0b64 84883BC1 		.ascii	"\204\210;\301D\334\266\350o\024w\202D\334\"\033\342"
ARM GAS  /tmp/ccuZSfQH.s 			page 27


 343      44DCB6E8 
 343      6F147782 
 343      44DC221B 
 343      E2
 344 0b75 165B15B7 		.ascii	"\026[\025\267\3769K\331\351y=;M\264\3635\246Lyq\027"
 344      FE394BD9 
 344      E9793D3B 
 344      4DB4F335 
 344      A64C7971 
 345 0b8a B966D736 		.ascii	"\271f\3276M\241I|\030\331\022\234l\242R;\370\030U\232"
 345      4DA1497C 
 345      18D9129C 
 345      6CA2523B 
 345      F818559A 
 346 0b9e 2C49317D 		.ascii	",I1}D\212)Q\253\314W\364\270\247\330\211{DP\334O\350"
 346      448A2951 
 346      ABCC57F4 
 346      B8A7D889 
 346      7B4450DC 
 347 0bb4 714FE5C3 		.ascii	"qO\345\303\310\342.7\211;\025>\306\270\313%q\367\025"
 347      C8E22E37 
 347      893B153E 
 347      C6B8CB25 
 347      71F715
 348 0bc7 71F753E3 		.ascii	"q\367S\343\256\323\343\276\334N\334#\203\342\336\243"
 348      AED3E3BE 
 348      DC4EDC23 
 348      83E2DEA3 
 349 0bd7 C73D8D0F 		.ascii	"\307=\215\017#\213{\272I\334i\3601\306=]\022w\177\021"
 349      238B7BBA 
 349      49DC69F0 
 349      31C63D5D 
 349      12777F11 
 350 0beb F70035EE 		.ascii	"\367\0005\356#z\3343\354\304=*(\356\375z\3343\3710\262"
 350      237ADC33 
 350      ECC43D2A 
 350      28EEFD7A 
 350      DC33F930 
 351 0c00 B86799C4 		.ascii	"\270g\231\304\235\016\037c\334\263$q\017\024q\017R\343"
 351      9D0E1F63 
 351      DCB32471 
 351      0F14710F 
 351      52E3
 352 0c12 3EA6C77D 		.ascii	">\246\307}\205\235\270G\353\037\246NX{\342\236\321\331"
 352      859DB847 
 352      EB1FA64E 
 352      587BE29E 
 352      D1D9
 353 0c24 CDE693C9 		.ascii	"\315\346\223\311\330\3151a\227\001\037#\2739\022v\203"
 353      D8CD3161 
 353      97011F23 
 353      BB391276 
 353      83
 354 0c35 05BB216A 		.ascii	"\005\273!j!y\350\317Z\347\271MM\217W69=\316\343Q\360"
 354      2179E8CF 
 354      5AE7B94D 
 354      4D8F5736 
ARM GAS  /tmp/ccuZSfQH.s 			page 28


 354      393DCEE3 
 355 0c4b 71422857 		.ascii	"qB(W\230Pn\217\376F\312\025\022\312C\005\345a\012\345"
 355      98506E8F 
 355      FE46CA15 
 355      12CA4305 
 355      E5610AE5 
 356 0c5f BDDFFFF9 		.ascii	"\275\337\377\371\270\326\333\325\340\355\277T-\314\336"
 356      B8D6DBD5 
 356      E0EDBF54 
 356      2DCCDE
 357 0c6e 95DFB106 		.ascii	"\225\337\261\006\251\357\275\227\265\2451\337\2640\233"
 357      A9EFBD97 
 357      B5A531DF 
 357      B4309B
 358 0c7d 6DB9307B 		.ascii	"m\2710{\177u\254\225e\342\337\246i\263\200O,[&\013M"
 358      7F75AC95 
 358      65E2DFA6 
 358      69B3804F 
 358      2C5B260B 
 359 0c92 34EB001F 		.ascii	"4\353\000\037\243f\013%\232\015\027\232\225\005\276"
 359      A3660B25 
 359      9A0D179A 
 359      9505BE
 360 0ca1 1FECFB50 		.ascii	"\037\354\373P\373~P)\375~\260\210_\270\340\367\203E"
 360      FB7E5029 
 360      FD7EB088 
 360      5FB8E0F7 
 360      8345
 361 0cb3 FAF783AF 		.ascii	"\372\367\203\257\267io\334\356J\352h\360\375`\204\341"
 361      B7696FDC 
 361      EE4AEA68 
 361      F0FD6084 
 361      E1
 362 0cc4 FB81C3F0 		.ascii	"\373\201\303\360\375\300\301o\3370|?p\227)\337\017F"
 362      FDC0C16F 
 362      DF307C3F 
 362      709729DF 
 362      0F46
 363 0cd6 AA3BF6EC 		.ascii	"\252;\366\354\202\200\323b\223\357\007\231\266\276\037"
 363      8280D362 
 363      93EF0799 
 363      B6BE1F
 364 0ce5 2C96C833 		.ascii	",\226\3103J\3103Z-W\317\331(\315\256j\\\271\272\204"
 364      4AC8335A 
 364      2D57CFD9 
 364      28CDAE6A 
 364      5CB9BA84 
 365 0cf9 7BCACAD5 		.ascii	"{\312\312\325\245&\267:\013>\306[\275TR=\\d\243z\270"
 365      A526B73A 
 365      0B3EC65B 
 365      BD54523D 
 365      5C64A37A 
 366 0d0e D8FA174C 		.ascii	"\330\372\027L\033\232\\\335\270r\365\032\356)[\376\327"
 366      1B9A5CDD 
 366      B872F51A 
 366      EE295BFE 
 366      D7
ARM GAS  /tmp/ccuZSfQH.s 			page 29


 367 0d1f 9A68D211 		.ascii	"\232h\322\021>FM\256\225h2\306\206&c\255~x<\265{\277"
 367      3E464DAE 
 367      956832C6 
 367      862663AD 
 367      7E783CB5 
 368 0d35 36E9754D 		.ascii	"6\351uM\315\266\32779\333\336\300\243\340\343\204H\267"
 368      CDB6D737 
 368      39DBDEC0 
 368      A3E0E384 
 368      48B7
 369 0d47 CC44BA6C 		.ascii	"\314D\272l\3647J\267L\2625\306\211\2551^\315\244_[*"
 369      F4374AB7 
 369      4CB235C6 
 369      89AD315E 
 369      CDA45F5B 
 370 0d5c 22BFD71F 		.ascii	"\"\277\327\037\2627\332\371\353\317\350\240\342\340"
 370      B237DAF9 
 370      EBCFE8A0 
 370      E2E0
 371 0d6a CC7D1AB3 		.ascii	"\314}\032\263\233\3700\262\205q\263\011\273N\3601\262"
 371      9BF830B2 
 371      8571B309 
 371      BB4EF031 
 371      B2
 372 0d7b BB59C2EE 		.ascii	"\273Y\302\356\022\301\356R5\325\374\250\307}\213\235"
 372      12C1EE52 
 372      35D5FCA8 
 372      C77D8B9D 
 373 0d8b B8838B9A 		.ascii	"\270\203\213\232\257\365\270o\345\303\310\342\276\315"
 373      AFF5B86F 
 373      E5C3C8E2 
 373      BECD
 374 0d99 24EE1CF8 		.ascii	"$\356\034\370\030\343\276M\022\367e\"\356\011j\334?"
 374      18E3BE4D 
 374      12F76522 
 374      EE096ADC 
 374      3F
 375 0daa EB71DF6E 		.ascii	"\353q\337n'\356\340\"\362;=\356;\3700\262\270\3574\211"
 375      27EEE022 
 375      F23B3DEE 
 375      3BF830B2 
 375      B8EF3489 
 376 0dbe BB337C8C 		.ascii	"\2733|\214q\337)\211{\242\210{R\340\323\260\036\367"
 376      71DF2989 
 376      7BA2887B 
 376      52E0D3B0 
 376      1EF7
 377 0dd0 6FECC41D 		.ascii	"o\354\304\035\\\264\373\365\270\227\363adq{\250I\340"
 377      5CB4FBF5 
 377      B897F361 
 377      64717BA8 
 377      49E0
 378 0de2 5DE0640C 		.ascii	"]\340d\014\334C%\221O\026\221OQ#_\267V\213|\005\265"
 378      DC432591 
 378      4F16914F 
 378      51235FB7 
 378      568B7C05 
ARM GAS  /tmp/ccuZSfQH.s 			page 30


 379 0df7 137A995E 		.ascii	"\023z\231^G\336u\320\332\227\233Z\215\340J\212\351d"
 379      47DE75D0 
 379      DA979B5A 
 379      8DE04A8A 
 379      E964
 380 0e09 14ABCC28 		.ascii	"\024\253\314(v\025nF\216U2\216S\005\307\362\300\207"
 380      76156E46 
 380      8E55328E 
 380      5305C7F2 
 380      C087
 381 0e1b D88FB4DE 		.ascii	"\330\217\264\336\253hS\363\333j[#H\023\334\032\212@"
 381      AB6853F3 
 381      DB6A5B23 
 381      4813DC1A 
 381      8A40
 382 0e2d 305408F5 		.ascii	"0T\010\365\265f\324\273\011\037#\365\2652\352\227\013"
 382      B566D4BB 
 382      091F23F5 
 382      B532EA97 
 382      0B
 383 0e3e EAD3D4A2 		.ascii	"\352\323\324\242\262\346\264^T\256\243\015\252\312\351"
 383      B2E6B45E 
 383      54AEA30D 
 383      AACAE9
 384 0e4d 6A2EAC96 		.ascii	"j.\254\226\337\277\006\271p\343Am\245\334\245G\332\370"
 384      DFBF06B9 
 384      70E3416D 
 384      A5DCA547 
 384      DAF8
 385 0e5f B272D35A 		.ascii	"\262r\323ZKe\345\351ZM\240\273)\246\226\255\232\365"
 385      4B65E5E9 
 385      5A4DA0BB 
 385      29A696AD 
 385      9AF5
 386 0e71 66D2E50A 		.ascii	"f\322\345\0127\243t\353e\322\315\020\322\315Tk\313\275"
 386      37A374EB 
 386      65D2CD10 
 386      D2CD546B 
 386      CBBD
 387 0e83 9FEAB5E5 		.ascii	"\237\352\265\345\006*-.\253).]\260\274\254\246z}\271"
 387      062A2D2E 
 387      AB292E5D 
 387      B0BCACA6 
 387      7A7DB9
 388 0e96 A756AB2F 		.ascii	"\247V\253/7rog\203\002s\226\241\300t\032\012L'n\345"
 388      37726F67 
 388      83027396 
 388      A1C0741A 
 388      0A4C276E 
 389 0eab 3454981B 		.ascii	"4T\230\033\351L\245\304\274B\335\315\017V\006\3346\351"
 389      E94CA5C4 
 389      BC42DDCD 
 389      0F5606DC 
 389      36E9
 390 0ebd 8A84D698 		.ascii	"\212\204\326\230\335m\325\230\233d:\315\026:\315Q\213"
 390      DD6DD598 
 390      9B643ACD 
ARM GAS  /tmp/ccuZSfQH.s 			page 31


 390      163ACD51 
 390      8B
 391 0ece CCDA0B2F 		.ascii	"\314\332\013/\036\255\240\362\352Q\331\2522\357\241"
 391      1EADA0F2 
 391      EA51D9AA 
 391      32EFA1
 392 0edd F095D599 		.ascii	"\360\225\325\231\233\315\356|\017\341f\274\363\233\215"
 392      9BCDEE7C 
 392      0FE166BC 
 392      F39B8D
 393 0eec 8CCAE95C 		.ascii	"\214\312\351\\\033e\325\225\226K\315\3556\224\2717D"
 393      1B65D595 
 393      964BCDED 
 393      3694B937 
 393      44
 394 0efd 19EBB5E6 		.ascii	"\031\353\265\346\026\012_\331\236\330j\246L\236p3*\263"
 394      160A5FD9 
 394      9ED86AA6 
 394      4C9E7033 
 394      2AB3
 395 0f0f 55A6CC3C 		.ascii	"U\246\314<\033\312TX.8\017\235\321f\335\326\344\214"
 395      1BCA5458 
 395      2E380F9D 
 395      D166DDD6 
 395      E48C
 396 0f21 7C5FD333 		.ascii	"|_\3233r\015E \030*D\302\373\315$\314\027>F\011\357"
 396      720D4520 
 396      182A44C2 
 396      FBCD24CC 
 396      173E4609 
 397 0f36 976D1797 		.ascii	"\227m\027\227\330.\363\2058\253\352\237Xk\\\025\331"
 397      D82EF385 
 397      38ABEA9F 
 397      586B5C15 
 397      D9
 398 0f47 2E8C6472 		.ascii	".\214dr\307;)\351ro\245\365\305\364@#\267\331\203\024"
 398      C73B29E9 
 398      726FA5F5 
 398      C5F44023 
 398      B7D98314 
 399 0f5b BEB26D56 		.ascii	"\276\262mVk\246DO\341fT\242V\266\230\026\330XL\013\255"
 399      6BA6444F 
 399      E16654A2 
 399      56B69816 
 399      D8584C0B 
 400 0f70 7F6CB7B1 		.ascii	"\177l\267\261\315\2667r\233=D\341+\333f;\314\224\351"
 400      CDB63772 
 400      9B3D44E1 
 400      2BDB663B 
 400      CC94E9
 401 0f83 25DC8CCA 		.ascii	"%\334\214\312\354\220)SiC\231E\226\225\331w!e\202\267"
 401      EC902953 
 401      69439945 
 401      9695D977 
 401      216582B7 
 402 0f97 D14E5BDB 		.ascii	"\321N[\333H\366\027\333\207"
 402      48F617DB 
ARM GAS  /tmp/ccuZSfQH.s 			page 32


 402      87
 403 0fa0 9BBE111F 		.ascii	"\233\276\021\037\241\010\004C\205\210\274\313L\344\002"
 403      A1080443 
 403      8588BCCB 
 403      4CE402
 404 0faf E1631479 		.ascii	"\341c\024y\227Ld\267\015\221\027[\026y\277\035\221\037"
 404      974C64B7 
 404      0D91175B 
 404      1679BF1D 
 404      911F
 405 0fc1 6DB2C8BF 		.ascii	"m\262\310\277md\276\014\022\3711\212@0T\210\310\217"
 405      6D64BE0C 
 405      12F9318A 
 405      40305488 
 405      C88F
 406 0fd3 9B895C28 		.ascii	"\233\211\\(|\214\"?.\023\371*\033\"/\261\370\300x\361"
 406      7C8C223F 
 406      2E13F92A 
 406      1B222FB1 
 406      F8C078F1 
 407 0fe7 9C5A8929 		.ascii	"\234Z\211)UX\011\331\343Y\207w\020m\322\245\242f{\361"
 407      555809D9 
 407      E3598777 
 407      106DD2A5 
 407      A2667BF1 
 408 0ffb DC678BCF 		.ascii	"\334g\213\317\337"
 408      DF
 409 1000 EF6ADEAF 		.ascii	"\357j\336\257\216\254\340\3576\363q\207\216\213\323"
 409      8EACE0EF 
 409      36F37187 
 409      8E8BD3
 410 100f C06F2A20 		.ascii	"\300o* H\236\273\304]Q8r\221\273\302=a\312\334\242~"
 410      489EBBC4 
 410      5D513872 
 410      91BBC23D 
 410      61CADCA2 
 411 1024 05450525 		.ascii	"\005E\005%\205\205\313\026\334\260\254\360\372e\342"
 411      8585CB16 
 411      DCB0ACF0 
 411      FA65E2
 412 1033 B8B4E29A 		.ascii	"\270\264\342\232[\012\\$r\351\015\225\305\005\275\225"
 412      5B0A5C24 
 412      72E90D95 
 412      C505BD95 
 413 1043 43917228 		.ascii	"C\221r(v\362C\021L1uG\226\215\0309j4\371\037?\263\234"
 413      76F24311 
 413      4C317547 
 413      968D1839 
 413      6A34F91F 
 414 105a A8       		.ascii	"\250"
 415              		.text
 416              		.section	.gnu.lto_.symbol_nodes.5c91fc6299eb1437,"",%progbits
 417 0000 789C4D52 		.ascii	"x\234MR[O\023A\024>3\313\266T\253\334o\012\362\333\370"
 417      5B4F1341 
 417      143E33CB 
 417      B654ABDC 
 417      6F0AF2DB 
ARM GAS  /tmp/ccuZSfQH.s 			page 33


 418 0015 25537795 		.ascii	"%Sw\225\213$` B\002\211$\273\0115\220`\242\011$\232"
 418      8B246020 
 418      42028924 
 418      BB093590 
 418      60A20924 
 419 002a 80ED3E9A 		.ascii	"\200\355>\232\370\344\017\320\335\004\0220\020[\331"
 419      F8E40FD0 
 419      DD041230 
 419      105BD9
 420 0039 6A2B5DB7 		.ascii	"j+]\2673\347s\332\227\357r\276s\316\364\264\222$\335"
 420      33E773DA 
 420      97EF72BE 
 420      73CEF4B4 
 420      9224DD
 421 004c 16C87C64 		.ascii	"\026\310|dF\212\350\345\027\"\245^-/\310\212P\242O6"
 421      468AE8E5 
 421      1722A55E 
 421      2D2FC88A 
 421      50A24F36 
 422 0060 84922CBF 		.ascii	"\204\222,\277\256,\270?\005\025\224\343\246B\344]\362"
 422      AE2CB83F 
 422      051594E3 
 422      A642E45D 
 422      F2
 423 0071 B3504E5F 		.ascii	"\263PN_6\026j\240O&B\271}\262*T\241O\276\021\252h\245"
 423      36166AA0 
 423      4F2642B9 
 423      7DB22A54 
 423      A14FBE11 
 424 0088 BB24653E 		.ascii	"\273$e>\321]\221\316\200rdS\250\301\276\255\267b\240"
 424      D15D91CE 
 424      80726453 
 424      A8C1BEAD 
 424      B762A0
 425 009b 98177F09 		.ascii	"\230\027\177\0117\007\321\022\252d\212\225\212\020\236"
 425      3707D112 
 425      AA648A95 
 425      8A109E
 426 00aa 54F7AC7A 		.ascii	"T\367\254z&\325}\253|\251\312V-K\365\300\252E\251\036"
 426      26D57DAB 
 426      7CA9CA56 
 426      2D4BF5C0 
 426      AA45A91E 
 427 00be 5AF55CAA 		.ascii	"Z\365\\\252!\253~\0135l\325S\251F\254\312\204\032\265"
 427      21AB7E0B 
 427      356CD553 
 427      A946ACCA 
 427      841AB5
 428 00d1 AA2BD498 		.ascii	"\252+\324\230U\025\251\306\255\372+\324\204U\035\241"
 428      5515A9C6 
 428      ADFA2BD4 
 428      84551DA1 
 429 00e1 26ADBA13 		.ascii	"&\255\272\023j\312\252?BM[\325\026j\346\277r\344\020"
 429      6ACAAA3F 
 429      424D5BD5 
 429      166AE6BF 
 429      72E410
ARM GAS  /tmp/ccuZSfQH.s 			page 34


 430 00f4 F9DFBAC2 		.ascii	"\371\337\272\302q\207\015\026\200.\325{Xd]d=H\344i\034"
 430      71870D16 
 430      802ED57B 
 430      58645D64 
 430      3D48E469 
 431 0109 A550E308 		.ascii	"\245P\343\010E=,M\230\\i\334\370\2451\012\027\177\314"
 431      453D2C4D 
 431      985C69DC 
 431      F8A5310A 
 431      177FCC
 432 011c 3B2541F5 		.ascii	";%A\365\036\226\007M_\271@\201\306IJ4\226(\370n\260"
 432      1E96074D 
 432      5FB94081 
 432      C6494A34 
 432      9628F86E 
 433 0131 AEF10945 		.ascii	"\256\361\011E:?I\376R\017\347\311\177at\244\361\011"
 433      3A3F49FE 
 433      520FE7C9 
 433      7F6174A4 
 433      F109
 434 0143 F9ABAC57 		.ascii	"\371\253\254Wy\356Z\017g)\324\230\317Y\343\376u\323"
 434      79EE5A0F 
 434      6729D498 
 434      CF59E3FE 
 434      75D3
 435 0155 1FADB3DE 		.ascii	"\037\255\263\3360\371\272\306\307\224l\230\274\267\311"
 435      30F9BAC6 
 435      C7946C98 
 435      BCB7C9
 436 0164 F33679DE 		.ascii	"\3636y\336V\017\363wn\031?\3312\271`\233\347o\233\\"
 436      560FF377 
 436      6E193FD9 
 436      32B9609B 
 436      E76F9B5C 
 437 0178 ACB148DE 		.ascii	"\254\261H\336\016\367\357\360\274]\316\357\362\276]"
 437      0EF7EFF0 
 437      BC5DCEEF 
 437      F2BE5D
 438 0187 AEBFE6FA 		.ascii	"\256\277\346\372\036\3275\316Q\262g\352a\374\351\316"
 438      1ED735CE 
 438      51B267EA 
 438      61FCE9CE 
 439 0197 71CA3314 		.ascii	"q\3123\024&\232L\223\177\256I\376\225/4\311g\0302G\376"
 439      269A4C93 
 439      7FAE49FE 
 439      952F34C9 
 439      67183247 
 440 01ac 251C90E4 		.ascii	"%\034\220\344\212\211\177\303\231\350\006NC\223\374"
 440      8A897FC3 
 440      99E8064E 
 440      4393FC
 441 01bb 29863CA2 		.ascii	")\206<\242\304\220\3741M\314ir\306K5\311\277\177\212"
 441      C490FC31 
 441      4DCC6972 
 441      C64B35C9 
 441      BF7F8A
 442 01ce C9298783 		.ascii	"\311)\207\203\026\223z\213\303\261!\371\021\332\230"
ARM GAS  /tmp/ccuZSfQH.s 			page 35


 442      16937A8B 
 442      C3B121F9 
 442      11DA98
 443 01dd D3C6E40E 		.ascii	"\323\306\344\016\272:\330\336A\246\213L\206L\206\214"
 443      BA3AD8DE 
 443      41A68B4C 
 443      864C868C 
 444 01ed 21B39464 		.ascii	"!\263\224d\034\016\203\032;\206\344N\010'\204\263\017"
 444      1C0E831A 
 444      3B86E44E 
 444      082784B3 
 444      0F
 445 01fe 671F4E15 		.ascii	"g\037N\025\216!\371\256\003.E \311a\215\227\036\325"
 445      8E21F9AE 
 445      032E4520 
 445      C9618D97 
 445      1ED5
 446 0210 F82C4708 		.ascii	"\370,G\010\277E\330\220\031\212\336\325\314\217\022"
 446      BF45D890 
 446      198ADED5 
 446      CC8F12
 447 021f BEE7AED8 		.ascii	"\276\347\256\330\220\002y\307\010\037\243\375\204Ip"
 447      900279C7 
 447      081FA3FD 
 447      844970
 448 022e 82158614 		.ascii	"\202\025\206\024)>\301\013?p&\006\361>r\311?E\227!\371"
 448      293EC10B 
 448      3F702606 
 448      F13E72C9 
 448      3F459721 
 449 0243 7FF5145D 		.ascii	"\177\365\024]gp\316\340\304pb8\011\234\004\3169\234"
 449      6770CEE0 
 449      C4706238 
 449      099C04CE 
 449      399C
 450 0255 73ECBAC0 		.ascii	"s\354\272\300\233A\222K,\275\3025\256\020\276F\370\032"
 450      9B41924B 
 450      2CBDC235 
 450      AE10BE46 
 450      F81A
 451 0267 D7B8C135 		.ascii	"\327\270\3015\032\270F\003\327h\"\334D{\212k\244X\221"
 451      1AB84603 
 451      D76822DC 
 451      447B8A6B 
 451      A45891
 452 027a E21A295E 		.ascii	"\342\032)^\330\3025@\2746\256\321\321d\212\242\016v"
 452      D8C23540 
 452      BC36AED1 
 452      D1648AA2 
 452      0E76
 453 028c 75B0AB8B 		.ascii	"u\260\253\213]]te\330\225aW\206]\031v\005u\336\005\342"
 453      5D5D7465 
 453      D8956157 
 453      865D1976 
 453      0575DE05 
 454 02a1 8575130E 		.ascii	"\205u\023\016\014\351\375\243\220\001\361\252\310T\221"
 454      0CE9FDA3 
ARM GAS  /tmp/ccuZSfQH.s 			page 36


 454      9001F1AA 
 454      C85491
 455 02b0 394006C4 		.ascii	"9@\006\304;\314\011\375\003\245Hj\000"
 455      3BCC09FD 
 455      03A5486A 
 455      00
 456              		.text
 457              		.section	.gnu.lto_.refs.5c91fc6299eb1437,"",%progbits
 458 0000 789C6362 		.ascii	"x\234cb`b\230\317\000\001LLL\314L,\034@\014\205\314"
 458      606298CF 
 458      00014C4C 
 458      4CCC4C2C 
 458      1C400C85 
 459 0015 10C8CAC9 		.ascii	"\020\310\312\311\300\305\304\305\000\204L\334\346<0"
 459      C0C5C4C5 
 459      00844CDC 
 459      E63C30
 460 0024 51046400 		.ascii	"Q\004d\000B\004\013\301cBa\243\253\303/\0163\211\221"
 460      42040BC1 
 460      634261A3 
 460      ABC32F0E 
 460      338991
 461 0037 97890F08 		.ascii	"\227\211\017\010\231\230x\030\000\026\214\002\235"
 461      99987818 
 461      00168C02 
 461      9D
 462              		.text
 463              		.section	.gnu.lto_.decls.5c91fc6299eb1437,"",%progbits
 464 0000 789CBD5C 		.ascii	"x\234\275\\\013t\024U\232\256\252\356N\322$\002\242"
 464      0B741455 
 464      9AAEAAEE 
 464      4ED22402 
 464      A2
 465 0011 E3E2AC8F 		.ascii	"\343\342\254\217\214;3\273\243\216\300\210\243\236\331"
 465      8C3B33BB 
 465      A38EC088 
 465      A39ED9
 466 0020 1D546655 		.ascii	"\035TfU\366\214;\236Q\317\331s\346\314\266\225NA2\246"
 466      F68C3B9E 
 466      51CFD973 
 466      E6CCB695 
 466      4E4132A6 
 467 0034 934C7785 		.ascii	"\223Lw\205\307\356\236c%\020\210\206\201\020\336\012"
 467      C7EE9E63 
 467      25108886 
 467      8110DE0A 
 468 0044 2488C1C1 		.ascii	"$\210\301\301A\004\024\001A(A\222\310\033\002Ix\205"
 468      41041401 
 468      41284192 
 468      C81B0249 
 468      7885
 469 0056 F0161994 		.ascii	"\360\026\031\2247\006\011\275\377\375\357\255\352\252"
 469      370609BD 
 469      FFFDEFAD 
 469      EAAA
 470 0064 EAAAEEAA 		.ascii	"\352\252\356\252\340L\237\334[\267\253\357\375\356\377"
 470      E04C9FDC 
ARM GAS  /tmp/ccuZSfQH.s 			page 37


 470      5BB7ABEF 
 470      FDEEFF
 471 0073 BE8FBA15 		.ascii	"\276\217\272\025\201\023\270g\375\034\027\207\317W\277"
 471      8113B867 
 471      FD1C1787 
 471      CF57BF
 472 0082 E7B831BD 		.ascii	"\347\2701\2758\016\376\270_r\211\317\367!\315\207\264"
 472      380EFEB8 
 472      5F7289CF 
 472      F721CD87 
 472      B4
 473 0093 10D22248 		.ascii	"\020\322\"H\213!U\363\034\327\000i\021\244\305\220\336"
 473      8B2155F3 
 473      1CD70069 
 473      11A4C590 
 473      DE
 474 00a4 87B41CD2 		.ascii	"\207\264\034\322*H\037CZ\013i\035\244\015\220>\203\324"
 474      2A481F43 
 474      5A0B691D 
 474      A40D903E 
 474      83D4
 475 00b6 08693BA4 		.ascii	"\010i;\244\335\220\332!\035\204t\004\322IH_@:\017\351"
 475      DD90DA21 
 475      1D847404 
 475      D249485F 
 475      403A0FE9 
 476 00ca 2AA40CC0 		.ascii	"*\244\014\300\356\202ko\201\343\006CZ\007i\023\244\003"
 476      EE826B6F 
 476      81E30643 
 476      5A076913 
 476      A403
 477 00dc 0267FA10 		.ascii	"\002g\372\020z\002\220Z!\365\206\224\003\351\004\324"
 477      7A02905A 
 477      21F58694 
 477      03E904D4 
 478 00ec 39C9EA09 		.ascii	"9\311\352\011\254\316\027\226v\034\343#]\333\205\016"
 478      ACCE1796 
 478      761CE323 
 478      5DDB850E 
 479 00fc 6D09FF99 		.ascii	"m\011\377\231\220\316\303o\223\200\316nH7 \011\360}"
 479      90CEC36F 
 479      9380CE6E 
 479      48372009 
 479      F07D
 480 010e 09DCFF80 		.ascii	"\011\334\377\200\247\355\373A\346\027h\231\264Y\316"
 480      A7EDFB41 
 480      E6176899 
 480      B459CE
 481 011d EE6BBC19 		.ascii	"\356k\274\031?\213\031\346\022\003=;\240\316[p]\015"
 481      3F8B19E6 
 481      12033D3B 
 481      A0CE5B70 
 481      5D0D
 482 012f 69152468 		.ascii	"i\025$h\306U2\014R\177\025+W\301\365\202\005\217\350"
 482      C655320C 
 482      527F152B 
 482      57C1F582 
ARM GAS  /tmp/ccuZSfQH.s 			page 38


 482      058FE8
 483 0142 26DB82B7 		.ascii	"&\333\202\267\312\2029\231\247\364_\204{\3571\374:\310"
 483      CA823999 
 483      A7F45F84 
 483      7BEF31FC 
 483      3AC8
 484 0154 7CAC3DC1 		.ascii	"|\254=\301_\314d\361\026\224/Y\372h\350a\037sY\037\015"
 484      5FCC64F1 
 484      16942F59 
 484      FA68E861 
 484      1F73591F 
 485 0169 963EDE81 		.ascii	"\226>\336\201\362eK\037\213\030\217\032&\371\370\331"
 485      F2654B1F 
 485      8B188F1A 
 485      26F9F8D9 
 486 0179 7DA2DBB5 		.ascii	"}\242\333\265\314\326\254\037b\217}\341\332d\240-\323"
 486      CCD6AC1F 
 486      628F7DE1 
 486      DA64A02D 
 486      D3
 487 018a 80A342FA 		.ascii	"\200\243B\372W(?\002\351\012\244\037Cj\201{\315\220"
 487      57283F02 
 487      E90AA41F 
 487      436A817B 
 487      CD90
 488 019c AE42F91B 		.ascii	"\256B\371\033H\353yj#\277\200\362S\220\032\241\374k"
 488      48EB796A 
 488      23BF80F2 
 488      53901AA1 
 488      FC6B
 489 01ae B8EEE6E8 		.ascii	"\270\356\346\350\375\305\314\25670;_\310\370X\307\354"
 489      FDC5CCAE 
 489      37303B5F 
 489      C8F858C7 
 489      EC
 490 01bf D6F821BE 		.ascii	"\326\370!\276q\037Gm[\243\247\231\341O'WH?\345\023\364"
 490      711F476D 
 490      5BA3A799 
 490      E14F2757 
 490      483FE513 
 491 01d4 7531DB9A 		.ascii	"u1\333\232\010\351\032\224\233\340\372\255@y\270\000"
 491      08E91A94 
 491      9BE0FAAD 
 491      4079B800 
 492 01e4 E5B390AE 		.ascii	"\345\263\220\256\303\367\243<\225q7\224O\023;\204\353"
 492      C3F7A33C 
 492      95713794 
 492      4F133B84 
 492      EB
 493 01f5 3EB8C649 		.ascii	">\270\306I\377 d\036R\013\2217\\\017\301\325\017\327"
 493      FF20641E 
 493      520B9137 
 493      5C0FC1D5 
 493      0FD7
 494 0207 1D4CFE6F 		.ascii	"\035L\376o\302u6\244i\220\3720\032\211\\\253\231\257"
 494      C27536A4 
 494      6990FA30 
ARM GAS  /tmp/ccuZSfQH.s 			page 39


 494      1A895CAB 
 494      99AF
 495 0219 2E36F8E4 		.ascii	".6\370\344I\346\253\015\314W\333\231\037\037d>\255\331"
 495      49E6AB0D 
 495      CC57DB99 
 495      1F1F643E 
 495      ADD9
 496 022b 75C067E6 		.ascii	"u\300g\346\373^n\236\242\356\354\254<yL\230\255\250"
 496      FB5E6E9E 
 496      A2EEECAC 
 496      3C794C98 
 496      ADA8
 497 023d E3140831 		.ascii	"\343\024\0101\012\237{\0077]\201O\375xE\341e\221\377"
 497      0A9F7B07 
 497      375D814F 
 497      FD7845E1 
 497      6591FF
 498 0250 E5F7B8FF 		.ascii	"\345\367\270\377\342E\276w\220\313\305BN\020u\314q\""
 498      E245BE77 
 498      90CBC542 
 498      4E1075CC 
 498      7122
 499 0262 FF167F07 		.ascii	"\377\026\177\007+\275\304\220\005\356Q\236\273\237["
 499      2BBDC490 
 499      05EE519E 
 499      BB9F5B
 500 0271 04ED6B14 		.ascii	"\004\355k\024\345\255\373l\224\017\237\037s\015\244"
 500      E5ADFB6C 
 500      940F9F1F 
 500      730DA4
 501 0280 07E5CF8A 		.ascii	"\007\345\317\212\017\361\011\302|\376^c\025\221_\300"
 501      0FF109C2 
 501      7CFE5E63 
 501      15915FC0 
 502 0290 9BB44469 		.ascii	"\233\264DiUk\016\347\324\224w\306\343u\365}i\377\020"
 502      556B0EE7 
 502      D49477C6 
 502      E375F57D 
 502      69FF10
 503 02a3 1D79A8FD 		.ascii	"\035y\250\3756\177\177J\370\205V\370w\354\340;\3675"
 503      367F7F4A 
 503      F88556F8 
 503      77ECE03B 
 503      F735
 504 02b5 36EDE2A7 		.ascii	"6\355\342\247\214U\232\225s\361x\037\275\213\377s\323"
 504      8C559A95 
 504      73F1781F 
 504      BD8BFF73 
 504      D3
 505 02c6 C5226B17 		.ascii	"\305\"k\027\357\332v\261ls\353n\276V\353\242&\313$\356"
 505      EFDA76B1 
 505      6C73EB6E 
 505      BE56EBA2 
 505      26CB24EE 
 506 02da 2057C5BE 		.ascii	" W\305\276<\333\014\226h'\370\037qo\203p;\333\2664\356"
 506      3CDB0C96 
 506      6827F81F 
ARM GAS  /tmp/ccuZSfQH.s 			page 40


 506      716F8370 
 506      3BDBB634 
 507 02ef E2C7421B 		.ascii	"\342\307B\033\221_\302\007\201\306\213\274\231H\367"
 507      915FC207 
 507      81C68BBC 
 507      9948F7
 508 02fe 5017777C 		.ascii	"P\027w|\266\214\257@\250e\0105S\350)T|\367\312\307\024"
 508      B68CAF40 
 508      A8650835 
 508      53E82954 
 508      7CF7CAC7 
 509 0313 254BE43F 		.ascii	"%K\344?D\240m\026 \221\317\010\232e\004\337\265\012"
 509      44A06D16 
 509      2091CF08 
 509      9A6504DF 
 509      B50A
 510 0325 040DBE92 		.ascii	"\004\015\276\222\236\276!\243\035\377*\273C\276dr\177"
 510      9EBE21A3 
 510      1DFF2ABB 
 510      43BE6472 
 510      7F
 511 0336 F7764E56 		.ascii	"\367vNV\377\036\263z\037\372\025\004\331\327\025\245"
 511      FF1EB37A 
 511      1FFA1504 
 511      D9D715A5 
 512 0346 8209A71F 		.ascii	"\202\011\247\0377\205\340\345\032\304\364\262\326>'"
 512      3785E0E5 
 512      1AC4F4B2 
 512      D63E27
 513 0355 21A665AF 		.ascii	"!\246e\257\257\365\241\230V\363\375\000\245\315\"\246"
 513      AFF5A198 
 513      56F3FD00 
 513      A5CD22A6 
 514 0365 74280277 		.ascii	"t(\002w\014[\254\205\326\264\035\342*\352\276\371|."
 514      0C5BAC85 
 514      D6B41DE2 
 514      2AEABEF9 
 514      7C2E
 515 0377 BDCD590C 		.ascii	"\275\315Y\014\326\360\371\001WO\352\0368\021Tjsl\272"
 515      D6F0F901 
 515      574FEA1E 
 515      3811546A 
 515      736CBA
 516 038a 7A42EB2A 		.ascii	"zB\353*+A\360\256\231{\246\360\343\320DT$\271\336gK"
 516      2B41F0AE 
 516      997BA6F0 
 516      E3D04454 
 516      24B9DE67 
 517 039f 72FD134E 		.ascii	"r\375\023N@\002\267\024\233l\264\320\3349\265\343j\005"
 517      4002B714 
 517      9B6CB4D0 
 517      DC39B5E3 
 517      6A05
 518 03b1 5F8ED01B 		.ascii	"_\216\320\033]\020^\241\236\257\236{\247R\277\201\267"
 518      5D105EA1 
 518      9EAF9E7B 
 518      A752BF81 
ARM GAS  /tmp/ccuZSfQH.s 			page 41


 518      B7
 519 03c2 157CD531 		.ascii	"\025|\3251^\357_\311\320\010x9\301\311\316\266!\212"
 519      5EEF5FC9 
 519      D0087839 
 519      C1C9CEB6 
 519      218A
 520 03d4 5FE49B91 		.ascii	"_\344\233\221\213\263\366\\\244@\021\270+\330fK\022"
 520      8BB3F65C 
 520      A44011B8 
 520      2BD8664B 
 520      12
 521 03e5 1BF3368D 		.ascii	"\033\3636\215ellq\305\306\314I\224\015\221o\002V\004"
 521      656C6C71 
 521      C5C6CC49 
 521      940D916F 
 521      025604
 522 03f8 4EF16BB8 		.ascii	"N\361k\270v\206\307\212\364\303*\230\361\336\330\236"
 522      7686C78A 
 522      F4C32A98 
 522      F1DED89E 
 523 0408 53236A60 		.ascii	"S#j`\023<\203\345\232\300\352\266\317A\342\320\363+"
 523      133C83E5 
 523      9AC0EAB6 
 523      CF41E2D0 
 523      F32B
 524 041a 5CC5A3EA 		.ascii	"\\\305\243\352\317\264x\324\202\276?\311o\023D\\A]\234"
 524      CFB478D4 
 524      82BE3FC9 
 524      6F13445C 
 524      415D9C
 525 042d BCE95316 		.ascii	"\274\351S\026\217Z\021jF\217\241\342\265k\037GG\333"
 525      8F5A116A 
 525      468FA1E2 
 525      B56B1F47 
 525      47DB
 526 043f 8740757E 		.ascii	"\207@u~k<\312\264\304\243Ls|\300\237Y\201\204\205>\334"
 526      6B3CCAB4 
 526      C4A34C73 
 526      7CC09F59 
 526      8184853E 
 527 0454 DFB8BAC0 		.ascii	"\337\270\272\300\275\353FuYNv\240t\326\316\333\352#"
 527      BDEB4675 
 527      594E76A0 
 527      74D6CEDB 
 527      EA23
 528 0466 A3B94F73 		.ascii	"\243\271Os\311\014'\031\011\3342\354\253\303j\313\027"
 528      C90C2719 
 528      09DC32EC 
 528      ABC36ACB 
 528      17
 529 0477 8F35FF64 		.ascii	"\2175\377d\226\242\364\245?\2457\345\025\233g:{\244"
 529      96A2F4A5 
 529      3FA537E5 
 529      159B673A 
 529      7BA4
 530 0489 A1F77A41 		.ascii	"\241\367zA\353\376\207\330\375\227\330\3751k\367\015"
 530      EBFE87D8 
ARM GAS  /tmp/ccuZSfQH.s 			page 42


 530      FD97D8FD 
 530      316BF70D 
 531 0499 F14F7954 		.ascii	"\361OyT\3321W\275\357\332=-\271w\307y\213fc\307\276"
 531      DA3157BD 
 531      EFDA3D2D 
 531      B977C779 
 531      8B6663C7 
 532 04ae B8AB0E59 		.ascii	"\270\253\016Y<\205\016s%\3112\206d\233u\007\337\015"
 532      3C850E73 
 532      25C93286 
 532      649B7507 
 532      DF0D
 533 04c0 15042EAE 		.ascii	"\025\004.\256\023\337#\177\355lxw3\316\272|\032\011"
 533      13DF237F 
 533      ED6C7877 
 533      33CEBA7C 
 533      1A09
 534 04d2 1501AF80 		.ascii	"\025\001\257\200\271&9\354\331\215\001\200\202U\272"
 534      B92639EC 
 534      D98D0180 
 534      8255BA
 535 04e1 0173B4A2 		.ascii	"\001s\264\242\012\265\325\010V\345\031\314LY\273\021"
 535      0AB5D508 
 535      56E519CC 
 535      4C59BB11 
 536 04f1 ACDA0D58 		.ascii	"\254\332\015X_g\312\366\033\301&y\0063Sv\320\0106\305"
 536      5F67CAF6 
 536      1BC12679 
 536      06335376 
 536      D00836C5 
 537 0505 0D587F67 		.ascii	"\015X\177g\312:\214`\323=\203\231);g\004\233\355\006"
 537      CA3A8C60 
 537      D33D8399 
 537      293B6704 
 537      9BED06
 538 0518 2CD78632 		.ascii	",\327\2062\375\3434\2319\312\353f.ps\002Z8\360h\322"
 538      FDE33499 
 538      39CAEB66 
 538      2E707302 
 538      5A38F068 
 539 052d 5C02A33E 		.ascii	"\\\002\243>\3405|\231\370\206qt\333\002~*L\217\007j"
 539      E0357C99 
 539      F8867174 
 539      DB027E2A 
 539      4C8F076A 
 540 0541 63D94237 		.ascii	"c\331B7\210)\014\346#\343\300\270\3043\230Y-{\010\230"
 540      88290CE6 
 540      23E3C0B8 
 540      C4339859 
 540      2D7B0898 
 541 0555 29D2B0C1 		.ascii	")\322\260\301\250\263A\355?+\021\352\2624,\262\002\242"
 541      A8B341ED 
 541      3F2B11EA 
 541      B2342CB2 
 541      02A2
 542 0567 710D1644 		.ascii	"q\015\026D\202^Y\351\337\337\276\256\310\217\023~\004"
 542      825E59E9 
ARM GAS  /tmp/ccuZSfQH.s 			page 43


 542      DFDFBEAE 
 542      C88F137E 
 542      04
 543 0578 79A510D4 		.ascii	"y\245\020\324\251\240e\255\024\307\025\335G\001\373"
 543      A9A065AD 
 543      14C715DD 
 543      4701FB
 544 0587 B555DAA6 		.ascii	"\265U\332\246N\226P!\030,a\215\0331\245p\205sNbR\307"
 544      4E965021 
 544      182C618D 
 544      1B31A570 
 544      85734E62 
 545 059d 2B557CF9 		.ascii	"+U|\371\262\273R\3166!8\337\375.\006\347\327\0052lo"
 545      B2BB52CE 
 545      362138DF 
 545      FD2E06E7 
 545      D705326C 
 546 05b2 08D88EFF 		.ascii	"\010\330\216\377\356\260&\357\320&\023\177B\260m=\007"
 546      EEB026EF 
 546      D026137F 
 546      42B06D3D 
 546      07
 547 05c3 AB8FEFBE 		.ascii	"\253\217\357\276\213L\036k\020\2505`\0352\202\226\311"
 547      8B4C1E6B 
 547      10A83560 
 547      1D328296 
 547      C9
 548 05d4 44D03CDC 		.ascii	"D\320<\334\007\203\211B\\\373\230\265\3707m\343\244"
 548      07838942 
 548      5CFB98B5 
 548      F8376DE3 
 548      A4
 549 05e5 F9D78C9A 		.ascii	"\371\327\214\232?\342Y\363&\007\351\254\355\350\360"
 549      3FE259F3 
 549      2607E9AC 
 549      EDE8F0
 550 05f4 CD54D472 		.ascii	"\315T\324r\237\301\324S\372\005Y\312\256\3737\034\357"
 550      9FC1D453 
 550      FA0559CA 
 550      AEFB371C 
 550      EF
 551 0605 A7A35CFF 		.ascii	"\247\243\\\377j\257 \027@\027'\277\367\000\002\315B"
 551      6AAF2017 
 551      401727BF 
 551      F70002CD 
 551      42
 552 0616 A0CB3D06 		.ascii	"\240\313=\006\212\327\316\243\313\3307\021\250;I\323"
 552      8AD7CEA3 
 552      CBD83711 
 552      A83B49D3 
 553 0626 BC45D3BC 		.ascii	"\274E\323\274Y\003|0QH\322\326wX\027&\372\031\026u\231"
 553      59037C30 
 553      5148D2D6 
 553      77581726 
 553      FA191675 
 554 063b D8493132 		.ascii	"\330I12h\341\266\343\370T\376b\2052k\240\007}U3}\325"
 554      68E1B6E3 
ARM GAS  /tmp/ccuZSfQH.s 			page 44


 554      F854FE62 
 554      85326BA0 
 554      077D5533 
 555 0651 A3742667 		.ascii	"\243t&gX\2453K\360&\036\201\233\351\231\215,3\033\363"
 555      58A5334B 
 555      F0261E81 
 555      9BE9998D 
 555      2C331BF3 
 556 0665 4EF5808D 		.ascii	"N\365\200\215\365\224\215\006d\243\356;`\343\035\317"
 556      F5948D06 
 556      64A3EE3B 
 556      60E31DCF 
 557 0675 6CF435B0 		.ascii	"l\3645\260A\326\302\227\246\321\301\3576\2566\365\344"
 557      41D6C297 
 557      A6D1C1EF 
 557      36AE36F5 
 557      E4
 558 0686 1D379884 		.ascii	"\0357\230\204\333\314\353\377\313;\310\372\237\334N"
 558      DBCCEBFF 
 558      CB3BC8FA 
 558      9FDC4E
 559 0695 BFFE9FBA 		.ascii	"\277\376\237\272\333\260\304s\271\345\244/\361\336C"
 559      DBB0C473 
 559      B9E5A42F 
 559      F1DE43
 560 06a4 912D4912 		.ascii	"\221-I\022\3312\253cx\330o\021\270\017\021\217\220\337"
 560      D932AB63 
 560      78D86F11 
 560      B80F118F 
 560      90DF
 561 06b6 93293559 		.ascii	"\223)5Y\203o\235\246\315\035(\205kn\012\261B]_\253-"
 561      836F9DA6 
 561      CD1D2885 
 561      6B6E0AB1 
 561      425D5FAB 
 562 06cb D28790D9 		.ascii	"\322\207\220\331\303g7\011\207\323M\323\260hY\2644;"
 562      C3673709 
 562      87D34DD3 
 562      B06859B4 
 562      343B
 563 06dd C45D7D1B 		.ascii	"\304]}\033\246Q\033\314V\012\204\240-I\032h\342-\353"
 563      A6511BCC 
 563      560A84A0 
 563      2D491A68 
 563      E22DEB
 564 06f0 1672C350 		.ascii	"\026r\303P\305\311\226>2\016\002\0357\307'(\342\360"
 564      C5C9963E 
 564      320E021D 
 564      37C72728 
 564      E2F0
 565 0702 DB541116 		.ascii	"\333T\021\026\376\326:\360G(Xk\244\340\370MJz^\213U"
 565      FED63AF0 
 565      4728586B 
 565      A4E0F84D 
 565      4A7A5E8B 
 566 0717 D236EB51 		.ascii	"\3226\353Q\2057\316\370\004\356\014v\252\012\226\365"
 566      8537CEF8 
ARM GAS  /tmp/ccuZSfQH.s 			page 45


 566      04EE0C76 
 566      AA0A96F5 
 567 0727 E8BEABCD 		.ascii	"\350\276\253\315\023\330\326\016\371-\275k]\306\255"
 567      13D8D60E 
 567      F92DBD6B 
 567      5DC6AD
 568 0736 356DABAC 		.ascii	"5m\253\254.SC\265\233Y\244g\245\353\364\347<\302\321"
 568      2E5343B5 
 568      9B59A467 
 568      A5EBF4E7 
 568      3CC2D1
 569 0749 19EC3B56 		.ascii	"\031\354;V8\217+\273\353\222E+i\005C\215O\335w\202\004"
 569      388F2BBB 
 569      EB92452B 
 569      6905438D 
 569      4FDD7782 
 570 075e 97CF05C2 		.ascii	"\227\317\005\302\323\373\231V\273\243\2221\330]B\214"
 570      D3FB9956 
 570      BBA39231 
 570      D85D428C 
 571 076e 22BF01A7 		.ascii	"\"\277\001\247\264\033\205\037@\276\011\363&\310\365"
 571      B41B851F 
 571      40BE09F3 
 571      26C8F5
 572 077d 8F934534 		.ascii	"\217\223E4\033-b\245g\276s-\332q\352f\275\261\233u\231"
 572      1B2D62A5 
 572      67BE732D 
 572      DA71EA66 
 572      BDB19B75 
 573 0792 3767FAB5 		.ascii	"7g\372\265\035_\373qY\357a\353l\313&-\256\356\300\250"
 573      1D5FFB71 
 573      59EF61EB 
 573      6CCB262D 
 573      AEEEC0A8 
 574 07a6 B52949BA 		.ascii	"\265)I\272\255\326\270\352f'iWOY\321?\002\327\236\351"
 574      ADD6B8EA 
 574      66276957 
 574      4F59D13F 
 574      02D79EE9 
 575 07ba 623A986B 		.ascii	"b:\230k#u=$_e!9\355v\224\026\343\332\266\226\263\255"
 575      23753D24 
 575      5F652139 
 575      ED769416 
 575      E3DAB696 
 576 07d0 E6BD686B 		.ascii	"\346\275hk\007-\322p\261\257u\006\233\264[\035y\352"
 576      072DD270 
 576      B1AF7506 
 576      9BB45B1D 
 576      79EA
 577 07e2 BC4BDA56 		.ascii	"\274K\332Vs\273\013G\256P[\252\215{\264\240\036^`\270"
 577      73BB0B47 
 577      AE505BAA 
 577      8D7BB4A0 
 577      1E5E60B8 
 578 07f6 3D95A849 		.ascii	"=\225\250I\211\355\006\027\331\217.r\300\350\026\002"
 578      89ED0617 
 578      D98F2E72 
ARM GAS  /tmp/ccuZSfQH.s 			page 46


 578      C0E81602 
 579 0806 F7AD1BE9 		.ascii	"\367\255\033\351\377\213\2231*jW\313\034\236\322OCQ"
 579      FF8B9331 
 579      2A6A57CB 
 579      1C9ED24F 
 579      4351
 580 0818 659605CF 		.ascii	"e\226\005\317.\024\231\360L\332TkZq)M\307\326\032+\230"
 580      2E1499F0 
 580      4CDA546B 
 580      5A71294D 
 580      C7D61A2B 
 581 082d 1D71039D 		.ascii	"\035q\003\235\300*\3249\024\214\232\374\0147`\2179q"
 581      C02AD439 
 581      148C9AFC 
 581      0C37608F 
 581      3971
 582 083f 5AA1AE99 		.ascii	"Z\241\256\231\241ij=\016\214\363=\343\231\211ki\235"
 582      A1696A3D 
 582      0E8CF33D 
 582      E399896B 
 582      699D
 583 0851 C3F0E86E 		.ascii	"\303\360\350n\366_\334\340=\341L\337\371\031\246\211"
 583      F65FDCE0 
 583      3DE14CDF 
 583      F919A689 
 584 0861 C4479EE1 		.ascii	"\304G\236\341\314\212\350n%\212\235\330\337\356\201"
 584      CC8AE86E 
 584      258A9DD8 
 584      DFEE81
 585 0870 85AA076F 		.ascii	"\205\252\007o\262Lc^\325\275\340\374\2354\304|\211N"
 585      B24C635E 
 585      D5BDE0FC 
 585      9D34C47C 
 585      894E
 586 0882 F54556FA 		.ascii	"\365EV\372'\037f b\260g-\036\245.k\314!\013\342\263"
 586      271F6620 
 586      62B0672D 
 586      1EA52E6B 
 586      CC210BE2 
 587 0897 AEBCE983 		.ascii	"\256\274\351\203F\317\017\025\266\254\245S\364sh$\337"
 587      46CF0F15 
 587      B6ACA553 
 587      F4736824 
 587      DF
 588 08a8 667D2771 		.ascii	"f}'qql\220g\274\364,\304w/\330u\347\352\345\212\362"
 588      716C9067 
 588      BCF42CC4 
 588      772FD875 
 588      E7EAE58A 
 589 08bd 5A864658 		.ascii	"Z\206FX\225gD\263\265}\324\210\256@\301&\271\001K1\300"
 589      956744B3 
 589      B57DD488 
 589      AE40C126 
 589      B9014B31 
 590 08d2 AF22605E 		.ascii	"\257\"`^\036\3344i\243O\027\366?5\370\235H\371\015\317"
 590      1EDC3469 
 590      A34F17F6 
ARM GAS  /tmp/ccuZSfQH.s 			page 47


 590      3F35F89D 
 590      48F90DCF 
 591 08e6 6C986402 		.ascii	"l\230d\002R>}\347\352\017\025e\331\313^\266{\332\252"
 591      523E7DE7 
 591      EA0F1565 
 591      D9CB5EB6 
 591      7BDAAA
 592 08f9 3FA11673 		.ascii	"?\241\026s\003y\231\223\304\313\237\254\213:\227\233"
 592      03799993 
 592      C4CB9FAC 
 592      8B3A979B 
 593 0909 2702D760 		.ascii	"'\002\327`e\310.x\332\355C\332}\214\276$\362_a\360\377"
 593      65C82E78 
 593      DAED43DA 
 593      7D8CBE24 
 593      F25F61F0 
 594 091e 1A674697 		.ascii	"\032gF\2270\277\202\3717\230w\233\007\205\245AK\354"
 594      30BF82F9 
 594      3798779B 
 594      0785A541 
 594      4BEC
 595 0930 30FB292B 		.ascii	"0\373)+>\353\232\220\304\243L\221\337\306\023B\266\363"
 595      3EEB9A90 
 595      C4A34C91 
 595      DFC61342 
 595      B6F3
 596 0942 A4DB9D98 		.ascii	"\244\333\235\230\357\306\374\020\346\335\230\3071/G"
 596      EFC6FC10 
 596      E6DD98C7 
 596      312F47
 597 0951 D2AA309F 		.ascii	"\322\2520\237\206y\035\346oc\276\010\363=\230\037\302"
 597      86791DE6 
 597      6F63BE08 
 597      F33D981F 
 597      C2
 598 0962 FC30E647 		.ascii	"\3740\346G0?\206\371\011\314Oa~\332\315t\320\262\222"
 598      303F86F9 
 598      09CC4F61 
 598      7EDACD74 
 598      D0B292
 599 0975 D186E38D 		.ascii	"\321\206\343\215=~\0043\265\343\372[\306\275f\221\337"
 599      3D7E0433 
 599      B5E3FA5B 
 599      C6BD6691 
 599      DF
 600 0986 E5193137 		.ascii	"\345\03117\225h7\032D\273\011E\333\210\302\033\3533"
 600      9568371A 
 600      44BB0945 
 600      DB88C21B 
 600      EB33
 601 0998 69745550 		.ascii	"itUP{\232\337\223\025\202\322\271l\363\312\307\331\243"
 601      7B9ADF93 
 601      1582D2B9 
 601      6CF3CAC7 
 601      D9A3
 602 09aa 247A1644 		.ascii	"$z\026D\265\002\272\015!\366l\2545\260\261\016\331X"
 602      B502BA0D 
ARM GAS  /tmp/ccuZSfQH.s 			page 48


 602      21F66CAC 
 602      35B0B10E 
 602      D958
 603 09bc 8F6C54FA 		.ascii	"\217lT\372\\hmUbA\2328'\204l7Z\234\363\207\334\002E"
 603      5C686D55 
 603      62419A38 
 603      27846C37 
 603      5A9CF387 
 604 09d3 A9550F6C 		.ascii	"\251U\017l^\001\303\204@[\012\\\033\326Z\314\337k\333"
 604      5E01C384 
 604      405B0A5C 
 604      1BD65ACC 
 604      DF6BDB
 605 09e6 838ECF4E 		.ascii	"\203\216\317N\344\0348\376\374\263T\012\\\212V\214\232"
 605      E41C38FE 
 605      FCB3540A 
 605      5C8A568C 
 605      9A
 606 09f7 093EBB03 		.ascii	"\011>\273\003:\227\226\234\177\300\3718\024\201vbu\242"
 606      3A97969C 
 606      7FC0F938 
 606      14817662 
 606      75A2
 607 0a09 CFD3C910 		.ascii	"\317\323\311\020U\177\034J\246\\l\2255\263\221\254\262"
 607      557F1C4A 
 607      A65C6C95 
 607      35B391AC 
 607      B2
 608 0a1a 26FBC820 		.ascii	"&\373\310 ]\325+\355\271\0203\006!\242\326g\031\243"
 608      5DD52BED 
 608      B9103306 
 608      21A2D667 
 608      19A3
 609 0a2c CF4BB9F4 		.ascii	"\317K\271\364n\372\021\372\"]jZ\026\355d\272\347\304"
 609      6EFA11FA 
 609      225D6A5A 
 609      16ED64BA 
 609      E7C4
 610 0a3e F2749F61 		.ascii	"\362t\237a\355T\213\364\222\256z\344\217\352\025\211"
 610      ED548BF4 
 610      92AE7AE4 
 610      8FEA1589 
 611 0a4e 78228184 		.ascii	"x\"\201\204\310\355\031+\327\204u\315\200\265\300\015"
 611      C8ED192B 
 611      D78475CD 
 611      80B5C00D 
 612 0a5e 569A25B3 		.ascii	"V\232%\263\206\265\3303\226\221.E\215\263\275\001z\362"
 612      86B5D833 
 612      96912E45 
 612      8DB3BD01 
 612      7AF2
 613 0a70 678515ED 		.ascii	"g\205\025\355e\015\"'\201\346\370lKQk\237&\363\006\212"
 613      650D2227 
 613      81E6F86C 
 613      4B516B9F 
 613      26F3068A 
 614 0a84 A5BAC1B2 		.ascii	"\245\272\301\262\333\271\267\373\030\355H\344\247\372"
ARM GAS  /tmp/ccuZSfQH.s 			page 49


 614      DBB9B7FB 
 614      18ED48E4 
 614      A7FA
 615 0a92 88D34FF3 		.ascii	"\210\323O\363\021\247\237\211\371l\314\337\304|.\346"
 615      11A79F89 
 615      F96CCCDF 
 615      C47C2EE6 
 616 0aa2 756E82C1 		.ascii	"un\202\301$\237S0\330\332\3136\030t\277\316\202\301"
 616      249F5330 
 616      D8DACB36 
 616      1874BFCE 
 616      82C1
 617 0ab4 24947E07 		.ascii	"$\224~\007\326\252\3669\005\003\206o\033\014\234Z1j"
 617      D6AAF639 
 617      0503866F 
 617      1B0C9C5A 
 617      316A
 618 0ac6 E6DB0503 		.ascii	"\346\333\005\003u\367\026\303yC\342\337\002w\324\226"
 618      75F716C3 
 618      7943E2DF 
 618      0277D496 
 619 0ad6 5265AFF4 		.ascii	"Re\257\364,\355_\344\027\370\310(\322\320#*\235Z1*\027"
 619      2CED5FE4 
 619      17F8C828 
 619      D2D0232A 
 619      9D5A312A 
 620 0aeb DA86AC7D 		.ascii	"\332\206\254}+w\375n1\231\221*7\342\257\226W\360\332"
 620      2B77FD6E 
 620      3199912A 
 620      37E2AF96 
 620      57F0DA
 621 0afe B9C5BA6C 		.ascii	"\271\305\272l\336\342\363\266\007\027}\326\203\213\266"
 621      DEE2F3B6 
 621      07177DD6 
 621      838BB6
 622 0b0d A298D396 		.ascii	"\242\230\323\226t\364r\221+\374\305V\374\367\354\231"
 622      74F47291 
 622      2BFCC556 
 622      FCF7EC99 
 623 0b1d 18BFDDEE 		.ascii	"\030\277\335\356\354\345\012W}\274o\355cir\037\2355"
 623      ECE50A57 
 623      7DBC6FED 
 623      6369721F 
 623      9D35
 624 0b2f 9D97979C 		.ascii	"\235\227\227\234\277{\326re\034\012\212w\177\322\365"
 624      BF7BD672 
 624      651C0A8A 
 624      777FD2F5 
 625 0b3f 037364A7 		.ascii	"\003sd\247*\324\277\260 \250\177\247\272\264Z\370\306"
 625      2AD4BFB0 
 625      20A87FA7 
 625      BAB45AF8 
 625      C6
 626 0b50 244668A5 		.ascii	"$Fh\245\225\266\224\356Yw\376\027\263\225\015d\024z"
 626      95B694EE 
 626      5977FE17 
 626      B3950D64 
ARM GAS  /tmp/ccuZSfQH.s 			page 50


 626      147A
 627 0b62 95D36411 		.ascii	"\225\323d\021w\200Xm\007\241\236\333>Q\341Qe\367j\000"
 627      7780586D 
 627      07A19EDB 
 627      3E51E151 
 627      65F76A00 
 628 0b76 3539F600 		.ascii	"59\366\000kli\2509\326ug\022\015\333\034 >\261\205h"
 628      6B6C69A8 
 628      39D67567 
 628      120DDB1C 
 628      203EB185 
 629 0b8b 5F79FE3F 		.ascii	"_y\376?t\010\367\362^o\2257y:m\221\347\031\007B>u\340"
 629      7408F7F2 
 629      5E6F9537 
 629      793A6D91 
 629      E7190742 
 630 0ba2 E5D3EF27 		.ascii	"\345\323\357'\361r\331\001b\243\203J>OVI\355-\366\020"
 630      F172D901 
 630      62A3834A 
 630      3E4F5649 
 630      ED2DF610 
 631 0bb6 9B6C2166 		.ascii	"\233l!f\235\331\365\217\366\342\310\342&\340s\253J\245"
 631      9DD9F58F 
 631      F6E2C8E2 
 631      26E073AB 
 631      4AA5
 632 0bc8 9CFFA31E 		.ascii	"\234\377\243\036@\035\216\021\210|\263/\013:o\276\305"
 632      401D8E11 
 632      887CB32F 
 632      0B3A6FBE 
 632      C5
 633 0bd9 F11000A9 		.ascii	"\361\020\000\251@>\244=-k\245\024O\202\233\254b\017"
 633      403EA43D 
 633      2D6BA514 
 633      4F829BAC 
 633      620F
 634 0beb 04136586 		.ascii	"\004\023e\206h\321\302v\007\376\267\331\362\177iI\327"
 634      68D1C276 
 634      07FEB7D9 
 634      F27F6949 
 634      D7
 635 0bfc DD3D3087 		.ascii	"\335=0\207\035v\356g!\344\200\003!\273\034\024\261\317"
 635      1D76EE67 
 635      21E48003 
 635      21BB1C14 
 635      B1CF
 636 0c0e 41119451 		.ascii	"A\021\224Q'JZ\234%d\2315U\246\2305\265\372\262M4\232"
 636      274A5A9C 
 636      25649935 
 636      55A69835 
 636      B5FAB24D 
 637 0c24 1839E1C0 		.ascii	"\0309\341\300H\233\275\2237\352N\356^\236\373\254\\"
 637      489BBD93 
 637      37EA4EEE 
 637      5E9EFBAC 
 637      5C
 638 0c35 10622D64 		.ascii	"\020b-d|\353@\306\001\207\300\372\371\275\263\235\002"
ARM GAS  /tmp/ccuZSfQH.s 			page 51


 638      7CEB40C6 
 638      0187C0FA 
 638      F9BDB39D 
 638      02
 639 0c46 6BAA09E4 		.ascii	"k\252\011\344!7\221\325BZuo{\322:m%t\260\311IB\251\350"
 639      213791D5 
 639      425A756F 
 639      7BD23A6D 
 639      2574B0C9 
 640 0c5e 3A9A92AE 		.ascii	":\232\222\256\367\004\273\010?\303\201\256\023\266t"
 640      F704BB08 
 640      3FC381AE 
 640      13B674
 641 0c6d B53619C2 		.ascii	"\2656\031\302\363Q\234Z48\000\234\262\005\350\350\021"
 641      F3519C5A 
 641      3438009C 
 641      B205E8E8 
 641      11
 642 0c7e 63A73D0C 		.ascii	"c\247=\014e\356w\221v\265\255\270\037\367]\316\372\310"
 642      65EE7791 
 642      76B5ADB8 
 642      1FF75DCE 
 642      FAC8
 643 0c90 02F47D0B 		.ascii	"\002\364}\013#=\332CJ\026\360j\007\371\234s\262\311"
 643      233DDA43 
 643      4A16F06A 
 643      07F99C73 
 643      B2C9
 644 0ca2 7B7A6493 		.ascii	"{zd\223\027\334\350^\377N8N&u\243\003\251WlU\331n\264"
 644      17DCE85E 
 644      FF4E384E 
 644      2675A303 
 644      A9576C55 
 645 0cb9 850B680B 		.ascii	"\205\013h\013[\035\000\2761\003\334\307\315\247\223"
 645      5B1D00BE 
 645      3103DCC7 
 645      CDA793
 646 0cc8 A775FDCB 		.ascii	"\247u\375\313\311\242U\271\036\217\363\274\266\202\334"
 646      C9A255B9 
 646      1E8FF3BC 
 646      B682DC
 647 0cd7 AF8338AE 		.ascii	"\257\2038\256\027\2571\274\301\334\007J\225\3722mI'"
 647      17AF31BC 
 647      C1DC074A 
 647      95FA326D 
 647      4927
 648 0ce9 FBFFCB5D 		.ascii	"\373\377\313]S\262La\355V\256F\333&\246\207\2634\330"
 648      53B24C61 
 648      ED56AE46 
 648      DB26A687 
 648      B334D8
 649 0cfc 3B3458F6 		.ascii	";4X\366N\236\310\337\360\335\312\3516\244\350a1\307"
 649      4E9EC8DF 
 649      F0DDCAE9 
 649      36A4E861 
 649      31C7
 650 0d0e 59EC715F 		.ascii	"Y\354q_\342\334ZN0Qx\220\261\352\324\256;\021M\037\340"
ARM GAS  /tmp/ccuZSfQH.s 			page 52


 650      E2DC5A4E 
 650      30517890 
 650      B1EAD4AE 
 650      3B114D1F 
 651 0d23 EEA73D43 		.ascii	"\356\247=C\301vK\273Tk\\\325\233\265\256\360[\236\022"
 651      C1764BBB 
 651      546B5CD5 
 651      9BB5AEF0 
 651      5B9E12
 652 0d36 CD3E73A4 		.ascii	"\315>s\244?\335\017%?\245\177\332\373fc/\345\250\312"
 652      3FDD0F25 
 652      3FA57FDA 
 652      FB66632F 
 652      E5A8CA
 653 0d49 D37E6189 		.ascii	"\323~a\211\202\"'M\355e\223v;G\235\363t\315\370\034"
 653      8222274D 
 653      ED659376 
 653      3B479DF3 
 653      74CDF81C 
 654 0d5d 0DEE883B 		.ascii	"\015\356\210;8&v[\274yF\274\343\356\360v\006\234\361"
 654      3826765B 
 654      BC7946BC 
 654      E3EEF076 
 654      069CF1
 655 0d70 961AF14E 		.ascii	"\226\032\361N\271\303[\345|b]]n\304\373\322\035^}\266"
 655      B9C35BE5 
 655      7C625D5D 
 655      6EC4FBD2 
 655      1D5E7DB6 
 656 0d84 0D9EC929 		.ascii	"\015\236\311)\300\253\226m\231\313+\363'\202N\301\257"
 656      C0AB966D 
 656      99CB2BF3 
 656      27824EC1 
 656      AF
 657 0d95 D8899A54 		.ascii	"\330\211\232T\346 pg\261\367\311~\313\271\232\231\215"
 657      E6207067 
 657      B1F7C97E 
 657      CBB99A99 
 657      8D
 658 0da6 BE5C7A3B 		.ascii	"\276\\z;\2759\254\320\314\201\360 p\327tD\373>\323\233"
 658      BD39ACD0 
 658      CC81F020 
 658      70D77444 
 658      FB3ED39B 
 659 0dba C3CAC63F 		.ascii	"\303\312\306?\361J\247\312k\2767\2537=\232\344l\322"
 659      F14AA7CA 
 659      6BBE37AB 
 659      373D9AE4 
 659      6CD2
 660 0dcc D3FD5E5D 		.ascii	"\323\375^]o\206\337\336\365&\364f\264\010\\w\317\031"
 660      6F86DFDE 
 660      F526F466 
 660      B4085C77 
 660      CF19
 661 0dde D13F0237 		.ascii	"\321?\0027\256\2175 %\223?\313\257G8\221\257\365\377"
 661      AE8F3520 
 661      25933FCB 
ARM GAS  /tmp/ccuZSfQH.s 			page 53


 661      AF473891 
 661      AFF5FF
 662 0df1 402B8EF3 		.ascii	"@+\216\363'v\030\350>\304\257\270\215J\225\202\301\217"
 662      277618E8 
 662      3EC4AFB8 
 662      8D4A9582 
 662      C18F
 663 0e03 0E5D18B1 		.ascii	"\016]\030\261hD0\206\002\315\313'\371\357s\206dd\334"
 663      68443086 
 663      02CDCB27 
 663      F9EF7386 
 663      6464DC
 664 0e16 4E7F99AD 		.ascii	"N\177\231\255\305\277\036\242\321\315\221\233C \033"
 664      C5BF1EA2 
 664      D1CD919B 
 664      43201B
 665 0e25 2B342CE7 		.ascii	"+4,\347\322M\036\272\361\252\337R\361\026\331RN\216"
 665      D24D1EBA 
 665      F1AADF52 
 665      F116D952 
 665      4E8E
 666 0e37 D4F45727 		.ascii	"\324\364W'}/\364\233C&\251\213\005\332K\227\357>\326"
 666      7D2FF49B 
 666      4326A98B 
 666      05DA4B97 
 666      EF3ED6
 667 0e4a 3DAB4FBA 		.ascii	"=\253O\272M\32056\301\031\001\362\214\300\321\255cB"
 667      4DD03536 
 667      C11901F2 
 667      8CC0D1AD 
 667      6342
 668 0e5c 53061B3B 		.ascii	"S\006\033;\353\274\261\232\256\343\272\233&\335\001"
 668      EBBCB19A 
 668      AEE3BA9B 
 668      26DD01
 669 0e6b C14C3A06 		.ascii	"\301L:\006I\032l:\247vl\355\277\270B\031\267\014<.\316"
 669      491A6C3A 
 669      A7766CED 
 669      BFB84219 
 669      B70C3C2E 
 670 0e80 C787D80E 		.ascii	"\307\207\330\016?\277\327\024\321N\344\257\237\352\272"
 670      3FBFD714 
 670      D14EE4AF 
 670      9FEABA
 671 0e8f 349F3D81 		.ascii	"4\237=\201[\2011\343\265>\346\241\337\005\224\300M\307"
 671      5B8131E3 
 671      B53EE6A1 
 671      DF0594C0 
 671      4DC7
 672 0ea1 46ABACA3 		.ascii	"F\253\254\243\331\324y\233\264\303K\253\\\015gs;\350"
 672      D9D4799B 
 672      B4C34BAB 
 672      5C0D6773 
 672      3BE8
 673 0eb3 99019BCD 		.ascii	"\231\001\233\315\346N\375A\323]\006\352\333\332\216"
 673      E64EFD41 
 673      D35D06EA 
ARM GAS  /tmp/ccuZSfQH.s 			page 54


 673      DBDA8E
 674 0ec2 30EAD722 		.ascii	"0\352\327\"\365u\016\324;\002\011\334bl\262>\231\366"
 674      F5750ED4 
 674      3B0209DC 
 674      626CB23E 
 674      99F6
 675 0ed4 3DE319ED 		.ascii	"=\343\031\355\353]\321\336\262\337|\336\341c\035\227"
 675      EB5DD1DE 
 675      B2DF7CDE 
 675      E1631D97 
 676 0ee4 75ECE9C1 		.ascii	"u\354\351\301J\205\272g?>\227\245G\0006X\301<\355\""
 676      4A85BA67 
 676      3F3E97A5 
 676      47003658 
 676      C13CED22 
 677 0ef8 2B6A3B05 		.ascii	"+j;\005\353@\312>\367\014\226k\242\354\360\033\346\267"
 677      EB40CA3E 
 677      F70C966B 
 677      A2ECF01B 
 677      E6B7
 678 0f0a 0777B8C1 		.ascii	"\007w\270\301K\361\222\304\271\375\206\227$\332<\203"
 678      4BF192C4 
 678      B9FD8697 
 678      24DA3C83 
 679 0f1a 9989BB62 		.ascii	"\231\211\273b\004;\354\006\314\356U\002\273\217\321"
 679      043BEC06 
 679      CCEE5502 
 679      BB8FD1
 680 0f29 4844FE53 		.ascii	"HD\376S?\331\226\336\340'\333\317\237a\336\210y3\346"
 680      3FD996DE 
 680      E027DBCF 
 680      9F61DE88 
 680      7933E6
 681 0f3c 9B31DF6A 		.ascii	"\2331\337j\210\250@\315i\335KlM1\375h\274\302\331=\354"
 681      88A840CD 
 681      69DD4B6C 
 681      4D31FD68 
 681      BCC2D93D 
 682 0f51 4ECD8173 		.ascii	"N\315\201s\237*\347+\321\206w\242{|\235\336=\254\347"
 682      9F2AE72B 
 682      D18677A2 
 682      7B7C9DDE 
 682      3DACE7
 683 0f64 122BFB92 		.ascii	"\022+\373\222&-I\356\321\321]\311\334\243\305\205{T"
 683      262D49EE 
 683      D1D15DC9 
 683      DCA3C585 
 683      7B54
 684 0f76 A85D3353 		.ascii	"\250]3S\2749k|OO\357\377v\003#m\307\265W\200\333\221"
 684      BC396B7C 
 684      4F4FEFFF 
 684      7603236D 
 684      C7B55780 
 685 0f8c 91397DD3 		.ascii	"\2219}\3232b\006\002?\307&\007\222\0319\2531r\300\025"
 685      32620602 
 685      3FC72607 
 685      921939AB 
ARM GAS  /tmp/ccuZSfQH.s 			page 55


 685      3172C015 
 686 0fa0 23AB676A 		.ascii	"#\253gj\326\337\346'6\366\211\216\233\302\306\034\225"
 686      D6DFE627 
 686      36F6898E 
 686      9BC2C61C 
 686      95
 687 0fb1 5AA17EDC 		.ascii	"Z\241~\334\206\006K\3016y\0063[\377'm\332\321!\272\026"
 687      86064BC1 
 687      36790633 
 687      5BFF276D 
 687      DAD121BA 
 688 0fc6 DEE6062F 		.ascii	"\336\346\006/\305\323\247um\326\243\254\3567zN\372-"
 688      C5D3A775 
 688      6DD6A3AC 
 688      EE377A4E 
 688      FA2D
 689 0fd8 2BD92196 		.ascii	"+\331!\226}\263TK\372\231\035\345\354\260\361\011\024"
 689      7DB3544B 
 689      FA991DE5 
 689      ECB0F109 
 689      14
 690 0fe9 4CAB45E1 		.ascii	"L\253E\341\226\371\006\351\313\211\216/\375\331\016"
 690      96F906E9 
 690      CB898E2F 
 690      FDD90E
 691 0ff8 4A4DFA0D 		.ascii	"JM\372\015\"\206g\201"
 691      22866781 
 692 1000 9914404E 		.ascii	"\231\024@N\3217h\217\365\361\264\325)7\200\356On\034"
 692      D137688F 
 692      F5F1B4D5 
 692      293780EE 
 692      4F6E1C
 693 1013 3084A043 		.ascii	"0\204\240C\030\202:0\324tb~\024\363\343\230\377\325"
 693      18823A30 
 693      D474627E 
 693      14F3E398 
 693      FFD5
 694 1025 187C9C64 		.ascii	"\030|\234d\323\3467<\023;\354\027\230\253\367\314\222"
 694      D3E6373C 
 694      133BEC17 
 694      98ABF7CC 
 694      92
 695 1036 AF272C59 		.ascii	"\257',Y\344\217x\0063\011R\235\262\337h\311\"\177\314"
 695      E48F7806 
 695      3309529D 
 695      B2DF68C9 
 695      227FCC
 696 1049 0D5E0A4B 		.ascii	"\015^\012K^J\307\005\352\026_\351A\315\243\226\355\225"
 696      5E4AC705 
 696      EA165FE9 
 696      41CDA396 
 696      ED95
 697 105b D26250CA 		.ascii	"\322bP\312^TJ+\252\340+\314\277\306\374\234y,\270\326"
 697      5E544A2B 
 697      AAE02BCC 
 697      BFC6FC9C 
 697      792CB8D6 
ARM GAS  /tmp/ccuZSfQH.s 			page 56


 698 106f D7321698 		.ascii	"\3272\026\230\343\256\335\320d\224\217\242\256\375\357"
 698      E3AEDDD0 
 698      64948FA2 
 698      AEFDEF
 699 107e 1AD12EEA 		.ascii	"\032\321.\352=\251\265\235f\374\027\012mg\265s\255\227"
 699      3DA9B59D 
 699      66FC170A 
 699      6D67B573 
 699      AD97
 700 1090 307E96DF 		.ascii	"0~\226\337\232>~\232\221\004\256\006\333\\M\236(\235"
 700      9A3E7E9A 
 700      9104AE06 
 700      DB5C4D9E 
 700      289D
 701 10a2 D0264A57 		.ascii	"\320&JW\323\007\320qc\325\025o.L\214\004cu\027\036\233"
 701      D307D071 
 701      63D5156F 
 701      2E4C8C04 
 701      6375171E 
 702 10b7 6253CCF4 		.ascii	"bS\314\364~`\275NGO\314TQ\327\037\320,\213\036Xy\327"
 702      7E60BD4E 
 702      474FCC54 
 702      51D71FD0 
 702      2C8B1E58 
 703 10cd 339E5913 		.ascii	"3\236Y\023\255\007\320\262(\330r7`)&j\027~g\253VU\237"
 703      AD07D0B2 
 703      28D87237 
 703      6029266A 
 703      177E67AB 
 704 10e4 3C5619D4 		.ascii	"<V\031\324\272w\335\221{\330nQ\200huMz\255Z\200pM\021"
 704      BA77DD91 
 704      7BD86E51 
 704      8068754D 
 704      7AAD5A80 
 705 10fb B01CDAA8 		.ascii	"\260\034\332\250k\302\203\225\344~\372\341pe\223&\315"
 705      6BC28395 
 705      E47EFAE1 
 705      70659326 
 705      CD
 706 110c 000E3848 		.ascii	"\000\0168H\002i\332\263\030\262~\202\273i\202\355[\002"
 706      0269DAB3 
 706      18B27E82 
 706      BB6982ED 
 706      5B02
 707 111e D39BC8F9 		.ascii	"\323\233\310\371\225j\224\305\336\364\2620c\340^\253"
 707      956A94C5 
 707      DEF4B230 
 707      63E05EAB 
 708 112e 55142DF4 		.ascii	"U\024-\364\214\351$W\2428\320h\036|\217#\011\223z,\213"
 708      8CE92457 
 708      A238D068 
 708      1E7C8F23 
 708      09937A2C 
 709 1143 8BE3CDF3 		.ascii	"\213\343\315\363\354\277z\306\3135\341]\243'=qX\272"
 709      ECBF7AC6 
 709      CB35E15D 
 709      A3273D71 
ARM GAS  /tmp/ccuZSfQH.s 			page 57


 709      58BA
 710 1155 E0062B45 		.ascii	"\340\006+E8\235\3324\347\037\310\306\220\366\276\343"
 710      389DDA34 
 710      E71FC8C6 
 710      90F6BEE3 
 711 1165 752B9EDD 		.ascii	"u+\236\335\333g\356#jB\021\"?9@\"jM\200D\321Z\314\247"
 711      DB67EE23 
 711      6A421122 
 711      3F394022 
 711      6A4D8044 
 712 117d 613E23E0 		.ascii	"a>#\340b\200{=`\210\034\225\375\274\032\247Q\200\340"
 712      62807B3D 
 712      60881C95 
 712      FDBC1AA7 
 712      5180E0
 713 1190 E9CFD488 		.ascii	"\351\317\324\210\332N\030\011Y\325\011$E\367+E\363\253"
 713      DA4E1809 
 713      59D50924 
 713      45F72B45 
 713      F3AB
 714 11a2 37025E77 		.ascii	"7\002^w\302\336\014\330\357\204\015\3219\230h\345\300"
 714      C2DE0CD8 
 714      EF840DD1 
 714      399868E5 
 714      C0
 715 11b3 D26F0AC5 		.ascii	"\322o\012\305\331\013\272\322 \350\361(\350\011(\334"
 715      D90BBAD2 
 715      20E8F128 
 715      E80928DC 
 716 11c3 D7309F1D 		.ascii	"\3270\237\0350\015Z3\372Y\202\233%\232xV\363U\303\300"
 716      300D5A33 
 716      FA59829B 
 716      259A7856 
 716      F355C3C0 
 717 11d7 D98503E7 		.ascii	"\331\205\003\3475\034,\2731\217c^n\246aA?\313\300i\031"
 717      351C2CBB 
 717      318F635E 
 717      6EA66141 
 717      3FCBC069 
 718 11ec A758D9F9 		.ascii	"\247X\331\371E\202\316\332y{3\313\025u\326@\355?\361"
 718      4582CEDA 
 718      797B33CB 
 718      1575D640 
 718      ED3FF1
 719 11ff BC638534 		.ascii	"\274c\2054\377\333\035VTSD\355\216\216\034=l\247}\311"
 719      FFDB1D56 
 719      545344ED 
 719      8E8E1C3D 
 719      6CA77DC9 
 720 1213 A47BC1E9 		.ascii	"\244{\301\351G\361q\325[\030\250\226\367\263\015T\251"
 720      47F171D5 
 720      5B18A896 
 720      F7B30D54 
 720      A9
 721 1224 DFBE6CB0 		.ascii	"\337\276l\260\006*<h\327\340*Lu\235`\357t\321#\337\033"
 721      062A3C68 
 721      D7E02A4C 
ARM GAS  /tmp/ccuZSfQH.s 			page 58


 721      759D60EF 
 721      74D123DF 
 722 1239 B1FF06EF 		.ascii	"\261\377\006\357Q\312^\245\015\006\203Z\210\006\365"
 722      51CA5EA5 
 722      0D06835A 
 722      8806F5
 723 1248 8E59819B 		.ascii	"\216Y\201\233\255\322\266\353\257>\341\010Va\223\267"
 723      ADD2B6EB 
 723      AF3EE108 
 723      566193B7 
 724 1258 BCA9FE6C 		.ascii	"\274\251\376l\267\246|\032\304c\011\211O9\326E%\376"
 724      B7A67C1A 
 724      C4630989 
 724      4F39D645 
 724      25FE
 725 126a 1794F836 		.ascii	"\027\224\3706{\211\247\300\301\2035\266\"_\342J\344"
 725      7B89A7C0 
 725      C18335B6 
 725      225FE24A 
 725      E4
 726 127b 173591D3 		.ascii	"\0275\221\323S\356\007\221\200%=\036\030.\341\231@\212"
 726      53EE0791 
 726      80253D1E 
 726      182EE199 
 726      408A
 727 128d 75D43356 		.ascii	"u\3243V\256Q\232\352\225@\325\330\014\355\315\2143V"
 727      AE519AEA 
 727      9540D5D8 
 727      0CEDCD8C 
 727      3356
 728 129f 30DBE3DD 		.ascii	"0\333\343\335)\034\341\232\021\355\212+\264\\\327\246"
 728      291CE19A 
 728      11ED8A2B 
 728      B45CD7A6 
 729 12af B5C4605A 		.ascii	"\265\304`Z\357\243i-\305(\265\034\363\0171\377\310l"
 729      EFA3692D 
 729      C528B51C 
 729      F30F31FF 
 729      C86C
 730 12c1 6CE5B759 		.ascii	"l\345\267Y\214\315\254WV\374s\012k\233\332q\342Q\264"
 730      8CCDAC57 
 730      56FC730A 
 730      6B9BDA71 
 730      E251B4
 731 12d4 36C7C78F 		.ascii	"6\307\307\217}4\230oxF\350\307\236#\377\032\207\310"
 731      7D34986F 
 731      7846E8C7 
 731      9E23FF1A 
 731      87C8
 732 12e6 7F8FCEC9 		.ascii	"\177\217\316\311\244$N\314\375\262r\247\035+\366\342"
 732      A4244ECC 
 732      FDB272A7 
 732      1D2BF6E2 
 733 12f6 5C6508BE 		.ascii	"\\e\010\276\037c\360]\203\001w\007\346\0271\257C\241"
 733      1F63F05D 
 733      83017707 
 733      E61731AF 
ARM GAS  /tmp/ccuZSfQH.s 			page 59


 733      43A1
 734 1308 CEC7FC5D 		.ascii	"\316\307\374]\314W\233\005<\3676\3533\025\363\3360\236"
 734      CC579B05 
 734      3CF736EB 
 734      3315F3DE 
 734      309E
 735 131a CE0AE8CF 		.ascii	"\316\012\350\317T\310~\365\316\235\235\355+\273~_^\243"
 735      54C87EF5 
 735      CE9D9DED 
 735      2BBB7E5F 
 735      5EA3
 736 132c 8EABA74F 		.ascii	"\216\253\247O\214\215O\227\014\313\200\2275\244\034"
 736      8C8D4F97 
 736      0CCB8097 
 736      35A41C
 737 133b 6C6BAC55 		.ascii	"lk\254U\351XK\344U\317\322\377\324A\372\346\2032Z-\262"
 737      E9584BE4 
 737      55CFD2FF 
 737      D441FAE6 
 737      83325A2D 
 738 1350 0441AE17 		.ascii	"\004A\256\027'\216KZ\210\020\270E\267Qc\270\207[y\333"
 738      278E4B5A 
 738      8810B845 
 738      B75163B8 
 738      875B79DB 
 739 1364 5C127AD6 		.ascii	"\\\022z\326#U\204\377\245j\347\276\361g[\370i\212\322"
 739      235584FF 
 739      A56AE7BE 
 739      F1675BF8 
 739      698AD2
 740 1377 4C0EE5C6 		.ascii	"L\016\345\306\371{\031k\344?\330\351\023_51\361\005"
 740      F97B196B 
 740      E43FD8E9 
 740      135F3531 
 740      F105
 741 1389 43E4536C 		.ascii	"C\344Sl\321}\006}\245\235\336\212\374\347\001\262\202"
 741      D17D067D 
 741      A59DDE8A 
 741      FCE701B2 
 741      82
 742 139a DE1C487A 		.ascii	"\336\034Hz\344\274O\333\244\337\354n\374\350n\246\301"
 742      E4BC4FDB 
 742      A4DFEC6E 
 742      FCE86EA6 
 742      C1
 743 13ab AC02DF76 		.ascii	"\254\002\337v\333\206\262\330\334\343`\366\355\351f"
 743      DB86B2D8 
 743      DCE360F6 
 743      EDE966
 744 13ba 9B73DFE4 		.ascii	"\233s\337\344\200\233\223\272v\030\347t\273=w\237k\352"
 744      809B93BA 
 744      7618E774 
 744      BB3D779F 
 744      6BEA
 745 13cc 9E9EAF26 		.ascii	"\236\236\257&\220\002\327\356\006+\305\244\370\206\001"
 745      9002D7EE 
 745      062BC5A4 
ARM GAS  /tmp/ccuZSfQH.s 			page 60


 745      F88601
 746 13db EB8867AC 		.ascii	"\353\210g\254\\\213\2705=\210\374V\364\274\355\230\357"
 746      5C8BB835 
 746      3D88FC56 
 746      F4BCED98 
 746      EF
 747 13ec C2BC25FD 		.ascii	"\302\274%\375\334\327\372v\277\003%\004\177o \333\322"
 747      DCD7FA76 
 747      BF032504 
 747      7F6F20DB 
 747      D2
 748 13fd 37ABF984 		.ascii	"7\253\371\204\231P\203\231\322F\366\325D\276\325\263"
 748      99508399 
 748      D246F6D5 
 748      44BED5B3 
 749 140d 0BB639B8 		.ascii	"\013\2669\270\240\361\214a\242\026\331L\267\006\236"
 749      A0F18C61 
 749      A216D94C 
 749      B7069E
 750 141c 2422DA03 		.ascii	"$\"\332\003\306\303%0V7\002U\272\336\310\203\270Y\344"
 750      C6C32530 
 750      56370255 
 750      BADEC883 
 750      B859E4
 751 142f F1ED570F 		.ascii	"\361\355W\017S^\210k\236\333\251vO\232\313+\365\025"
 751      535E886B 
 751      9EDBA976 
 751      4F9ACB2B 
 751      F515
 752 1441 8A72031C 		.ascii	"\212r\003\034\223\212M\340.[;K^:\0364\365\366\004mI"
 752      938A4DE0 
 752      2E5B3B4B 
 752      5E3A1E34 
 752      F5F6046D 
 753 1456 5547BB52 		.ascii	"UG\273R\343\333y\333\363,\226x\246\350\247dr\031t\247"
 753      E3DB79DB 
 753      F32C9678 
 753      A6E8A764 
 753      721974A7 
 754 146a 67691E71 		.ascii	"gi\036q\220\246vN\331\251\335\341\204!\334\303\305!"
 754      90A6764E 
 754      D9A9DDE1 
 754      8421DCC3 
 754      C521
 755 147c 70CD7A22 		.ascii	"p\315z\"\321=\265@\302L\225\242\326\364\241\206\256"
 755      D13DB540 
 755      C24C95A2 
 755      D6F4A186 
 755      AE
 756 148d FFEB596A 		.ascii	"\377\353Yj\231\004\217\272'\265QV{\232^\333xV\232QA"
 756      99048FBA 
 756      27B55156 
 756      7B9A5EDB 
 756      78569A51 
 757 14a2 45A9D9A0 		.ascii	"E\251\331\240nc\026\261\364\325h\325\316\370\234\320"
 757      6E6316B1 
 757      F4D568D5 
ARM GAS  /tmp/ccuZSfQH.s 			page 61


 757      CEF89CD0 
 758 14b2 C9D2ADC2 		.ascii	"\311\322\255\302A\242\217iM3Y\203\223\236\005z\312A"
 758      41A28F69 
 758      4D335983 
 758      939E057A 
 758      CA41
 759 14c4 A0198C15 		.ascii	"\240\031\214\025v\214|\312\261\335\023\371)\357\217"
 759      768C7CCA 
 759      B1DD13F9 
 759      29EF8F
 760 14d3 57C871AA 		.ascii	"W\310q\252W\353\324\032\277\373\355\362\323\001\313"
 760      57EBD41A 
 760      BFFBEDF2 
 760      D301CB
 761 14e2 76792B9F 		.ascii	"vy+\237t.\262\375v\343\314\025k\012\334\311\333\231"
 761      742EB2FD 
 761      76E3CC15 
 761      6B0ADCC9 
 761      DB99
 762 14f4 93B09701 		.ascii	"\223\260\227\001v\3012\237\327\376}\345%l\361E\300\351"
 762      76C1329F 
 762      D7FE7DE5 
 762      256CF145 
 762      C0E9
 763 1506 75007634 		.ascii	"u\000v4\216\035k\277X\376|\177\375X;id\362\2763\001"
 763      8E1D6BBF 
 763      58FE7C7F 
 763      FD583B69 
 763      64F2BE33 
 764 151b D3E92F4B 		.ascii	"\323\351/K\200!\307\324\235x;\237\260\253\\\256\216"
 764      8021C7D4 
 764      9D783B9F 
 764      B0AB5CAE 
 764      8E
 765 152c 8C3ACB5E 		.ascii	"\214:\313^?\324O\031\227\2258\247o\374\007\306\326w"
 765      3FD44F19 
 765      979538A7 
 765      6FFC07C6 
 765      D677
 766 153e 80528C05 		.ascii	"\200R\214\005\027\223\220/-\331\367\240\021\271\332"
 766      1793902F 
 766      2DD9F7A0 
 766      11B9DA
 767 154d 783A9FD6 		.ascii	"x:\237\326Q\017V+\202\240\327h\3609\367\275\302a\235"
 767      510F562B 
 767      82A0D768 
 767      F039F7BD 
 767      C2619D
 768 1560 82C7E912 		.ascii	"\202\307\351\022}[Z\255O!\213\253\316\255\022\361)\251"
 768      7D5B5AAD 
 768      4F218BAB 
 768      CEAD12F1 
 768      29A9
 769 1572 D5378EAD 		.ascii	"\3257\216\255&\246\350\253\313\261US\212V\327\034[]"
 769      26A6E8AB 
 769      CBB15553 
 769      8A56D71C 
ARM GAS  /tmp/ccuZSfQH.s 			page 62


 769      5B5D
 770 1584 48D1EA5B 		.ascii	"H\321\352[\307VGS\264\272\356\330\352t\212V\335\216"
 770      C7564753 
 770      B4BAEED8 
 770      EA748A56 
 770      DD8E
 771 1596 ADF6A568 		.ascii	"\255\366\245hu\303\261UK\212Vq\207V\016\301f\24094\210"
 771      75C3B155 
 771      4B8A5671 
 771      87560EC1 
 771      66A03934 
 772 15ab 7C7986D7 		.ascii	"|y\206\327`S\221a\037l\002\214\014\247vJ\206\023\177"
 772      60539161 
 772      1F6C028C 
 772      0CA7764A 
 772      86137F
 773 15be 8752F037 		.ascii	"\207R\3607\326\261\325\216\024\255\306eX\375\256}|\207"
 773      D6B1D58E 
 773      14ADC665 
 773      58FDAE7D 
 773      7C87
 774 15d0 CFE877E6 		.ascii	"\317\350w\346\267b\006\027\025\346\015\030ZP\230W\370"
 774      B7620617 
 774      15E60D18 
 774      5A509857 
 774      F8
 775 15e1 9B174283 		.ascii	"\233\027B\203~\376\320\240\207\006\017\030P\022\033"
 775      7EFED0A0 
 775      87060F18 
 775      50121B
 776 15f0 10950794 		.ascii	"\020\225\007\224\226D\345\330\200'\177\373\334\320\347"
 776      9644E5D8 
 776      80277FFB 
 776      DCD0E7
 777 15ff 460F0817 		.ascii	"F\017\010\027\204K\242Rh\344\243\221\207\012\270 \371"
 777      844BA252 
 777      68E4A391 
 777      870AB820 
 777      F9
 778 1610 29545412 		.ascii	")TT\022~%\343\231\377|)w(\227\2157\312\212\311\255\177"
 778      7E25E399 
 778      FF7C2977 
 778      28978D37 
 778      CA8AC9AD 
 779 1625 B64394A5 		.ascii	"\266C\224\245\230L0\3115\222W2\372\2410\227M\256\203"
 779      984C30C9 
 779      35925732 
 779      FAA13097 
 779      4DAE83
 780 1638 4231492E 		.ascii	"B1I.+\275\337\231\212\302\342pQY\276\004\004\304$\322"
 780      2BBDDF99 
 780      8AC2E270 
 780      5159BE04 
 780      04C424D2 
 781 164c F710B704 		.ascii	"\367\020\267\004\227DJ\013\213\244hl\3003C\207BkyL\251"
 781      97444A0B 
 781      8BA4686C 
ARM GAS  /tmp/ccuZSfQH.s 			page 63


 781      C0334387 
 781      426B794C 
 782 1661 1483F681 		.ascii	"\024\203\366\201p\261\034\222\357\036P\026\213\352\330"
 782      70B11C92 
 782      EF1E5016 
 782      8BEAD8
 783 1670 C5D22882 		.ascii	"\305\322(\202\032\223\363\013\213e\250\223\011\227\207"
 783      1A93F30B 
 783      8B65A893 
 783      099787
 784 167f 7F16927F 		.ascii	"\177\026\222\177jW+\"\206\013\012\213\245\001\241|i"
 784      6A572B22 
 784      860B0A8B 
 784      A501A17C 
 784      69
 785 1690 B8585604 		.ascii	"\270XV\004`\0149\030\012\261v\331@\252XZ@\004&\347\204"
 785      600C3918 
 785      0AB176D9 
 785      40AA585A 
 785      400426E7 
 786 16a5 0B42FAD7 		.ascii	"\013B\372\327\001\256\370\034\023\323 \373\310\005Q"
 786      01AEF81C 
 786      13D320FB 
 786      C80551
 787 16b4 49CC8F85 		.ascii	"I\314\217\205\376X&\225\001X_\0003\335z\300\025`\270"
 787      FE582695 
 787      01585F00 
 787      33DD7AC0 
 787      1560B8
 788 16c7 201FC0B2 		.ascii	" \037\300\262h\313\220\034\324Q2JC\305\322h\031.\245"
 788      68CB901C 
 788      D451324A 
 788      43C5D268 
 788      192EA5
 789 16da 516964A6 		.ascii	"Qid\246\\\032-,\011\311Ye\214\217^\241\220V\304*\205"
 789      5C1A2D2C 
 789      09C95965 
 789      8C8F5EA1 
 789      9056C42A 
 790 16ef 2599E192 		.ascii	"%\231\341\222b\031Z\014\364d6\3209\265\020\000\013\313"
 790      62195A0C 
 790      F46436D0 
 790      39B51000 
 790      0BCB
 791 1701 A3B3A2D2 		.ascii	"\243\263\242\322\0101\032\011\311Bt\260\020}D\210\376"
 791      08311A09 
 791      C94274B0 
 791      107D4488 
 791      FE
 792 1712 5C883E2A 		.ascii	"\\\210>*D\037\023\242\217\373\242\203\006B\032$\024"
 792      441F13A2 
 792      8FFBA283 
 792      06421A24 
 792      14
 793 1723 45E1F270 		.ascii	"E\341\362p\2404\004\3653\011\225\243\244(\\K\212\362"
 793      A03404F5 
 793      330995A3 
ARM GAS  /tmp/ccuZSfQH.s 			page 64


 793      A4285C4B 
 793      8AF2
 794 1735 A5A83F5C 		.ascii	"\245\250?\\ F\011\351bD\352\025\223_\021\213\012G\024"
 794      204609E9 
 794      6244EA15 
 794      935F118B 
 794      0A4714
 795 1748 33B27F3E 		.ascii	"3\262\177>X'\033\213\245!\250PT\030)\224\263\344\230"
 795      58271B8B 
 795      A521A850 
 795      54182994 
 795      B3E498
 796 175b 2CCA20C4 		.ascii	",\312 \304L\362\343c \006Z\015J\231\244\026\374\226"
 796      4CF2E363 
 796      20065A0D 
 796      4A99A416 
 796      FC96
 797 176d 29474AF2 		.ascii	")GJ\362%\374>\274H\034\021\313\224\243\322\360\0302"
 797      25FC3EBC 
 797      481C11CB 
 797      94A3D2F0 
 797      1832
 798 177f 4F0A8148 		.ascii	"O\012\201Hl\004|\211\346\217\201B\2264\272P\016C\365"
 798      6C047C89 
 798      E68F8142 
 798      9634BA50 
 798      0E43F5
 799 1792 8C517249 		.ascii	"\214QrI\336\037J\3731\351BE)*\025\207\001&0J\226\243"
 799      DE1F4AFB 
 799      31E94245 
 799      292A1587 
 799      0126304A 
 800 17a8 A5F03BE8 		.ascii	"\245\360;\350\2774\013\204\036)\003\331\271\262\365"
 800      BF340B84 
 800      1E2903D9 
 800      B9B2F5
 801 17b7 883C9AD8 		.ascii	"\210<\232\330a\204j\031\256%\243\212A\000\010\000$D"
 801      61846A19 
 801      AE25A38A 
 801      41000800 
 801      2444
 802 17c9 A8DA46C9 		.ascii	"\250\332F\311P\2574"
 802      50AF34
 803 17d0 5B1A2915 		.ascii	"[\032)\025\313\0211\366\012\374\"\215\"\005_i\250\254"
 803      CB1131F6 
 803      0AFC228D 
 803      22055F69 
 803      A8AC
 804 17e2 B7662845 		.ascii	"\267f(E\20510\322>\006\323!w\202\245\241Qb\241\\X<\002"
 804      853130D2 
 804      3E06D321 
 804      7782A5A1 
 804      5162A15C 
 805 17f9 6404FC60 		.ascii	"d\004\374`G\001,\302\015\251T*\006g\030\001\265\240"
 805      47012CC2 
 805      0DA9542A 
 805      06671801 
ARM GAS  /tmp/ccuZSfQH.s 			page 65


 805      B5A0
 806 180b 0B52BF17 		.ascii	"\013R\277\027\221\201X\204F\0007KKJ\212~\342\206\023"
 806      91815884 
 806      4600374B 
 806      4B4A8A7E 
 806      E28613
 807 181e 99386D3F 		.ascii	"\2318m?\2710\"\205\"\222\030+\213J\021\211x`fTFO\364"
 807      B9302285 
 807      2292182B 
 807      8B4A1189 
 807      78606654 
 808 1835 E7414808 		.ascii	"\347AH\010\214*\211\306d\177\221\030\2233\312\3606_"
 808      8C2A89C6 
 808      647F9118 
 808      9333CAF0 
 808      365F
 809 1847 9C1595B1 		.ascii	"\234\025\225\261\225\334+\\\026)+\022\345\302\221\022"
 809      95DC2B5C 
 809      16292B12 
 809      E5C29112 
 810 1857 53542C93 		.ascii	"ST,\223\231\177 \026\202\332\340\025/H\221g$yhI\031"
 810      997F2016 
 810      82DAE015 
 810      2F489167 
 810      24796849 
 811 186c 58677498 		.ascii	"Xgt\230\020+\375\251+)C\004\242\256\033\021\013\213"
 811      102BFDA9 
 811      2B294304 
 811      A2AE1B11 
 811      0B8B
 812 187e E00B1845 		.ascii	"\340\013\030E$/\224W6\034t\230\001%\271\2444\013.\243"
 812      242F9457 
 812      361C7498 
 812      0125B9A4 
 812      340B2EA3 
 813 1892 A2A57294 		.ascii	"\242\245r\224\024\242\371P\350\005\205\341eEE\240U\210"
 813      14A2F950 
 813      E80585E1 
 813      654545A0 
 813      5588
 814 18a4 6121D0AD 		.ascii	"a!\320\255<\006\312\267\206\013\236{\012\210x:*IH\310"
 814      3C06CAB7 
 814      860B9E7B 
 814      0A88783A 
 814      2A4948C8 
 815 18b8 305F24AF 		.ascii	"0_$\257T\273\373RL\312\247w\335\305\2721H\02606&\366"
 815      54BBFB52 
 815      4CCAA777 
 815      DDC5BA31 
 815      48163036 
 816 18ce 6B08AAD9 		.ascii	"k\010\252\331Xz\011\003\354-4pJ\243\2450\230Co\322\301"
 816      587A0903 
 816      EC2D3470 
 816      4AA3A530 
 816      98436FD2 
 817 18e3 6FF2FE20 		.ascii	"o\362\376 \205\345a\305\205\362\203n\320\363\245\274"
 817      85E561C5 
ARM GAS  /tmp/ccuZSfQH.s 			page 66


 817      85F2836E 
 817      D0F3A5BC 
 818 18f3 B211800F 		.ascii	"\262\021\200\017\202\373U\336\210\241\005R\370\225\241"
 818      82FB55DE 
 818      88A10552 
 818      F895A1
 819 1902 20FBD8B0 		.ascii	" \373\330\260>\241\374\274\021\2410\271\201\341\335"
 819      3EA1FCBC 
 819      11A130B9 
 819      81E1DD
 820 1911 151A6A04 		.ascii	"\025\032j\004\320\356\246\272!9\270:Sv(\034-\004u\026"
 820      D0EEA6BA 
 820      2139B83A 
 820      5376281C 
 820      2D047516 
 821 1925 E4535E9E 		.ascii	"\344S^\236\025\213\344\273\364z%\245I\325n5P@\307\223"
 821      158BE4BB 
 821      F47A25A5 
 821      49D56E35 
 821      5040C793 
 822 1939 7F4A379E 		.ascii	"\177J7\236\220\240\036z\012\3541'D\276\206\200\021)"
 822      90A01E7A 
 822      0AEC3127 
 822      44BE8680 
 822      1129
 823 194b 4A82DC73 		.ascii	"J\202\334sO\375V\202\341\345{\306\333\020\213\301r\300"
 823      4FFD5682 
 823      E1E57BC6 
 823      DB108BC1 
 823      72C0
 824 195d 3DFBE04D 		.ascii	"=\373\340M)B\272-yE*\356E\352?-\311\341\202a(\322\347"
 824      2942BA2D 
 824      79452AEE 
 824      45EA3F2D 
 824      C9E18261 
 825 1974 4B62F293 		.ascii	"Kb\362\223\005\340.\303\202\332\327aA\022\232\321&\203"
 825      05E02EC3 
 825      82DAD761 
 825      41129AD1 
 825      2683
 826 1986 7AED2CED 		.ascii	"z\355,\355\327[L\255@\367\203\204\027\007\012/B\376"
 826      D75B4CAD 
 826      40F78384 
 826      17070A2F 
 826      42FE
 827 1998 33E1C587 		.ascii	"3\341\305\207\205\027\007\347`\217\324\270b\302(1\203"
 827      851707E7 
 827      608FD4B8 
 827      62C22831 
 827      83
 828 19a9 16FDE476 		.ascii	"\026\375\344v6\031%\000\\\212\320\360L\3139\304]\307"
 828      36192500 
 828      5C8AD0F0 
 828      4CCB39C4 
 828      5DC7
 829 19bb 300706FC 		.ascii	"0\007\006\374P\342{f\224z@F\024\343r \212\2012\312\002"
 829      50E27B66 
ARM GAS  /tmp/ccuZSfQH.s 			page 67


 829      947A4046 
 829      14E37220 
 829      8A8132CA 
 830 19d0 659406CA 		.ascii	"e\224\006\312 \334-\213B4\222\003Q\322\350{#\013\243"
 830      20DC2D8B 
 830      42349203 
 830      51D2E87B 
 830      230BA3
 831 19e3 72995814 		.ascii	"r\231X\024\"LD\265\310p\007\000\333\374\320\307t\217"
 831      224C44B5 
 831      C8700700 
 831      DBFCD0C7 
 831      748F
 832 19f5 8E3DA65B 		.ascii	"\216=\246[\231#e\014C\344J\206\217,\270\346KE\262\010"
 832      9923650C 
 832      43E44A86 
 832      8F2CB8E6 
 832      4B45B208 
 833 1a09 85E165C5 		.ascii	"\205\341e\305\341\020\376BJ\031\244\206\030\315\206"
 833      E110FE42 
 833      4A19A486 
 833      18CD86
 834 1a18 0B7171D2 		.ascii	"\013qq\322\032n\221Nz3\246\321\"i\2202\336\011\226\212"
 834      1A6E914E 
 834      7A33A6D1 
 834      22699032 
 834      DE09968A 
 835 1a2c C5856112 		.ascii	"\305\205a\022\2232\013cQ\342\353Y\304$H\341V\022\317"
 835      93320B63 
 835      51E2EB59 
 835      C42448E1 
 835      5612CF
 836 1a3f A222C459 		.ascii	"\242\"\304Y*F\350M\316\013\305\012\377\207xD(6*\034"
 836      2A46E84D 
 836      CE0BC50A 
 836      FF877844 
 836      28362A1C 
 837 1a53 C2B008B7 		.ascii	"\302\260\010\267c\022\322\033 \327\322 \3444`gA\011"
 837      6312D21B 
 837      20D7D220 
 837      E4346067 
 837      4109
 838 1a65 A37E06B4 		.ascii	"\243~\006\264\003\267\016\312\232\347\347\030q}`\217"
 838      03B70ECA 
 838      9AE7E718 
 838      717D608F 
 839 1a75 BD203C14 		.ascii	"\275 <\024\323\340\331W\216\204\3020\340\344E! \225"
 839      D3E0D957 
 839      8E84C230 
 839      E0E44521 
 839      2095
 840 1a87 C0A89351 		.ascii	"\300\250\223Q2|8\030\231 Gz\277\"E\213\245\"f\335r\240"
 840      327C3818 
 840      9920477A 
 840      BF22458B 
 840      A52266DD 
 841 1a9d 385418FD 		.ascii	"8T\030\375cV1Q\014\220\323+\242\333\270V\004\226r\214"
ARM GAS  /tmp/ccuZSfQH.s 			page 68


 841      63563151 
 841      0C90D32B 
 841      A2DBB856 
 841      0496728C 
 842 1ab1 6D7A17E6 		.ascii	"mz\027\346\027I,HCp\026\300\270B(\277P\350\026\255\360"
 842      17492C48 
 842      437016C0 
 842      B84228BF 
 842      50E816AD 
 843 1ac6 D0238F0F 		.ascii	"\320#\217\017z$\307\020\015`X\007\373\011\2131\311O"
 843      7A24C710 
 843      0D605807 
 843      FB098B31 
 843      C94F
 844 1ad8 C6C300CE 		.ascii	"\306\303\000\316\247\340\236\030\315\2071#\223E\211"
 844      A7E09E18 
 844      CD873123 
 844      934589
 845 1ae7 EC525186 		.ascii	"\354RQ\206\310XLBGP\233\204\015\312}\216\206=)\366`"
 845      C8584C42 
 845      47509B84 
 845      0DCA7D8E 
 845      863D29F6 
 846 1afc 2EB12608 		.ascii	".\261&\010\370\271bq~.\021WI\231\034\343\036u\360\177"
 846      F8B96271 
 846      7E2E1157 
 846      49991CE3 
 846      1E75F07F 
 847 1b10 D0FA80A1 		.ascii	"\320\372\200\241\317\2750\354\205D\030 \223\235p\344"
 847      CFBD30EC 
 847      85441820 
 847      939D70E4 
 848 1b20 692012FC 		.ascii	"i \022\374\021\310\005:BO=\371\302\277?\377\333a\267"
 848      11C8053A 
 848      424F3DF9 
 848      C2BF3FFF 
 848      DB61B7
 849 1b33 8845A3C4 		.ascii	"\210E\243\30411\030\375\213`\342\024\030)\026\225I\377"
 849      313118FD 
 849      8B60E214 
 849      18291695 
 849      49FF
 850 1b45 0FF0467E 		.ascii	"\017\360F~\261"
 850      B1
 851              		.text
 852              		.section	.gnu.lto_.symtab.5c91fc6299eb1437,"",%progbits
 853 0000 70617474 		.ascii	"patternmbox\000\000\000\000\000\000\000\000\000\000"
 853      65726E6D 
 853      626F7800 
 853      00000000 
 853      00000000 
 854 0015 0000C502 		.ascii	"\000\000\305\002\000\000testmbox1\000\000\000\000\000"
 854      00007465 
 854      73746D62 
 854      6F783100 
 854      00000000 
 855 0029 00000000 		.ascii	"\000\000\000\000\000\000\000\333\002\000\000test\000"
ARM GAS  /tmp/ccuZSfQH.s 			page 69


 855      000000DB 
 855      02000074 
 855      65737400 
 856 0039 00020000 		.ascii	"\000\002\000\000\000\000\000\000\000\000\000\016\002"
 856      00000000 
 856      0000000E 
 856      02
 857 0046 00006368 		.ascii	"\000\000ch\000\000\002\000\000\000\000\000\000\000\000"
 857      00000200 
 857      00000000 
 857      000000
 858 0055 00340200 		.ascii	"\0004\002\000\000chMBObjectInit\000\000\002\000\000"
 858      0063684D 
 858      424F626A 
 858      65637449 
 858      6E697400 
 859 006d 00000000 		.ascii	"\000\000\000\000\000\000\000\262\001\000\000chDbgCh"
 859      000000B2 
 859      01000063 
 859      68446267 
 859      4368
 860 007f 65636B43 		.ascii	"eckClassI\000\000\002\000\000\000\000\000\000\000\000"
 860      6C617373 
 860      49000002 
 860      00000000 
 860      00000000 
 861 0093 00B80100 		.ascii	"\000\270\001\000\000_dbg_check_lock\000\000\002\000"
 861      005F6462 
 861      675F6368 
 861      65636B5F 
 861      6C6F636B 
 862 00ab 00000000 		.ascii	"\000\000\000\000\000\000\000\000\272\001\000\000_st"
 862      00000000 
 862      BA010000 
 862      5F7374
 863 00ba 6174735F 		.ascii	"ats_start_measure_crit_thd\000\000\002\000\000\000\000"
 863      73746172 
 863      745F6D65 
 863      61737572 
 863      655F6372 
 864 00db 00000000 		.ascii	"\000\000\000\000\000\274\001\000\000chSysHalt\000\000"
 864      00BC0100 
 864      00636853 
 864      79734861 
 864      6C740000 
 865 00ef 02000000 		.ascii	"\002\000\000\000\000\000\000\000\000\000\276\001\000"
 865      00000000 
 865      0000BE01 
 865      00
 866 00fc 005F7374 		.ascii	"\000_stats_stop_measure_crit_thd\000\000\002\000\000"
 866      6174735F 
 866      73746F70 
 866      5F6D6561 
 866      73757265 
 867 011e 00000000 		.ascii	"\000\000\000\000\000\000\000\302\001\000\000_dbg_ch"
 867      000000C2 
 867      0100005F 
ARM GAS  /tmp/ccuZSfQH.s 			page 70


 867      6462675F 
 867      6368
 868 0130 65636B5F 		.ascii	"eck_unlock\000\000\002\000\000\000\000\000\000\000\000"
 868      756E6C6F 
 868      636B0000 
 868      02000000 
 868      00000000 
 869 0145 00C40100 		.ascii	"\000\304\001\000\000_test_assert\000\000\002\000\000"
 869      005F7465 
 869      73745F61 
 869      73736572 
 869      74000002 
 870 015b 00000000 		.ascii	"\000\000\000\000\000\000\000\306\001\000\000chMBRes"
 870      000000C6 
 870      01000063 
 870      684D4252 
 870      6573
 871 016d 65740000 		.ascii	"et\000\000\002\000\000\000\000\000\000\000\000\000\316"
 871      02000000 
 871      00000000 
 871      0000CE
 872 017c 0100005F 		.ascii	"\001\000\000_test_assert_sequence\000\000\002\000\000"
 872      74657374 
 872      5F617373 
 872      6572745F 
 872      73657175 
 873 0199 00000000 		.ascii	"\000\000\000\000\000\000\000\322\001\000\000test_em"
 873      000000D2 
 873      01000074 
 873      6573745F 
 873      656D
 874 01ab 69745F74 		.ascii	"it_token\000\000\002\000\000\000\000\000\000\000\000"
 874      6F6B656E 
 874      00000200 
 874      00000000 
 874      000000
 875 01be 00D80100 		.ascii	"\000\330\001\000\000chMBFetchI\000\000\002\000\000\000"
 875      0063684D 
 875      42466574 
 875      63684900 
 875      00020000 
 876 01d3 00000000 		.ascii	"\000\000\000\000\000\000\334\001\000\000chMBPostAhe"
 876      0000DC01 
 876      00006368 
 876      4D42506F 
 876      73744168 
 877 01e8 61644900 		.ascii	"adI\000\000\002\000\000\000\000\000\000\000\000\000"
 877      00020000 
 877      00000000 
 877      000000
 878 01f7 E1010000 		.ascii	"\341\001\000\000chMBPostI\000\000\002\000\000\000\000"
 878      63684D42 
 878      506F7374 
 878      49000002 
 878      00000000 
 879 020b 00000000 		.ascii	"\000\000\000\000\000\346\001\000\000chMBFetch\000\000"
 879      00E60100 
ARM GAS  /tmp/ccuZSfQH.s 			page 71


 879      0063684D 
 879      42466574 
 879      63680000 
 880 021f 02000000 		.ascii	"\002\000\000\000\000\000\000\000\000\000\350\001\000"
 880      00000000 
 880      0000E801 
 880      00
 881 022c 0063684D 		.ascii	"\000chMBPost\000\000\002\000\000\000\000\000\000\000"
 881      42506F73 
 881      74000002 
 881      00000000 
 881      000000
 882 023f 0000F101 		.ascii	"\000\000\361\001\000\000chMBPostAhead\000\000\002\000"
 882      00006368 
 882      4D42506F 
 882      73744168 
 882      65616400 
 883 0256 00000000 		.ascii	"\000\000\000\000\000\000\000\000\367\001\000\000"
 883      00000000 
 883      F7010000 
 884              		.text
 885              		.section	.gnu.lto_.opts,"",%progbits
 886 0000 272D6D63 		.ascii	"'-mcpu=cortex-m4' '-mno-thumb-interwork' '-mthumb' "
 886      70753D63 
 886      6F727465 
 886      782D6D34 
 886      2720272D 
 887 0033 272D6767 		.ascii	"'-ggdb' '-O0' '-fomit-frame-pointer' '-falign-funct"
 887      64622720 
 887      272D4F30 
 887      2720272D 
 887      666F6D69 
 888 0066 696F6E73 		.ascii	"ions=16' '-ffunction-sections' '-fdata-sections' '-"
 888      3D313627 
 888      20272D66 
 888      66756E63 
 888      74696F6E 
 889 0099 666E6F2D 		.ascii	"fno-common' '-flto'\000"
 889      636F6D6D 
 889      6F6E2720 
 889      272D666C 
 889      746F2700 
 890              		.text
 891              		.cfi_sections	.debug_frame
 892              		.section	.text.port_lock,"ax",%progbits
 893              		.align	2
 894              		.p2align 4,,15
 895              		.thumb
 896              		.thumb_func
 897              		.type	port_lock, %function
 898              	port_lock:
 899              	.LFB127:
 900              		.file 1 "lib/ChibiOS_16.1.4//os/rt/ports/ARMCMx/chcore_v7m.h"
 901              		.loc 1 456 0
 902              		.cfi_startproc
 903              		@ args = 0, pretend = 0, frame = 8
 904              		@ frame_needed = 0, uses_anonymous_args = 0
ARM GAS  /tmp/ccuZSfQH.s 			page 72


 905              		@ link register save eliminated.
 906 0000 82B0     		sub	sp, sp, #8
 907              		.cfi_def_cfa_offset 8
 908 0002 2023     		movs	r3, #32
 909 0004 0193     		str	r3, [sp, #4]
 910              	.LBB6:
 911              	.LBB7:
 912              		.file 2 "lib/ChibiOS_16.1.4//os/ext/CMSIS/include/core_cmFunc.h"
 913              		.loc 2 548 0
 914 0006 019B     		ldr	r3, [sp, #4]
 915              	@ 548 "lib/ChibiOS_16.1.4//os/ext/CMSIS/include/core_cmFunc.h" 1
 916 0008 83F31188 		MSR basepri, r3
 917              	@ 0 "" 2
 918              		.thumb
 919              	.LBE7:
 920              	.LBE6:
 921              		.loc 1 473 0
 922 000c 02B0     		add	sp, sp, #8
 923              		@ sp needed
 924 000e 7047     		bx	lr
 925              		.cfi_endproc
 926              	.LFE127:
 927              		.size	port_lock, .-port_lock
 928              		.section	.text.port_unlock,"ax",%progbits
 929              		.align	2
 930              		.p2align 4,,15
 931              		.thumb
 932              		.thumb_func
 933              		.type	port_unlock, %function
 934              	port_unlock:
 935              	.LFB128:
 936              		.loc 1 480 0
 937              		.cfi_startproc
 938              		@ args = 0, pretend = 0, frame = 8
 939              		@ frame_needed = 0, uses_anonymous_args = 0
 940              		@ link register save eliminated.
 941 0000 82B0     		sub	sp, sp, #8
 942              		.cfi_def_cfa_offset 8
 943 0002 0023     		movs	r3, #0
 944 0004 0193     		str	r3, [sp, #4]
 945              	.LBB8:
 946              	.LBB9:
 947              		.loc 2 548 0
 948 0006 019B     		ldr	r3, [sp, #4]
 949              	@ 548 "lib/ChibiOS_16.1.4//os/ext/CMSIS/include/core_cmFunc.h" 1
 950 0008 83F31188 		MSR basepri, r3
 951              	@ 0 "" 2
 952              		.thumb
 953              	.LBE9:
 954              	.LBE8:
 955              		.loc 1 487 0
 956 000c 02B0     		add	sp, sp, #8
 957              		@ sp needed
 958 000e 7047     		bx	lr
 959              		.cfi_endproc
 960              	.LFE128:
 961              		.size	port_unlock, .-port_unlock
ARM GAS  /tmp/ccuZSfQH.s 			page 73


 962              		.section	.text.chSysLock,"ax",%progbits
 963              		.align	2
 964              		.p2align 4,,15
 965              		.thumb
 966              		.thumb_func
 967              		.type	chSysLock, %function
 968              	chSysLock:
 969              	.LFB167:
 970              		.file 3 "lib/ChibiOS_16.1.4//os/rt/include/chsys.h"
 971              		.loc 3 346 0
 972              		.cfi_startproc
 973              		@ args = 0, pretend = 0, frame = 0
 974              		@ frame_needed = 0, uses_anonymous_args = 0
 975 0000 08B5     		push	{r3, lr}
 976              		.cfi_def_cfa_offset 8
 977              		.cfi_offset 3, -8
 978              		.cfi_offset 14, -4
 979              		.loc 3 348 0
 980 0002 FFF7FEFF 		bl	port_lock
 981              		.loc 3 349 0
 982 0006 FFF7FEFF 		bl	_stats_start_measure_crit_thd
 983              		.loc 3 350 0
 984 000a FFF7FEFF 		bl	_dbg_check_lock
 985              		.loc 3 351 0
 986 000e 08BD     		pop	{r3, pc}
 987              		.cfi_endproc
 988              	.LFE167:
 989              		.size	chSysLock, .-chSysLock
 990              		.section	.text.chSysUnlock,"ax",%progbits
 991              		.align	2
 992              		.p2align 4,,15
 993              		.thumb
 994              		.thumb_func
 995              		.type	chSysUnlock, %function
 996              	chSysUnlock:
 997              	.LFB168:
 998              		.loc 3 358 0
 999              		.cfi_startproc
 1000              		@ args = 0, pretend = 0, frame = 0
 1001              		@ frame_needed = 0, uses_anonymous_args = 0
 1002 0000 08B5     		push	{r3, lr}
 1003              		.cfi_def_cfa_offset 8
 1004              		.cfi_offset 3, -8
 1005              		.cfi_offset 14, -4
 1006              		.loc 3 360 0
 1007 0002 FFF7FEFF 		bl	_dbg_check_unlock
 1008              		.loc 3 361 0
 1009 0006 FFF7FEFF 		bl	_stats_stop_measure_crit_thd
 1010              		.loc 3 367 0
 1011 000a 40F20003 		movw	r3, #:lower16:ch
 1012 000e C0F20003 		movt	r3, #:upper16:ch
 1013 0012 1A68     		ldr	r2, [r3]
 1014 0014 40F20003 		movw	r3, #:lower16:ch
 1015 0018 C0F20003 		movt	r3, #:upper16:ch
 1016 001c 9A42     		cmp	r2, r3
 1017 001e 13D0     		beq	.L5
 1018              		.loc 3 367 0 is_stmt 0 discriminator 1
ARM GAS  /tmp/ccuZSfQH.s 			page 74


 1019 0020 40F20003 		movw	r3, #:lower16:ch
 1020 0024 C0F20003 		movt	r3, #:upper16:ch
 1021 0028 9B69     		ldr	r3, [r3, #24]
 1022 002a 9A68     		ldr	r2, [r3, #8]
 1023 002c 40F20003 		movw	r3, #:lower16:ch
 1024 0030 C0F20003 		movt	r3, #:upper16:ch
 1025 0034 1B68     		ldr	r3, [r3]
 1026 0036 9B68     		ldr	r3, [r3, #8]
 1027 0038 9A42     		cmp	r2, r3
 1028 003a 05D2     		bcs	.L5
 1029 003c 40F20000 		movw	r0, #:lower16:__func__.5915
 1030 0040 C0F20000 		movt	r0, #:upper16:__func__.5915
 1031 0044 FFF7FEFF 		bl	chSysHalt
 1032              	.L5:
 1033              		.loc 3 371 0 is_stmt 1
 1034 0048 FFF7FEFF 		bl	port_unlock
 1035              		.loc 3 372 0
 1036 004c 08BD     		pop	{r3, pc}
 1037              		.cfi_endproc
 1038              	.LFE168:
 1039              		.size	chSysUnlock, .-chSysUnlock
 1040 004e 00BF     		.section	.text.chSemGetCounterI,"ax",%progbits
 1041              		.align	2
 1042              		.p2align 4,,15
 1043              		.thumb
 1044              		.thumb_func
 1045              		.type	chSemGetCounterI, %function
 1046              	chSemGetCounterI:
 1047              	.LFB203:
 1048              		.file 4 "lib/ChibiOS_16.1.4//os/rt/include/chsem.h"
 1049              		.loc 4 149 0
 1050              		.cfi_startproc
 1051              		@ args = 0, pretend = 0, frame = 8
 1052              		@ frame_needed = 0, uses_anonymous_args = 0
 1053 0000 00B5     		push	{lr}
 1054              		.cfi_def_cfa_offset 4
 1055              		.cfi_offset 14, -4
 1056 0002 83B0     		sub	sp, sp, #12
 1057              		.cfi_def_cfa_offset 16
 1058 0004 0190     		str	r0, [sp, #4]
 1059              		.loc 4 151 0
 1060 0006 FFF7FEFF 		bl	chDbgCheckClassI
 1061              		.loc 4 153 0
 1062 000a 019B     		ldr	r3, [sp, #4]
 1063 000c 9B68     		ldr	r3, [r3, #8]
 1064              		.loc 4 154 0
 1065 000e 1846     		mov	r0, r3
 1066 0010 03B0     		add	sp, sp, #12
 1067              		@ sp needed
 1068 0012 5DF804FB 		ldr	pc, [sp], #4
 1069              		.cfi_endproc
 1070              	.LFE203:
 1071              		.size	chSemGetCounterI, .-chSemGetCounterI
 1072 0016 00BFAFF3 		.section	.text.chMBGetFreeCountI,"ax",%progbits
 1072      0080AFF3 
 1072      0080
 1073              		.align	2
ARM GAS  /tmp/ccuZSfQH.s 			page 75


 1074              		.p2align 4,,15
 1075              		.thumb
 1076              		.thumb_func
 1077              		.type	chMBGetFreeCountI, %function
 1078              	chMBGetFreeCountI:
 1079              	.LFB226:
 1080              		.file 5 "lib/ChibiOS_16.1.4//os/rt/include/chmboxes.h"
 1081              		.loc 5 158 0
 1082              		.cfi_startproc
 1083              		@ args = 0, pretend = 0, frame = 8
 1084              		@ frame_needed = 0, uses_anonymous_args = 0
 1085 0000 00B5     		push	{lr}
 1086              		.cfi_def_cfa_offset 4
 1087              		.cfi_offset 14, -4
 1088 0002 83B0     		sub	sp, sp, #12
 1089              		.cfi_def_cfa_offset 16
 1090 0004 0190     		str	r0, [sp, #4]
 1091              		.loc 5 160 0
 1092 0006 FFF7FEFF 		bl	chDbgCheckClassI
 1093              		.loc 5 162 0
 1094 000a 019B     		ldr	r3, [sp, #4]
 1095 000c 1C33     		adds	r3, r3, #28
 1096 000e 1846     		mov	r0, r3
 1097 0010 FFF7FEFF 		bl	chSemGetCounterI
 1098 0014 0346     		mov	r3, r0
 1099              		.loc 5 163 0
 1100 0016 1846     		mov	r0, r3
 1101 0018 03B0     		add	sp, sp, #12
 1102              		@ sp needed
 1103 001a 5DF804FB 		ldr	pc, [sp], #4
 1104              		.cfi_endproc
 1105              	.LFE226:
 1106              		.size	chMBGetFreeCountI, .-chMBGetFreeCountI
 1107 001e 00BF     		.section	.text.chMBGetUsedCountI,"ax",%progbits
 1108              		.align	2
 1109              		.p2align 4,,15
 1110              		.thumb
 1111              		.thumb_func
 1112              		.type	chMBGetUsedCountI, %function
 1113              	chMBGetUsedCountI:
 1114              	.LFB227:
 1115              		.loc 5 177 0
 1116              		.cfi_startproc
 1117              		@ args = 0, pretend = 0, frame = 8
 1118              		@ frame_needed = 0, uses_anonymous_args = 0
 1119 0000 00B5     		push	{lr}
 1120              		.cfi_def_cfa_offset 4
 1121              		.cfi_offset 14, -4
 1122 0002 83B0     		sub	sp, sp, #12
 1123              		.cfi_def_cfa_offset 16
 1124 0004 0190     		str	r0, [sp, #4]
 1125              		.loc 5 179 0
 1126 0006 FFF7FEFF 		bl	chDbgCheckClassI
 1127              		.loc 5 181 0
 1128 000a 019B     		ldr	r3, [sp, #4]
 1129 000c 1033     		adds	r3, r3, #16
 1130 000e 1846     		mov	r0, r3
ARM GAS  /tmp/ccuZSfQH.s 			page 76


 1131 0010 FFF7FEFF 		bl	chSemGetCounterI
 1132 0014 0346     		mov	r3, r0
 1133              		.loc 5 182 0
 1134 0016 1846     		mov	r0, r3
 1135 0018 03B0     		add	sp, sp, #12
 1136              		@ sp needed
 1137 001a 5DF804FB 		ldr	pc, [sp], #4
 1138              		.cfi_endproc
 1139              	.LFE227:
 1140              		.size	chMBGetUsedCountI, .-chMBGetUsedCountI
 1141 001e 00BF     		.section	.data.mb1,"aw",%progbits
 1142              		.align	2
 1143              		.type	mb1, %object
 1144              		.size	mb1, 40
 1145              	mb1:
 1146 0000 00000000 		.word	test
 1147 0004 14000000 		.word	test+20
 1148 0008 00000000 		.word	test
 1149 000c 00000000 		.word	test
 1150 0010 10000000 		.word	mb1+16
 1151 0014 10000000 		.word	mb1+16
 1152 0018 00000000 		.word	0
 1153 001c 1C000000 		.word	mb1+28
 1154 0020 1C000000 		.word	mb1+28
 1155 0024 05000000 		.word	5
 1156              		.section	.text.mbox1_setup,"ax",%progbits
 1157              		.align	2
 1158              		.p2align 4,,15
 1159              		.thumb
 1160              		.thumb_func
 1161              		.type	mbox1_setup, %function
 1162              	mbox1_setup:
 1163              	.LFB241:
 1164              		.file 6 "lib/ChibiOS_16.1.4//test/rt/testmbox.c"
 1165              		.loc 6 71 0
 1166              		.cfi_startproc
 1167              		@ args = 0, pretend = 0, frame = 0
 1168              		@ frame_needed = 0, uses_anonymous_args = 0
 1169 0000 08B5     		push	{r3, lr}
 1170              		.cfi_def_cfa_offset 8
 1171              		.cfi_offset 3, -8
 1172              		.cfi_offset 14, -4
 1173              		.loc 6 73 0
 1174 0002 40F20000 		movw	r0, #:lower16:mb1
 1175 0006 C0F20000 		movt	r0, #:upper16:mb1
 1176 000a 40F20001 		movw	r1, #:lower16:test
 1177 000e C0F20001 		movt	r1, #:upper16:test
 1178 0012 0522     		movs	r2, #5
 1179 0014 FFF7FEFF 		bl	chMBObjectInit
 1180              		.loc 6 74 0
 1181 0018 08BD     		pop	{r3, pc}
 1182              		.cfi_endproc
 1183              	.LFE241:
 1184              		.size	mbox1_setup, .-mbox1_setup
 1185 001a 00BFAFF3 		.section	.rodata
 1185      0080
 1186              		.align	2
ARM GAS  /tmp/ccuZSfQH.s 			page 77


 1187              	.LC0:
 1188 0000 41424344 		.ascii	"ABCDE\000"
 1188      4500
 1189              		.section	.text.mbox1_execute,"ax",%progbits
 1190              		.align	2
 1191              		.p2align 4,,15
 1192              		.thumb
 1193              		.thumb_func
 1194              		.type	mbox1_execute, %function
 1195              	mbox1_execute:
 1196              	.LFB242:
 1197              		.loc 6 76 0
 1198              		.cfi_startproc
 1199              		@ args = 0, pretend = 0, frame = 16
 1200              		@ frame_needed = 0, uses_anonymous_args = 0
 1201 0000 00B5     		push	{lr}
 1202              		.cfi_def_cfa_offset 4
 1203              		.cfi_offset 14, -4
 1204 0002 85B0     		sub	sp, sp, #20
 1205              		.cfi_def_cfa_offset 24
 1206              		.loc 6 83 0
 1207 0004 FFF7FEFF 		bl	chSysLock
 1208 0008 40F20000 		movw	r0, #:lower16:mb1
 1209 000c C0F20000 		movt	r0, #:upper16:mb1
 1210 0010 FFF7FEFF 		bl	chMBGetFreeCountI
 1211 0014 0346     		mov	r3, r0
 1212 0016 052B     		cmp	r3, #5
 1213 0018 14BF     		ite	ne
 1214 001a 0023     		movne	r3, #0
 1215 001c 0123     		moveq	r3, #1
 1216 001e DBB2     		uxtb	r3, r3
 1217 0020 0120     		movs	r0, #1
 1218 0022 1946     		mov	r1, r3
 1219 0024 FFF7FEFF 		bl	_test_assert
 1220 0028 0346     		mov	r3, r0
 1221 002a 002B     		cmp	r3, #0
 1222 002c 03D0     		beq	.L14
 1223              		.loc 6 83 0 is_stmt 0 discriminator 1
 1224 002e FFF7FEFF 		bl	chSysUnlock
 1225 0032 00F096BC 		b	.L13
 1226              	.L14:
 1227              		.loc 6 83 0 discriminator 2
 1228 0036 FFF7FEFF 		bl	chSysUnlock
 1229              		.loc 6 88 0 is_stmt 1 discriminator 2
 1230 003a 0023     		movs	r3, #0
 1231 003c 0393     		str	r3, [sp, #12]
 1232 003e 1DE0     		b	.L16
 1233              	.L18:
 1234              		.loc 6 89 0
 1235 0040 039B     		ldr	r3, [sp, #12]
 1236 0042 4233     		adds	r3, r3, #66
 1237 0044 40F20000 		movw	r0, #:lower16:mb1
 1238 0048 C0F20000 		movt	r0, #:upper16:mb1
 1239 004c 1946     		mov	r1, r3
 1240 004e 4FF0FF32 		mov	r2, #-1
 1241 0052 FFF7FEFF 		bl	chMBPost
 1242 0056 0290     		str	r0, [sp, #8]
ARM GAS  /tmp/ccuZSfQH.s 			page 78


 1243              		.loc 6 90 0
 1244 0058 029B     		ldr	r3, [sp, #8]
 1245 005a 002B     		cmp	r3, #0
 1246 005c 14BF     		ite	ne
 1247 005e 0023     		movne	r3, #0
 1248 0060 0123     		moveq	r3, #1
 1249 0062 DBB2     		uxtb	r3, r3
 1250 0064 0220     		movs	r0, #2
 1251 0066 1946     		mov	r1, r3
 1252 0068 FFF7FEFF 		bl	_test_assert
 1253 006c 0346     		mov	r3, r0
 1254 006e 002B     		cmp	r3, #0
 1255 0070 01D0     		beq	.L17
 1256              		.loc 6 90 0 is_stmt 0 discriminator 1
 1257 0072 00F076BC 		b	.L13
 1258              	.L17:
 1259              		.loc 6 88 0 is_stmt 1
 1260 0076 039B     		ldr	r3, [sp, #12]
 1261 0078 0133     		adds	r3, r3, #1
 1262 007a 0393     		str	r3, [sp, #12]
 1263              	.L16:
 1264              		.loc 6 88 0 is_stmt 0 discriminator 1
 1265 007c 039B     		ldr	r3, [sp, #12]
 1266 007e 032B     		cmp	r3, #3
 1267 0080 DED9     		bls	.L18
 1268              		.loc 6 92 0 is_stmt 1
 1269 0082 40F20000 		movw	r0, #:lower16:mb1
 1270 0086 C0F20000 		movt	r0, #:upper16:mb1
 1271 008a 4121     		movs	r1, #65
 1272 008c 4FF0FF32 		mov	r2, #-1
 1273 0090 FFF7FEFF 		bl	chMBPostAhead
 1274 0094 0290     		str	r0, [sp, #8]
 1275              		.loc 6 93 0
 1276 0096 029B     		ldr	r3, [sp, #8]
 1277 0098 002B     		cmp	r3, #0
 1278 009a 14BF     		ite	ne
 1279 009c 0023     		movne	r3, #0
 1280 009e 0123     		moveq	r3, #1
 1281 00a0 DBB2     		uxtb	r3, r3
 1282 00a2 0320     		movs	r0, #3
 1283 00a4 1946     		mov	r1, r3
 1284 00a6 FFF7FEFF 		bl	_test_assert
 1285 00aa 0346     		mov	r3, r0
 1286 00ac 002B     		cmp	r3, #0
 1287 00ae 01D0     		beq	.L19
 1288              		.loc 6 93 0 is_stmt 0 discriminator 1
 1289 00b0 00F057BC 		b	.L13
 1290              	.L19:
 1291              		.loc 6 98 0 is_stmt 1
 1292 00b4 40F20000 		movw	r0, #:lower16:mb1
 1293 00b8 C0F20000 		movt	r0, #:upper16:mb1
 1294 00bc 5821     		movs	r1, #88
 1295 00be 0122     		movs	r2, #1
 1296 00c0 FFF7FEFF 		bl	chMBPost
 1297 00c4 0290     		str	r0, [sp, #8]
 1298              		.loc 6 99 0
 1299 00c6 029B     		ldr	r3, [sp, #8]
ARM GAS  /tmp/ccuZSfQH.s 			page 79


 1300 00c8 B3F1FF3F 		cmp	r3, #-1
 1301 00cc 14BF     		ite	ne
 1302 00ce 0023     		movne	r3, #0
 1303 00d0 0123     		moveq	r3, #1
 1304 00d2 DBB2     		uxtb	r3, r3
 1305 00d4 0420     		movs	r0, #4
 1306 00d6 1946     		mov	r1, r3
 1307 00d8 FFF7FEFF 		bl	_test_assert
 1308 00dc 0346     		mov	r3, r0
 1309 00de 002B     		cmp	r3, #0
 1310 00e0 01D0     		beq	.L20
 1311              		.loc 6 99 0 is_stmt 0 discriminator 1
 1312 00e2 00F03EBC 		b	.L13
 1313              	.L20:
 1314              		.loc 6 100 0 is_stmt 1
 1315 00e6 FFF7FEFF 		bl	chSysLock
 1316              		.loc 6 101 0
 1317 00ea 40F20000 		movw	r0, #:lower16:mb1
 1318 00ee C0F20000 		movt	r0, #:upper16:mb1
 1319 00f2 5821     		movs	r1, #88
 1320 00f4 FFF7FEFF 		bl	chMBPostI
 1321 00f8 0290     		str	r0, [sp, #8]
 1322              		.loc 6 102 0
 1323 00fa FFF7FEFF 		bl	chSysUnlock
 1324              		.loc 6 103 0
 1325 00fe 029B     		ldr	r3, [sp, #8]
 1326 0100 B3F1FF3F 		cmp	r3, #-1
 1327 0104 14BF     		ite	ne
 1328 0106 0023     		movne	r3, #0
 1329 0108 0123     		moveq	r3, #1
 1330 010a DBB2     		uxtb	r3, r3
 1331 010c 0520     		movs	r0, #5
 1332 010e 1946     		mov	r1, r3
 1333 0110 FFF7FEFF 		bl	_test_assert
 1334 0114 0346     		mov	r3, r0
 1335 0116 002B     		cmp	r3, #0
 1336 0118 01D0     		beq	.L21
 1337              		.loc 6 103 0 is_stmt 0 discriminator 1
 1338 011a 00F022BC 		b	.L13
 1339              	.L21:
 1340              		.loc 6 104 0 is_stmt 1
 1341 011e 40F20000 		movw	r0, #:lower16:mb1
 1342 0122 C0F20000 		movt	r0, #:upper16:mb1
 1343 0126 5821     		movs	r1, #88
 1344 0128 0122     		movs	r2, #1
 1345 012a FFF7FEFF 		bl	chMBPostAhead
 1346 012e 0290     		str	r0, [sp, #8]
 1347              		.loc 6 105 0
 1348 0130 029B     		ldr	r3, [sp, #8]
 1349 0132 B3F1FF3F 		cmp	r3, #-1
 1350 0136 14BF     		ite	ne
 1351 0138 0023     		movne	r3, #0
 1352 013a 0123     		moveq	r3, #1
 1353 013c DBB2     		uxtb	r3, r3
 1354 013e 0620     		movs	r0, #6
 1355 0140 1946     		mov	r1, r3
 1356 0142 FFF7FEFF 		bl	_test_assert
ARM GAS  /tmp/ccuZSfQH.s 			page 80


 1357 0146 0346     		mov	r3, r0
 1358 0148 002B     		cmp	r3, #0
 1359 014a 01D0     		beq	.L22
 1360              		.loc 6 105 0 is_stmt 0 discriminator 1
 1361 014c 00F009BC 		b	.L13
 1362              	.L22:
 1363              		.loc 6 106 0 is_stmt 1
 1364 0150 FFF7FEFF 		bl	chSysLock
 1365              		.loc 6 107 0
 1366 0154 40F20000 		movw	r0, #:lower16:mb1
 1367 0158 C0F20000 		movt	r0, #:upper16:mb1
 1368 015c 5821     		movs	r1, #88
 1369 015e FFF7FEFF 		bl	chMBPostAheadI
 1370 0162 0290     		str	r0, [sp, #8]
 1371              		.loc 6 108 0
 1372 0164 FFF7FEFF 		bl	chSysUnlock
 1373              		.loc 6 109 0
 1374 0168 029B     		ldr	r3, [sp, #8]
 1375 016a B3F1FF3F 		cmp	r3, #-1
 1376 016e 14BF     		ite	ne
 1377 0170 0023     		movne	r3, #0
 1378 0172 0123     		moveq	r3, #1
 1379 0174 DBB2     		uxtb	r3, r3
 1380 0176 0720     		movs	r0, #7
 1381 0178 1946     		mov	r1, r3
 1382 017a FFF7FEFF 		bl	_test_assert
 1383 017e 0346     		mov	r3, r0
 1384 0180 002B     		cmp	r3, #0
 1385 0182 00D0     		beq	.L23
 1386              		.loc 6 109 0 is_stmt 0 discriminator 1
 1387 0184 EDE3     		b	.L13
 1388              	.L23:
 1389              		.loc 6 114 0 is_stmt 1
 1390 0186 FFF7FEFF 		bl	chSysLock
 1391 018a 40F20000 		movw	r0, #:lower16:mb1
 1392 018e C0F20000 		movt	r0, #:upper16:mb1
 1393 0192 FFF7FEFF 		bl	chMBGetFreeCountI
 1394 0196 0346     		mov	r3, r0
 1395 0198 002B     		cmp	r3, #0
 1396 019a 14BF     		ite	ne
 1397 019c 0023     		movne	r3, #0
 1398 019e 0123     		moveq	r3, #1
 1399 01a0 DBB2     		uxtb	r3, r3
 1400 01a2 0820     		movs	r0, #8
 1401 01a4 1946     		mov	r1, r3
 1402 01a6 FFF7FEFF 		bl	_test_assert
 1403 01aa 0346     		mov	r3, r0
 1404 01ac 002B     		cmp	r3, #0
 1405 01ae 02D0     		beq	.L24
 1406              		.loc 6 114 0 is_stmt 0 discriminator 1
 1407 01b0 FFF7FEFF 		bl	chSysUnlock
 1408 01b4 D5E3     		b	.L13
 1409              	.L24:
 1410              		.loc 6 114 0 discriminator 2
 1411 01b6 FFF7FEFF 		bl	chSysUnlock
 1412              		.loc 6 115 0 is_stmt 1 discriminator 2
 1413 01ba FFF7FEFF 		bl	chSysLock
ARM GAS  /tmp/ccuZSfQH.s 			page 81


 1414 01be 40F20000 		movw	r0, #:lower16:mb1
 1415 01c2 C0F20000 		movt	r0, #:upper16:mb1
 1416 01c6 FFF7FEFF 		bl	chMBGetUsedCountI
 1417 01ca 0346     		mov	r3, r0
 1418 01cc 052B     		cmp	r3, #5
 1419 01ce 14BF     		ite	ne
 1420 01d0 0023     		movne	r3, #0
 1421 01d2 0123     		moveq	r3, #1
 1422 01d4 DBB2     		uxtb	r3, r3
 1423 01d6 0920     		movs	r0, #9
 1424 01d8 1946     		mov	r1, r3
 1425 01da FFF7FEFF 		bl	_test_assert
 1426 01de 0346     		mov	r3, r0
 1427 01e0 002B     		cmp	r3, #0
 1428 01e2 02D0     		beq	.L25
 1429              		.loc 6 115 0 is_stmt 0 discriminator 1
 1430 01e4 FFF7FEFF 		bl	chSysUnlock
 1431 01e8 BBE3     		b	.L13
 1432              	.L25:
 1433              		.loc 6 115 0 discriminator 2
 1434 01ea FFF7FEFF 		bl	chSysUnlock
 1435              		.loc 6 116 0 is_stmt 1 discriminator 2
 1436 01ee FFF7FEFF 		bl	chSysLock
 1437 01f2 40F20003 		movw	r3, #:lower16:mb1
 1438 01f6 C0F20003 		movt	r3, #:upper16:mb1
 1439 01fa DA68     		ldr	r2, [r3, #12]
 1440 01fc 40F20003 		movw	r3, #:lower16:mb1
 1441 0200 C0F20003 		movt	r3, #:upper16:mb1
 1442 0204 9B68     		ldr	r3, [r3, #8]
 1443 0206 9A42     		cmp	r2, r3
 1444 0208 14BF     		ite	ne
 1445 020a 0023     		movne	r3, #0
 1446 020c 0123     		moveq	r3, #1
 1447 020e DBB2     		uxtb	r3, r3
 1448 0210 0A20     		movs	r0, #10
 1449 0212 1946     		mov	r1, r3
 1450 0214 FFF7FEFF 		bl	_test_assert
 1451 0218 0346     		mov	r3, r0
 1452 021a 002B     		cmp	r3, #0
 1453 021c 02D0     		beq	.L26
 1454              		.loc 6 116 0 is_stmt 0 discriminator 1
 1455 021e FFF7FEFF 		bl	chSysUnlock
 1456 0222 9EE3     		b	.L13
 1457              	.L26:
 1458              		.loc 6 116 0 discriminator 2
 1459 0224 FFF7FEFF 		bl	chSysUnlock
 1460              		.loc 6 121 0 is_stmt 1 discriminator 2
 1461 0228 0023     		movs	r3, #0
 1462 022a 0393     		str	r3, [sp, #12]
 1463 022c 20E0     		b	.L27
 1464              	.L29:
 1465              		.loc 6 122 0
 1466 022e 01AB     		add	r3, sp, #4
 1467 0230 40F20000 		movw	r0, #:lower16:mb1
 1468 0234 C0F20000 		movt	r0, #:upper16:mb1
 1469 0238 1946     		mov	r1, r3
 1470 023a 4FF0FF32 		mov	r2, #-1
ARM GAS  /tmp/ccuZSfQH.s 			page 82


 1471 023e FFF7FEFF 		bl	chMBFetch
 1472 0242 0290     		str	r0, [sp, #8]
 1473              		.loc 6 123 0
 1474 0244 029B     		ldr	r3, [sp, #8]
 1475 0246 002B     		cmp	r3, #0
 1476 0248 14BF     		ite	ne
 1477 024a 0023     		movne	r3, #0
 1478 024c 0123     		moveq	r3, #1
 1479 024e DBB2     		uxtb	r3, r3
 1480 0250 0B20     		movs	r0, #11
 1481 0252 1946     		mov	r1, r3
 1482 0254 FFF7FEFF 		bl	_test_assert
 1483 0258 0346     		mov	r3, r0
 1484 025a 002B     		cmp	r3, #0
 1485 025c 00D0     		beq	.L28
 1486              		.loc 6 123 0 is_stmt 0 discriminator 1
 1487 025e 80E3     		b	.L13
 1488              	.L28:
 1489              		.loc 6 124 0 is_stmt 1
 1490 0260 019B     		ldr	r3, [sp, #4]
 1491 0262 DBB2     		uxtb	r3, r3
 1492 0264 1846     		mov	r0, r3
 1493 0266 FFF7FEFF 		bl	test_emit_token
 1494              		.loc 6 121 0
 1495 026a 039B     		ldr	r3, [sp, #12]
 1496 026c 0133     		adds	r3, r3, #1
 1497 026e 0393     		str	r3, [sp, #12]
 1498              	.L27:
 1499              		.loc 6 121 0 is_stmt 0 discriminator 1
 1500 0270 039B     		ldr	r3, [sp, #12]
 1501 0272 042B     		cmp	r3, #4
 1502 0274 DBD9     		bls	.L29
 1503              		.loc 6 126 0 is_stmt 1
 1504 0276 0C20     		movs	r0, #12
 1505 0278 40F20001 		movw	r1, #:lower16:.LC0
 1506 027c C0F20001 		movt	r1, #:upper16:.LC0
 1507 0280 FFF7FEFF 		bl	_test_assert_sequence
 1508 0284 0346     		mov	r3, r0
 1509 0286 002B     		cmp	r3, #0
 1510 0288 00D0     		beq	.L30
 1511              		.loc 6 126 0 is_stmt 0 discriminator 1
 1512 028a 6AE3     		b	.L13
 1513              	.L30:
 1514              		.loc 6 131 0 is_stmt 1
 1515 028c 039B     		ldr	r3, [sp, #12]
 1516 028e 4233     		adds	r3, r3, #66
 1517 0290 40F20000 		movw	r0, #:lower16:mb1
 1518 0294 C0F20000 		movt	r0, #:upper16:mb1
 1519 0298 1946     		mov	r1, r3
 1520 029a 4FF0FF32 		mov	r2, #-1
 1521 029e FFF7FEFF 		bl	chMBPost
 1522 02a2 0290     		str	r0, [sp, #8]
 1523              		.loc 6 132 0
 1524 02a4 029B     		ldr	r3, [sp, #8]
 1525 02a6 002B     		cmp	r3, #0
 1526 02a8 14BF     		ite	ne
 1527 02aa 0023     		movne	r3, #0
ARM GAS  /tmp/ccuZSfQH.s 			page 83


 1528 02ac 0123     		moveq	r3, #1
 1529 02ae DBB2     		uxtb	r3, r3
 1530 02b0 0D20     		movs	r0, #13
 1531 02b2 1946     		mov	r1, r3
 1532 02b4 FFF7FEFF 		bl	_test_assert
 1533 02b8 0346     		mov	r3, r0
 1534 02ba 002B     		cmp	r3, #0
 1535 02bc 00D0     		beq	.L31
 1536              		.loc 6 132 0 is_stmt 0 discriminator 1
 1537 02be 50E3     		b	.L13
 1538              	.L31:
 1539              		.loc 6 133 0 is_stmt 1
 1540 02c0 01AB     		add	r3, sp, #4
 1541 02c2 40F20000 		movw	r0, #:lower16:mb1
 1542 02c6 C0F20000 		movt	r0, #:upper16:mb1
 1543 02ca 1946     		mov	r1, r3
 1544 02cc 4FF0FF32 		mov	r2, #-1
 1545 02d0 FFF7FEFF 		bl	chMBFetch
 1546 02d4 0290     		str	r0, [sp, #8]
 1547              		.loc 6 134 0
 1548 02d6 029B     		ldr	r3, [sp, #8]
 1549 02d8 002B     		cmp	r3, #0
 1550 02da 14BF     		ite	ne
 1551 02dc 0023     		movne	r3, #0
 1552 02de 0123     		moveq	r3, #1
 1553 02e0 DBB2     		uxtb	r3, r3
 1554 02e2 0E20     		movs	r0, #14
 1555 02e4 1946     		mov	r1, r3
 1556 02e6 FFF7FEFF 		bl	_test_assert
 1557 02ea 0346     		mov	r3, r0
 1558 02ec 002B     		cmp	r3, #0
 1559 02ee 00D0     		beq	.L32
 1560              		.loc 6 134 0 is_stmt 0 discriminator 1
 1561 02f0 37E3     		b	.L13
 1562              	.L32:
 1563              		.loc 6 135 0 is_stmt 1
 1564 02f2 40F20003 		movw	r3, #:lower16:mb1
 1565 02f6 C0F20003 		movt	r3, #:upper16:mb1
 1566 02fa 1A68     		ldr	r2, [r3]
 1567 02fc 40F20003 		movw	r3, #:lower16:mb1
 1568 0300 C0F20003 		movt	r3, #:upper16:mb1
 1569 0304 9B68     		ldr	r3, [r3, #8]
 1570 0306 9A42     		cmp	r2, r3
 1571 0308 14BF     		ite	ne
 1572 030a 0023     		movne	r3, #0
 1573 030c 0123     		moveq	r3, #1
 1574 030e DBB2     		uxtb	r3, r3
 1575 0310 0F20     		movs	r0, #15
 1576 0312 1946     		mov	r1, r3
 1577 0314 FFF7FEFF 		bl	_test_assert
 1578 0318 0346     		mov	r3, r0
 1579 031a 002B     		cmp	r3, #0
 1580 031c 00D0     		beq	.L33
 1581              		.loc 6 135 0 is_stmt 0 discriminator 1
 1582 031e 20E3     		b	.L13
 1583              	.L33:
 1584              		.loc 6 136 0 is_stmt 1
ARM GAS  /tmp/ccuZSfQH.s 			page 84


 1585 0320 40F20003 		movw	r3, #:lower16:mb1
 1586 0324 C0F20003 		movt	r3, #:upper16:mb1
 1587 0328 1A68     		ldr	r2, [r3]
 1588 032a 40F20003 		movw	r3, #:lower16:mb1
 1589 032e C0F20003 		movt	r3, #:upper16:mb1
 1590 0332 DB68     		ldr	r3, [r3, #12]
 1591 0334 9A42     		cmp	r2, r3
 1592 0336 14BF     		ite	ne
 1593 0338 0023     		movne	r3, #0
 1594 033a 0123     		moveq	r3, #1
 1595 033c DBB2     		uxtb	r3, r3
 1596 033e 1020     		movs	r0, #16
 1597 0340 1946     		mov	r1, r3
 1598 0342 FFF7FEFF 		bl	_test_assert
 1599 0346 0346     		mov	r3, r0
 1600 0348 002B     		cmp	r3, #0
 1601 034a 00D0     		beq	.L34
 1602              		.loc 6 136 0 is_stmt 0 discriminator 1
 1603 034c 09E3     		b	.L13
 1604              	.L34:
 1605              		.loc 6 141 0 is_stmt 1
 1606 034e 01AB     		add	r3, sp, #4
 1607 0350 40F20000 		movw	r0, #:lower16:mb1
 1608 0354 C0F20000 		movt	r0, #:upper16:mb1
 1609 0358 1946     		mov	r1, r3
 1610 035a 0122     		movs	r2, #1
 1611 035c FFF7FEFF 		bl	chMBFetch
 1612 0360 0290     		str	r0, [sp, #8]
 1613              		.loc 6 142 0
 1614 0362 029B     		ldr	r3, [sp, #8]
 1615 0364 B3F1FF3F 		cmp	r3, #-1
 1616 0368 14BF     		ite	ne
 1617 036a 0023     		movne	r3, #0
 1618 036c 0123     		moveq	r3, #1
 1619 036e DBB2     		uxtb	r3, r3
 1620 0370 1120     		movs	r0, #17
 1621 0372 1946     		mov	r1, r3
 1622 0374 FFF7FEFF 		bl	_test_assert
 1623 0378 0346     		mov	r3, r0
 1624 037a 002B     		cmp	r3, #0
 1625 037c 00D0     		beq	.L35
 1626              		.loc 6 142 0 is_stmt 0 discriminator 1
 1627 037e F0E2     		b	.L13
 1628              	.L35:
 1629              		.loc 6 143 0 is_stmt 1
 1630 0380 FFF7FEFF 		bl	chSysLock
 1631              		.loc 6 144 0
 1632 0384 01AB     		add	r3, sp, #4
 1633 0386 40F20000 		movw	r0, #:lower16:mb1
 1634 038a C0F20000 		movt	r0, #:upper16:mb1
 1635 038e 1946     		mov	r1, r3
 1636 0390 FFF7FEFF 		bl	chMBFetchI
 1637 0394 0290     		str	r0, [sp, #8]
 1638              		.loc 6 145 0
 1639 0396 FFF7FEFF 		bl	chSysUnlock
 1640              		.loc 6 146 0
 1641 039a 029B     		ldr	r3, [sp, #8]
ARM GAS  /tmp/ccuZSfQH.s 			page 85


 1642 039c B3F1FF3F 		cmp	r3, #-1
 1643 03a0 14BF     		ite	ne
 1644 03a2 0023     		movne	r3, #0
 1645 03a4 0123     		moveq	r3, #1
 1646 03a6 DBB2     		uxtb	r3, r3
 1647 03a8 1220     		movs	r0, #18
 1648 03aa 1946     		mov	r1, r3
 1649 03ac FFF7FEFF 		bl	_test_assert
 1650 03b0 0346     		mov	r3, r0
 1651 03b2 002B     		cmp	r3, #0
 1652 03b4 00D0     		beq	.L36
 1653              		.loc 6 146 0 is_stmt 0 discriminator 1
 1654 03b6 D4E2     		b	.L13
 1655              	.L36:
 1656              		.loc 6 151 0 is_stmt 1
 1657 03b8 FFF7FEFF 		bl	chSysLock
 1658 03bc 40F20000 		movw	r0, #:lower16:mb1
 1659 03c0 C0F20000 		movt	r0, #:upper16:mb1
 1660 03c4 FFF7FEFF 		bl	chMBGetFreeCountI
 1661 03c8 0346     		mov	r3, r0
 1662 03ca 052B     		cmp	r3, #5
 1663 03cc 14BF     		ite	ne
 1664 03ce 0023     		movne	r3, #0
 1665 03d0 0123     		moveq	r3, #1
 1666 03d2 DBB2     		uxtb	r3, r3
 1667 03d4 1320     		movs	r0, #19
 1668 03d6 1946     		mov	r1, r3
 1669 03d8 FFF7FEFF 		bl	_test_assert
 1670 03dc 0346     		mov	r3, r0
 1671 03de 002B     		cmp	r3, #0
 1672 03e0 02D0     		beq	.L37
 1673              		.loc 6 151 0 is_stmt 0 discriminator 1
 1674 03e2 FFF7FEFF 		bl	chSysUnlock
 1675 03e6 BCE2     		b	.L13
 1676              	.L37:
 1677              		.loc 6 151 0 discriminator 2
 1678 03e8 FFF7FEFF 		bl	chSysUnlock
 1679              		.loc 6 152 0 is_stmt 1 discriminator 2
 1680 03ec FFF7FEFF 		bl	chSysLock
 1681 03f0 40F20000 		movw	r0, #:lower16:mb1
 1682 03f4 C0F20000 		movt	r0, #:upper16:mb1
 1683 03f8 FFF7FEFF 		bl	chMBGetUsedCountI
 1684 03fc 0346     		mov	r3, r0
 1685 03fe 002B     		cmp	r3, #0
 1686 0400 14BF     		ite	ne
 1687 0402 0023     		movne	r3, #0
 1688 0404 0123     		moveq	r3, #1
 1689 0406 DBB2     		uxtb	r3, r3
 1690 0408 1420     		movs	r0, #20
 1691 040a 1946     		mov	r1, r3
 1692 040c FFF7FEFF 		bl	_test_assert
 1693 0410 0346     		mov	r3, r0
 1694 0412 002B     		cmp	r3, #0
 1695 0414 02D0     		beq	.L38
 1696              		.loc 6 152 0 is_stmt 0 discriminator 1
 1697 0416 FFF7FEFF 		bl	chSysUnlock
 1698 041a A2E2     		b	.L13
ARM GAS  /tmp/ccuZSfQH.s 			page 86


 1699              	.L38:
 1700              		.loc 6 152 0 discriminator 2
 1701 041c FFF7FEFF 		bl	chSysUnlock
 1702              		.loc 6 153 0 is_stmt 1 discriminator 2
 1703 0420 FFF7FEFF 		bl	chSysLock
 1704 0424 40F20003 		movw	r3, #:lower16:mb1
 1705 0428 C0F20003 		movt	r3, #:upper16:mb1
 1706 042c DA68     		ldr	r2, [r3, #12]
 1707 042e 40F20003 		movw	r3, #:lower16:mb1
 1708 0432 C0F20003 		movt	r3, #:upper16:mb1
 1709 0436 9B68     		ldr	r3, [r3, #8]
 1710 0438 9A42     		cmp	r2, r3
 1711 043a 14BF     		ite	ne
 1712 043c 0023     		movne	r3, #0
 1713 043e 0123     		moveq	r3, #1
 1714 0440 DBB2     		uxtb	r3, r3
 1715 0442 1520     		movs	r0, #21
 1716 0444 1946     		mov	r1, r3
 1717 0446 FFF7FEFF 		bl	_test_assert
 1718 044a 0346     		mov	r3, r0
 1719 044c 002B     		cmp	r3, #0
 1720 044e 02D0     		beq	.L39
 1721              		.loc 6 153 0 is_stmt 0 discriminator 1
 1722 0450 FFF7FEFF 		bl	chSysUnlock
 1723 0454 85E2     		b	.L13
 1724              	.L39:
 1725              		.loc 6 153 0 discriminator 2
 1726 0456 FFF7FEFF 		bl	chSysUnlock
 1727              		.loc 6 158 0 is_stmt 1 discriminator 2
 1728 045a FFF7FEFF 		bl	chSysLock
 1729              		.loc 6 159 0 discriminator 2
 1730 045e 40F20000 		movw	r0, #:lower16:mb1
 1731 0462 C0F20000 		movt	r0, #:upper16:mb1
 1732 0466 4121     		movs	r1, #65
 1733 0468 FFF7FEFF 		bl	chMBPostI
 1734 046c 0290     		str	r0, [sp, #8]
 1735              		.loc 6 160 0 discriminator 2
 1736 046e 029B     		ldr	r3, [sp, #8]
 1737 0470 002B     		cmp	r3, #0
 1738 0472 14BF     		ite	ne
 1739 0474 0023     		movne	r3, #0
 1740 0476 0123     		moveq	r3, #1
 1741 0478 DBB2     		uxtb	r3, r3
 1742 047a 1620     		movs	r0, #22
 1743 047c 1946     		mov	r1, r3
 1744 047e FFF7FEFF 		bl	_test_assert
 1745 0482 0346     		mov	r3, r0
 1746 0484 002B     		cmp	r3, #0
 1747 0486 00D0     		beq	.L40
 1748              		.loc 6 160 0 is_stmt 0 discriminator 1
 1749 0488 6BE2     		b	.L13
 1750              	.L40:
 1751              		.loc 6 161 0 is_stmt 1
 1752 048a 40F20000 		movw	r0, #:lower16:mb1
 1753 048e C0F20000 		movt	r0, #:upper16:mb1
 1754 0492 4221     		movs	r1, #66
 1755 0494 FFF7FEFF 		bl	chMBPostI
ARM GAS  /tmp/ccuZSfQH.s 			page 87


 1756 0498 0290     		str	r0, [sp, #8]
 1757              		.loc 6 162 0
 1758 049a 029B     		ldr	r3, [sp, #8]
 1759 049c 002B     		cmp	r3, #0
 1760 049e 14BF     		ite	ne
 1761 04a0 0023     		movne	r3, #0
 1762 04a2 0123     		moveq	r3, #1
 1763 04a4 DBB2     		uxtb	r3, r3
 1764 04a6 1720     		movs	r0, #23
 1765 04a8 1946     		mov	r1, r3
 1766 04aa FFF7FEFF 		bl	_test_assert
 1767 04ae 0346     		mov	r3, r0
 1768 04b0 002B     		cmp	r3, #0
 1769 04b2 00D0     		beq	.L41
 1770              		.loc 6 162 0 is_stmt 0 discriminator 1
 1771 04b4 55E2     		b	.L13
 1772              	.L41:
 1773              		.loc 6 163 0 is_stmt 1
 1774 04b6 40F20000 		movw	r0, #:lower16:mb1
 1775 04ba C0F20000 		movt	r0, #:upper16:mb1
 1776 04be 4321     		movs	r1, #67
 1777 04c0 FFF7FEFF 		bl	chMBPostI
 1778 04c4 0290     		str	r0, [sp, #8]
 1779              		.loc 6 164 0
 1780 04c6 029B     		ldr	r3, [sp, #8]
 1781 04c8 002B     		cmp	r3, #0
 1782 04ca 14BF     		ite	ne
 1783 04cc 0023     		movne	r3, #0
 1784 04ce 0123     		moveq	r3, #1
 1785 04d0 DBB2     		uxtb	r3, r3
 1786 04d2 1820     		movs	r0, #24
 1787 04d4 1946     		mov	r1, r3
 1788 04d6 FFF7FEFF 		bl	_test_assert
 1789 04da 0346     		mov	r3, r0
 1790 04dc 002B     		cmp	r3, #0
 1791 04de 00D0     		beq	.L42
 1792              		.loc 6 164 0 is_stmt 0 discriminator 1
 1793 04e0 3FE2     		b	.L13
 1794              	.L42:
 1795              		.loc 6 165 0 is_stmt 1
 1796 04e2 40F20000 		movw	r0, #:lower16:mb1
 1797 04e6 C0F20000 		movt	r0, #:upper16:mb1
 1798 04ea 4421     		movs	r1, #68
 1799 04ec FFF7FEFF 		bl	chMBPostI
 1800 04f0 0290     		str	r0, [sp, #8]
 1801              		.loc 6 166 0
 1802 04f2 029B     		ldr	r3, [sp, #8]
 1803 04f4 002B     		cmp	r3, #0
 1804 04f6 14BF     		ite	ne
 1805 04f8 0023     		movne	r3, #0
 1806 04fa 0123     		moveq	r3, #1
 1807 04fc DBB2     		uxtb	r3, r3
 1808 04fe 1920     		movs	r0, #25
 1809 0500 1946     		mov	r1, r3
 1810 0502 FFF7FEFF 		bl	_test_assert
 1811 0506 0346     		mov	r3, r0
 1812 0508 002B     		cmp	r3, #0
ARM GAS  /tmp/ccuZSfQH.s 			page 88


 1813 050a 00D0     		beq	.L43
 1814              		.loc 6 166 0 is_stmt 0 discriminator 1
 1815 050c 29E2     		b	.L13
 1816              	.L43:
 1817              		.loc 6 167 0 is_stmt 1
 1818 050e 40F20000 		movw	r0, #:lower16:mb1
 1819 0512 C0F20000 		movt	r0, #:upper16:mb1
 1820 0516 4521     		movs	r1, #69
 1821 0518 FFF7FEFF 		bl	chMBPostI
 1822 051c 0290     		str	r0, [sp, #8]
 1823              		.loc 6 168 0
 1824 051e FFF7FEFF 		bl	chSysUnlock
 1825              		.loc 6 169 0
 1826 0522 029B     		ldr	r3, [sp, #8]
 1827 0524 002B     		cmp	r3, #0
 1828 0526 14BF     		ite	ne
 1829 0528 0023     		movne	r3, #0
 1830 052a 0123     		moveq	r3, #1
 1831 052c DBB2     		uxtb	r3, r3
 1832 052e 1A20     		movs	r0, #26
 1833 0530 1946     		mov	r1, r3
 1834 0532 FFF7FEFF 		bl	_test_assert
 1835 0536 0346     		mov	r3, r0
 1836 0538 002B     		cmp	r3, #0
 1837 053a 00D0     		beq	.L44
 1838              		.loc 6 169 0 is_stmt 0 discriminator 1
 1839 053c 11E2     		b	.L13
 1840              	.L44:
 1841              		.loc 6 170 0 is_stmt 1
 1842 053e 40F20003 		movw	r3, #:lower16:mb1
 1843 0542 C0F20003 		movt	r3, #:upper16:mb1
 1844 0546 DA68     		ldr	r2, [r3, #12]
 1845 0548 40F20003 		movw	r3, #:lower16:mb1
 1846 054c C0F20003 		movt	r3, #:upper16:mb1
 1847 0550 9B68     		ldr	r3, [r3, #8]
 1848 0552 9A42     		cmp	r2, r3
 1849 0554 14BF     		ite	ne
 1850 0556 0023     		movne	r3, #0
 1851 0558 0123     		moveq	r3, #1
 1852 055a DBB2     		uxtb	r3, r3
 1853 055c 1B20     		movs	r0, #27
 1854 055e 1946     		mov	r1, r3
 1855 0560 FFF7FEFF 		bl	_test_assert
 1856 0564 0346     		mov	r3, r0
 1857 0566 002B     		cmp	r3, #0
 1858 0568 00D0     		beq	.L45
 1859              		.loc 6 170 0 is_stmt 0 discriminator 1
 1860 056a FAE1     		b	.L13
 1861              	.L45:
 1862              		.loc 6 171 0 is_stmt 1
 1863 056c 0023     		movs	r3, #0
 1864 056e 0393     		str	r3, [sp, #12]
 1865 0570 22E0     		b	.L46
 1866              	.L48:
 1867              		.loc 6 172 0
 1868 0572 FFF7FEFF 		bl	chSysLock
 1869              		.loc 6 173 0
ARM GAS  /tmp/ccuZSfQH.s 			page 89


 1870 0576 01AB     		add	r3, sp, #4
 1871 0578 40F20000 		movw	r0, #:lower16:mb1
 1872 057c C0F20000 		movt	r0, #:upper16:mb1
 1873 0580 1946     		mov	r1, r3
 1874 0582 FFF7FEFF 		bl	chMBFetchI
 1875 0586 0290     		str	r0, [sp, #8]
 1876              		.loc 6 174 0
 1877 0588 FFF7FEFF 		bl	chSysUnlock
 1878              		.loc 6 175 0
 1879 058c 029B     		ldr	r3, [sp, #8]
 1880 058e 002B     		cmp	r3, #0
 1881 0590 14BF     		ite	ne
 1882 0592 0023     		movne	r3, #0
 1883 0594 0123     		moveq	r3, #1
 1884 0596 DBB2     		uxtb	r3, r3
 1885 0598 1C20     		movs	r0, #28
 1886 059a 1946     		mov	r1, r3
 1887 059c FFF7FEFF 		bl	_test_assert
 1888 05a0 0346     		mov	r3, r0
 1889 05a2 002B     		cmp	r3, #0
 1890 05a4 00D0     		beq	.L47
 1891              		.loc 6 175 0 is_stmt 0 discriminator 1
 1892 05a6 DCE1     		b	.L13
 1893              	.L47:
 1894              		.loc 6 176 0 is_stmt 1
 1895 05a8 019B     		ldr	r3, [sp, #4]
 1896 05aa DBB2     		uxtb	r3, r3
 1897 05ac 1846     		mov	r0, r3
 1898 05ae FFF7FEFF 		bl	test_emit_token
 1899              		.loc 6 171 0
 1900 05b2 039B     		ldr	r3, [sp, #12]
 1901 05b4 0133     		adds	r3, r3, #1
 1902 05b6 0393     		str	r3, [sp, #12]
 1903              	.L46:
 1904              		.loc 6 171 0 is_stmt 0 discriminator 1
 1905 05b8 039B     		ldr	r3, [sp, #12]
 1906 05ba 042B     		cmp	r3, #4
 1907 05bc D9D9     		bls	.L48
 1908              		.loc 6 178 0 is_stmt 1
 1909 05be 1D20     		movs	r0, #29
 1910 05c0 40F20001 		movw	r1, #:lower16:.LC0
 1911 05c4 C0F20001 		movt	r1, #:upper16:.LC0
 1912 05c8 FFF7FEFF 		bl	_test_assert_sequence
 1913 05cc 0346     		mov	r3, r0
 1914 05ce 002B     		cmp	r3, #0
 1915 05d0 00D0     		beq	.L49
 1916              		.loc 6 178 0 is_stmt 0 discriminator 1
 1917 05d2 C6E1     		b	.L13
 1918              	.L49:
 1919              		.loc 6 179 0 is_stmt 1
 1920 05d4 FFF7FEFF 		bl	chSysLock
 1921 05d8 40F20000 		movw	r0, #:lower16:mb1
 1922 05dc C0F20000 		movt	r0, #:upper16:mb1
 1923 05e0 FFF7FEFF 		bl	chMBGetFreeCountI
 1924 05e4 0346     		mov	r3, r0
 1925 05e6 052B     		cmp	r3, #5
 1926 05e8 14BF     		ite	ne
ARM GAS  /tmp/ccuZSfQH.s 			page 90


 1927 05ea 0023     		movne	r3, #0
 1928 05ec 0123     		moveq	r3, #1
 1929 05ee DBB2     		uxtb	r3, r3
 1930 05f0 1E20     		movs	r0, #30
 1931 05f2 1946     		mov	r1, r3
 1932 05f4 FFF7FEFF 		bl	_test_assert
 1933 05f8 0346     		mov	r3, r0
 1934 05fa 002B     		cmp	r3, #0
 1935 05fc 02D0     		beq	.L50
 1936              		.loc 6 179 0 is_stmt 0 discriminator 1
 1937 05fe FFF7FEFF 		bl	chSysUnlock
 1938 0602 AEE1     		b	.L13
 1939              	.L50:
 1940              		.loc 6 179 0 discriminator 2
 1941 0604 FFF7FEFF 		bl	chSysUnlock
 1942              		.loc 6 180 0 is_stmt 1 discriminator 2
 1943 0608 FFF7FEFF 		bl	chSysLock
 1944 060c 40F20000 		movw	r0, #:lower16:mb1
 1945 0610 C0F20000 		movt	r0, #:upper16:mb1
 1946 0614 FFF7FEFF 		bl	chMBGetUsedCountI
 1947 0618 0346     		mov	r3, r0
 1948 061a 002B     		cmp	r3, #0
 1949 061c 14BF     		ite	ne
 1950 061e 0023     		movne	r3, #0
 1951 0620 0123     		moveq	r3, #1
 1952 0622 DBB2     		uxtb	r3, r3
 1953 0624 1F20     		movs	r0, #31
 1954 0626 1946     		mov	r1, r3
 1955 0628 FFF7FEFF 		bl	_test_assert
 1956 062c 0346     		mov	r3, r0
 1957 062e 002B     		cmp	r3, #0
 1958 0630 02D0     		beq	.L51
 1959              		.loc 6 180 0 is_stmt 0 discriminator 1
 1960 0632 FFF7FEFF 		bl	chSysUnlock
 1961 0636 94E1     		b	.L13
 1962              	.L51:
 1963              		.loc 6 180 0 discriminator 2
 1964 0638 FFF7FEFF 		bl	chSysUnlock
 1965              		.loc 6 181 0 is_stmt 1 discriminator 2
 1966 063c 40F20003 		movw	r3, #:lower16:mb1
 1967 0640 C0F20003 		movt	r3, #:upper16:mb1
 1968 0644 DA68     		ldr	r2, [r3, #12]
 1969 0646 40F20003 		movw	r3, #:lower16:mb1
 1970 064a C0F20003 		movt	r3, #:upper16:mb1
 1971 064e 9B68     		ldr	r3, [r3, #8]
 1972 0650 9A42     		cmp	r2, r3
 1973 0652 14BF     		ite	ne
 1974 0654 0023     		movne	r3, #0
 1975 0656 0123     		moveq	r3, #1
 1976 0658 DBB2     		uxtb	r3, r3
 1977 065a 2020     		movs	r0, #32
 1978 065c 1946     		mov	r1, r3
 1979 065e FFF7FEFF 		bl	_test_assert
 1980 0662 0346     		mov	r3, r0
 1981 0664 002B     		cmp	r3, #0
 1982 0666 00D0     		beq	.L52
 1983              		.loc 6 181 0 is_stmt 0 discriminator 1
ARM GAS  /tmp/ccuZSfQH.s 			page 91


 1984 0668 7BE1     		b	.L13
 1985              	.L52:
 1986              		.loc 6 183 0 is_stmt 1
 1987 066a FFF7FEFF 		bl	chSysLock
 1988              		.loc 6 184 0
 1989 066e 40F20000 		movw	r0, #:lower16:mb1
 1990 0672 C0F20000 		movt	r0, #:upper16:mb1
 1991 0676 4521     		movs	r1, #69
 1992 0678 FFF7FEFF 		bl	chMBPostAheadI
 1993 067c 0290     		str	r0, [sp, #8]
 1994              		.loc 6 185 0
 1995 067e 029B     		ldr	r3, [sp, #8]
 1996 0680 002B     		cmp	r3, #0
 1997 0682 14BF     		ite	ne
 1998 0684 0023     		movne	r3, #0
 1999 0686 0123     		moveq	r3, #1
 2000 0688 DBB2     		uxtb	r3, r3
 2001 068a 2120     		movs	r0, #33
 2002 068c 1946     		mov	r1, r3
 2003 068e FFF7FEFF 		bl	_test_assert
 2004 0692 0346     		mov	r3, r0
 2005 0694 002B     		cmp	r3, #0
 2006 0696 00D0     		beq	.L53
 2007              		.loc 6 185 0 is_stmt 0 discriminator 1
 2008 0698 63E1     		b	.L13
 2009              	.L53:
 2010              		.loc 6 186 0 is_stmt 1
 2011 069a 40F20000 		movw	r0, #:lower16:mb1
 2012 069e C0F20000 		movt	r0, #:upper16:mb1
 2013 06a2 4421     		movs	r1, #68
 2014 06a4 FFF7FEFF 		bl	chMBPostAheadI
 2015 06a8 0290     		str	r0, [sp, #8]
 2016              		.loc 6 187 0
 2017 06aa 029B     		ldr	r3, [sp, #8]
 2018 06ac 002B     		cmp	r3, #0
 2019 06ae 14BF     		ite	ne
 2020 06b0 0023     		movne	r3, #0
 2021 06b2 0123     		moveq	r3, #1
 2022 06b4 DBB2     		uxtb	r3, r3
 2023 06b6 2220     		movs	r0, #34
 2024 06b8 1946     		mov	r1, r3
 2025 06ba FFF7FEFF 		bl	_test_assert
 2026 06be 0346     		mov	r3, r0
 2027 06c0 002B     		cmp	r3, #0
 2028 06c2 00D0     		beq	.L54
 2029              		.loc 6 187 0 is_stmt 0 discriminator 1
 2030 06c4 4DE1     		b	.L13
 2031              	.L54:
 2032              		.loc 6 188 0 is_stmt 1
 2033 06c6 40F20000 		movw	r0, #:lower16:mb1
 2034 06ca C0F20000 		movt	r0, #:upper16:mb1
 2035 06ce 4321     		movs	r1, #67
 2036 06d0 FFF7FEFF 		bl	chMBPostAheadI
 2037 06d4 0290     		str	r0, [sp, #8]
 2038              		.loc 6 189 0
 2039 06d6 029B     		ldr	r3, [sp, #8]
 2040 06d8 002B     		cmp	r3, #0
ARM GAS  /tmp/ccuZSfQH.s 			page 92


 2041 06da 14BF     		ite	ne
 2042 06dc 0023     		movne	r3, #0
 2043 06de 0123     		moveq	r3, #1
 2044 06e0 DBB2     		uxtb	r3, r3
 2045 06e2 2320     		movs	r0, #35
 2046 06e4 1946     		mov	r1, r3
 2047 06e6 FFF7FEFF 		bl	_test_assert
 2048 06ea 0346     		mov	r3, r0
 2049 06ec 002B     		cmp	r3, #0
 2050 06ee 00D0     		beq	.L55
 2051              		.loc 6 189 0 is_stmt 0 discriminator 1
 2052 06f0 37E1     		b	.L13
 2053              	.L55:
 2054              		.loc 6 190 0 is_stmt 1
 2055 06f2 40F20000 		movw	r0, #:lower16:mb1
 2056 06f6 C0F20000 		movt	r0, #:upper16:mb1
 2057 06fa 4221     		movs	r1, #66
 2058 06fc FFF7FEFF 		bl	chMBPostAheadI
 2059 0700 0290     		str	r0, [sp, #8]
 2060              		.loc 6 191 0
 2061 0702 029B     		ldr	r3, [sp, #8]
 2062 0704 002B     		cmp	r3, #0
 2063 0706 14BF     		ite	ne
 2064 0708 0023     		movne	r3, #0
 2065 070a 0123     		moveq	r3, #1
 2066 070c DBB2     		uxtb	r3, r3
 2067 070e 2420     		movs	r0, #36
 2068 0710 1946     		mov	r1, r3
 2069 0712 FFF7FEFF 		bl	_test_assert
 2070 0716 0346     		mov	r3, r0
 2071 0718 002B     		cmp	r3, #0
 2072 071a 00D0     		beq	.L56
 2073              		.loc 6 191 0 is_stmt 0 discriminator 1
 2074 071c 21E1     		b	.L13
 2075              	.L56:
 2076              		.loc 6 192 0 is_stmt 1
 2077 071e 40F20000 		movw	r0, #:lower16:mb1
 2078 0722 C0F20000 		movt	r0, #:upper16:mb1
 2079 0726 4121     		movs	r1, #65
 2080 0728 FFF7FEFF 		bl	chMBPostAheadI
 2081 072c 0290     		str	r0, [sp, #8]
 2082              		.loc 6 193 0
 2083 072e FFF7FEFF 		bl	chSysUnlock
 2084              		.loc 6 194 0
 2085 0732 029B     		ldr	r3, [sp, #8]
 2086 0734 002B     		cmp	r3, #0
 2087 0736 14BF     		ite	ne
 2088 0738 0023     		movne	r3, #0
 2089 073a 0123     		moveq	r3, #1
 2090 073c DBB2     		uxtb	r3, r3
 2091 073e 2520     		movs	r0, #37
 2092 0740 1946     		mov	r1, r3
 2093 0742 FFF7FEFF 		bl	_test_assert
 2094 0746 0346     		mov	r3, r0
 2095 0748 002B     		cmp	r3, #0
 2096 074a 00D0     		beq	.L57
 2097              		.loc 6 194 0 is_stmt 0 discriminator 1
ARM GAS  /tmp/ccuZSfQH.s 			page 93


 2098 074c 09E1     		b	.L13
 2099              	.L57:
 2100              		.loc 6 195 0 is_stmt 1
 2101 074e 40F20003 		movw	r3, #:lower16:mb1
 2102 0752 C0F20003 		movt	r3, #:upper16:mb1
 2103 0756 DA68     		ldr	r2, [r3, #12]
 2104 0758 40F20003 		movw	r3, #:lower16:mb1
 2105 075c C0F20003 		movt	r3, #:upper16:mb1
 2106 0760 9B68     		ldr	r3, [r3, #8]
 2107 0762 9A42     		cmp	r2, r3
 2108 0764 14BF     		ite	ne
 2109 0766 0023     		movne	r3, #0
 2110 0768 0123     		moveq	r3, #1
 2111 076a DBB2     		uxtb	r3, r3
 2112 076c 2620     		movs	r0, #38
 2113 076e 1946     		mov	r1, r3
 2114 0770 FFF7FEFF 		bl	_test_assert
 2115 0774 0346     		mov	r3, r0
 2116 0776 002B     		cmp	r3, #0
 2117 0778 00D0     		beq	.L58
 2118              		.loc 6 195 0 is_stmt 0 discriminator 1
 2119 077a F2E0     		b	.L13
 2120              	.L58:
 2121              		.loc 6 196 0 is_stmt 1
 2122 077c 0023     		movs	r3, #0
 2123 077e 0393     		str	r3, [sp, #12]
 2124 0780 22E0     		b	.L59
 2125              	.L61:
 2126              		.loc 6 197 0
 2127 0782 FFF7FEFF 		bl	chSysLock
 2128              		.loc 6 198 0
 2129 0786 01AB     		add	r3, sp, #4
 2130 0788 40F20000 		movw	r0, #:lower16:mb1
 2131 078c C0F20000 		movt	r0, #:upper16:mb1
 2132 0790 1946     		mov	r1, r3
 2133 0792 FFF7FEFF 		bl	chMBFetchI
 2134 0796 0290     		str	r0, [sp, #8]
 2135              		.loc 6 199 0
 2136 0798 FFF7FEFF 		bl	chSysUnlock
 2137              		.loc 6 200 0
 2138 079c 029B     		ldr	r3, [sp, #8]
 2139 079e 002B     		cmp	r3, #0
 2140 07a0 14BF     		ite	ne
 2141 07a2 0023     		movne	r3, #0
 2142 07a4 0123     		moveq	r3, #1
 2143 07a6 DBB2     		uxtb	r3, r3
 2144 07a8 2720     		movs	r0, #39
 2145 07aa 1946     		mov	r1, r3
 2146 07ac FFF7FEFF 		bl	_test_assert
 2147 07b0 0346     		mov	r3, r0
 2148 07b2 002B     		cmp	r3, #0
 2149 07b4 00D0     		beq	.L60
 2150              		.loc 6 200 0 is_stmt 0 discriminator 1
 2151 07b6 D4E0     		b	.L13
 2152              	.L60:
 2153              		.loc 6 201 0 is_stmt 1
 2154 07b8 019B     		ldr	r3, [sp, #4]
ARM GAS  /tmp/ccuZSfQH.s 			page 94


 2155 07ba DBB2     		uxtb	r3, r3
 2156 07bc 1846     		mov	r0, r3
 2157 07be FFF7FEFF 		bl	test_emit_token
 2158              		.loc 6 196 0
 2159 07c2 039B     		ldr	r3, [sp, #12]
 2160 07c4 0133     		adds	r3, r3, #1
 2161 07c6 0393     		str	r3, [sp, #12]
 2162              	.L59:
 2163              		.loc 6 196 0 is_stmt 0 discriminator 1
 2164 07c8 039B     		ldr	r3, [sp, #12]
 2165 07ca 042B     		cmp	r3, #4
 2166 07cc D9D9     		bls	.L61
 2167              		.loc 6 203 0 is_stmt 1
 2168 07ce 2820     		movs	r0, #40
 2169 07d0 40F20001 		movw	r1, #:lower16:.LC0
 2170 07d4 C0F20001 		movt	r1, #:upper16:.LC0
 2171 07d8 FFF7FEFF 		bl	_test_assert_sequence
 2172 07dc 0346     		mov	r3, r0
 2173 07de 002B     		cmp	r3, #0
 2174 07e0 00D0     		beq	.L62
 2175              		.loc 6 203 0 is_stmt 0 discriminator 1
 2176 07e2 BEE0     		b	.L13
 2177              	.L62:
 2178              		.loc 6 204 0 is_stmt 1
 2179 07e4 FFF7FEFF 		bl	chSysLock
 2180 07e8 40F20000 		movw	r0, #:lower16:mb1
 2181 07ec C0F20000 		movt	r0, #:upper16:mb1
 2182 07f0 FFF7FEFF 		bl	chMBGetFreeCountI
 2183 07f4 0346     		mov	r3, r0
 2184 07f6 052B     		cmp	r3, #5
 2185 07f8 14BF     		ite	ne
 2186 07fa 0023     		movne	r3, #0
 2187 07fc 0123     		moveq	r3, #1
 2188 07fe DBB2     		uxtb	r3, r3
 2189 0800 2920     		movs	r0, #41
 2190 0802 1946     		mov	r1, r3
 2191 0804 FFF7FEFF 		bl	_test_assert
 2192 0808 0346     		mov	r3, r0
 2193 080a 002B     		cmp	r3, #0
 2194 080c 02D0     		beq	.L63
 2195              		.loc 6 204 0 is_stmt 0 discriminator 1
 2196 080e FFF7FEFF 		bl	chSysUnlock
 2197 0812 A6E0     		b	.L13
 2198              	.L63:
 2199              		.loc 6 204 0 discriminator 2
 2200 0814 FFF7FEFF 		bl	chSysUnlock
 2201              		.loc 6 205 0 is_stmt 1 discriminator 2
 2202 0818 FFF7FEFF 		bl	chSysLock
 2203 081c 40F20000 		movw	r0, #:lower16:mb1
 2204 0820 C0F20000 		movt	r0, #:upper16:mb1
 2205 0824 FFF7FEFF 		bl	chMBGetUsedCountI
 2206 0828 0346     		mov	r3, r0
 2207 082a 002B     		cmp	r3, #0
 2208 082c 14BF     		ite	ne
 2209 082e 0023     		movne	r3, #0
 2210 0830 0123     		moveq	r3, #1
 2211 0832 DBB2     		uxtb	r3, r3
ARM GAS  /tmp/ccuZSfQH.s 			page 95


 2212 0834 2A20     		movs	r0, #42
 2213 0836 1946     		mov	r1, r3
 2214 0838 FFF7FEFF 		bl	_test_assert
 2215 083c 0346     		mov	r3, r0
 2216 083e 002B     		cmp	r3, #0
 2217 0840 02D0     		beq	.L64
 2218              		.loc 6 205 0 is_stmt 0 discriminator 1
 2219 0842 FFF7FEFF 		bl	chSysUnlock
 2220 0846 8CE0     		b	.L13
 2221              	.L64:
 2222              		.loc 6 205 0 discriminator 2
 2223 0848 FFF7FEFF 		bl	chSysUnlock
 2224              		.loc 6 206 0 is_stmt 1 discriminator 2
 2225 084c 40F20003 		movw	r3, #:lower16:mb1
 2226 0850 C0F20003 		movt	r3, #:upper16:mb1
 2227 0854 DA68     		ldr	r2, [r3, #12]
 2228 0856 40F20003 		movw	r3, #:lower16:mb1
 2229 085a C0F20003 		movt	r3, #:upper16:mb1
 2230 085e 9B68     		ldr	r3, [r3, #8]
 2231 0860 9A42     		cmp	r2, r3
 2232 0862 14BF     		ite	ne
 2233 0864 0023     		movne	r3, #0
 2234 0866 0123     		moveq	r3, #1
 2235 0868 DBB2     		uxtb	r3, r3
 2236 086a 2B20     		movs	r0, #43
 2237 086c 1946     		mov	r1, r3
 2238 086e FFF7FEFF 		bl	_test_assert
 2239 0872 0346     		mov	r3, r0
 2240 0874 002B     		cmp	r3, #0
 2241 0876 00D0     		beq	.L65
 2242              		.loc 6 206 0 is_stmt 0 discriminator 1
 2243 0878 73E0     		b	.L13
 2244              	.L65:
 2245              		.loc 6 211 0 is_stmt 1
 2246 087a 40F20000 		movw	r0, #:lower16:mb1
 2247 087e C0F20000 		movt	r0, #:upper16:mb1
 2248 0882 FFF7FEFF 		bl	chMBReset
 2249              		.loc 6 216 0
 2250 0886 FFF7FEFF 		bl	chSysLock
 2251 088a 40F20000 		movw	r0, #:lower16:mb1
 2252 088e C0F20000 		movt	r0, #:upper16:mb1
 2253 0892 FFF7FEFF 		bl	chMBGetFreeCountI
 2254 0896 0346     		mov	r3, r0
 2255 0898 052B     		cmp	r3, #5
 2256 089a 14BF     		ite	ne
 2257 089c 0023     		movne	r3, #0
 2258 089e 0123     		moveq	r3, #1
 2259 08a0 DBB2     		uxtb	r3, r3
 2260 08a2 2C20     		movs	r0, #44
 2261 08a4 1946     		mov	r1, r3
 2262 08a6 FFF7FEFF 		bl	_test_assert
 2263 08aa 0346     		mov	r3, r0
 2264 08ac 002B     		cmp	r3, #0
 2265 08ae 02D0     		beq	.L66
 2266              		.loc 6 216 0 is_stmt 0 discriminator 1
 2267 08b0 FFF7FEFF 		bl	chSysUnlock
 2268 08b4 55E0     		b	.L13
ARM GAS  /tmp/ccuZSfQH.s 			page 96


 2269              	.L66:
 2270              		.loc 6 216 0 discriminator 2
 2271 08b6 FFF7FEFF 		bl	chSysUnlock
 2272              		.loc 6 217 0 is_stmt 1 discriminator 2
 2273 08ba FFF7FEFF 		bl	chSysLock
 2274 08be 40F20000 		movw	r0, #:lower16:mb1
 2275 08c2 C0F20000 		movt	r0, #:upper16:mb1
 2276 08c6 FFF7FEFF 		bl	chMBGetUsedCountI
 2277 08ca 0346     		mov	r3, r0
 2278 08cc 002B     		cmp	r3, #0
 2279 08ce 14BF     		ite	ne
 2280 08d0 0023     		movne	r3, #0
 2281 08d2 0123     		moveq	r3, #1
 2282 08d4 DBB2     		uxtb	r3, r3
 2283 08d6 2D20     		movs	r0, #45
 2284 08d8 1946     		mov	r1, r3
 2285 08da FFF7FEFF 		bl	_test_assert
 2286 08de 0346     		mov	r3, r0
 2287 08e0 002B     		cmp	r3, #0
 2288 08e2 02D0     		beq	.L67
 2289              		.loc 6 217 0 is_stmt 0 discriminator 1
 2290 08e4 FFF7FEFF 		bl	chSysUnlock
 2291 08e8 3BE0     		b	.L13
 2292              	.L67:
 2293              		.loc 6 217 0 discriminator 2
 2294 08ea FFF7FEFF 		bl	chSysUnlock
 2295              		.loc 6 218 0 is_stmt 1 discriminator 2
 2296 08ee FFF7FEFF 		bl	chSysLock
 2297 08f2 40F20003 		movw	r3, #:lower16:mb1
 2298 08f6 C0F20003 		movt	r3, #:upper16:mb1
 2299 08fa 1A68     		ldr	r2, [r3]
 2300 08fc 40F20003 		movw	r3, #:lower16:mb1
 2301 0900 C0F20003 		movt	r3, #:upper16:mb1
 2302 0904 9B68     		ldr	r3, [r3, #8]
 2303 0906 9A42     		cmp	r2, r3
 2304 0908 14BF     		ite	ne
 2305 090a 0023     		movne	r3, #0
 2306 090c 0123     		moveq	r3, #1
 2307 090e DBB2     		uxtb	r3, r3
 2308 0910 2E20     		movs	r0, #46
 2309 0912 1946     		mov	r1, r3
 2310 0914 FFF7FEFF 		bl	_test_assert
 2311 0918 0346     		mov	r3, r0
 2312 091a 002B     		cmp	r3, #0
 2313 091c 02D0     		beq	.L68
 2314              		.loc 6 218 0 is_stmt 0 discriminator 1
 2315 091e FFF7FEFF 		bl	chSysUnlock
 2316 0922 1EE0     		b	.L13
 2317              	.L68:
 2318              		.loc 6 218 0 discriminator 2
 2319 0924 FFF7FEFF 		bl	chSysUnlock
 2320              		.loc 6 219 0 is_stmt 1 discriminator 2
 2321 0928 FFF7FEFF 		bl	chSysLock
 2322 092c 40F20003 		movw	r3, #:lower16:mb1
 2323 0930 C0F20003 		movt	r3, #:upper16:mb1
 2324 0934 1A68     		ldr	r2, [r3]
 2325 0936 40F20003 		movw	r3, #:lower16:mb1
ARM GAS  /tmp/ccuZSfQH.s 			page 97


 2326 093a C0F20003 		movt	r3, #:upper16:mb1
 2327 093e DB68     		ldr	r3, [r3, #12]
 2328 0940 9A42     		cmp	r2, r3
 2329 0942 14BF     		ite	ne
 2330 0944 0023     		movne	r3, #0
 2331 0946 0123     		moveq	r3, #1
 2332 0948 DBB2     		uxtb	r3, r3
 2333 094a 2F20     		movs	r0, #47
 2334 094c 1946     		mov	r1, r3
 2335 094e FFF7FEFF 		bl	_test_assert
 2336 0952 0346     		mov	r3, r0
 2337 0954 002B     		cmp	r3, #0
 2338 0956 02D0     		beq	.L69
 2339              		.loc 6 219 0 is_stmt 0 discriminator 1
 2340 0958 FFF7FEFF 		bl	chSysUnlock
 2341 095c 01E0     		b	.L13
 2342              	.L69:
 2343              		.loc 6 219 0 discriminator 2
 2344 095e FFF7FEFF 		bl	chSysUnlock
 2345              	.L13:
 2346              		.loc 6 220 0 is_stmt 1
 2347 0962 05B0     		add	sp, sp, #20
 2348              		@ sp needed
 2349 0964 5DF804FB 		ldr	pc, [sp], #4
 2350              		.cfi_endproc
 2351              	.LFE242:
 2352              		.size	mbox1_execute, .-mbox1_execute
 2353              		.global	testmbox1
 2354 0968 AFF30080 		.section	.rodata
 2354      AFF30080 
 2355 0006 0000     		.align	2
 2356              	.LC1:
 2357 0008 4D61696C 		.ascii	"Mailboxes, queuing and timeouts\000"
 2357      626F7865 
 2357      732C2071 
 2357      75657569 
 2357      6E672061 
 2358              		.section	.rodata.testmbox1,"a",%progbits
 2359              		.align	2
 2360              		.type	testmbox1, %object
 2361              		.size	testmbox1, 16
 2362              	testmbox1:
 2363 0000 08000000 		.word	.LC1
 2364 0004 00000000 		.word	mbox1_setup
 2365 0008 00000000 		.word	0
 2366 000c 00000000 		.word	mbox1_execute
 2367              		.global	patternmbox
 2368              		.section	.rodata.patternmbox,"a",%progbits
 2369              		.align	2
 2370              		.type	patternmbox, %object
 2371              		.size	patternmbox, 8
 2372              	patternmbox:
 2373 0000 00000000 		.word	testmbox1
 2374 0004 00000000 		.word	0
 2375              		.section	.rodata.__func__.5915,"a",%progbits
 2376              		.align	2
 2377              		.type	__func__.5915, %object
ARM GAS  /tmp/ccuZSfQH.s 			page 98


 2378              		.size	__func__.5915, 12
 2379              	__func__.5915:
 2380 0000 63685379 		.ascii	"chSysUnlock\000"
 2380      73556E6C 
 2380      6F636B00 
 2381              		.text
 2382              	.Letext0:
 2383              		.file 7 "/usr/lib/gcc/arm-none-eabi/4.8.2/include/stddef.h"
 2384              		.file 8 "/usr/include/newlib/machine/_default_types.h"
 2385              		.file 9 "/usr/include/newlib/stdint.h"
 2386              		.file 10 "lib/ChibiOS_16.1.4//os/rt/ports/ARMCMx/compilers/GCC/chtypes.h"
 2387              		.file 11 "lib/ChibiOS_16.1.4//os/rt/include/chsystypes.h"
 2388              		.file 12 "lib/ChibiOS_16.1.4//os/rt/include/chschd.h"
 2389              		.file 13 "lib/ChibiOS_16.1.4//os/rt/ports/ARMCMx/chcore.h"
 2390              		.file 14 "lib/ChibiOS_16.1.4//os/rt/include/chdebug.h"
 2391              		.file 15 "lib/ChibiOS_16.1.4//os/rt/include/chtm.h"
 2392              		.file 16 "lib/ChibiOS_16.1.4//os/rt/include/chstats.h"
 2393              		.file 17 "lib/ChibiOS_16.1.4//os/rt/include/chmtx.h"
 2394              		.file 18 "lib/ChibiOS_16.1.4//test/rt/test.h"
 2395              		.file 19 "lib/ChibiOS_16.1.4//os/ext/CMSIS/include/core_cm4.h"
 2396              		.section	.debug_info,"",%progbits
 2397              	.Ldebug_info0:
 2398 0000 FE0A0000 		.4byte	0xafe
 2399 0004 0400     		.2byte	0x4
 2400 0006 00000000 		.4byte	.Ldebug_abbrev0
 2401 000a 04       		.byte	0x4
 2402 000b 01       		.uleb128 0x1
 2403 000c E0020000 		.4byte	.LASF158
 2404 0010 01       		.byte	0x1
 2405 0011 D0050000 		.4byte	.LASF159
 2406 0015 3C010000 		.4byte	.LASF160
 2407 0019 00000000 		.4byte	.Ldebug_ranges0+0
 2408 001d 00000000 		.4byte	0
 2409 0021 00000000 		.4byte	.Ldebug_line0
 2410 0025 02       		.uleb128 0x2
 2411 0026 04       		.byte	0x4
 2412 0027 05       		.byte	0x5
 2413 0028 696E7400 		.ascii	"int\000"
 2414 002c 03       		.uleb128 0x3
 2415 002d 1C000000 		.4byte	.LASF2
 2416 0031 07       		.byte	0x7
 2417 0032 D4       		.byte	0xd4
 2418 0033 37000000 		.4byte	0x37
 2419 0037 04       		.uleb128 0x4
 2420 0038 04       		.byte	0x4
 2421 0039 07       		.byte	0x7
 2422 003a 33020000 		.4byte	.LASF0
 2423 003e 04       		.uleb128 0x4
 2424 003f 01       		.byte	0x1
 2425 0040 06       		.byte	0x6
 2426 0041 30010000 		.4byte	.LASF1
 2427 0045 03       		.uleb128 0x3
 2428 0046 40000000 		.4byte	.LASF3
 2429 004a 08       		.byte	0x8
 2430 004b 1C       		.byte	0x1c
 2431 004c 50000000 		.4byte	0x50
 2432 0050 04       		.uleb128 0x4
ARM GAS  /tmp/ccuZSfQH.s 			page 99


 2433 0051 01       		.byte	0x1
 2434 0052 08       		.byte	0x8
 2435 0053 03050000 		.4byte	.LASF4
 2436 0057 04       		.uleb128 0x4
 2437 0058 02       		.byte	0x2
 2438 0059 05       		.byte	0x5
 2439 005a 41050000 		.4byte	.LASF5
 2440 005e 04       		.uleb128 0x4
 2441 005f 02       		.byte	0x2
 2442 0060 07       		.byte	0x7
 2443 0061 8A020000 		.4byte	.LASF6
 2444 0065 03       		.uleb128 0x3
 2445 0066 BC030000 		.4byte	.LASF7
 2446 006a 08       		.byte	0x8
 2447 006b 37       		.byte	0x37
 2448 006c 70000000 		.4byte	0x70
 2449 0070 04       		.uleb128 0x4
 2450 0071 04       		.byte	0x4
 2451 0072 05       		.byte	0x5
 2452 0073 8E010000 		.4byte	.LASF8
 2453 0077 03       		.uleb128 0x3
 2454 0078 17020000 		.4byte	.LASF9
 2455 007c 08       		.byte	0x8
 2456 007d 38       		.byte	0x38
 2457 007e 82000000 		.4byte	0x82
 2458 0082 04       		.uleb128 0x4
 2459 0083 04       		.byte	0x4
 2460 0084 07       		.byte	0x7
 2461 0085 28060000 		.4byte	.LASF10
 2462 0089 04       		.uleb128 0x4
 2463 008a 08       		.byte	0x8
 2464 008b 05       		.byte	0x5
 2465 008c 22010000 		.4byte	.LASF11
 2466 0090 03       		.uleb128 0x3
 2467 0091 95040000 		.4byte	.LASF12
 2468 0095 08       		.byte	0x8
 2469 0096 4E       		.byte	0x4e
 2470 0097 9B000000 		.4byte	0x9b
 2471 009b 04       		.uleb128 0x4
 2472 009c 08       		.byte	0x8
 2473 009d 07       		.byte	0x7
 2474 009e A8000000 		.4byte	.LASF13
 2475 00a2 03       		.uleb128 0x3
 2476 00a3 EF060000 		.4byte	.LASF14
 2477 00a7 09       		.byte	0x9
 2478 00a8 2A       		.byte	0x2a
 2479 00a9 45000000 		.4byte	0x45
 2480 00ad 03       		.uleb128 0x3
 2481 00ae FB040000 		.4byte	.LASF15
 2482 00b2 09       		.byte	0x9
 2483 00b3 41       		.byte	0x41
 2484 00b4 65000000 		.4byte	0x65
 2485 00b8 03       		.uleb128 0x3
 2486 00b9 F7050000 		.4byte	.LASF16
 2487 00bd 09       		.byte	0x9
 2488 00be 42       		.byte	0x42
 2489 00bf 77000000 		.4byte	0x77
ARM GAS  /tmp/ccuZSfQH.s 			page 100


 2490 00c3 03       		.uleb128 0x3
 2491 00c4 2A000000 		.4byte	.LASF17
 2492 00c8 09       		.byte	0x9
 2493 00c9 4E       		.byte	0x4e
 2494 00ca 90000000 		.4byte	0x90
 2495 00ce 03       		.uleb128 0x3
 2496 00cf AA060000 		.4byte	.LASF18
 2497 00d3 0A       		.byte	0xa
 2498 00d4 39       		.byte	0x39
 2499 00d5 B8000000 		.4byte	0xb8
 2500 00d9 03       		.uleb128 0x3
 2501 00da 12010000 		.4byte	.LASF19
 2502 00de 0A       		.byte	0xa
 2503 00df 3A       		.byte	0x3a
 2504 00e0 C3000000 		.4byte	0xc3
 2505 00e4 03       		.uleb128 0x3
 2506 00e5 83030000 		.4byte	.LASF20
 2507 00e9 0A       		.byte	0xa
 2508 00ea 3C       		.byte	0x3c
 2509 00eb A2000000 		.4byte	0xa2
 2510 00ef 03       		.uleb128 0x3
 2511 00f0 97010000 		.4byte	.LASF21
 2512 00f4 0A       		.byte	0xa
 2513 00f5 3D       		.byte	0x3d
 2514 00f6 A2000000 		.4byte	0xa2
 2515 00fa 03       		.uleb128 0x3
 2516 00fb B9040000 		.4byte	.LASF22
 2517 00ff 0A       		.byte	0xa
 2518 0100 3E       		.byte	0x3e
 2519 0101 A2000000 		.4byte	0xa2
 2520 0105 03       		.uleb128 0x3
 2521 0106 EA040000 		.4byte	.LASF23
 2522 010a 0A       		.byte	0xa
 2523 010b 40       		.byte	0x40
 2524 010c B8000000 		.4byte	0xb8
 2525 0110 03       		.uleb128 0x3
 2526 0111 C2020000 		.4byte	.LASF24
 2527 0115 0A       		.byte	0xa
 2528 0116 41       		.byte	0x41
 2529 0117 AD000000 		.4byte	0xad
 2530 011b 03       		.uleb128 0x3
 2531 011c B0030000 		.4byte	.LASF25
 2532 0120 0A       		.byte	0xa
 2533 0121 43       		.byte	0x43
 2534 0122 B8000000 		.4byte	0xb8
 2535 0126 03       		.uleb128 0x3
 2536 0127 22020000 		.4byte	.LASF26
 2537 012b 0A       		.byte	0xa
 2538 012c 45       		.byte	0x45
 2539 012d AD000000 		.4byte	0xad
 2540 0131 03       		.uleb128 0x3
 2541 0132 CD020000 		.4byte	.LASF27
 2542 0136 0A       		.byte	0xa
 2543 0137 46       		.byte	0x46
 2544 0138 B8000000 		.4byte	0xb8
 2545 013c 03       		.uleb128 0x3
 2546 013d 54060000 		.4byte	.LASF28
ARM GAS  /tmp/ccuZSfQH.s 			page 101


 2547 0141 0B       		.byte	0xb
 2548 0142 33       		.byte	0x33
 2549 0143 B8000000 		.4byte	0xb8
 2550 0147 03       		.uleb128 0x3
 2551 0148 3F060000 		.4byte	.LASF29
 2552 014c 0B       		.byte	0xb
 2553 014d 3F       		.byte	0x3f
 2554 014e 52010000 		.4byte	0x152
 2555 0152 05       		.uleb128 0x5
 2556 0153 AC020000 		.4byte	.LASF51
 2557 0157 60       		.byte	0x60
 2558 0158 0C       		.byte	0xc
 2559 0159 C2       		.byte	0xc2
 2560 015a 58020000 		.4byte	0x258
 2561 015e 06       		.uleb128 0x6
 2562 015f 61050000 		.4byte	.LASF30
 2563 0163 0C       		.byte	0xc
 2564 0164 C3       		.byte	0xc3
 2565 0165 63020000 		.4byte	0x263
 2566 0169 00       		.byte	0
 2567 016a 06       		.uleb128 0x6
 2568 016b DB040000 		.4byte	.LASF31
 2569 016f 0C       		.byte	0xc
 2570 0170 C5       		.byte	0xc5
 2571 0171 63020000 		.4byte	0x263
 2572 0175 04       		.byte	0x4
 2573 0176 06       		.uleb128 0x6
 2574 0177 1B010000 		.4byte	.LASF32
 2575 017b 0C       		.byte	0xc
 2576 017c C7       		.byte	0xc7
 2577 017d 05010000 		.4byte	0x105
 2578 0181 08       		.byte	0x8
 2579 0182 06       		.uleb128 0x6
 2580 0183 50070000 		.4byte	.LASF33
 2581 0187 0C       		.byte	0xc
 2582 0188 C8       		.byte	0xc8
 2583 0189 CC040000 		.4byte	0x4cc
 2584 018d 0C       		.byte	0xc
 2585 018e 06       		.uleb128 0x6
 2586 018f AD010000 		.4byte	.LASF34
 2587 0193 0C       		.byte	0xc
 2588 0194 CA       		.byte	0xca
 2589 0195 63020000 		.4byte	0x263
 2590 0199 10       		.byte	0x10
 2591 019a 06       		.uleb128 0x6
 2592 019b 3C040000 		.4byte	.LASF35
 2593 019f 0C       		.byte	0xc
 2594 01a0 CB       		.byte	0xcb
 2595 01a1 63020000 		.4byte	0x263
 2596 01a5 14       		.byte	0x14
 2597 01a6 06       		.uleb128 0x6
 2598 01a7 FE060000 		.4byte	.LASF36
 2599 01ab 0C       		.byte	0xc
 2600 01ac D2       		.byte	0xd2
 2601 01ad 70070000 		.4byte	0x770
 2602 01b1 18       		.byte	0x18
 2603 01b2 06       		.uleb128 0x6
ARM GAS  /tmp/ccuZSfQH.s 			page 102


 2604 01b3 28020000 		.4byte	.LASF37
 2605 01b7 0C       		.byte	0xc
 2606 01b8 D8       		.byte	0xd8
 2607 01b9 82070000 		.4byte	0x782
 2608 01bd 1C       		.byte	0x1c
 2609 01be 06       		.uleb128 0x6
 2610 01bf 4B050000 		.4byte	.LASF38
 2611 01c3 0C       		.byte	0xc
 2612 01c4 DD       		.byte	0xdd
 2613 01c5 EF000000 		.4byte	0xef
 2614 01c9 20       		.byte	0x20
 2615 01ca 06       		.uleb128 0x6
 2616 01cb 68050000 		.4byte	.LASF39
 2617 01cf 0C       		.byte	0xc
 2618 01d0 E1       		.byte	0xe1
 2619 01d1 E4000000 		.4byte	0xe4
 2620 01d5 21       		.byte	0x21
 2621 01d6 06       		.uleb128 0x6
 2622 01d7 DA060000 		.4byte	.LASF40
 2623 01db 0C       		.byte	0xc
 2624 01dc E6       		.byte	0xe6
 2625 01dd FA000000 		.4byte	0xfa
 2626 01e1 22       		.byte	0x22
 2627 01e2 07       		.uleb128 0x7
 2628 01e3 705F7500 		.ascii	"p_u\000"
 2629 01e7 0C       		.byte	0xc
 2630 01e8 3101     		.2byte	0x131
 2631 01ea AB060000 		.4byte	0x6ab
 2632 01ee 24       		.byte	0x24
 2633 01ef 08       		.uleb128 0x8
 2634 01f0 DB030000 		.4byte	.LASF41
 2635 01f4 0C       		.byte	0xc
 2636 01f5 3601     		.2byte	0x136
 2637 01f7 69020000 		.4byte	0x269
 2638 01fb 28       		.byte	0x28
 2639 01fc 08       		.uleb128 0x8
 2640 01fd 59020000 		.4byte	.LASF42
 2641 0201 0C       		.byte	0xc
 2642 0202 3C01     		.2byte	0x13c
 2643 0204 8D020000 		.4byte	0x28d
 2644 0208 2C       		.byte	0x2c
 2645 0209 08       		.uleb128 0x8
 2646 020a 2D070000 		.4byte	.LASF43
 2647 020e 0C       		.byte	0xc
 2648 020f 4001     		.2byte	0x140
 2649 0211 10010000 		.4byte	0x110
 2650 0215 34       		.byte	0x34
 2651 0216 08       		.uleb128 0x8
 2652 0217 C5050000 		.4byte	.LASF44
 2653 021b 0C       		.byte	0xc
 2654 021c 4601     		.2byte	0x146
 2655 021e 1B010000 		.4byte	0x11b
 2656 0222 38       		.byte	0x38
 2657 0223 08       		.uleb128 0x8
 2658 0224 37050000 		.4byte	.LASF45
 2659 0228 0C       		.byte	0xc
 2660 0229 4D01     		.2byte	0x14d
ARM GAS  /tmp/ccuZSfQH.s 			page 103


 2661 022b 6A070000 		.4byte	0x76a
 2662 022f 3C       		.byte	0x3c
 2663 0230 08       		.uleb128 0x8
 2664 0231 5E060000 		.4byte	.LASF46
 2665 0235 0C       		.byte	0xc
 2666 0236 5101     		.2byte	0x151
 2667 0238 05010000 		.4byte	0x105
 2668 023c 40       		.byte	0x40
 2669 023d 08       		.uleb128 0x8
 2670 023e 5B010000 		.4byte	.LASF47
 2671 0242 0C       		.byte	0xc
 2672 0243 5801     		.2byte	0x158
 2673 0245 40030000 		.4byte	0x340
 2674 0249 44       		.byte	0x44
 2675 024a 08       		.uleb128 0x8
 2676 024b 70050000 		.4byte	.LASF48
 2677 024f 0C       		.byte	0xc
 2678 0250 5E01     		.2byte	0x15e
 2679 0252 5C060000 		.4byte	0x65c
 2680 0256 48       		.byte	0x48
 2681 0257 00       		.byte	0
 2682 0258 03       		.uleb128 0x3
 2683 0259 EE030000 		.4byte	.LASF49
 2684 025d 0B       		.byte	0xb
 2685 025e 44       		.byte	0x44
 2686 025f 63020000 		.4byte	0x263
 2687 0263 09       		.uleb128 0x9
 2688 0264 04       		.byte	0x4
 2689 0265 47010000 		.4byte	0x147
 2690 0269 03       		.uleb128 0x3
 2691 026a 05070000 		.4byte	.LASF50
 2692 026e 0B       		.byte	0xb
 2693 026f 49       		.byte	0x49
 2694 0270 74020000 		.4byte	0x274
 2695 0274 05       		.uleb128 0x5
 2696 0275 18060000 		.4byte	.LASF52
 2697 0279 04       		.byte	0x4
 2698 027a 0C       		.byte	0xc
 2699 027b B0       		.byte	0xb0
 2700 027c 8D020000 		.4byte	0x28d
 2701 0280 06       		.uleb128 0x6
 2702 0281 61050000 		.4byte	.LASF30
 2703 0285 0C       		.byte	0xc
 2704 0286 B1       		.byte	0xb1
 2705 0287 63020000 		.4byte	0x263
 2706 028b 00       		.byte	0
 2707 028c 00       		.byte	0
 2708 028d 03       		.uleb128 0x3
 2709 028e 8E050000 		.4byte	.LASF53
 2710 0292 0B       		.byte	0xb
 2711 0293 50       		.byte	0x50
 2712 0294 98020000 		.4byte	0x298
 2713 0298 05       		.uleb128 0x5
 2714 0299 56000000 		.4byte	.LASF54
 2715 029d 08       		.byte	0x8
 2716 029e 0C       		.byte	0xc
 2717 029f B7       		.byte	0xb7
ARM GAS  /tmp/ccuZSfQH.s 			page 104


 2718 02a0 BD020000 		.4byte	0x2bd
 2719 02a4 06       		.uleb128 0x6
 2720 02a5 61050000 		.4byte	.LASF30
 2721 02a9 0C       		.byte	0xc
 2722 02aa B8       		.byte	0xb8
 2723 02ab 63020000 		.4byte	0x263
 2724 02af 00       		.byte	0
 2725 02b0 06       		.uleb128 0x6
 2726 02b1 DB040000 		.4byte	.LASF31
 2727 02b5 0C       		.byte	0xc
 2728 02b6 B9       		.byte	0xb9
 2729 02b7 63020000 		.4byte	0x263
 2730 02bb 04       		.byte	0x4
 2731 02bc 00       		.byte	0
 2732 02bd 03       		.uleb128 0x3
 2733 02be 07000000 		.4byte	.LASF55
 2734 02c2 0B       		.byte	0xb
 2735 02c3 57       		.byte	0x57
 2736 02c4 C8020000 		.4byte	0x2c8
 2737 02c8 0A       		.uleb128 0xa
 2738 02c9 A2030000 		.4byte	.LASF56
 2739 02cd 1C       		.byte	0x1c
 2740 02ce 0C       		.byte	0xc
 2741 02cf 9001     		.2byte	0x190
 2742 02d1 24030000 		.4byte	0x324
 2743 02d5 08       		.uleb128 0x8
 2744 02d6 07060000 		.4byte	.LASF57
 2745 02da 0C       		.byte	0xc
 2746 02db 9101     		.2byte	0x191
 2747 02dd 8D020000 		.4byte	0x28d
 2748 02e1 00       		.byte	0
 2749 02e2 08       		.uleb128 0x8
 2750 02e3 53050000 		.4byte	.LASF58
 2751 02e7 0C       		.byte	0xc
 2752 02e8 9201     		.2byte	0x192
 2753 02ea 05010000 		.4byte	0x105
 2754 02ee 08       		.byte	0x8
 2755 02ef 08       		.uleb128 0x8
 2756 02f0 44040000 		.4byte	.LASF59
 2757 02f4 0C       		.byte	0xc
 2758 02f5 9401     		.2byte	0x194
 2759 02f7 CC040000 		.4byte	0x4cc
 2760 02fb 0C       		.byte	0xc
 2761 02fc 08       		.uleb128 0x8
 2762 02fd D7010000 		.4byte	.LASF60
 2763 0301 0C       		.byte	0xc
 2764 0302 9701     		.2byte	0x197
 2765 0304 63020000 		.4byte	0x263
 2766 0308 10       		.byte	0x10
 2767 0309 08       		.uleb128 0x8
 2768 030a 8D040000 		.4byte	.LASF61
 2769 030e 0C       		.byte	0xc
 2770 030f 9801     		.2byte	0x198
 2771 0311 63020000 		.4byte	0x263
 2772 0315 14       		.byte	0x14
 2773 0316 08       		.uleb128 0x8
 2774 0317 83040000 		.4byte	.LASF62
ARM GAS  /tmp/ccuZSfQH.s 			page 105


 2775 031b 0C       		.byte	0xc
 2776 031c 9B01     		.2byte	0x19b
 2777 031e 63020000 		.4byte	0x263
 2778 0322 18       		.byte	0x18
 2779 0323 00       		.byte	0
 2780 0324 03       		.uleb128 0x3
 2781 0325 69060000 		.4byte	.LASF63
 2782 0329 0B       		.byte	0xb
 2783 032a 5C       		.byte	0x5c
 2784 032b 2F030000 		.4byte	0x32f
 2785 032f 09       		.uleb128 0x9
 2786 0330 04       		.byte	0x4
 2787 0331 35030000 		.4byte	0x335
 2788 0335 0B       		.uleb128 0xb
 2789 0336 40030000 		.4byte	0x340
 2790 033a 0C       		.uleb128 0xc
 2791 033b 40030000 		.4byte	0x340
 2792 033f 00       		.byte	0
 2793 0340 0D       		.uleb128 0xd
 2794 0341 04       		.byte	0x4
 2795 0342 03       		.uleb128 0x3
 2796 0343 CB040000 		.4byte	.LASF64
 2797 0347 0B       		.byte	0xb
 2798 0348 61       		.byte	0x61
 2799 0349 4D030000 		.4byte	0x34d
 2800 034d 0A       		.uleb128 0xa
 2801 034e 9E050000 		.4byte	.LASF65
 2802 0352 14       		.byte	0x14
 2803 0353 0C       		.byte	0xc
 2804 0354 6B01     		.2byte	0x16b
 2805 0356 9C030000 		.4byte	0x39c
 2806 035a 08       		.uleb128 0x8
 2807 035b 40020000 		.4byte	.LASF66
 2808 035f 0C       		.byte	0xc
 2809 0360 6C01     		.2byte	0x16c
 2810 0362 88070000 		.4byte	0x788
 2811 0366 00       		.byte	0
 2812 0367 08       		.uleb128 0x8
 2813 0368 E8010000 		.4byte	.LASF67
 2814 036c 0C       		.byte	0xc
 2815 036d 6D01     		.2byte	0x16d
 2816 036f 88070000 		.4byte	0x788
 2817 0373 04       		.byte	0x4
 2818 0374 08       		.uleb128 0x8
 2819 0375 0F060000 		.4byte	.LASF68
 2820 0379 0C       		.byte	0xc
 2821 037a 6E01     		.2byte	0x16e
 2822 037c 3C010000 		.4byte	0x13c
 2823 0380 08       		.byte	0x8
 2824 0381 08       		.uleb128 0x8
 2825 0382 56070000 		.4byte	.LASF69
 2826 0386 0C       		.byte	0xc
 2827 0387 6F01     		.2byte	0x16f
 2828 0389 24030000 		.4byte	0x324
 2829 038d 0C       		.byte	0xc
 2830 038e 08       		.uleb128 0x8
 2831 038f B2060000 		.4byte	.LASF70
ARM GAS  /tmp/ccuZSfQH.s 			page 106


 2832 0393 0C       		.byte	0xc
 2833 0394 7101     		.2byte	0x171
 2834 0396 40030000 		.4byte	0x340
 2835 039a 10       		.byte	0x10
 2836 039b 00       		.byte	0
 2837 039c 03       		.uleb128 0x3
 2838 039d F3000000 		.4byte	.LASF71
 2839 03a1 0B       		.byte	0xb
 2840 03a2 66       		.byte	0x66
 2841 03a3 A7030000 		.4byte	0x3a7
 2842 03a7 0A       		.uleb128 0xa
 2843 03a8 01040000 		.4byte	.LASF72
 2844 03ac 10       		.byte	0x10
 2845 03ad 0C       		.byte	0xc
 2846 03ae 7B01     		.2byte	0x17b
 2847 03b0 E9030000 		.4byte	0x3e9
 2848 03b4 08       		.uleb128 0x8
 2849 03b5 40020000 		.4byte	.LASF66
 2850 03b9 0C       		.byte	0xc
 2851 03ba 7C01     		.2byte	0x17c
 2852 03bc 88070000 		.4byte	0x788
 2853 03c0 00       		.byte	0
 2854 03c1 08       		.uleb128 0x8
 2855 03c2 E8010000 		.4byte	.LASF67
 2856 03c6 0C       		.byte	0xc
 2857 03c7 7E01     		.2byte	0x17e
 2858 03c9 88070000 		.4byte	0x788
 2859 03cd 04       		.byte	0x4
 2860 03ce 08       		.uleb128 0x8
 2861 03cf 0F060000 		.4byte	.LASF68
 2862 03d3 0C       		.byte	0xc
 2863 03d4 8001     		.2byte	0x180
 2864 03d6 3C010000 		.4byte	0x13c
 2865 03da 08       		.byte	0x8
 2866 03db 08       		.uleb128 0x8
 2867 03dc 30040000 		.4byte	.LASF73
 2868 03e0 0C       		.byte	0xc
 2869 03e1 8801     		.2byte	0x188
 2870 03e3 3C010000 		.4byte	0x13c
 2871 03e7 0C       		.byte	0xc
 2872 03e8 00       		.byte	0
 2873 03e9 03       		.uleb128 0x3
 2874 03ea 67000000 		.4byte	.LASF74
 2875 03ee 0B       		.byte	0xb
 2876 03ef 6B       		.byte	0x6b
 2877 03f0 F4030000 		.4byte	0x3f4
 2878 03f4 0E       		.uleb128 0xe
 2879 03f5 F0010000 		.4byte	.LASF75
 2880 03f9 1404     		.2byte	0x414
 2881 03fb 0C       		.byte	0xc
 2882 03fc A201     		.2byte	0x1a2
 2883 03fe 37040000 		.4byte	0x437
 2884 0402 08       		.uleb128 0x8
 2885 0403 91060000 		.4byte	.LASF76
 2886 0407 0C       		.byte	0xc
 2887 0408 AA01     		.2byte	0x1aa
 2888 040a 8E070000 		.4byte	0x78e
ARM GAS  /tmp/ccuZSfQH.s 			page 107


 2889 040e 00       		.byte	0
 2890 040f 08       		.uleb128 0x8
 2891 0410 E1060000 		.4byte	.LASF77
 2892 0414 0C       		.byte	0xc
 2893 0415 AF01     		.2byte	0x1af
 2894 0417 26010000 		.4byte	0x126
 2895 041b 04       		.byte	0x4
 2896 041c 08       		.uleb128 0x8
 2897 041d 0E020000 		.4byte	.LASF78
 2898 0421 0C       		.byte	0xc
 2899 0422 B301     		.2byte	0x1b3
 2900 0424 26010000 		.4byte	0x126
 2901 0428 08       		.byte	0x8
 2902 0429 08       		.uleb128 0x8
 2903 042a 14070000 		.4byte	.LASF79
 2904 042e 0C       		.byte	0xc
 2905 042f B901     		.2byte	0x1b9
 2906 0431 EE050000 		.4byte	0x5ee
 2907 0435 0C       		.byte	0xc
 2908 0436 00       		.byte	0
 2909 0437 03       		.uleb128 0x3
 2910 0438 D4020000 		.4byte	.LASF80
 2911 043c 0B       		.byte	0xb
 2912 043d 70       		.byte	0x70
 2913 043e 42040000 		.4byte	0x442
 2914 0442 0E       		.uleb128 0xe
 2915 0443 84010000 		.4byte	.LASF81
 2916 0447 D805     		.2byte	0x5d8
 2917 0449 0C       		.byte	0xc
 2918 044a C201     		.2byte	0x1c2
 2919 044c AF040000 		.4byte	0x4af
 2920 0450 08       		.uleb128 0x8
 2921 0451 E9060000 		.4byte	.LASF82
 2922 0455 0C       		.byte	0xc
 2923 0456 C601     		.2byte	0x1c6
 2924 0458 BD020000 		.4byte	0x2bd
 2925 045c 00       		.byte	0
 2926 045d 08       		.uleb128 0x8
 2927 045e 6B010000 		.4byte	.LASF83
 2928 0462 0C       		.byte	0xc
 2929 0463 CA01     		.2byte	0x1ca
 2930 0465 9C030000 		.4byte	0x39c
 2931 0469 1C       		.byte	0x1c
 2932 046a 07       		.uleb128 0x7
 2933 046b 64626700 		.ascii	"dbg\000"
 2934 046f 0C       		.byte	0xc
 2935 0470 CE01     		.2byte	0x1ce
 2936 0472 E9030000 		.4byte	0x3e9
 2937 0476 2C       		.byte	0x2c
 2938 0477 0F       		.uleb128 0xf
 2939 0478 E3000000 		.4byte	.LASF84
 2940 047c 0C       		.byte	0xc
 2941 047d D201     		.2byte	0x1d2
 2942 047f 47010000 		.4byte	0x147
 2943 0483 4004     		.2byte	0x440
 2944 0485 10       		.uleb128 0x10
 2945 0486 746D00   		.ascii	"tm\000"
ARM GAS  /tmp/ccuZSfQH.s 			page 108


 2946 0489 0C       		.byte	0xc
 2947 048a D701     		.2byte	0x1d7
 2948 048c 0E060000 		.4byte	0x60e
 2949 0490 A004     		.2byte	0x4a0
 2950 0492 0F       		.uleb128 0xf
 2951 0493 33000000 		.4byte	.LASF85
 2952 0497 0C       		.byte	0xc
 2953 0498 DD01     		.2byte	0x1dd
 2954 049a A0060000 		.4byte	0x6a0
 2955 049e A804     		.2byte	0x4a8
 2956 04a0 0F       		.uleb128 0xf
 2957 04a1 76000000 		.4byte	.LASF86
 2958 04a5 0C       		.byte	0xc
 2959 04a6 E301     		.2byte	0x1e3
 2960 04a8 93070000 		.4byte	0x793
 2961 04ac E004     		.2byte	0x4e0
 2962 04ae 00       		.byte	0
 2963 04af 04       		.uleb128 0x4
 2964 04b0 04       		.byte	0x4
 2965 04b1 07       		.byte	0x7
 2966 04b2 E5030000 		.4byte	.LASF87
 2967 04b6 03       		.uleb128 0x3
 2968 04b7 DF010000 		.4byte	.LASF88
 2969 04bb 0D       		.byte	0xd
 2970 04bc 65       		.byte	0x65
 2971 04bd 40030000 		.4byte	0x340
 2972 04c1 03       		.uleb128 0x3
 2973 04c2 D0030000 		.4byte	.LASF89
 2974 04c6 0D       		.byte	0xd
 2975 04c7 6D       		.byte	0x6d
 2976 04c8 C3000000 		.4byte	0xc3
 2977 04cc 05       		.uleb128 0x5
 2978 04cd A2060000 		.4byte	.LASF90
 2979 04d1 04       		.byte	0x4
 2980 04d2 0D       		.byte	0xd
 2981 04d3 89       		.byte	0x89
 2982 04d4 E5040000 		.4byte	0x4e5
 2983 04d8 11       		.uleb128 0x11
 2984 04d9 72313300 		.ascii	"r13\000"
 2985 04dd 0D       		.byte	0xd
 2986 04de 8A       		.byte	0x8a
 2987 04df 60050000 		.4byte	0x560
 2988 04e3 00       		.byte	0
 2989 04e4 00       		.byte	0
 2990 04e5 05       		.uleb128 0x5
 2991 04e6 4A000000 		.4byte	.LASF91
 2992 04ea 24       		.byte	0x24
 2993 04eb 01       		.byte	0x1
 2994 04ec FD       		.byte	0xfd
 2995 04ed 60050000 		.4byte	0x560
 2996 04f1 07       		.uleb128 0x7
 2997 04f2 723400   		.ascii	"r4\000"
 2998 04f5 01       		.byte	0x1
 2999 04f6 1001     		.2byte	0x110
 3000 04f8 B6040000 		.4byte	0x4b6
 3001 04fc 00       		.byte	0
 3002 04fd 07       		.uleb128 0x7
ARM GAS  /tmp/ccuZSfQH.s 			page 109


 3003 04fe 723500   		.ascii	"r5\000"
 3004 0501 01       		.byte	0x1
 3005 0502 1101     		.2byte	0x111
 3006 0504 B6040000 		.4byte	0x4b6
 3007 0508 04       		.byte	0x4
 3008 0509 07       		.uleb128 0x7
 3009 050a 723600   		.ascii	"r6\000"
 3010 050d 01       		.byte	0x1
 3011 050e 1201     		.2byte	0x112
 3012 0510 B6040000 		.4byte	0x4b6
 3013 0514 08       		.byte	0x8
 3014 0515 07       		.uleb128 0x7
 3015 0516 723700   		.ascii	"r7\000"
 3016 0519 01       		.byte	0x1
 3017 051a 1301     		.2byte	0x113
 3018 051c B6040000 		.4byte	0x4b6
 3019 0520 0C       		.byte	0xc
 3020 0521 07       		.uleb128 0x7
 3021 0522 723800   		.ascii	"r8\000"
 3022 0525 01       		.byte	0x1
 3023 0526 1401     		.2byte	0x114
 3024 0528 B6040000 		.4byte	0x4b6
 3025 052c 10       		.byte	0x10
 3026 052d 07       		.uleb128 0x7
 3027 052e 723900   		.ascii	"r9\000"
 3028 0531 01       		.byte	0x1
 3029 0532 1501     		.2byte	0x115
 3030 0534 B6040000 		.4byte	0x4b6
 3031 0538 14       		.byte	0x14
 3032 0539 07       		.uleb128 0x7
 3033 053a 72313000 		.ascii	"r10\000"
 3034 053e 01       		.byte	0x1
 3035 053f 1601     		.2byte	0x116
 3036 0541 B6040000 		.4byte	0x4b6
 3037 0545 18       		.byte	0x18
 3038 0546 07       		.uleb128 0x7
 3039 0547 72313100 		.ascii	"r11\000"
 3040 054b 01       		.byte	0x1
 3041 054c 1701     		.2byte	0x117
 3042 054e B6040000 		.4byte	0x4b6
 3043 0552 1C       		.byte	0x1c
 3044 0553 07       		.uleb128 0x7
 3045 0554 6C7200   		.ascii	"lr\000"
 3046 0557 01       		.byte	0x1
 3047 0558 1801     		.2byte	0x118
 3048 055a B6040000 		.4byte	0x4b6
 3049 055e 20       		.byte	0x20
 3050 055f 00       		.byte	0
 3051 0560 09       		.uleb128 0x9
 3052 0561 04       		.byte	0x4
 3053 0562 E5040000 		.4byte	0x4e5
 3054 0566 12       		.uleb128 0x12
 3055 0567 10       		.byte	0x10
 3056 0568 0E       		.byte	0xe
 3057 0569 51       		.byte	0x51
 3058 056a 9F050000 		.4byte	0x59f
 3059 056e 06       		.uleb128 0x6
ARM GAS  /tmp/ccuZSfQH.s 			page 110


 3060 056f 14000000 		.4byte	.LASF92
 3061 0573 0E       		.byte	0xe
 3062 0574 55       		.byte	0x55
 3063 0575 3C010000 		.4byte	0x13c
 3064 0579 00       		.byte	0
 3065 057a 06       		.uleb128 0x6
 3066 057b A0010000 		.4byte	.LASF93
 3067 057f 0E       		.byte	0xe
 3068 0580 59       		.byte	0x59
 3069 0581 63020000 		.4byte	0x263
 3070 0585 04       		.byte	0x4
 3071 0586 06       		.uleb128 0x6
 3072 0587 46070000 		.4byte	.LASF94
 3073 058b 0E       		.byte	0xe
 3074 058c 5D       		.byte	0x5d
 3075 058d 40030000 		.4byte	0x340
 3076 0591 08       		.byte	0x8
 3077 0592 06       		.uleb128 0x6
 3078 0593 D1000000 		.4byte	.LASF95
 3079 0597 0E       		.byte	0xe
 3080 0598 61       		.byte	0x61
 3081 0599 A2000000 		.4byte	0xa2
 3082 059d 0C       		.byte	0xc
 3083 059e 00       		.byte	0
 3084 059f 03       		.uleb128 0x3
 3085 05a0 21040000 		.4byte	.LASF96
 3086 05a4 0E       		.byte	0xe
 3087 05a5 62       		.byte	0x62
 3088 05a6 66050000 		.4byte	0x566
 3089 05aa 13       		.uleb128 0x13
 3090 05ab 0804     		.2byte	0x408
 3091 05ad 0E       		.byte	0xe
 3092 05ae 67       		.byte	0x67
 3093 05af D8050000 		.4byte	0x5d8
 3094 05b3 06       		.uleb128 0x6
 3095 05b4 CF010000 		.4byte	.LASF97
 3096 05b8 0E       		.byte	0xe
 3097 05b9 6B       		.byte	0x6b
 3098 05ba 37000000 		.4byte	0x37
 3099 05be 00       		.byte	0
 3100 05bf 06       		.uleb128 0x6
 3101 05c0 00000000 		.4byte	.LASF98
 3102 05c4 0E       		.byte	0xe
 3103 05c5 6F       		.byte	0x6f
 3104 05c6 D8050000 		.4byte	0x5d8
 3105 05ca 04       		.byte	0x4
 3106 05cb 06       		.uleb128 0x6
 3107 05cc C1040000 		.4byte	.LASF99
 3108 05d0 0E       		.byte	0xe
 3109 05d1 73       		.byte	0x73
 3110 05d2 DE050000 		.4byte	0x5de
 3111 05d6 08       		.byte	0x8
 3112 05d7 00       		.byte	0
 3113 05d8 09       		.uleb128 0x9
 3114 05d9 04       		.byte	0x4
 3115 05da 9F050000 		.4byte	0x59f
 3116 05de 14       		.uleb128 0x14
ARM GAS  /tmp/ccuZSfQH.s 			page 111


 3117 05df 9F050000 		.4byte	0x59f
 3118 05e3 EE050000 		.4byte	0x5ee
 3119 05e7 15       		.uleb128 0x15
 3120 05e8 AF040000 		.4byte	0x4af
 3121 05ec 3F       		.byte	0x3f
 3122 05ed 00       		.byte	0
 3123 05ee 03       		.uleb128 0x3
 3124 05ef BF000000 		.4byte	.LASF100
 3125 05f3 0E       		.byte	0xe
 3126 05f4 74       		.byte	0x74
 3127 05f5 AA050000 		.4byte	0x5aa
 3128 05f9 12       		.uleb128 0x12
 3129 05fa 04       		.byte	0x4
 3130 05fb 0F       		.byte	0xf
 3131 05fc 38       		.byte	0x38
 3132 05fd 0E060000 		.4byte	0x60e
 3133 0601 06       		.uleb128 0x6
 3134 0602 9B060000 		.4byte	.LASF101
 3135 0606 0F       		.byte	0xf
 3136 0607 3C       		.byte	0x3c
 3137 0608 CE000000 		.4byte	0xce
 3138 060c 00       		.byte	0
 3139 060d 00       		.byte	0
 3140 060e 03       		.uleb128 0x3
 3141 060f 54040000 		.4byte	.LASF102
 3142 0613 0F       		.byte	0xf
 3143 0614 3D       		.byte	0x3d
 3144 0615 F9050000 		.4byte	0x5f9
 3145 0619 12       		.uleb128 0x12
 3146 061a 18       		.byte	0x18
 3147 061b 0F       		.byte	0xf
 3148 061c 48       		.byte	0x48
 3149 061d 5C060000 		.4byte	0x65c
 3150 0621 06       		.uleb128 0x6
 3151 0622 48060000 		.4byte	.LASF103
 3152 0626 0F       		.byte	0xf
 3153 0627 49       		.byte	0x49
 3154 0628 CE000000 		.4byte	0xce
 3155 062c 00       		.byte	0
 3156 062d 06       		.uleb128 0x6
 3157 062e 8F000000 		.4byte	.LASF104
 3158 0632 0F       		.byte	0xf
 3159 0633 4A       		.byte	0x4a
 3160 0634 CE000000 		.4byte	0xce
 3161 0638 04       		.byte	0x4
 3162 0639 06       		.uleb128 0x6
 3163 063a C8020000 		.4byte	.LASF105
 3164 063e 0F       		.byte	0xf
 3165 063f 4B       		.byte	0x4b
 3166 0640 CE000000 		.4byte	0xce
 3167 0644 08       		.byte	0x8
 3168 0645 11       		.uleb128 0x11
 3169 0646 6E00     		.ascii	"n\000"
 3170 0648 0F       		.byte	0xf
 3171 0649 4C       		.byte	0x4c
 3172 064a 31010000 		.4byte	0x131
 3173 064e 0C       		.byte	0xc
ARM GAS  /tmp/ccuZSfQH.s 			page 112


 3174 064f 06       		.uleb128 0x6
 3175 0650 A0040000 		.4byte	.LASF106
 3176 0654 0F       		.byte	0xf
 3177 0655 4D       		.byte	0x4d
 3178 0656 D9000000 		.4byte	0xd9
 3179 065a 10       		.byte	0x10
 3180 065b 00       		.byte	0
 3181 065c 03       		.uleb128 0x3
 3182 065d 95000000 		.4byte	.LASF107
 3183 0661 0F       		.byte	0xf
 3184 0662 4E       		.byte	0x4e
 3185 0663 19060000 		.4byte	0x619
 3186 0667 12       		.uleb128 0x12
 3187 0668 38       		.byte	0x38
 3188 0669 10       		.byte	0x10
 3189 066a 38       		.byte	0x38
 3190 066b A0060000 		.4byte	0x6a0
 3191 066f 06       		.uleb128 0x6
 3192 0670 79020000 		.4byte	.LASF108
 3193 0674 10       		.byte	0x10
 3194 0675 39       		.byte	0x39
 3195 0676 31010000 		.4byte	0x131
 3196 067a 00       		.byte	0
 3197 067b 06       		.uleb128 0x6
 3198 067c F2040000 		.4byte	.LASF109
 3199 0680 10       		.byte	0x10
 3200 0681 3A       		.byte	0x3a
 3201 0682 31010000 		.4byte	0x131
 3202 0686 04       		.byte	0x4
 3203 0687 06       		.uleb128 0x6
 3204 0688 33070000 		.4byte	.LASF110
 3205 068c 10       		.byte	0x10
 3206 068d 3B       		.byte	0x3b
 3207 068e 5C060000 		.4byte	0x65c
 3208 0692 08       		.byte	0x8
 3209 0693 06       		.uleb128 0x6
 3210 0694 97030000 		.4byte	.LASF111
 3211 0698 10       		.byte	0x10
 3212 0699 3D       		.byte	0x3d
 3213 069a 5C060000 		.4byte	0x65c
 3214 069e 20       		.byte	0x20
 3215 069f 00       		.byte	0
 3216 06a0 03       		.uleb128 0x3
 3217 06a1 9D020000 		.4byte	.LASF112
 3218 06a5 10       		.byte	0x10
 3219 06a6 3F       		.byte	0x3f
 3220 06a7 67060000 		.4byte	0x667
 3221 06ab 16       		.uleb128 0x16
 3222 06ac 04       		.byte	0x4
 3223 06ad 0C       		.byte	0xc
 3224 06ae FA       		.byte	0xfa
 3225 06af 08070000 		.4byte	0x708
 3226 06b3 17       		.uleb128 0x17
 3227 06b4 23000000 		.4byte	.LASF113
 3228 06b8 0C       		.byte	0xc
 3229 06b9 0101     		.2byte	0x101
 3230 06bb 10010000 		.4byte	0x110
ARM GAS  /tmp/ccuZSfQH.s 			page 113


 3231 06bf 17       		.uleb128 0x17
 3232 06c0 DA000000 		.4byte	.LASF114
 3233 06c4 0C       		.byte	0xc
 3234 06c5 0801     		.2byte	0x108
 3235 06c7 10010000 		.4byte	0x110
 3236 06cb 17       		.uleb128 0x17
 3237 06cc F7060000 		.4byte	.LASF115
 3238 06d0 0C       		.byte	0xc
 3239 06d1 0F01     		.2byte	0x10f
 3240 06d3 40030000 		.4byte	0x340
 3241 06d7 17       		.uleb128 0x17
 3242 06d8 7E010000 		.4byte	.LASF116
 3243 06dc 0C       		.byte	0xc
 3244 06dd 1601     		.2byte	0x116
 3245 06df 08070000 		.4byte	0x708
 3246 06e3 17       		.uleb128 0x17
 3247 06e4 52020000 		.4byte	.LASF117
 3248 06e8 0C       		.byte	0xc
 3249 06e9 1E01     		.2byte	0x11e
 3250 06eb 33070000 		.4byte	0x733
 3251 06ef 17       		.uleb128 0x17
 3252 06f0 00060000 		.4byte	.LASF118
 3253 06f4 0C       		.byte	0xc
 3254 06f5 2701     		.2byte	0x127
 3255 06f7 6A070000 		.4byte	0x76a
 3256 06fb 17       		.uleb128 0x17
 3257 06fc 5A050000 		.4byte	.LASF119
 3258 0700 0C       		.byte	0xc
 3259 0701 2F01     		.2byte	0x12f
 3260 0703 1B010000 		.4byte	0x11b
 3261 0707 00       		.byte	0
 3262 0708 09       		.uleb128 0x9
 3263 0709 04       		.byte	0x4
 3264 070a 58020000 		.4byte	0x258
 3265 070e 05       		.uleb128 0x5
 3266 070f B8050000 		.4byte	.LASF120
 3267 0713 0C       		.byte	0xc
 3268 0714 04       		.byte	0x4
 3269 0715 34       		.byte	0x34
 3270 0716 33070000 		.4byte	0x733
 3271 071a 06       		.uleb128 0x6
 3272 071b B5010000 		.4byte	.LASF121
 3273 071f 04       		.byte	0x4
 3274 0720 35       		.byte	0x35
 3275 0721 8D020000 		.4byte	0x28d
 3276 0725 00       		.byte	0
 3277 0726 06       		.uleb128 0x6
 3278 0727 7F020000 		.4byte	.LASF122
 3279 072b 04       		.byte	0x4
 3280 072c 37       		.byte	0x37
 3281 072d 26010000 		.4byte	0x126
 3282 0731 08       		.byte	0x8
 3283 0732 00       		.byte	0
 3284 0733 09       		.uleb128 0x9
 3285 0734 04       		.byte	0x4
 3286 0735 0E070000 		.4byte	0x70e
 3287 0739 05       		.uleb128 0x5
ARM GAS  /tmp/ccuZSfQH.s 			page 114


 3288 073a D1060000 		.4byte	.LASF123
 3289 073e 10       		.byte	0x10
 3290 073f 11       		.byte	0x11
 3291 0740 39       		.byte	0x39
 3292 0741 6A070000 		.4byte	0x76a
 3293 0745 06       		.uleb128 0x6
 3294 0746 63010000 		.4byte	.LASF124
 3295 074a 11       		.byte	0x11
 3296 074b 3A       		.byte	0x3a
 3297 074c 8D020000 		.4byte	0x28d
 3298 0750 00       		.byte	0
 3299 0751 06       		.uleb128 0x6
 3300 0752 3E070000 		.4byte	.LASF125
 3301 0756 11       		.byte	0x11
 3302 0757 3C       		.byte	0x3c
 3303 0758 63020000 		.4byte	0x263
 3304 075c 08       		.byte	0x8
 3305 075d 06       		.uleb128 0x6
 3306 075e 4D060000 		.4byte	.LASF126
 3307 0762 11       		.byte	0x11
 3308 0763 3E       		.byte	0x3e
 3309 0764 B9070000 		.4byte	0x7b9
 3310 0768 0C       		.byte	0xc
 3311 0769 00       		.byte	0
 3312 076a 09       		.uleb128 0x9
 3313 076b 04       		.byte	0x4
 3314 076c 39070000 		.4byte	0x739
 3315 0770 09       		.uleb128 0x9
 3316 0771 04       		.byte	0x4
 3317 0772 76070000 		.4byte	0x776
 3318 0776 18       		.uleb128 0x18
 3319 0777 7B070000 		.4byte	0x77b
 3320 077b 04       		.uleb128 0x4
 3321 077c 01       		.byte	0x1
 3322 077d 08       		.byte	0x8
 3323 077e 3A060000 		.4byte	.LASF127
 3324 0782 09       		.uleb128 0x9
 3325 0783 04       		.byte	0x4
 3326 0784 C1040000 		.4byte	0x4c1
 3327 0788 09       		.uleb128 0x9
 3328 0789 04       		.byte	0x4
 3329 078a 42030000 		.4byte	0x342
 3330 078e 19       		.uleb128 0x19
 3331 078f 70070000 		.4byte	0x770
 3332 0793 14       		.uleb128 0x14
 3333 0794 C1040000 		.4byte	0x4c1
 3334 0798 A3070000 		.4byte	0x7a3
 3335 079c 15       		.uleb128 0x15
 3336 079d AF040000 		.4byte	0x4af
 3337 07a1 1E       		.byte	0x1e
 3338 07a2 00       		.byte	0
 3339 07a3 03       		.uleb128 0x3
 3340 07a4 82050000 		.4byte	.LASF128
 3341 07a8 04       		.byte	0x4
 3342 07a9 38       		.byte	0x38
 3343 07aa 0E070000 		.4byte	0x70e
 3344 07ae 03       		.uleb128 0x3
ARM GAS  /tmp/ccuZSfQH.s 			page 115


 3345 07af 00020000 		.4byte	.LASF129
 3346 07b3 11       		.byte	0x11
 3347 07b4 34       		.byte	0x34
 3348 07b5 39070000 		.4byte	0x739
 3349 07b9 09       		.uleb128 0x9
 3350 07ba 04       		.byte	0x4
 3351 07bb AE070000 		.4byte	0x7ae
 3352 07bf 12       		.uleb128 0x12
 3353 07c0 28       		.byte	0x28
 3354 07c1 05       		.byte	0x5
 3355 07c2 38       		.byte	0x38
 3356 07c3 10080000 		.4byte	0x810
 3357 07c7 06       		.uleb128 0x6
 3358 07c8 6B040000 		.4byte	.LASF130
 3359 07cc 05       		.byte	0x5
 3360 07cd 39       		.byte	0x39
 3361 07ce 10080000 		.4byte	0x810
 3362 07d2 00       		.byte	0
 3363 07d3 06       		.uleb128 0x6
 3364 07d4 23050000 		.4byte	.LASF131
 3365 07d8 05       		.byte	0x5
 3366 07d9 3B       		.byte	0x3b
 3367 07da 10080000 		.4byte	0x810
 3368 07de 04       		.byte	0x4
 3369 07df 06       		.uleb128 0x6
 3370 07e0 09010000 		.4byte	.LASF132
 3371 07e4 05       		.byte	0x5
 3372 07e5 3D       		.byte	0x3d
 3373 07e6 10080000 		.4byte	0x810
 3374 07ea 08       		.byte	0x8
 3375 07eb 06       		.uleb128 0x6
 3376 07ec 18040000 		.4byte	.LASF133
 3377 07f0 05       		.byte	0x5
 3378 07f1 3E       		.byte	0x3e
 3379 07f2 10080000 		.4byte	0x810
 3380 07f6 0C       		.byte	0xc
 3381 07f7 06       		.uleb128 0x6
 3382 07f8 B9060000 		.4byte	.LASF134
 3383 07fc 05       		.byte	0x5
 3384 07fd 3F       		.byte	0x3f
 3385 07fe A3070000 		.4byte	0x7a3
 3386 0802 10       		.byte	0x10
 3387 0803 06       		.uleb128 0x6
 3388 0804 6D020000 		.4byte	.LASF135
 3389 0808 05       		.byte	0x5
 3390 0809 41       		.byte	0x41
 3391 080a A3070000 		.4byte	0x7a3
 3392 080e 1C       		.byte	0x1c
 3393 080f 00       		.byte	0
 3394 0810 09       		.uleb128 0x9
 3395 0811 04       		.byte	0x4
 3396 0812 10010000 		.4byte	0x110
 3397 0816 03       		.uleb128 0x3
 3398 0817 4A040000 		.4byte	.LASF136
 3399 081b 05       		.byte	0x5
 3400 081c 43       		.byte	0x43
 3401 081d BF070000 		.4byte	0x7bf
ARM GAS  /tmp/ccuZSfQH.s 			page 116


 3402 0821 05       		.uleb128 0x5
 3403 0822 AF050000 		.4byte	.LASF137
 3404 0826 10       		.byte	0x10
 3405 0827 12       		.byte	0x12
 3406 0828 3B       		.byte	0x3b
 3407 0829 5E080000 		.4byte	0x85e
 3408 082d 06       		.uleb128 0x6
 3409 082e 85020000 		.4byte	.LASF138
 3410 0832 12       		.byte	0x12
 3411 0833 3C       		.byte	0x3c
 3412 0834 70070000 		.4byte	0x770
 3413 0838 00       		.byte	0
 3414 0839 06       		.uleb128 0x6
 3415 083a 65040000 		.4byte	.LASF139
 3416 083e 12       		.byte	0x12
 3417 083f 3D       		.byte	0x3d
 3418 0840 5F080000 		.4byte	0x85f
 3419 0844 04       		.byte	0x4
 3420 0845 06       		.uleb128 0x6
 3421 0846 64020000 		.4byte	.LASF140
 3422 084a 12       		.byte	0x12
 3423 084b 3E       		.byte	0x3e
 3424 084c 5F080000 		.4byte	0x85f
 3425 0850 08       		.byte	0x8
 3426 0851 06       		.uleb128 0x6
 3427 0852 E2040000 		.4byte	.LASF141
 3428 0856 12       		.byte	0x12
 3429 0857 3F       		.byte	0x3f
 3430 0858 5F080000 		.4byte	0x85f
 3431 085c 0C       		.byte	0xc
 3432 085d 00       		.byte	0
 3433 085e 1A       		.uleb128 0x1a
 3434 085f 09       		.uleb128 0x9
 3435 0860 04       		.byte	0x4
 3436 0861 5E080000 		.4byte	0x85e
 3437 0865 13       		.uleb128 0x13
 3438 0866 0807     		.2byte	0x708
 3439 0868 12       		.byte	0x12
 3440 0869 44       		.byte	0x44
 3441 086a AA080000 		.4byte	0x8aa
 3442 086e 11       		.uleb128 0x11
 3443 086f 543000   		.ascii	"T0\000"
 3444 0872 12       		.byte	0x12
 3445 0873 45       		.byte	0x45
 3446 0874 AA080000 		.4byte	0x8aa
 3447 0878 00       		.byte	0
 3448 0879 1B       		.uleb128 0x1b
 3449 087a 543100   		.ascii	"T1\000"
 3450 087d 12       		.byte	0x12
 3451 087e 46       		.byte	0x46
 3452 087f AA080000 		.4byte	0x8aa
 3453 0883 6801     		.2byte	0x168
 3454 0885 1B       		.uleb128 0x1b
 3455 0886 543200   		.ascii	"T2\000"
 3456 0889 12       		.byte	0x12
 3457 088a 47       		.byte	0x47
 3458 088b AA080000 		.4byte	0x8aa
ARM GAS  /tmp/ccuZSfQH.s 			page 117


 3459 088f D002     		.2byte	0x2d0
 3460 0891 1B       		.uleb128 0x1b
 3461 0892 543300   		.ascii	"T3\000"
 3462 0895 12       		.byte	0x12
 3463 0896 48       		.byte	0x48
 3464 0897 AA080000 		.4byte	0x8aa
 3465 089b 3804     		.2byte	0x438
 3466 089d 1B       		.uleb128 0x1b
 3467 089e 543400   		.ascii	"T4\000"
 3468 08a1 12       		.byte	0x12
 3469 08a2 49       		.byte	0x49
 3470 08a3 AA080000 		.4byte	0x8aa
 3471 08a7 A005     		.2byte	0x5a0
 3472 08a9 00       		.byte	0
 3473 08aa 14       		.uleb128 0x14
 3474 08ab C1040000 		.4byte	0x4c1
 3475 08af BA080000 		.4byte	0x8ba
 3476 08b3 15       		.uleb128 0x15
 3477 08b4 AF040000 		.4byte	0x4af
 3478 08b8 2C       		.byte	0x2c
 3479 08b9 00       		.byte	0
 3480 08ba 1C       		.uleb128 0x1c
 3481 08bb C4060000 		.4byte	.LASF161
 3482 08bf 0807     		.2byte	0x708
 3483 08c1 12       		.byte	0x12
 3484 08c2 43       		.byte	0x43
 3485 08c3 DD080000 		.4byte	0x8dd
 3486 08c7 1D       		.uleb128 0x1d
 3487 08c8 776100   		.ascii	"wa\000"
 3488 08cb 12       		.byte	0x12
 3489 08cc 4A       		.byte	0x4a
 3490 08cd 65080000 		.4byte	0x865
 3491 08d1 1E       		.uleb128 0x1e
 3492 08d2 A6010000 		.4byte	.LASF142
 3493 08d6 12       		.byte	0x12
 3494 08d7 4B       		.byte	0x4b
 3495 08d8 DD080000 		.4byte	0x8dd
 3496 08dc 00       		.byte	0
 3497 08dd 14       		.uleb128 0x14
 3498 08de A2000000 		.4byte	0xa2
 3499 08e2 EE080000 		.4byte	0x8ee
 3500 08e6 1F       		.uleb128 0x1f
 3501 08e7 AF040000 		.4byte	0x4af
 3502 08eb 0707     		.2byte	0x707
 3503 08ed 00       		.byte	0
 3504 08ee 20       		.uleb128 0x20
 3505 08ef 83060000 		.4byte	.LASF162
 3506 08f3 02       		.byte	0x2
 3507 08f4 2202     		.2byte	0x222
 3508 08f6 03       		.byte	0x3
 3509 08f7 08090000 		.4byte	0x908
 3510 08fb 21       		.uleb128 0x21
 3511 08fc 08020000 		.4byte	.LASF163
 3512 0900 02       		.byte	0x2
 3513 0901 2202     		.2byte	0x222
 3514 0903 B8000000 		.4byte	0xb8
 3515 0907 00       		.byte	0
ARM GAS  /tmp/ccuZSfQH.s 			page 118


 3516 0908 22       		.uleb128 0x22
 3517 0909 85000000 		.4byte	.LASF143
 3518 090d 01       		.byte	0x1
 3519 090e C801     		.2byte	0x1c8
 3520 0910 00000000 		.4byte	.LFB127
 3521 0914 10000000 		.4byte	.LFE127-.LFB127
 3522 0918 01       		.uleb128 0x1
 3523 0919 9C       		.byte	0x9c
 3524 091a 38090000 		.4byte	0x938
 3525 091e 23       		.uleb128 0x23
 3526 091f EE080000 		.4byte	0x8ee
 3527 0923 06000000 		.4byte	.LBB6
 3528 0927 06000000 		.4byte	.LBE6-.LBB6
 3529 092b 01       		.byte	0x1
 3530 092c D001     		.2byte	0x1d0
 3531 092e 24       		.uleb128 0x24
 3532 092f FB080000 		.4byte	0x8fb
 3533 0933 02       		.uleb128 0x2
 3534 0934 91       		.byte	0x91
 3535 0935 7C       		.sleb128 -4
 3536 0936 00       		.byte	0
 3537 0937 00       		.byte	0
 3538 0938 22       		.uleb128 0x22
 3539 0939 72010000 		.4byte	.LASF144
 3540 093d 01       		.byte	0x1
 3541 093e E001     		.2byte	0x1e0
 3542 0940 00000000 		.4byte	.LFB128
 3543 0944 10000000 		.4byte	.LFE128-.LFB128
 3544 0948 01       		.uleb128 0x1
 3545 0949 9C       		.byte	0x9c
 3546 094a 68090000 		.4byte	0x968
 3547 094e 23       		.uleb128 0x23
 3548 094f EE080000 		.4byte	0x8ee
 3549 0953 06000000 		.4byte	.LBB8
 3550 0957 06000000 		.4byte	.LBE8-.LBB8
 3551 095b 01       		.byte	0x1
 3552 095c E301     		.2byte	0x1e3
 3553 095e 24       		.uleb128 0x24
 3554 095f FB080000 		.4byte	0x8fb
 3555 0963 02       		.uleb128 0x2
 3556 0964 91       		.byte	0x91
 3557 0965 7C       		.sleb128 -4
 3558 0966 00       		.byte	0
 3559 0967 00       		.byte	0
 3560 0968 25       		.uleb128 0x25
 3561 0969 78050000 		.4byte	.LASF149
 3562 096d 03       		.byte	0x3
 3563 096e 5A01     		.2byte	0x15a
 3564 0970 00000000 		.4byte	.LFB167
 3565 0974 10000000 		.4byte	.LFE167-.LFB167
 3566 0978 01       		.uleb128 0x1
 3567 0979 9C       		.byte	0x9c
 3568 097a 26       		.uleb128 0x26
 3569 097b 21070000 		.4byte	.LASF145
 3570 097f 03       		.byte	0x3
 3571 0980 6601     		.2byte	0x166
 3572 0982 00000000 		.4byte	.LFB168
ARM GAS  /tmp/ccuZSfQH.s 			page 119


 3573 0986 4E000000 		.4byte	.LFE168-.LFB168
 3574 098a 01       		.uleb128 0x1
 3575 098b 9C       		.byte	0x9c
 3576 098c A0090000 		.4byte	0x9a0
 3577 0990 27       		.uleb128 0x27
 3578 0991 AB040000 		.4byte	.LASF164
 3579 0995 B0090000 		.4byte	0x9b0
 3580 0999 05       		.uleb128 0x5
 3581 099a 03       		.byte	0x3
 3582 099b 00000000 		.4byte	__func__.5915
 3583 099f 00       		.byte	0
 3584 09a0 14       		.uleb128 0x14
 3585 09a1 7B070000 		.4byte	0x77b
 3586 09a5 B0090000 		.4byte	0x9b0
 3587 09a9 15       		.uleb128 0x15
 3588 09aa AF040000 		.4byte	0x4af
 3589 09ae 0B       		.byte	0xb
 3590 09af 00       		.byte	0
 3591 09b0 18       		.uleb128 0x18
 3592 09b1 A0090000 		.4byte	0x9a0
 3593 09b5 28       		.uleb128 0x28
 3594 09b6 72060000 		.4byte	.LASF146
 3595 09ba 04       		.byte	0x4
 3596 09bb 95       		.byte	0x95
 3597 09bc 26010000 		.4byte	0x126
 3598 09c0 00000000 		.4byte	.LFB203
 3599 09c4 16000000 		.4byte	.LFE203-.LFB203
 3600 09c8 01       		.uleb128 0x1
 3601 09c9 9C       		.byte	0x9c
 3602 09ca DC090000 		.4byte	0x9dc
 3603 09ce 29       		.uleb128 0x29
 3604 09cf 737000   		.ascii	"sp\000"
 3605 09d2 04       		.byte	0x4
 3606 09d3 95       		.byte	0x95
 3607 09d4 DC090000 		.4byte	0x9dc
 3608 09d8 02       		.uleb128 0x2
 3609 09d9 91       		.byte	0x91
 3610 09da 74       		.sleb128 -12
 3611 09db 00       		.byte	0
 3612 09dc 09       		.uleb128 0x9
 3613 09dd 04       		.byte	0x4
 3614 09de A3070000 		.4byte	0x7a3
 3615 09e2 28       		.uleb128 0x28
 3616 09e3 BD010000 		.4byte	.LASF147
 3617 09e7 05       		.byte	0x5
 3618 09e8 9E       		.byte	0x9e
 3619 09e9 26010000 		.4byte	0x126
 3620 09ed 00000000 		.4byte	.LFB226
 3621 09f1 1E000000 		.4byte	.LFE226-.LFB226
 3622 09f5 01       		.uleb128 0x1
 3623 09f6 9C       		.byte	0x9c
 3624 09f7 0A0A0000 		.4byte	0xa0a
 3625 09fb 29       		.uleb128 0x29
 3626 09fc 6D627000 		.ascii	"mbp\000"
 3627 0a00 05       		.byte	0x5
 3628 0a01 9E       		.byte	0x9e
 3629 0a02 0A0A0000 		.4byte	0xa0a
ARM GAS  /tmp/ccuZSfQH.s 			page 120


 3630 0a06 02       		.uleb128 0x2
 3631 0a07 91       		.byte	0x91
 3632 0a08 74       		.sleb128 -12
 3633 0a09 00       		.byte	0
 3634 0a0a 09       		.uleb128 0x9
 3635 0a0b 04       		.byte	0x4
 3636 0a0c 16080000 		.4byte	0x816
 3637 0a10 28       		.uleb128 0x28
 3638 0a11 11050000 		.4byte	.LASF148
 3639 0a15 05       		.byte	0x5
 3640 0a16 B1       		.byte	0xb1
 3641 0a17 26010000 		.4byte	0x126
 3642 0a1b 00000000 		.4byte	.LFB227
 3643 0a1f 1E000000 		.4byte	.LFE227-.LFB227
 3644 0a23 01       		.uleb128 0x1
 3645 0a24 9C       		.byte	0x9c
 3646 0a25 380A0000 		.4byte	0xa38
 3647 0a29 29       		.uleb128 0x29
 3648 0a2a 6D627000 		.ascii	"mbp\000"
 3649 0a2e 05       		.byte	0x5
 3650 0a2f B1       		.byte	0xb1
 3651 0a30 0A0A0000 		.4byte	0xa0a
 3652 0a34 02       		.uleb128 0x2
 3653 0a35 91       		.byte	0x91
 3654 0a36 74       		.sleb128 -12
 3655 0a37 00       		.byte	0
 3656 0a38 2A       		.uleb128 0x2a
 3657 0a39 8B030000 		.4byte	.LASF150
 3658 0a3d 06       		.byte	0x6
 3659 0a3e 47       		.byte	0x47
 3660 0a3f 00000000 		.4byte	.LFB241
 3661 0a43 1A000000 		.4byte	.LFE241-.LFB241
 3662 0a47 01       		.uleb128 0x1
 3663 0a48 9C       		.byte	0x9c
 3664 0a49 2B       		.uleb128 0x2b
 3665 0a4a 75040000 		.4byte	.LASF151
 3666 0a4e 06       		.byte	0x6
 3667 0a4f 4C       		.byte	0x4c
 3668 0a50 00000000 		.4byte	.LFB242
 3669 0a54 68090000 		.4byte	.LFE242-.LFB242
 3670 0a58 01       		.uleb128 0x1
 3671 0a59 9C       		.byte	0x9c
 3672 0a5a 870A0000 		.4byte	0xa87
 3673 0a5e 2C       		.uleb128 0x2c
 3674 0a5f 48020000 		.4byte	.LASF152
 3675 0a63 06       		.byte	0x6
 3676 0a64 4D       		.byte	0x4d
 3677 0a65 10010000 		.4byte	0x110
 3678 0a69 02       		.uleb128 0x2
 3679 0a6a 91       		.byte	0x91
 3680 0a6b 70       		.sleb128 -16
 3681 0a6c 2C       		.uleb128 0x2c
 3682 0a6d 4D020000 		.4byte	.LASF153
 3683 0a71 06       		.byte	0x6
 3684 0a72 4D       		.byte	0x4d
 3685 0a73 10010000 		.4byte	0x110
 3686 0a77 02       		.uleb128 0x2
ARM GAS  /tmp/ccuZSfQH.s 			page 121


 3687 0a78 91       		.byte	0x91
 3688 0a79 6C       		.sleb128 -20
 3689 0a7a 2D       		.uleb128 0x2d
 3690 0a7b 6900     		.ascii	"i\000"
 3691 0a7d 06       		.byte	0x6
 3692 0a7e 4E       		.byte	0x4e
 3693 0a7f 37000000 		.4byte	0x37
 3694 0a83 02       		.uleb128 0x2
 3695 0a84 91       		.byte	0x91
 3696 0a85 74       		.sleb128 -12
 3697 0a86 00       		.byte	0
 3698 0a87 2D       		.uleb128 0x2d
 3699 0a88 6D623100 		.ascii	"mb1\000"
 3700 0a8c 06       		.byte	0x6
 3701 0a8d 3C       		.byte	0x3c
 3702 0a8e 16080000 		.4byte	0x816
 3703 0a92 05       		.uleb128 0x5
 3704 0a93 03       		.byte	0x3
 3705 0a94 00000000 		.4byte	mb1
 3706 0a98 2E       		.uleb128 0x2e
 3707 0a99 2A050000 		.4byte	.LASF154
 3708 0a9d 13       		.byte	0x13
 3709 0a9e FA06     		.2byte	0x6fa
 3710 0aa0 A40A0000 		.4byte	0xaa4
 3711 0aa4 19       		.uleb128 0x19
 3712 0aa5 AD000000 		.4byte	0xad
 3713 0aa9 2F       		.uleb128 0x2f
 3714 0aaa 636800   		.ascii	"ch\000"
 3715 0aad 0C       		.byte	0xc
 3716 0aae 0902     		.2byte	0x209
 3717 0ab0 37040000 		.4byte	0x437
 3718 0ab4 30       		.uleb128 0x30
 3719 0ab5 EE000000 		.4byte	.LASF155
 3720 0ab9 12       		.byte	0x12
 3721 0aba A8       		.byte	0xa8
 3722 0abb BA080000 		.4byte	0x8ba
 3723 0abf 31       		.uleb128 0x31
 3724 0ac0 C6030000 		.4byte	.LASF156
 3725 0ac4 06       		.byte	0x6
 3726 0ac5 DE       		.byte	0xde
 3727 0ac6 D00A0000 		.4byte	0xad0
 3728 0aca 05       		.uleb128 0x5
 3729 0acb 03       		.byte	0x3
 3730 0acc 00000000 		.4byte	testmbox1
 3731 0ad0 18       		.uleb128 0x18
 3732 0ad1 21080000 		.4byte	0x821
 3733 0ad5 14       		.uleb128 0x14
 3734 0ad6 E50A0000 		.4byte	0xae5
 3735 0ada E50A0000 		.4byte	0xae5
 3736 0ade 15       		.uleb128 0x15
 3737 0adf AF040000 		.4byte	0x4af
 3738 0ae3 01       		.byte	0x1
 3739 0ae4 00       		.byte	0
 3740 0ae5 09       		.uleb128 0x9
 3741 0ae6 04       		.byte	0x4
 3742 0ae7 D00A0000 		.4byte	0xad0
 3743 0aeb 31       		.uleb128 0x31
ARM GAS  /tmp/ccuZSfQH.s 			page 122


 3744 0aec B6020000 		.4byte	.LASF157
 3745 0af0 06       		.byte	0x6
 3746 0af1 EA       		.byte	0xea
 3747 0af2 FC0A0000 		.4byte	0xafc
 3748 0af6 05       		.uleb128 0x5
 3749 0af7 03       		.byte	0x3
 3750 0af8 00000000 		.4byte	patternmbox
 3751 0afc 18       		.uleb128 0x18
 3752 0afd D50A0000 		.4byte	0xad5
 3753 0b01 00       		.byte	0
 3754              		.section	.debug_abbrev,"",%progbits
 3755              	.Ldebug_abbrev0:
 3756 0000 01       		.uleb128 0x1
 3757 0001 11       		.uleb128 0x11
 3758 0002 01       		.byte	0x1
 3759 0003 25       		.uleb128 0x25
 3760 0004 0E       		.uleb128 0xe
 3761 0005 13       		.uleb128 0x13
 3762 0006 0B       		.uleb128 0xb
 3763 0007 03       		.uleb128 0x3
 3764 0008 0E       		.uleb128 0xe
 3765 0009 1B       		.uleb128 0x1b
 3766 000a 0E       		.uleb128 0xe
 3767 000b 55       		.uleb128 0x55
 3768 000c 17       		.uleb128 0x17
 3769 000d 11       		.uleb128 0x11
 3770 000e 01       		.uleb128 0x1
 3771 000f 10       		.uleb128 0x10
 3772 0010 17       		.uleb128 0x17
 3773 0011 00       		.byte	0
 3774 0012 00       		.byte	0
 3775 0013 02       		.uleb128 0x2
 3776 0014 24       		.uleb128 0x24
 3777 0015 00       		.byte	0
 3778 0016 0B       		.uleb128 0xb
 3779 0017 0B       		.uleb128 0xb
 3780 0018 3E       		.uleb128 0x3e
 3781 0019 0B       		.uleb128 0xb
 3782 001a 03       		.uleb128 0x3
 3783 001b 08       		.uleb128 0x8
 3784 001c 00       		.byte	0
 3785 001d 00       		.byte	0
 3786 001e 03       		.uleb128 0x3
 3787 001f 16       		.uleb128 0x16
 3788 0020 00       		.byte	0
 3789 0021 03       		.uleb128 0x3
 3790 0022 0E       		.uleb128 0xe
 3791 0023 3A       		.uleb128 0x3a
 3792 0024 0B       		.uleb128 0xb
 3793 0025 3B       		.uleb128 0x3b
 3794 0026 0B       		.uleb128 0xb
 3795 0027 49       		.uleb128 0x49
 3796 0028 13       		.uleb128 0x13
 3797 0029 00       		.byte	0
 3798 002a 00       		.byte	0
 3799 002b 04       		.uleb128 0x4
 3800 002c 24       		.uleb128 0x24
ARM GAS  /tmp/ccuZSfQH.s 			page 123


 3801 002d 00       		.byte	0
 3802 002e 0B       		.uleb128 0xb
 3803 002f 0B       		.uleb128 0xb
 3804 0030 3E       		.uleb128 0x3e
 3805 0031 0B       		.uleb128 0xb
 3806 0032 03       		.uleb128 0x3
 3807 0033 0E       		.uleb128 0xe
 3808 0034 00       		.byte	0
 3809 0035 00       		.byte	0
 3810 0036 05       		.uleb128 0x5
 3811 0037 13       		.uleb128 0x13
 3812 0038 01       		.byte	0x1
 3813 0039 03       		.uleb128 0x3
 3814 003a 0E       		.uleb128 0xe
 3815 003b 0B       		.uleb128 0xb
 3816 003c 0B       		.uleb128 0xb
 3817 003d 3A       		.uleb128 0x3a
 3818 003e 0B       		.uleb128 0xb
 3819 003f 3B       		.uleb128 0x3b
 3820 0040 0B       		.uleb128 0xb
 3821 0041 01       		.uleb128 0x1
 3822 0042 13       		.uleb128 0x13
 3823 0043 00       		.byte	0
 3824 0044 00       		.byte	0
 3825 0045 06       		.uleb128 0x6
 3826 0046 0D       		.uleb128 0xd
 3827 0047 00       		.byte	0
 3828 0048 03       		.uleb128 0x3
 3829 0049 0E       		.uleb128 0xe
 3830 004a 3A       		.uleb128 0x3a
 3831 004b 0B       		.uleb128 0xb
 3832 004c 3B       		.uleb128 0x3b
 3833 004d 0B       		.uleb128 0xb
 3834 004e 49       		.uleb128 0x49
 3835 004f 13       		.uleb128 0x13
 3836 0050 38       		.uleb128 0x38
 3837 0051 0B       		.uleb128 0xb
 3838 0052 00       		.byte	0
 3839 0053 00       		.byte	0
 3840 0054 07       		.uleb128 0x7
 3841 0055 0D       		.uleb128 0xd
 3842 0056 00       		.byte	0
 3843 0057 03       		.uleb128 0x3
 3844 0058 08       		.uleb128 0x8
 3845 0059 3A       		.uleb128 0x3a
 3846 005a 0B       		.uleb128 0xb
 3847 005b 3B       		.uleb128 0x3b
 3848 005c 05       		.uleb128 0x5
 3849 005d 49       		.uleb128 0x49
 3850 005e 13       		.uleb128 0x13
 3851 005f 38       		.uleb128 0x38
 3852 0060 0B       		.uleb128 0xb
 3853 0061 00       		.byte	0
 3854 0062 00       		.byte	0
 3855 0063 08       		.uleb128 0x8
 3856 0064 0D       		.uleb128 0xd
 3857 0065 00       		.byte	0
ARM GAS  /tmp/ccuZSfQH.s 			page 124


 3858 0066 03       		.uleb128 0x3
 3859 0067 0E       		.uleb128 0xe
 3860 0068 3A       		.uleb128 0x3a
 3861 0069 0B       		.uleb128 0xb
 3862 006a 3B       		.uleb128 0x3b
 3863 006b 05       		.uleb128 0x5
 3864 006c 49       		.uleb128 0x49
 3865 006d 13       		.uleb128 0x13
 3866 006e 38       		.uleb128 0x38
 3867 006f 0B       		.uleb128 0xb
 3868 0070 00       		.byte	0
 3869 0071 00       		.byte	0
 3870 0072 09       		.uleb128 0x9
 3871 0073 0F       		.uleb128 0xf
 3872 0074 00       		.byte	0
 3873 0075 0B       		.uleb128 0xb
 3874 0076 0B       		.uleb128 0xb
 3875 0077 49       		.uleb128 0x49
 3876 0078 13       		.uleb128 0x13
 3877 0079 00       		.byte	0
 3878 007a 00       		.byte	0
 3879 007b 0A       		.uleb128 0xa
 3880 007c 13       		.uleb128 0x13
 3881 007d 01       		.byte	0x1
 3882 007e 03       		.uleb128 0x3
 3883 007f 0E       		.uleb128 0xe
 3884 0080 0B       		.uleb128 0xb
 3885 0081 0B       		.uleb128 0xb
 3886 0082 3A       		.uleb128 0x3a
 3887 0083 0B       		.uleb128 0xb
 3888 0084 3B       		.uleb128 0x3b
 3889 0085 05       		.uleb128 0x5
 3890 0086 01       		.uleb128 0x1
 3891 0087 13       		.uleb128 0x13
 3892 0088 00       		.byte	0
 3893 0089 00       		.byte	0
 3894 008a 0B       		.uleb128 0xb
 3895 008b 15       		.uleb128 0x15
 3896 008c 01       		.byte	0x1
 3897 008d 27       		.uleb128 0x27
 3898 008e 19       		.uleb128 0x19
 3899 008f 01       		.uleb128 0x1
 3900 0090 13       		.uleb128 0x13
 3901 0091 00       		.byte	0
 3902 0092 00       		.byte	0
 3903 0093 0C       		.uleb128 0xc
 3904 0094 05       		.uleb128 0x5
 3905 0095 00       		.byte	0
 3906 0096 49       		.uleb128 0x49
 3907 0097 13       		.uleb128 0x13
 3908 0098 00       		.byte	0
 3909 0099 00       		.byte	0
 3910 009a 0D       		.uleb128 0xd
 3911 009b 0F       		.uleb128 0xf
 3912 009c 00       		.byte	0
 3913 009d 0B       		.uleb128 0xb
 3914 009e 0B       		.uleb128 0xb
ARM GAS  /tmp/ccuZSfQH.s 			page 125


 3915 009f 00       		.byte	0
 3916 00a0 00       		.byte	0
 3917 00a1 0E       		.uleb128 0xe
 3918 00a2 13       		.uleb128 0x13
 3919 00a3 01       		.byte	0x1
 3920 00a4 03       		.uleb128 0x3
 3921 00a5 0E       		.uleb128 0xe
 3922 00a6 0B       		.uleb128 0xb
 3923 00a7 05       		.uleb128 0x5
 3924 00a8 3A       		.uleb128 0x3a
 3925 00a9 0B       		.uleb128 0xb
 3926 00aa 3B       		.uleb128 0x3b
 3927 00ab 05       		.uleb128 0x5
 3928 00ac 01       		.uleb128 0x1
 3929 00ad 13       		.uleb128 0x13
 3930 00ae 00       		.byte	0
 3931 00af 00       		.byte	0
 3932 00b0 0F       		.uleb128 0xf
 3933 00b1 0D       		.uleb128 0xd
 3934 00b2 00       		.byte	0
 3935 00b3 03       		.uleb128 0x3
 3936 00b4 0E       		.uleb128 0xe
 3937 00b5 3A       		.uleb128 0x3a
 3938 00b6 0B       		.uleb128 0xb
 3939 00b7 3B       		.uleb128 0x3b
 3940 00b8 05       		.uleb128 0x5
 3941 00b9 49       		.uleb128 0x49
 3942 00ba 13       		.uleb128 0x13
 3943 00bb 38       		.uleb128 0x38
 3944 00bc 05       		.uleb128 0x5
 3945 00bd 00       		.byte	0
 3946 00be 00       		.byte	0
 3947 00bf 10       		.uleb128 0x10
 3948 00c0 0D       		.uleb128 0xd
 3949 00c1 00       		.byte	0
 3950 00c2 03       		.uleb128 0x3
 3951 00c3 08       		.uleb128 0x8
 3952 00c4 3A       		.uleb128 0x3a
 3953 00c5 0B       		.uleb128 0xb
 3954 00c6 3B       		.uleb128 0x3b
 3955 00c7 05       		.uleb128 0x5
 3956 00c8 49       		.uleb128 0x49
 3957 00c9 13       		.uleb128 0x13
 3958 00ca 38       		.uleb128 0x38
 3959 00cb 05       		.uleb128 0x5
 3960 00cc 00       		.byte	0
 3961 00cd 00       		.byte	0
 3962 00ce 11       		.uleb128 0x11
 3963 00cf 0D       		.uleb128 0xd
 3964 00d0 00       		.byte	0
 3965 00d1 03       		.uleb128 0x3
 3966 00d2 08       		.uleb128 0x8
 3967 00d3 3A       		.uleb128 0x3a
 3968 00d4 0B       		.uleb128 0xb
 3969 00d5 3B       		.uleb128 0x3b
 3970 00d6 0B       		.uleb128 0xb
 3971 00d7 49       		.uleb128 0x49
ARM GAS  /tmp/ccuZSfQH.s 			page 126


 3972 00d8 13       		.uleb128 0x13
 3973 00d9 38       		.uleb128 0x38
 3974 00da 0B       		.uleb128 0xb
 3975 00db 00       		.byte	0
 3976 00dc 00       		.byte	0
 3977 00dd 12       		.uleb128 0x12
 3978 00de 13       		.uleb128 0x13
 3979 00df 01       		.byte	0x1
 3980 00e0 0B       		.uleb128 0xb
 3981 00e1 0B       		.uleb128 0xb
 3982 00e2 3A       		.uleb128 0x3a
 3983 00e3 0B       		.uleb128 0xb
 3984 00e4 3B       		.uleb128 0x3b
 3985 00e5 0B       		.uleb128 0xb
 3986 00e6 01       		.uleb128 0x1
 3987 00e7 13       		.uleb128 0x13
 3988 00e8 00       		.byte	0
 3989 00e9 00       		.byte	0
 3990 00ea 13       		.uleb128 0x13
 3991 00eb 13       		.uleb128 0x13
 3992 00ec 01       		.byte	0x1
 3993 00ed 0B       		.uleb128 0xb
 3994 00ee 05       		.uleb128 0x5
 3995 00ef 3A       		.uleb128 0x3a
 3996 00f0 0B       		.uleb128 0xb
 3997 00f1 3B       		.uleb128 0x3b
 3998 00f2 0B       		.uleb128 0xb
 3999 00f3 01       		.uleb128 0x1
 4000 00f4 13       		.uleb128 0x13
 4001 00f5 00       		.byte	0
 4002 00f6 00       		.byte	0
 4003 00f7 14       		.uleb128 0x14
 4004 00f8 01       		.uleb128 0x1
 4005 00f9 01       		.byte	0x1
 4006 00fa 49       		.uleb128 0x49
 4007 00fb 13       		.uleb128 0x13
 4008 00fc 01       		.uleb128 0x1
 4009 00fd 13       		.uleb128 0x13
 4010 00fe 00       		.byte	0
 4011 00ff 00       		.byte	0
 4012 0100 15       		.uleb128 0x15
 4013 0101 21       		.uleb128 0x21
 4014 0102 00       		.byte	0
 4015 0103 49       		.uleb128 0x49
 4016 0104 13       		.uleb128 0x13
 4017 0105 2F       		.uleb128 0x2f
 4018 0106 0B       		.uleb128 0xb
 4019 0107 00       		.byte	0
 4020 0108 00       		.byte	0
 4021 0109 16       		.uleb128 0x16
 4022 010a 17       		.uleb128 0x17
 4023 010b 01       		.byte	0x1
 4024 010c 0B       		.uleb128 0xb
 4025 010d 0B       		.uleb128 0xb
 4026 010e 3A       		.uleb128 0x3a
 4027 010f 0B       		.uleb128 0xb
 4028 0110 3B       		.uleb128 0x3b
ARM GAS  /tmp/ccuZSfQH.s 			page 127


 4029 0111 0B       		.uleb128 0xb
 4030 0112 01       		.uleb128 0x1
 4031 0113 13       		.uleb128 0x13
 4032 0114 00       		.byte	0
 4033 0115 00       		.byte	0
 4034 0116 17       		.uleb128 0x17
 4035 0117 0D       		.uleb128 0xd
 4036 0118 00       		.byte	0
 4037 0119 03       		.uleb128 0x3
 4038 011a 0E       		.uleb128 0xe
 4039 011b 3A       		.uleb128 0x3a
 4040 011c 0B       		.uleb128 0xb
 4041 011d 3B       		.uleb128 0x3b
 4042 011e 05       		.uleb128 0x5
 4043 011f 49       		.uleb128 0x49
 4044 0120 13       		.uleb128 0x13
 4045 0121 00       		.byte	0
 4046 0122 00       		.byte	0
 4047 0123 18       		.uleb128 0x18
 4048 0124 26       		.uleb128 0x26
 4049 0125 00       		.byte	0
 4050 0126 49       		.uleb128 0x49
 4051 0127 13       		.uleb128 0x13
 4052 0128 00       		.byte	0
 4053 0129 00       		.byte	0
 4054 012a 19       		.uleb128 0x19
 4055 012b 35       		.uleb128 0x35
 4056 012c 00       		.byte	0
 4057 012d 49       		.uleb128 0x49
 4058 012e 13       		.uleb128 0x13
 4059 012f 00       		.byte	0
 4060 0130 00       		.byte	0
 4061 0131 1A       		.uleb128 0x1a
 4062 0132 15       		.uleb128 0x15
 4063 0133 00       		.byte	0
 4064 0134 27       		.uleb128 0x27
 4065 0135 19       		.uleb128 0x19
 4066 0136 00       		.byte	0
 4067 0137 00       		.byte	0
 4068 0138 1B       		.uleb128 0x1b
 4069 0139 0D       		.uleb128 0xd
 4070 013a 00       		.byte	0
 4071 013b 03       		.uleb128 0x3
 4072 013c 08       		.uleb128 0x8
 4073 013d 3A       		.uleb128 0x3a
 4074 013e 0B       		.uleb128 0xb
 4075 013f 3B       		.uleb128 0x3b
 4076 0140 0B       		.uleb128 0xb
 4077 0141 49       		.uleb128 0x49
 4078 0142 13       		.uleb128 0x13
 4079 0143 38       		.uleb128 0x38
 4080 0144 05       		.uleb128 0x5
 4081 0145 00       		.byte	0
 4082 0146 00       		.byte	0
 4083 0147 1C       		.uleb128 0x1c
 4084 0148 17       		.uleb128 0x17
 4085 0149 01       		.byte	0x1
ARM GAS  /tmp/ccuZSfQH.s 			page 128


 4086 014a 03       		.uleb128 0x3
 4087 014b 0E       		.uleb128 0xe
 4088 014c 0B       		.uleb128 0xb
 4089 014d 05       		.uleb128 0x5
 4090 014e 3A       		.uleb128 0x3a
 4091 014f 0B       		.uleb128 0xb
 4092 0150 3B       		.uleb128 0x3b
 4093 0151 0B       		.uleb128 0xb
 4094 0152 01       		.uleb128 0x1
 4095 0153 13       		.uleb128 0x13
 4096 0154 00       		.byte	0
 4097 0155 00       		.byte	0
 4098 0156 1D       		.uleb128 0x1d
 4099 0157 0D       		.uleb128 0xd
 4100 0158 00       		.byte	0
 4101 0159 03       		.uleb128 0x3
 4102 015a 08       		.uleb128 0x8
 4103 015b 3A       		.uleb128 0x3a
 4104 015c 0B       		.uleb128 0xb
 4105 015d 3B       		.uleb128 0x3b
 4106 015e 0B       		.uleb128 0xb
 4107 015f 49       		.uleb128 0x49
 4108 0160 13       		.uleb128 0x13
 4109 0161 00       		.byte	0
 4110 0162 00       		.byte	0
 4111 0163 1E       		.uleb128 0x1e
 4112 0164 0D       		.uleb128 0xd
 4113 0165 00       		.byte	0
 4114 0166 03       		.uleb128 0x3
 4115 0167 0E       		.uleb128 0xe
 4116 0168 3A       		.uleb128 0x3a
 4117 0169 0B       		.uleb128 0xb
 4118 016a 3B       		.uleb128 0x3b
 4119 016b 0B       		.uleb128 0xb
 4120 016c 49       		.uleb128 0x49
 4121 016d 13       		.uleb128 0x13
 4122 016e 00       		.byte	0
 4123 016f 00       		.byte	0
 4124 0170 1F       		.uleb128 0x1f
 4125 0171 21       		.uleb128 0x21
 4126 0172 00       		.byte	0
 4127 0173 49       		.uleb128 0x49
 4128 0174 13       		.uleb128 0x13
 4129 0175 2F       		.uleb128 0x2f
 4130 0176 05       		.uleb128 0x5
 4131 0177 00       		.byte	0
 4132 0178 00       		.byte	0
 4133 0179 20       		.uleb128 0x20
 4134 017a 2E       		.uleb128 0x2e
 4135 017b 01       		.byte	0x1
 4136 017c 03       		.uleb128 0x3
 4137 017d 0E       		.uleb128 0xe
 4138 017e 3A       		.uleb128 0x3a
 4139 017f 0B       		.uleb128 0xb
 4140 0180 3B       		.uleb128 0x3b
 4141 0181 05       		.uleb128 0x5
 4142 0182 27       		.uleb128 0x27
ARM GAS  /tmp/ccuZSfQH.s 			page 129


 4143 0183 19       		.uleb128 0x19
 4144 0184 20       		.uleb128 0x20
 4145 0185 0B       		.uleb128 0xb
 4146 0186 01       		.uleb128 0x1
 4147 0187 13       		.uleb128 0x13
 4148 0188 00       		.byte	0
 4149 0189 00       		.byte	0
 4150 018a 21       		.uleb128 0x21
 4151 018b 05       		.uleb128 0x5
 4152 018c 00       		.byte	0
 4153 018d 03       		.uleb128 0x3
 4154 018e 0E       		.uleb128 0xe
 4155 018f 3A       		.uleb128 0x3a
 4156 0190 0B       		.uleb128 0xb
 4157 0191 3B       		.uleb128 0x3b
 4158 0192 05       		.uleb128 0x5
 4159 0193 49       		.uleb128 0x49
 4160 0194 13       		.uleb128 0x13
 4161 0195 00       		.byte	0
 4162 0196 00       		.byte	0
 4163 0197 22       		.uleb128 0x22
 4164 0198 2E       		.uleb128 0x2e
 4165 0199 01       		.byte	0x1
 4166 019a 03       		.uleb128 0x3
 4167 019b 0E       		.uleb128 0xe
 4168 019c 3A       		.uleb128 0x3a
 4169 019d 0B       		.uleb128 0xb
 4170 019e 3B       		.uleb128 0x3b
 4171 019f 05       		.uleb128 0x5
 4172 01a0 27       		.uleb128 0x27
 4173 01a1 19       		.uleb128 0x19
 4174 01a2 11       		.uleb128 0x11
 4175 01a3 01       		.uleb128 0x1
 4176 01a4 12       		.uleb128 0x12
 4177 01a5 06       		.uleb128 0x6
 4178 01a6 40       		.uleb128 0x40
 4179 01a7 18       		.uleb128 0x18
 4180 01a8 9742     		.uleb128 0x2117
 4181 01aa 19       		.uleb128 0x19
 4182 01ab 01       		.uleb128 0x1
 4183 01ac 13       		.uleb128 0x13
 4184 01ad 00       		.byte	0
 4185 01ae 00       		.byte	0
 4186 01af 23       		.uleb128 0x23
 4187 01b0 1D       		.uleb128 0x1d
 4188 01b1 01       		.byte	0x1
 4189 01b2 31       		.uleb128 0x31
 4190 01b3 13       		.uleb128 0x13
 4191 01b4 11       		.uleb128 0x11
 4192 01b5 01       		.uleb128 0x1
 4193 01b6 12       		.uleb128 0x12
 4194 01b7 06       		.uleb128 0x6
 4195 01b8 58       		.uleb128 0x58
 4196 01b9 0B       		.uleb128 0xb
 4197 01ba 59       		.uleb128 0x59
 4198 01bb 05       		.uleb128 0x5
 4199 01bc 00       		.byte	0
ARM GAS  /tmp/ccuZSfQH.s 			page 130


 4200 01bd 00       		.byte	0
 4201 01be 24       		.uleb128 0x24
 4202 01bf 05       		.uleb128 0x5
 4203 01c0 00       		.byte	0
 4204 01c1 31       		.uleb128 0x31
 4205 01c2 13       		.uleb128 0x13
 4206 01c3 02       		.uleb128 0x2
 4207 01c4 18       		.uleb128 0x18
 4208 01c5 00       		.byte	0
 4209 01c6 00       		.byte	0
 4210 01c7 25       		.uleb128 0x25
 4211 01c8 2E       		.uleb128 0x2e
 4212 01c9 00       		.byte	0
 4213 01ca 03       		.uleb128 0x3
 4214 01cb 0E       		.uleb128 0xe
 4215 01cc 3A       		.uleb128 0x3a
 4216 01cd 0B       		.uleb128 0xb
 4217 01ce 3B       		.uleb128 0x3b
 4218 01cf 05       		.uleb128 0x5
 4219 01d0 27       		.uleb128 0x27
 4220 01d1 19       		.uleb128 0x19
 4221 01d2 11       		.uleb128 0x11
 4222 01d3 01       		.uleb128 0x1
 4223 01d4 12       		.uleb128 0x12
 4224 01d5 06       		.uleb128 0x6
 4225 01d6 40       		.uleb128 0x40
 4226 01d7 18       		.uleb128 0x18
 4227 01d8 9642     		.uleb128 0x2116
 4228 01da 19       		.uleb128 0x19
 4229 01db 00       		.byte	0
 4230 01dc 00       		.byte	0
 4231 01dd 26       		.uleb128 0x26
 4232 01de 2E       		.uleb128 0x2e
 4233 01df 01       		.byte	0x1
 4234 01e0 03       		.uleb128 0x3
 4235 01e1 0E       		.uleb128 0xe
 4236 01e2 3A       		.uleb128 0x3a
 4237 01e3 0B       		.uleb128 0xb
 4238 01e4 3B       		.uleb128 0x3b
 4239 01e5 05       		.uleb128 0x5
 4240 01e6 27       		.uleb128 0x27
 4241 01e7 19       		.uleb128 0x19
 4242 01e8 11       		.uleb128 0x11
 4243 01e9 01       		.uleb128 0x1
 4244 01ea 12       		.uleb128 0x12
 4245 01eb 06       		.uleb128 0x6
 4246 01ec 40       		.uleb128 0x40
 4247 01ed 18       		.uleb128 0x18
 4248 01ee 9642     		.uleb128 0x2116
 4249 01f0 19       		.uleb128 0x19
 4250 01f1 01       		.uleb128 0x1
 4251 01f2 13       		.uleb128 0x13
 4252 01f3 00       		.byte	0
 4253 01f4 00       		.byte	0
 4254 01f5 27       		.uleb128 0x27
 4255 01f6 34       		.uleb128 0x34
 4256 01f7 00       		.byte	0
ARM GAS  /tmp/ccuZSfQH.s 			page 131


 4257 01f8 03       		.uleb128 0x3
 4258 01f9 0E       		.uleb128 0xe
 4259 01fa 49       		.uleb128 0x49
 4260 01fb 13       		.uleb128 0x13
 4261 01fc 34       		.uleb128 0x34
 4262 01fd 19       		.uleb128 0x19
 4263 01fe 02       		.uleb128 0x2
 4264 01ff 18       		.uleb128 0x18
 4265 0200 00       		.byte	0
 4266 0201 00       		.byte	0
 4267 0202 28       		.uleb128 0x28
 4268 0203 2E       		.uleb128 0x2e
 4269 0204 01       		.byte	0x1
 4270 0205 03       		.uleb128 0x3
 4271 0206 0E       		.uleb128 0xe
 4272 0207 3A       		.uleb128 0x3a
 4273 0208 0B       		.uleb128 0xb
 4274 0209 3B       		.uleb128 0x3b
 4275 020a 0B       		.uleb128 0xb
 4276 020b 27       		.uleb128 0x27
 4277 020c 19       		.uleb128 0x19
 4278 020d 49       		.uleb128 0x49
 4279 020e 13       		.uleb128 0x13
 4280 020f 11       		.uleb128 0x11
 4281 0210 01       		.uleb128 0x1
 4282 0211 12       		.uleb128 0x12
 4283 0212 06       		.uleb128 0x6
 4284 0213 40       		.uleb128 0x40
 4285 0214 18       		.uleb128 0x18
 4286 0215 9642     		.uleb128 0x2116
 4287 0217 19       		.uleb128 0x19
 4288 0218 01       		.uleb128 0x1
 4289 0219 13       		.uleb128 0x13
 4290 021a 00       		.byte	0
 4291 021b 00       		.byte	0
 4292 021c 29       		.uleb128 0x29
 4293 021d 05       		.uleb128 0x5
 4294 021e 00       		.byte	0
 4295 021f 03       		.uleb128 0x3
 4296 0220 08       		.uleb128 0x8
 4297 0221 3A       		.uleb128 0x3a
 4298 0222 0B       		.uleb128 0xb
 4299 0223 3B       		.uleb128 0x3b
 4300 0224 0B       		.uleb128 0xb
 4301 0225 49       		.uleb128 0x49
 4302 0226 13       		.uleb128 0x13
 4303 0227 02       		.uleb128 0x2
 4304 0228 18       		.uleb128 0x18
 4305 0229 00       		.byte	0
 4306 022a 00       		.byte	0
 4307 022b 2A       		.uleb128 0x2a
 4308 022c 2E       		.uleb128 0x2e
 4309 022d 00       		.byte	0
 4310 022e 03       		.uleb128 0x3
 4311 022f 0E       		.uleb128 0xe
 4312 0230 3A       		.uleb128 0x3a
 4313 0231 0B       		.uleb128 0xb
ARM GAS  /tmp/ccuZSfQH.s 			page 132


 4314 0232 3B       		.uleb128 0x3b
 4315 0233 0B       		.uleb128 0xb
 4316 0234 27       		.uleb128 0x27
 4317 0235 19       		.uleb128 0x19
 4318 0236 11       		.uleb128 0x11
 4319 0237 01       		.uleb128 0x1
 4320 0238 12       		.uleb128 0x12
 4321 0239 06       		.uleb128 0x6
 4322 023a 40       		.uleb128 0x40
 4323 023b 18       		.uleb128 0x18
 4324 023c 9642     		.uleb128 0x2116
 4325 023e 19       		.uleb128 0x19
 4326 023f 00       		.byte	0
 4327 0240 00       		.byte	0
 4328 0241 2B       		.uleb128 0x2b
 4329 0242 2E       		.uleb128 0x2e
 4330 0243 01       		.byte	0x1
 4331 0244 03       		.uleb128 0x3
 4332 0245 0E       		.uleb128 0xe
 4333 0246 3A       		.uleb128 0x3a
 4334 0247 0B       		.uleb128 0xb
 4335 0248 3B       		.uleb128 0x3b
 4336 0249 0B       		.uleb128 0xb
 4337 024a 27       		.uleb128 0x27
 4338 024b 19       		.uleb128 0x19
 4339 024c 11       		.uleb128 0x11
 4340 024d 01       		.uleb128 0x1
 4341 024e 12       		.uleb128 0x12
 4342 024f 06       		.uleb128 0x6
 4343 0250 40       		.uleb128 0x40
 4344 0251 18       		.uleb128 0x18
 4345 0252 9642     		.uleb128 0x2116
 4346 0254 19       		.uleb128 0x19
 4347 0255 01       		.uleb128 0x1
 4348 0256 13       		.uleb128 0x13
 4349 0257 00       		.byte	0
 4350 0258 00       		.byte	0
 4351 0259 2C       		.uleb128 0x2c
 4352 025a 34       		.uleb128 0x34
 4353 025b 00       		.byte	0
 4354 025c 03       		.uleb128 0x3
 4355 025d 0E       		.uleb128 0xe
 4356 025e 3A       		.uleb128 0x3a
 4357 025f 0B       		.uleb128 0xb
 4358 0260 3B       		.uleb128 0x3b
 4359 0261 0B       		.uleb128 0xb
 4360 0262 49       		.uleb128 0x49
 4361 0263 13       		.uleb128 0x13
 4362 0264 02       		.uleb128 0x2
 4363 0265 18       		.uleb128 0x18
 4364 0266 00       		.byte	0
 4365 0267 00       		.byte	0
 4366 0268 2D       		.uleb128 0x2d
 4367 0269 34       		.uleb128 0x34
 4368 026a 00       		.byte	0
 4369 026b 03       		.uleb128 0x3
 4370 026c 08       		.uleb128 0x8
ARM GAS  /tmp/ccuZSfQH.s 			page 133


 4371 026d 3A       		.uleb128 0x3a
 4372 026e 0B       		.uleb128 0xb
 4373 026f 3B       		.uleb128 0x3b
 4374 0270 0B       		.uleb128 0xb
 4375 0271 49       		.uleb128 0x49
 4376 0272 13       		.uleb128 0x13
 4377 0273 02       		.uleb128 0x2
 4378 0274 18       		.uleb128 0x18
 4379 0275 00       		.byte	0
 4380 0276 00       		.byte	0
 4381 0277 2E       		.uleb128 0x2e
 4382 0278 34       		.uleb128 0x34
 4383 0279 00       		.byte	0
 4384 027a 03       		.uleb128 0x3
 4385 027b 0E       		.uleb128 0xe
 4386 027c 3A       		.uleb128 0x3a
 4387 027d 0B       		.uleb128 0xb
 4388 027e 3B       		.uleb128 0x3b
 4389 027f 05       		.uleb128 0x5
 4390 0280 49       		.uleb128 0x49
 4391 0281 13       		.uleb128 0x13
 4392 0282 3F       		.uleb128 0x3f
 4393 0283 19       		.uleb128 0x19
 4394 0284 3C       		.uleb128 0x3c
 4395 0285 19       		.uleb128 0x19
 4396 0286 00       		.byte	0
 4397 0287 00       		.byte	0
 4398 0288 2F       		.uleb128 0x2f
 4399 0289 34       		.uleb128 0x34
 4400 028a 00       		.byte	0
 4401 028b 03       		.uleb128 0x3
 4402 028c 08       		.uleb128 0x8
 4403 028d 3A       		.uleb128 0x3a
 4404 028e 0B       		.uleb128 0xb
 4405 028f 3B       		.uleb128 0x3b
 4406 0290 05       		.uleb128 0x5
 4407 0291 49       		.uleb128 0x49
 4408 0292 13       		.uleb128 0x13
 4409 0293 3F       		.uleb128 0x3f
 4410 0294 19       		.uleb128 0x19
 4411 0295 3C       		.uleb128 0x3c
 4412 0296 19       		.uleb128 0x19
 4413 0297 00       		.byte	0
 4414 0298 00       		.byte	0
 4415 0299 30       		.uleb128 0x30
 4416 029a 34       		.uleb128 0x34
 4417 029b 00       		.byte	0
 4418 029c 03       		.uleb128 0x3
 4419 029d 0E       		.uleb128 0xe
 4420 029e 3A       		.uleb128 0x3a
 4421 029f 0B       		.uleb128 0xb
 4422 02a0 3B       		.uleb128 0x3b
 4423 02a1 0B       		.uleb128 0xb
 4424 02a2 49       		.uleb128 0x49
 4425 02a3 13       		.uleb128 0x13
 4426 02a4 3F       		.uleb128 0x3f
 4427 02a5 19       		.uleb128 0x19
ARM GAS  /tmp/ccuZSfQH.s 			page 134


 4428 02a6 3C       		.uleb128 0x3c
 4429 02a7 19       		.uleb128 0x19
 4430 02a8 00       		.byte	0
 4431 02a9 00       		.byte	0
 4432 02aa 31       		.uleb128 0x31
 4433 02ab 34       		.uleb128 0x34
 4434 02ac 00       		.byte	0
 4435 02ad 03       		.uleb128 0x3
 4436 02ae 0E       		.uleb128 0xe
 4437 02af 3A       		.uleb128 0x3a
 4438 02b0 0B       		.uleb128 0xb
 4439 02b1 3B       		.uleb128 0x3b
 4440 02b2 0B       		.uleb128 0xb
 4441 02b3 49       		.uleb128 0x49
 4442 02b4 13       		.uleb128 0x13
 4443 02b5 3F       		.uleb128 0x3f
 4444 02b6 19       		.uleb128 0x19
 4445 02b7 02       		.uleb128 0x2
 4446 02b8 18       		.uleb128 0x18
 4447 02b9 00       		.byte	0
 4448 02ba 00       		.byte	0
 4449 02bb 00       		.byte	0
 4450              		.section	.debug_aranges,"",%progbits
 4451 0000 5C000000 		.4byte	0x5c
 4452 0004 0200     		.2byte	0x2
 4453 0006 00000000 		.4byte	.Ldebug_info0
 4454 000a 04       		.byte	0x4
 4455 000b 00       		.byte	0
 4456 000c 0000     		.2byte	0
 4457 000e 0000     		.2byte	0
 4458 0010 00000000 		.4byte	.LFB127
 4459 0014 10000000 		.4byte	.LFE127-.LFB127
 4460 0018 00000000 		.4byte	.LFB128
 4461 001c 10000000 		.4byte	.LFE128-.LFB128
 4462 0020 00000000 		.4byte	.LFB167
 4463 0024 10000000 		.4byte	.LFE167-.LFB167
 4464 0028 00000000 		.4byte	.LFB168
 4465 002c 4E000000 		.4byte	.LFE168-.LFB168
 4466 0030 00000000 		.4byte	.LFB203
 4467 0034 16000000 		.4byte	.LFE203-.LFB203
 4468 0038 00000000 		.4byte	.LFB226
 4469 003c 1E000000 		.4byte	.LFE226-.LFB226
 4470 0040 00000000 		.4byte	.LFB227
 4471 0044 1E000000 		.4byte	.LFE227-.LFB227
 4472 0048 00000000 		.4byte	.LFB241
 4473 004c 1A000000 		.4byte	.LFE241-.LFB241
 4474 0050 00000000 		.4byte	.LFB242
 4475 0054 68090000 		.4byte	.LFE242-.LFB242
 4476 0058 00000000 		.4byte	0
 4477 005c 00000000 		.4byte	0
 4478              		.section	.debug_ranges,"",%progbits
 4479              	.Ldebug_ranges0:
 4480 0000 00000000 		.4byte	.LFB127
 4481 0004 10000000 		.4byte	.LFE127
 4482 0008 00000000 		.4byte	.LFB128
 4483 000c 10000000 		.4byte	.LFE128
 4484 0010 00000000 		.4byte	.LFB167
ARM GAS  /tmp/ccuZSfQH.s 			page 135


 4485 0014 10000000 		.4byte	.LFE167
 4486 0018 00000000 		.4byte	.LFB168
 4487 001c 4E000000 		.4byte	.LFE168
 4488 0020 00000000 		.4byte	.LFB203
 4489 0024 16000000 		.4byte	.LFE203
 4490 0028 00000000 		.4byte	.LFB226
 4491 002c 1E000000 		.4byte	.LFE226
 4492 0030 00000000 		.4byte	.LFB227
 4493 0034 1E000000 		.4byte	.LFE227
 4494 0038 00000000 		.4byte	.LFB241
 4495 003c 1A000000 		.4byte	.LFE241
 4496 0040 00000000 		.4byte	.LFB242
 4497 0044 68090000 		.4byte	.LFE242
 4498 0048 00000000 		.4byte	0
 4499 004c 00000000 		.4byte	0
 4500              		.section	.debug_line,"",%progbits
 4501              	.Ldebug_line0:
 4502 0000 67050000 		.section	.debug_str,"MS",%progbits,1
 4502      02002A02 
 4502      00000201 
 4502      FB0E0D00 
 4502      01010101 
 4503              	.LASF98:
 4504 0000 74625F70 		.ascii	"tb_ptr\000"
 4504      747200
 4505              	.LASF55:
 4506 0007 72656164 		.ascii	"ready_list_t\000"
 4506      795F6C69 
 4506      73745F74 
 4506      00
 4507              	.LASF92:
 4508 0014 73655F74 		.ascii	"se_time\000"
 4508      696D6500 
 4509              	.LASF2:
 4510 001c 73697A65 		.ascii	"size_t\000"
 4510      5F7400
 4511              	.LASF113:
 4512 0023 7264796D 		.ascii	"rdymsg\000"
 4512      736700
 4513              	.LASF17:
 4514 002a 75696E74 		.ascii	"uint64_t\000"
 4514      36345F74 
 4514      00
 4515              	.LASF85:
 4516 0033 6B65726E 		.ascii	"kernel_stats\000"
 4516      656C5F73 
 4516      74617473 
 4516      00
 4517              	.LASF3:
 4518 0040 5F5F7569 		.ascii	"__uint8_t\000"
 4518      6E74385F 
 4518      7400
 4519              	.LASF91:
 4520 004a 706F7274 		.ascii	"port_intctx\000"
 4520      5F696E74 
 4520      63747800 
 4521              	.LASF54:
ARM GAS  /tmp/ccuZSfQH.s 			page 136


 4522 0056 63685F74 		.ascii	"ch_threads_queue\000"
 4522      68726561 
 4522      64735F71 
 4522      75657565 
 4522      00
 4523              	.LASF74:
 4524 0067 73797374 		.ascii	"system_debug_t\000"
 4524      656D5F64 
 4524      65627567 
 4524      5F7400
 4525              	.LASF86:
 4526 0076 69646C65 		.ascii	"idle_thread_wa\000"
 4526      5F746872 
 4526      6561645F 
 4526      776100
 4527              	.LASF143:
 4528 0085 706F7274 		.ascii	"port_lock\000"
 4528      5F6C6F63 
 4528      6B00
 4529              	.LASF104:
 4530 008f 776F7273 		.ascii	"worst\000"
 4530      7400
 4531              	.LASF107:
 4532 0095 74696D65 		.ascii	"time_measurement_t\000"
 4532      5F6D6561 
 4532      73757265 
 4532      6D656E74 
 4532      5F7400
 4533              	.LASF13:
 4534 00a8 6C6F6E67 		.ascii	"long long unsigned int\000"
 4534      206C6F6E 
 4534      6720756E 
 4534      7369676E 
 4534      65642069 
 4535              	.LASF100:
 4536 00bf 63685F74 		.ascii	"ch_trace_buffer_t\000"
 4536      72616365 
 4536      5F627566 
 4536      6665725F 
 4536      7400
 4537              	.LASF95:
 4538 00d1 73655F73 		.ascii	"se_state\000"
 4538      74617465 
 4538      00
 4539              	.LASF114:
 4540 00da 65786974 		.ascii	"exitcode\000"
 4540      636F6465 
 4540      00
 4541              	.LASF84:
 4542 00e3 6D61696E 		.ascii	"mainthread\000"
 4542      74687265 
 4542      616400
 4543              	.LASF155:
 4544 00ee 74657374 		.ascii	"test\000"
 4544      00
 4545              	.LASF71:
 4546 00f3 76697274 		.ascii	"virtual_timers_list_t\000"
ARM GAS  /tmp/ccuZSfQH.s 			page 137


 4546      75616C5F 
 4546      74696D65 
 4546      72735F6C 
 4546      6973745F 
 4547              	.LASF132:
 4548 0109 6D625F77 		.ascii	"mb_wrptr\000"
 4548      72707472 
 4548      00
 4549              	.LASF19:
 4550 0112 72747469 		.ascii	"rttime_t\000"
 4550      6D655F74 
 4550      00
 4551              	.LASF32:
 4552 011b 705F7072 		.ascii	"p_prio\000"
 4552      696F00
 4553              	.LASF11:
 4554 0122 6C6F6E67 		.ascii	"long long int\000"
 4554      206C6F6E 
 4554      6720696E 
 4554      7400
 4555              	.LASF1:
 4556 0130 7369676E 		.ascii	"signed char\000"
 4556      65642063 
 4556      68617200 
 4557              	.LASF160:
 4558 013c 2F686F6D 		.ascii	"/home/jerker/git/AutoTux/stm32\000"
 4558      652F6A65 
 4558      726B6572 
 4558      2F676974 
 4558      2F417574 
 4559              	.LASF47:
 4560 015b 705F6D70 		.ascii	"p_mpool\000"
 4560      6F6F6C00 
 4561              	.LASF124:
 4562 0163 6D5F7175 		.ascii	"m_queue\000"
 4562      65756500 
 4563              	.LASF83:
 4564 016b 76746C69 		.ascii	"vtlist\000"
 4564      737400
 4565              	.LASF144:
 4566 0172 706F7274 		.ascii	"port_unlock\000"
 4566      5F756E6C 
 4566      6F636B00 
 4567              	.LASF116:
 4568 017e 77747472 		.ascii	"wttrp\000"
 4568      7000
 4569              	.LASF81:
 4570 0184 63685F73 		.ascii	"ch_system\000"
 4570      79737465 
 4570      6D00
 4571              	.LASF8:
 4572 018e 6C6F6E67 		.ascii	"long int\000"
 4572      20696E74 
 4572      00
 4573              	.LASF21:
 4574 0197 74737461 		.ascii	"tstate_t\000"
 4574      74655F74 
ARM GAS  /tmp/ccuZSfQH.s 			page 138


 4574      00
 4575              	.LASF93:
 4576 01a0 73655F74 		.ascii	"se_tp\000"
 4576      7000
 4577              	.LASF142:
 4578 01a6 62756666 		.ascii	"buffer\000"
 4578      657200
 4579              	.LASF34:
 4580 01ad 705F6E65 		.ascii	"p_newer\000"
 4580      77657200 
 4581              	.LASF121:
 4582 01b5 735F7175 		.ascii	"s_queue\000"
 4582      65756500 
 4583              	.LASF147:
 4584 01bd 63684D42 		.ascii	"chMBGetFreeCountI\000"
 4584      47657446 
 4584      72656543 
 4584      6F756E74 
 4584      4900
 4585              	.LASF97:
 4586 01cf 74625F73 		.ascii	"tb_size\000"
 4586      697A6500 
 4587              	.LASF60:
 4588 01d7 725F6E65 		.ascii	"r_newer\000"
 4588      77657200 
 4589              	.LASF88:
 4590 01df 72656761 		.ascii	"regarm_t\000"
 4590      726D5F74 
 4590      00
 4591              	.LASF67:
 4592 01e8 76745F70 		.ascii	"vt_prev\000"
 4592      72657600 
 4593              	.LASF75:
 4594 01f0 63685F73 		.ascii	"ch_system_debug\000"
 4594      79737465 
 4594      6D5F6465 
 4594      62756700 
 4595              	.LASF129:
 4596 0200 6D757465 		.ascii	"mutex_t\000"
 4596      785F7400 
 4597              	.LASF163:
 4598 0208 76616C75 		.ascii	"value\000"
 4598      6500
 4599              	.LASF78:
 4600 020e 6C6F636B 		.ascii	"lock_cnt\000"
 4600      5F636E74 
 4600      00
 4601              	.LASF9:
 4602 0217 5F5F7569 		.ascii	"__uint32_t\000"
 4602      6E743332 
 4602      5F7400
 4603              	.LASF26:
 4604 0222 636E745F 		.ascii	"cnt_t\000"
 4604      7400
 4605              	.LASF37:
 4606 0228 705F7374 		.ascii	"p_stklimit\000"
 4606      6B6C696D 
ARM GAS  /tmp/ccuZSfQH.s 			page 139


 4606      697400
 4607              	.LASF0:
 4608 0233 756E7369 		.ascii	"unsigned int\000"
 4608      676E6564 
 4608      20696E74 
 4608      00
 4609              	.LASF66:
 4610 0240 76745F6E 		.ascii	"vt_next\000"
 4610      65787400 
 4611              	.LASF152:
 4612 0248 6D736731 		.ascii	"msg1\000"
 4612      00
 4613              	.LASF153:
 4614 024d 6D736732 		.ascii	"msg2\000"
 4614      00
 4615              	.LASF117:
 4616 0252 77747365 		.ascii	"wtsemp\000"
 4616      6D7000
 4617              	.LASF42:
 4618 0259 705F6D73 		.ascii	"p_msgqueue\000"
 4618      67717565 
 4618      756500
 4619              	.LASF140:
 4620 0264 74656172 		.ascii	"teardown\000"
 4620      646F776E 
 4620      00
 4621              	.LASF135:
 4622 026d 6D625F65 		.ascii	"mb_emptysem\000"
 4622      6D707479 
 4622      73656D00 
 4623              	.LASF108:
 4624 0279 6E5F6972 		.ascii	"n_irq\000"
 4624      7100
 4625              	.LASF122:
 4626 027f 735F636E 		.ascii	"s_cnt\000"
 4626      7400
 4627              	.LASF138:
 4628 0285 6E616D65 		.ascii	"name\000"
 4628      00
 4629              	.LASF6:
 4630 028a 73686F72 		.ascii	"short unsigned int\000"
 4630      7420756E 
 4630      7369676E 
 4630      65642069 
 4630      6E7400
 4631              	.LASF112:
 4632 029d 6B65726E 		.ascii	"kernel_stats_t\000"
 4632      656C5F73 
 4632      74617473 
 4632      5F7400
 4633              	.LASF51:
 4634 02ac 63685F74 		.ascii	"ch_thread\000"
 4634      68726561 
 4634      6400
 4635              	.LASF157:
 4636 02b6 70617474 		.ascii	"patternmbox\000"
 4636      65726E6D 
ARM GAS  /tmp/ccuZSfQH.s 			page 140


 4636      626F7800 
 4637              	.LASF24:
 4638 02c2 6D73675F 		.ascii	"msg_t\000"
 4638      7400
 4639              	.LASF105:
 4640 02c8 6C617374 		.ascii	"last\000"
 4640      00
 4641              	.LASF27:
 4642 02cd 75636E74 		.ascii	"ucnt_t\000"
 4642      5F7400
 4643              	.LASF80:
 4644 02d4 63685F73 		.ascii	"ch_system_t\000"
 4644      79737465 
 4644      6D5F7400 
 4645              	.LASF158:
 4646 02e0 474E5520 		.ascii	"GNU C 4.8.2 -mcpu=cortex-m4 -mno-thumb-interwork -m"
 4646      4320342E 
 4646      382E3220 
 4646      2D6D6370 
 4646      753D636F 
 4647 0313 7468756D 		.ascii	"thumb -ggdb -O0 -fomit-frame-pointer -falign-functi"
 4647      62202D67 
 4647      67646220 
 4647      2D4F3020 
 4647      2D666F6D 
 4648 0346 6F6E733D 		.ascii	"ons=16 -ffunction-sections -fdata-sections -fno-com"
 4648      3136202D 
 4648      6666756E 
 4648      6374696F 
 4648      6E2D7365 
 4649 0379 6D6F6E20 		.ascii	"mon -flto\000"
 4649      2D666C74 
 4649      6F00
 4650              	.LASF20:
 4651 0383 746D6F64 		.ascii	"tmode_t\000"
 4651      655F7400 
 4652              	.LASF150:
 4653 038b 6D626F78 		.ascii	"mbox1_setup\000"
 4653      315F7365 
 4653      74757000 
 4654              	.LASF111:
 4655 0397 6D5F6372 		.ascii	"m_crit_isr\000"
 4655      69745F69 
 4655      737200
 4656              	.LASF56:
 4657 03a2 63685F72 		.ascii	"ch_ready_list\000"
 4657      65616479 
 4657      5F6C6973 
 4657      7400
 4658              	.LASF25:
 4659 03b0 6576656E 		.ascii	"eventmask_t\000"
 4659      746D6173 
 4659      6B5F7400 
 4660              	.LASF7:
 4661 03bc 5F5F696E 		.ascii	"__int32_t\000"
 4661      7433325F 
 4661      7400
ARM GAS  /tmp/ccuZSfQH.s 			page 141


 4662              	.LASF156:
 4663 03c6 74657374 		.ascii	"testmbox1\000"
 4663      6D626F78 
 4663      3100
 4664              	.LASF89:
 4665 03d0 73746B61 		.ascii	"stkalign_t\000"
 4665      6C69676E 
 4665      5F7400
 4666              	.LASF41:
 4667 03db 705F7761 		.ascii	"p_waiting\000"
 4667      6974696E 
 4667      6700
 4668              	.LASF87:
 4669 03e5 73697A65 		.ascii	"sizetype\000"
 4669      74797065 
 4669      00
 4670              	.LASF49:
 4671 03ee 74687265 		.ascii	"thread_reference_t\000"
 4671      61645F72 
 4671      65666572 
 4671      656E6365 
 4671      5F7400
 4672              	.LASF72:
 4673 0401 63685F76 		.ascii	"ch_virtual_timers_list\000"
 4673      69727475 
 4673      616C5F74 
 4673      696D6572 
 4673      735F6C69 
 4674              	.LASF133:
 4675 0418 6D625F72 		.ascii	"mb_rdptr\000"
 4675      64707472 
 4675      00
 4676              	.LASF96:
 4677 0421 63685F73 		.ascii	"ch_swc_event_t\000"
 4677      77635F65 
 4677      76656E74 
 4677      5F7400
 4678              	.LASF73:
 4679 0430 76745F6C 		.ascii	"vt_lasttime\000"
 4679      61737474 
 4679      696D6500 
 4680              	.LASF35:
 4681 043c 705F6F6C 		.ascii	"p_older\000"
 4681      64657200 
 4682              	.LASF59:
 4683 0444 725F6374 		.ascii	"r_ctx\000"
 4683      7800
 4684              	.LASF136:
 4685 044a 6D61696C 		.ascii	"mailbox_t\000"
 4685      626F785F 
 4685      7400
 4686              	.LASF102:
 4687 0454 746D5F63 		.ascii	"tm_calibration_t\000"
 4687      616C6962 
 4687      72617469 
 4687      6F6E5F74 
 4687      00
ARM GAS  /tmp/ccuZSfQH.s 			page 142


 4688              	.LASF139:
 4689 0465 73657475 		.ascii	"setup\000"
 4689      7000
 4690              	.LASF130:
 4691 046b 6D625F62 		.ascii	"mb_buffer\000"
 4691      75666665 
 4691      7200
 4692              	.LASF151:
 4693 0475 6D626F78 		.ascii	"mbox1_execute\000"
 4693      315F6578 
 4693      65637574 
 4693      6500
 4694              	.LASF62:
 4695 0483 725F6375 		.ascii	"r_current\000"
 4695      7272656E 
 4695      7400
 4696              	.LASF61:
 4697 048d 725F6F6C 		.ascii	"r_older\000"
 4697      64657200 
 4698              	.LASF12:
 4699 0495 5F5F7569 		.ascii	"__uint64_t\000"
 4699      6E743634 
 4699      5F7400
 4700              	.LASF106:
 4701 04a0 63756D75 		.ascii	"cumulative\000"
 4701      6C617469 
 4701      766500
 4702              	.LASF164:
 4703 04ab 5F5F6675 		.ascii	"__func__.5915\000"
 4703      6E635F5F 
 4703      2E353931 
 4703      3500
 4704              	.LASF22:
 4705 04b9 74726566 		.ascii	"trefs_t\000"
 4705      735F7400 
 4706              	.LASF99:
 4707 04c1 74625F62 		.ascii	"tb_buffer\000"
 4707      75666665 
 4707      7200
 4708              	.LASF64:
 4709 04cb 76697274 		.ascii	"virtual_timer_t\000"
 4709      75616C5F 
 4709      74696D65 
 4709      725F7400 
 4710              	.LASF31:
 4711 04db 705F7072 		.ascii	"p_prev\000"
 4711      657600
 4712              	.LASF141:
 4713 04e2 65786563 		.ascii	"execute\000"
 4713      75746500 
 4714              	.LASF23:
 4715 04ea 74707269 		.ascii	"tprio_t\000"
 4715      6F5F7400 
 4716              	.LASF109:
 4717 04f2 6E5F6374 		.ascii	"n_ctxswc\000"
 4717      78737763 
 4717      00
ARM GAS  /tmp/ccuZSfQH.s 			page 143


 4718              	.LASF15:
 4719 04fb 696E7433 		.ascii	"int32_t\000"
 4719      325F7400 
 4720              	.LASF4:
 4721 0503 756E7369 		.ascii	"unsigned char\000"
 4721      676E6564 
 4721      20636861 
 4721      7200
 4722              	.LASF148:
 4723 0511 63684D42 		.ascii	"chMBGetUsedCountI\000"
 4723      47657455 
 4723      73656443 
 4723      6F756E74 
 4723      4900
 4724              	.LASF131:
 4725 0523 6D625F74 		.ascii	"mb_top\000"
 4725      6F7000
 4726              	.LASF154:
 4727 052a 49544D5F 		.ascii	"ITM_RxBuffer\000"
 4727      52784275 
 4727      66666572 
 4727      00
 4728              	.LASF45:
 4729 0537 705F6D74 		.ascii	"p_mtxlist\000"
 4729      786C6973 
 4729      7400
 4730              	.LASF5:
 4731 0541 73686F72 		.ascii	"short int\000"
 4731      7420696E 
 4731      7400
 4732              	.LASF38:
 4733 054b 705F7374 		.ascii	"p_state\000"
 4733      61746500 
 4734              	.LASF58:
 4735 0553 725F7072 		.ascii	"r_prio\000"
 4735      696F00
 4736              	.LASF119:
 4737 055a 65776D61 		.ascii	"ewmask\000"
 4737      736B00
 4738              	.LASF30:
 4739 0561 705F6E65 		.ascii	"p_next\000"
 4739      787400
 4740              	.LASF39:
 4741 0568 705F666C 		.ascii	"p_flags\000"
 4741      61677300 
 4742              	.LASF48:
 4743 0570 705F7374 		.ascii	"p_stats\000"
 4743      61747300 
 4744              	.LASF149:
 4745 0578 63685379 		.ascii	"chSysLock\000"
 4745      734C6F63 
 4745      6B00
 4746              	.LASF128:
 4747 0582 73656D61 		.ascii	"semaphore_t\000"
 4747      70686F72 
 4747      655F7400 
 4748              	.LASF53:
ARM GAS  /tmp/ccuZSfQH.s 			page 144


 4749 058e 74687265 		.ascii	"threads_queue_t\000"
 4749      6164735F 
 4749      71756575 
 4749      655F7400 
 4750              	.LASF65:
 4751 059e 63685F76 		.ascii	"ch_virtual_timer\000"
 4751      69727475 
 4751      616C5F74 
 4751      696D6572 
 4751      00
 4752              	.LASF137:
 4753 05af 74657374 		.ascii	"testcase\000"
 4753      63617365 
 4753      00
 4754              	.LASF120:
 4755 05b8 63685F73 		.ascii	"ch_semaphore\000"
 4755      656D6170 
 4755      686F7265 
 4755      00
 4756              	.LASF44:
 4757 05c5 705F6570 		.ascii	"p_epending\000"
 4757      656E6469 
 4757      6E6700
 4758              	.LASF159:
 4759 05d0 6C69622F 		.ascii	"lib/ChibiOS_16.1.4//test/rt/testmbox.c\000"
 4759      43686962 
 4759      694F535F 
 4759      31362E31 
 4759      2E342F2F 
 4760              	.LASF16:
 4761 05f7 75696E74 		.ascii	"uint32_t\000"
 4761      33325F74 
 4761      00
 4762              	.LASF118:
 4763 0600 77746D74 		.ascii	"wtmtxp\000"
 4763      787000
 4764              	.LASF57:
 4765 0607 725F7175 		.ascii	"r_queue\000"
 4765      65756500 
 4766              	.LASF68:
 4767 060f 76745F64 		.ascii	"vt_delta\000"
 4767      656C7461 
 4767      00
 4768              	.LASF52:
 4769 0618 63685F74 		.ascii	"ch_threads_list\000"
 4769      68726561 
 4769      64735F6C 
 4769      69737400 
 4770              	.LASF10:
 4771 0628 6C6F6E67 		.ascii	"long unsigned int\000"
 4771      20756E73 
 4771      69676E65 
 4771      6420696E 
 4771      7400
 4772              	.LASF127:
 4773 063a 63686172 		.ascii	"char\000"
 4773      00
ARM GAS  /tmp/ccuZSfQH.s 			page 145


 4774              	.LASF29:
 4775 063f 74687265 		.ascii	"thread_t\000"
 4775      61645F74 
 4775      00
 4776              	.LASF103:
 4777 0648 62657374 		.ascii	"best\000"
 4777      00
 4778              	.LASF126:
 4779 064d 6D5F6E65 		.ascii	"m_next\000"
 4779      787400
 4780              	.LASF28:
 4781 0654 73797374 		.ascii	"systime_t\000"
 4781      696D655F 
 4781      7400
 4782              	.LASF46:
 4783 065e 705F7265 		.ascii	"p_realprio\000"
 4783      616C7072 
 4783      696F00
 4784              	.LASF63:
 4785 0669 76746675 		.ascii	"vtfunc_t\000"
 4785      6E635F74 
 4785      00
 4786              	.LASF146:
 4787 0672 63685365 		.ascii	"chSemGetCounterI\000"
 4787      6D476574 
 4787      436F756E 
 4787      74657249 
 4787      00
 4788              	.LASF162:
 4789 0683 5F5F7365 		.ascii	"__set_BASEPRI\000"
 4789      745F4241 
 4789      53455052 
 4789      4900
 4790              	.LASF76:
 4791 0691 70616E69 		.ascii	"panic_msg\000"
 4791      635F6D73 
 4791      6700
 4792              	.LASF101:
 4793 069b 6F666673 		.ascii	"offset\000"
 4793      657400
 4794              	.LASF90:
 4795 06a2 636F6E74 		.ascii	"context\000"
 4795      65787400 
 4796              	.LASF18:
 4797 06aa 7274636E 		.ascii	"rtcnt_t\000"
 4797      745F7400 
 4798              	.LASF70:
 4799 06b2 76745F70 		.ascii	"vt_par\000"
 4799      617200
 4800              	.LASF134:
 4801 06b9 6D625F66 		.ascii	"mb_fullsem\000"
 4801      756C6C73 
 4801      656D00
 4802              	.LASF161:
 4803 06c4 74657374 		.ascii	"test_buffers\000"
 4803      5F627566 
 4803      66657273 
ARM GAS  /tmp/ccuZSfQH.s 			page 146


 4803      00
 4804              	.LASF123:
 4805 06d1 63685F6D 		.ascii	"ch_mutex\000"
 4805      75746578 
 4805      00
 4806              	.LASF40:
 4807 06da 705F7265 		.ascii	"p_refs\000"
 4807      667300
 4808              	.LASF77:
 4809 06e1 6973725F 		.ascii	"isr_cnt\000"
 4809      636E7400 
 4810              	.LASF82:
 4811 06e9 726C6973 		.ascii	"rlist\000"
 4811      7400
 4812              	.LASF14:
 4813 06ef 75696E74 		.ascii	"uint8_t\000"
 4813      385F7400 
 4814              	.LASF115:
 4815 06f7 77746F62 		.ascii	"wtobjp\000"
 4815      6A7000
 4816              	.LASF36:
 4817 06fe 705F6E61 		.ascii	"p_name\000"
 4817      6D6500
 4818              	.LASF50:
 4819 0705 74687265 		.ascii	"threads_list_t\000"
 4819      6164735F 
 4819      6C697374 
 4819      5F7400
 4820              	.LASF79:
 4821 0714 74726163 		.ascii	"trace_buffer\000"
 4821      655F6275 
 4821      66666572 
 4821      00
 4822              	.LASF145:
 4823 0721 63685379 		.ascii	"chSysUnlock\000"
 4823      73556E6C 
 4823      6F636B00 
 4824              	.LASF43:
 4825 072d 705F6D73 		.ascii	"p_msg\000"
 4825      6700
 4826              	.LASF110:
 4827 0733 6D5F6372 		.ascii	"m_crit_thd\000"
 4827      69745F74 
 4827      686400
 4828              	.LASF125:
 4829 073e 6D5F6F77 		.ascii	"m_owner\000"
 4829      6E657200 
 4830              	.LASF94:
 4831 0746 73655F77 		.ascii	"se_wtobjp\000"
 4831      746F626A 
 4831      7000
 4832              	.LASF33:
 4833 0750 705F6374 		.ascii	"p_ctx\000"
 4833      7800
 4834              	.LASF69:
 4835 0756 76745F66 		.ascii	"vt_func\000"
 4835      756E6300 
ARM GAS  /tmp/ccuZSfQH.s 			page 147


 4836              		.comm	__gnu_lto_v1,1,1
 4837              		.ident	"GCC: (4.8.2-14ubuntu1+6) 4.8.2"
ARM GAS  /tmp/ccuZSfQH.s 			page 148


DEFINED SYMBOLS
                            *ABS*:0000000000000000 testmbox.c
     /tmp/ccuZSfQH.s:893    .text.port_lock:0000000000000000 $t
     /tmp/ccuZSfQH.s:898    .text.port_lock:0000000000000000 port_lock
     /tmp/ccuZSfQH.s:929    .text.port_unlock:0000000000000000 $t
     /tmp/ccuZSfQH.s:934    .text.port_unlock:0000000000000000 port_unlock
     /tmp/ccuZSfQH.s:963    .text.chSysLock:0000000000000000 $t
     /tmp/ccuZSfQH.s:968    .text.chSysLock:0000000000000000 chSysLock
     /tmp/ccuZSfQH.s:991    .text.chSysUnlock:0000000000000000 $t
     /tmp/ccuZSfQH.s:996    .text.chSysUnlock:0000000000000000 chSysUnlock
     /tmp/ccuZSfQH.s:2379   .rodata.__func__.5915:0000000000000000 __func__.5915
     /tmp/ccuZSfQH.s:1041   .text.chSemGetCounterI:0000000000000000 $t
     /tmp/ccuZSfQH.s:1046   .text.chSemGetCounterI:0000000000000000 chSemGetCounterI
     /tmp/ccuZSfQH.s:1073   .text.chMBGetFreeCountI:0000000000000000 $t
     /tmp/ccuZSfQH.s:1078   .text.chMBGetFreeCountI:0000000000000000 chMBGetFreeCountI
     /tmp/ccuZSfQH.s:1108   .text.chMBGetUsedCountI:0000000000000000 $t
     /tmp/ccuZSfQH.s:1113   .text.chMBGetUsedCountI:0000000000000000 chMBGetUsedCountI
     /tmp/ccuZSfQH.s:1142   .data.mb1:0000000000000000 $d
     /tmp/ccuZSfQH.s:1145   .data.mb1:0000000000000000 mb1
     /tmp/ccuZSfQH.s:1157   .text.mbox1_setup:0000000000000000 $t
     /tmp/ccuZSfQH.s:1162   .text.mbox1_setup:0000000000000000 mbox1_setup
     /tmp/ccuZSfQH.s:1186   .rodata:0000000000000000 $d
     /tmp/ccuZSfQH.s:1187   .rodata:0000000000000000 .LC0
     /tmp/ccuZSfQH.s:1190   .text.mbox1_execute:0000000000000000 $t
     /tmp/ccuZSfQH.s:1195   .text.mbox1_execute:0000000000000000 mbox1_execute
     /tmp/ccuZSfQH.s:2362   .rodata.testmbox1:0000000000000000 testmbox1
     /tmp/ccuZSfQH.s:2359   .rodata.testmbox1:0000000000000000 $d
     /tmp/ccuZSfQH.s:2372   .rodata.patternmbox:0000000000000000 patternmbox
     /tmp/ccuZSfQH.s:2369   .rodata.patternmbox:0000000000000000 $d
     /tmp/ccuZSfQH.s:2376   .rodata.__func__.5915:0000000000000000 $d
                            *COM*:0000000000000001 __gnu_lto_v1
                     .debug_frame:0000000000000010 $d

UNDEFINED SYMBOLS
_stats_start_measure_crit_thd
_dbg_check_lock
_dbg_check_unlock
_stats_stop_measure_crit_thd
ch
chSysHalt
chDbgCheckClassI
test
chMBObjectInit
_test_assert
chMBPost
chMBPostAhead
chMBPostI
chMBPostAheadI
chMBFetch
test_emit_token
_test_assert_sequence
chMBFetchI
chMBReset
