ARM GAS  /tmp/cc8Fn70g.s 			page 1


   1              		.syntax unified
   2              		.cpu cortex-m4
   3              		.fpu softvfp
   4              		.eabi_attribute 20, 1
   5              		.eabi_attribute 21, 1
   6              		.eabi_attribute 23, 3
   7              		.eabi_attribute 24, 1
   8              		.eabi_attribute 25, 1
   9              		.eabi_attribute 26, 1
  10              		.eabi_attribute 30, 6
  11              		.eabi_attribute 34, 1
  12              		.eabi_attribute 18, 4
  13              		.thumb
  14              		.file	"testpools.c"
  15              		.text
  16              	.Ltext0:
  17              		.section	.gnu.lto_.inline.f5d70606e0d3fc1d,"",%progbits
  18 0000 789C6362 		.ascii	"x\234cb`b\300\006\032\24143\020\001U01-\220g`\201\250"
  18      6062C006 
  18      1AA13433 
  18      10015530 
  18      312D9067 
  19 0017 656460E7 		.ascii	"ed`\347G\025a\341\005\253<\315\260\237\021(av`+3\252"
  19      471561E1 
  19      05AB3CCD 
  19      B09F1128 
  19      6176602B 
  20 002d 0C0F8C85 		.ascii	"\014\017\214\205\306\005\263\320\270h,\006\000,\206"
  20      C605B3D0 
  20      B8682C06 
  20      002C86
  21 003c 065D     		.ascii	"\006]"
  22              		.text
  23              		.section	.gnu.lto_null_provider.f5d70606e0d3fc1d,"",%progbits
  24 0000 789C6362 		.ascii	"x\234cb`b@\007\322@\274\015\210\265@\034\026\006F\240"
  24      60624007 
  24      D240BC0D 
  24      88B5401C 
  24      160646A0 
  25 0014 0A462646 		.ascii	"\012F&Ff \311\314\310\010\024bd\250gbf\254\217\004\261"
  25      6620C9CC 
  25      C8081462 
  25      64A86762 
  25      66AC8F04 
  26 0029 19189518 		.ascii	"\031\030\225\030\02664\314z\360\364\376\311\205\214"
  26      163634CC 
  26      7AF0F4FE 
  26      C9858C
  27 0038 0D931A1A 		.ascii	"\015\223\032\032?\374\377\317\237\011\222Jfd\210`\314"
  27      3FFCFFCF 
  27      9F09924A 
  27      66648860 
  27      CC
  28 0049 64645400 		.ascii	"ddT\000SL,\250\226\254g:\360\340\377\3773\353\247\035"
  28      534C2CA8 
  28      96AC673A 
  28      F0E0FFFF 
ARM GAS  /tmp/cc8Fn70g.s 			page 2


  28      33EBA71D 
  29 005d 93001ACE 		.ascii	"\223\000\032\316\000\326\301\300\312\320\322\3200A\001"
  29      00D6C1C0 
  29      CAD0D2D0 
  29      304101
  30 006c AC170842 		.ascii	"\254\027\010B\300d(\310\001\314g\031\232v\374\270\317"
  30      C06428C8 
  30      01CC6719 
  30      9A76FCB8 
  30      CF
  31 007d 98C8B888 		.ascii	"\230\310\270\210\221\225!\235\221\021d&\334\260P\220"
  31      9195219D 
  31      91116426 
  31      DCB05090 
  32 008d EB984F33 		.ascii	"\353\230O34r00\244\200\204/2 TB\224\204\200\030 \277"
  32      34723030 
  32      A480842F 
  32      32205442 
  32      94848018 
  33 00a3 6AE46426 		.ascii	"j\344d&\351;gd&e\372\007\307\033\232\351\031\352\231"
  33      E93B6764 
  33      2665FA07 
  33      C71B9AE9 
  33      19EA99
  34 00b6 E8EB97A4 		.ascii	"\350\353\227\244\026\227\350\027\225\200\351\202\374"
  34      1697E817 
  34      9580E982 
  34      FC
  35 00c3 FC9C62BD 		.ascii	"\374\234b\275d\006\000\270\0243\241"
  35      640600B8 
  35      1433A1
  36              		.text
  37              		.section	.gnu.lto_pools1_setup.f5d70606e0d3fc1d,"",%progbits
  38 0000 789C6362 		.ascii	"x\234cb`b@\007\"@<\035\210\265@\034f\006F\240\012F&"
  38      60624007 
  38      22403C1D 
  38      88B5401C 
  38      660646A0 
  39 0017 46462087 		.ascii	"FF \207\221\241\236\211\261>\222\021\254l=\323\201\007"
  39      91A19E89 
  39      B13E9211 
  39      AC6C3DD3 
  39      8107
  40 0029 FFFFAF9B 		.ascii	"\377\377\257\233\322\266\344\016\343\014&\220\030+C"
  40      D2B6E40E 
  40      E30C2690 
  40      182B43
  41 0038 4B43C304 		.ascii	"KC\303\004\005\006\206d\260\212\0200\031\012\322\317"
  41      05068664 
  41      B08A1030 
  41      190AD2CF 
  42 0048 7C9EA1ED 		.ascii	"|\236\241\355A\317c\256D\306\205\214\254@\301j\206_"
  42      41CF63AE 
  42      44C6858C 
  42      AC40C16A 
  42      865F
  43 005a 0D1D0D02 		.ascii	"\015\035\015\002\231\214@\245\020\323@\"\034\231\214"
ARM GAS  /tmp/cc8Fn70g.s 			page 3


  43      998C40A5 
  43      10D34022 
  43      1C998C
  44 0069 8CB98C0C 		.ascii	"\214\271\214\014PE\021\214\231\214L/\230\30043\003C"
  44      5045118C 
  44      998C4C2F 
  44      98C03433 
  44      0343
  45 007b 26230B03 		.ascii	"&#\013\003\303E\206\306\007\275\3120S  \004d\002\310"
  45      C34586C6 
  45      07BDCA30 
  45      53202004 
  45      6402C8
  46 008e 171A3999 		.ascii	"\027\0329\231I\372\316\031\231I\231\376\301\361\206"
  46      49FACE19 
  46      994999FE 
  46      C1F186
  47 009d 667A867A 		.ascii	"fz\206z&\372\372%\251\305%\372E%`\272 ??\247X/\231\001"
  47      26FAFA25 
  47      A9C525FA 
  47      452560BA 
  47      203F3FA7 
  48 00b5 00A9512E 		.ascii	"\000\251Q.\317"
  48      CF
  49              		.text
  50              		.section	.gnu.lto_pools1_execute.f5d70606e0d3fc1d,"",%progbits
  51 0000 789CCD56 		.ascii	"x\234\315V\315k\023A\024\2377\223\315~d\223\335|\265"
  51      CD6B1341 
  51      149F3793 
  51      CD7E6493 
  51      DD7CB5
  52 0013 B65EC493 		.ascii	"\266^\304\223\240\266\010\342?\340\311\223\007-\350"
  52      A0B608E2 
  52      3FE0C993 
  52      072DE8
  53 0022 497495BA 		.ascii	"It\225\272\240(\332\233\207nl\220\"\025K\361\340\307"
  53      A028DA9B 
  53      876E6C90 
  53      22154BF1 
  53      E0C7
  54 0034 41C54B11 		.ascii	"A\305K\021Q\024\301\"\2109U\333\"\325\203PA!(*\242\210"
  54      5114C122 
  54      883955DB 
  54      22D58350 
  54      4121282A 
  55 004a 17416C31 		.ascii	"\027Al1\2767\373\221\230\335`-\036\272\220\3317\277"
  55      BE37FB91 
  55      98DD602D 
  55      1EBA90D9 
  55      37BF
  56 005c 79BF99F7 		.ascii	"y\277\231\367~\357e\022\3168k\177f\360\363\311`l\023"
  56      7EEF6512 
  56      CE386B7F 
  56      66F0F3C9 
  56      606C13
  57 006f 4DBA18A0 		.ascii	"M\272\030\240\007pH\343(x\2121\217+8\244RPFD\221x\232"
  57      077048E3 
ARM GAS  /tmp/cc8Fn70g.s 			page 4


  57      28788A31 
  57      8F2B38A4 
  57      52504644 
  58 0086 0BC255C2 		.ascii	"\013\302U\302U\256\221\255\223\255I\037\03528\032r\314"
  58      55AE91AD 
  58      93AD491F 
  58      1D32381A 
  58      72CC
  59 0098 7083564D 		.ascii	"p\203VMZ5\301F$\313s\204X\204\344\244\277%q\233g\011"
  59      5A35C146 
  59      24CB7384 
  59      5884E4A4 
  59      BF25719B 
  60 00ae CF139EE7 		.ascii	"\317\023\236\347\005\262\213d\027\244O\221\227\010)"
  60      05B28B64 
  60      17A44F91 
  60      970829
  61 00bd 13529248 		.ascii	"\023R\222H\031\000\303\0056\314EJI\253\232nd\314l\316"
  61      1900C305 
  61      36CC454A 
  61      49AB9A6E 
  61      64CC6CCE 
  62 00d1 B2F38562 		.ascii	"\262\363\205b\251\014\303{i\225\025\326\263\353\236"
  62      A90CC37B 
  62      699515D6 
  62      B3EB9E
  63 00e0 37517FFF 		.ascii	"7Q\177\377\3419\277t\241V\275\346-5\032\000.-:\300\366"
  63      E139BF74 
  63      A156BDE6 
  63      2D351A00 
  63      2E2D3AC0 
  64 00f5 A005EBE4 		.ascii	"\240\005\353\344\2132m}|b\355\361\364\354u\360&\274"
  64      8B326D7D 
  64      7C62EDF1 
  64      F4EC75F0 
  64      26BC
  65 0107 CAB746C3 		.ascii	"\312\267F\303Z6\315\273=\351\011y\226pA49\232\317\201"
  65      5A36CDBB 
  65      3DE90979 
  65      96704134 
  65      399ACF81 
  66 011b FFC5A9BD 		.ascii	"\377\305\251\275\234\236Y\315\341\275\231>\337s\366"
  66      9C9E59CD 
  66      E1BD993E 
  66      DF73F6
  67 012a DAE971EF 		.ascii	"\332\351q\357\027\252\276|\321\277\257n\321\027W\267"
  67      17AABE7C 
  67      D1BFAF6E 
  67      D11757B7 
  68 013a E8134FC6 		.ascii	"\350\023O\306\214\361\312\250\327h\014\257\266\340\306"
  68      8CF1CAA8 
  68      D7680CAF 
  68      B6E0C6
  69 0149 6B77A7E7 		.ascii	"kw\247\347Z\244Kq\266\021\376\022\340\035^\2537\032"
  69      5AA44B71 
  69      B611FE12 
  69      E01D5EAB 
ARM GAS  /tmp/cc8Fn70g.s 			page 5


  69      371A
  70 015b 4B7727DF 		.ascii	"Kw'\337\316B~-\260\375p\017\326\343-\346\277E\360N1"
  70      CE427E2D 
  70      B0FD700F 
  70      D6E32DE6 
  70      BF45F04E 
  71 0170 CC550926 		.ascii	"\314U\011&i\232\2508\010\215\006=\200\015\2023\204\230"
  71      699AA838 
  71      088D063D 
  71      800D8233 
  71      8498
  72 0182 34640338 		.ascii	"4d\0038G\260\025L\354\340\235'\260@nE\032J\001\\&\270"
  72      47B0154C 
  72      ECE09D27 
  72      B0406E45 
  72      1A4A015C 
  73 0198 8B906E1A 		.ascii	"\213\220n\032\326\320\264\207\254^&5\300\020\252\230"
  73      D6D0B487 
  73      AC5E2635 
  73      C010AA98 
  74 01a8 E63ADF5B 		.ascii	"\346:\337[j\202\317n9\016\320\305*\236\261\323\257\177"
  74      6A82CF6E 
  74      390ED0C5 
  74      2A9EB1D3 
  74      AF7F
  75 01ba E06DB41F 		.ascii	"\340m\264\037\356\203\302\006!\265\231\335\362l\027"
  75      EE83C206 
  75      21B599DD 
  75      F26C17
  76 01c9 942BEC72 		.ascii	"\224+\354re\234\254\364)\366\323\273H\226zT\022I\025"
  76      659CACF4 
  76      29F6D3BB 
  76      48967A54 
  76      124915
  77 01dc 958556AB 		.ascii	"\225\205V\253<\363,\355\357\303\030\221F\211\2449\340"
  77      3CF32CED 
  77      EFC31891 
  77      4689A439 
  77      E0
  78 01ed 4B4F88E6 		.ascii	"KO\210\346\202~\024 p\302\323h\007C\301`\361r\306P\246"
  78      827E1420 
  78      70C2D368 
  78      0743C160 
  78      F172C650 
  79 0202 163E3E87 		.ascii	"\026>>\2070\024\345\217\355\007(\0371\317\252\365\253"
  79      3014E58F 
  79      ED07281F 
  79      31CFAAF5 
  79      AB
  80 0213 37229774 		.ascii	"7\"\227tt\214\351\000\357p\214\013Y\332|dA\2044\025"
  80      748CE900 
  80      EF708C0B 
  80      59DA7C64 
  80      41843415 
  81 0227 997BFC0B 		.ascii	"\231{\374\013\200\202VB\\\213\266\3139R>?E\013\210\343"
  81      80825642 
  81      5C8BB6CB 
ARM GAS  /tmp/cc8Fn70g.s 			page 6


  81      39523E3F 
  81      450B88E3 
  82 023b D2CFC253 		.ascii	"\322\317\302SV\375\022\235\256\321\242hm\216\335\024"
  82      56FD129D 
  82      AED1A268 
  82      6D8EDD14 
  83 024b AF18A053 		.ascii	"\257\030\240SQ\331\221\321\221\305\261\035\241\267>"
  83      51D991D1 
  83      91C5B11D 
  83      A1B73E
  84 025a 08203382 		.ascii	"\010 3\202(#\374\355\022\270\343\207\212\032:\371\036"
  84      2823FCED 
  84      12B8E387 
  84      8A1A3AF9 
  84      1E
  85 026b 4D4D5F31 		.ascii	"MM_1@!\370\244@\276rQ'\222\032\310p\323\011I\306\277"
  85      4021F8A4 
  85      40BE7251 
  85      27921AC8 
  85      70D30949 
  86 0281 A8301FA9 		.ascii	"\2500\037\251\220Af\222\012f\007\0258q\342*\230\011"
  86      90416692 
  86      0A660715 
  86      3871E22A 
  86      9809
  87 0293 2A685205 		.ascii	"*hR\005\335\357\257\251\251\317\315\242f\333\212j\004"
  87      DDEFAFA9 
  87      A9CFCDA2 
  87      66DB8A6A 
  87      04
  88 02a4 3DB8F0F9 		.ascii	"=\270\360\371G\344\223\373\227\036\034\204\346?\210"
  88      47E493FB 
  88      971E1C84 
  88      E63F88
  89 02b3 288996FE 		.ascii	"(\211\226\376\313;\301qI\375\227s\241 U\031\035yp.\252"
  89      CB3BC171 
  89      49FD9773 
  89      A1205519 
  89      1D79702E 
  90 02c8 94857BB6 		.ascii	"\224\205{\266U*\023\253\024\217U\212cv:U\3122\374J\231"
  90      552A13AB 
  90      148F558A 
  90      63763A55 
  90      CA32FC4A 
  91 02dd 61FE5F9B 		.ascii	"a\376_\233\371\333m\371g\203j>l6u~eM]@fR9\213\035\312"
  91      F9DB6DF9 
  91      67836A3E 
  91      6C36757E 
  91      654D5D40 
  92 02f7 2988132F 		.ascii	")\210\023/g1\241\2349YN+l\352\217M\251J\203 \332\244"
  92      6731A19C 
  92      39594E2B 
  92      6CEA8F4D 
  92      A94A8320 
  93 030d B2635289 		.ascii	"\262cR\211\230T(\222m\222T%\313\227*\037\310\360(j\352"
  93      98542892 
  93      6D925425 
ARM GAS  /tmp/cc8Fn70g.s 			page 7


  93      CB972A1F 
  93      C8F0286A 
  94 0322 F2CA9ABA 		.ascii	"\362\312\232\272\013\231I*twP!E\234\270\012\335\011"
  94      0B99492A 
  94      74775021 
  94      459CB80A 
  94      DD09
  95 0334 2A14A40A 		.ascii	"*\024\244\012E\031\351\231\372\323wF\254\327\212\216"
  95      4519E999 
  95      FAD37746 
  95      ACD78A8E 
  96 0344 9C27452A 		.ascii	"\234'E*/:;\\(9\220\216R(S\240\325\372L\224\372\232\225"
  96      2F3A3B5C 
  96      2839908E 
  96      522853A0 
  96      D5FA4C94 
  97 035b A5DE83CC 		.ascii	"\245\336\203\314\244\324{;\244.9\361\324{\023R/\311"
  97      A4D47B3B 
  97      A42E39F1 
  97      D47B1352 
  97      2FC9
  98 036d D4315031 		.ascii	"\3241P1\307*\370\345>Ha\275\220f\323\011\017\246`7\034"
  98      C72AF8E5 
  98      3E4861BD 
  98      9066D309 
  98      0FA66037 
  99 0382 710FF46F 		.ascii	"q\017\364o?\354\036pw\356\332\267e[\337\226\276\255"
  99      3FEC1E70 
  99      77EEDAB7 
  99      655BDF96 
  99      BEAD
 100 0394 FDFD4387 		.ascii	"\375\375C\207N\016\365\237\030\222\357\343\307\216\035"
 100      4E0EF59F 
 100      1892EFE3 
 100      C78E1D
 101 03a3 39D9E730 		.ascii	"9\331\3470p\177\003v\261K{"
 101      707F0376 
 101      B14B7B
 102              		.text
 103              		.section	.gnu.lto_.symbol_nodes.f5d70606e0d3fc1d,"",%progbits
 104 0000 789C4D8B 		.ascii	"x\234M\213K\012\3020\024E\357ML\343g\021]\233+y\205"
 104      4B0AC230 
 104      1445EF4D 
 104      4CE36711 
 104      5D9B2B79 
 105 0015 82A28215 		.ascii	"\202\242\202\025\267\220\2458w\344\002\224N;\361\377"
 105      B790A538 
 105      77E40294 
 105      4E3BF1FF 
 106 0025 454C1331 		.ascii	"EL\0231\276\311\341\034\356SP \021O\035(\300b\015\210"
 106      BEC9E11C 
 106      EE535020 
 106      114F1D28 
 106      C0620D88 
 107 0039 6C264375 		.ascii	"l&Cu\2440\251\331\023\231hu\242\250\277z\363\357\002"
 107      A430A9D9 
 107      13996875 
ARM GAS  /tmp/cc8Fn70g.s 			page 8


 107      A2A8BF7A 
 107      F3EF02
 108 004c 73A1B21E 		.ascii	"s\241\262\036gj\017^):n\212\202|R:\311\036\024\223\354"
 108      676A0F5E 
 108      293A6E8A 
 108      827C523A 
 108      C91E1493 
 109 0061 45C992DD 		.ascii	"E\311\222\335)\366g\232\026\345\366M\255\007p\201=\324"
 109      29F6679A 
 109      16E5F64D 
 109      AD077081 
 109      3DD4
 110 0073 815DB85D 		.ascii	"\201]\270]t7j\362\326\353\300>\352qK\277\233\306\356"
 110      74376AF2 
 110      D6EBC03E 
 110      EA714BBF 
 110      9BC6EE
 111 0086 66D1DDFC 		.ascii	"f\321\335\374\273\013\264pU\354\253*\366r\331\344\370"
 111      BB0BB470 
 111      55ECAB2A 
 111      F672D9E4 
 111      F8
 112 0097 001F404E 		.ascii	"\000\037@N\304"
 112      C4
 113              		.text
 114              		.section	.gnu.lto_.refs.f5d70606e0d3fc1d,"",%progbits
 115 0000 789C6362 		.ascii	"x\234cb`bPg\200\000FF&&nf\006\026&0\200\321 &\023\023"
 115      60625067 
 115      80004646 
 115      26266E66 
 115      06162630 
 116 001a 232B131B 		.ascii	"#+\023\033\0202213\000\000\017s\000\210"
 116      10323231 
 116      3300000F 
 116      730088
 117              		.text
 118              		.section	.gnu.lto_.decls.f5d70606e0d3fc1d,"",%progbits
 119 0000 789C9D57 		.ascii	"x\234\235Wkl\024U\024\276w\332\322\226.\345\241`Q\""
 119      6B6C1455 
 119      14BE77DA 
 119      D2962EE5 
 119      A1605122 
 120 0014 8B8A5122 		.ascii	"\213\212Q\"]\212\304\370\213\026I\024\023\025\022Cb"
 120      5D8AC4F8 
 120      8B164914 
 120      13151243 
 120      62
 121 0025 FCE13ADD 		.ascii	"\374\341:\335\016\354\232\355n\331\235\225\207?\270"
 121      0EEC9AED 
 121      6ED99D95 
 121      873FB8
 122 0034 054A0941 		.ascii	"\005J\011Ah\201b\211\026Z,\021#\232\222\222\222\200"
 122      68816289 
 122      165A2C11 
 122      239A9292 
 122      9280
 123 0046 C884685B 		.ascii	"\310\204h[\213\221\022#\242`X\022@\212<mPy\256\347>"
ARM GAS  /tmp/cc8Fn70g.s 			page 9


 123      8B911223 
 123      A2605812 
 123      408A3C6D 
 123      5079AEE7 
 124 005b 66766776 		.ascii	"fvgvf\273\365&g\346\336\231\363\370\316\271\347\236"
 124      66BBF526 
 124      67E6DE99 
 124      F3F8CEB9 
 124      E79E
 125 006d 33232109 		.ascii	"3#!\011\3711B\011\030\256q\010\271%\204r\021B\263Qr"
 125      F9314209 
 125      18AE7108 
 125      B9258472 
 125      1142B351 
 126 0082 1400B501 		.ascii	"\024\000\265\001\355\005\352\000\352\004:\016\364\013"
 126      ED05EA00 
 126      EA043A0E 
 126      F40B
 127 0090 D069A038 		.ascii	"\320i\2408\3422\027\201\006\200\256\001\025bd\032T>"
 127      E2321781 
 127      0680AE01 
 127      1562641A 
 127      543E
 128 00a2 07A81CA8 		.ascii	"\007\250\034\250\030\310%\236c\361\216\336\037\262\310"
 128      18C8259E 
 128      63F18EDE 
 128      1FB2C8
 129 00b1 507B7940 		.ascii	"P{y@\017\303\363.1\357\001\332/\336K\202\247S\310_4"
 129      0FC3F32E 
 129      31EF01DA 
 129      2FDE4B82 
 129      A753C85F 
 130 00c6 8B33AC13 		.ascii	"\2133\254\023,6O\010\254\177\002]\006\032\017\202\023"
 130      2C364F08 
 130      AC7F025D 
 130      061A0F82 
 130      13
 131 00d7 84FE76A0 		.ascii	"\204\376v\240s@\217\300\372\024\334K0\267\331\0174\021"
 131      73408FC0 
 131      FA14DC4B 
 131      30B7D90F 
 131      3411
 132 00e9 E6670496 		.ascii	"\346g\004\226\276\024\014\371\302N\\\304\343\270\210"
 132      BE140CF9 
 132      C24E5CC4 
 132      E3B888
 133 00f8 49678ACF 		.ascii	"Ig\212\317\003\002\333\243\026\377&\243\035D\353\217"
 133      0302DBA3 
 133      16FF26A3 
 133      1D44EB8F 
 134 0108 D7EDDC34 		.ascii	"\327\355\3344\221\264\256\322\022\211#\025\200\267\211"
 134      91B4AED2 
 134      12892315 
 134      80B789
 135 0117 C0685D4B 		.ascii	"\300h]K\010Ve\\^\204\336\3022..Dn6q\0252\364\010\311"
 135      0856655C 
 135      5E84DEC2 
ARM GAS  /tmp/cc8Fn70g.s 			page 10


 135      322E2E44 
 135      6E367115 
 136 012f 78179EC0 		.ascii	"x\027\236\300f9,\016\250\020\255#d\025\025\234\327\013"
 136      66392C0E 
 136      A810AD23 
 136      6415159C 
 136      D70B
 137 0141 CEDA494D 		.ascii	"\316\332IME\355\2044\304\017\354k\361\020R \343v\\\010"
 137      45ED8434 
 137      C40FEC6B 
 137      F1105220 
 137      E3765C08 
 138 0155 B2EF6034 		.ascii	"\262\357`4\015}\0166\033\010\331\365\274\005\242\260"
 138      0D7D0E36 
 138      1B08D9F5 
 138      BC05A2B0 
 139 0165 955798B6 		.ascii	"\225W\230\266\226\361gx\032\342\206\330k1\241\2114\232"
 139      96F16778 
 139      1AE286D8 
 139      6B31A189 
 139      349A
 140 0177 F22CCC31 		.ascii	"\362,\3141\004$\024\304\206\000\035O\241O\011\331\034"
 140      042414C4 
 140      86001D4F 
 140      A14F09D9 
 140      1C
 141 0188 AF3BBB1B 		.ascii	"\257;\273\033<\227t$+(S\033\236l\013\2363\301x\032\355"
 141      3C977424 
 141      2B28531B 
 141      9E6C0B9E 
 141      33C1781A 
 142 019d A68E1E3E 		.ascii	"\246\216\036>\277`\036\213\017\312 $\340\356\301Rz\334"
 142      BF601E8B 
 142      0FCA2024 
 142      E0EEC152 
 142      7ADC
 143 01af B5A6EE8D 		.ascii	"\265\246\356\215\216q\237=\3361\356_\212\270'=\224\320"
 143      8E719F3D 
 143      DE31EE5F 
 143      8AB8273D 
 143      94D0
 144 01c1 4AB37B02 		.ascii	"J\263{\002$\214=$\207)\243\354{\001\244)\212_\331\302"
 144      248C3D24 
 144      8729A3EC 
 144      7B01A429 
 144      8A5FD9C2 
 145 01d5 DAD1ED6A 		.ascii	"\332\321\355j\250\215'\022;\335\334\226\2046\340l\324"
 145      A88D2712 
 145      3BDDDC96 
 145      8436E06C 
 145      D4
 146 01e6 7758D5EF 		.ascii	"wX\325\357KW\037o\210\377\263\376Z-n\\\335\332Kn\320"
 146      4B571F6F 
 146      88FFB3FE 
 146      5A2D6E5C 
 146      DDDA4B6E 
 147 01fb 8DCADEEF 		.ascii	"\215\312\336\357\375\346|+B\353\223\3716\0165R-\356"
ARM GAS  /tmp/cc8Fn70g.s 			page 11


 147      FDE67C2B 
 147      42EB93F9 
 147      360E3552 
 147      2DEE
 148 020d 94CC7B57 		.ascii	"\224\314{W\227\247\247\216g\236\326\322\215\301\251"
 148      97A7A78E 
 148      679ED6D2 
 148      8DC1A9
 149 021c 03781CA8 		.ascii	"\003x\034\2508fqj(\025\024\302A\220\3442L!\321\032\273"
 149      3866716A 
 149      281514C2 
 149      4190E432 
 149      4C21D11A 
 150 0231 5D24973F 		.ascii	"]$\227?G\226\020\245\214)\250\025\240j[\326\266\300"
 150      479610A5 
 150      8C29A815 
 150      A06A5BD6 
 150      B6C0
 151 0243 7E1FC576 		.ascii	"~\037\305v\310[G8\035\032\011\375\312\220~c\265}Sv\363"
 151      C85B4738 
 151      1D1A09FD 
 151      CA907E63 
 151      B57D5376 
 152 0258 A7435B1E 		.ascii	"\247C[\036\034\370\036\223\315.\031\037\006\343\022"
 152      1CF81E93 
 152      CD2E191F 
 152      06E312
 153 0267 BA6028B4 		.ascii	"\272`(\2643(\246|\010\006\353p\332#\252_\014\011]ef"
 153      3328A67C 
 153      0806EB70 
 153      DA23AA5F 
 153      0C095D65 
 154 027c 0E0EDF8C 		.ascii	"\016\016\337\214@\335\324\375\011\213\227~<o\015[\237"
 154      40DDD4FD 
 154      098B977E 
 154      3C6F0D5B 
 154      9F
 155 028d DBA4AF19 		.ascii	"\333\244\257\031\022[6\005\237\027\261\014\245j\373"
 155      125B3605 
 155      9F17B10C 
 155      A56AFB
 156 029c E6AE6759 		.ascii	"\346\256gY\251\352a\201\353\224\3149\223\2452\032\231"
 156      A9EA6181 
 156      EB94CC39 
 156      93A5321A 
 156      99
 157 02ad 3E5060BF 		.ascii	">P`\277Mi\357$\244IYxZ\220i\203L\372\223i+\343Cx*\\"
 157      4D69EF24 
 157      A4495978 
 157      5A906983 
 157      4CFA9369 
 158 02c7 BFC653E0 		.ascii	"\277\306S\340\372-\273v\303u\310\215\355Jn\2548\177"
 158      FA2DBB76 
 158      C375C88D 
 158      ED4A6EAC 
 158      387F
 159 02d9 463D34D6 		.ascii	"F=4\326=\234\307Ry\177\220\254\305\2033\375h[\035\356"
ARM GAS  /tmp/cc8Fn70g.s 			page 12


 159      3D9CC752 
 159      797F90AC 
 159      C58333FD 
 159      685B1DEE 
 160 02ed 6EFBDDB1 		.ascii	"n\373\335\261:\024\240z\032\355x\035\251\305K\014\250"
 160      3A14A07A 
 160      1AED781D 
 160      A9C54B0C 
 160      A8
 161 02fe 053A54AC 		.ascii	"\005:T\254o\033m$P\323O\340\0020_\233c\327Q\030\002"
 161      6F1B6D24 
 161      50D34FE0 
 161      02305F9B 
 161      63D75118 
 162 0313 CAA0FBCC 		.ascii	"\312\240\373\314\347\372\014;\007\242\337\\\205X\313"
 162      E7FA0C3B 
 162      07A2DF5C 
 162      8558CB
 163 0322 31E642A3 		.ascii	"1\346B\243%\002\3659\366\0218i_\037\373\2567:\327\307"
 163      2502F539 
 163      F6113869 
 163      5F1FFBAE 
 163      373AD7C7 
 164 0336 0CFDF894 		.ascii	"\014\375\370\224\025Y\027K+\023\224\255\016P~\263\203"
 164      1559174B 
 164      2B1394AD 
 164      0E507EB3 
 164      83
 165 0347 A2FD54BF 		.ascii	"\242\375T\277a\"i\243\015\252|\030u\372\214\035\016"
 165      612269A3 
 165      0DAA7C18 
 165      75FA8C1D 
 165      0E
 166 0358 63516E97 		.ascii	"cQn\227#\255\016\260\316\332\302:\330\263\201`\326\242"
 166      23AD0EB0 
 166      CEDAC23A 
 166      D8B38160 
 166      D6A2
 167 036a 26678FEA 		.ascii	"&g\217\352\\\026\250\254\231mA\371\205\003\312\013f"
 167      5C16A8AC 
 167      996D41F9 
 167      8503CA0B 
 167      66
 168 037b 944FA036 		.ascii	"\224O\2406\372U\325\376vC-!\211\304J\275\341\0342\304"
 168      FA55D5FE 
 168      76432D21 
 168      89C44ABD 
 168      E11C32C4 
 169 038f 9DDACB1F 		.ascii	"\235\332\313\037B\321,\324I\326i3\270 ?\254\224\223"
 169      42D12CD4 
 169      49D66933 
 169      B8203FAC 
 169      9493
 170 03a1 17577E6C 		.ascii	"\027W~l\305\307\316%I\034`\272\356\023g\224\002\270"
 170      C5C7CE25 
 170      491C60BA 
 170      EE136794 
ARM GAS  /tmp/cc8Fn70g.s 			page 13


 170      02B8
 171 03b3 0147E9E4 		.ascii	"\001G\351\344\225Ux\013\201D\"\260\203x\362X\324 \032"
 171      9555780B 
 171      814422B0 
 171      8378F258 
 171      D4201A
 172 03c6 9C51B634 		.ascii	"\234Q\2664V\2662D\255\334\266h%5\351\221\023\354W\360"
 172      56B63244 
 172      ADDCB668 
 172      2535E991 
 172      13EC57F0 
 173 03da 58643F24 		.ascii	"Xd?$t$-z2\276\232\214\034\005\335\241\305\353\356\\"
 173      74242D7A 
 173      32BE9A8C 
 173      1C05DDA1 
 173      C5EBEE5C 
 174 03ee CAAD25DA 		.ascii	"\312\255%\332\032B\356\001f,,\265VX@\353]\023\266=\245"
 174      1A42EE01 
 174      662C2CB5 
 174      565840EB 
 174      5D13B63D 
 175 0403 6F12ACE3 		.ascii	"o\022\254\343\037\303L\036\005\2236m\335\314&\343\277"
 175      1FC34C1E 
 175      0593366D 
 175      DDCC26E3 
 175      BF
 176 0414 308DE2A0 		.ascii	"0\215\342\240\245\277B\374\016\227\260\332?\230U\217"
 176      A5BF42FC 
 176      0E97B0DA 
 176      3F98558F 
 177 0424 BD7DBF97 		.ascii	"\275}\277\227\366XSK\020\337\304\361\335ZIs\361P\025"
 177      F658534B 
 177      10DFC4F1 
 177      DD5A4973 
 177      F15015
 178 0437 CB602625 		.ascii	"\313`&%%\366\2742\376\227U\357\333<=\331+>\327g\011"
 178      25F6BC32 
 178      FE9755EF 
 178      DB3C3DD9 
 178      2B3ED767 
 179 044c 4CFD3EE6 		.ascii	"L\375>\346\\\3632\213:\245\301\337\251m\275\237m\344"
 179      5CF3328B 
 179      3AA5C1DF 
 179      A96DBD9F 
 179      6DE4
 180 045e E0FF6EEB 		.ascii	"\340\377n\353w\007\322\003\305\2774\235\314\337O5\377"
 180      7707D203 
 180      C5BF349D 
 180      CCDF4F35 
 180      FF
 181 046f F3B0CDBB 		.ascii	"\363\260\315\273M\346\357)\2753\270J\011\235\316F\227"
 181      4DE6EF29 
 181      BD33B84A 
 181      099DCE46 
 181      97
 182 0480 5D9F15BA 		.ascii	"]\237\025\272\036\244\350:?l]\356\264\335\341\031&\343"
 182      1EA4E83A 
ARM GAS  /tmp/cc8Fn70g.s 			page 14


 182      3F6C5DEE 
 182      B4DDE119 
 182      26E3
 183 0492 5BAC31DF 		.ascii	"[\2541\337c\327\004\273\326JC6iK@o: \241\372WKE\026"
 183      63D704BB 
 183      D64A4336 
 183      694B406F 
 183      3A20A1FA 
 184 04aa DB82B3C2 		.ascii	"\333\202\263\302\0144\345\370q!{6\031\257\221\370\301"
 184      0C34E5F8 
 184      71217B36 
 184      19AF91F8 
 184      C1
 185 04bb 67394C0C 		.ascii	"g9L\014\014\300\341\004\241NJ&\242\25309I\315\334$\027"
 185      0CC0E104 
 185      A14E4A26 
 185      A2AB3039 
 185      49CDDC24 
 186 04d0 C4F78AB5 		.ascii	"\304\367\212\265|\246\201X+\245\226O\3708\276\016\365"
 186      7CA68158 
 186      2BA5964F 
 186      F838BE0E 
 186      F5
 187 04e1 C3D8B70F 		.ascii	"\303\330\267\017\320\035\322L\342\337\335)\341\256\260"
 187      D01DD24C 
 187      E2DFDD29 
 187      E1AEB0
 188 04f0 2AD9AF6D 		.ascii	"*\331\257m\257o\301\360\023F\310\003\2507<j\022\272"
 188      AF6FC1F0 
 188      1346C803 
 188      A8373C6A 
 188      12BA
 189 0502 6DB5652E 		.ascii	"m\265e.\031\324\330z\223\261\012.\311w\216[\322>\356"
 189      19D4D87A 
 189      93B10A2E 
 189      C9778E5B 
 189      D23EEE
 190 0515 317FE9EB 		.ascii	"1\177\351\353U\263\271\230\0378\241:n\250\236$To\034"
 190      55B3B998 
 190      1F38A13A 
 190      6EA89E24 
 190      546F1C
 191 0528 76303739 		.ascii	"v079\004\363\261\214\011#\343\017\223y\3608Z\223\333"
 191      04F3B18C 
 191      0923E30F 
 191      9379F038 
 191      5A93DB
 192 053b 429A2B92 		.ascii	"B\232+\222\346y\002Rg\326\021\355\223|\236\347\306_"
 192      E6790252 
 192      67D611ED 
 192      937C9EE7 
 192      C65F
 193 054d 244F4CAA 		.ascii	"$OL\252\357\276hK4E\005w\207\301\235\372S(Pp\177\365"
 193      EFBE684B 
 193      34450577 
 193      87C19DFA 
 193      53285070 
ARM GAS  /tmp/cc8Fn70g.s 			page 15


 194 0563 1474A39D 		.ascii	"\024t\243\235\374G\212\270\335\306\257d[\352\257\244"
 194      FC478AB8 
 194      DDC6AF64 
 194      5BEAAFA4 
 195 0573 25AFF767 		.ascii	"%\257\367g(\024[\223\376X\244.'S!M\252\311Q\352\\\006"
 195      28145B93 
 195      FE58A42E 
 195      2753214D 
 195      AAC951EA 
 196 0589 5BDB1CA5 		.ascii	"[\333\034\245Ne\220\372\310Q\252?\203T\263\243\324\231"
 196      4E6590FA 
 196      C851AA3F 
 196      8354B3A3 
 196      D499
 197 059b 0C52DB93 		.ascii	"\014R\333\223R\"\312[\353\211$9\374\260?\023\014Tz\346"
 197      5222CA5B 
 197      EB892439 
 197      FCB03F13 
 197      0C547AE6 
 198 05af FA039581 		.ascii	"\372\003\225\201\371oz\313^(-+\235\345\361\250JT\365"
 198      F96F7ACB 
 198      5E282D2B 
 198      9DE5F1A8 
 198      4A54F5
 199 05c2 445476AF 		.ascii	"DTv\257\011\207\203\321R\037\232\351\211E#\036\312\275"
 199      098783D1 
 199      521F9AE9 
 199      8945231E 
 199      CABD
 200 05d4 D8E7F3C8 		.ascii	"\330\347\363\310\221\352\351\241pH\231\256\310\225\001"
 200      91EAE9A1 
 200      704899AE 
 200      C89501
 201 05e3 CFACD217 		.ascii	"\317\254\322\027Kgz\002!_0V\245x\242jU\225\262\250\324"
 201      4B677A02 
 201      215F3056 
 201      A578A26A 
 201      5595B2A8 
 202 05f8 8F464403 		.ascii	"\217FD\003+\024\257:\342\2257\026\272\347\242Q\241X"
 202      2B14AF3A 
 202      E2953716 
 202      BAE7A251 
 202      A158
 203 060a 30E8AD89 		.ascii	"0\350\255\211\204\337\017T)\221\\\372\316\305\224\227"
 203      84DF0F54 
 203      29915CFA 
 203      CEC59497 
 204 061a 79A38A1A 		.ascii	"y\243\212\032\253)\026\013e\231\342\213\251\212\307"
 204      AB29160B 
 204      6599E28B 
 204      A98AC7
 205 0629 0E58384A 		.ascii	"\016X8Ja\351\206|\376j\245\232\343\363\243Q0\017G\226"
 205      61E9867C 
 205      FE6AA59A 
 205      E3F3A351 
 205      300F4796 
 206 063d 7BE9DAAB 		.ascii	"{\351\332\253\026\261\233_\221\301T~\215\337\033R\226"
ARM GAS  /tmp/cc8Fn70g.s 			page 16


 206      16B19B5F 
 206      91C1547E 
 206      8DDF1B52 
 206      96
 207 064e A9F9D535 		.ascii	"\251\371\3255\354^\014\367p\345{\212O\365R\020\245Y"
 207      EC5E0CF7 
 207      70E57B8A 
 207      4FF55210 
 207      A559
 208 0660 1AF28523 		.ascii	"\032\362\205#\012\330q\301t\261\242.\212\205|`\006T"
 208      0AD871C1 
 208      74B1A22E 
 208      8A857C60 
 208      0654
 209 0672 E91E8DF1 		.ascii	"\351\036\215\361\371\027\200\321\371L\363\253\241\200"
 209      F91780D1 
 209      F94CF3AB 
 209      A180
 210 0680 FAE450A1 		.ascii	"\372\344P\241\005my\336\227@\306\345\245K\257\034\215"
 210      056D79DE 
 210      9740C6E5 
 210      A54BAF1C 
 210      8D
 211 0691 2A11B588 		.ascii	"*\021\265\210\353\231\023\014\206}#\371\374\345\210"
 211      EB99130C 
 211      867D23F9 
 211      FCE588
 212 06a0 A28CE6D3 		.ascii	"\242\214\346\323\327\302r\325\234HD^\236S]S&-\225\013"
 212      D7C272D5 
 212      9C48445E 
 212      9E535D53 
 212      262D950B 
 213 06b4 A8A44F8E 		.ascii	"\250\244O\216*\271>\277\034\311\015\311\325J\036\013"
 213      2AB93EBF 
 213      1CC90DC9 
 213      D54A1E0B 
 214 06c4 27BC9023 		.ascii	"'\274\220#U\341\245\241|\021PW\215\254\252J$\304\002"
 214      55E1A5A1 
 214      7C115057 
 214      8DACAA4A 
 214      24C402
 215 06d7 36D2D8DA 		.ascii	"6\322\330\332\262I\257\263\300\271\251\366\350s\356"
 215      B249AFB3 
 215      C0B9A9F6 
 215      E873EE
 216 06e6 253125A6 		.ascii	"%1%\246x\252\024vG\377\001\303\201.\221"
 216      78AA1476 
 216      47FF01C3 
 216      812E91
 217              		.text
 218              		.section	.gnu.lto_.symtab.f5d70606e0d3fc1d,"",%progbits
 219 0000 70617474 		.ascii	"patternpools\000\000\000\000\000\000\000\000\000\000"
 219      65726E70 
 219      6F6F6C73 
 219      00000000 
 219      00000000 
 220 0016 0000EE00 		.ascii	"\000\000\356\000\000\000testpools1\000\000\000\000\000"
ARM GAS  /tmp/cc8Fn70g.s 			page 17


 220      00007465 
 220      7374706F 
 220      6F6C7331 
 220      00000000 
 221 002b 00000000 		.ascii	"\000\000\000\000\000\000\000\011\001\000\000wa\000\000"
 221      00000009 
 221      01000077 
 221      610000
 222 003a 02000000 		.ascii	"\002\000\000\000\000\000\000\000\000\000\351\000\000"
 222      00000000 
 222      0000E900 
 222      00
 223 0047 00636850 		.ascii	"\000chPoolObjectInit\000\000\002\000\000\000\000\000"
 223      6F6F6C4F 
 223      626A6563 
 223      74496E69 
 223      74000002 
 224 0060 00000000 		.ascii	"\000\000\000\000\263\000\000\000_test_assert\000\000"
 224      B3000000 
 224      5F746573 
 224      745F6173 
 224      73657274 
 225 0076 02000000 		.ascii	"\002\000\000\000\000\000\000\000\000\000\317\000\000"
 225      00000000 
 225      0000CF00 
 225      00
 226 0083 00636850 		.ascii	"\000chPoolAlloc\000\000\002\000\000\000\000\000\000"
 226      6F6F6C41 
 226      6C6C6F63 
 226      00000200 
 226      00000000 
 227 0098 000000D7 		.ascii	"\000\000\000\327\000\000\000chPoolFree\000\000\002\000"
 227      00000063 
 227      68506F6F 
 227      6C467265 
 227      65000002 
 228 00ad 00000000 		.ascii	"\000\000\000\000\000\000\000\000\333\000\000\000chP"
 228      00000000 
 228      DB000000 
 228      636850
 229 00bc 6F6F6C4C 		.ascii	"oolLoadArray\000\000\002\000\000\000\000\000\000\000"
 229      6F616441 
 229      72726179 
 229      00000200 
 229      00000000 
 230 00d2 0000E000 		.ascii	"\000\000\340\000\000\000"
 230      0000
 231              		.text
 232              		.section	.gnu.lto_.opts,"",%progbits
 233 0000 272D6D63 		.ascii	"'-mcpu=cortex-m4' '-mno-thumb-interwork' '-mthumb' "
 233      70753D63 
 233      6F727465 
 233      782D6D34 
 233      2720272D 
 234 0033 272D6767 		.ascii	"'-ggdb' '-O0' '-fomit-frame-pointer' '-falign-funct"
 234      64622720 
 234      272D4F30 
ARM GAS  /tmp/cc8Fn70g.s 			page 18


 234      2720272D 
 234      666F6D69 
 235 0066 696F6E73 		.ascii	"ions=16' '-ffunction-sections' '-fdata-sections' '-"
 235      3D313627 
 235      20272D66 
 235      66756E63 
 235      74696F6E 
 236 0099 666E6F2D 		.ascii	"fno-common' '-flto'\000"
 236      636F6D6D 
 236      6F6E2720 
 236      272D666C 
 236      746F2700 
 237              		.text
 238              		.cfi_sections	.debug_frame
 239              		.section	.data.mp1,"aw",%progbits
 240              		.align	2
 241              		.type	mp1, %object
 242              		.size	mp1, 12
 243              	mp1:
 244 0000 00000000 		.word	0
 245 0004 68010000 		.word	360
 246 0008 00000000 		.word	0
 247              		.section	.text.null_provider,"ax",%progbits
 248              		.align	2
 249              		.p2align 4,,15
 250              		.thumb
 251              		.thumb_func
 252              		.type	null_provider, %function
 253              	null_provider:
 254              	.LFB241:
 255              		.file 1 "lib/ChibiOS_16.1.4//test/rt/testpools.c"
 256              		.loc 1 60 0
 257              		.cfi_startproc
 258              		@ args = 0, pretend = 0, frame = 8
 259              		@ frame_needed = 0, uses_anonymous_args = 0
 260              		@ link register save eliminated.
 261 0000 82B0     		sub	sp, sp, #8
 262              		.cfi_def_cfa_offset 8
 263 0002 0190     		str	r0, [sp, #4]
 264              		.loc 1 63 0
 265 0004 0023     		movs	r3, #0
 266              		.loc 1 64 0
 267 0006 1846     		mov	r0, r3
 268 0008 02B0     		add	sp, sp, #8
 269              		@ sp needed
 270 000a 7047     		bx	lr
 271              		.cfi_endproc
 272              	.LFE241:
 273              		.size	null_provider, .-null_provider
 274 000c AFF30080 		.section	.text.pools1_setup,"ax",%progbits
 275              		.align	2
 276              		.p2align 4,,15
 277              		.thumb
 278              		.thumb_func
 279              		.type	pools1_setup, %function
 280              	pools1_setup:
 281              	.LFB242:
ARM GAS  /tmp/cc8Fn70g.s 			page 19


 282              		.loc 1 66 0
 283              		.cfi_startproc
 284              		@ args = 0, pretend = 0, frame = 0
 285              		@ frame_needed = 0, uses_anonymous_args = 0
 286 0000 08B5     		push	{r3, lr}
 287              		.cfi_def_cfa_offset 8
 288              		.cfi_offset 3, -8
 289              		.cfi_offset 14, -4
 290              		.loc 1 68 0
 291 0002 40F20000 		movw	r0, #:lower16:mp1
 292 0006 C0F20000 		movt	r0, #:upper16:mp1
 293 000a 4FF4B471 		mov	r1, #360
 294 000e 0022     		movs	r2, #0
 295 0010 FFF7FEFF 		bl	chPoolObjectInit
 296              		.loc 1 69 0
 297 0014 08BD     		pop	{r3, pc}
 298              		.cfi_endproc
 299              	.LFE242:
 300              		.size	pools1_setup, .-pools1_setup
 301 0016 00BFAFF3 		.section	.text.pools1_execute,"ax",%progbits
 301      0080AFF3 
 301      0080
 302              		.align	2
 303              		.p2align 4,,15
 304              		.thumb
 305              		.thumb_func
 306              		.type	pools1_execute, %function
 307              	pools1_execute:
 308              	.LFB243:
 309              		.loc 1 71 0
 310              		.cfi_startproc
 311              		@ args = 0, pretend = 0, frame = 8
 312              		@ frame_needed = 0, uses_anonymous_args = 0
 313 0000 00B5     		push	{lr}
 314              		.cfi_def_cfa_offset 4
 315              		.cfi_offset 14, -4
 316 0002 83B0     		sub	sp, sp, #12
 317              		.cfi_def_cfa_offset 16
 318              		.loc 1 75 0
 319 0004 40F20003 		movw	r3, #:lower16:wa
 320 0008 C0F20003 		movt	r3, #:upper16:wa
 321 000c 1B68     		ldr	r3, [r3]
 322 000e 40F20000 		movw	r0, #:lower16:mp1
 323 0012 C0F20000 		movt	r0, #:upper16:mp1
 324 0016 1946     		mov	r1, r3
 325 0018 0522     		movs	r2, #5
 326 001a FFF7FEFF 		bl	chPoolLoadArray
 327              		.loc 1 78 0
 328 001e 0023     		movs	r3, #0
 329 0020 0193     		str	r3, [sp, #4]
 330 0022 16E0     		b	.L5
 331              	.L8:
 332              		.loc 1 79 0
 333 0024 40F20000 		movw	r0, #:lower16:mp1
 334 0028 C0F20000 		movt	r0, #:upper16:mp1
 335 002c FFF7FEFF 		bl	chPoolAlloc
 336 0030 0346     		mov	r3, r0
ARM GAS  /tmp/cc8Fn70g.s 			page 20


 337 0032 002B     		cmp	r3, #0
 338 0034 0CBF     		ite	eq
 339 0036 0023     		moveq	r3, #0
 340 0038 0123     		movne	r3, #1
 341 003a DBB2     		uxtb	r3, r3
 342 003c 0120     		movs	r0, #1
 343 003e 1946     		mov	r1, r3
 344 0040 FFF7FEFF 		bl	_test_assert
 345 0044 0346     		mov	r3, r0
 346 0046 002B     		cmp	r3, #0
 347 0048 00D0     		beq	.L6
 348              		.loc 1 79 0 is_stmt 0 discriminator 1
 349 004a 80E0     		b	.L4
 350              	.L6:
 351              		.loc 1 78 0 is_stmt 1
 352 004c 019B     		ldr	r3, [sp, #4]
 353 004e 0133     		adds	r3, r3, #1
 354 0050 0193     		str	r3, [sp, #4]
 355              	.L5:
 356              		.loc 1 78 0 is_stmt 0 discriminator 1
 357 0052 019B     		ldr	r3, [sp, #4]
 358 0054 042B     		cmp	r3, #4
 359 0056 E5DD     		ble	.L8
 360              		.loc 1 82 0 is_stmt 1
 361 0058 40F20000 		movw	r0, #:lower16:mp1
 362 005c C0F20000 		movt	r0, #:upper16:mp1
 363 0060 FFF7FEFF 		bl	chPoolAlloc
 364 0064 0346     		mov	r3, r0
 365 0066 002B     		cmp	r3, #0
 366 0068 14BF     		ite	ne
 367 006a 0023     		movne	r3, #0
 368 006c 0123     		moveq	r3, #1
 369 006e DBB2     		uxtb	r3, r3
 370 0070 0220     		movs	r0, #2
 371 0072 1946     		mov	r1, r3
 372 0074 FFF7FEFF 		bl	_test_assert
 373 0078 0346     		mov	r3, r0
 374 007a 002B     		cmp	r3, #0
 375 007c 00D0     		beq	.L9
 376              		.loc 1 82 0 is_stmt 0 discriminator 1
 377 007e 66E0     		b	.L4
 378              	.L9:
 379              		.loc 1 85 0 is_stmt 1
 380 0080 0023     		movs	r3, #0
 381 0082 0193     		str	r3, [sp, #4]
 382 0084 10E0     		b	.L10
 383              	.L11:
 384              		.loc 1 86 0 discriminator 2
 385 0086 40F20003 		movw	r3, #:lower16:wa
 386 008a C0F20003 		movt	r3, #:upper16:wa
 387 008e 019A     		ldr	r2, [sp, #4]
 388 0090 53F82230 		ldr	r3, [r3, r2, lsl #2]
 389 0094 40F20000 		movw	r0, #:lower16:mp1
 390 0098 C0F20000 		movt	r0, #:upper16:mp1
 391 009c 1946     		mov	r1, r3
 392 009e FFF7FEFF 		bl	chPoolFree
 393              		.loc 1 85 0 discriminator 2
ARM GAS  /tmp/cc8Fn70g.s 			page 21


 394 00a2 019B     		ldr	r3, [sp, #4]
 395 00a4 0133     		adds	r3, r3, #1
 396 00a6 0193     		str	r3, [sp, #4]
 397              	.L10:
 398              		.loc 1 85 0 is_stmt 0 discriminator 1
 399 00a8 019B     		ldr	r3, [sp, #4]
 400 00aa 042B     		cmp	r3, #4
 401 00ac EBDD     		ble	.L11
 402              		.loc 1 89 0 is_stmt 1
 403 00ae 0023     		movs	r3, #0
 404 00b0 0193     		str	r3, [sp, #4]
 405 00b2 16E0     		b	.L12
 406              	.L14:
 407              		.loc 1 90 0
 408 00b4 40F20000 		movw	r0, #:lower16:mp1
 409 00b8 C0F20000 		movt	r0, #:upper16:mp1
 410 00bc FFF7FEFF 		bl	chPoolAlloc
 411 00c0 0346     		mov	r3, r0
 412 00c2 002B     		cmp	r3, #0
 413 00c4 0CBF     		ite	eq
 414 00c6 0023     		moveq	r3, #0
 415 00c8 0123     		movne	r3, #1
 416 00ca DBB2     		uxtb	r3, r3
 417 00cc 0320     		movs	r0, #3
 418 00ce 1946     		mov	r1, r3
 419 00d0 FFF7FEFF 		bl	_test_assert
 420 00d4 0346     		mov	r3, r0
 421 00d6 002B     		cmp	r3, #0
 422 00d8 00D0     		beq	.L13
 423              		.loc 1 90 0 is_stmt 0 discriminator 1
 424 00da 38E0     		b	.L4
 425              	.L13:
 426              		.loc 1 89 0 is_stmt 1
 427 00dc 019B     		ldr	r3, [sp, #4]
 428 00de 0133     		adds	r3, r3, #1
 429 00e0 0193     		str	r3, [sp, #4]
 430              	.L12:
 431              		.loc 1 89 0 is_stmt 0 discriminator 1
 432 00e2 019B     		ldr	r3, [sp, #4]
 433 00e4 042B     		cmp	r3, #4
 434 00e6 E5DD     		ble	.L14
 435              		.loc 1 93 0 is_stmt 1
 436 00e8 40F20000 		movw	r0, #:lower16:mp1
 437 00ec C0F20000 		movt	r0, #:upper16:mp1
 438 00f0 FFF7FEFF 		bl	chPoolAlloc
 439 00f4 0346     		mov	r3, r0
 440 00f6 002B     		cmp	r3, #0
 441 00f8 14BF     		ite	ne
 442 00fa 0023     		movne	r3, #0
 443 00fc 0123     		moveq	r3, #1
 444 00fe DBB2     		uxtb	r3, r3
 445 0100 0420     		movs	r0, #4
 446 0102 1946     		mov	r1, r3
 447 0104 FFF7FEFF 		bl	_test_assert
 448 0108 0346     		mov	r3, r0
 449 010a 002B     		cmp	r3, #0
 450 010c 00D0     		beq	.L15
ARM GAS  /tmp/cc8Fn70g.s 			page 22


 451              		.loc 1 93 0 is_stmt 0 discriminator 1
 452 010e 1EE0     		b	.L4
 453              	.L15:
 454              		.loc 1 96 0 is_stmt 1
 455 0110 40F20000 		movw	r0, #:lower16:mp1
 456 0114 C0F20000 		movt	r0, #:upper16:mp1
 457 0118 1021     		movs	r1, #16
 458 011a 40F20002 		movw	r2, #:lower16:null_provider
 459 011e C0F20002 		movt	r2, #:upper16:null_provider
 460 0122 FFF7FEFF 		bl	chPoolObjectInit
 461              		.loc 1 97 0
 462 0126 40F20000 		movw	r0, #:lower16:mp1
 463 012a C0F20000 		movt	r0, #:upper16:mp1
 464 012e FFF7FEFF 		bl	chPoolAlloc
 465 0132 0346     		mov	r3, r0
 466 0134 002B     		cmp	r3, #0
 467 0136 14BF     		ite	ne
 468 0138 0023     		movne	r3, #0
 469 013a 0123     		moveq	r3, #1
 470 013c DBB2     		uxtb	r3, r3
 471 013e 0520     		movs	r0, #5
 472 0140 1946     		mov	r1, r3
 473 0142 FFF7FEFF 		bl	_test_assert
 474 0146 0346     		mov	r3, r0
 475 0148 002B     		cmp	r3, #0
 476 014a 00D0     		beq	.L4
 477              		.loc 1 97 0 is_stmt 0 discriminator 1
 478 014c 00BF     		nop
 479              	.L4:
 480              		.loc 1 98 0 is_stmt 1
 481 014e 03B0     		add	sp, sp, #12
 482              		@ sp needed
 483 0150 5DF804FB 		ldr	pc, [sp], #4
 484              		.cfi_endproc
 485              	.LFE243:
 486              		.size	pools1_execute, .-pools1_execute
 487              		.global	testpools1
 488              		.section	.rodata
 489              		.align	2
 490              	.LC0:
 491 0000 4D656D6F 		.ascii	"Memory Pools, queue/dequeue\000"
 491      72792050 
 491      6F6F6C73 
 491      2C207175 
 491      6575652F 
 492              		.section	.rodata.testpools1,"a",%progbits
 493              		.align	2
 494              		.type	testpools1, %object
 495              		.size	testpools1, 16
 496              	testpools1:
 497 0000 00000000 		.word	.LC0
 498 0004 00000000 		.word	pools1_setup
 499 0008 00000000 		.word	0
 500 000c 00000000 		.word	pools1_execute
 501              		.global	patternpools
 502              		.section	.rodata.patternpools,"a",%progbits
 503              		.align	2
ARM GAS  /tmp/cc8Fn70g.s 			page 23


 504              		.type	patternpools, %object
 505              		.size	patternpools, 8
 506              	patternpools:
 507 0000 00000000 		.word	testpools1
 508 0004 00000000 		.word	0
 509              		.text
 510              	.Letext0:
 511              		.file 2 "/usr/lib/gcc/arm-none-eabi/4.8.2/include/stddef.h"
 512              		.file 3 "/usr/include/newlib/machine/_default_types.h"
 513              		.file 4 "/usr/include/newlib/stdint.h"
 514              		.file 5 "lib/ChibiOS_16.1.4//os/rt/ports/ARMCMx/compilers/GCC/chtypes.h"
 515              		.file 6 "lib/ChibiOS_16.1.4//os/rt/include/chsystypes.h"
 516              		.file 7 "lib/ChibiOS_16.1.4//os/rt/include/chschd.h"
 517              		.file 8 "lib/ChibiOS_16.1.4//os/rt/ports/ARMCMx/chcore.h"
 518              		.file 9 "lib/ChibiOS_16.1.4//os/rt/ports/ARMCMx/chcore_v7m.h"
 519              		.file 10 "lib/ChibiOS_16.1.4//os/rt/include/chdebug.h"
 520              		.file 11 "lib/ChibiOS_16.1.4//os/rt/include/chtm.h"
 521              		.file 12 "lib/ChibiOS_16.1.4//os/rt/include/chstats.h"
 522              		.file 13 "lib/ChibiOS_16.1.4//os/rt/include/chsem.h"
 523              		.file 14 "lib/ChibiOS_16.1.4//os/rt/include/chmtx.h"
 524              		.file 15 "lib/ChibiOS_16.1.4//os/rt/include/chmemcore.h"
 525              		.file 16 "lib/ChibiOS_16.1.4//os/rt/include/chmempools.h"
 526              		.file 17 "lib/ChibiOS_16.1.4//test/rt/test.h"
 527              		.file 18 "lib/ChibiOS_16.1.4//os/ext/CMSIS/include/core_cm4.h"