ARM GAS  /tmp/ccmL2APA.s 			page 1


   1              		.syntax unified
   2              		.cpu cortex-m4
   3              		.fpu softvfp
   4              		.eabi_attribute 20, 1
   5              		.eabi_attribute 21, 1
   6              		.eabi_attribute 23, 3
   7              		.eabi_attribute 24, 1
   8              		.eabi_attribute 25, 1
   9              		.eabi_attribute 26, 1
  10              		.eabi_attribute 30, 6
  11              		.eabi_attribute 34, 1
  12              		.eabi_attribute 18, 4
  13              		.thumb
  14              		.file	"testmsg.c"
  15              		.text
  16              	.Ltext0:
  17              		.section	.gnu.lto_.inline.950596d82df8e1eb,"",%progbits
  18 0000 789C6362 		.ascii	"x\234cb`b\300\006\016BiV\006\006\026f\006\006&\226\017"
  18      6062C006 
  18      0E426956 
  18      06061666 
  18      06062696 
  19 0015 7A0C2C10 		.ascii	"z\014,\020\265L\014l|h\"\334@\202\031C!\013\003\217"
  19      B54C0C6C 
  19      7C6822DC 
  19      40821943 
  19      210B038F 
  20 0029 1A508469 		.ascii	"\032P\204i\201<L\204\231\007\205`e0=\302\010T\301\263"
  20      813C4C84 
  20      99078560 
  20      65303DC2 
  20      0854C1B3 
  21 003d 2117AE87 		.ascii	"!\027\256\207\027n\036\\\031\230K\254\030\273\000\212"
  21      176E1E5C 
  21      19984BAC 
  21      18BB008A 
  22 004d 2C030083 		.ascii	",\003\000\203\007\010\303"
  22      0708C3
  23              		.text
  24              		.section	.gnu.lto_chThdGetSelfX.950596d82df8e1eb,"",%progbits
  25 0000 789C6362 		.ascii	"x\234cb`b@\007\322@\374\007\210\015@\034\026\006F\240"
  25      60624007 
  25      D240FC07 
  25      880D401C 
  25      160646A0 
  26 0014 0A462646 		.ascii	"\012F&Ff \311\314\310\010\024bd\250gbf\254\217\004\261"
  26      6620C9CC 
  26      C8081462 
  26      64A86762 
  26      66AC8F04 
  27 0029 19189518 		.ascii	"\031\030\225\030\02664\314z\320\272k\246d\327\202\246"
  27      163634CC 
  27      7AD0BA6B 
  27      A664D782 
  27      A6
  28 003a 090DFFFE 		.ascii	"\011\015\377\376\377g\314\004I%32D\000Y\214\012`\212"
  28      FF67CC04 
ARM GAS  /tmp/ccmL2APA.s 			page 2


  28      49253332 
  28      4400598C 
  28      0A608A
  29 004d 8905D592 		.ascii	"\211\005\325\222\365L\007\036\374\377\377\346\366\227"
  29      F54C071E 
  29      FCFFFFE6 
  29      F697
  30 005b 472F1985 		.ascii	"G/\031\205\230\030\031\300Z\030X\031Z\032\032&(\200"
  30      981819C0 
  30      5A185819 
  30      5A1A1A26 
  30      2880
  31 006d 35034108 		.ascii	"5\003A\010\230\014\005\271\200\371,C\323\255\031\273"
  31      980C05B9 
  31      80F92C43 
  31      D3AD19BB 
  32 007d 24131917 		.ascii	"$\023\031\0271\2622\24432j3\254j\000\202P\240F(\323"
  32      31B232A4 
  32      33326A33 
  32      AC6A0082 
  32      50A04628 
  33 0092 32939179 		.ascii	"2\223\221y6\303\254\306\206\006\201LF\226j\206_\015"
  33      36C3ACC6 
  33      8606814C 
  33      46966A86 
  33      5F0D
  34 00a4 1D20166B 		.ascii	"\035 \026k.\330\024\220#X\301V'12@iF$\007\205\202|\310"
  34      2ED81490 
  34      2358C156 
  34      27313240 
  34      69462407 
  35 00bc 7C9AA191 		.ascii	"|\232\241\221\203\201!\005$s\221\241\361\0003\334:\210"
  35      83812105 
  35      247391A1 
  35      F10033DC 
  35      3A88
  36 00ce A2101003 		.ascii	"\242\020\020\003\024bz9\231I\372\316\031\231I\231\376"
  36      14627A39 
  36      9949FACE 
  36      19994999 
  36      FE
  37 00df C1F18666 		.ascii	"\301\361\206fz\206z&\372\372\371\305\372E%\372\231y"
  37      7A867A26 
  37      FAFAF9C5 
  37      FA4525FA 
  37      9979
  38 00f1 C939A529 		.ascii	"\3119\245)\251\372\311\031%\031E\251\211)\305z\031\014"
  38      A9FAC919 
  38      251945A9 
  38      8929C57A 
  38      190C
  39 0103 001C7D46 		.ascii	"\000\034}F\374"
  39      FC
  40              		.text
  41              		.section	.gnu.lto_chThdGetPriorityX.950596d82df8e1eb,"",%progbits
  42 0000 789C6362 		.ascii	"x\234cb`b@\007\322@l\316\310\300`\000\342\26000\002"
  42      60624007 
ARM GAS  /tmp/ccmL2APA.s 			page 3


  42      D2406CCE 
  42      C8C06000 
  42      E2B03030 
  43 0015 55303231 		.ascii	"U0212\003IfF\2400\003#C=\0233c}$\210\315\300\244\304"
  43      32034966 
  43      46A03003 
  43      23433D13 
  43      33637D24 
  44 002e B0B0A161 		.ascii	"\260\260\241a\326\203\245\373gJv-h\232\320\360\357\377"
  44      D683A5FB 
  44      674A762D 
  44      689AD0F0 
  44      EFFF
  45 0040 7FC64C90 		.ascii	"\177\306L\220T2#C\004\220\305\250\000\246\230XP-\001"
  45      54322343 
  45      0490C5A8 
  45      00A69858 
  45      502D01
  46 0053 6B9BD470 		.ascii	"k\233\324p\377I\300\211\206\226\003\377\377\333g\202"
  46      FF49C089 
  46      869603FF 
  46      FFDB6782 
  47 0063 6CC0AF67 		.ascii	"l\300\257g=\323\201\007\377\377\357\271\377\347\321"
  47      3DD38107 
  47      FFFFEFB9 
  47      FFE7D1
  48 0072 3F462166 		.ascii	"?F!fF\006\240\026&\006\260]\014\254\014-\015\015\023"
  48      4606A016 
  48      2606B05D 
  48      0CAC0C2D 
  48      0D0D13
  49 0085 14C02600 		.ascii	"\024\300&\000A\010\230\014\0059\235\371<C\363\203\277"
  49      4108980C 
  49      05399DF9 
  49      3C43F383 
  49      BF
  50 0096 4FB91319 		.ascii	"O\271\023\031\0273\2622\24432V3\374j\350h\020\310dd"
  50      1733B232 
  50      A4333256 
  50      33FC6AE8 
  50      6810C864 
  51 00ab 49067B87 		.ascii	"I\006{\207\001h\004+\003\303Y\206\246[\0050EL\332\014"
  51      0168042B 
  51      03C35986 
  51      A65B0530 
  51      454CDA0C 
  52 00bf AB1A80A0 		.ascii	"\253\032\200\240\030h\372l\206Y@\267\260\001u\202\334"
  52      1868FA6C 
  52      865940B7 
  52      B0017582 
  52      DC
  53 00d0 C40CD691 		.ascii	"\304\014\326\221\304\210\354\256P\220(\363i\206F\016"
  53      C488ECAE 
  53      509028F3 
  53      6986460E 
  54 00e0 06861490 		.ascii	"\006\206\024\220\314E\206\306\003\314p\263 \212B@\226"
  54      CC4586C6 
ARM GAS  /tmp/ccmL2APA.s 			page 4


  54      03CC70B3 
  54      208A4240 
  54      96
  55 00f1 81D87A39 		.ascii	"\201\330z9\231I\372\316\031\231I\231\376\301\361\206"
  55      9949FACE 
  55      19994999 
  55      FEC1F186 
  56 0101 667A867A 		.ascii	"fz\206z&\372\372\371\305\372E%\372\231y\3119\245)\251"
  56      26FAFAF9 
  56      C5FA4525 
  56      FA9979C9 
  56      39A529A9 
  57 0115 FAC91925 		.ascii	"\372\311\031%\031E\251\211)\305z\031\014\000\351\245"
  57      1945A989 
  57      29C57A19 
  57      0C00E9A5 
  58 0125 5306     		.ascii	"S\006"
  59              		.text
  60              		.section	.gnu.lto_chMsgGet.950596d82df8e1eb,"",%progbits
  61 0000 789C6362 		.ascii	"x\234cb`b@\007\322@|\017\210u@\034\026\006F\240\012"
  61      60624007 
  61      D2407C0F 
  61      8875401C 
  61      160646A0 
  62 0015 46264666 		.ascii	"F&Ff \311\314\310\010\024bd\250gbf\254\217\004\261\031"
  62      20C9CCC8 
  62      08146264 
  62      A8676266 
  62      AC8F04B1 
  63 002a 18951816 		.ascii	"\030\225\030\02664\314xp\364\323\014\311\256\005M\023"
  63      3634CC78 
  63      70F4D30C 
  63      C9AE054D 
  63      13
  64 003b 1AFEFDFF 		.ascii	"\032\376\375\377\317\230\011\222Jfd\210\000\262\030"
  64      CF980992 
  64      4A666488 
  64      00B218
  65 004a 15C01413 		.ascii	"\025\300\024\023\013\252%\353\231\016<\370\377\277g"
  65      0BAA25EB 
  65      990E3CF8 
  65      FFBF67
  66 0059 E78747A7 		.ascii	"\347\207G\247\031\005\201\346\3462\002]\002\326\307"
  66      190581E6 
  66      E632025D 
  66      02D6C7
  67 0068 C0CAD0D2 		.ascii	"\300\312\320\322\3200A\001l\002\020\204\200\311P\220"
  67      D0304101 
  67      6C021084 
  67      80C95090 
  68 0078 3398CF32 		.ascii	"3\230\31724\335\272\361I\"\221q\021#+C:#\2236\303\252"
  68      34DDBAF1 
  68      49229171 
  68      11232B43 
  68      3A239336 
  69 008e 0620B004 		.ascii	"\006 \260\004j\234\3150\013h\015s:##\310:\210mI\214"
  69      6A9CCD30 
ARM GAS  /tmp/ccmL2APA.s 			page 5


  69      0B680D73 
  69      3A2323C8 
  69      3A886D49 
  70 00a3 C8568682 		.ascii	"\310V\206\202\374\300|\232\241\221\203\201!\005\344"
  70      FCC07C9A 
  70      A1918381 
  70      2105E4
  71 00b2 938B0C8D 		.ascii	"\223\213\014\215\007\230\341fA\024\205\200$@l\255\234"
  71      0798E166 
  71      41148580 
  71      24406CAD 
  71      9C
  72 00c3 CC247DE7 		.ascii	"\314$}\347\214\314\244L\377\340xC3=C=\023}\375\374b"
  72      8CCCA44C 
  72      FFE07843 
  72      333D433D 
  72      137DFDFC 
  73 00d8 FDA212FD 		.ascii	"\375\242\022\375\314\274\344\234\322\224T\375\344\214"
  73      CCBCE49C 
  73      D29454FD 
  73      E48C
  74 00e6 DCE274BD 		.ascii	"\334\342t\275\014\006\000\217l<\337"
  74      0C06008F 
  74      6C3CDF
  75              		.text
  76              		.section	.gnu.lto_thread.950596d82df8e1eb,"",%progbits
  77 0000 789C6362 		.ascii	"x\234cb`b@\007\"@|\037\2105@\034f\006F\240\012F&FF "
  77      60624007 
  77      22407C1F 
  77      8835401C 
  77      660646A0 
  78 001a 8791A19E 		.ascii	"\207\221\241\236\211\261>\222\021\254l=\323\201\007"
  78      89B13E92 
  78      11AC6C3D 
  78      D38107
  79 0029 FFFFAFFB 		.ascii	"\377\377\257\373\266\360Q\007\243 P>\027,\314\312\320"
  79      B6F05107 
  79      A320503E 
  79      172CCCCA 
  79      D0
  80 003a D2D03041 		.ascii	"\322\3200A\201\201!\031\314\015\001\223\241 3\230\317"
  80      81812119 
  80      CC0D0193 
  80      A1203398 
  80      CF
  81 004b 33B43EF8 		.ascii	"3\264>\370k\221\310\270\220\221\025(V\315\360\253\241"
  81      6B91C8B8 
  81      90911528 
  81      56CDF0AB 
  81      A1
  82 005c A3412093 		.ascii	"\243A \223\021\250\022b`:#c\004c&#\243#C&H=P\371\202"
  82      11A81262 
  82      603A2363 
  82      04632623 
  82      A3234326 
  83 0075 3AC2AA9D 		.ascii	":\302\252\235\020\252\353\011\253v\206\250\276\310\320"
  83      10AAEB09 
ARM GAS  /tmp/ccmL2APA.s 			page 6


  83      AB7686A8 
  83      BEC8D0
  84 0084 F8A04319 		.ascii	"\370\240C\031\246\034\002B@JA\241\241\226\223\231\244"
  84      A61C0242 
  84      404A41A1 
  84      A1969399 
  84      A4
  85 0095 EF9C9199 		.ascii	"\357\234\221\231\224\351\037\034oh\246g\250g\242\257"
  85      94E91F1C 
  85      6F68A667 
  85      A867A2AF 
  86 00a5 5F925A5C 		.ascii	"_\222Z\\\242_T\002\246s\213\323\365\222\031\000P\000"
  86      A25F5402 
  86      A6738BD3 
  86      F5921900 
  86      5000
  87 00b7 3BB0     		.ascii	";\260"
  88              		.text
  89              		.section	.gnu.lto_msg1_execute.950596d82df8e1eb,"",%progbits
  90 0000 789CB594 		.ascii	"x\234\265\224\313kSA\024\306\317\231{\363N\223V\255"
  90      CB6B5341 
  90      14C6CF99 
  90      7BF34E93 
  90      56AD
  91 0012 6DAD8FD2 		.ascii	"m\255\217\322\205\250hc\241\272\365\321?@\301\026t%"
  91      85A86863 
  91      A1BAF5D1 
  91      3F40C116 
  91      7425
  92 0024 ED55E280 		.ascii	"\355U\342\200\005\261\331\271\350\244IK\261U\202\017"
  92      05B1D9B9 
  92      E8A4494B 
  92      B155820F 
  93 0034 FAC61654 		.ascii	"\372\306\026T\252\215\326\307\246\"B@\010\025)UpY0X"
  93      AA8DD6C7 
  93      A6224240 
  93      08152955 
  93      70593058 
  94 0048 144117AE 		.ascii	"\024A\027\256U\274\316\271\317\240!\015\202\003\231"
  94      55BCCEB9 
  94      CFA0210D 
  94      820399
  95 0057 997BE67C 		.ascii	"\231{\346|_~g\356\314e\300\340\317\266K\376t/@\033="
  95      5F7E67EE 
  95      CC65C0E0 
  95      CFB64BFE 
  95      742F401B 
  96 006c 78006506 		.ascii	"x\000e\0062\246\000\010\246\312NUP\016\250\"\312e\204"
  96      32A60008 
  96      A6CA4E55 
  96      500EA822 
  96      CA6584
  97 007f 3EA6A8D8 		.ascii	">\246\250\330w\212\036 \324\014\263B\\+\334\371\264"
  97      778A1E20 
  97      D40CB342 
  97      5C2BDCF9 
  97      B4
ARM GAS  /tmp/ccmL2APA.s 			page 7


  98 0090 A48EDFC8 		.ascii	"\244\216\337\310\245g\304O]G\344\264\250!\234\2243l"
  98      A567C44F 
  98      5D47E4B4 
  98      A8219C94 
  98      336C
  99 00a2 3206722A 		.ascii	"2\006r*n\246P\214\346G\202\231\344\220\320\365>\216"
  99      6EA6508C 
  99      E6478299 
  99      E490D0F5 
  99      3E8E
 100 00b4 4A85A2EB 		.ascii	"J\205\242\353\037\217/\211tN\327\017U\256y2'\002\006"
 100      1F8F2F89 
 100      744ED70F 
 100      55AE7932 
 100      270206
 101 00c7 9DC2A99A 		.ascii	"\235\302\251\232\377\245\311\275\030\274Yw\271 2\342"
 101      FFA5C9BD 
 101      18BC5977 
 101      B92032E2 
 102 00d7 97DC088E 		.ascii	"\227\334\010\216\036W\3467eXR\366.?\034|$\254}\250T"
 102      1E57E637 
 102      655852F6 
 102      2E3F1C7C 
 102      24AC7DA8 
 103 00ec B4FA2FA2 		.ascii	"\264\372/\242\367\371g\263(\006E\362\233\256G9z+\224"
 103      F7F967B3 
 103      280645F2 
 103      9BAE4739 
 103      7A2B94
 104 00ff 8DE6AF36 		.ascii	"\215\346\2576\210\231~\273.\225\301n\254dG2\271\361"
 104      88997EBB 
 104      2E95C16E 
 104      AC644732 
 104      B9F1
 105 0111 FC48B1D2 		.ascii	"\374H\261\322\307`\357z\312\005\226+\350z\366\361\314"
 105      C760EF7A 
 105      CA05962B 
 105      E87AF6F1 
 105      CC
 106 0122 8745ACA9 		.ascii	"\207E\254\251F\220\347\211\311NQ\250Se\247z\250\363"
 106      4690E789 
 106      C94E51A8 
 106      5365A77A 
 106      A8F3
 107 0134 4217DEC7 		.ascii	"B\027\336\307f\360\3111+G\277\014z\002V0h\005C\024\014"
 107      66F0C931 
 107      2B47BF0C 
 107      7A025630 
 107      68054314 
 108 0149 5BC12A2B 		.ascii	"[\301*+\030\241`\024\214\362\345\211OK\316&3\303\\7"
 108      18A16014 
 108      8CF2E589 
 108      4F4BCE26 
 108      33C35C37 
 109 015d 3645B60E 		.ascii	"6E\266\016\243\357\244\033\241,C\377\352\242<\347]\370"
 109      A3EFA41B 
 109      A12C43FF 
ARM GAS  /tmp/ccmL2APA.s 			page 8


 109      EAA23CE7 
 109      5DF8
 110 016f 506E761C 		.ascii	"Pnv\034q\037dE5G\377$L$34\013\\\202\357b\214f\301\036"
 110      711F6445 
 110      3547FF24 
 110      4C243334 
 110      0B5C82EF 
 111 0188 4348B505 		.ascii	"CH\265\005\301\236\205\212*\\\201TnX\261\255\030\011"
 111      C19E858A 
 111      2A5C8154 
 111      6E58B1AD 
 111      1809
 112 019a 874818D6 		.ascii	"\207H\030\326\320\334\177\216U\000\313\220\032J\335"
 112      D0DC7F8E 
 112      5500CB90 
 112      1A4ADD
 113 01a9 65769A22 		.ascii	"ev\232\"3\311HA\323\2410\261\326h\257\251\216EDCfYD"
 113      33C94841 
 113      D3A130B1 
 113      D668AFA9 
 113      8E454443 
 114 01c0 296D4C4C 		.ascii	")mLL=\275\355xx\234\274j\215.\217l\262\024r\255\371"
 114      3DBDED78 
 114      789CBC6A 
 114      8D2E8F6C 
 114      B21472AD 
 115 01d5 CCE83F68 		.ascii	"\314\350?h\335\317q\203\206V\245d\316q#\321\364\277"
 115      DDCF7183 
 115      8656A564 
 115      CE7123D1 
 115      F4BF
 116 01e7 7AE33383 		.ascii	"z\3433\203T\273l\007\344[\240\362\005\031nr\254k{\214"
 116      54BB6C07 
 116      E45BA0F2 
 116      05196E72 
 116      AC6B7B8C 
 117 01fb 2AC8B5B6 		.ascii	"*\310\265\266D\371qr%\376\311\227hsy\213\371=\305\374"
 117      44F97172 
 117      25FEC997 
 117      6873798B 
 117      F93DC5FC 
 118 020f E9C2D49A 		.ascii	"\351\302\324\232\223\346s\3226k\306\313#7/\307:\312"
 118      93E673D2 
 118      366BC6CB 
 118      23372FC7 
 118      3ACA
 119 0221 1C284CAF 		.ascii	"\034(L\257Y|\000Nb\275\206>;Q\032pl0J\371\222\3721\262"
 119      597C004E 
 119      62BD863E 
 119      3B511A70 
 119      6C304AF9 
 120 0239 C7B6F5C7 		.ascii	"\307\266\365\307)g\005\324\277\324[4y/L\265\334\225"
 120      296705D4 
 120      BFD45B34 
 120      792F4CB5 
 120      DC95
 121 024b 4693FB96 		.ascii	"F\223\373\226\313\035(\303=\347r\007Kq\007\034\356{"
ARM GAS  /tmp/ccmL2APA.s 			page 9


 121      CB1D28C3 
 121      3DE77207 
 121      4B71071C 
 121      EE7B
 122 025d E5B903D2 		.ascii	"\345\271\003\322\300\345\236\277\342p\207\342t\276\326"
 122      C0E59EBF 
 122      E27087E2 
 122      74BED6
 123 026c E10E39DC 		.ascii	"\341\0169\334\363.w\270\014w\326\345\256*\305\035v\270"
 123      F32E77B8 
 123      0C77D6E5 
 123      AE2AC51D 
 123      76B8
 124 027e 1F94E70E 		.ascii	"\037\224\347\016K\003\227\373\271\313\035\211\323\361"
 124      4B0397FB 
 124      B9CB1D89 
 124      D3F1
 125 028c 5E873B62 		.ascii	"^\207;bq\017\024\0264[\030u\022\267j\030p\316V\015\032"
 125      710F1416 
 125      345B1875 
 125      12B76A18 
 125      70CE560D 
 126 02a1 0EF51CB7 		.ascii	"\016\365\034\267m\207\375\323b\3540\307\355`\231s\334"
 126      6D87FDD3 
 126      62EC30C7 
 126      ED609973 
 126      DC
 127 02b2 01B004E9 		.ascii	"\001\260\004\351\257NUQ\322x\213\2778\035t\027\224N"
 127      AF4E5551 
 127      D2788BBF 
 127      381D7417 
 127      944E
 128 02c4 FACC2BAF 		.ascii	"\372\314+\257!)\021\316\320-z\013h\023\332y\362`\323"
 128      212911CE 
 128      D02D7A0B 
 128      6813DA79 
 128      F260D3
 129 02d7 F5DA799E 		.ascii	"\365\332y\236w\307\332\317\361n~\354\304\351\326\203"
 129      77C7DACF 
 129      F16E7EEC 
 129      C4E9D683 
 130 02e7 2DAD2D6D 		.ascii	"-\255-m\261X\342lo\"v1a\214=\275\361\026\015X\342\202"
 130      B158E26C 
 130      6F227631 
 130      618C3DBD 
 130      F1160D58 
 131 02fd 2267EA91 		.ascii	"\"g\352\221\243\355\360\0336\306\235\206"
 131      A3EDF01B 
 131      36C69D86 
 132              		.text
 133              		.section	.gnu.lto_.symbol_nodes.950596d82df8e1eb,"",%progbits
 134 0000 789C4DCC 		.ascii	"x\234M\314KR\0021\024\205\341sn:\240(\260\004\327F\225"
 134      4B520231 
 134      1485E173 
 134      6E3AA028 
 134      B004D746 
 135 0015 FBB814A9 		.ascii	"\373\270\024\251\262\265\2310a\003\364:t\322sG\316\345"
ARM GAS  /tmp/ccmL2APA.s 			page 10


 135      B2B59930 
 135      6103F43A 
 135      74D27347 
 135      CEE5
 136 0027 317502BE 		.ascii	"1u\002\276A-\363\350\"d\362\325\237\223\212@pM\244#"
 136      412DF3E8 
 136      2264F2D5 
 136      9F938A40 
 136      704DA423 
 137 003b F75460F6 		.ascii	"\367T`\366\010\250\316oG\366\327\017\012y\2402\337\312"
 137      08A8CE6F 
 137      47F6D70F 
 137      0A79A032 
 137      DFCA
 138 004d 33554E72 		.ascii	"3UNrK5m>\335\215dG-r\332\017\322\177a\277(\2017\232"
 138      4B356D3E 
 138      DD8D6447 
 138      2D72DA0F 
 138      D27F61BF 
 139 0065 AEE79585 		.ascii	"\256\347\225\205\207\357T\233\236\216\307\344\017\265"
 139      87EF549B 
 139      9E8EC7E4 
 139      0FB5
 140 0073 93EB40ED 		.ascii	"\223\353@\355\346\332S\317r}S\317s}R{\3072\002L\226"
 140      E6DA53CF 
 140      727D53CF 
 140      737D527B 
 140      C732024C 
 141 0088 7F34450F 		.ascii	"\1774E\017\256\265nm\202V\260\210\002\353\350\020n\025"
 141      AEB56E6D 
 141      8256B088 
 141      02EBE810 
 141      6E15
 142 009a 1CA0891A 		.ascii	"\034\240\211\032\254\243}\270\233\227+c/\321D\007\330"
 142      ACA37DB8 
 142      9B972B63 
 142      2FD14407 
 142      D8
 143 00ab 440D2665 		.ascii	"D\015&e\260\217\272L\373\246L\273\253\322\276\250\322"
 143      B08FBA4C 
 143      FBA64CBB 
 143      ABD2BEA8 
 143      D2
 144 00bc DE546977 		.ascii	"\336Tiw\323\340\005j/\376\001r\212m\223"
 144      D3E0056A 
 144      2FFE0172 
 144      8A6D93
 145              		.text
 146              		.section	.gnu.lto_.refs.950596d82df8e1eb,"",%progbits
 147 0000 789C6362 		.ascii	"x\234cb`b\020e\200\000F bfe`cbadg\344`\342d\344dbe\000"
 147      60621065 
 147      80004620 
 147      62666560 
 147      63626164 
 148 001e 00056100 		.ascii	"\000\005a\000]"
 148      5D
 149              		.text
ARM GAS  /tmp/ccmL2APA.s 			page 11


 150              		.section	.gnu.lto_.decls.950596d82df8e1eb,"",%progbits
 151 0000 789CBD5B 		.ascii	"x\234\275[\013p\324\346\235\227\264k\257\327vlH\233"
 151      0B70D4E6 
 151      9D97B46B 
 151      AFD7766C 
 151      489B
 152 0012 1C99D264 		.ascii	"\034\231\322d{\327vzi\202!\345\022\332\231\013\264t"
 152      7BD7767A 
 152      698221E5 
 152      12DA990B 
 152      B474
 153 0024 066E7AB9 		.ascii	"\006nz\271\3534\355\\fn\3566b-\354-\273\353\215V\306"
 153      EB34ED5C 
 153      666EEE36 
 153      622DEC2D 
 153      BBEB8D56 
 154 0039 D0CC34B2 		.ascii	"\320\3144\262y\330\011/\363\206\36021\220\000I\010\020"
 154      79D8092F 
 154      F386F032 
 154      31900049 
 154      0810
 155 004b 07480828 		.ascii	"\007H\010(\017l\010\020\010\246\274c\014\011a\240Iy"
 155      0F6C0810 
 155      08A6BC63 
 155      0C0961A0 
 155      4979
 156 005d 183060C0 		.ascii	"\0300`\300\367\377\376\237\244\225\264\322Z2\315iF\237"
 156      F7FFFE9F 
 156      A495B4D2 
 156      5A32CD69 
 156      469F
 157 006f BE95BEEF 		.ascii	"\276\225\276\357\367\375\337\337s9\206c\376\235c\230"
 157      F7FDDFDF 
 157      73398663 
 157      FE9D6398 
 158 007f 6EB816FD 		.ascii	"n\270\026\375\206a\232\363\030&\227a\230'\231\364U\000"
 158      86619AF3 
 158      18269761 
 158      982799F4 
 158      5500
 159 0091 F772B8FF 		.ascii	"\367r\270\377\3042\314\237\341\236\004\367T\270\353"
 159      C432CC9F 
 159      E19E04F7 
 159      54B8EB
 160 00a0 E19E0BF7 		.ascii	"\341\236\013\367R\270_\201\373U\270W\303\235\003e7\303"
 160      52B85F81 
 160      FB55B857 
 160      C39D0365 
 160      37C3
 161 00b2 F357803B 		.ascii	"\363W\200;\002\356\337\300\315s\214\351\"x\244\235F"
 161      02EEDFC0 
 161      CD738CE9 
 161      2278A49D 
 161      46
 162 00c3 B88BE02E 		.ascii	"\270\213\340.\204[\201:[\340\376#\224%\305\267C~?\334"
 162      845B813A 
 162      5BE0FE23 
ARM GAS  /tmp/ccmL2APA.s 			page 12


 162      9425C5B7 
 162      437E3FDC 
 163 00d7 AC5A9E53 		.ascii	"\254Z\236Sq\307X\260\010]\001x\276e\300\"\2701(\367"
 163      71C758B0 
 163      085D0178 
 163      BE65C022 
 163      B83128F7 
 164 00eb 0A3C5730 		.ascii	"\012<W0\024c\235\212A\312/W\337\305-X\177V\351\317g"
 164      14639D8A 
 164      41CA2F57 
 164      DFC52D58 
 164      7F56E9CF 
 165 0100 D3582B54 		.ascii	"\323X+T<R\376\367*=\244\034\251Z\003\317\204\005\203"
 165      3C52FEF7 
 165      2A3DA41C 
 165      A95A03CF 
 165      840583
 166 0113 C8C707CF 		.ascii	"\310\307\007\317\012\216\342\314d\351{N\375V\257b\274"
 166      0A8EE2CC 
 166      64E97B4E 
 166      FD56AF62 
 166      BC
 167 0124 C89AEB11 		.ascii	"\310\232\353\021\231\206\3409\324\300G@m\3734\334\363"
 167      9986E039 
 167      D4C04740 
 167      6DFB34DC 
 167      F3
 168 0135 598AF76B 		.ascii	"Y\212\367k\000\032\016w\022n?\274\177\016\236\317\263"
 168      001A0E77 
 168      126E3FBC 
 168      7F0E9ECF 
 168      B3
 169 0146 697E458E 		.ascii	"i~E\216\362\320\004\357\326\300=\022~\247\340\226\340"
 169      F2D004EF 
 169      D6C03D12 
 169      7EA7E096 
 169      E0
 170 0157 7E017E57 		.ascii	"~\001~W\302\263\021\236c\341\271\014\236U\360\034\007"
 170      C2B3119E 
 170      63E1B90C 
 170      9E55F01C 
 170      07
 171 0168 F778B8E7 		.ascii	"\367x\270\347\2514\345\253\364h\262Z\255\352\375U\325"
 171      A934E5AB 
 171      F468B25A 
 171      ADEAFD55 
 171      D5
 172 0179 065E51F5 		.ascii	"\006^Q\365>W\345U\323\365\363\026Y<\304,\225\225\375"
 172      3E57E555 
 172      D3F5F316 
 172      593CC42C 
 172      9595FD
 173 018c ED3B36ED 		.ascii	"\355;6\355\362-\224\225\2112\230\231\314\206\356g\346"
 173      F22D9495 
 173      89329899 
 173      CC86EE67 
 173      E6
ARM GAS  /tmp/ccmL2APA.s 			page 13


 174 019d CA70354C 		.ascii	"\312p5L\226eV*`^\222\345\032\362c\344\316\242{\231\231"
 174      9665562A 
 174      605E92E5 
 174      1AF263E4 
 174      CEA27B99 
 175 01b2 E44BA8EE 		.ascii	"\344K\250\356\013\000~\206\345\331\242 #\347b\2560\310"
 175      0B007E86 
 175      E5D9A220 
 175      23E762AE 
 175      30C8
 176 01c4 3C0B883F 		.ascii	"<\013\210?bV\310r}{\353\355V\237,\347\361\354\012\366"
 176      6256C872 
 176      7D7BEBED 
 176      569F2CE7 
 176      F1EC0AF6 
 177 01d8 5E902CCF 		.ascii	"^\220,\3172\0173\253\241f\275,\177\370\270E\260x\365"
 177      320F33AB 
 177      A166BD2C 
 177      7FF8B845 
 177      B078F5
 178 01eb 8CCC31CF 		.ascii	"\214\3141\317\261\000\364\032\000\362\354\253\354\303"
 178      B100F41A 
 178      00F2ECAB 
 178      ECC3
 179 01f9 B429B9BD 		.ascii	"\264)\271\275\263v\307\004\266\032H\245\337\030\365"
 179      B376C704 
 179      B61A48A5 
 179      DF18F5
 180 0208 ABCDF503 		.ascii	"\253\315\365\003\246\001XQ\346O_\362\200\334\360!\224"
 180      A6015851 
 180      E64F5FF2 
 180      80DCF021 
 180      94
 181 0219 6F640B00 		.ascii	"od\013\000\366UV\303U\333\015i\315\022\365\251Yz\251"
 181      F65556C3 
 181      55DB0D69 
 181      CD12F5A9 
 181      597AA9
 182 022c 05CC782F 		.ascii	"\005\314x/\177ZX\317k`oz\006\013\231\300\226}\272\030"
 182      7F5A58CF 
 182      6B606F7A 
 182      060B99C0 
 182      967DBA18 
 183 0240 890B3275 		.ascii	"\211\0132ui\2613\266`\252\250\217O\371\3703v\002\362"
 183      69B133B6 
 183      60AAA88F 
 183      4FF9F833 
 183      7602F2
 184 0253 FF1654E3 		.ascii	"\377\026T\343\230\253HBZ\006\356\241\272f\354\370\200"
 184      98AB4842 
 184      5A06EEA1 
 184      BA66ECF8 
 184      80
 185 0264 AD41A88D 		.ascii	"\255A\250\215\010\265\210\353-\324\302\331[\177\216"
 185      08B588EB 
 185      2DD4C2D9 
 185      5B7F8E
ARM GAS  /tmp/ccmL2APA.s 			page 14


 186 0273 06F00E02 		.ascii	"\006\360\016\002\035\260\000\361l@\027\243\376[+@\320"
 186      1DB000F1 
 186      6C4017A3 
 186      FE5B2B40 
 186      D0
 187 0284 F0B39A21 		.ascii	"\360\263\232!\321\257\230\371\226\213s\314\347\234\013"
 187      D1AF98F9 
 187      968B73CC 
 187      E79C0B
 188 0293 D5E539D9 		.ascii	"\325\3459\331\201\334~\255v\017z\221O\265\345\206\\"
 188      81DC7EAD 
 188      760F7A91 
 188      4FB5E586 
 188      5C
 189 02a4 271971CC 		.ascii	"'\031q\314\227\330\326{V[\336rxO\215j\313\357\271\262"
 189      97D8D67B 
 189      565BDE72 
 189      784F8D6A 
 189      CBEFB9B2 
 190 02b8 E5A64FE6 		.ascii	"\345\246O\346\243\271\330z\251\241\371\006Nk\377\207"
 190      A3B9D87A 
 190      A9A1F906 
 190      4E6BFF87 
 191 02c8 D8FE121F 		.ascii	"\330\376\022\037i_\261\266\277\361\370\035\315\227\024"
 191      695FB1B6 
 191      BFF1F81D 
 191      CD9714
 192 02d7 57ED7F76 		.ascii	"W\355\177v`Nf\373<\373\344}\331lc\313\341\257.\251\255"
 192      604E66FB 
 192      3CFBE47D 
 192      D96C63CB 
 192      E1AF2EA9 
 193 02ec 7C8C4ED3 		.ascii	"|\214N\323\346\263Z\307\320\002\263\376\340\267\241"
 193      E6B35AC7 
 193      D002B3FE 
 193      E0B7A1
 194 02fb 00C79CD5 		.ascii	"\000\307\234\325\351\357\225\317\002\243\007\347\260"
 194      E9EF95CF 
 194      02A307E7 
 194      B0
 195 0308 B326C83B 		.ascii	"\263&\310;\007j4\234\367\214\0302I\342\340\001\214\002"
 195      076A349C 
 195      F78C1832 
 195      49E2E001 
 195      8C02
 196 031a 14EC1B37 		.ascii	"\024\354\0337`\216\246T\243\0342\202]\364\014f\246\354"
 196      608EA654 
 196      A31C3282 
 196      5DF40C66 
 196      A6EC
 197 032c 8811ACC3 		.ascii	"\210\021\254\303\015X\037g\312\216\031\301\256y\006"
 197      0D581F67 
 197      CA8E19C1 
 197      AE7906
 198 033b 335376C2 		.ascii	"3Sv\302\010v\303\015X?g\312\332\214`\267=\203\231)\273"
 198      0876C30D 
 198      583F67CA 
ARM GAS  /tmp/ccmL2APA.s 			page 15


 198      DA8C60B7 
 198      3D839929 
 199 0350 6804ABF6 		.ascii	"h\004\253\366\273\000\013\331P\246_v\365\210Yogu;\347"
 199      BB000BD9 
 199      50A65F76 
 199      F588596F 
 199      67753BE7 
 200 0364 98897E2D 		.ascii	"\230\211~-&x\264i&\215Q\347\367\032\303L|Cg\272\267"
 200      2678B469 
 200      268D51E7 
 200      F71AC34C 
 200      7C4367BA 
 201 0379 919D4DFD 		.ascii	"\221\235M\375\202vh\323\335 f1\230w\214\275\343<\317"
 201      827668D3 
 201      DD206631 
 201      98778CBD 
 201      E33CCF
 202 038c 6066B51C 		.ascii	"`f\265\034$`\246X\243\366H\355+\225~\013\322\341.O\303"
 202      2460A658 
 202      A3F648ED 
 202      2B957E0B 
 202      D2E12E4F 
 203 03a1 22430D1A 		.ascii	"\"C\015\032\333`\344\301\351\205\345~\375\354\313\362"
 203      DB60E4C1 
 203      E985E57E 
 203      FDECCBF2 
 204 03b1 EC29F647 		.ascii	"\354)\366G\220\236f\203:\0254\257\345\272qh\271\324"
 204      909E6683 
 204      3A1534AF 
 204      E5BA7168 
 204      B9D4
 205 03c3 6F378841 		.ascii	"o7\210A\200\354U\235,\341\244\321\022\032\335\210)\213"
 205      80EC559D 
 205      2CE1A4D1 
 205      121ADD88 
 205      298B
 206 03d5 2B5C7412 		.ascii	"+\\t\022\2232Y\256c\253\327\367\327\353\0153\332\204"
 206      933259AE 
 206      63ABD7F7 
 206      D7EB0D33 
 206      DA84
 207 03e7 1E9EFFB6 		.ascii	"\036\236\377\266\\\035\005\234\305\316{\215\337v\024"
 207      5C1D059C 
 207      C5CE7B8D 
 207      DF7614
 208 03f6 E00AAC6B 		.ascii	"\340\012\254k\306>mHq\036\301\232z\017\326\260\260\265"
 208      C63E6D48 
 208      711EC19A 
 208      7A0FD6B0 
 208      B0B5
 209 0408 BFECE7D9 		.ascii	"\277\354\347\331o\020h\233\337\332i\004-C\212\240\271"
 209      6F10689B 
 209      DFDA6904 
 209      2D438AA0 
 209      B9
 210 0419 D30F06D3 		.ascii	"\323\017\006\323\231n\3552\253\361[\255\343\244\372"
 210      996EED32 
ARM GAS  /tmp/ccmL2APA.s 			page 16


 210      ABF15BAD 
 210      E3A4FA
 211 0428 AF8CAADF 		.ascii	"\257\214\252\337\345Y\365&\017i\277\326\322\346\233"
 211      E559F526 
 211      0F69BFD6 
 211      D2E69B
 212 0437 2F2BD53E 		.ascii	"/+\325>\203\255gu\014\030@\356\336\366\2578T\273\214"
 212      83AD6775 
 212      0C1840EE 
 212      DEF6AF38 
 212      54BB8C
 213 044a 723D68AF 		.ascii	"r=h\257 \027@]3\336\370)\002]E\240\317{\015\264p\366"
 213      2017405D 
 213      33DEF829 
 213      025D45A0 
 213      CF7B0DB4 
 214 0460 D2210874 		.ascii	"\322!\010t\035\201\316dh\232\265h\2325k@\367:\325\351"
 214      1D81CE64 
 214      689AB568 
 214      9A356B40 
 214      F73AD5E9 
 215 0474 BEADB21C 		.ascii	"\276\255\262\034s\301\252.\023;Y\272\006-\336\266|9"
 215      73C1AA2E 
 215      133B59BA 
 215      062DDEB6 
 215      7C39
 216 0486 9BEDA891 		.ascii	"\233\355\250\221\027\014\364\240\257)\252\276n\243t"
 216      170CF4A0 
 216      AF29AABE 
 216      6EA374
 217 0495 3A33A473 		.ascii	":3\244s\325\243x8\246\3333\033yf6j\317\366\202\215\355"
 217      D5A37838 
 217      A6DB331B 
 217      7966366A 
 217      CFF6828D 
 218 04aa 948D1A8E 		.ascii	"\224\215\032\216\260Q\233s\367l\314\310\361\312F\037"
 218      B0519B73 
 218      F76CCCC8 
 218      F1CA461F 
 219 04ba 031B3095 		.ascii	"\003\0330\225l\2712\207\366~\337afe\037\302\023zj\271"
 219      6CB93287 
 219      F67EDF61 
 219      66651FC2 
 219      137A6AB9 
 220 04ce EF9886CF 		.ascii	"\357\230\206\317\312\325}l\210\276\356i\344,+\263\017"
 220      CAD57D6C 
 220      88BEEE69 
 220      E42C2BB3 
 220      0F
 221 04df 18267AB2 		.ascii	"\030&z\262\253\211\336n}\242\367\022\212l^\216\215\203"
 221      AB89DE6E 
 221      7DA2F712 
 221      8A6C5E8E 
 221      8D83
 222 04f1 B9816AE8 		.ascii	"\271\201j\350\332w\037\011\244\323\020fqoa\332\027\266"
 222      DA771F09 
 222      A4D31066 
ARM GAS  /tmp/ccmL2APA.s 			page 17


 222      716F61DA 
 222      17B6
 223 0503 6EA27E5A 		.ascii	"n\242~Z\217@+2T\230k\321`\256Y\203\360\223\264t\035"
 223      8F402B32 
 223      54986BD1 
 223      60AE5983 
 223      F093B474 
 224 0518 03E40BEA 		.ascii	"\003\344\013\352\033\362#\300\374\277\327\203\251;\222"
 224      1BF223C0 
 224      FCBFD783 
 224      A93B92
 225 0527 4FB4E771 		.ascii	"O\264\347q\374\245YO\355\2369\332\330\211*\250\351\256"
 225      FCA5594F 
 225      ED9E39DA 
 225      D8892AA8 
 225      E9AE
 226 0539 106B94ED 		.ascii	"\020k\224\355\263\264\225\212\241d\364\264\355.\341"
 226      B3B4958A 
 226      A164F4B4 
 226      ED2EE1
 227 0548 70B86D1A 		.ascii	"p\270m\032\026X\246m+\034\272\035mQg\375\324GP\335/"
 227      1658A66D 
 227      2B1CBA1D 
 227      6D5167FD 
 227      D44750DD 
 228 055d 73849C1D 		.ascii	"s\204\234\035\031\352nd-\3236\362\302P\304\311\221\026"
 228      19EA6E64 
 228      2DD336F2 
 228      C250C4C9 
 228      9116
 229 056f 72861EF0 		.ascii	"r\206\036\360\310\335q\011j8\271\202\252\241\247I\361"
 229      C8DD7109 
 229      6A38B982 
 229      AAA1A749 
 229      F1
 230 0580 B31A5A21 		.ascii	"\263\032Z!6\334\206\0157p\2269\361\246\013\355\223\325"
 230      36DC860D 
 230      37709639 
 230      F1A60BED 
 230      93D5
 231 0592 110CF9D6 		.ascii	"\021\014\371\326\263g\037?\023\224g\025\332\264g7>j"
 231      B3671F3F 
 231      13946715 
 231      DAB46737 
 231      3E6A
 232 05a4 5D3EEDDF 		.ascii	"]>\355\337\350B\031G\026\312\346\345\232e\252-%\014"
 232      E8421947 
 232      16CAE6E5 
 232      9A65AA2D 
 232      250C
 233 05b6 7382E198 		.ascii	"s\202\341\230U\264\212\225\354\316\226Nm)\341U\027d"
 233      55B48A95 
 233      ECCE964E 
 233      6D29E155 
 233      1764
 234 05c8 D72897A6 		.ascii	"\327(\227\246\030\227\305x\366u\226Sq{gm\227w\353\003"
 234      1897C578 
ARM GAS  /tmp/ccmL2APA.s 			page 18


 234      F6759653 
 234      717B676D 
 234      9777EB03 
 235 05dc 7F9E7DD3 		.ascii	"\177\236}\3233X\310\216T\315\256\322\334\362\354j\216"
 235      3358C88E 
 235      54CDAED2 
 235      DCF2EC6A 
 235      8E
 236 05ed 0CD8D770 		.ascii	"\014\330\327p?\200t-\244\372\3051\233r5\215\332\211"
 236      3F80742D 
 236      A4FAC531 
 236      9B72358D 
 236      DA89
 237 05ff AE678FDE 		.ascii	"\256g\217\336t\341\372<jJ^\242t\263\026\245\337\304"
 237      74E1FA3C 
 237      6A4A5EA2 
 237      74B316A5 
 237      DFC4
 238 0611 20B03DD7 		.ascii	" \260=\327\352&$\354\232\330\361\024\246vX\231r\273"
 238      EA2624EC 
 238      9AD8F114 
 238      A6765899 
 238      72BB
 239 0623 B6A05F4E 		.ascii	"\266\240_Nn\270\314\350\206\273s\357\322\015[\316\272"
 239      6EB8CCE8 
 239      86BB73EF 
 239      D20D5BCE 
 239      BA
 240 0634 744399D5 		.ascii	"tC\231\325\340\372`\313\007\260\345\246\014\203\276"
 240      E0FA60CB 
 240      07B0E5A6 
 240      0C83BE
 241 0643 B6B35635 		.ascii	"\266\263V5\350&W~x\025\375P\363\254\311\001\015\265"
 241      E826577E 
 241      7815FD50 
 241      F3ACC901 
 241      0DB5
 242 0655 37B650A3 		.ascii	"7\266P\243\3348\267\213E8uZl\205s\253\005\025\356\226"
 242      DC38B78B 
 242      4538755A 
 242      6C8573AB 
 242      0515EE96 
 243 0669 E05530D4 		.ascii	"\340U0\324\276\224\243g\310\030c\033\215\026\001\253"
 243      BE94A367 
 243      C818631B 
 243      8D1601AB 
 244 0679 6951C918 		.ascii	"iQ\311\030L\253\311\340)\233\320S6\243\247\274\213\351"
 244      4CABC9E0 
 244      299BD053 
 244      36A3A7BC 
 244      8BE9
 245 068b 56A3BF38 		.ascii	"V\243\2778\231\305\373F\263X\352\231\357\220K\353{\333"
 245      99C5FB46 
 245      B358EA99 
 245      EF904BEB 
 245      7BDB
 246 069d D8CCCAC0 		.ascii	"\330\314\312\300\335Y\337\265\226\013~\\\213\365\260"
ARM GAS  /tmp/ccmL2APA.s 			page 19


 246      DD59DFB5 
 246      960B7E5C 
 246      8BF5B0
 247 06ac 8EBE7B87 		.ascii	"\216\276{\207\346\270\037\243\343\276\236!\335\215\326"
 247      E6B81FA3 
 247      E3BE9E21 
 247      DD8DD6
 248 06bb 11A99B65 		.ascii	"\021\251\233e\345\315\275eE\277 \206\004\\\314\012C"
 248      E5CDBD65 
 248      45BF2086 
 248      045CCC0A 
 248      43
 249 06cc 3652D787 		.ascii	"6R\327\207&\235\352\320\244\307\265i\255_:3u$\366K\237"
 249      269DEAD0 
 249      A4C7B569 
 249      AD5F3A33 
 249      7524F64B 
 250 06e1 A0A57D14 		.ascii	"\240\245}\024\260\357\227\262,q\037\300*{3\334\270\366"
 250      B0EF97B2 
 250      2C711FC0 
 250      2A7B33DC 
 250      B8F6
 251 06f3 8AD62FED 		.ascii	"\212\326/\355u\325/\265\332\366K{\275\367Kv\227\221"
 251      75D52FB5 
 251      DAF64B7B 
 251      BDF74B76 
 251      9791
 252 0705 409EDD87 		.ascii	"@\236\335\207\016\262\337\334\211\234v#\373\2378\231"
 252      0EB2DFDC 
 252      899C7623 
 252      FB9F3899 
 253 0715 A2ACDC68 		.ascii	"\242\254\334h]\314R\372i \372\332\212g\027\210Lx&]*"
 253      5DCC52FA 
 253      6920FADA 
 253      8A671788 
 253      4C78265D 
 254 072a F587B05F 		.ascii	"\365\207\260_\245#\314N7\304\015t\002\253Q\026S0j\360"
 254      A523CC4E 
 254      37C40D74 
 254      02AB5116 
 254      53306AF0 
 255 073e B7DD800D 		.ascii	"\267\335\200\015q\342\264Fyo\236\246\251\267q\200X\227"
 255      71E2B446 
 255      796F9EA6 
 255      A9B77180 
 255      5897
 256 0750 E715CF4C 		.ascii	"\347\025\317L\\\353\241\305*\036\335\330\232\345\006"
 256      5CEBA1C5 
 256      2A1EDDD8 
 256      9AE506
 257 075f 6F98337D 		.ascii	"o\2303}\227\346\231\206\323K<\303\231\025q\373\020Q"
 257      97E69986 
 257      D34B3CC3 
 257      991571FB 
 257      1051
 258 0771 ECD47E76 		.ascii	"\354\324~v[\227\212\036\272\311Z\215\352S\213\032/="
 258      5B978A1E 
ARM GAS  /tmp/ccmL2APA.s 			page 20


 258      BAC95A8D 
 258      EA538B1A 
 258      2F3D
 259 0783 4003CC49 		.ascii	"@\003\314I\264\204}y\266N\225\005\010\327\027-\036\245"
 259      B4847D79 
 259      B64E9505 
 259      08D7172D 
 259      1EA5
 260 0795 AC6F2E24 		.ascii	"\254o.$\223\271\323\256\274ic\263\347\375\305\335[\351"
 260      93B9D3AE 
 260      BC6963B3 
 260      E7FDC5DD 
 260      5BE9
 261 07a7 3CFD0C1A 		.ascii	"<\375\014\032\311\351\274\277KT<\2170\247{;\272\004"
 261      C9E9BCBF 
 261      4B543C8F 
 261      30A77B3B 
 261      BA04
 262 07b9 597EF6C0 		.ascii	"Y~\366\300\226\015\262\374b\256F\330\005\317\210fk{"
 262      960DB2FC 
 262      62AE46D8 
 262      05CF8866 
 262      6B7B
 263 07cb A7195D81 		.ascii	"\247\031]\201\202"
 263      82
 264 07d0 5D750396 		.ascii	"]u\003\226\245{\337L\300\274\354\341\266h}\317\337\260"
 264      A57BDF4C 
 264      C0BCECE1 
 264      B6687DCF 
 264      DFB0
 265 07e2 FD9B7F1F 		.ascii	"\375\233\177\037)W\007\275\262a\222\011H\371\334\003"
 265      295707BD 
 265      B2619209 
 265      48F9DC03 
 266 07f2 5BDE96E5 		.ascii	"[\336\226\345\365\317zY\363=>\345}j1\035\310\313\204"
 266      F5CF7A59 
 266      F33D3EE5 
 266      7D6A311D 
 266      C8CB84
 267 0805 A09597F3 		.ascii	"\240\225\227\363V^\\\256\240r\314T+Cv\301\323n7\302"
 267      565E5CAE 
 267      A072CC54 
 267      2B4376C1 
 267      D36E37C2 
 268 0819 EE32FA12 		.ascii	"\3562\372\022\317~\201\301\377K\034\027\235\303\364"
 268      CF7E81C1 
 268      FF4B1C17 
 268      9DC3F4
 269 0828 AF987E83 		.ascii	"\257\230~\203\351es\2470?h\211\035f?U\263#]\023\222"
 269      E96573A7 
 269      303F6889 
 269      1D663F55 
 269      B3235D13 
 270 083d 3ED50053 		.ascii	">\325\000S\031\334\201X\313\222f\337\300t\035\246\357"
 270      19DC8158 
 270      CB9266DF 
 270      C0741DA6 
ARM GAS  /tmp/ccmL2APA.s 			page 21


 270      EF
 271 084e 627A0CD3 		.ascii	"bz\014\323\023\230\266az\006\323K\230\336\302\264\032"
 271      1398B661 
 271      7A06D34B 
 271      98DEC2B4 
 271      1A
 272 085f 499E8CE9 		.ascii	"I\236\214\351.L\017`z\020\323C\230\036\301\364\030\246"
 272      2E4C0F60 
 272      7A10D343 
 272      981EC1F4 
 272      18A6
 273 0871 27306D73 		.ascii	"'0ms3\030t9\243\177\205\275_\315\375\301\247\311l\231"
 273      33187439 
 273      A37F85BD 
 273      5FCDFDC1 
 273      A7C96C99 
 274 0885 C50E18E6 		.ascii	"\305\016\030\346\307\314Jbex\374d\216\342\327\026\020"
 274      C7CC4A62 
 274      6578FC64 
 274      8EE2D716 
 274      10
 275 0896 787639FB 		.ascii	"xv9\373\220\0034~\276\316\231\316\261\320S,J\347n\262"
 275      9003347E 
 275      BECE99CE 
 275      B1D0532C 
 275      4AE76EB2 
 276 08aa 175EA374 		.ascii	"\027^\243twoWB\214\351\020\013\355A\234\210\355\342"
 276      776F5742 
 276      8CE9100B 
 276      ED419C88 
 276      EDE2
 277 08bc 32897DC3 		.ascii	"2\211}\303\201Xy\303kr\220\302\221\0127\271\254\204"
 277      815879C3 
 277      6B7290C2 
 277      910A37B9 
 277      AC84
 278 08ce DEB223B4 		.ascii	"\336\262#\264\275{\355\007\375\337 \261K\276\323\375"
 278      BD7BED07 
 278      FDDF20B1 
 278      4BBED3FD 
 279 08de 42750D6B 		.ascii	"Bu\015k!\225\364\354N\244v\253\244\372\360\270\222\256"
 279      2195F4EC 
 279      4EA476AB 
 279      A4FAF0B8 
 279      92AE
 280 08f0 0F8D6E24 		.ascii	"\017\215n$\375\274\205\364\0372\215\262<K^/\214\324"
 280      FDBC85F4 
 280      1F328DB2 
 280      3C4B5E2F 
 280      8CD4
 281 0902 262F1D58 		.ascii	"&/\035X\342\216\003\355\372:\016r,\313\307\277\374\355"
 281      E28E03ED 
 281      FA3A0E72 
 281      2CCBC7BF 
 281      FCED
 282 0914 484A1593 		.ascii	"HJ\025\223\245\226J`\265\317\216\343\317\327\035\255"
 282      A5964A60 
ARM GAS  /tmp/ccmL2APA.s 			page 22


 282      B5CF8EE3 
 282      CFD71DAD 
 283 0924 6567C2F8 		.ascii	"eg\302\370S\276\010\221\251\217\205a\207\323\002\004"
 283      53BE0891 
 283      A98F8561 
 283      87D30204 
 284 0934 6EB2CFC2 		.ascii	"n\262\317\302\357\320\014v\227\344\333\262\013\362\015"
 284      EFD00C76 
 284      97E4DBB2 
 284      0BF20D
 285 0943 AA1DFD0A 		.ascii	"\252\035\375\012,1\311\347\304\356P#\267\362k\262\017"
 285      2C31C9E7 
 285      C4EE5023 
 285      B7F26BB2 
 285      0F
 286 0954 4962D43A 		.ascii	"Ib\324:\206\213g\353\354\330S\3466O\327,o\230\325\360"
 286      868B67EB 
 286      ECD853E6 
 286      364FD72C 
 286      6F98D5F0 
 287 0968 B23037CD 		.ascii	"\26207\315\227iw\253\362m\355\316B\327T+]\3233\351j"
 287      976977AB 
 287      F26DEDCE 
 287      42D7542B 
 287      5DD333E9 
 288 097d AF07433B 		.ascii	"\257\007C;5\037\304\336@\305n\245,\233\235\315\264\312"
 288      351FC4DE 
 288      40C56EA5 
 288      2C9B9DCD 
 288      B4CA
 289 098f 9D9884FE 		.ascii	"\235\230\204\376\203\332\202U\021\0333H\247\205\346"
 289      83DA8255 
 289      111B3348 
 289      A785E6
 290 099e D8D2D6B5 		.ascii	"\330\322\326\265\361\350\367\026l\220'\242\023\230]"
 290      F1E8F716 
 290      6C9027A2 
 290      13985D
 291 09ad 208FA9C5 		.ascii	" \217\251\305=\204Ir5\373\234\036c\034\366tyv\276/\017"
 291      3D844972 
 291      35FB9C1E 
 291      631CF674 
 291      7976BE2F 
 292 09c2 5A3F95EF 		.ascii	"Z?\225\357\270#K\012\220\213\324\247y-\227eWn\236U\002"
 292      B8234B0A 
 292      908BD4A7 
 292      792D9765 
 292      576E9E55 
 293 09d7 39412D6F 		.ascii	"9A-oY5=\235%\264,\366\025\230H1\011\354\254\203\300"
 293      59353D9D 
 293      25B42CF6 
 293      15984831 
 293      09ECAC83 
 294 09ec 96D8094C 		.ascii	"\226\330\011L\271\330<Uf\353\253\333\273\273\037rob"
 294      B9D83C55 
 294      66EBABDB 
 294      BBBB1F72 
ARM GAS  /tmp/ccmL2APA.s 			page 23


 294      6F62
 295 09fe CBAC5C9C 		.ascii	"\313\254\\\234\306M\024\023\031\267\035\310Xn\253\267"
 295      C64D1413 
 295      19B71DC8 
 295      586EABB7 
 296 0a0e 3B6B2F05 		.ascii	";k/\005\026\312\037\222\263\202/x\260\365\306^\030\324"
 296      16CA1F92 
 296      B3822F78 
 296      B0F5C65E 
 296      18D4
 297 0a20 B4027BC2 		.ascii	"\264\002{\302V\331\312\247\353\306N\266n\226|\253\273"
 297      56D9CAA7 
 297      EBC64EB6 
 297      6E967CAB 
 297      BB
 298 0a31 DBA77640 		.ascii	"\333\247v@\034\363\262\003\302k\266\254\255\\u\216u"
 298      1CF3B203 
 298      C26BB6AC 
 298      AD5C758E 
 298      75
 299 0a42 628D90EB 		.ascii	"b\215\220\353\304\333\032\233 \245\346=\034\230{\357"
 299      C4DB1A9B 
 299      20A5E63D 
 299      1C987BEF 
 300 0a52 D42FD6C9 		.ascii	"\324/\326\311r\037\350\363}d\324t\330B:\032\240\211"
 300      721FE8F3 
 300      7D64D474 
 300      D8423A1A 
 300      A089
 301 0a64 891CF3A0 		.ascii	"\211\034\363\240)'\230\316\244\217\300\3514\321\036"
 301      292798CE 
 301      A48FC0E9 
 301      34D11E
 302 0a73 CBC18449 		.ascii	"\313\301\204I\230\315B\333\244E\337%3\214\015><\254"
 302      98CD42DB 
 302      A445DF25 
 302      338C0D3E 
 302      3CAC
 303 0a85 6521CC25 		.ascii	"e!\314%\024.F\371\012l\324\341\364\315(\316L\343\370"
 303      142E46F9 
 303      0A6CD4E1 
 303      F4CD28CE 
 303      4CE3F8
 304 0a98 CA41B59B 		.ascii	"\312A\265\233\314\252\375Gf9Qmg\313\236~\257\327\310"
 304      CCAAFD47 
 304      6639516D 
 304      67CB9E7E 
 304      AFD7C8
 305 0aab 13D7834A 		.ascii	"\023\327\203J\273\331\356\241\266S\255\377\321\350="
 305      BBD9EEA1 
 305      B653ADFF 
 305      D1E83D
 306 0aba 52C01816 		.ascii	"R\300\030\026\350g\374\002\007\263[|d\316v\335\322\254"
 306      E867FC02 
 306      07B35B7C 
 306      64CE76DD 
 306      D2AC
ARM GAS  /tmp/ccmL2APA.s 			page 24


 307 0acc 0B208E99 		.ascii	"\013 \216\231XH*m\365e\236\\\325V4\311\267\236W4\227"
 307      58482A6D 
 307      F5659E5C 
 307      D55634C9 
 307      B79E5734 
 308 0ae1 B4D1A504 		.ascii	"\264\321\245\004\233\265\302v}\374\331\337@\373\373"
 308      9BB5C276 
 308      7DFCD9DF 
 308      40FBFB
 309 0af0 D39E44DA 		.ascii	"\323\236D\332\025\244}z\241=\355\2160\034\263\010\253"
 309      15A47D7A 
 309      A13DED8E 
 309      301CB308 
 309      AB
 310 0b01 7C9449F9 		.ascii	"|\224I\371\301\311*\345\037\271\242\274\365\230y\021"
 310      C1C92AE5 
 310      1FB9A2BC 
 310      F5987911 
 311 0b11 64B58E9B 		.ascii	"d\265\216\233e\034O/\333\371\325\301c8Y\243\353\002"
 311      651C4F2F 
 311      DBF9D5C1 
 311      633859A3 
 311      EB02
 312 0b23 EBAD609E 		.ascii	"\353\255`\236&k\262r\204\202\275\207G\2257{\006\013"
 312      266BB272 
 312      8482BD87 
 312      4795377B 
 312      060B
 313 0b35 99283BF9 		.ascii	"\231(;\371\262\371t\36167xY\316O]<f8?\325\354\031\314"
 313      B2F974F1 
 313      36377859 
 313      CE4F5D3C 
 313      66383FD5 
 314 0b4c 4CDC3523 		.ascii	"L\3345#\330\247n\300\354N\031\331]F#\341\331\035>2\205"
 314      D8A76EC0 
 314      EC4E19D9 
 314      5D4623E1 
 314      D91D3E32 
 315 0b61 69F69169 		.ascii	"i\366\221i\305NL?\301t\017\246\237b\272\337g\232Q\035"
 315      C54E4C3F 
 315      C1740FA6 
 315      9F62BADF 
 315      679A511D 
 316 0b75 D17DC4D6 		.ascii	"\321}\304\326\024{2\011Yirv\016\273\205\364\366\326"
 316      147B3209 
 316      59697276 
 316      0EBB85F4 
 316      F6D6
 317 0b87 2DD39F41 		.ascii	"-\323\237A\3478\210\316\321\326\263sX7*\256`\225\303"
 317      E73888CE 
 317      D1D6B373 
 317      58372AAE 
 317      6095C3
 318 0b9a 19CED172 		.ascii	"\031\316\321r{\222\352\034\207]8G\215rc\376\022w\207"
 318      7B92EA1C 
 318      875D3847 
 318      8D7263FE 
ARM GAS  /tmp/ccmL2APA.s 			page 25


 318      127787
 319 0bad 78F5F6BF 		.ascii	"x\365\366\277k`c\345t\272\201x\002\331\230rO\217l\230"
 319      6B6063E5 
 319      74BA8178 
 319      02D99872 
 319      4F8F6C98 
 320 0bc1 61C0C7B1 		.ascii	"a\300\307\261\312\311L6\276\321\3308\351\212\215-\363"
 320      CAC94C36 
 320      BED1D838 
 320      E98A8D2D 
 320      F3
 321 0bd2 35CB3F8E 		.ascii	"5\313?\216\035\305\353:n\257\226x\224w\017\243\261R"
 321      1DC5EB3A 
 321      6EAF9678 
 321      94770FA3 
 321      B152
 322 0be4 B0B73D83 		.ascii	"\260\267=\203\231-\377\375\303^\327\275Z\337h\345P\260"
 322      992DFFFD 
 322      C35ED7BD 
 322      5ADF68E5 
 322      50B0
 323 0bf6 67B13FDE 		.ascii	"g\261?\336z\217\265?\356\325\212L\263\033>\234\027\226"
 323      7A8FB53F 
 323      EED58A4C 
 323      B31B3E9C 
 323      1796
 324 0c08 402B17E6 		.ascii	"@+\027\346\332l\253\365\330\205\267^\232\366\023\344"
 324      DA6CABF5 
 324      D885B75E 
 324      9AF613E4 
 325 0c18 E66B14E7 		.ascii	"\346k\024\347\276\014n\232|\226\275{K\207\014\036\352"
 325      BE0C6E9A 
 325      7C96BD7B 
 325      4B870C1E 
 325      EA
 326 0c29 99F49085 		.ascii	"\231\364\220\205\364++\265\363\0218/kw\003\350~1\347"
 326      F42B2BB5 
 326      F311382F 
 326      6B7703E8 
 326      7E31E7
 327 0c3c A421009D 		.ascii	"\244!\000\235\302\000t\032\003\315\227\230~\205\351"
 327      C200741A 
 327      03CD9798 
 327      7E85E9
 328 0c4b 5F31BD68 		.ascii	"_1\275h\014=N\203\225\343i\201\360\354\027>Nu\365\336"
 328      0C3D4E83 
 328      95E36981 
 328      F0EC173E 
 328      4E75F5DE 
 329 0c5f D9F2ADB4 		.ascii	"\331\362\255\264-\363\354\031\317`f[\236yL[\027'\246"
 329      2DF3EC19 
 329      CF60665B 
 329      9E794C5B 
 329      1727A6
 330 0c72 C9B3E7DD 		.ascii	"\311\263\347\335\340eY\254|\213\366\012\324\316\317"
 330      E06559AC 
 330      7C8BF60A 
ARM GAS  /tmp/ccmL2APA.s 			page 26


 330      D4CECF
 331 0c81 DEC37A04 		.ascii	"\336\303z\004\013eS\312a\203R\216\242R\216\241\012."
 331      0B6553CA 
 331      6183528E 
 331      A2528EA1 
 331      0A2E
 332 0c93 63DA81E9 		.ascii	"c\332\201\351\025sO\320q\217\245'0\307]\273\216\311"
 332      15734FD0 
 332      718FA527 
 332      30C75DBB 
 332      8EC9
 333 0ca5 281F59D9 		.ascii	"(\037Y\331\372\277\365\274]\334\373\245Vw\216\361\000"
 333      FABFF5BC 
 333      5DDCFBA5 
 333      56778EF1 
 333      00
 334 0cb6 C637D3E9 		.ascii	"\3067\323\351F\327u\214\2377]\304O3\016\307\274XD\352"
 334      46D7758C 
 334      9F375DC4 
 334      4F330EC7 
 334      BC5844EA 
 335 0cca 74650E92 		.ascii	"te\016\222\316h\203\244\256\236\003\350\304\011J\323"
 335      CE6883A4 
 335      AE9E03E8 
 335      C4094AD3 
 336 0cda A255E97E 		.ascii	"\242U\351~`\202\356\331\355Y\346\227\246c\303\013u:"
 336      6082EED9 
 336      ED59E697 
 336      A663C30B 
 336      753A
 337 0cec 7A63A4B2 		.ascii	"zc\244\262\262\375\270fW\364\344B\243g<\263\036\016"
 337      B2FDB866 
 337      57F4E442 
 337      A3673CB3 
 337      1E0E
 338 0cfe 1D47BBA2 		.ascii	"\035G\273\242`k\335\200e\031\244]\376o[\245*\372\300"
 338      606BDD80 
 338      6519A45D 
 338      FE6F5BA5 
 338      2AFAC0
 339 0d11 B1CEA0D4 		.ascii	"\261\316\240\324\243\035\247\036\244\313\351\223\375"
 339      A31DA71E 
 339      A4CBE993 
 339      FD
 340 0d1e 44ABA78A 		.ascii	"D\253\247\212z\324\252\005\210\010\367E\277e\247eY\013"
 340      7AD4AA05 
 340      8808F745 
 340      BF65A765 
 340      590B
 341 0d30 EEB490F7 		.ascii	"\356\264\220\367=w\207\233Z4i\346\020\376;\220\004R"
 341      3D77879B 
 341      5A3469E6 
 341      10FE3B90 
 341      0452
 342 0d42 B5771164 		.ascii	"\265w\021d{\255\273A\202\355\241\201\271-\344\320\300"
 342      7BADBB41 
 342      82EDA181 
ARM GAS  /tmp/ccmL2APA.s 			page 27


 342      B92DE4D0 
 342      C0
 343 0d53 0C944557 		.ascii	"\014\224EW\317\2620c\020VgYE\321J7\235f\271\022\305"
 343      CFB23063 
 343      10566759 
 343      45D14A37 
 343      9D66B912 
 344 0d68 F16663C0 		.ascii	"\361fc\300\342\230\227\212Y\025\263w\262\350\230l\036"
 344      E298978A 
 344      5915B377 
 344      B2E8986C 
 344      1E
 345 0d79 63CFF28C 		.ascii	"c\317\362\214\0272\341\335\244[?\330)-p\203\225%\230"
 345      1732E1DD 
 345      A45B3FD8 
 345      292D7083 
 345      952598
 346 0d8c CE6E59FC 		.ascii	"\316nY\374\017r\273\302j\247\240_\261\342\331\235Iu"
 346      0F72BBC2 
 346      6AA7A05F 
 346      B1E2D99D 
 346      4975
 347 0d9e 1F4FD38A 		.ascii	"\037O\323\212\340\331\331~\022O\347\370I\014\235\207"
 347      E0D9D97E 
 347      124FE7F8 
 347      490C9D87 
 348 0dae E9024C5F 		.ascii	"\351\002L_\366\273\350\336\246\373\015\221cm\261W\343"
 348      F6BBE8DE 
 348      A6FB0D91 
 348      636DB157 
 348      E3
 349 0dbf 340A103C 		.ascii	"4\012\020<}D=\337\227\251W\355\210Z\232fK\272_\311\232"
 349      7D443DDF 
 349      97A957ED 
 349      885A9A66 
 349      4BBA5FC9 
 350 0dd4 5F2DF5F7 		.ascii	"_-\365\367\305\234\351P\025\026q\"v\231?\375\237\212"
 350      C59CE950 
 350      15167122 
 350      76993FFD 
 350      9F8A
 351 0de6 C2603A33 		.ascii	"\302`:3T\347`\203\225\003K\273Y\024g/\350\027\015\202"
 351      54E76083 
 351      95034BBB 
 351      5914672F 
 351      E8170D82 
 352 0dfa 7E09053D 		.ascii	"~\011\005=\005\205;\015\323%~S\227\265\265\330\022\334"
 352      05853B0D 
 352      D3257E53 
 352      97B5B5D8 
 352      12DC
 353 0e0c 2CD1C4B3 		.ascii	",\321\304\263\232\273\014\335\346m\3546\357`WY\215\255"
 353      9ABB0CDD 
 353      E66DEC36 
 353      EF605759 
 353      8DAD
 354 0e1e 4FC07492 		.ascii	"O\300t\222\231\206]\305\226n\323\322O\251y\347\223\005"
ARM GAS  /tmp/ccmL2APA.s 			page 28


 354      99865DC5 
 354      966ED3D2 
 354      4FA979E7 
 354      9305
 355 0e30 EDD76AFF 		.ascii	"\355\327j\377\022\250\226\225\005\003\265\277\355\356"
 355      12A89695 
 355      0503B5BF 
 355      EDEE
 356 0e3e B5429AFF 		.ascii	"\265B\232\377\221\253f\225,Q\273\255\255P\017\333=\236"
 356      91AB6695 
 356      2C51BBAD 
 356      AD500FDB 
 356      3D9E
 357 0e50 3959D478 		.ascii	"9Y\324x\356\011\354\212Wa\240:R\354\361\314\011\021"
 357      EE09EC8A 
 357      5761A03A 
 357      52ECF1CC 
 357      0911
 358 0e62 DC6A6BA0 		.ascii	"\334jk\240\272$\204\350[\027\363\2603\352\021/\272\007"
 358      BA2484E8 
 358      5B17F3B0 
 358      33EA112F 
 358      BA07
 359 0e74 7C0EDB5F 		.ascii	"|\016\333_\355=J\331\253t\265\301\240\326\240A\2555"
 359      ED3D4AD9 
 359      AB74B5C1 
 359      A0D6A041 
 359      AD35
 360 0e86 2BF0A255 		.ascii	"+\360\242U\332v\3555\244\035\301*l\362\337\017\252?"
 360      DA76ED35 
 360      A41DC12A 
 360      6CF2DF0F 
 360      AA3F
 361 0e98 DB45299F 		.ascii	"\333E)\237\0061$-\361\303\3357\250\304\327\241\304\033"
 361      0631242D 
 361      F1C3DD37 
 361      A8C4D7A1 
 361      C41B
 362 0eaa FAB858DC 		.ascii	"\372\270X\3342\341\020\3066\330\212|\203+\221wh\"\247"
 362      32E110C6 
 362      36D88A7C 
 362      832B9177 
 362      6822A7
 363 0ebd DBDEEB90 		.ascii	"\333\336\353\220\200\015\275\356\030\256\010drA\261"
 363      800DBDEE 
 363      18AE0864 
 363      7241B1
 364 0ecc 9A3C6385 		.ascii	"\232<c\205\214\322T\256\345\324M\310\325\216jl\263\202"
 364      8CD254AE 
 364      E5D44DC8 
 364      D58E6A6C 
 364      B382
 365 0ede D9EEF766 		.ascii	"\331\356\367fq\204\233F\264]\256\320B\256Mk\203\301"
 365      71849B46 
 365      B45DAED0 
 365      42AE4D6B 
 365      83C1
ARM GAS  /tmp/ccmL2APA.s 			page 29


 366 0ef0 B436A269 		.ascii	"\2646\242i\275\215\021\342\035L7c\372\256\331\330\016"
 366      BD8D11E2 
 366      1D4C3763 
 366      FAAED9D8 
 366      0E
 367 0f01 F6B1189B 		.ascii	"\366\261\030\233Y\257j\366\265,\326\326\331r\346\011"
 367      59AF6AF6 
 367      B52CD6D6 
 367      D972E609 
 368 0f11 B4362DF0 		.ascii	"\2646-\360\203\225\320\177\214i\210\305\032\314uV%t"
 368      8395D07F 
 368      8C6988C5 
 368      1ACC7556 
 368      2574
 369 0f23 9BE7C8BF 		.ascii	"\233\347\310\277\335!\362?\250sr*\203\023s\273j\276"
 369      DD21F23F 
 369      A873722A 
 369      831373BB 
 369      6ABE
 370 0f35 DD8E157B 		.ascii	"\335\216\025{qn5\004\337m\030|\267c\360m\305\264\023"
 370      716E3504 
 370      DF6D187C 
 370      B763F06D 
 370      C5B413
 371 0f48 D34614EA 		.ascii	"\323F\024\352JL\337\304\364}\2137\353\276\244\221e^"
 371      4A4CDFC4 
 371      F47D8B37 
 371      EBBEA491 
 371      655E
 372 0f5a 15260D7D 		.ascii	"\025&\015}\340\327\327\252\311:\365[dWl\327\243\233"
 372      E0D7D7AA 
 372      C93AF55B 
 372      64576CD7 
 372      A39B
 373 0f6c 6BC8AE98 		.ascii	"k\310\256\230|\275\233\355\366\245;U}\334\247d\373\207"
 373      7CBD9BED 
 373      F6A53B55 
 373      7DDCA764 
 373      FB87
 374 0f7e B5BE459A 		.ascii	"\265\276E\232\341v\306\356\331\360\357j\236\335\241"
 374      E176C6EE 
 374      D9F0EF6A 
 374      9EDDA1
 375 0f8d EA24F382 		.ascii	"\352$\363\202A\253% \220\362\315f\242\033\352\225eS"
 375      41AB2520 
 375      90F2CD66 
 375      A21BEA95 
 375      6553
 376 0f9f E6       		.ascii	"\346"
 377 0fa0 B2F2F21A 		.ascii	"\262\362\362\032Y\276\323\335\315\032\3331l\232\230"
 377      59BED3DD 
 377      CD1ADB31 
 377      6C9A98
 378 0faf 179D08CE 		.ascii	"\027\235\010\316N\317\266\260\313\301\026\374:\275\327"
 378      4ECFB6B0 
 378      CBC116FC 
 378      3ABDD7
ARM GAS  /tmp/ccmL2APA.s 			page 30


 379 0fbe AC42CF6C 		.ascii	"\254B\317l\366\023\213\314\225\366\317\327]\352\277"
 379      F6138BCC 
 379      95F6CFD7 
 379      5DEABF
 380 0fcd B7866CC7 		.ascii	"\267\206l\307\233dN\316\334\233\204\256\365?0\257\310"
 380      9B644ECE 
 380      DC9B84AE 
 380      F53F30AF 
 380      C8
 381 0fde B2287807 		.ascii	"\262(x\007H\350qH\315\263\373\374d\316\276\337\022:"
 381      48E87148 
 381      CDB3FBFC 
 381      64CEBEDF 
 381      123A
 382 0ff0 C9AEA8B6 		.ascii	"\311\256\250\266%\260\337]\237u{'\015\240'q"
 382      25B0DF5D 
 382      9F757B27 
 382      0DA02771 
 383 1000 245CDB97 		.ascii	"$\\\333\227Ua{\027@\273\316!\234emiZ\226=\235\277\030"
 383      55617B17 
 383      40BBCE21 
 383      9C656D69 
 383      5A963D9D 
 384 1016 C791533D 		.ascii	"\307\221S=7\03725\177\013\3437\201\204A\275\033\254"
 384      371F3235 
 384      7F0BE337 
 384      818441BD 
 384      1BAC
 385 1028 2C03F13B 		.ascii	",\003\361;\006\254E\236\261B\026qkz\340\331\003\350"
 385      06AC459E 
 385      B1421671 
 385      6B7AE0D9 
 385      03E8
 386 103a ED07313D 		.ascii	"\355\0071=\214\351\321\236\307\333\026\201~\352@\011"
 386      8CE9D19E 
 386      C7DB1681 
 386      7EEA4009 
 387 104a AE3BF90B 		.ascii	"\256;\371\013,m\253%\207\231\0115\230)\255d_\214gOx"
 387      2C6DAB25 
 387      87990935 
 387      9829AD64 
 387      5F8C674F 
 388 105f 76B4CF1D 		.ascii	"v\264\317\035\034\315\270\303\236.EV\012\372Z\374.\203"
 388      1CCDB8C3 
 388      9E2E4556 
 388      0AFA5AFC 
 388      2E83
 389 1071 8836D5ED 		.ascii	"\2106\325\355\0063\033\345:\005\306\007{\200*]o\317"
 389      06331BE5 
 389      3A05C607 
 389      7B802A5D 
 389      6FCF
 390 1083 3337E505 		.ascii	"37\345\0052x\342\007\337\367Qf\210o^\334\257\\\235\274"
 390      3278E207 
 390      DFF75166 
 390      886F5EDC 
 390      AF5C9DBC 
ARM GAS  /tmp/ccmL2APA.s 			page 31


 391 1097 84951BD4 		.ascii	"\204\225\033\324\320B\345\3061oZ[\313\234\257\23665"
 391      D042E5C6 
 391      316F5A5B 
 391      CB9CAF9E 
 391      3635
 392 10a9 378CD6A4 		.ascii	"7\214\326\244\272\243m)\235\315\346\251\264\026\267"
 392      BAA36D29 
 392      9DCDE6A9 
 392      B416B7
 393 10b8 169877F4 		.ascii	"\026\230w\364\307i\310\305*\362W\236\245y\326A\232E"
 393      C769C8C5 
 393      2AF2579E 
 393      A579D641 
 393      9A45
 394 10ca 592D0646 		.ascii	"Y-\006F\241iCx\220\331\324w\211\274`X\272yj\201\244"
 394      A1694378 
 394      90D9D477 
 394      89BC6058 
 394      BA796A81 
 395 10df 0675406A 		.ascii	"\006u@j\213\306\337GU^\353d\345V.}m>8\242\266Ke\247"
 395      8BC6DF47 
 395      555EEB64 
 395      E5562E7D 
 395      6D3E38A2 
 396 10f7 599DC550 		.ascii	"Y\235\305P\2678\214F\361\024_\232\276\020\263\214D\257"
 396      B7388C46 
 396      F1145F9A 
 396      BE10B38C 
 396      44AF
 397 1109 95EF066B 		.ascii	"\225\357\006k\374\372!\025r\210K\277,\270d{\336\011"
 397      FCFA2115 
 397      72884BBF 
 397      2CB8647B 
 397      DE09
 398 111b F76B2BAE 		.ascii	"\367k+\256rk\212\314q:.9s\305XZ\276\263\366h\177yb\236"
 398      726B8ACC 
 398      713A2E39 
 398      73C5585A 
 398      BEB3F668 
 399 1133 5EE60EE7 		.ascii	"^\346\016\347\334\366\314,\321\354B\272mK\255\217\322"
 399      DCF6CC2C 
 399      D1EC42BA 
 399      6D4BAD8F 
 399      D2
 400 1144 F69A51EB 		.ascii	"\366\232Q\353\242c-r\264\314\251\326%\307Zk\262Px\331"
 400      A2632D72 
 400      B4CCA9D6 
 400      25C75A6B 
 400      B25078D9 
 401 1158 B1D6CE2C 		.ascii	"\261\326\316,\024v8\326\352\316B\341\025\307Z\215Y("
 401      147638D6 
 401      EACE42E1 
 401      15C75A8D 
 401      5928
 402 116a BCEA586B 		.ascii	"\274\352XkY\226Z\327\034k\315\313R\253\323\241\226\036"
 402      59965AD7 
 402      1C6BCDCB 
ARM GAS  /tmp/ccmL2APA.s 			page 32


 402      52ABD3A1 
 402      961E
 403 117c 1C17F470 		.ascii	"\034\027\364p@\347\206gw\276\351\340\316\332\341\004"
 403      40E78667 
 403      77BEE9E0 
 403      CEDAE104 
 404 118c A77AD733 		.ascii	"\247z\3273\334\345\304\272\017\276g4Z\363\251\256\001"
 404      DCE5C4BA 
 404      0FBE6734 
 404      5AF3A9AE 
 404      01
 405 119d B1E8A892 		.ascii	"\261\350\250\222\341\345\321Q\321\377|:<\350\361\001"
 405      E1E5D151 
 405      D1FF7C3A 
 405      3CE8F101 
 406 11ad 83060C2E 		.ascii	"\203\006\014.)\251H\225\210RI4\021\211U\226\012%\221"
 406      29A94895 
 406      88524934 
 406      11895596 
 406      0A2591
 407 11c0 72A95C14 		.ascii	"r\251\\\024\370\322\324\200r\246\304M\361\324\370\224"
 407      F8D2D480 
 407      72A6C44D 
 407      F1D4F894 
 408 11d0 343E2990 		.ascii	"4>)\220\362y\264jX\312\035\361\037\177\010\015g\202"
 408      F279B46A 
 408      58CA1DF1 
 408      1F7F080D 
 408      6782
 409 11e2 91F2307D 		.ascii	"\221\3620}\365SWH\221\362R@\311M\206\023\3028\011\036"
 409      F5535748 
 409      91F25240 
 409      C94D8613 
 409      C238091E 
 410 11f6 4951183B 		.ascii	"IQ\030;\324\271f\262B\224R%\277\374\335S\303\237\032"
 410      D4B966B2 
 410      42945225 
 410      BFFCDD53 
 410      C39F1A
 411 1209 5712A988 		.ascii	"W\022\251\210'\2431AL\225\214\030>\234p\241\322\024"
 411      27A33141 
 411      4C958C18 
 411      3E9C70A1 
 411      D214
 412 121b 909262B4 		.ascii	"\220\222b\264\",}\277\2442%\352\215%\204*\202\233\222"
 412      222C7DBF 
 412      A43225EA 
 412      8D25842A 
 412      829B92
 413 122e 4AA30989 		.ascii	"J\243\011\211P^\011\317\237=\026\226\036\265+\026\347"
 413      505E09CF 
 413      9F3D1696 
 413      1EB52B16 
 413      E7
 414 123f 23E5D184 		.ascii	"#\345\321\204P\022.\025F\363\2251)\254\201\347\207\303"
 414      50122E15 
 414      46F39531 
ARM GAS  /tmp/ccmL2APA.s 			page 33


 414      29AC81E7 
 414      87C3
 415 1251 5A452437 		.ascii	"ZE$7Z\021\210T$$\240~\240[\262\313#\025\242\000P\005"
 415      5A118854 
 415      2424A07E 
 415      A05BB2CB 
 415      2315A200 
 416 1267 E47518C0 		.ascii	"\344u\030\300\"\322\270\301\236*\207\307>\021',\210"
 416      22D2B8C1 
 416      9E2A87C7 
 416      3E11272C 
 416      88
 417 1278 42192FC6 		.ascii	"B\031/\306\303\022'\016\346\304\177\341\304\3079\361"
 417      C312270E 
 417      E6C47FE1 
 417      C4C739F1 
 418 1288 094E1CC2 		.ascii	"\011N\034\302\211?\367\211\203\006\302=\210\213\211"
 418      893FF789 
 418      8306C23D 
 418      888B89
 419 1297 F0F8594E 		.ascii	"\360\370YN2\014\215\004\210\230\253\004\021\236\025"
 419      320C8D04 
 419      8898AB04 
 419      119E15
 420 12a6 B15241F4 		.ascii	"\261RA\364G\312y\221\310\236\217\013\371)i\014\037\213"
 420      47CA7991 
 420      C89E8F0B 
 420      F929690C 
 420      1F8B
 421 12b8 9625C212 		.ascii	"\226%\302\022J\346\361\301aI\345\025\263\3110\024\210"
 421      4AE6F1C1 
 421      6149E515 
 421      B3C93014 
 421      88
 422 12c9 45E35129 		.ascii	"E\343Q)OJI\274$\204\245\000\3718$,\005i1\310\005H)\370"
 422      4F4A49BC 
 422      2484A500 
 422      F938242C 
 422      056931C8 
 423 12e1 1690E215 		.ascii	"\026\220\342\025\245\002\376\036\035\343\313R\001I\024"
 423      A502FE1E 
 423      1DE3CB52 
 423      014914
 424 12f0 46A75062 		.ascii	"F\247Pb$\223\023O\225\301GU\214P]\023\250X:\036>\345"
 424      2493134F 
 424      95C14755 
 424      8C505D13 
 424      A8583A1E 
 425 1306 09E3A252 		.ascii	"\011\343\242R\004\000r\253\244\212Q\177L\336\253\332"
 425      040072AB 
 425      A48A517F 
 425      4CDEABDA 
 426 1316 18541544 		.ascii	"\030T\025D!\021\001\340\234*I\022\223\205`l)!\316'\313"
 426      211101E0 
 426      9C2A4912 
 426      9385606C 
 426      2921CE27 
ARM GAS  /tmp/ccmL2APA.s 			page 34


 427 132b 41260FBB 		.ascii	"A&\017\273\2627\201\310\255X\265\367\360s\225B%\240"
 427      B23781C8 
 427      AD58B5F7 
 427      F0739542 
 427      25A0
 428 133d F5D18D56 		.ascii	"\365\321\215V}\025P\2379\221\004h>'\025\206'\020\003"
 428      7D15509F 
 428      39910468 
 428      3E271586 
 428      271003
 429 1350 B5937950 		.ascii	"\265\223yP6^\011\372v\325^\\\032G\0142\256\302\306\303"
 429      365E09FA 
 429      76D55E5C 
 429      1A470C32 
 429      AEC2C6C3 
 430 1364 15550990 		.ascii	"\025U\011\220?\002\000\277qj\366U\022\224K\026\010c"
 430      3F0200BF 
 430      716AF655 
 430      12944B16 
 430      0863
 431 1376 858414E7 		.ascii	"\205\204\024\347Sc\340\213PE2\276d\270\262H\243,\026"
 431      5363E08B 
 431      504532BE 
 431      64B8B248 
 431      A32C16
 432 1389 4D0131C5 		.ascii	"M\0011\305\006Z\311\233`2\\\305G\245h\242\014T\004\302"
 432      065AC99B 
 432      60325CC5 
 432      47A568A2 
 432      0C5404C2 
 433 139d A3746316 		.ascii	"\243tc\026^\010I!\001\366^\006\245\240\011R>\237\250"
 433      5E084921 
 433      01F65E06 
 433      A5A00952 
 433      3E9FA8
 434 13b0 808FA1E1 		.ascii	"\200\217\241\341\302\313dEE\354\237]\205\010\"\270{"
 434      C2CB6445 
 434      45EC9F5D 
 434      850822B8 
 434      7B
 435 13c1 A5685C08 		.ascii	"\245h\\\010\307\005>U)\012q\201\010' J($\377(!\005j"
 435      C7053E55 
 435      290A7181 
 435      0827204A 
 435      2824FF28 
 436 13d8 A9105392 		.ascii	"\251\020S\222?\306\247\244\334J|\315&\362D\011kI\371"
 436      3FC6A7A4 
 436      DC4A7CCD 
 436      26F24409 
 436      6B49F9
 437 13eb 91CA7865 		.ascii	"\221\312xe\214\227\242c\005\325NR\367D\312\177_^:B\220"
 437      8C97A263 
 437      05D54E52 
 437      F744CA7F 
 437      5F5E3A42 
 438 1400 9E1662A3 		.ascii	"\236\026b\243\237\351\253\375\372-\020'F\245\361\317"
 438      9FE9ABFD 
ARM GAS  /tmp/ccmL2APA.s 			page 35


 438      FA2D1027 
 438      46A5F1CF 
 439 1410 B89371AA 		.ascii	"\270\223q\252\214\370B\244\374\251T\031T\346\244\344"
 439      8CF842A4 
 439      FCA95419 
 439      54E6A4E4 
 440 1420 8FEDAA49 		.ascii	"\217\355\252I@\037\251H\236\244J\204\311\245rd\223\205"
 440      401FA948 
 440      9EA44A84 
 440      C9A57264 
 440      9385
 441 1432 F07B5058 		.ascii	"\360{PX\030'D@/A\004z\032\344\366O=\301@\2639\341_\201"
 441      18274440 
 441      2F41047A 
 441      1AE4F64F 
 441      3DC140B3 
 442 144a 04EF0B93 		.ascii	"\004\357\013\223\237a>\225\022\300\243S\002(\001\314"
 442      9F613E95 
 442      12C0A353 
 442      022801CC 
 443 145a B4185F0A 		.ascii	"\264\030_\012\3402a\251b\214\220(D\344\337\0111\220"
 443      E03261A9 
 443      628C9028 
 443      44E4DF09 
 443      3190
 444 146c 9FDACC7F 		.ascii	"\237\332\314\177\201\352\036\303\370C\332*\213DJ\300"
 444      81EA1EC3 
 444      F843DA2A 
 444      8B444AC0 
 445 147c 9F1F4D54 		.ascii	"\237\037MT$\204G\005~T\264d\360\200!\003\036\323y\205"
 445      24844705 
 445      7E54B464 
 445      F0802103 
 445      1ED37985 
 446 1490 D805E188 		.ascii	"\330\005\341\210\304\313T\364O\304\275\244\321\225\211"
 446      C4CB54F4 
 446      4FC4BDA4 
 446      D19589
 447 149f 4858A282 		.ascii	"HX\242\202\033\016\314H\302\323 \327h\244\200x\006D"
 447      1B0ECC48 
 447      C2D320D7 
 447      68A48078 
 447      0644
 448 14b1 69018243 		.ascii	"i\001\202CP\317\027\022v\307\253\206\004\262\017\247"
 448      50CF1712 
 448      76C7AB86 
 448      04B20FA7 
 449 14c1 7F07446A 		.ascii	"\177\007Dj\242\271\"\306\264\034\021\343\205\250\306"
 449      A2B922C6 
 449      B41C11E3 
 449      85A8C6
 450 14d0 0B91C68B 		.ascii	"\013\221\306\213 \274\255\024\301\005\245\034\221T\272"
 450      20BCAD14 
 450      C105A51C 
 450      9154BA
 451 14df 6F6C5494 		.ascii	"olT\224*\371X\230(X\324,\364~\000\266\371PlzG\235\316"
 451      2AF95898 
ARM GAS  /tmp/ccmL2APA.s 			page 36


 451      2858D42C 
 451      F47E00B6 
 451      F9506C7A 
 452 14f6 F42A3056 		.ascii	"\364*0VBw O\322\015\004\011\321h9y\360\246T\210I<d("
 452      4277204F 
 452      D20D0409 
 452      D1683979 
 452      F0A65488 
 453 150e C7A40CC9 		.ascii	"\307\244\014\311\345\222\262\274X\000\017bt\2448\274"
 453      E592B2BC 
 453      58000F62 
 453      74A438BC 
 454 151e 22CD15A9 		.ascii	"\"\315\025\251\354\227\012\243*\313\250\333\030\337"
 454      EC970AA3 
 454      2ACBA8DB 
 454      18DF
 455 152c 04937C22 		.ascii	"\004\223|\"\032!^\022\210\246D\342\337y\261\212\310"
 455      1A215E12 
 455      88A644E2 
 455      DF79B18A 
 455      C8
 456 153d 189279C4 		.ascii	"\030\222y\304\215\321!\010h\242/qG\221\207\2304\252"
 456      8DD12108 
 456      68A22F71 
 456      47918798 
 456      34AA
 457 154f 72F468C2 		.ascii	"r\364h\302W@\032\025&\352)\"-VE\302\350\325\360:% \233"
 457      57401A15 
 457      26EA2922 
 457      2D5645C2 
 457      E8D5F03A 
 458 1566 39E4990C 		.ascii	"9\344\231\014BJ\203[\036\3440f\346B\275\244$\006\341"
 458      424A835B 
 458      1EE43066 
 458      E642BDA4 
 458      2406E1
 459 1579 41A10A8D 		.ascii	"A\241\012\215\270\276\322Qe\371q\036\002%\332l\037)"
 459      B8BED251 
 459      65F9711E 
 459      0225DA6C 
 459      1F29
 460 158b 1E8E40B8 		.ascii	"\036\216@\270\036%\202\266+ f\347V\214\036\235\"\306"
 460      1E2582B6 
 460      2B2066E7 
 460      568C1E9D 
 460      22C6
 461 159d 1F77453E 		.ascii	"\037wE>z\037\220_4F\020\023B\214z#D\272D8*>\227\227"
 461      7A1F905F 
 461      34461013 
 461      428C7A23 
 461      44BA4438 
 462 15b5 20CA07DA 		.ascii	" \312\007\332\363\241\021\221Xoy\251\226\005a\025\032"
 462      F3A11191 
 462      586F79A9 
 462      96056115 
 462      1A
 463 15c6 EB14454B 		.ascii	"\353\024EKc\202\032\220 \020q\221r\256\212\017\250\001"
ARM GAS  /tmp/ccmL2APA.s 			page 37


 463      63821A90 
 463      20107191 
 463      72AE8A0F 
 463      A801
 464 15d8 2A8F3840 		.ascii	"*\2178@\004\214\335Oz\030\340\\\252L\302;^,\2050\030"
 464      048CDD4F 
 464      7A18E05C 
 464      AA4CC23B 
 464      5E2C8530 
 465 15ed 50FD2D3F 		.ascii	"P\375-?\311K\022 \222\300\257\372\346\240\342\247\204"
 465      C94B1220 
 465      92C0AFFA 
 465      E6A0E2A7 
 465      84
 466 15fe 548A2F13 		.ascii	"T\212/\023R\217\204b\025\025I\346\377\000\025\257*\307"
 466      528F8462 
 466      151549E6 
 466      FF0015AF 
 466      2AC7
 467              		.text
 468              		.section	.gnu.lto_.symtab.950596d82df8e1eb,"",%progbits
 469 0000 70617474 		.ascii	"patternmsg\000\000\000\000\000\000\000\000\000\000\000"
 469      65726E6D 
 469      73670000 
 469      00000000 
 469      00000000 
 470 0015 004B0200 		.ascii	"\000K\002\000\000testmsg1\000\000\000\000\000\000\000"
 470      00746573 
 470      746D7367 
 470      31000000 
 470      00000000 
 471 0029 00000000 		.ascii	"\000\000\000\000\000a\002\000\000ch\000\000\002\000"
 471      00610200 
 471      00636800 
 471      000200
 472 0038 00000000 		.ascii	"\000\000\000\000\000\000\000\000\270\001\000\000wa\000"
 472      00000000 
 472      B8010000 
 472      776100
 473 0047 00020000 		.ascii	"\000\002\000\000\000\000\000\000\000\000\000B\002\000"
 473      00000000 
 473      00000042 
 473      0200
 474 0055 00746872 		.ascii	"\000threads\000\000\002\000\000\000\000\000\000\000"
 474      65616473 
 474      00000200 
 474      00000000 
 474      0000
 475 0067 00004702 		.ascii	"\000\000G\002\000\000chMsgSend\000\000\002\000\000\000"
 475      00006368 
 475      4D736753 
 475      656E6400 
 475      00020000 
 476 007c 00000000 		.ascii	"\000\000\000\000\000\000\220\001\000\000_test_asser"
 476      00009001 
 476      00005F74 
 476      6573745F 
ARM GAS  /tmp/ccmL2APA.s 			page 38


 476      61737365 
 477 0091 745F7365 		.ascii	"t_sequence\000\000\002\000\000\000\000\000\000\000\000"
 477      7175656E 
 477      63650000 
 477      02000000 
 477      00000000 
 478 00a6 00950100 		.ascii	"\000\225\001\000\000test_emit_token\000\000\002\000"
 478      00746573 
 478      745F656D 
 478      69745F74 
 478      6F6B656E 
 479 00be 00000000 		.ascii	"\000\000\000\000\000\000\000\000\236\001\000\000chM"
 479      00000000 
 479      9E010000 
 479      63684D
 480 00cd 73675265 		.ascii	"sgRelease\000\000\002\000\000\000\000\000\000\000\000"
 480      6C656173 
 480      65000002 
 480      00000000 
 480      00000000 
 481 00e1 00A20100 		.ascii	"\000\242\001\000\000chMsgWait\000\000\002\000\000\000"
 481      0063684D 
 481      73675761 
 481      69740000 
 481      02000000 
 482 00f5 00000000 		.ascii	"\000\000\000\000\000\000\247\001\000\000chThdCreate"
 482      0000A701 
 482      00006368 
 482      54686443 
 482      72656174 
 483 010a 53746174 		.ascii	"Static\000\000\002\000\000\000\000\000\000\000\000\000"
 483      69630000 
 483      02000000 
 483      00000000 
 483      0000
 484 011c A9010000 		.ascii	"\251\001\000\000"
 485              		.text
 486              		.section	.gnu.lto_.opts,"",%progbits
 487 0000 272D6D63 		.ascii	"'-mcpu=cortex-m4' '-mno-thumb-interwork' '-mthumb' "
 487      70753D63 
 487      6F727465 
 487      782D6D34 
 487      2720272D 
 488 0033 272D6767 		.ascii	"'-ggdb' '-O0' '-fomit-frame-pointer' '-falign-funct"
 488      64622720 
 488      272D4F30 
 488      2720272D 
 488      666F6D69 
 489 0066 696F6E73 		.ascii	"ions=16' '-ffunction-sections' '-fdata-sections' '-"
 489      3D313627 
 489      20272D66 
 489      66756E63 
 489      74696F6E 
 490 0099 666E6F2D 		.ascii	"fno-common' '-flto'\000"
 490      636F6D6D 
 490      6F6E2720 
 490      272D666C 
ARM GAS  /tmp/ccmL2APA.s 			page 39


 490      746F2700 
 491              		.text
 492              		.cfi_sections	.debug_frame
 493              		.section	.text.chThdGetSelfX,"ax",%progbits
 494              		.align	2
 495              		.p2align 4,,15
 496              		.thumb
 497              		.thumb_func
 498              		.type	chThdGetSelfX, %function
 499              	chThdGetSelfX:
 500              	.LFB189:
 501              		.file 1 "lib/ChibiOS_16.1.4//os/rt/include/chthreads.h"
 502              		.loc 1 174 0
 503              		.cfi_startproc
 504              		@ args = 0, pretend = 0, frame = 0
 505              		@ frame_needed = 0, uses_anonymous_args = 0
 506              		@ link register save eliminated.
 507              		.loc 1 176 0
 508 0000 40F20003 		movw	r3, #:lower16:ch
 509 0004 C0F20003 		movt	r3, #:upper16:ch
 510 0008 9B69     		ldr	r3, [r3, #24]
 511              		.loc 1 177 0
 512 000a 1846     		mov	r0, r3
 513 000c 7047     		bx	lr
 514              		.cfi_endproc
 515              	.LFE189:
 516              		.size	chThdGetSelfX, .-chThdGetSelfX
 517 000e 00BF     		.section	.text.chThdGetPriorityX,"ax",%progbits
 518              		.align	2
 519              		.p2align 4,,15
 520              		.thumb
 521              		.thumb_func
 522              		.type	chThdGetPriorityX, %function
 523              	chThdGetPriorityX:
 524              	.LFB190:
 525              		.loc 1 187 0
 526              		.cfi_startproc
 527              		@ args = 0, pretend = 0, frame = 0
 528              		@ frame_needed = 0, uses_anonymous_args = 0
 529 0000 08B5     		push	{r3, lr}
 530              		.cfi_def_cfa_offset 8
 531              		.cfi_offset 3, -8
 532              		.cfi_offset 14, -4
 533              		.loc 1 189 0
 534 0002 FFF7FEFF 		bl	chThdGetSelfX
 535 0006 0346     		mov	r3, r0
 536 0008 9B68     		ldr	r3, [r3, #8]
 537              		.loc 1 190 0
 538 000a 1846     		mov	r0, r3
 539 000c 08BD     		pop	{r3, pc}
 540              		.cfi_endproc
 541              	.LFE190:
 542              		.size	chThdGetPriorityX, .-chThdGetPriorityX
 543 000e 00BF     		.section	.text.chMsgGet,"ax",%progbits
 544              		.align	2
 545              		.p2align 4,,15
 546              		.thumb
ARM GAS  /tmp/ccmL2APA.s 			page 40


 547              		.thumb_func
 548              		.type	chMsgGet, %function
 549              	chMsgGet:
 550              	.LFB223:
 551              		.file 2 "lib/ChibiOS_16.1.4//os/rt/include/chmsg.h"
 552              		.loc 2 96 0
 553              		.cfi_startproc
 554              		@ args = 0, pretend = 0, frame = 8
 555              		@ frame_needed = 0, uses_anonymous_args = 0
 556              		@ link register save eliminated.
 557 0000 82B0     		sub	sp, sp, #8
 558              		.cfi_def_cfa_offset 8
 559 0002 0190     		str	r0, [sp, #4]
 560              		.loc 2 98 0
 561 0004 019B     		ldr	r3, [sp, #4]
 562 0006 5B6B     		ldr	r3, [r3, #52]
 563              		.loc 2 99 0
 564 0008 1846     		mov	r0, r3
 565 000a 02B0     		add	sp, sp, #8
 566              		@ sp needed
 567 000c 7047     		bx	lr
 568              		.cfi_endproc
 569              	.LFE223:
 570              		.size	chMsgGet, .-chMsgGet
 571 000e 00BF     		.section	.text.thread,"ax",%progbits
 572              		.align	2
 573              		.p2align 4,,15
 574              		.thumb
 575              		.thumb_func
 576              		.type	thread, %function
 577              	thread:
 578              	.LFB241:
 579              		.file 3 "lib/ChibiOS_16.1.4//test/rt/testmsg.c"
 580              		.loc 3 59 0
 581              		.cfi_startproc
 582              		@ args = 0, pretend = 0, frame = 8
 583              		@ frame_needed = 0, uses_anonymous_args = 0
 584 0000 00B5     		push	{lr}
 585              		.cfi_def_cfa_offset 4
 586              		.cfi_offset 14, -4
 587 0002 83B0     		sub	sp, sp, #12
 588              		.cfi_def_cfa_offset 16
 589 0004 0190     		str	r0, [sp, #4]
 590              		.loc 3 61 0
 591 0006 0198     		ldr	r0, [sp, #4]
 592 0008 4121     		movs	r1, #65
 593 000a FFF7FEFF 		bl	chMsgSend
 594              		.loc 3 62 0
 595 000e 0198     		ldr	r0, [sp, #4]
 596 0010 4221     		movs	r1, #66
 597 0012 FFF7FEFF 		bl	chMsgSend
 598              		.loc 3 63 0
 599 0016 0198     		ldr	r0, [sp, #4]
 600 0018 4321     		movs	r1, #67
 601 001a FFF7FEFF 		bl	chMsgSend
 602              		.loc 3 64 0
 603 001e 03B0     		add	sp, sp, #12
ARM GAS  /tmp/ccmL2APA.s 			page 41


 604              		@ sp needed
 605 0020 5DF804FB 		ldr	pc, [sp], #4
 606              		.cfi_endproc
 607              	.LFE241:
 608              		.size	thread, .-thread
 609 0024 AFF30080 		.section	.rodata
 609      AFF30080 
 609      AFF30080 
 610              		.align	2
 611              	.LC0:
 612 0000 41424300 		.ascii	"ABC\000"
 613              		.section	.text.msg1_execute,"ax",%progbits
 614              		.align	2
 615              		.p2align 4,,15
 616              		.thumb
 617              		.thumb_func
 618              		.type	msg1_execute, %function
 619              	msg1_execute:
 620              	.LFB242:
 621              		.loc 3 66 0
 622              		.cfi_startproc
 623              		@ args = 0, pretend = 0, frame = 8
 624              		@ frame_needed = 0, uses_anonymous_args = 0
 625 0000 30B5     		push	{r4, r5, lr}
 626              		.cfi_def_cfa_offset 12
 627              		.cfi_offset 4, -12
 628              		.cfi_offset 5, -8
 629              		.cfi_offset 14, -4
 630 0002 85B0     		sub	sp, sp, #20
 631              		.cfi_def_cfa_offset 32
 632              		.loc 3 73 0
 633 0004 40F20003 		movw	r3, #:lower16:wa
 634 0008 C0F20003 		movt	r3, #:upper16:wa
 635 000c 1D68     		ldr	r5, [r3]
 636 000e FFF7FEFF 		bl	chThdGetPriorityX
 637 0012 0346     		mov	r3, r0
 638 0014 5C1C     		adds	r4, r3, #1
 639              		.loc 3 74 0
 640 0016 FFF7FEFF 		bl	chThdGetSelfX
 641 001a 0346     		mov	r3, r0
 642              		.loc 3 73 0
 643 001c 0093     		str	r3, [sp]
 644 001e 2846     		mov	r0, r5
 645 0020 4FF4B471 		mov	r1, #360
 646 0024 2246     		mov	r2, r4
 647 0026 40F20003 		movw	r3, #:lower16:thread
 648 002a C0F20003 		movt	r3, #:upper16:thread
 649 002e FFF7FEFF 		bl	chThdCreateStatic
 650 0032 0246     		mov	r2, r0
 651 0034 40F20003 		movw	r3, #:lower16:threads
 652 0038 C0F20003 		movt	r3, #:upper16:threads
 653 003c 1A60     		str	r2, [r3]
 654              		.loc 3 75 0
 655 003e FFF7FEFF 		bl	chMsgWait
 656 0042 0390     		str	r0, [sp, #12]
 657              		.loc 3 76 0
 658 0044 0398     		ldr	r0, [sp, #12]
ARM GAS  /tmp/ccmL2APA.s 			page 42


 659 0046 FFF7FEFF 		bl	chMsgGet
 660 004a 0290     		str	r0, [sp, #8]
 661              		.loc 3 77 0
 662 004c 0398     		ldr	r0, [sp, #12]
 663 004e 0299     		ldr	r1, [sp, #8]
 664 0050 FFF7FEFF 		bl	chMsgRelease
 665              		.loc 3 78 0
 666 0054 029B     		ldr	r3, [sp, #8]
 667 0056 DBB2     		uxtb	r3, r3
 668 0058 1846     		mov	r0, r3
 669 005a FFF7FEFF 		bl	test_emit_token
 670              		.loc 3 79 0
 671 005e FFF7FEFF 		bl	chMsgWait
 672 0062 0390     		str	r0, [sp, #12]
 673              		.loc 3 80 0
 674 0064 0398     		ldr	r0, [sp, #12]
 675 0066 FFF7FEFF 		bl	chMsgGet
 676 006a 0290     		str	r0, [sp, #8]
 677              		.loc 3 81 0
 678 006c 0398     		ldr	r0, [sp, #12]
 679 006e 0299     		ldr	r1, [sp, #8]
 680 0070 FFF7FEFF 		bl	chMsgRelease
 681              		.loc 3 82 0
 682 0074 029B     		ldr	r3, [sp, #8]
 683 0076 DBB2     		uxtb	r3, r3
 684 0078 1846     		mov	r0, r3
 685 007a FFF7FEFF 		bl	test_emit_token
 686              		.loc 3 83 0
 687 007e FFF7FEFF 		bl	chMsgWait
 688 0082 0390     		str	r0, [sp, #12]
 689              		.loc 3 84 0
 690 0084 0398     		ldr	r0, [sp, #12]
 691 0086 FFF7FEFF 		bl	chMsgGet
 692 008a 0290     		str	r0, [sp, #8]
 693              		.loc 3 85 0
 694 008c 0398     		ldr	r0, [sp, #12]
 695 008e 0299     		ldr	r1, [sp, #8]
 696 0090 FFF7FEFF 		bl	chMsgRelease
 697              		.loc 3 86 0
 698 0094 029B     		ldr	r3, [sp, #8]
 699 0096 DBB2     		uxtb	r3, r3
 700 0098 1846     		mov	r0, r3
 701 009a FFF7FEFF 		bl	test_emit_token
 702              		.loc 3 87 0
 703 009e 0120     		movs	r0, #1
 704 00a0 40F20001 		movw	r1, #:lower16:.LC0
 705 00a4 C0F20001 		movt	r1, #:upper16:.LC0
 706 00a8 FFF7FEFF 		bl	_test_assert_sequence
 707 00ac 0346     		mov	r3, r0
 708 00ae 002B     		cmp	r3, #0
 709 00b0 00D0     		beq	.L8
 710              		.loc 3 87 0 is_stmt 0 discriminator 1
 711 00b2 00BF     		nop
 712              	.L8:
 713              		.loc 3 88 0 is_stmt 1
 714 00b4 05B0     		add	sp, sp, #20
 715              		@ sp needed
ARM GAS  /tmp/ccmL2APA.s 			page 43


 716 00b6 30BD     		pop	{r4, r5, pc}
 717              		.cfi_endproc
 718              	.LFE242:
 719              		.size	msg1_execute, .-msg1_execute
 720              		.global	testmsg1
 721 00b8 AFF30080 		.section	.rodata
 721      AFF30080 
 722              		.align	2
 723              	.LC1:
 724 0004 4D657373 		.ascii	"Messages, loop\000"
 724      61676573 
 724      2C206C6F 
 724      6F7000
 725 0013 00       		.section	.rodata.testmsg1,"a",%progbits
 726              		.align	2
 727              		.type	testmsg1, %object
 728              		.size	testmsg1, 16
 729              	testmsg1:
 730 0000 04000000 		.word	.LC1
 731 0004 00000000 		.word	0
 732 0008 00000000 		.word	0
 733 000c 00000000 		.word	msg1_execute
 734              		.global	patternmsg
 735              		.section	.rodata.patternmsg,"a",%progbits
 736              		.align	2
 737              		.type	patternmsg, %object
 738              		.size	patternmsg, 8
 739              	patternmsg:
 740 0000 00000000 		.word	testmsg1
 741 0004 00000000 		.word	0
 742              		.text
 743              	.Letext0:
 744              		.file 4 "/usr/lib/gcc/arm-none-eabi/4.8.2/include/stddef.h"
 745              		.file 5 "/usr/include/newlib/machine/_default_types.h"
 746              		.file 6 "/usr/include/newlib/stdint.h"
 747              		.file 7 "lib/ChibiOS_16.1.4//os/rt/ports/ARMCMx/compilers/GCC/chtypes.h"
 748              		.file 8 "lib/ChibiOS_16.1.4//os/rt/include/chsystypes.h"
 749              		.file 9 "lib/ChibiOS_16.1.4//os/rt/include/chschd.h"
 750              		.file 10 "lib/ChibiOS_16.1.4//os/rt/ports/ARMCMx/chcore.h"
 751              		.file 11 "lib/ChibiOS_16.1.4//os/rt/ports/ARMCMx/chcore_v7m.h"
 752              		.file 12 "lib/ChibiOS_16.1.4//os/rt/include/chdebug.h"
 753              		.file 13 "lib/ChibiOS_16.1.4//os/rt/include/chtm.h"
 754              		.file 14 "lib/ChibiOS_16.1.4//os/rt/include/chstats.h"
 755              		.file 15 "lib/ChibiOS_16.1.4//os/rt/include/chsem.h"
 756              		.file 16 "lib/ChibiOS_16.1.4//os/rt/include/chmtx.h"
 757              		.file 17 "lib/ChibiOS_16.1.4//test/rt/test.h"
 758              		.file 18 "lib/ChibiOS_16.1.4//os/ext/CMSIS/include/core_cm4.h"
 759              		.section	.debug_info,"",%progbits
 760              	.Ldebug_info0:
 761 0000 2C090000 		.4byte	0x92c
 762 0004 0400     		.2byte	0x4
 763 0006 00000000 		.4byte	.Ldebug_abbrev0
 764 000a 04       		.byte	0x4
 765 000b 01       		.uleb128 0x1
 766 000c 86020000 		.4byte	.LASF142
 767 0010 01       		.byte	0x1
 768 0011 05040000 		.4byte	.LASF143
ARM GAS  /tmp/ccmL2APA.s 			page 44


 769 0015 22010000 		.4byte	.LASF144
 770 0019 00000000 		.4byte	.Ldebug_ranges0+0
 771 001d 00000000 		.4byte	0
 772 0021 00000000 		.4byte	.Ldebug_line0
 773 0025 02       		.uleb128 0x2
 774 0026 04       		.byte	0x4
 775 0027 05       		.byte	0x5
 776 0028 696E7400 		.ascii	"int\000"
 777 002c 03       		.uleb128 0x3
 778 002d 1C000000 		.4byte	.LASF2
 779 0031 04       		.byte	0x4
 780 0032 D4       		.byte	0xd4
 781 0033 37000000 		.4byte	0x37
 782 0037 04       		.uleb128 0x4
 783 0038 04       		.byte	0x4
 784 0039 07       		.byte	0x7
 785 003a F2010000 		.4byte	.LASF0
 786 003e 04       		.uleb128 0x4
 787 003f 01       		.byte	0x1
 788 0040 06       		.byte	0x6
 789 0041 16010000 		.4byte	.LASF1
 790 0045 03       		.uleb128 0x3
 791 0046 40000000 		.4byte	.LASF3
 792 004a 05       		.byte	0x5
 793 004b 1C       		.byte	0x1c
 794 004c 50000000 		.4byte	0x50
 795 0050 04       		.uleb128 0x4
 796 0051 01       		.byte	0x1
 797 0052 08       		.byte	0x8
 798 0053 A4040000 		.4byte	.LASF4
 799 0057 04       		.uleb128 0x4
 800 0058 02       		.byte	0x2
 801 0059 05       		.byte	0x5
 802 005a BC040000 		.4byte	.LASF5
 803 005e 04       		.uleb128 0x4
 804 005f 02       		.byte	0x2
 805 0060 07       		.byte	0x7
 806 0061 3C020000 		.4byte	.LASF6
 807 0065 03       		.uleb128 0x3
 808 0066 56030000 		.4byte	.LASF7
 809 006a 05       		.byte	0x5
 810 006b 37       		.byte	0x37
 811 006c 70000000 		.4byte	0x70
 812 0070 04       		.uleb128 0x4
 813 0071 04       		.byte	0x4
 814 0072 05       		.byte	0x5
 815 0073 68010000 		.4byte	.LASF8
 816 0077 03       		.uleb128 0x3
 817 0078 B1050000 		.4byte	.LASF9
 818 007c 05       		.byte	0x5
 819 007d 38       		.byte	0x38
 820 007e 82000000 		.4byte	0x82
 821 0082 04       		.uleb128 0x4
 822 0083 04       		.byte	0x4
 823 0084 07       		.byte	0x7
 824 0085 67050000 		.4byte	.LASF10
 825 0089 04       		.uleb128 0x4
ARM GAS  /tmp/ccmL2APA.s 			page 45


 826 008a 08       		.byte	0x8
 827 008b 05       		.byte	0x5
 828 008c 08010000 		.4byte	.LASF11
 829 0090 03       		.uleb128 0x3
 830 0091 3D040000 		.4byte	.LASF12
 831 0095 05       		.byte	0x5
 832 0096 4E       		.byte	0x4e
 833 0097 9B000000 		.4byte	0x9b
 834 009b 04       		.uleb128 0x4
 835 009c 08       		.byte	0x8
 836 009d 07       		.byte	0x7
 837 009e 8F000000 		.4byte	.LASF13
 838 00a2 03       		.uleb128 0x3
 839 00a3 20060000 		.4byte	.LASF14
 840 00a7 06       		.byte	0x6
 841 00a8 2A       		.byte	0x2a
 842 00a9 45000000 		.4byte	0x45
 843 00ad 03       		.uleb128 0x3
 844 00ae 9C040000 		.4byte	.LASF15
 845 00b2 06       		.byte	0x6
 846 00b3 41       		.byte	0x41
 847 00b4 65000000 		.4byte	0x65
 848 00b8 03       		.uleb128 0x3
 849 00b9 36050000 		.4byte	.LASF16
 850 00bd 06       		.byte	0x6
 851 00be 42       		.byte	0x42
 852 00bf 77000000 		.4byte	0x77
 853 00c3 03       		.uleb128 0x3
 854 00c4 2A000000 		.4byte	.LASF17
 855 00c8 06       		.byte	0x6
 856 00c9 4E       		.byte	0x4e
 857 00ca 90000000 		.4byte	0x90
 858 00ce 03       		.uleb128 0x3
 859 00cf D5050000 		.4byte	.LASF18
 860 00d3 07       		.byte	0x7
 861 00d4 39       		.byte	0x39
 862 00d5 B8000000 		.4byte	0xb8
 863 00d9 03       		.uleb128 0x3
 864 00da F8000000 		.4byte	.LASF19
 865 00de 07       		.byte	0x7
 866 00df 3A       		.byte	0x3a
 867 00e0 C3000000 		.4byte	0xc3
 868 00e4 03       		.uleb128 0x3
 869 00e5 29030000 		.4byte	.LASF20
 870 00e9 07       		.byte	0x7
 871 00ea 3C       		.byte	0x3c
 872 00eb A2000000 		.4byte	0xa2
 873 00ef 03       		.uleb128 0x3
 874 00f0 71010000 		.4byte	.LASF21
 875 00f4 07       		.byte	0x7
 876 00f5 3D       		.byte	0x3d
 877 00f6 A2000000 		.4byte	0xa2
 878 00fa 03       		.uleb128 0x3
 879 00fb 53040000 		.4byte	.LASF22
 880 00ff 07       		.byte	0x7
 881 0100 3E       		.byte	0x3e
 882 0101 A2000000 		.4byte	0xa2
ARM GAS  /tmp/ccmL2APA.s 			page 46


 883 0105 03       		.uleb128 0x3
 884 0106 84040000 		.4byte	.LASF23
 885 010a 07       		.byte	0x7
 886 010b 40       		.byte	0x40
 887 010c B8000000 		.4byte	0xb8
 888 0110 03       		.uleb128 0x3
 889 0111 68020000 		.4byte	.LASF24
 890 0115 07       		.byte	0x7
 891 0116 41       		.byte	0x41
 892 0117 AD000000 		.4byte	0xad
 893 011b 03       		.uleb128 0x3
 894 011c 4A030000 		.4byte	.LASF25
 895 0120 07       		.byte	0x7
 896 0121 43       		.byte	0x43
 897 0122 B8000000 		.4byte	0xb8
 898 0126 03       		.uleb128 0x3
 899 0127 E1010000 		.4byte	.LASF26
 900 012b 07       		.byte	0x7
 901 012c 45       		.byte	0x45
 902 012d AD000000 		.4byte	0xad
 903 0131 03       		.uleb128 0x3
 904 0132 73020000 		.4byte	.LASF27
 905 0136 07       		.byte	0x7
 906 0137 46       		.byte	0x46
 907 0138 B8000000 		.4byte	0xb8
 908 013c 03       		.uleb128 0x3
 909 013d 93050000 		.4byte	.LASF28
 910 0141 08       		.byte	0x8
 911 0142 33       		.byte	0x33
 912 0143 B8000000 		.4byte	0xb8
 913 0147 03       		.uleb128 0x3
 914 0148 7E050000 		.4byte	.LASF29
 915 014c 08       		.byte	0x8
 916 014d 3F       		.byte	0x3f
 917 014e 52010000 		.4byte	0x152
 918 0152 05       		.uleb128 0x5
 919 0153 5E020000 		.4byte	.LASF51
 920 0157 60       		.byte	0x60
 921 0158 09       		.byte	0x9
 922 0159 C2       		.byte	0xc2
 923 015a 58020000 		.4byte	0x258
 924 015e 06       		.uleb128 0x6
 925 015f ED040000 		.4byte	.LASF30
 926 0163 09       		.byte	0x9
 927 0164 C3       		.byte	0xc3
 928 0165 63020000 		.4byte	0x263
 929 0169 00       		.byte	0
 930 016a 06       		.uleb128 0x6
 931 016b 75040000 		.4byte	.LASF31
 932 016f 09       		.byte	0x9
 933 0170 C5       		.byte	0xc5
 934 0171 63020000 		.4byte	0x263
 935 0175 04       		.byte	0x4
 936 0176 06       		.uleb128 0x6
 937 0177 01010000 		.4byte	.LASF32
 938 017b 09       		.byte	0x9
 939 017c C7       		.byte	0xc7
ARM GAS  /tmp/ccmL2APA.s 			page 47


 940 017d 05010000 		.4byte	0x105
 941 0181 08       		.byte	0x8
 942 0182 06       		.uleb128 0x6
 943 0183 82060000 		.4byte	.LASF33
 944 0187 09       		.byte	0x9
 945 0188 C8       		.byte	0xc8
 946 0189 CC040000 		.4byte	0x4cc
 947 018d 0C       		.byte	0xc
 948 018e 06       		.uleb128 0x6
 949 018f 80010000 		.4byte	.LASF34
 950 0193 09       		.byte	0x9
 951 0194 CA       		.byte	0xca
 952 0195 63020000 		.4byte	0x263
 953 0199 10       		.byte	0x10
 954 019a 06       		.uleb128 0x6
 955 019b DF030000 		.4byte	.LASF35
 956 019f 09       		.byte	0x9
 957 01a0 CB       		.byte	0xcb
 958 01a1 63020000 		.4byte	0x263
 959 01a5 14       		.byte	0x14
 960 01a6 06       		.uleb128 0x6
 961 01a7 3C060000 		.4byte	.LASF36
 962 01ab 09       		.byte	0x9
 963 01ac D2       		.byte	0xd2
 964 01ad 70070000 		.4byte	0x770
 965 01b1 18       		.byte	0x18
 966 01b2 06       		.uleb128 0x6
 967 01b3 E7010000 		.4byte	.LASF37
 968 01b7 09       		.byte	0x9
 969 01b8 D8       		.byte	0xd8
 970 01b9 82070000 		.4byte	0x782
 971 01bd 1C       		.byte	0x1c
 972 01be 06       		.uleb128 0x6
 973 01bf C6040000 		.4byte	.LASF38
 974 01c3 09       		.byte	0x9
 975 01c4 DD       		.byte	0xdd
 976 01c5 EF000000 		.4byte	0xef
 977 01c9 20       		.byte	0x20
 978 01ca 06       		.uleb128 0x6
 979 01cb F4040000 		.4byte	.LASF39
 980 01cf 09       		.byte	0x9
 981 01d0 E1       		.byte	0xe1
 982 01d1 E4000000 		.4byte	0xe4
 983 01d5 21       		.byte	0x21
 984 01d6 06       		.uleb128 0x6
 985 01d7 FD050000 		.4byte	.LASF40
 986 01db 09       		.byte	0x9
 987 01dc E6       		.byte	0xe6
 988 01dd FA000000 		.4byte	0xfa
 989 01e1 22       		.byte	0x22
 990 01e2 07       		.uleb128 0x7
 991 01e3 705F7500 		.ascii	"p_u\000"
 992 01e7 09       		.byte	0x9
 993 01e8 3101     		.2byte	0x131
 994 01ea AB060000 		.4byte	0x6ab
 995 01ee 24       		.byte	0x24
 996 01ef 08       		.uleb128 0x8
ARM GAS  /tmp/ccmL2APA.s 			page 48


 997 01f0 6B030000 		.4byte	.LASF41
 998 01f4 09       		.byte	0x9
 999 01f5 3601     		.2byte	0x136
 1000 01f7 69020000 		.4byte	0x269
 1001 01fb 28       		.byte	0x28
 1002 01fc 08       		.uleb128 0x8
 1003 01fd 0E020000 		.4byte	.LASF42
 1004 0201 09       		.byte	0x9
 1005 0202 3C01     		.2byte	0x13c
 1006 0204 8D020000 		.4byte	0x28d
 1007 0208 2C       		.byte	0x2c
 1008 0209 08       		.uleb128 0x8
 1009 020a 5F060000 		.4byte	.LASF43
 1010 020e 09       		.byte	0x9
 1011 020f 4001     		.2byte	0x140
 1012 0211 10010000 		.4byte	0x110
 1013 0215 34       		.byte	0x34
 1014 0216 08       		.uleb128 0x8
 1015 0217 2B050000 		.4byte	.LASF44
 1016 021b 09       		.byte	0x9
 1017 021c 4601     		.2byte	0x146
 1018 021e 1B010000 		.4byte	0x11b
 1019 0222 38       		.byte	0x38
 1020 0223 08       		.uleb128 0x8
 1021 0224 B2040000 		.4byte	.LASF45
 1022 0228 09       		.byte	0x9
 1023 0229 4D01     		.2byte	0x14d
 1024 022b 6A070000 		.4byte	0x76a
 1025 022f 3C       		.byte	0x3c
 1026 0230 08       		.uleb128 0x8
 1027 0231 9D050000 		.4byte	.LASF46
 1028 0235 09       		.byte	0x9
 1029 0236 5101     		.2byte	0x151
 1030 0238 05010000 		.4byte	0x105
 1031 023c 40       		.byte	0x40
 1032 023d 08       		.uleb128 0x8
 1033 023e 41010000 		.4byte	.LASF47
 1034 0242 09       		.byte	0x9
 1035 0243 5801     		.2byte	0x158
 1036 0245 40030000 		.4byte	0x340
 1037 0249 44       		.byte	0x44
 1038 024a 08       		.uleb128 0x8
 1039 024b FC040000 		.4byte	.LASF48
 1040 024f 09       		.byte	0x9
 1041 0250 5E01     		.2byte	0x15e
 1042 0252 5C060000 		.4byte	0x65c
 1043 0256 48       		.byte	0x48
 1044 0257 00       		.byte	0
 1045 0258 03       		.uleb128 0x3
 1046 0259 89030000 		.4byte	.LASF49
 1047 025d 08       		.byte	0x8
 1048 025e 44       		.byte	0x44
 1049 025f 63020000 		.4byte	0x263
 1050 0263 09       		.uleb128 0x9
 1051 0264 04       		.byte	0x4
 1052 0265 47010000 		.4byte	0x147
 1053 0269 03       		.uleb128 0x3
ARM GAS  /tmp/ccmL2APA.s 			page 49


 1054 026a 43060000 		.4byte	.LASF50
 1055 026e 08       		.byte	0x8
 1056 026f 49       		.byte	0x49
 1057 0270 74020000 		.4byte	0x274
 1058 0274 05       		.uleb128 0x5
 1059 0275 57050000 		.4byte	.LASF52
 1060 0279 04       		.byte	0x4
 1061 027a 09       		.byte	0x9
 1062 027b B0       		.byte	0xb0
 1063 027c 8D020000 		.4byte	0x28d
 1064 0280 06       		.uleb128 0x6
 1065 0281 ED040000 		.4byte	.LASF30
 1066 0285 09       		.byte	0x9
 1067 0286 B1       		.byte	0xb1
 1068 0287 63020000 		.4byte	0x263
 1069 028b 00       		.byte	0
 1070 028c 00       		.byte	0
 1071 028d 03       		.uleb128 0x3
 1072 028e E4050000 		.4byte	.LASF53
 1073 0292 08       		.byte	0x8
 1074 0293 50       		.byte	0x50
 1075 0294 98020000 		.4byte	0x298
 1076 0298 05       		.uleb128 0x5
 1077 0299 56000000 		.4byte	.LASF54
 1078 029d 08       		.byte	0x8
 1079 029e 09       		.byte	0x9
 1080 029f B7       		.byte	0xb7
 1081 02a0 BD020000 		.4byte	0x2bd
 1082 02a4 06       		.uleb128 0x6
 1083 02a5 ED040000 		.4byte	.LASF30
 1084 02a9 09       		.byte	0x9
 1085 02aa B8       		.byte	0xb8
 1086 02ab 63020000 		.4byte	0x263
 1087 02af 00       		.byte	0
 1088 02b0 06       		.uleb128 0x6
 1089 02b1 75040000 		.4byte	.LASF31
 1090 02b5 09       		.byte	0x9
 1091 02b6 B9       		.byte	0xb9
 1092 02b7 63020000 		.4byte	0x263
 1093 02bb 04       		.byte	0x4
 1094 02bc 00       		.byte	0
 1095 02bd 03       		.uleb128 0x3
 1096 02be 07000000 		.4byte	.LASF55
 1097 02c2 08       		.byte	0x8
 1098 02c3 57       		.byte	0x57
 1099 02c4 C8020000 		.4byte	0x2c8
 1100 02c8 0A       		.uleb128 0xa
 1101 02c9 3C030000 		.4byte	.LASF56
 1102 02cd 1C       		.byte	0x1c
 1103 02ce 09       		.byte	0x9
 1104 02cf 9001     		.2byte	0x190
 1105 02d1 24030000 		.4byte	0x324
 1106 02d5 08       		.uleb128 0x8
 1107 02d6 46050000 		.4byte	.LASF57
 1108 02da 09       		.byte	0x9
 1109 02db 9101     		.2byte	0x191
 1110 02dd 8D020000 		.4byte	0x28d
ARM GAS  /tmp/ccmL2APA.s 			page 50


 1111 02e1 00       		.byte	0
 1112 02e2 08       		.uleb128 0x8
 1113 02e3 D6040000 		.4byte	.LASF58
 1114 02e7 09       		.byte	0x9
 1115 02e8 9201     		.2byte	0x192
 1116 02ea 05010000 		.4byte	0x105
 1117 02ee 08       		.byte	0x8
 1118 02ef 08       		.uleb128 0x8
 1119 02f0 E7030000 		.4byte	.LASF59
 1120 02f4 09       		.byte	0x9
 1121 02f5 9401     		.2byte	0x194
 1122 02f7 CC040000 		.4byte	0x4cc
 1123 02fb 0C       		.byte	0xc
 1124 02fc 08       		.uleb128 0x8
 1125 02fd 98010000 		.4byte	.LASF60
 1126 0301 09       		.byte	0x9
 1127 0302 9701     		.2byte	0x197
 1128 0304 63020000 		.4byte	0x263
 1129 0308 10       		.byte	0x10
 1130 0309 08       		.uleb128 0x8
 1131 030a 35040000 		.4byte	.LASF61
 1132 030e 09       		.byte	0x9
 1133 030f 9801     		.2byte	0x198
 1134 0311 63020000 		.4byte	0x263
 1135 0315 14       		.byte	0x14
 1136 0316 08       		.uleb128 0x8
 1137 0317 2B040000 		.4byte	.LASF62
 1138 031b 09       		.byte	0x9
 1139 031c 9B01     		.2byte	0x19b
 1140 031e 63020000 		.4byte	0x263
 1141 0322 18       		.byte	0x18
 1142 0323 00       		.byte	0
 1143 0324 03       		.uleb128 0x3
 1144 0325 A8050000 		.4byte	.LASF63
 1145 0329 08       		.byte	0x8
 1146 032a 5C       		.byte	0x5c
 1147 032b 2F030000 		.4byte	0x32f
 1148 032f 09       		.uleb128 0x9
 1149 0330 04       		.byte	0x4
 1150 0331 35030000 		.4byte	0x335
 1151 0335 0B       		.uleb128 0xb
 1152 0336 40030000 		.4byte	0x340
 1153 033a 0C       		.uleb128 0xc
 1154 033b 40030000 		.4byte	0x340
 1155 033f 00       		.byte	0
 1156 0340 0D       		.uleb128 0xd
 1157 0341 04       		.byte	0x4
 1158 0342 03       		.uleb128 0x3
 1159 0343 65040000 		.4byte	.LASF64
 1160 0347 08       		.byte	0x8
 1161 0348 61       		.byte	0x61
 1162 0349 4D030000 		.4byte	0x34d
 1163 034d 0A       		.uleb128 0xa
 1164 034e 04050000 		.4byte	.LASF65
 1165 0352 14       		.byte	0x14
 1166 0353 09       		.byte	0x9
 1167 0354 6B01     		.2byte	0x16b
ARM GAS  /tmp/ccmL2APA.s 			page 51


 1168 0356 9C030000 		.4byte	0x39c
 1169 035a 08       		.uleb128 0x8
 1170 035b FF010000 		.4byte	.LASF66
 1171 035f 09       		.byte	0x9
 1172 0360 6C01     		.2byte	0x16c
 1173 0362 88070000 		.4byte	0x788
 1174 0366 00       		.byte	0
 1175 0367 08       		.uleb128 0x8
 1176 0368 A9010000 		.4byte	.LASF67
 1177 036c 09       		.byte	0x9
 1178 036d 6D01     		.2byte	0x16d
 1179 036f 88070000 		.4byte	0x788
 1180 0373 04       		.byte	0x4
 1181 0374 08       		.uleb128 0x8
 1182 0375 4E050000 		.4byte	.LASF68
 1183 0379 09       		.byte	0x9
 1184 037a 6E01     		.2byte	0x16e
 1185 037c 3C010000 		.4byte	0x13c
 1186 0380 08       		.byte	0x8
 1187 0381 08       		.uleb128 0x8
 1188 0382 88060000 		.4byte	.LASF69
 1189 0386 09       		.byte	0x9
 1190 0387 6F01     		.2byte	0x16f
 1191 0389 24030000 		.4byte	0x324
 1192 038d 0C       		.byte	0xc
 1193 038e 08       		.uleb128 0x8
 1194 038f DD050000 		.4byte	.LASF70
 1195 0393 09       		.byte	0x9
 1196 0394 7101     		.2byte	0x171
 1197 0396 40030000 		.4byte	0x340
 1198 039a 10       		.byte	0x10
 1199 039b 00       		.byte	0
 1200 039c 03       		.uleb128 0x3
 1201 039d D5000000 		.4byte	.LASF71
 1202 03a1 08       		.byte	0x8
 1203 03a2 66       		.byte	0x66
 1204 03a3 A7030000 		.4byte	0x3a7
 1205 03a7 0A       		.uleb128 0xa
 1206 03a8 AD030000 		.4byte	.LASF72
 1207 03ac 10       		.byte	0x10
 1208 03ad 09       		.byte	0x9
 1209 03ae 7B01     		.2byte	0x17b
 1210 03b0 E9030000 		.4byte	0x3e9
 1211 03b4 08       		.uleb128 0x8
 1212 03b5 FF010000 		.4byte	.LASF66
 1213 03b9 09       		.byte	0x9
 1214 03ba 7C01     		.2byte	0x17c
 1215 03bc 88070000 		.4byte	0x788
 1216 03c0 00       		.byte	0
 1217 03c1 08       		.uleb128 0x8
 1218 03c2 A9010000 		.4byte	.LASF67
 1219 03c6 09       		.byte	0x9
 1220 03c7 7E01     		.2byte	0x17e
 1221 03c9 88070000 		.4byte	0x788
 1222 03cd 04       		.byte	0x4
 1223 03ce 08       		.uleb128 0x8
 1224 03cf 4E050000 		.4byte	.LASF68
ARM GAS  /tmp/ccmL2APA.s 			page 52


 1225 03d3 09       		.byte	0x9
 1226 03d4 8001     		.2byte	0x180
 1227 03d6 3C010000 		.4byte	0x13c
 1228 03da 08       		.byte	0x8
 1229 03db 08       		.uleb128 0x8
 1230 03dc D3030000 		.4byte	.LASF73
 1231 03e0 09       		.byte	0x9
 1232 03e1 8801     		.2byte	0x188
 1233 03e3 3C010000 		.4byte	0x13c
 1234 03e7 0C       		.byte	0xc
 1235 03e8 00       		.byte	0
 1236 03e9 03       		.uleb128 0x3
 1237 03ea 67000000 		.4byte	.LASF74
 1238 03ee 08       		.byte	0x8
 1239 03ef 6B       		.byte	0x6b
 1240 03f0 F4030000 		.4byte	0x3f4
 1241 03f4 0E       		.uleb128 0xe
 1242 03f5 B1010000 		.4byte	.LASF75
 1243 03f9 1404     		.2byte	0x414
 1244 03fb 09       		.byte	0x9
 1245 03fc A201     		.2byte	0x1a2
 1246 03fe 37040000 		.4byte	0x437
 1247 0402 08       		.uleb128 0x8
 1248 0403 BC050000 		.4byte	.LASF76
 1249 0407 09       		.byte	0x9
 1250 0408 AA01     		.2byte	0x1aa
 1251 040a 8E070000 		.4byte	0x78e
 1252 040e 00       		.byte	0
 1253 040f 08       		.uleb128 0x8
 1254 0410 04060000 		.4byte	.LASF77
 1255 0414 09       		.byte	0x9
 1256 0415 AF01     		.2byte	0x1af
 1257 0417 26010000 		.4byte	0x126
 1258 041b 04       		.byte	0x4
 1259 041c 08       		.uleb128 0x8
 1260 041d C9010000 		.4byte	.LASF78
 1261 0421 09       		.byte	0x9
 1262 0422 B301     		.2byte	0x1b3
 1263 0424 26010000 		.4byte	0x126
 1264 0428 08       		.byte	0x8
 1265 0429 08       		.uleb128 0x8
 1266 042a 52060000 		.4byte	.LASF79
 1267 042e 09       		.byte	0x9
 1268 042f B901     		.2byte	0x1b9
 1269 0431 EE050000 		.4byte	0x5ee
 1270 0435 0C       		.byte	0xc
 1271 0436 00       		.byte	0
 1272 0437 03       		.uleb128 0x3
 1273 0438 7A020000 		.4byte	.LASF80
 1274 043c 08       		.byte	0x8
 1275 043d 70       		.byte	0x70
 1276 043e 42040000 		.4byte	0x442
 1277 0442 0E       		.uleb128 0xe
 1278 0443 5E010000 		.4byte	.LASF81
 1279 0447 D805     		.2byte	0x5d8
 1280 0449 09       		.byte	0x9
 1281 044a C201     		.2byte	0x1c2
ARM GAS  /tmp/ccmL2APA.s 			page 53


 1282 044c AF040000 		.4byte	0x4af
 1283 0450 08       		.uleb128 0x8
 1284 0451 0C060000 		.4byte	.LASF82
 1285 0455 09       		.byte	0x9
 1286 0456 C601     		.2byte	0x1c6
 1287 0458 BD020000 		.4byte	0x2bd
 1288 045c 00       		.byte	0
 1289 045d 08       		.uleb128 0x8
 1290 045e 51010000 		.4byte	.LASF83
 1291 0462 09       		.byte	0x9
 1292 0463 CA01     		.2byte	0x1ca
 1293 0465 9C030000 		.4byte	0x39c
 1294 0469 1C       		.byte	0x1c
 1295 046a 07       		.uleb128 0x7
 1296 046b 64626700 		.ascii	"dbg\000"
 1297 046f 09       		.byte	0x9
 1298 0470 CE01     		.2byte	0x1ce
 1299 0472 E9030000 		.4byte	0x3e9
 1300 0476 2C       		.byte	0x2c
 1301 0477 0F       		.uleb128 0xf
 1302 0478 CA000000 		.4byte	.LASF84
 1303 047c 09       		.byte	0x9
 1304 047d D201     		.2byte	0x1d2
 1305 047f 47010000 		.4byte	0x147
 1306 0483 4004     		.2byte	0x440
 1307 0485 10       		.uleb128 0x10
 1308 0486 746D00   		.ascii	"tm\000"
 1309 0489 09       		.byte	0x9
 1310 048a D701     		.2byte	0x1d7
 1311 048c 0E060000 		.4byte	0x60e
 1312 0490 A004     		.2byte	0x4a0
 1313 0492 0F       		.uleb128 0xf
 1314 0493 33000000 		.4byte	.LASF85
 1315 0497 09       		.byte	0x9
 1316 0498 DD01     		.2byte	0x1dd
 1317 049a A0060000 		.4byte	0x6a0
 1318 049e A804     		.2byte	0x4a8
 1319 04a0 0F       		.uleb128 0xf
 1320 04a1 D2010000 		.4byte	.LASF86
 1321 04a5 09       		.byte	0x9
 1322 04a6 E301     		.2byte	0x1e3
 1323 04a8 93070000 		.4byte	0x793
 1324 04ac E004     		.2byte	0x4e0
 1325 04ae 00       		.byte	0
 1326 04af 04       		.uleb128 0x4
 1327 04b0 04       		.byte	0x4
 1328 04b1 07       		.byte	0x7
 1329 04b2 80030000 		.4byte	.LASF87
 1330 04b6 03       		.uleb128 0x3
 1331 04b7 A0010000 		.4byte	.LASF88
 1332 04bb 0A       		.byte	0xa
 1333 04bc 65       		.byte	0x65
 1334 04bd 40030000 		.4byte	0x340
 1335 04c1 03       		.uleb128 0x3
 1336 04c2 60030000 		.4byte	.LASF89
 1337 04c6 0A       		.byte	0xa
 1338 04c7 6D       		.byte	0x6d
ARM GAS  /tmp/ccmL2APA.s 			page 54


 1339 04c8 C3000000 		.4byte	0xc3
 1340 04cc 05       		.uleb128 0x5
 1341 04cd CD050000 		.4byte	.LASF90
 1342 04d1 04       		.byte	0x4
 1343 04d2 0A       		.byte	0xa
 1344 04d3 89       		.byte	0x89
 1345 04d4 E5040000 		.4byte	0x4e5
 1346 04d8 11       		.uleb128 0x11
 1347 04d9 72313300 		.ascii	"r13\000"
 1348 04dd 0A       		.byte	0xa
 1349 04de 8A       		.byte	0x8a
 1350 04df 60050000 		.4byte	0x560
 1351 04e3 00       		.byte	0
 1352 04e4 00       		.byte	0
 1353 04e5 05       		.uleb128 0x5
 1354 04e6 4A000000 		.4byte	.LASF91
 1355 04ea 24       		.byte	0x24
 1356 04eb 0B       		.byte	0xb
 1357 04ec FD       		.byte	0xfd
 1358 04ed 60050000 		.4byte	0x560
 1359 04f1 07       		.uleb128 0x7
 1360 04f2 723400   		.ascii	"r4\000"
 1361 04f5 0B       		.byte	0xb
 1362 04f6 1001     		.2byte	0x110
 1363 04f8 B6040000 		.4byte	0x4b6
 1364 04fc 00       		.byte	0
 1365 04fd 07       		.uleb128 0x7
 1366 04fe 723500   		.ascii	"r5\000"
 1367 0501 0B       		.byte	0xb
 1368 0502 1101     		.2byte	0x111
 1369 0504 B6040000 		.4byte	0x4b6
 1370 0508 04       		.byte	0x4
 1371 0509 07       		.uleb128 0x7
 1372 050a 723600   		.ascii	"r6\000"
 1373 050d 0B       		.byte	0xb
 1374 050e 1201     		.2byte	0x112
 1375 0510 B6040000 		.4byte	0x4b6
 1376 0514 08       		.byte	0x8
 1377 0515 07       		.uleb128 0x7
 1378 0516 723700   		.ascii	"r7\000"
 1379 0519 0B       		.byte	0xb
 1380 051a 1301     		.2byte	0x113
 1381 051c B6040000 		.4byte	0x4b6
 1382 0520 0C       		.byte	0xc
 1383 0521 07       		.uleb128 0x7
 1384 0522 723800   		.ascii	"r8\000"
 1385 0525 0B       		.byte	0xb
 1386 0526 1401     		.2byte	0x114
 1387 0528 B6040000 		.4byte	0x4b6
 1388 052c 10       		.byte	0x10
 1389 052d 07       		.uleb128 0x7
 1390 052e 723900   		.ascii	"r9\000"
 1391 0531 0B       		.byte	0xb
 1392 0532 1501     		.2byte	0x115
 1393 0534 B6040000 		.4byte	0x4b6
 1394 0538 14       		.byte	0x14
 1395 0539 07       		.uleb128 0x7
ARM GAS  /tmp/ccmL2APA.s 			page 55


 1396 053a 72313000 		.ascii	"r10\000"
 1397 053e 0B       		.byte	0xb
 1398 053f 1601     		.2byte	0x116
 1399 0541 B6040000 		.4byte	0x4b6
 1400 0545 18       		.byte	0x18
 1401 0546 07       		.uleb128 0x7
 1402 0547 72313100 		.ascii	"r11\000"
 1403 054b 0B       		.byte	0xb
 1404 054c 1701     		.2byte	0x117
 1405 054e B6040000 		.4byte	0x4b6
 1406 0552 1C       		.byte	0x1c
 1407 0553 07       		.uleb128 0x7
 1408 0554 6C7200   		.ascii	"lr\000"
 1409 0557 0B       		.byte	0xb
 1410 0558 1801     		.2byte	0x118
 1411 055a B6040000 		.4byte	0x4b6
 1412 055e 20       		.byte	0x20
 1413 055f 00       		.byte	0
 1414 0560 09       		.uleb128 0x9
 1415 0561 04       		.byte	0x4
 1416 0562 E5040000 		.4byte	0x4e5
 1417 0566 12       		.uleb128 0x12
 1418 0567 10       		.byte	0x10
 1419 0568 0C       		.byte	0xc
 1420 0569 51       		.byte	0x51
 1421 056a 9F050000 		.4byte	0x59f
 1422 056e 06       		.uleb128 0x6
 1423 056f 14000000 		.4byte	.LASF92
 1424 0573 0C       		.byte	0xc
 1425 0574 55       		.byte	0x55
 1426 0575 3C010000 		.4byte	0x13c
 1427 0579 00       		.byte	0
 1428 057a 06       		.uleb128 0x6
 1429 057b 7A010000 		.4byte	.LASF93
 1430 057f 0C       		.byte	0xc
 1431 0580 59       		.byte	0x59
 1432 0581 63020000 		.4byte	0x263
 1433 0585 04       		.byte	0x4
 1434 0586 06       		.uleb128 0x6
 1435 0587 78060000 		.4byte	.LASF94
 1436 058b 0C       		.byte	0xc
 1437 058c 5D       		.byte	0x5d
 1438 058d 40030000 		.4byte	0x340
 1439 0591 08       		.byte	0x8
 1440 0592 06       		.uleb128 0x6
 1441 0593 B8000000 		.4byte	.LASF95
 1442 0597 0C       		.byte	0xc
 1443 0598 61       		.byte	0x61
 1444 0599 A2000000 		.4byte	0xa2
 1445 059d 0C       		.byte	0xc
 1446 059e 00       		.byte	0
 1447 059f 03       		.uleb128 0x3
 1448 05a0 C4030000 		.4byte	.LASF96
 1449 05a4 0C       		.byte	0xc
 1450 05a5 62       		.byte	0x62
 1451 05a6 66050000 		.4byte	0x566
 1452 05aa 13       		.uleb128 0x13
ARM GAS  /tmp/ccmL2APA.s 			page 56


 1453 05ab 0804     		.2byte	0x408
 1454 05ad 0C       		.byte	0xc
 1455 05ae 67       		.byte	0x67
 1456 05af D8050000 		.4byte	0x5d8
 1457 05b3 06       		.uleb128 0x6
 1458 05b4 90010000 		.4byte	.LASF97
 1459 05b8 0C       		.byte	0xc
 1460 05b9 6B       		.byte	0x6b
 1461 05ba 37000000 		.4byte	0x37
 1462 05be 00       		.byte	0
 1463 05bf 06       		.uleb128 0x6
 1464 05c0 00000000 		.4byte	.LASF98
 1465 05c4 0C       		.byte	0xc
 1466 05c5 6F       		.byte	0x6f
 1467 05c6 D8050000 		.4byte	0x5d8
 1468 05ca 04       		.byte	0x4
 1469 05cb 06       		.uleb128 0x6
 1470 05cc 5B040000 		.4byte	.LASF99
 1471 05d0 0C       		.byte	0xc
 1472 05d1 73       		.byte	0x73
 1473 05d2 DE050000 		.4byte	0x5de
 1474 05d6 08       		.byte	0x8
 1475 05d7 00       		.byte	0
 1476 05d8 09       		.uleb128 0x9
 1477 05d9 04       		.byte	0x4
 1478 05da 9F050000 		.4byte	0x59f
 1479 05de 14       		.uleb128 0x14
 1480 05df 9F050000 		.4byte	0x59f
 1481 05e3 EE050000 		.4byte	0x5ee
 1482 05e7 15       		.uleb128 0x15
 1483 05e8 AF040000 		.4byte	0x4af
 1484 05ec 3F       		.byte	0x3f
 1485 05ed 00       		.byte	0
 1486 05ee 03       		.uleb128 0x3
 1487 05ef A6000000 		.4byte	.LASF100
 1488 05f3 0C       		.byte	0xc
 1489 05f4 74       		.byte	0x74
 1490 05f5 AA050000 		.4byte	0x5aa
 1491 05f9 12       		.uleb128 0x12
 1492 05fa 04       		.byte	0x4
 1493 05fb 0D       		.byte	0xd
 1494 05fc 38       		.byte	0x38
 1495 05fd 0E060000 		.4byte	0x60e
 1496 0601 06       		.uleb128 0x6
 1497 0602 C6050000 		.4byte	.LASF101
 1498 0606 0D       		.byte	0xd
 1499 0607 3C       		.byte	0x3c
 1500 0608 CE000000 		.4byte	0xce
 1501 060c 00       		.byte	0
 1502 060d 00       		.byte	0
 1503 060e 03       		.uleb128 0x3
 1504 060f 9C030000 		.4byte	.LASF102
 1505 0613 0D       		.byte	0xd
 1506 0614 3D       		.byte	0x3d
 1507 0615 F9050000 		.4byte	0x5f9
 1508 0619 12       		.uleb128 0x12
 1509 061a 18       		.byte	0x18
ARM GAS  /tmp/ccmL2APA.s 			page 57


 1510 061b 0D       		.byte	0xd
 1511 061c 48       		.byte	0x48
 1512 061d 5C060000 		.4byte	0x65c
 1513 0621 06       		.uleb128 0x6
 1514 0622 87050000 		.4byte	.LASF103
 1515 0626 0D       		.byte	0xd
 1516 0627 49       		.byte	0x49
 1517 0628 CE000000 		.4byte	0xce
 1518 062c 00       		.byte	0
 1519 062d 06       		.uleb128 0x6
 1520 062e 76000000 		.4byte	.LASF104
 1521 0632 0D       		.byte	0xd
 1522 0633 4A       		.byte	0x4a
 1523 0634 CE000000 		.4byte	0xce
 1524 0638 04       		.byte	0x4
 1525 0639 06       		.uleb128 0x6
 1526 063a 6E020000 		.4byte	.LASF105
 1527 063e 0D       		.byte	0xd
 1528 063f 4B       		.byte	0x4b
 1529 0640 CE000000 		.4byte	0xce
 1530 0644 08       		.byte	0x8
 1531 0645 11       		.uleb128 0x11
 1532 0646 6E00     		.ascii	"n\000"
 1533 0648 0D       		.byte	0xd
 1534 0649 4C       		.byte	0x4c
 1535 064a 31010000 		.4byte	0x131
 1536 064e 0C       		.byte	0xc
 1537 064f 06       		.uleb128 0x6
 1538 0650 48040000 		.4byte	.LASF106
 1539 0654 0D       		.byte	0xd
 1540 0655 4D       		.byte	0x4d
 1541 0656 D9000000 		.4byte	0xd9
 1542 065a 10       		.byte	0x10
 1543 065b 00       		.byte	0
 1544 065c 03       		.uleb128 0x3
 1545 065d 7C000000 		.4byte	.LASF107
 1546 0661 0D       		.byte	0xd
 1547 0662 4E       		.byte	0x4e
 1548 0663 19060000 		.4byte	0x619
 1549 0667 12       		.uleb128 0x12
 1550 0668 38       		.byte	0x38
 1551 0669 0E       		.byte	0xe
 1552 066a 38       		.byte	0x38
 1553 066b A0060000 		.4byte	0x6a0
 1554 066f 06       		.uleb128 0x6
 1555 0670 2B020000 		.4byte	.LASF108
 1556 0674 0E       		.byte	0xe
 1557 0675 39       		.byte	0x39
 1558 0676 31010000 		.4byte	0x131
 1559 067a 00       		.byte	0
 1560 067b 06       		.uleb128 0x6
 1561 067c 93040000 		.4byte	.LASF109
 1562 0680 0E       		.byte	0xe
 1563 0681 3A       		.byte	0x3a
 1564 0682 31010000 		.4byte	0x131
 1565 0686 04       		.byte	0x4
 1566 0687 06       		.uleb128 0x6
ARM GAS  /tmp/ccmL2APA.s 			page 58


 1567 0688 65060000 		.4byte	.LASF110
 1568 068c 0E       		.byte	0xe
 1569 068d 3B       		.byte	0x3b
 1570 068e 5C060000 		.4byte	0x65c
 1571 0692 08       		.byte	0x8
 1572 0693 06       		.uleb128 0x6
 1573 0694 31030000 		.4byte	.LASF111
 1574 0698 0E       		.byte	0xe
 1575 0699 3D       		.byte	0x3d
 1576 069a 5C060000 		.4byte	0x65c
 1577 069e 20       		.byte	0x20
 1578 069f 00       		.byte	0
 1579 06a0 03       		.uleb128 0x3
 1580 06a1 4F020000 		.4byte	.LASF112
 1581 06a5 0E       		.byte	0xe
 1582 06a6 3F       		.byte	0x3f
 1583 06a7 67060000 		.4byte	0x667
 1584 06ab 16       		.uleb128 0x16
 1585 06ac 04       		.byte	0x4
 1586 06ad 09       		.byte	0x9
 1587 06ae FA       		.byte	0xfa
 1588 06af 08070000 		.4byte	0x708
 1589 06b3 17       		.uleb128 0x17
 1590 06b4 23000000 		.4byte	.LASF113
 1591 06b8 09       		.byte	0x9
 1592 06b9 0101     		.2byte	0x101
 1593 06bb 10010000 		.4byte	0x110
 1594 06bf 17       		.uleb128 0x17
 1595 06c0 C1000000 		.4byte	.LASF114
 1596 06c4 09       		.byte	0x9
 1597 06c5 0801     		.2byte	0x108
 1598 06c7 10010000 		.4byte	0x110
 1599 06cb 17       		.uleb128 0x17
 1600 06cc 35060000 		.4byte	.LASF115
 1601 06d0 09       		.byte	0x9
 1602 06d1 0F01     		.2byte	0x10f
 1603 06d3 40030000 		.4byte	0x340
 1604 06d7 17       		.uleb128 0x17
 1605 06d8 58010000 		.4byte	.LASF116
 1606 06dc 09       		.byte	0x9
 1607 06dd 1601     		.2byte	0x116
 1608 06df 08070000 		.4byte	0x708
 1609 06e3 17       		.uleb128 0x17
 1610 06e4 07020000 		.4byte	.LASF117
 1611 06e8 09       		.byte	0x9
 1612 06e9 1E01     		.2byte	0x11e
 1613 06eb 33070000 		.4byte	0x733
 1614 06ef 17       		.uleb128 0x17
 1615 06f0 3F050000 		.4byte	.LASF118
 1616 06f4 09       		.byte	0x9
 1617 06f5 2701     		.2byte	0x127
 1618 06f7 6A070000 		.4byte	0x76a
 1619 06fb 17       		.uleb128 0x17
 1620 06fc E6040000 		.4byte	.LASF119
 1621 0700 09       		.byte	0x9
 1622 0701 2F01     		.2byte	0x12f
 1623 0703 1B010000 		.4byte	0x11b
ARM GAS  /tmp/ccmL2APA.s 			page 59


 1624 0707 00       		.byte	0
 1625 0708 09       		.uleb128 0x9
 1626 0709 04       		.byte	0x4
 1627 070a 58020000 		.4byte	0x258
 1628 070e 05       		.uleb128 0x5
 1629 070f 1E050000 		.4byte	.LASF120
 1630 0713 0C       		.byte	0xc
 1631 0714 0F       		.byte	0xf
 1632 0715 34       		.byte	0x34
 1633 0716 33070000 		.4byte	0x733
 1634 071a 06       		.uleb128 0x6
 1635 071b 88010000 		.4byte	.LASF121
 1636 071f 0F       		.byte	0xf
 1637 0720 35       		.byte	0x35
 1638 0721 8D020000 		.4byte	0x28d
 1639 0725 00       		.byte	0
 1640 0726 06       		.uleb128 0x6
 1641 0727 31020000 		.4byte	.LASF122
 1642 072b 0F       		.byte	0xf
 1643 072c 37       		.byte	0x37
 1644 072d 26010000 		.4byte	0x126
 1645 0731 08       		.byte	0x8
 1646 0732 00       		.byte	0
 1647 0733 09       		.uleb128 0x9
 1648 0734 04       		.byte	0x4
 1649 0735 0E070000 		.4byte	0x70e
 1650 0739 05       		.uleb128 0x5
 1651 073a F4050000 		.4byte	.LASF123
 1652 073e 10       		.byte	0x10
 1653 073f 10       		.byte	0x10
 1654 0740 39       		.byte	0x39
 1655 0741 6A070000 		.4byte	0x76a
 1656 0745 06       		.uleb128 0x6
 1657 0746 49010000 		.4byte	.LASF124
 1658 074a 10       		.byte	0x10
 1659 074b 3A       		.byte	0x3a
 1660 074c 8D020000 		.4byte	0x28d
 1661 0750 00       		.byte	0
 1662 0751 06       		.uleb128 0x6
 1663 0752 70060000 		.4byte	.LASF125
 1664 0756 10       		.byte	0x10
 1665 0757 3C       		.byte	0x3c
 1666 0758 63020000 		.4byte	0x263
 1667 075c 08       		.byte	0x8
 1668 075d 06       		.uleb128 0x6
 1669 075e 8C050000 		.4byte	.LASF126
 1670 0762 10       		.byte	0x10
 1671 0763 3E       		.byte	0x3e
 1672 0764 AE070000 		.4byte	0x7ae
 1673 0768 0C       		.byte	0xc
 1674 0769 00       		.byte	0
 1675 076a 09       		.uleb128 0x9
 1676 076b 04       		.byte	0x4
 1677 076c 39070000 		.4byte	0x739
 1678 0770 09       		.uleb128 0x9
 1679 0771 04       		.byte	0x4
 1680 0772 76070000 		.4byte	0x776
ARM GAS  /tmp/ccmL2APA.s 			page 60


 1681 0776 18       		.uleb128 0x18
 1682 0777 7B070000 		.4byte	0x77b
 1683 077b 04       		.uleb128 0x4
 1684 077c 01       		.byte	0x1
 1685 077d 08       		.byte	0x8
 1686 077e 79050000 		.4byte	.LASF127
 1687 0782 09       		.uleb128 0x9
 1688 0783 04       		.byte	0x4
 1689 0784 C1040000 		.4byte	0x4c1
 1690 0788 09       		.uleb128 0x9
 1691 0789 04       		.byte	0x4
 1692 078a 42030000 		.4byte	0x342
 1693 078e 19       		.uleb128 0x19
 1694 078f 70070000 		.4byte	0x770
 1695 0793 14       		.uleb128 0x14
 1696 0794 C1040000 		.4byte	0x4c1
 1697 0798 A3070000 		.4byte	0x7a3
 1698 079c 15       		.uleb128 0x15
 1699 079d AF040000 		.4byte	0x4af
 1700 07a1 1E       		.byte	0x1e
 1701 07a2 00       		.byte	0
 1702 07a3 03       		.uleb128 0x3
 1703 07a4 C1010000 		.4byte	.LASF128
 1704 07a8 10       		.byte	0x10
 1705 07a9 34       		.byte	0x34
 1706 07aa 39070000 		.4byte	0x739
 1707 07ae 09       		.uleb128 0x9
 1708 07af 04       		.byte	0x4
 1709 07b0 A3070000 		.4byte	0x7a3
 1710 07b4 05       		.uleb128 0x5
 1711 07b5 15050000 		.4byte	.LASF129
 1712 07b9 10       		.byte	0x10
 1713 07ba 11       		.byte	0x11
 1714 07bb 3B       		.byte	0x3b
 1715 07bc F1070000 		.4byte	0x7f1
 1716 07c0 06       		.uleb128 0x6
 1717 07c1 37020000 		.4byte	.LASF130
 1718 07c5 11       		.byte	0x11
 1719 07c6 3C       		.byte	0x3c
 1720 07c7 70070000 		.4byte	0x770
 1721 07cb 00       		.byte	0
 1722 07cc 06       		.uleb128 0x6
 1723 07cd FF030000 		.4byte	.LASF131
 1724 07d1 11       		.byte	0x11
 1725 07d2 3D       		.byte	0x3d
 1726 07d3 F2070000 		.4byte	0x7f2
 1727 07d7 04       		.byte	0x4
 1728 07d8 06       		.uleb128 0x6
 1729 07d9 19020000 		.4byte	.LASF132
 1730 07dd 11       		.byte	0x11
 1731 07de 3E       		.byte	0x3e
 1732 07df F2070000 		.4byte	0x7f2
 1733 07e3 08       		.byte	0x8
 1734 07e4 06       		.uleb128 0x6
 1735 07e5 7C040000 		.4byte	.LASF133
 1736 07e9 11       		.byte	0x11
 1737 07ea 3F       		.byte	0x3f
ARM GAS  /tmp/ccmL2APA.s 			page 61


 1738 07eb F2070000 		.4byte	0x7f2
 1739 07ef 0C       		.byte	0xc
 1740 07f0 00       		.byte	0
 1741 07f1 1A       		.uleb128 0x1a
 1742 07f2 09       		.uleb128 0x9
 1743 07f3 04       		.byte	0x4
 1744 07f4 F1070000 		.4byte	0x7f1
 1745 07f8 1B       		.uleb128 0x1b
 1746 07f9 12060000 		.4byte	.LASF134
 1747 07fd 01       		.byte	0x1
 1748 07fe AE       		.byte	0xae
 1749 07ff 63020000 		.4byte	0x263
 1750 0803 00000000 		.4byte	.LFB189
 1751 0807 0E000000 		.4byte	.LFE189-.LFB189
 1752 080b 01       		.uleb128 0x1
 1753 080c 9C       		.byte	0x9c
 1754 080d 1C       		.uleb128 0x1c
 1755 080e ED030000 		.4byte	.LASF135
 1756 0812 01       		.byte	0x1
 1757 0813 BB       		.byte	0xbb
 1758 0814 05010000 		.4byte	0x105
 1759 0818 00000000 		.4byte	.LFB190
 1760 081c 0E000000 		.4byte	.LFE190-.LFB190
 1761 0820 01       		.uleb128 0x1
 1762 0821 9C       		.byte	0x9c
 1763 0822 1D       		.uleb128 0x1d
 1764 0823 22020000 		.4byte	.LASF145
 1765 0827 02       		.byte	0x2
 1766 0828 60       		.byte	0x60
 1767 0829 10010000 		.4byte	0x110
 1768 082d 00000000 		.4byte	.LFB223
 1769 0831 0E000000 		.4byte	.LFE223-.LFB223
 1770 0835 01       		.uleb128 0x1
 1771 0836 9C       		.byte	0x9c
 1772 0837 49080000 		.4byte	0x849
 1773 083b 1E       		.uleb128 0x1e
 1774 083c 747000   		.ascii	"tp\000"
 1775 083f 02       		.byte	0x2
 1776 0840 60       		.byte	0x60
 1777 0841 63020000 		.4byte	0x263
 1778 0845 02       		.uleb128 0x2
 1779 0846 91       		.byte	0x91
 1780 0847 7C       		.sleb128 -4
 1781 0848 00       		.byte	0
 1782 0849 1F       		.uleb128 0x1f
 1783 084a 8C040000 		.4byte	.LASF136
 1784 084e 03       		.byte	0x3
 1785 084f 3B       		.byte	0x3b
 1786 0850 00000000 		.4byte	.LFB241
 1787 0854 24000000 		.4byte	.LFE241-.LFB241
 1788 0858 01       		.uleb128 0x1
 1789 0859 9C       		.byte	0x9c
 1790 085a 6B080000 		.4byte	0x86b
 1791 085e 1E       		.uleb128 0x1e
 1792 085f 7000     		.ascii	"p\000"
 1793 0861 03       		.byte	0x3
 1794 0862 3B       		.byte	0x3b
ARM GAS  /tmp/ccmL2APA.s 			page 62


 1795 0863 40030000 		.4byte	0x340
 1796 0867 02       		.uleb128 0x2
 1797 0868 91       		.byte	0x91
 1798 0869 74       		.sleb128 -12
 1799 086a 00       		.byte	0
 1800 086b 1F       		.uleb128 0x1f
 1801 086c 28060000 		.4byte	.LASF137
 1802 0870 03       		.byte	0x3
 1803 0871 42       		.byte	0x42
 1804 0872 00000000 		.4byte	.LFB242
 1805 0876 B8000000 		.4byte	.LFE242-.LFB242
 1806 087a 01       		.uleb128 0x1
 1807 087b 9C       		.byte	0x9c
 1808 087c 9C080000 		.4byte	0x89c
 1809 0880 20       		.uleb128 0x20
 1810 0881 747000   		.ascii	"tp\000"
 1811 0884 03       		.byte	0x3
 1812 0885 43       		.byte	0x43
 1813 0886 63020000 		.4byte	0x263
 1814 088a 02       		.uleb128 0x2
 1815 088b 91       		.byte	0x91
 1816 088c 6C       		.sleb128 -20
 1817 088d 20       		.uleb128 0x20
 1818 088e 6D736700 		.ascii	"msg\000"
 1819 0892 03       		.byte	0x3
 1820 0893 44       		.byte	0x44
 1821 0894 10010000 		.4byte	0x110
 1822 0898 02       		.uleb128 0x2
 1823 0899 91       		.byte	0x91
 1824 089a 68       		.sleb128 -24
 1825 089b 00       		.byte	0
 1826 089c 21       		.uleb128 0x21
 1827 089d EB000000 		.4byte	.LASF138
 1828 08a1 12       		.byte	0x12
 1829 08a2 FA06     		.2byte	0x6fa
 1830 08a4 A8080000 		.4byte	0x8a8
 1831 08a8 19       		.uleb128 0x19
 1832 08a9 AD000000 		.4byte	0xad
 1833 08ad 22       		.uleb128 0x22
 1834 08ae 636800   		.ascii	"ch\000"
 1835 08b1 09       		.byte	0x9
 1836 08b2 0902     		.2byte	0x209
 1837 08b4 37040000 		.4byte	0x437
 1838 08b8 14       		.uleb128 0x14
 1839 08b9 63020000 		.4byte	0x263
 1840 08bd C8080000 		.4byte	0x8c8
 1841 08c1 15       		.uleb128 0x15
 1842 08c2 AF040000 		.4byte	0x4af
 1843 08c6 04       		.byte	0x4
 1844 08c7 00       		.byte	0
 1845 08c8 23       		.uleb128 0x23
 1846 08c9 CE040000 		.4byte	.LASF139
 1847 08cd 11       		.byte	0x11
 1848 08ce A7       		.byte	0xa7
 1849 08cf B8080000 		.4byte	0x8b8
 1850 08d3 14       		.uleb128 0x14
 1851 08d4 40030000 		.4byte	0x340
ARM GAS  /tmp/ccmL2APA.s 			page 63


 1852 08d8 DE080000 		.4byte	0x8de
 1853 08dc 24       		.uleb128 0x24
 1854 08dd 00       		.byte	0
 1855 08de 25       		.uleb128 0x25
 1856 08df 776100   		.ascii	"wa\000"
 1857 08e2 11       		.byte	0x11
 1858 08e3 A9       		.byte	0xa9
 1859 08e4 E8080000 		.4byte	0x8e8
 1860 08e8 18       		.uleb128 0x18
 1861 08e9 D3080000 		.4byte	0x8d3
 1862 08ed 26       		.uleb128 0x26
 1863 08ee DD040000 		.4byte	.LASF140
 1864 08f2 03       		.byte	0x3
 1865 08f3 5A       		.byte	0x5a
 1866 08f4 FE080000 		.4byte	0x8fe
 1867 08f8 05       		.uleb128 0x5
 1868 08f9 03       		.byte	0x3
 1869 08fa 00000000 		.4byte	testmsg1
 1870 08fe 18       		.uleb128 0x18
 1871 08ff B4070000 		.4byte	0x7b4
 1872 0903 14       		.uleb128 0x14
 1873 0904 13090000 		.4byte	0x913
 1874 0908 13090000 		.4byte	0x913
 1875 090c 15       		.uleb128 0x15
 1876 090d AF040000 		.4byte	0x4af
 1877 0911 01       		.byte	0x1
 1878 0912 00       		.byte	0
 1879 0913 09       		.uleb128 0x9
 1880 0914 04       		.byte	0x4
 1881 0915 FE080000 		.4byte	0x8fe
 1882 0919 26       		.uleb128 0x26
 1883 091a 75030000 		.4byte	.LASF141
 1884 091e 03       		.byte	0x3
 1885 091f 66       		.byte	0x66
 1886 0920 2A090000 		.4byte	0x92a
 1887 0924 05       		.uleb128 0x5
 1888 0925 03       		.byte	0x3
 1889 0926 00000000 		.4byte	patternmsg
 1890 092a 18       		.uleb128 0x18
 1891 092b 03090000 		.4byte	0x903
 1892 092f 00       		.byte	0
 1893              		.section	.debug_abbrev,"",%progbits
 1894              	.Ldebug_abbrev0:
 1895 0000 01       		.uleb128 0x1
 1896 0001 11       		.uleb128 0x11
 1897 0002 01       		.byte	0x1
 1898 0003 25       		.uleb128 0x25
 1899 0004 0E       		.uleb128 0xe
 1900 0005 13       		.uleb128 0x13
 1901 0006 0B       		.uleb128 0xb
 1902 0007 03       		.uleb128 0x3
 1903 0008 0E       		.uleb128 0xe
 1904 0009 1B       		.uleb128 0x1b
 1905 000a 0E       		.uleb128 0xe
 1906 000b 55       		.uleb128 0x55
 1907 000c 17       		.uleb128 0x17
 1908 000d 11       		.uleb128 0x11
ARM GAS  /tmp/ccmL2APA.s 			page 64


 1909 000e 01       		.uleb128 0x1
 1910 000f 10       		.uleb128 0x10
 1911 0010 17       		.uleb128 0x17
 1912 0011 00       		.byte	0
 1913 0012 00       		.byte	0
 1914 0013 02       		.uleb128 0x2
 1915 0014 24       		.uleb128 0x24
 1916 0015 00       		.byte	0
 1917 0016 0B       		.uleb128 0xb
 1918 0017 0B       		.uleb128 0xb
 1919 0018 3E       		.uleb128 0x3e
 1920 0019 0B       		.uleb128 0xb
 1921 001a 03       		.uleb128 0x3
 1922 001b 08       		.uleb128 0x8
 1923 001c 00       		.byte	0
 1924 001d 00       		.byte	0
 1925 001e 03       		.uleb128 0x3
 1926 001f 16       		.uleb128 0x16
 1927 0020 00       		.byte	0
 1928 0021 03       		.uleb128 0x3
 1929 0022 0E       		.uleb128 0xe
 1930 0023 3A       		.uleb128 0x3a
 1931 0024 0B       		.uleb128 0xb
 1932 0025 3B       		.uleb128 0x3b
 1933 0026 0B       		.uleb128 0xb
 1934 0027 49       		.uleb128 0x49
 1935 0028 13       		.uleb128 0x13
 1936 0029 00       		.byte	0
 1937 002a 00       		.byte	0
 1938 002b 04       		.uleb128 0x4
 1939 002c 24       		.uleb128 0x24
 1940 002d 00       		.byte	0
 1941 002e 0B       		.uleb128 0xb
 1942 002f 0B       		.uleb128 0xb
 1943 0030 3E       		.uleb128 0x3e
 1944 0031 0B       		.uleb128 0xb
 1945 0032 03       		.uleb128 0x3
 1946 0033 0E       		.uleb128 0xe
 1947 0034 00       		.byte	0
 1948 0035 00       		.byte	0
 1949 0036 05       		.uleb128 0x5
 1950 0037 13       		.uleb128 0x13
 1951 0038 01       		.byte	0x1
 1952 0039 03       		.uleb128 0x3
 1953 003a 0E       		.uleb128 0xe
 1954 003b 0B       		.uleb128 0xb
 1955 003c 0B       		.uleb128 0xb
 1956 003d 3A       		.uleb128 0x3a
 1957 003e 0B       		.uleb128 0xb
 1958 003f 3B       		.uleb128 0x3b
 1959 0040 0B       		.uleb128 0xb
 1960 0041 01       		.uleb128 0x1
 1961 0042 13       		.uleb128 0x13
 1962 0043 00       		.byte	0
 1963 0044 00       		.byte	0
 1964 0045 06       		.uleb128 0x6
 1965 0046 0D       		.uleb128 0xd
ARM GAS  /tmp/ccmL2APA.s 			page 65


 1966 0047 00       		.byte	0
 1967 0048 03       		.uleb128 0x3
 1968 0049 0E       		.uleb128 0xe
 1969 004a 3A       		.uleb128 0x3a
 1970 004b 0B       		.uleb128 0xb
 1971 004c 3B       		.uleb128 0x3b
 1972 004d 0B       		.uleb128 0xb
 1973 004e 49       		.uleb128 0x49
 1974 004f 13       		.uleb128 0x13
 1975 0050 38       		.uleb128 0x38
 1976 0051 0B       		.uleb128 0xb
 1977 0052 00       		.byte	0
 1978 0053 00       		.byte	0
 1979 0054 07       		.uleb128 0x7
 1980 0055 0D       		.uleb128 0xd
 1981 0056 00       		.byte	0
 1982 0057 03       		.uleb128 0x3
 1983 0058 08       		.uleb128 0x8
 1984 0059 3A       		.uleb128 0x3a
 1985 005a 0B       		.uleb128 0xb
 1986 005b 3B       		.uleb128 0x3b
 1987 005c 05       		.uleb128 0x5
 1988 005d 49       		.uleb128 0x49
 1989 005e 13       		.uleb128 0x13
 1990 005f 38       		.uleb128 0x38
 1991 0060 0B       		.uleb128 0xb
 1992 0061 00       		.byte	0
 1993 0062 00       		.byte	0
 1994 0063 08       		.uleb128 0x8
 1995 0064 0D       		.uleb128 0xd
 1996 0065 00       		.byte	0
 1997 0066 03       		.uleb128 0x3
 1998 0067 0E       		.uleb128 0xe
 1999 0068 3A       		.uleb128 0x3a
 2000 0069 0B       		.uleb128 0xb
 2001 006a 3B       		.uleb128 0x3b
 2002 006b 05       		.uleb128 0x5
 2003 006c 49       		.uleb128 0x49
 2004 006d 13       		.uleb128 0x13
 2005 006e 38       		.uleb128 0x38
 2006 006f 0B       		.uleb128 0xb
 2007 0070 00       		.byte	0
 2008 0071 00       		.byte	0
 2009 0072 09       		.uleb128 0x9
 2010 0073 0F       		.uleb128 0xf
 2011 0074 00       		.byte	0
 2012 0075 0B       		.uleb128 0xb
 2013 0076 0B       		.uleb128 0xb
 2014 0077 49       		.uleb128 0x49
 2015 0078 13       		.uleb128 0x13
 2016 0079 00       		.byte	0
 2017 007a 00       		.byte	0
 2018 007b 0A       		.uleb128 0xa
 2019 007c 13       		.uleb128 0x13
 2020 007d 01       		.byte	0x1
 2021 007e 03       		.uleb128 0x3
 2022 007f 0E       		.uleb128 0xe
ARM GAS  /tmp/ccmL2APA.s 			page 66


 2023 0080 0B       		.uleb128 0xb
 2024 0081 0B       		.uleb128 0xb
 2025 0082 3A       		.uleb128 0x3a
 2026 0083 0B       		.uleb128 0xb
 2027 0084 3B       		.uleb128 0x3b
 2028 0085 05       		.uleb128 0x5
 2029 0086 01       		.uleb128 0x1
 2030 0087 13       		.uleb128 0x13
 2031 0088 00       		.byte	0
 2032 0089 00       		.byte	0
 2033 008a 0B       		.uleb128 0xb
 2034 008b 15       		.uleb128 0x15
 2035 008c 01       		.byte	0x1
 2036 008d 27       		.uleb128 0x27
 2037 008e 19       		.uleb128 0x19
 2038 008f 01       		.uleb128 0x1
 2039 0090 13       		.uleb128 0x13
 2040 0091 00       		.byte	0
 2041 0092 00       		.byte	0
 2042 0093 0C       		.uleb128 0xc
 2043 0094 05       		.uleb128 0x5
 2044 0095 00       		.byte	0
 2045 0096 49       		.uleb128 0x49
 2046 0097 13       		.uleb128 0x13
 2047 0098 00       		.byte	0
 2048 0099 00       		.byte	0
 2049 009a 0D       		.uleb128 0xd
 2050 009b 0F       		.uleb128 0xf
 2051 009c 00       		.byte	0
 2052 009d 0B       		.uleb128 0xb
 2053 009e 0B       		.uleb128 0xb
 2054 009f 00       		.byte	0
 2055 00a0 00       		.byte	0
 2056 00a1 0E       		.uleb128 0xe
 2057 00a2 13       		.uleb128 0x13
 2058 00a3 01       		.byte	0x1
 2059 00a4 03       		.uleb128 0x3
 2060 00a5 0E       		.uleb128 0xe
 2061 00a6 0B       		.uleb128 0xb
 2062 00a7 05       		.uleb128 0x5
 2063 00a8 3A       		.uleb128 0x3a
 2064 00a9 0B       		.uleb128 0xb
 2065 00aa 3B       		.uleb128 0x3b
 2066 00ab 05       		.uleb128 0x5
 2067 00ac 01       		.uleb128 0x1
 2068 00ad 13       		.uleb128 0x13
 2069 00ae 00       		.byte	0
 2070 00af 00       		.byte	0
 2071 00b0 0F       		.uleb128 0xf
 2072 00b1 0D       		.uleb128 0xd
 2073 00b2 00       		.byte	0
 2074 00b3 03       		.uleb128 0x3
 2075 00b4 0E       		.uleb128 0xe
 2076 00b5 3A       		.uleb128 0x3a
 2077 00b6 0B       		.uleb128 0xb
 2078 00b7 3B       		.uleb128 0x3b
 2079 00b8 05       		.uleb128 0x5
ARM GAS  /tmp/ccmL2APA.s 			page 67


 2080 00b9 49       		.uleb128 0x49
 2081 00ba 13       		.uleb128 0x13
 2082 00bb 38       		.uleb128 0x38
 2083 00bc 05       		.uleb128 0x5
 2084 00bd 00       		.byte	0
 2085 00be 00       		.byte	0
 2086 00bf 10       		.uleb128 0x10
 2087 00c0 0D       		.uleb128 0xd
 2088 00c1 00       		.byte	0
 2089 00c2 03       		.uleb128 0x3
 2090 00c3 08       		.uleb128 0x8
 2091 00c4 3A       		.uleb128 0x3a
 2092 00c5 0B       		.uleb128 0xb
 2093 00c6 3B       		.uleb128 0x3b
 2094 00c7 05       		.uleb128 0x5
 2095 00c8 49       		.uleb128 0x49
 2096 00c9 13       		.uleb128 0x13
 2097 00ca 38       		.uleb128 0x38
 2098 00cb 05       		.uleb128 0x5
 2099 00cc 00       		.byte	0
 2100 00cd 00       		.byte	0
 2101 00ce 11       		.uleb128 0x11
 2102 00cf 0D       		.uleb128 0xd
 2103 00d0 00       		.byte	0
 2104 00d1 03       		.uleb128 0x3
 2105 00d2 08       		.uleb128 0x8
 2106 00d3 3A       		.uleb128 0x3a
 2107 00d4 0B       		.uleb128 0xb
 2108 00d5 3B       		.uleb128 0x3b
 2109 00d6 0B       		.uleb128 0xb
 2110 00d7 49       		.uleb128 0x49
 2111 00d8 13       		.uleb128 0x13
 2112 00d9 38       		.uleb128 0x38
 2113 00da 0B       		.uleb128 0xb
 2114 00db 00       		.byte	0
 2115 00dc 00       		.byte	0
 2116 00dd 12       		.uleb128 0x12
 2117 00de 13       		.uleb128 0x13
 2118 00df 01       		.byte	0x1
 2119 00e0 0B       		.uleb128 0xb
 2120 00e1 0B       		.uleb128 0xb
 2121 00e2 3A       		.uleb128 0x3a
 2122 00e3 0B       		.uleb128 0xb
 2123 00e4 3B       		.uleb128 0x3b
 2124 00e5 0B       		.uleb128 0xb
 2125 00e6 01       		.uleb128 0x1
 2126 00e7 13       		.uleb128 0x13
 2127 00e8 00       		.byte	0
 2128 00e9 00       		.byte	0
 2129 00ea 13       		.uleb128 0x13
 2130 00eb 13       		.uleb128 0x13
 2131 00ec 01       		.byte	0x1
 2132 00ed 0B       		.uleb128 0xb
 2133 00ee 05       		.uleb128 0x5
 2134 00ef 3A       		.uleb128 0x3a
 2135 00f0 0B       		.uleb128 0xb
 2136 00f1 3B       		.uleb128 0x3b
ARM GAS  /tmp/ccmL2APA.s 			page 68


 2137 00f2 0B       		.uleb128 0xb
 2138 00f3 01       		.uleb128 0x1
 2139 00f4 13       		.uleb128 0x13
 2140 00f5 00       		.byte	0
 2141 00f6 00       		.byte	0
 2142 00f7 14       		.uleb128 0x14
 2143 00f8 01       		.uleb128 0x1
 2144 00f9 01       		.byte	0x1
 2145 00fa 49       		.uleb128 0x49
 2146 00fb 13       		.uleb128 0x13
 2147 00fc 01       		.uleb128 0x1
 2148 00fd 13       		.uleb128 0x13
 2149 00fe 00       		.byte	0
 2150 00ff 00       		.byte	0
 2151 0100 15       		.uleb128 0x15
 2152 0101 21       		.uleb128 0x21
 2153 0102 00       		.byte	0
 2154 0103 49       		.uleb128 0x49
 2155 0104 13       		.uleb128 0x13
 2156 0105 2F       		.uleb128 0x2f
 2157 0106 0B       		.uleb128 0xb
 2158 0107 00       		.byte	0
 2159 0108 00       		.byte	0
 2160 0109 16       		.uleb128 0x16
 2161 010a 17       		.uleb128 0x17
 2162 010b 01       		.byte	0x1
 2163 010c 0B       		.uleb128 0xb
 2164 010d 0B       		.uleb128 0xb
 2165 010e 3A       		.uleb128 0x3a
 2166 010f 0B       		.uleb128 0xb
 2167 0110 3B       		.uleb128 0x3b
 2168 0111 0B       		.uleb128 0xb
 2169 0112 01       		.uleb128 0x1
 2170 0113 13       		.uleb128 0x13
 2171 0114 00       		.byte	0
 2172 0115 00       		.byte	0
 2173 0116 17       		.uleb128 0x17
 2174 0117 0D       		.uleb128 0xd
 2175 0118 00       		.byte	0
 2176 0119 03       		.uleb128 0x3
 2177 011a 0E       		.uleb128 0xe
 2178 011b 3A       		.uleb128 0x3a
 2179 011c 0B       		.uleb128 0xb
 2180 011d 3B       		.uleb128 0x3b
 2181 011e 05       		.uleb128 0x5
 2182 011f 49       		.uleb128 0x49
 2183 0120 13       		.uleb128 0x13
 2184 0121 00       		.byte	0
 2185 0122 00       		.byte	0
 2186 0123 18       		.uleb128 0x18
 2187 0124 26       		.uleb128 0x26
 2188 0125 00       		.byte	0
 2189 0126 49       		.uleb128 0x49
 2190 0127 13       		.uleb128 0x13
 2191 0128 00       		.byte	0
 2192 0129 00       		.byte	0
 2193 012a 19       		.uleb128 0x19
ARM GAS  /tmp/ccmL2APA.s 			page 69


 2194 012b 35       		.uleb128 0x35
 2195 012c 00       		.byte	0
 2196 012d 49       		.uleb128 0x49
 2197 012e 13       		.uleb128 0x13
 2198 012f 00       		.byte	0
 2199 0130 00       		.byte	0
 2200 0131 1A       		.uleb128 0x1a
 2201 0132 15       		.uleb128 0x15
 2202 0133 00       		.byte	0
 2203 0134 27       		.uleb128 0x27
 2204 0135 19       		.uleb128 0x19
 2205 0136 00       		.byte	0
 2206 0137 00       		.byte	0
 2207 0138 1B       		.uleb128 0x1b
 2208 0139 2E       		.uleb128 0x2e
 2209 013a 00       		.byte	0
 2210 013b 03       		.uleb128 0x3
 2211 013c 0E       		.uleb128 0xe
 2212 013d 3A       		.uleb128 0x3a
 2213 013e 0B       		.uleb128 0xb
 2214 013f 3B       		.uleb128 0x3b
 2215 0140 0B       		.uleb128 0xb
 2216 0141 27       		.uleb128 0x27
 2217 0142 19       		.uleb128 0x19
 2218 0143 49       		.uleb128 0x49
 2219 0144 13       		.uleb128 0x13
 2220 0145 11       		.uleb128 0x11
 2221 0146 01       		.uleb128 0x1
 2222 0147 12       		.uleb128 0x12
 2223 0148 06       		.uleb128 0x6
 2224 0149 40       		.uleb128 0x40
 2225 014a 18       		.uleb128 0x18
 2226 014b 9742     		.uleb128 0x2117
 2227 014d 19       		.uleb128 0x19
 2228 014e 00       		.byte	0
 2229 014f 00       		.byte	0
 2230 0150 1C       		.uleb128 0x1c
 2231 0151 2E       		.uleb128 0x2e
 2232 0152 00       		.byte	0
 2233 0153 03       		.uleb128 0x3
 2234 0154 0E       		.uleb128 0xe
 2235 0155 3A       		.uleb128 0x3a
 2236 0156 0B       		.uleb128 0xb
 2237 0157 3B       		.uleb128 0x3b
 2238 0158 0B       		.uleb128 0xb
 2239 0159 27       		.uleb128 0x27
 2240 015a 19       		.uleb128 0x19
 2241 015b 49       		.uleb128 0x49
 2242 015c 13       		.uleb128 0x13
 2243 015d 11       		.uleb128 0x11
 2244 015e 01       		.uleb128 0x1
 2245 015f 12       		.uleb128 0x12
 2246 0160 06       		.uleb128 0x6
 2247 0161 40       		.uleb128 0x40
 2248 0162 18       		.uleb128 0x18
 2249 0163 9642     		.uleb128 0x2116
 2250 0165 19       		.uleb128 0x19
ARM GAS  /tmp/ccmL2APA.s 			page 70


 2251 0166 00       		.byte	0
 2252 0167 00       		.byte	0
 2253 0168 1D       		.uleb128 0x1d
 2254 0169 2E       		.uleb128 0x2e
 2255 016a 01       		.byte	0x1
 2256 016b 03       		.uleb128 0x3
 2257 016c 0E       		.uleb128 0xe
 2258 016d 3A       		.uleb128 0x3a
 2259 016e 0B       		.uleb128 0xb
 2260 016f 3B       		.uleb128 0x3b
 2261 0170 0B       		.uleb128 0xb
 2262 0171 27       		.uleb128 0x27
 2263 0172 19       		.uleb128 0x19
 2264 0173 49       		.uleb128 0x49
 2265 0174 13       		.uleb128 0x13
 2266 0175 11       		.uleb128 0x11
 2267 0176 01       		.uleb128 0x1
 2268 0177 12       		.uleb128 0x12
 2269 0178 06       		.uleb128 0x6
 2270 0179 40       		.uleb128 0x40
 2271 017a 18       		.uleb128 0x18
 2272 017b 9742     		.uleb128 0x2117
 2273 017d 19       		.uleb128 0x19
 2274 017e 01       		.uleb128 0x1
 2275 017f 13       		.uleb128 0x13
 2276 0180 00       		.byte	0
 2277 0181 00       		.byte	0
 2278 0182 1E       		.uleb128 0x1e
 2279 0183 05       		.uleb128 0x5
 2280 0184 00       		.byte	0
 2281 0185 03       		.uleb128 0x3
 2282 0186 08       		.uleb128 0x8
 2283 0187 3A       		.uleb128 0x3a
 2284 0188 0B       		.uleb128 0xb
 2285 0189 3B       		.uleb128 0x3b
 2286 018a 0B       		.uleb128 0xb
 2287 018b 49       		.uleb128 0x49
 2288 018c 13       		.uleb128 0x13
 2289 018d 02       		.uleb128 0x2
 2290 018e 18       		.uleb128 0x18
 2291 018f 00       		.byte	0
 2292 0190 00       		.byte	0
 2293 0191 1F       		.uleb128 0x1f
 2294 0192 2E       		.uleb128 0x2e
 2295 0193 01       		.byte	0x1
 2296 0194 03       		.uleb128 0x3
 2297 0195 0E       		.uleb128 0xe
 2298 0196 3A       		.uleb128 0x3a
 2299 0197 0B       		.uleb128 0xb
 2300 0198 3B       		.uleb128 0x3b
 2301 0199 0B       		.uleb128 0xb
 2302 019a 27       		.uleb128 0x27
 2303 019b 19       		.uleb128 0x19
 2304 019c 11       		.uleb128 0x11
 2305 019d 01       		.uleb128 0x1
 2306 019e 12       		.uleb128 0x12
 2307 019f 06       		.uleb128 0x6
ARM GAS  /tmp/ccmL2APA.s 			page 71


 2308 01a0 40       		.uleb128 0x40
 2309 01a1 18       		.uleb128 0x18
 2310 01a2 9642     		.uleb128 0x2116
 2311 01a4 19       		.uleb128 0x19
 2312 01a5 01       		.uleb128 0x1
 2313 01a6 13       		.uleb128 0x13
 2314 01a7 00       		.byte	0
 2315 01a8 00       		.byte	0
 2316 01a9 20       		.uleb128 0x20
 2317 01aa 34       		.uleb128 0x34
 2318 01ab 00       		.byte	0
 2319 01ac 03       		.uleb128 0x3
 2320 01ad 08       		.uleb128 0x8
 2321 01ae 3A       		.uleb128 0x3a
 2322 01af 0B       		.uleb128 0xb
 2323 01b0 3B       		.uleb128 0x3b
 2324 01b1 0B       		.uleb128 0xb
 2325 01b2 49       		.uleb128 0x49
 2326 01b3 13       		.uleb128 0x13
 2327 01b4 02       		.uleb128 0x2
 2328 01b5 18       		.uleb128 0x18
 2329 01b6 00       		.byte	0
 2330 01b7 00       		.byte	0
 2331 01b8 21       		.uleb128 0x21
 2332 01b9 34       		.uleb128 0x34
 2333 01ba 00       		.byte	0
 2334 01bb 03       		.uleb128 0x3
 2335 01bc 0E       		.uleb128 0xe
 2336 01bd 3A       		.uleb128 0x3a
 2337 01be 0B       		.uleb128 0xb
 2338 01bf 3B       		.uleb128 0x3b
 2339 01c0 05       		.uleb128 0x5
 2340 01c1 49       		.uleb128 0x49
 2341 01c2 13       		.uleb128 0x13
 2342 01c3 3F       		.uleb128 0x3f
 2343 01c4 19       		.uleb128 0x19
 2344 01c5 3C       		.uleb128 0x3c
 2345 01c6 19       		.uleb128 0x19
 2346 01c7 00       		.byte	0
 2347 01c8 00       		.byte	0
 2348 01c9 22       		.uleb128 0x22
 2349 01ca 34       		.uleb128 0x34
 2350 01cb 00       		.byte	0
 2351 01cc 03       		.uleb128 0x3
 2352 01cd 08       		.uleb128 0x8
 2353 01ce 3A       		.uleb128 0x3a
 2354 01cf 0B       		.uleb128 0xb
 2355 01d0 3B       		.uleb128 0x3b
 2356 01d1 05       		.uleb128 0x5
 2357 01d2 49       		.uleb128 0x49
 2358 01d3 13       		.uleb128 0x13
 2359 01d4 3F       		.uleb128 0x3f
 2360 01d5 19       		.uleb128 0x19
 2361 01d6 3C       		.uleb128 0x3c
 2362 01d7 19       		.uleb128 0x19
 2363 01d8 00       		.byte	0
 2364 01d9 00       		.byte	0
ARM GAS  /tmp/ccmL2APA.s 			page 72


 2365 01da 23       		.uleb128 0x23
 2366 01db 34       		.uleb128 0x34
 2367 01dc 00       		.byte	0
 2368 01dd 03       		.uleb128 0x3
 2369 01de 0E       		.uleb128 0xe
 2370 01df 3A       		.uleb128 0x3a
 2371 01e0 0B       		.uleb128 0xb
 2372 01e1 3B       		.uleb128 0x3b
 2373 01e2 0B       		.uleb128 0xb
 2374 01e3 49       		.uleb128 0x49
 2375 01e4 13       		.uleb128 0x13
 2376 01e5 3F       		.uleb128 0x3f
 2377 01e6 19       		.uleb128 0x19
 2378 01e7 3C       		.uleb128 0x3c
 2379 01e8 19       		.uleb128 0x19
 2380 01e9 00       		.byte	0
 2381 01ea 00       		.byte	0
 2382 01eb 24       		.uleb128 0x24
 2383 01ec 21       		.uleb128 0x21
 2384 01ed 00       		.byte	0
 2385 01ee 00       		.byte	0
 2386 01ef 00       		.byte	0
 2387 01f0 25       		.uleb128 0x25
 2388 01f1 34       		.uleb128 0x34
 2389 01f2 00       		.byte	0
 2390 01f3 03       		.uleb128 0x3
 2391 01f4 08       		.uleb128 0x8
 2392 01f5 3A       		.uleb128 0x3a
 2393 01f6 0B       		.uleb128 0xb
 2394 01f7 3B       		.uleb128 0x3b
 2395 01f8 0B       		.uleb128 0xb
 2396 01f9 49       		.uleb128 0x49
 2397 01fa 13       		.uleb128 0x13
 2398 01fb 3F       		.uleb128 0x3f
 2399 01fc 19       		.uleb128 0x19
 2400 01fd 3C       		.uleb128 0x3c
 2401 01fe 19       		.uleb128 0x19
 2402 01ff 00       		.byte	0
 2403 0200 00       		.byte	0
 2404 0201 26       		.uleb128 0x26
 2405 0202 34       		.uleb128 0x34
 2406 0203 00       		.byte	0
 2407 0204 03       		.uleb128 0x3
 2408 0205 0E       		.uleb128 0xe
 2409 0206 3A       		.uleb128 0x3a
 2410 0207 0B       		.uleb128 0xb
 2411 0208 3B       		.uleb128 0x3b
 2412 0209 0B       		.uleb128 0xb
 2413 020a 49       		.uleb128 0x49
 2414 020b 13       		.uleb128 0x13
 2415 020c 3F       		.uleb128 0x3f
 2416 020d 19       		.uleb128 0x19
 2417 020e 02       		.uleb128 0x2
 2418 020f 18       		.uleb128 0x18
 2419 0210 00       		.byte	0
 2420 0211 00       		.byte	0
 2421 0212 00       		.byte	0
ARM GAS  /tmp/ccmL2APA.s 			page 73


 2422              		.section	.debug_aranges,"",%progbits
 2423 0000 3C000000 		.4byte	0x3c
 2424 0004 0200     		.2byte	0x2
 2425 0006 00000000 		.4byte	.Ldebug_info0
 2426 000a 04       		.byte	0x4
 2427 000b 00       		.byte	0
 2428 000c 0000     		.2byte	0
 2429 000e 0000     		.2byte	0
 2430 0010 00000000 		.4byte	.LFB189
 2431 0014 0E000000 		.4byte	.LFE189-.LFB189
 2432 0018 00000000 		.4byte	.LFB190
 2433 001c 0E000000 		.4byte	.LFE190-.LFB190
 2434 0020 00000000 		.4byte	.LFB223
 2435 0024 0E000000 		.4byte	.LFE223-.LFB223
 2436 0028 00000000 		.4byte	.LFB241
 2437 002c 24000000 		.4byte	.LFE241-.LFB241
 2438 0030 00000000 		.4byte	.LFB242
 2439 0034 B8000000 		.4byte	.LFE242-.LFB242
 2440 0038 00000000 		.4byte	0
 2441 003c 00000000 		.4byte	0
 2442              		.section	.debug_ranges,"",%progbits
 2443              	.Ldebug_ranges0:
 2444 0000 00000000 		.4byte	.LFB189
 2445 0004 0E000000 		.4byte	.LFE189
 2446 0008 00000000 		.4byte	.LFB190
 2447 000c 0E000000 		.4byte	.LFE190
 2448 0010 00000000 		.4byte	.LFB223
 2449 0014 0E000000 		.4byte	.LFE223
 2450 0018 00000000 		.4byte	.LFB241
 2451 001c 24000000 		.4byte	.LFE241
 2452 0020 00000000 		.4byte	.LFB242
 2453 0024 B8000000 		.4byte	.LFE242
 2454 0028 00000000 		.4byte	0
 2455 002c 00000000 		.4byte	0
 2456              		.section	.debug_line,"",%progbits
 2457              	.Ldebug_line0:
 2458 0000 97020000 		.section	.debug_str,"MS",%progbits,1
 2458      02001902 
 2458      00000201 
 2458      FB0E0D00 
 2458      01010101 
 2459              	.LASF98:
 2460 0000 74625F70 		.ascii	"tb_ptr\000"
 2460      747200
 2461              	.LASF55:
 2462 0007 72656164 		.ascii	"ready_list_t\000"
 2462      795F6C69 
 2462      73745F74 
 2462      00
 2463              	.LASF92:
 2464 0014 73655F74 		.ascii	"se_time\000"
 2464      696D6500 
 2465              	.LASF2:
 2466 001c 73697A65 		.ascii	"size_t\000"
 2466      5F7400
 2467              	.LASF113:
 2468 0023 7264796D 		.ascii	"rdymsg\000"
ARM GAS  /tmp/ccmL2APA.s 			page 74


 2468      736700
 2469              	.LASF17:
 2470 002a 75696E74 		.ascii	"uint64_t\000"
 2470      36345F74 
 2470      00
 2471              	.LASF85:
 2472 0033 6B65726E 		.ascii	"kernel_stats\000"
 2472      656C5F73 
 2472      74617473 
 2472      00
 2473              	.LASF3:
 2474 0040 5F5F7569 		.ascii	"__uint8_t\000"
 2474      6E74385F 
 2474      7400
 2475              	.LASF91:
 2476 004a 706F7274 		.ascii	"port_intctx\000"
 2476      5F696E74 
 2476      63747800 
 2477              	.LASF54:
 2478 0056 63685F74 		.ascii	"ch_threads_queue\000"
 2478      68726561 
 2478      64735F71 
 2478      75657565 
 2478      00
 2479              	.LASF74:
 2480 0067 73797374 		.ascii	"system_debug_t\000"
 2480      656D5F64 
 2480      65627567 
 2480      5F7400
 2481              	.LASF104:
 2482 0076 776F7273 		.ascii	"worst\000"
 2482      7400
 2483              	.LASF107:
 2484 007c 74696D65 		.ascii	"time_measurement_t\000"
 2484      5F6D6561 
 2484      73757265 
 2484      6D656E74 
 2484      5F7400
 2485              	.LASF13:
 2486 008f 6C6F6E67 		.ascii	"long long unsigned int\000"
 2486      206C6F6E 
 2486      6720756E 
 2486      7369676E 
 2486      65642069 
 2487              	.LASF100:
 2488 00a6 63685F74 		.ascii	"ch_trace_buffer_t\000"
 2488      72616365 
 2488      5F627566 
 2488      6665725F 
 2488      7400
 2489              	.LASF95:
 2490 00b8 73655F73 		.ascii	"se_state\000"
 2490      74617465 
 2490      00
 2491              	.LASF114:
 2492 00c1 65786974 		.ascii	"exitcode\000"
 2492      636F6465 
ARM GAS  /tmp/ccmL2APA.s 			page 75


 2492      00
 2493              	.LASF84:
 2494 00ca 6D61696E 		.ascii	"mainthread\000"
 2494      74687265 
 2494      616400
 2495              	.LASF71:
 2496 00d5 76697274 		.ascii	"virtual_timers_list_t\000"
 2496      75616C5F 
 2496      74696D65 
 2496      72735F6C 
 2496      6973745F 
 2497              	.LASF138:
 2498 00eb 49544D5F 		.ascii	"ITM_RxBuffer\000"
 2498      52784275 
 2498      66666572 
 2498      00
 2499              	.LASF19:
 2500 00f8 72747469 		.ascii	"rttime_t\000"
 2500      6D655F74 
 2500      00
 2501              	.LASF32:
 2502 0101 705F7072 		.ascii	"p_prio\000"
 2502      696F00
 2503              	.LASF11:
 2504 0108 6C6F6E67 		.ascii	"long long int\000"
 2504      206C6F6E 
 2504      6720696E 
 2504      7400
 2505              	.LASF1:
 2506 0116 7369676E 		.ascii	"signed char\000"
 2506      65642063 
 2506      68617200 
 2507              	.LASF144:
 2508 0122 2F686F6D 		.ascii	"/home/jerker/git/AutoTux/stm32\000"
 2508      652F6A65 
 2508      726B6572 
 2508      2F676974 
 2508      2F417574 
 2509              	.LASF47:
 2510 0141 705F6D70 		.ascii	"p_mpool\000"
 2510      6F6F6C00 
 2511              	.LASF124:
 2512 0149 6D5F7175 		.ascii	"m_queue\000"
 2512      65756500 
 2513              	.LASF83:
 2514 0151 76746C69 		.ascii	"vtlist\000"
 2514      737400
 2515              	.LASF116:
 2516 0158 77747472 		.ascii	"wttrp\000"
 2516      7000
 2517              	.LASF81:
 2518 015e 63685F73 		.ascii	"ch_system\000"
 2518      79737465 
 2518      6D00
 2519              	.LASF8:
 2520 0168 6C6F6E67 		.ascii	"long int\000"
 2520      20696E74 
ARM GAS  /tmp/ccmL2APA.s 			page 76


 2520      00
 2521              	.LASF21:
 2522 0171 74737461 		.ascii	"tstate_t\000"
 2522      74655F74 
 2522      00
 2523              	.LASF93:
 2524 017a 73655F74 		.ascii	"se_tp\000"
 2524      7000
 2525              	.LASF34:
 2526 0180 705F6E65 		.ascii	"p_newer\000"
 2526      77657200 
 2527              	.LASF121:
 2528 0188 735F7175 		.ascii	"s_queue\000"
 2528      65756500 
 2529              	.LASF97:
 2530 0190 74625F73 		.ascii	"tb_size\000"
 2530      697A6500 
 2531              	.LASF60:
 2532 0198 725F6E65 		.ascii	"r_newer\000"
 2532      77657200 
 2533              	.LASF88:
 2534 01a0 72656761 		.ascii	"regarm_t\000"
 2534      726D5F74 
 2534      00
 2535              	.LASF67:
 2536 01a9 76745F70 		.ascii	"vt_prev\000"
 2536      72657600 
 2537              	.LASF75:
 2538 01b1 63685F73 		.ascii	"ch_system_debug\000"
 2538      79737465 
 2538      6D5F6465 
 2538      62756700 
 2539              	.LASF128:
 2540 01c1 6D757465 		.ascii	"mutex_t\000"
 2540      785F7400 
 2541              	.LASF78:
 2542 01c9 6C6F636B 		.ascii	"lock_cnt\000"
 2542      5F636E74 
 2542      00
 2543              	.LASF86:
 2544 01d2 69646C65 		.ascii	"idle_thread_wa\000"
 2544      5F746872 
 2544      6561645F 
 2544      776100
 2545              	.LASF26:
 2546 01e1 636E745F 		.ascii	"cnt_t\000"
 2546      7400
 2547              	.LASF37:
 2548 01e7 705F7374 		.ascii	"p_stklimit\000"
 2548      6B6C696D 
 2548      697400
 2549              	.LASF0:
 2550 01f2 756E7369 		.ascii	"unsigned int\000"
 2550      676E6564 
 2550      20696E74 
 2550      00
 2551              	.LASF66:
ARM GAS  /tmp/ccmL2APA.s 			page 77


 2552 01ff 76745F6E 		.ascii	"vt_next\000"
 2552      65787400 
 2553              	.LASF117:
 2554 0207 77747365 		.ascii	"wtsemp\000"
 2554      6D7000
 2555              	.LASF42:
 2556 020e 705F6D73 		.ascii	"p_msgqueue\000"
 2556      67717565 
 2556      756500
 2557              	.LASF132:
 2558 0219 74656172 		.ascii	"teardown\000"
 2558      646F776E 
 2558      00
 2559              	.LASF145:
 2560 0222 63684D73 		.ascii	"chMsgGet\000"
 2560      67476574 
 2560      00
 2561              	.LASF108:
 2562 022b 6E5F6972 		.ascii	"n_irq\000"
 2562      7100
 2563              	.LASF122:
 2564 0231 735F636E 		.ascii	"s_cnt\000"
 2564      7400
 2565              	.LASF130:
 2566 0237 6E616D65 		.ascii	"name\000"
 2566      00
 2567              	.LASF6:
 2568 023c 73686F72 		.ascii	"short unsigned int\000"
 2568      7420756E 
 2568      7369676E 
 2568      65642069 
 2568      6E7400
 2569              	.LASF112:
 2570 024f 6B65726E 		.ascii	"kernel_stats_t\000"
 2570      656C5F73 
 2570      74617473 
 2570      5F7400
 2571              	.LASF51:
 2572 025e 63685F74 		.ascii	"ch_thread\000"
 2572      68726561 
 2572      6400
 2573              	.LASF24:
 2574 0268 6D73675F 		.ascii	"msg_t\000"
 2574      7400
 2575              	.LASF105:
 2576 026e 6C617374 		.ascii	"last\000"
 2576      00
 2577              	.LASF27:
 2578 0273 75636E74 		.ascii	"ucnt_t\000"
 2578      5F7400
 2579              	.LASF80:
 2580 027a 63685F73 		.ascii	"ch_system_t\000"
 2580      79737465 
 2580      6D5F7400 
 2581              	.LASF142:
 2582 0286 474E5520 		.ascii	"GNU C 4.8.2 -mcpu=cortex-m4 -mno-thumb-interwork -m"
 2582      4320342E 
ARM GAS  /tmp/ccmL2APA.s 			page 78


 2582      382E3220 
 2582      2D6D6370 
 2582      753D636F 
 2583 02b9 7468756D 		.ascii	"thumb -ggdb -O0 -fomit-frame-pointer -falign-functi"
 2583      62202D67 
 2583      67646220 
 2583      2D4F3020 
 2583      2D666F6D 
 2584 02ec 6F6E733D 		.ascii	"ons=16 -ffunction-sections -fdata-sections -fno-com"
 2584      3136202D 
 2584      6666756E 
 2584      6374696F 
 2584      6E2D7365 
 2585 031f 6D6F6E20 		.ascii	"mon -flto\000"
 2585      2D666C74 
 2585      6F00
 2586              	.LASF20:
 2587 0329 746D6F64 		.ascii	"tmode_t\000"
 2587      655F7400 
 2588              	.LASF111:
 2589 0331 6D5F6372 		.ascii	"m_crit_isr\000"
 2589      69745F69 
 2589      737200
 2590              	.LASF56:
 2591 033c 63685F72 		.ascii	"ch_ready_list\000"
 2591      65616479 
 2591      5F6C6973 
 2591      7400
 2592              	.LASF25:
 2593 034a 6576656E 		.ascii	"eventmask_t\000"
 2593      746D6173 
 2593      6B5F7400 
 2594              	.LASF7:
 2595 0356 5F5F696E 		.ascii	"__int32_t\000"
 2595      7433325F 
 2595      7400
 2596              	.LASF89:
 2597 0360 73746B61 		.ascii	"stkalign_t\000"
 2597      6C69676E 
 2597      5F7400
 2598              	.LASF41:
 2599 036b 705F7761 		.ascii	"p_waiting\000"
 2599      6974696E 
 2599      6700
 2600              	.LASF141:
 2601 0375 70617474 		.ascii	"patternmsg\000"
 2601      65726E6D 
 2601      736700
 2602              	.LASF87:
 2603 0380 73697A65 		.ascii	"sizetype\000"
 2603      74797065 
 2603      00
 2604              	.LASF49:
 2605 0389 74687265 		.ascii	"thread_reference_t\000"
 2605      61645F72 
 2605      65666572 
 2605      656E6365 
ARM GAS  /tmp/ccmL2APA.s 			page 79


 2605      5F7400
 2606              	.LASF102:
 2607 039c 746D5F63 		.ascii	"tm_calibration_t\000"
 2607      616C6962 
 2607      72617469 
 2607      6F6E5F74 
 2607      00
 2608              	.LASF72:
 2609 03ad 63685F76 		.ascii	"ch_virtual_timers_list\000"
 2609      69727475 
 2609      616C5F74 
 2609      696D6572 
 2609      735F6C69 
 2610              	.LASF96:
 2611 03c4 63685F73 		.ascii	"ch_swc_event_t\000"
 2611      77635F65 
 2611      76656E74 
 2611      5F7400
 2612              	.LASF73:
 2613 03d3 76745F6C 		.ascii	"vt_lasttime\000"
 2613      61737474 
 2613      696D6500 
 2614              	.LASF35:
 2615 03df 705F6F6C 		.ascii	"p_older\000"
 2615      64657200 
 2616              	.LASF59:
 2617 03e7 725F6374 		.ascii	"r_ctx\000"
 2617      7800
 2618              	.LASF135:
 2619 03ed 63685468 		.ascii	"chThdGetPriorityX\000"
 2619      64476574 
 2619      5072696F 
 2619      72697479 
 2619      5800
 2620              	.LASF131:
 2621 03ff 73657475 		.ascii	"setup\000"
 2621      7000
 2622              	.LASF143:
 2623 0405 6C69622F 		.ascii	"lib/ChibiOS_16.1.4//test/rt/testmsg.c\000"
 2623      43686962 
 2623      694F535F 
 2623      31362E31 
 2623      2E342F2F 
 2624              	.LASF62:
 2625 042b 725F6375 		.ascii	"r_current\000"
 2625      7272656E 
 2625      7400
 2626              	.LASF61:
 2627 0435 725F6F6C 		.ascii	"r_older\000"
 2627      64657200 
 2628              	.LASF12:
 2629 043d 5F5F7569 		.ascii	"__uint64_t\000"
 2629      6E743634 
 2629      5F7400
 2630              	.LASF106:
 2631 0448 63756D75 		.ascii	"cumulative\000"
 2631      6C617469 
ARM GAS  /tmp/ccmL2APA.s 			page 80


 2631      766500
 2632              	.LASF22:
 2633 0453 74726566 		.ascii	"trefs_t\000"
 2633      735F7400 
 2634              	.LASF99:
 2635 045b 74625F62 		.ascii	"tb_buffer\000"
 2635      75666665 
 2635      7200
 2636              	.LASF64:
 2637 0465 76697274 		.ascii	"virtual_timer_t\000"
 2637      75616C5F 
 2637      74696D65 
 2637      725F7400 
 2638              	.LASF31:
 2639 0475 705F7072 		.ascii	"p_prev\000"
 2639      657600
 2640              	.LASF133:
 2641 047c 65786563 		.ascii	"execute\000"
 2641      75746500 
 2642              	.LASF23:
 2643 0484 74707269 		.ascii	"tprio_t\000"
 2643      6F5F7400 
 2644              	.LASF136:
 2645 048c 74687265 		.ascii	"thread\000"
 2645      616400
 2646              	.LASF109:
 2647 0493 6E5F6374 		.ascii	"n_ctxswc\000"
 2647      78737763 
 2647      00
 2648              	.LASF15:
 2649 049c 696E7433 		.ascii	"int32_t\000"
 2649      325F7400 
 2650              	.LASF4:
 2651 04a4 756E7369 		.ascii	"unsigned char\000"
 2651      676E6564 
 2651      20636861 
 2651      7200
 2652              	.LASF45:
 2653 04b2 705F6D74 		.ascii	"p_mtxlist\000"
 2653      786C6973 
 2653      7400
 2654              	.LASF5:
 2655 04bc 73686F72 		.ascii	"short int\000"
 2655      7420696E 
 2655      7400
 2656              	.LASF38:
 2657 04c6 705F7374 		.ascii	"p_state\000"
 2657      61746500 
 2658              	.LASF139:
 2659 04ce 74687265 		.ascii	"threads\000"
 2659      61647300 
 2660              	.LASF58:
 2661 04d6 725F7072 		.ascii	"r_prio\000"
 2661      696F00
 2662              	.LASF140:
 2663 04dd 74657374 		.ascii	"testmsg1\000"
 2663      6D736731 
ARM GAS  /tmp/ccmL2APA.s 			page 81


 2663      00
 2664              	.LASF119:
 2665 04e6 65776D61 		.ascii	"ewmask\000"
 2665      736B00
 2666              	.LASF30:
 2667 04ed 705F6E65 		.ascii	"p_next\000"
 2667      787400
 2668              	.LASF39:
 2669 04f4 705F666C 		.ascii	"p_flags\000"
 2669      61677300 
 2670              	.LASF48:
 2671 04fc 705F7374 		.ascii	"p_stats\000"
 2671      61747300 
 2672              	.LASF65:
 2673 0504 63685F76 		.ascii	"ch_virtual_timer\000"
 2673      69727475 
 2673      616C5F74 
 2673      696D6572 
 2673      00
 2674              	.LASF129:
 2675 0515 74657374 		.ascii	"testcase\000"
 2675      63617365 
 2675      00
 2676              	.LASF120:
 2677 051e 63685F73 		.ascii	"ch_semaphore\000"
 2677      656D6170 
 2677      686F7265 
 2677      00
 2678              	.LASF44:
 2679 052b 705F6570 		.ascii	"p_epending\000"
 2679      656E6469 
 2679      6E6700
 2680              	.LASF16:
 2681 0536 75696E74 		.ascii	"uint32_t\000"
 2681      33325F74 
 2681      00
 2682              	.LASF118:
 2683 053f 77746D74 		.ascii	"wtmtxp\000"
 2683      787000
 2684              	.LASF57:
 2685 0546 725F7175 		.ascii	"r_queue\000"
 2685      65756500 
 2686              	.LASF68:
 2687 054e 76745F64 		.ascii	"vt_delta\000"
 2687      656C7461 
 2687      00
 2688              	.LASF52:
 2689 0557 63685F74 		.ascii	"ch_threads_list\000"
 2689      68726561 
 2689      64735F6C 
 2689      69737400 
 2690              	.LASF10:
 2691 0567 6C6F6E67 		.ascii	"long unsigned int\000"
 2691      20756E73 
 2691      69676E65 
 2691      6420696E 
 2691      7400
ARM GAS  /tmp/ccmL2APA.s 			page 82


 2692              	.LASF127:
 2693 0579 63686172 		.ascii	"char\000"
 2693      00
 2694              	.LASF29:
 2695 057e 74687265 		.ascii	"thread_t\000"
 2695      61645F74 
 2695      00
 2696              	.LASF103:
 2697 0587 62657374 		.ascii	"best\000"
 2697      00
 2698              	.LASF126:
 2699 058c 6D5F6E65 		.ascii	"m_next\000"
 2699      787400
 2700              	.LASF28:
 2701 0593 73797374 		.ascii	"systime_t\000"
 2701      696D655F 
 2701      7400
 2702              	.LASF46:
 2703 059d 705F7265 		.ascii	"p_realprio\000"
 2703      616C7072 
 2703      696F00
 2704              	.LASF63:
 2705 05a8 76746675 		.ascii	"vtfunc_t\000"
 2705      6E635F74 
 2705      00
 2706              	.LASF9:
 2707 05b1 5F5F7569 		.ascii	"__uint32_t\000"
 2707      6E743332 
 2707      5F7400
 2708              	.LASF76:
 2709 05bc 70616E69 		.ascii	"panic_msg\000"
 2709      635F6D73 
 2709      6700
 2710              	.LASF101:
 2711 05c6 6F666673 		.ascii	"offset\000"
 2711      657400
 2712              	.LASF90:
 2713 05cd 636F6E74 		.ascii	"context\000"
 2713      65787400 
 2714              	.LASF18:
 2715 05d5 7274636E 		.ascii	"rtcnt_t\000"
 2715      745F7400 
 2716              	.LASF70:
 2717 05dd 76745F70 		.ascii	"vt_par\000"
 2717      617200
 2718              	.LASF53:
 2719 05e4 74687265 		.ascii	"threads_queue_t\000"
 2719      6164735F 
 2719      71756575 
 2719      655F7400 
 2720              	.LASF123:
 2721 05f4 63685F6D 		.ascii	"ch_mutex\000"
 2721      75746578 
 2721      00
 2722              	.LASF40:
 2723 05fd 705F7265 		.ascii	"p_refs\000"
 2723      667300
ARM GAS  /tmp/ccmL2APA.s 			page 83


 2724              	.LASF77:
 2725 0604 6973725F 		.ascii	"isr_cnt\000"
 2725      636E7400 
 2726              	.LASF82:
 2727 060c 726C6973 		.ascii	"rlist\000"
 2727      7400
 2728              	.LASF134:
 2729 0612 63685468 		.ascii	"chThdGetSelfX\000"
 2729      64476574 
 2729      53656C66 
 2729      5800
 2730              	.LASF14:
 2731 0620 75696E74 		.ascii	"uint8_t\000"
 2731      385F7400 
 2732              	.LASF137:
 2733 0628 6D736731 		.ascii	"msg1_execute\000"
 2733      5F657865 
 2733      63757465 
 2733      00
 2734              	.LASF115:
 2735 0635 77746F62 		.ascii	"wtobjp\000"
 2735      6A7000
 2736              	.LASF36:
 2737 063c 705F6E61 		.ascii	"p_name\000"
 2737      6D6500
 2738              	.LASF50:
 2739 0643 74687265 		.ascii	"threads_list_t\000"
 2739      6164735F 
 2739      6C697374 
 2739      5F7400
 2740              	.LASF79:
 2741 0652 74726163 		.ascii	"trace_buffer\000"
 2741      655F6275 
 2741      66666572 
 2741      00
 2742              	.LASF43:
 2743 065f 705F6D73 		.ascii	"p_msg\000"
 2743      6700
 2744              	.LASF110:
 2745 0665 6D5F6372 		.ascii	"m_crit_thd\000"
 2745      69745F74 
 2745      686400
 2746              	.LASF125:
 2747 0670 6D5F6F77 		.ascii	"m_owner\000"
 2747      6E657200 
 2748              	.LASF94:
 2749 0678 73655F77 		.ascii	"se_wtobjp\000"
 2749      746F626A 
 2749      7000
 2750              	.LASF33:
 2751 0682 705F6374 		.ascii	"p_ctx\000"
 2751      7800
 2752              	.LASF69:
 2753 0688 76745F66 		.ascii	"vt_func\000"
 2753      756E6300 
 2754              		.comm	__gnu_lto_v1,1,1
 2755              		.ident	"GCC: (4.8.2-14ubuntu1+6) 4.8.2"
ARM GAS  /tmp/ccmL2APA.s 			page 84


ARM GAS  /tmp/ccmL2APA.s 			page 85


DEFINED SYMBOLS
                            *ABS*:0000000000000000 testmsg.c
     /tmp/ccmL2APA.s:494    .text.chThdGetSelfX:0000000000000000 $t
     /tmp/ccmL2APA.s:499    .text.chThdGetSelfX:0000000000000000 chThdGetSelfX
     /tmp/ccmL2APA.s:518    .text.chThdGetPriorityX:0000000000000000 $t
     /tmp/ccmL2APA.s:523    .text.chThdGetPriorityX:0000000000000000 chThdGetPriorityX
     /tmp/ccmL2APA.s:544    .text.chMsgGet:0000000000000000 $t
     /tmp/ccmL2APA.s:549    .text.chMsgGet:0000000000000000 chMsgGet
     /tmp/ccmL2APA.s:572    .text.thread:0000000000000000 $t
     /tmp/ccmL2APA.s:577    .text.thread:0000000000000000 thread
     /tmp/ccmL2APA.s:610    .rodata:0000000000000000 $d
     /tmp/ccmL2APA.s:611    .rodata:0000000000000000 .LC0
     /tmp/ccmL2APA.s:614    .text.msg1_execute:0000000000000000 $t
     /tmp/ccmL2APA.s:619    .text.msg1_execute:0000000000000000 msg1_execute
     /tmp/ccmL2APA.s:729    .rodata.testmsg1:0000000000000000 testmsg1
     /tmp/ccmL2APA.s:726    .rodata.testmsg1:0000000000000000 $d
     /tmp/ccmL2APA.s:739    .rodata.patternmsg:0000000000000000 patternmsg
     /tmp/ccmL2APA.s:736    .rodata.patternmsg:0000000000000000 $d
                            *COM*:0000000000000001 __gnu_lto_v1
                     .debug_frame:0000000000000010 $d

UNDEFINED SYMBOLS
ch
chMsgSend
wa
chThdCreateStatic
threads
chMsgWait
chMsgRelease
test_emit_token
_test_assert_sequence
