ARM GAS  /tmp/ccezqgOT.s 			page 1


   1              		.syntax unified
   2              		.cpu cortex-m4
   3              		.fpu softvfp
   4              		.eabi_attribute 20, 1
   5              		.eabi_attribute 21, 1
   6              		.eabi_attribute 23, 3
   7              		.eabi_attribute 24, 1
   8              		.eabi_attribute 25, 1
   9              		.eabi_attribute 26, 1
  10              		.eabi_attribute 30, 6
  11              		.eabi_attribute 34, 1
  12              		.eabi_attribute 18, 4
  13              		.thumb
  14              		.file	"testmsg.c"
  15              		.text
  16              	.Ltext0:
  17              		.section	.gnu.lto_.inline.3cd3da169d1b3642,"",%progbits
  18 0000 789C6362 		.ascii	"x\234cb`b\300\006\016BiV\006\006\026f\006\006&\226\017"
  18      6062C006 
  18      0E426956 
  18      06061666 
  18      06062696 
  19 0015 7A0C2C10 		.ascii	"z\014,\020\265L\014l|h\"\334@\202\031C!\013\003\217"
  19      B54C0C6C 
  19      7C6822DC 
  19      40821943 
  19      210B038F 
  20 0029 1A508469 		.ascii	"\032P\204i\201<L\204\231\007\205`e0=\302\010T\301\263"
  20      813C4C84 
  20      99078560 
  20      65303DC2 
  20      0854C1B3 
  21 003d 2117AE87 		.ascii	"!\027\256\207\027n\036\\\031\230K\254\030\273\000\212"
  21      176E1E5C 
  21      19984BAC 
  21      18BB008A 
  22 004d 2C030083 		.ascii	",\003\000\203\007\010\303"
  22      0708C3
  23              		.text
  24              		.section	.gnu.lto_chThdGetSelfX.3cd3da169d1b3642,"",%progbits
  25 0000 789C6362 		.ascii	"x\234cb`b@\007\322@\374\007\2105@\034\026\006F\240\012"
  25      60624007 
  25      D240FC07 
  25      8835401C 
  25      160646A0 
  26 0015 46264666 		.ascii	"F&Ff \311\314\310\010\024bd\250gbf\254\217\004\261\031"
  26      20C9CCC8 
  26      08146264 
  26      A8676266 
  26      AC8F04B1 
  27 002a 18951816 		.ascii	"\030\225\030\02664\314z\320\272k\246d\327\202\246\011"
  27      3634CC7A 
  27      D0BA6BA6 
  27      64D782A6 
  27      09
  28 003b 0DFFFEFF 		.ascii	"\015\377\376\377g\314\004I%32D\000Y\214\012`\212\211"
  28      67CC0449 
ARM GAS  /tmp/ccezqgOT.s 			page 2


  28      25333244 
  28      00598C0A 
  28      608A89
  29 004e 05D592F5 		.ascii	"\005\325\222\365L\007\036\374\377\377\346\366\227G/"
  29      4C071EFC 
  29      FFFFE6F6 
  29      97472F
  30 005d 19859818 		.ascii	"\031\205\230\030\031\300Z\030X\031Z\032\032&(\2005\003"
  30      19C05A18 
  30      58195A1A 
  30      1A262880 
  30      3503
  31 006f 4108980C 		.ascii	"A\010\230\014\005\271\200\371,C\323\255\031\273$\023"
  31      05B980F9 
  31      2C43D3AD 
  31      19BB2413 
  32 007f 191731B2 		.ascii	"\031\0271\2622\24432j3\254j\000\202P\240F(\3232\223"
  32      32A43332 
  32      6A33AC6A 
  32      008250A0 
  32      4628D332 
  33 0094 917936C3 		.ascii	"\221y6\303\254\306\206\006\201LF\226j\206_\015\035 "
  33      ACC68606 
  33      814C4696 
  33      6A865F0D 
  33      1D20
  34 00a6 166B2ED8 		.ascii	"\026k.\330\024\220#X\301V'12@iF$\007\205\202|\310|\232"
  34      14902358 
  34      C1562731 
  34      32406946 
  34      24078582 
  35 00be A1918381 		.ascii	"\241\221\203\201!\005$s\221\241\361\0003\334:\210\242"
  35      21052473 
  35      91A1F100 
  35      33DC3A88 
  35      A2
  36 00cf 10100314 		.ascii	"\020\020\003\024bjzz\372p\224_\254_T\242\237\231\227"
  36      626A7A7A 
  36      FA70945F 
  36      AC5F54A2 
  36      9F9997
  37 00e2 9C539A92 		.ascii	"\234S\232\222\252\237\234Q\222Q\224\232\230R\254\227"
  37      AA9F9C51 
  37      9251949A 
  37      9852AC97 
  38 00f2 C10000BE 		.ascii	"\301\000\000\276rCL"
  38      72434C
  39              		.text
  40              		.section	.gnu.lto_chThdGetPriorityX.3cd3da169d1b3642,"",%progbits
  41 0000 789C6362 		.ascii	"x\234cb`b@\007\322@l\316\310\300\240\001\342\26000\002"
  41      60624007 
  41      D2406CCE 
  41      C8C0A001 
  41      E2B03030 
  42 0015 55303231 		.ascii	"U0212\003IfF\2400\003#C=\0233c}$\210\315\300\244\304"
  42      32034966 
  42      46A03003 
ARM GAS  /tmp/ccezqgOT.s 			page 3


  42      23433D13 
  42      33637D24 
  43 002e B0B0A161 		.ascii	"\260\260\241a\326\203\245\373gJv-h\232\320\360\357\377"
  43      D683A5FB 
  43      674A762D 
  43      689AD0F0 
  43      EFFF
  44 0040 7FC64C90 		.ascii	"\177\306L\220T2#C\004\220\305\250\000\246\230XP-\001"
  44      54322343 
  44      0490C5A8 
  44      00A69858 
  44      502D01
  45 0053 6B9BD470 		.ascii	"k\233\324p\377I\300\211\206\226\003\377\377\333g\202"
  45      FF49C089 
  45      869603FF 
  45      FFDB6782 
  46 0063 6CC0AF67 		.ascii	"l\300\257g=\323\201\007\377\377\357\271\377\347\321"
  46      3DD38107 
  46      FFFFEFB9 
  46      FFE7D1
  47 0072 3F462166 		.ascii	"?F!fF\006\240\026&\006\260]\014\254\014-\015\015\023"
  47      4606A016 
  47      2606B05D 
  47      0CAC0C2D 
  47      0D0D13
  48 0085 14C02600 		.ascii	"\024\300&\000A\010\230\014\0059\235\371<C\363\203\277"
  48      4108980C 
  48      05399DF9 
  48      3C43F383 
  48      BF
  49 0096 4FB91319 		.ascii	"O\271\023\031\0273\2622\24432V3\374j\350h\020\310dd"
  49      1733B232 
  49      A4333256 
  49      33FC6AE8 
  49      6810C864 
  50 00ab 49067B87 		.ascii	"I\006{\207\001h\004+\003\303Y\206\246[\0050EL\332\014"
  50      0168042B 
  50      03C35986 
  50      A65B0530 
  50      454CDA0C 
  51 00bf AB1A80A0 		.ascii	"\253\032\200\240\030h\372l\206Y@\267\260\001u\202\334"
  51      1868FA6C 
  51      865940B7 
  51      B0017582 
  51      DC
  52 00d0 C40CD691 		.ascii	"\304\014\326\221\304\210\354\256P\220(\363i\206F\016"
  52      C488ECAE 
  52      509028F3 
  52      6986460E 
  53 00e0 06861490 		.ascii	"\006\206\024\220\314E\206\306\003\314p\263 \212B@\226"
  53      CC4586C6 
  53      03CC70B3 
  53      208A4240 
  53      96
  54 00f1 81D86A7A 		.ascii	"\201\330jzz\372p\224_\254_T\242\237\231\227\234S\232"
  54      7AFA7094 
  54      5FAC5F54 
ARM GAS  /tmp/ccezqgOT.s 			page 4


  54      A29F9997 
  54      9C539A
  55 0104 92AA9F9C 		.ascii	"\222\252\237\234Q\222Q\224\232\230R\254\227\301\000"
  55      51925194 
  55      9A9852AC 
  55      97C100
  56 0113 0029814F 		.ascii	"\000)\201OV"
  56      56
  57              		.text
  58              		.section	.gnu.lto_chMsgGet.3cd3da169d1b3642,"",%progbits
  59 0000 789C6362 		.ascii	"x\234cb`b@\007\322@|\017\210U@\034\026\006F\240\012"
  59      60624007 
  59      D2407C0F 
  59      8855401C 
  59      160646A0 
  60 0015 46264666 		.ascii	"F&Ff \311\314\310\010\024bd\250gbf\254\217\004\261\031"
  60      20C9CCC8 
  60      08146264 
  60      A8676266 
  60      AC8F04B1 
  61 002a 18951816 		.ascii	"\030\225\030\02664\314xp\364\323\014\311\256\005M\023"
  61      3634CC78 
  61      70F4D30C 
  61      C9AE054D 
  61      13
  62 003b 1AFEFDFF 		.ascii	"\032\376\375\377\317\230\011\222Jfd\210\000\262\030"
  62      CF980992 
  62      4A666488 
  62      00B218
  63 004a 15C01413 		.ascii	"\025\300\024\023\013\252%\353\231\016<\370\377\277g"
  63      0BAA25EB 
  63      990E3CF8 
  63      FFBF67
  64 0059 E78747A7 		.ascii	"\347\207G\247\031\005\201\346\3462\002]\002\326\307"
  64      190581E6 
  64      E632025D 
  64      02D6C7
  65 0068 C0CAD0D2 		.ascii	"\300\312\320\322\3200A\001l\002\020\204\200\311P\220"
  65      D0304101 
  65      6C021084 
  65      80C95090 
  66 0078 3398CF32 		.ascii	"3\230\31724\335\272\361I\"\221q\021#+C:#\2236\303\252"
  66      34DDBAF1 
  66      49229171 
  66      11232B43 
  66      3A239336 
  67 008e 0620B004 		.ascii	"\006 \260\004j\234\3150\013h\015s:##\310:\210mI\214"
  67      6A9CCD30 
  67      0B680D73 
  67      3A2323C8 
  67      3A886D49 
  68 00a3 C8568682 		.ascii	"\310V\206\202\374\300|\232\241\221\203\201!\005\344"
  68      FCC07C9A 
  68      A1918381 
  68      2105E4
  69 00b2 938B0C8D 		.ascii	"\223\213\014\215\007\230\341fA\024\205\200$@l%==}8\312"
  69      0798E166 
ARM GAS  /tmp/ccezqgOT.s 			page 5


  69      41148580 
  69      24406C25 
  69      3D3D7D38 
  70 00c7 2FD62F2A 		.ascii	"/\326/*\321\317\314K\316)MI\325O\316\310-N\327\313`"
  70      D1CFCC4B 
  70      CE294D49 
  70      D54FCEC8 
  70      2D4ED7CB 
  71 00dc 000084E8 		.ascii	"\000\000\204\3509/"
  71      392F
  72              		.text
  73              		.section	.gnu.lto_thread.3cd3da169d1b3642,"",%progbits
  74 0000 789C6362 		.ascii	"x\234cb`b@\007\"@|\037\210\025@\034f\006F\240\012F&"
  74      60624007 
  74      22407C1F 
  74      8815401C 
  74      660646A0 
  75 0017 46462087 		.ascii	"FF \207\221\241\236\211\261>\222\021\254l=\323\201\007"
  75      91A19E89 
  75      B13E9211 
  75      AC6C3DD3 
  75      8107
  76 0029 FFFFAFFB 		.ascii	"\377\377\257\373\266\360Q\007\243 P>\027,\314\312\320"
  76      B6F05107 
  76      A320503E 
  76      172CCCCA 
  76      D0
  77 003a D2D03001 		.ascii	"\322\3200\001\2505\031\314\015\001\223\241 3\230\317"
  77      A83519CC 
  77      0D0193A1 
  77      203398CF 
  78 004a 33B43EF8 		.ascii	"3\264>\370k\221\310\270\220\221\025(V\315\360\253\241"
  78      6B91C8B8 
  78      90911528 
  78      56CDF0AB 
  78      A1
  79 005b A3412093 		.ascii	"\243A \223\021\250\022b`:#c\004c&#\243#C&H=P\371\202"
  79      11A81262 
  79      603A2363 
  79      04632623 
  79      A3234326 
  80 0074 3AC2AA9D 		.ascii	":\302\252\235\020\252\353\011\253v\206\250\276\310\320"
  80      10AAEB09 
  80      AB7686A8 
  80      BEC8D0
  81 0083 F8A04319 		.ascii	"\370\240C\031\246\034\002B@JA\241!\247\247\247\017G"
  81      A61C0242 
  81      404A41A1 
  81      21A7A7A7 
  81      0F47
  82 0095 25A9C525 		.ascii	"%\251\305%\372E%`:\2678]/\231\001\000S\2748\000"
  82      FA452560 
  82      3AB7385D 
  82      2F990100 
  82      53BC3800 
  83              		.text
  84              		.section	.gnu.lto_msg1_execute.3cd3da169d1b3642,"",%progbits
ARM GAS  /tmp/ccezqgOT.s 			page 6


  85 0000 789CB594 		.ascii	"x\234\265\224\313kSA\024\306\317\231{\363N\233V\255"
  85      CB6B5341 
  85      14C6CF99 
  85      7BF34E9B 
  85      56AD
  86 0012 6DADD65A 		.ascii	"m\255\326Z\\\024\321v\345\332\327?\340\242\005]\226"
  86      5C14D176 
  86      E5DAD73F 
  86      E0A2055D 
  86      96
  87 0023 AB84BB28 		.ascii	"\253\204\273(\210\315\316E'MZ\212\255\022|\3207\266"
  87      88CDCE45 
  87      274D5A8A 
  87      AD127CD0 
  87      37B6
  88 0035 A0526DB4 		.ascii	"\240Rm\264>6\025\021\002B\250H\251\202\313\202\301\242"
  88      3E361511 
  88      0242A848 
  88      A982CB82 
  88      C1A2
  89 0047 08BA70AD 		.ascii	"\010\272p\255\342\365\234\373\230\0334\244ApHf&g\316"
  89      E2F59CFB 
  89      981B34A4 
  89      41704866 
  89      2667CE
  90 005a F7E577E6 		.ascii	"\367\345w\346\316\\\001\002\376l]\364\265\202\000\207"
  90      CE5C0102 
  90      FE6C5DF4 
  90      B5820087 
  91 006a F9470090 		.ascii	"\371G\000\2202P\010\015@\012\235:]C\032PG\244e\204!"
  91      3250080D 
  91      400A9D3A 
  91      5D431A50 
  91      47A46584 
  92 007f A1E93874 		.ascii	"\241\3518t\226\177@\254\023\026\245\274V\272\363iM\237"
  92      967F40AC 
  92      1316A5BC 
  92      56BAF369 
  92      4D9F
  93 0091 BE51C82E 		.ascii	"\276Q\310.\310\237\226\205h\362\242\201p\206f\330a\017"
  93      C89F9685 
  93      68F2A281 
  93      708666D8 
  93      610F
  94 00a3 EC54DE1C 		.ascii	"\354T\336\034\241\234,NDs\3511iYC&j5\212\256\177<\275"
  94      A19C2C4E 
  94      4473E931 
  94      69594326 
  94      6A358AAE 
  95 00ba 26B305CB 		.ascii	"&\263\005\313:V\273\346\311\222\214\330t\232\311\325"
  95      3A56BBE6 
  95      C9928CD8 
  95      749AC9D5 
  96 00ca FC2F4DE1 		.ascii	"\374/M\341\305\350\315\346\313%\231\223\277h#L\014\370"
  96      C5E8CDE6 
  96      CB259993 
  96      BF68234C 
ARM GAS  /tmp/ccezqgOT.s 			page 7


  96      0CF8
  97 00dc B2B023C3 		.ascii	"\262\260#\303\212\262w\305\361\350#\351\356C\255\242"
  97      8AB277C5 
  97      F1E823E9 
  97      EE43ADA2 
  98 00ec CD7F11BD 		.ascii	"\315\177\021\275/>[D9*\323\337,+ab\260F\331d\361j\253"
  98      2F3E5B44 
  98      392AD3DF 
  98      2C2B6162 
  98      B046D964 
  99 0103 5C18F6EA 		.ascii	"\\\030\366\352\322\005\034\300Zv$W\230.N\224+C\002\016"
  99      D2051CC0 
  99      5A762457 
  99      982E4E94 
  99      2B43020E 
 100 0117 6EA75C11 		.ascii	"n\247\\\021\205\222e\345\037/|X\305\306\006\004:O\202"
 100      859265E5 
 100      1F2F7C58 
 100      C5C60604 
 100      3A4F82
 101 012a 3A4DE34E 		.ascii	":M\343N\247N\017p\027\204~\274\217\235\020\2421Oc\230"
 101      A74E0F70 
 101      17847EBC 
 101      8F9D10A2 
 101      314F6398 
 102 013e 8281881B 		.ascii	"\202\201\210\033\214\272\301\030\007\343n\260\316\015"
 102      8CBAC118 
 102      07E36EB0 
 102      CE0D
 103 014c D6733001 		.ascii	"\326s0\001v\371t\342\263\304\331\341d8\353\366\246P"
 103      76F974E2 
 103      B3C4D9E1 
 103      6438EBF6 
 103      A650
 104 015e EBB5FB3E 		.ascii	"\353\265\373>\276\021\332:\014o\256\3229\357\307\207"
 104      BE11DA3A 
 104      0C6FAED2 
 104      39EFC787 
 105 016e B4D949C4 		.ascii	"\264\331I\304#\220\227\015&\206ga&\235\343Y\344\022"
 105      2390970D 
 105      26866761 
 105      269DE359 
 105      E412
 106 0180 7C97533C 		.ascii	"|\227S<\213\016\330B\256-\012\336,VV\341\006d\012\343"
 106      8B0ED842 
 106      AE2D0ADE 
 106      2C5656E1 
 106      06640AE3 
 107 0194 9A672558 		.ascii	"\232g%X8\306\302\270\201\316\376\233X\007\260\016\231"
 107      38C6C2B8 
 107      81CEFE9B 
 107      5807B00E 
 107      99
 108 01a5 B1CC5DE1 		.ascii	"\261\314]\341\245i\224\311F\032:\016\245\231\2556oM"
 108      A56994C9 
 108      461A3A0E 
 108      A599AD36 
ARM GAS  /tmp/ccezqgOT.s 			page 8


 108      6F4D
 109 01b7 5716F506 		.ascii	"W\026\365\006\012\327\"\301iSr\356\351m\345\021Py\015"
 109      0AD722C1 
 109      695372EE 
 109      E96DE511 
 109      50790D
 110 01ca 065F1E6A 		.ascii	"\006_\036jT\012\2736~\026\374\037\274\0366q\207\201"
 110      540ABB36 
 110      7E16FC1F 
 110      BC1E3671 
 110      8781
 111 01dc 6EA56C6E 		.ascii	"n\245ln\342N\246\031~\365&\344\004\271vjG\351)p\371"
 111      E24EA619 
 111      7EF526E4 
 111      04B9766A 
 111      47E92970 
 112 01f1 920D7729 		.ascii	"\222\015w)\353\246\001\273\012vm\252P~\222]\231\177"
 112      EBA601BB 
 112      0A766DAA 
 112      507E925D 
 112      997F
 113 0203 F6257A5C 		.ascii	"\366%z\\\301r\376@9\177\2664\267\245\322B*m\267a?<v"
 113      C172FE40 
 113      397FB634 
 113      B7A5D242 
 113      2A6DB761 
 114 021a 0B9AD8CC 		.ascii	"\013\232\330\314\231#\245\371-\227\017@%\266\030\030"
 114      9923A5F9 
 114      2D970F40 
 114      25B61818 
 115 022a F212C9C0 		.ascii	"\362\022\311\300\304V\273\224/\231\037\023\207<\333"
 115      C456BB94 
 115      2F991F13 
 115      873CDB
 116 0239 70927336 		.ascii	"p\222s6@\377K\275\307\240{\341\250iW\332\034\356[>w"
 116      40FF4BBD 
 116      C7A07BE1 
 116      A86957DA 
 116      1CEE5B3E 
 117 024e A40AF792 		.ascii	"\244\012\367\222\317\035\255\304\035Q\334\367\252sG"
 117      CF1DADC4 
 117      1D51DCF7 
 117      AA7347
 118 025d C8C0E75E 		.ascii	"\310\300\347^\276\242\270cI>_\333p\307\024\367\262\317"
 118      BEA2B863 
 118      493E5FDB 
 118      70C714F7 
 118      B2CF
 119 026f 1DAFC29D 		.ascii	"\035\257\302\235\367\271\353*q\307\025\367\203\352\334"
 119      F7B9EB2A 
 119      71C715F7 
 119      83EADC
 120 027e 7132F0B9 		.ascii	"q2\360\271\237\373\334\365I>\336\333p\327\273\334#\245"
 120      9FFBDCF5 
 120      493EDEDB 
 120      70D7BBDC 
 120      23A5
ARM GAS  /tmp/ccezqgOT.s 			page 9


 121 0290 15C31326 		.ascii	"\025\303\023&T\342^\003#\352l5\242\355\320b\342\276"
 121      54E25E03 
 121      23EA6C35 
 121      A2EDD062 
 121      E2BE
 122 02a2 76E89A97 		.ascii	"v\350\232\227S\307Ml\007\327\334\304\375\000k\220\375"
 122      53C74D6C 
 122      07D7DCC4 
 122      FD006B90 
 122      FD
 123 02b3 AAAA4AB0 		.ascii	"\252\252J\260&X\376\306\351\345\273\240\365\361k^{\015"
 123      2658FEC6 
 123      E9E5BBA0 
 123      F5F16B5E 
 123      7B0D
 124 02c5 694238C7 		.ascii	"iB8\307\267\350-\240G\350\345\321\301\346\353\325\336"
 124      B7E82DA0 
 124      47E8E5D1 
 124      C1E6EBD5 
 124      DE
 125 02d6 DDDDA33E 		.ascii	"\335\335\243>\251\363\203\251\236\213){\034\030Lv\033"
 125      A9F383A9 
 125      9E8B297B 
 125      1C184C76 
 125      1B
 126 02e7 20521734 		.ascii	" R\0274\232\351'N\236\202\337\220F\231\276"
 126      9AE9274E 
 126      9E82DF90 
 126      4699BE
 127              		.text
 128              		.section	.gnu.lto_.symbol_nodes.3cd3da169d1b3642,"",%progbits
 129 0000 789C4DCC 		.ascii	"x\234M\314KR\0021\024\205\341sn:\240(\260\004\327F\225"
 129      4B520231 
 129      1485E173 
 129      6E3AA028 
 129      B004D746 
 130 0015 FBB814A9 		.ascii	"\373\270\024\251\262\265\2310a\003\364:t\322sG\316\345"
 130      B2B59930 
 130      6103F43A 
 130      74D27347 
 130      CEE5
 131 0027 317502BE 		.ascii	"1u\002\276A-\363\350\"d\362\325\237\223\212@pM\244#"
 131      412DF3E8 
 131      2264F2D5 
 131      9F938A40 
 131      704DA423 
 132 003b F75460F6 		.ascii	"\367T`\366\010\250\316oG\366\327\017\012y\2402\337\312"
 132      08A8CE6F 
 132      47F6D70F 
 132      0A79A032 
 132      DFCA
 133 004d 33554E72 		.ascii	"3UNrK5m>\335\215dG-r\332\017\322\177a\277(\2017\232"
 133      4B356D3E 
 133      DD8D6447 
 133      2D72DA0F 
 133      D27F61BF 
 134 0065 AEE79585 		.ascii	"\256\347\225\205\207\357T\233\236\216\307\344\017\265"
ARM GAS  /tmp/ccezqgOT.s 			page 10


 134      87EF549B 
 134      9E8EC7E4 
 134      0FB5
 135 0073 93EB40ED 		.ascii	"\223\353@\355\346\332S\317r}S\317s}R{\3072\002L\226"
 135      E6DA53CF 
 135      727D53CF 
 135      737D527B 
 135      C732024C 
 136 0088 7F34450F 		.ascii	"\1774E\017\256\265nm\202V\260\210\002\353\350\020n\025"
 136      AEB56E6D 
 136      8256B088 
 136      02EBE810 
 136      6E15
 137 009a 1CA0891A 		.ascii	"\034\240\211\032\254\243}\270\233\227+c/\321D\007\330"
 137      ACA37DB8 
 137      9B972B63 
 137      2FD14407 
 137      D8
 138 00ab 440D2665 		.ascii	"D\015&e\260\217\272L\373\246L\273\253\322\276\250\322"
 138      B08FBA4C 
 138      FBA64CBB 
 138      ABD2BEA8 
 138      D2
 139 00bc DE546977 		.ascii	"\336Tiw\323\340\005j/\376\001r\212m\223"
 139      D3E0056A 
 139      2FFE0172 
 139      8A6D93
 140              		.text
 141              		.section	.gnu.lto_.refs.3cd3da169d1b3642,"",%progbits
 142 0000 789C6362 		.ascii	"x\234cb`b\020e\200\000F bfe`cbadg\344`\342d\344dbe\000"
 142      60621065 
 142      80004620 
 142      62666560 
 142      63626164 
 143 001e 00056100 		.ascii	"\000\005a\000]"
 143      5D
 144              		.text
 145              		.section	.gnu.lto_.decls.3cd3da169d1b3642,"",%progbits
 146 0000 789CBD5B 		.ascii	"x\234\275[\013p\024e\236\357\356\231d2I\014\350\256"
 146      0B701465 
 146      9EEFEE99 
 146      6432490C 
 146      E8AE
 147 0012 1E96AC8E 		.ascii	"\036\226\254\216{\356\236\265\247D]oe\267\352\204]\256"
 147      7BEE9EB5 
 147      A7445D6F 
 147      65B7EA84 
 147      5DAE
 148 0024 4AAEF6BC 		.ascii	"J\256\366\274\332[w\357\254\272\272\033\233I\223\314"
 148      DA5B77EF 
 148      ACBABA1B 
 148      9B4993CC 
 149 0034 3233197B 		.ascii	"23\031{:<\326\252\265\023$A\204\030\302\373%\341%/A"
 149      3A3CD6AA 
 149      B5132441 
 149      8418C2FB 
 149      25E1252F 
ARM GAS  /tmp/ccezqgOT.s 			page 11


 150 0049 1E420441 		.ascii	"\036B\004AZ\221\004\220\227\020yo\010hp}\363\2247\271"
 150      5A910490 
 150      9710796F 
 150      0868707D 
 150      F39437B9 
 151 005d FFF7FFBA 		.ascii	"\377\367\377\272{\272{\272;\335Q\257+\375\3657\335\337"
 151      7BBA7BBA 
 151      3BDD51AF 
 151      2BFDF537 
 151      DDDF
 152 006f F7FBFEEF 		.ascii	"\367\373\376\357\357\031\216\341\230\177\343\030\246"
 152      EF198EE1 
 152      987FE318 
 152      A6
 153 007c 0BAE59BF 		.ascii	"\013\256Y\277e\230\377,`\230|\206a\036g\262W\021\334"
 153      6598FF2C 
 153      60987C86 
 153      611E67B2 
 153      5711DC
 154 008f F3E0FE33 		.ascii	"\363\340\3763\3130\177\201{\014\334\343\341n\200{\012"
 154      CB307F81 
 154      7B0CDCE3 
 154      E16E807B 
 154      0A
 155 00a0 DCAFC03D 		.ascii	"\334\257\300=\037\356\305p/\205;\017\312\276\011\317"
 155      1FEEC570 
 155      2F853B0F 
 155      CABE09CF 
 156 00b0 DF00EE13 		.ascii	"\337\000\356\023p\377\026n\236cL\027\301#\355,\200\273"
 156      70FF166E 
 156      9E634C17 
 156      C123ED2C 
 156      80BB
 157 00c2 04EE62B8 		.ascii	"\004\356b\270\025\250\263\001\356?AYR|\013\344\367\301"
 157      15A8B301 
 157      EE3F4159 
 157      527C0BE4 
 157      F7C1
 158 00d4 CDAAE539 		.ascii	"\315\252\3459\025w\230\005\213\320\025\202\347*\003"
 158      15779805 
 158      8BD01582 
 158      E72A03
 159 00e3 16C14D40 		.ascii	"\026\301M@\271\371\360\\\310P\214\327U\014R~\236\372"
 159      B9F9F05C 
 159      C8508CD7 
 159      550C527E 
 159      9EFA
 160 00f5 2E69C1FA 		.ascii	".i\301\372\213J\177!\233\305Z\250\342\221\362\177P\351"
 160      8B4A7F21 
 160      9BC55AA8 
 160      E291F27F 
 160      50E9
 161 0107 21E548D5 		.ascii	"!\345H\325\032x\246,\030D>\001xVr\024g\"K\337s\352\267"
 161      1A78A62C 
 161      18443E01 
 161      78567214 
 161      67224BDF 
ARM GAS  /tmp/ccezqgOT.s 			page 12


 162 011e 0615E345 		.ascii	"\006\025\343E\326\\\217\3104\002\317\001\006>Bj\333"
 162      D65C8FC8 
 162      3402CF01 
 162      063E426A 
 162      DB
 163 012f A7E09EC6 		.ascii	"\247\340\236\306R\274\177\001\240Ap\247\341\016\302"
 163      52BC7F01 
 163      A04170A7 
 163      E10EC2
 164 013e FB67E1F9 		.ascii	"\373g\341\371\034\233\345W\344(\017\353\340\3352\270"
 164      1C9BE557 
 164      E4280FEB 
 164      E0DD32B8 
 165 014e 07C3EF0C 		.ascii	"\007\303\357\014\334\022\334\317\303\357*x.\200\347"
 165      DC12DCCF 
 165      C3EF2A78 
 165      2E80E7
 166 015d 7078CE85 		.ascii	"px\316\205\347\010x\216\204{\024\334SU\232\012Uz4Y-"
 166      E708788E 
 166      847B14DC 
 166      53559A0A 
 166      557A3459 
 167 0172 55F5BE58 		.ascii	"U\365\276X\265\201\371\252\336\247\250\274j\272~\316"
 167      B581F9AA 
 167      DEA7A8BC 
 167      6ABA7ECE 
 168 0182 228B7B98 		.ascii	"\"\213{\230Wde_\307\266\346\035\201\031\262\362\202"
 168      5764655F 
 168      C7B6E61D 
 168      8119B2F2 
 168      82
 169 0193 0C6626B3 		.ascii	"\014f&\263\221;\230)2\\M\265\262\314JE\3148Y\256!?\006"
 169      913B9829 
 169      325C4DB5 
 169      B2CC4A45 
 169      CC3859AE 
 170 01aa 6F2FB98D 		.ascii	"o/\271\215\231H\276D\306~\004\300O\263<[\022f\344|\314"
 170      9948BE44 
 170      C67E04C0 
 170      4FB33C5B 
 170      1266E47C 
 171 01bf 15879967 		.ascii	"\025\207\231g\000\361'\314BYn\350X{\343@@\226\013xv"
 171      00F127CC 
 171      42596EE8 
 171      587BE340 
 171      40960B78 
 172 01d4 217B1B48 		.ascii	"!{\033H\366?X\346g\314R\250\331 \313\357\366\263\010"
 172      F63F58E6 
 172      67CC52A8 
 172      D920CBEF 
 172      F6B308
 173 01e7 16AFEE91 		.ascii	"\026\257\356\2219\206g\341o\011\000\362\354b\366g\264"
 173      398667E1 
 173      6F0900F2 
 173      EC62F667 
 173      B4
 174 01f8 29B9A3B9 		.ascii	")\271\243\271n\333h\266\032H\245\337\030\365\253\315"
ARM GAS  /tmp/ccezqgOT.s 			page 13


 174      6EDB68B6 
 174      1A48A5DF 
 174      18F5ABCD 
 175 0208 752FD304 		.ascii	"u/\323\004\254(\323\352\347\334)7\275\013\345\027\260"
 175      AC28D3EA 
 175      E7DC2937 
 175      BD0BE517 
 175      B0
 176 0219 4500FB32 		.ascii	"E\000\3732\253\341\252\355F\264f\211\372\324,\275\324"
 176      ABE1AAED 
 176      46B46689 
 176      FAD42CBD 
 176      D4
 177 022a 0266BC99 		.ascii	"\002f\274\231{\212\033x\015l\252o\260\210\011l\356\236"
 177      7B8A1B78 
 177      0D6CAA6F 
 177      B088096C 
 177      EE9E
 178 023c D9485C98 		.ascii	"\331H\\\230\031\233\025;c\013\246\212\372\332\270\367"
 178      199B153B 
 178      630BA68A 
 178      FADAB8F7 
 179 024c 3E604723 		.ascii	">`G#\377\253\240\032\307|\210$de\340\003\252~\333;l"
 179      FFABA01A 
 179      C77C8824 
 179      6465E003 
 179      AA7EDB3B 
 180 0261 0D42AD45 		.ascii	"\015B\255E\250k=\206\232\321\270\351\227h\000\353\021"
 180      A86B3D86 
 180      9AD1B8E9 
 180      976800EB 
 180      11
 181 0272 680D6706 		.ascii	"h\015g\006\342\331\220.F\375\267V\200\240\341g5C\242"
 181      E2D9902E 
 181      46FDB756 
 181      80A0E167 
 181      3543A2
 182 0285 5F2FE67B 		.ascii	"_/\346{.\3161\2339\017\252+p\262\003\271c}\335.\364"
 182      2ECE319B 
 182      390FAA2B 
 182      70B203B9 
 182      637DDD2E 
 183 029a A2806ACB 		.ascii	"\242\200j\313M\371N2\342\230\367\260\255\267\254\266"
 183      4DF94E32 
 183      E298F7B0 
 183      ADB7ACB6 
 184 02aa BCE1E0AE 		.ascii	"\274\341\340\256\032\325\226\337\362d\313\353vNCs\261"
 184      1AD596DF 
 184      F264CBEB 
 184      764E4373 
 184      B1
 185 02bb F55243F3 		.ascii	"\365RC\363M\234\326\376}\330\376El_\261\266?\351\350"
 185      4D9CD6FE 
 185      7DD8FE45 
 185      6C5FB1B6 
 185      3FE9E8
 186 02ce 4DCD9714 		.ascii	"M\315\227\024O\355\177\260\177rn\373<\373\370\355n\266"
ARM GAS  /tmp/ccezqgOT.s 			page 14


 186      4FED7FB0 
 186      7F726EFB 
 186      3CFBF8ED 
 186      6EB6
 187 02e0 B1E1E0E9 		.ascii	"\261\341\340\351\263j+\357\241\323\254\014X\255c@\221"
 187      B36A2BEF 
 187      A1D3AC0C 
 187      58AD6340 
 187      91
 188 02f1 597FF0DB 		.ascii	"Y\177\360\333P\200c\232\003\032\375=\362Y`\264m2\333"
 188      5080639A 
 188      031AFD3D 
 188      F25960B4 
 188      6D32DB
 189 0304 385ADEFE 		.ascii	"8Z\336\376\220F\303F\337\210\021\223$\332\366c\024\240"
 189      9046C346 
 189      DF881193 
 189      24DAF663 
 189      14A0
 190 0316 609BBD80 		.ascii	"`\233\275\2009\232R\215r\320\010\246\370\0063Sv\330"
 190      399A528D 
 190      72D008A6 
 190      F8063353 
 190      76D8
 191 0328 08B6D50B 		.ascii	"\010\266\325\013Xog\312\216\032\301Z|\203\231);n\004"
 191      586F67CA 
 191      8E1AC15A 
 191      7C839929 
 191      3B6E04
 192 033b DBE105AC 		.ascii	"\333\341\005\254\2173e\355F\260\335\276\301\314\224"
 192      8F3365ED 
 192      46B0DDBE 
 192      C1CC94
 193 034a 9D31827D 		.ascii	"\2351\202}\340\005,bC\231~\331\325#f\275\205\325\355"
 193      E0052C62 
 193      43997ED9 
 193      D52366BD 
 193      85D5ED
 194 035d 9C63DA02 		.ascii	"\234c\332\002ZL\360i\323L\026\343p\300o\0143\361\015"
 194      5A4CF069 
 194      D34C16E3 
 194      70C06F0C 
 194      33F10D
 195 0370 9DE9EE05 		.ascii	"\235\351\356\005\354$\352\027\264Ck\367\202\350b0\353"
 195      EC24EA17 
 195      B4436BF7 
 195      82E86230 
 195      EB
 196 0381 8DBDE369 		.ascii	"\215\275\343i\337`f\265\264\0210S\254Q{\244\216EJ\237"
 196      DF6066B5 
 196      B4113053 
 196      AC517BA4 
 196      8E454A9F 
 197 0395 E9D97057 		.ascii	"\351\331pW\240a\221\241\006\215m0\362\340\364\302r\237"
 197      A06191A1 
 197      068D6D30 
 197      F2E0F4C2 
ARM GAS  /tmp/ccezqgOT.s 			page 15


 197      729F
 198 03a7 3EF66579 		.ascii	">\366ey\366$\373\023HO\261a\235\012\232\327r]8\264\374"
 198      F624FB13 
 198      484FB161 
 198      9D0A9AD7 
 198      725D38B4 
 199 03bc 2A603788 		.ascii	"*`7\210A\000\367\252N\226p\302h\011\347\275\210\311"
 199      4100F7AA 
 199      4E9670C2 
 199      6809E7BD 
 199      88C9
 200 03ce C515CE38 		.ascii	"\305\025\3168\211I\251\225\307\262\325\253\373\352\365"
 200      8949A995 
 200      C7B2D5AB 
 200      FBEAF5
 201 03dd 061A6D42 		.ascii	"\006\032mB\017\317_\315SG\001\237`\347}5`;\012\360\004"
 201      0FCF5FCD 
 201      5347019F 
 201      60E77D35 
 201      603B0AF0 
 202 03f2 76AD7EAF 		.ascii	"v\255~\2576\244\370\014\301\306\004{\014\3264c\177_"
 202      36A4F80C 
 202      C1C6047B 
 202      0CD63463 
 202      7F5F
 203 0404 39C8B35F 		.ascii	"9\310\263_\"P}\320\332i\204-C\212\260\271\323\017\207"
 203      22507DD0 
 203      DA69842D 
 203      438AB0B9 
 203      D30F87
 204 0417 B3992EED 		.ascii	"\263\231.\3552\253\361{\255\343\244\372\323F\325\317"
 204      32ABF17B 
 204      ADE3A4FA 
 204      D346D5CF 
 205 0427 08FA55BD 		.ascii	"\010\372U\275\311C:\326\267\266\007\246\311Ju\300`\353"
 205      C9433AD6 
 205      B7B607A6 
 205      C94A75C0 
 205      60EB
 206 0439 AE8E012A 		.ascii	"\256\216\001*\332\371\366?\343P\355\034\312u\241\275"
 206      DAF9F63F 
 206      E350ED1C 
 206      CA75A1BD 
 207 0449 82BC00D5 		.ascii	"\202\274\000\325\257\370G\004\272\210@+z\0144\243\361"
 207      AFF84704 
 207      BA88402B 
 207      7A0C34A3 
 207      F1
 208 045a 95FE0874 		.ascii	"\225\376\010t\031\201\326\345h\232\265h\2325k@\367:"
 208      1981D6E5 
 208      689AB568 
 208      9A356B40 
 208      F73A
 209 046c D5E9BEAF 		.ascii	"\325\351\276\257\262\034\263\305\252.\023;.]\203\026"
 209      B21CB3C5 
 209      AA2E133B 
 209      2E5D8316 
ARM GAS  /tmp/ccezqgOT.s 			page 16


 210 047c 6F5B3F9E 		.ascii	"o[?\236\304\236\257\221\247?\344C\314\343T}\335@\351"
 210      C49EAF91 
 210      A73FE443 
 210      CCE3547D 
 210      DD40E9
 211 048f B4E648E7 		.ascii	"\264\346H\347\242O\361p\314^\337l\024\230\331\250\373"
 211      A24FF170 
 211      CC5EDF6C 
 211      1498D9A8 
 211      FB
 212 04a0 A4076C6C 		.ascii	"\244\007ll\241l\324p\204\215C\337\001\033'|\263\321"
 212      A16CD470 
 212      848D43DF 
 212      011B277C 
 212      B3D1
 213 04b2 DBC0064C 		.ascii	"\333\300\006L%[/L\246\275\337\017\230F\367!<\241\247"
 213      255B2F4C 
 213      A6BDDF0F 
 213      9846F721 
 213      3CA1A7
 214 04c5 8EFB8169 		.ascii	"\216\373\201i\370\254\\\334\313F\350\353\356F\316\262"
 214      F8AC5CDC 
 214      CB46E8EB 
 214      EE46CEB2 
 215 04d5 3269BF61 		.ascii	"2i\277a\242'{\232\235\355\324'z\343Pd\247\355\034\314"
 215      A2277B9A 
 215      9DEDD427 
 215      7AE35064 
 215      A7ED1CCC 
 216 04e9 0B54D3B5 		.ascii	"\013T\323\265=\267\223@:\001a\276\350)L\307\214\375"
 216      3DB79340 
 216      3A0161BE 
 216      E8294CC7 
 216      8CFD
 217 04fb CDD44F1B 		.ascii	"\315\324O\033\020\350B\216\012\363-\032\3147k\020~\222"
 217      10E8428E 
 217      0AF32D1A 
 217      CC376B10 
 217      7E92
 218 050d 962E6380 		.ascii	"\226.c\200|^}C~\204\230\377\367z\034s\023\311'\332\363"
 218      7C5E7D43 
 218      7E8498FF 
 218      F77A1C73 
 218      13C927DA 
 219 0522 39FED2AC 		.ascii	"9\376\322\254\247n\327dm\354D\0254&\357\333 \326([\032"
 219      A76ED764 
 219      6DEC4415 
 219      3426EFDB 
 219      20D6285B 
 220 0537 B5958A01 		.ascii	"\265\225\212\001d\364T\377-\341p\270m\032\026X\246m"
 220      64F454FF 
 220      2DE170B8 
 220      6D1A1658 
 220      A66D
 221 0549 0B1DBA1D 		.ascii	"\013\035\272\035mQg\365\370\007P\33539B\316\224<\253"
 221      6D5167F5 
 221      F80750DD 
ARM GAS  /tmp/ccezqgOT.s 			page 17


 221      333942CE 
 221      943CAB
 222 055c BA17B096 		.ascii	"\272\027\260\226i\033ya(\342\344H38C\017\270\344\333"
 222      691B7961 
 222      28E2E448 
 222      3338430F 
 222      B8E4DB
 223 056f 71096A38 		.ascii	"q\011j8\261\220\252\241\273I\3613\032Z16\274\022\033"
 223      B190AAA1 
 223      BB49F133 
 223      1A5A3136 
 223      BC121B
 224 0582 6EE22C73 		.ascii	"n\342,s\342K\237w\324\252#\030\362\255{\317>\326\031"
 224      E24B9F77 
 224      D4AA2318 
 224      F2AD7BCF 
 224      3ED619
 225 0595 961B8B6D 		.ascii	"\226\033\213m\332\263\033\037\255\2357\341_\351B\031"
 225      DAB31B1F 
 225      AD9D37E1 
 225      5FE94219 
 226 05a5 4716CADA 		.ascii	"G\026\312\332-2\325\226\022\006:\301\300P\224V\261\222"
 226      2D32D596 
 226      12063AC1 
 226      C0509456 
 226      B192
 227 05b7 DDDC7A49 		.ascii	"\335\334zI[JX\354\201\354\032\345\354K\306e1\236}\215"
 227      5B4A58EC 
 227      81EC1AE5 
 227      EC4BC665 
 227      319E7D8D 
 228 05cb E554DC9E 		.ascii	"\345T\334\236Y\333\271\367\365\201?\317\256\364\015"
 228      59DBB9F7 
 228      F5813FCF 
 228      AEF40D
 229 05da 16B12355 		.ascii	"\026\261#U\263\253,\267<\273\224#\003\366e\334\275\220"
 229      B3AB2CB7 
 229      3CBB9423 
 229      03F665DC 
 229      BD90
 230 05ec 2E8754BF 		.ascii	".\207T\2778\246K\327\250\235\350\272\367\350K\237_\236"
 230      38A64BD7 
 230      A89DE8BA 
 230      F7E84B9F 
 230      5F9E
 231 05fe 4A4DC94F 		.ascii	"JM\311O\224n\321\242\364J\014\002u\371V7!a\327\304\216"
 231      946ED1A2 
 231      F44A0C02 
 231      75F95637 
 231      2161D7C4 
 232 0613 AF303521 		.ascii	"\25705!\337\302\224\327\265\005\375rr\303\271F7\234"
 232      DFC294D7 
 232      B505FD72 
 232      72C3B946 
 232      379C
 233 0625 94FF2DDD 		.ascii	"\224\377-\335\260\365\023\217n(\263\032\\oly&\266\274"
 233      B0F5138F 
ARM GAS  /tmp/ccezqgOT.s 			page 18


 233      6E28B31A 
 233      5C6F6C79 
 233      26B6BC
 234 0638 CE6AD0D3 		.ascii	"\316j\320\323\316o\257S\015z\235'?\274\210~\250yV\213"
 234      CE6FAF53 
 234      0D7A9D27 
 234      3FBC887E 
 234      A879568B 
 235 064c 8EDA135B 		.ascii	"\216\332\023[\250Q\256|\272\203E8:\223\335c\205\363"
 235      A851AE7C 
 235      BA834538 
 235      3A93DD63 
 235      85F3
 236 065e AA0515EE 		.ascii	"\252\005\025\356\272\340W0\324\276\224#\235d\214\361"
 236      BAE05730 
 236      D4BE9423 
 236      9D648CF1 
 237 066e 36F27430 		.ascii	"6\362t0\307\264\250d\014\246\265\316\340)\315\350)o"
 237      C7B4A864 
 237      0CA6B5CE 
 237      E029CDE8 
 237      296F
 238 0680 A2A76CC4 		.ascii	"\242\247l\304t\223\321_\234\314b\263\321,\332}\363\035"
 238      7493D15F 
 238      9CCC62B3 
 238      D12CDA7D 
 238      F31D
 239 0692 F1687D6F 		.ascii	"\361h}o\030\233\351\374\226\326\267\276\365\353 \256"
 239      189BE9FC 
 239      96D6B7BE 
 239      F5EB20AE 
 240 06a2 C5FA58FC 		.ascii	"\305\372X\374\336\271Ms\334\367\350\270(G\272k\255#"
 240      DEB94D73 
 240      DCF7E8B8 
 240      2847BA6B 
 240      AD23
 241 06b4 522FCBCA 		.ascii	"R/\313\312\227{\312\212~A \313\3670+\214\330H]\037\232"
 241      977BCA8A 
 241      7E4120CB 
 241      F7302B8C 
 241      D8485D1F 
 242 06c9 5C528726 		.ascii	"\\R\207&\335\256Mk\375R\347\370\301\330/\355DK\033\035"
 242      DDAE4D6B 
 242      FD52E7F8 
 242      C1D82FED 
 242      444B1B1D 
 243 06dd B2EF975C 		.ascii	"\262\357\227\\\226\270\033\261\312\356\234~\251\356"
 243      96B81BB1 
 243      CAEE9C7E 
 243      A9EE
 244 06eb 82D62FED 		.ascii	"\202\326/\355\366\324/\035\260\355\227v\373\357\227"
 244      F6D42F1D 
 244      B0ED9776 
 244      FBEF97
 245 06fa EC2E2381 		.ascii	"\354.#\201<\273\027\035d\237\271\023\231\037\362 \373"
 245      3CBB171D 
 245      649FB913 
ARM GAS  /tmp/ccezqgOT.s 			page 19


 245      991FF220 
 245      FB
 246 070b FB9D4C51 		.ascii	"\373\235LQV\256\034\230\315R\372i z\315\212g\027\210"
 246      56AE1C98 
 246      CD52FA69 
 246      207ACD8A 
 246      671788
 247 071e 4C78265D 		.ascii	"Lx&]*\015\007\261_\245#\314f/\304=\344\004V\243\314"
 247      2A0D07B1 
 247      5FA523CC 
 247      662FC43D 
 247      E40456A3 
 248 0733 A660D4E0 		.ascii	"\246`\324\3407{\001\353\357\304i\215\362\326TMSo\340"
 248      377B01EB 
 248      EFC4698D 
 248      F2D6544D 
 248      536FE0
 249 0746 0071BB6F 		.ascii	"\000q\273o<3q\007\016\316V\361\350\306\326~/x\003\235"
 249      3C337107 
 249      0ECE56F1 
 249      E8C6D67E 
 249      2F78039D 
 250 075a E93B3BD5 		.ascii	"\351;;\3254\234\376\253o8\263\"n\034$\212\035\337\307"
 250      349CFEAB 
 250      6F38B322 
 250      6E1C248A 
 250      1DDFC7
 251 076d 6EEB52D1 		.ascii	"n\353R\321C7Y\253Q}jV\327\231;i\2009\201\226PW`\353"
 251      433759AB 
 251      517D6A56 
 251      D7993B69 
 251      80398196 
 252 0785 542E40B8 		.ascii	"T.@\270\276h\361(euK1\231\314\235\362\344Mk[|\357/\356"
 252      BE68F128 
 252      65754B31 
 252      99CC9DF2 
 252      E44D6B5B 
 253 079d DC44E7E9 		.ascii	"\334D\347\351\235h$3\013\276\223\2508\037aN\365tt\011"
 253      9D682433 
 253      0BBE93A8 
 253      381F614E 
 253      F5747409 
 254 07b1 B2DC77E7 		.ascii	"\262\334w\347\2065\262\374b\276F\330b\337\210fk[\337"
 254      8635B2FC 
 254      62BE46D8 
 254      62DF8866 
 254      6B5BDF
 255 07c4 82AE40C1 		.ascii	"\202\256@\301Vx\001s\351\336\337$"
 255      56780173 
 255      E9DEDF24 
 256 07d0 607EF670 		.ascii	"`~\366p[\265\276\347+l\177\315w#\345\015\276\3310\311"
 256      5BB5BEE7 
 256      2B6C7FCD 
 256      7723E50D 
 256      BED930C9 
 257 07e4 04A4FCB7 		.ascii	"\004\244\374\267;7\274!\313\253\237\361\265\346;n3\265"
 257      3B37BC21 
ARM GAS  /tmp/ccezqgOT.s 			page 20


 257      CBAB9FF1 
 257      B5E63B6E 
 257      33B5
 258 07f6 98F3C8CB 		.ascii	"\230\363\310\313[9\274|f\345\305\343\012*\307\274ge"
 258      5B39BC7C 
 258      66E5C5E3 
 258      0A2AC7BC 
 258      6765
 259 0808 C82E78DA 		.ascii	"\310.x\332\355F\330]F_\342\331\2170\370\177\214\343"
 259      ED46D85D 
 259      465FE2D9 
 259      8F30F87F 
 259      8CE3
 260 081a A24F31FD 		.ascii	"\242O1\375\034\323/1=g\356\024\366\026Xb\207\331O\325"
 260      1CD32F31 
 260      3D67EE14 
 260      F6165862 
 260      87D94FD5 
 261 082e EC60CF84 		.ascii	"\354`\317\204dO5\300T\006w \226\263\244\331\025\230"
 261      644F35C0 
 261      54067720 
 261      96B3A4D9 
 261      1598
 262 0840 BE8EE946 		.ascii	"\276\216\351FL\217bz\034\323vL;1=\213\351uL\253\221"
 262      4C8F627A 
 262      1CD3764C 
 262      3B313D8B 
 262      E9754CAB 
 263 0855 E45A4C77 		.ascii	"\344ZLw`\272\037\3236L\017bz\030\323\243\230\036\307"
 263      60BA1FD3 
 263      364C0F62 
 263      7A18D3A3 
 263      981EC7
 264 0868 B4DDCB60 		.ascii	"\264\335\313`\320\343\214~>{\207\232\373c@\223\331!"
 264      D0E38C7E 
 264      3E7B879A 
 264      FB634093 
 264      D921
 265 087a 8B1D30CC 		.ascii	"\213\0350\314O\231E\304\312\360\370\311d%\250- \360"
 265      4F9945C4 
 265      CAF0F8C9 
 265      6425A82D 
 265      20F0
 266 088c EC3CF61E 		.ascii	"\354<\366\036\007h\374|\2313\235c\241\247X\224K\357"
 266      0768FC7C 
 266      99339D63 
 266      A1A75894 
 266      4BEF
 267 089e 93BDF01A 		.ascii	"\223\275\360\032\245\253k\213\022aL\207Xh\017\342D\354"
 267      A5AB6B8B 
 267      12614C87 
 267      58680FE2 
 267      44EC
 268 08b0 352E97D8 		.ascii	"5.\227\330N\007b\3455K\3440\205#\025\256r\256\204^\267"
 268      4E0762E5 
 268      354BE430 
 268      852315AE 
ARM GAS  /tmp/ccezqgOT.s 			page 21


 268      72AE845E 
 269 08c5 23B4E3C4 		.ascii	"#\264\343\304\342w\372\256 \261K\276\331\365|u\015k"
 269      E277FAAE 
 269      20B14BBE 
 269      D9F57C75 
 269      0D6B
 270 08d7 2195F4EC 		.ascii	"!\225\364\354N\244v\251\244\006\360\270\222\256\017"
 270      4EA476A9 
 270      A406F0B8 
 270      92AE0F
 271 08e6 8D6E247D 		.ascii	"\215n$}f\330L\372}\314\002Yn\224W\013\203\265\311\313"
 271      66D84CFA 
 271      7DCC0259 
 271      6E94570B 
 271      83B5C9CB 
 272 08fa 022C71D3 		.ascii	"\002,q\323\201v}\035\0079\226\345c\037\377n0\245\212"
 272      81767D1D 
 272      073996E5 
 272      631FFF6E 
 272      30A58A
 273 090d 71A9A512 		.ascii	"q\251\245\022X\035\260\343x\316\362#u\354D\030\177\312"
 273      581DB0E3 
 273      78CEF223 
 273      75EC4418 
 273      7FCA
 274 091f 672032F5 		.ascii	"g 2\365\2660\354pZ\200\300\325\006,\374\016\310aw\233"
 274      B630EC70 
 274      5A80C0D5 
 274      062CFC0E 
 274      C861779B 
 275 0933 3DBB20DF 		.ascii	"=\273 \337\260\332\321\357\302\022c\002N\354\0160r+"
 275      B0DAD1EF 
 275      C2126302 
 275      4EEC0E30 
 275      722B
 276 0945 2F910348 		.ascii	"/\221\003H\022\243\3261\\<;\326\216=eJK\275fy\003\255"
 276      12A3D631 
 276      5C3C3BD6 
 276      8E3D654A 
 276      4BBD6679 
 277 095b 86E7C2DC 		.ascii	"\206\347\302\334\204@\256\335\355\011\333\332\235\205"
 277      8440AEDD 
 277      ED09DBDA 
 277      9D85
 278 0969 AEF156BA 		.ascii	"\256\361V\272\352s\351\352h\000C;9\015\304\336D\305"
 278      EA73E9EA 
 278      6800433B 
 278      390DC4DE 
 278      44C5
 279 097b 6EA5CCCD 		.ascii	"n\245\314\315\316&Z\345NLB\377Am\301\252\210c9\244\323"
 279      CE265AE5 
 279      4E4C42FF 
 279      416DC1AA 
 279      886339A4 
 280 0990 42936D69 		.ascii	"B\223mi\233\365\372\221\273\246\257\221_@'0\273@\001"
 280      9BF5FA91 
 280      BBA6AF91 
ARM GAS  /tmp/ccezqgOT.s 			page 22


 280      5F402730 
 280      BB4001
 281 09a3 53877B08 		.ascii	"S\207{\010c\344j\366Y=\3068\354\351\362\354\264@\001"
 281      63E46AF6 
 281      593DC638 
 281      ECE9F2EC 
 281      B44001
 282 09b6 B45E5DE8 		.ascii	"\264^]\350\270#K\012\220\213\324\247y-\347\262+7\325"
 282      B8234B0A 
 282      908BD4A7 
 282      792DE7B2 
 282      2B37D5
 283 09c9 2A81BCB0 		.ascii	"*\201\274\260\226\267\254\232\236r\011-\263\003E&RL"
 283      96B7AC9A 
 283      9E72092D 
 283      B3034526 
 283      524C
 284 09db 02AB2BB4 		.ascii	"\002\253+\264\027\330\034;\201)gZ\306\313lCuGW\327="
 284      17D81C3B 
 284      8129675A 
 284      C6CB6C43 
 284      754757D7 
 285 09f0 DE4D6CAE 		.ascii	"\336Ml\256\225\213S\270\211b\"c\216\003\031\363l\365"
 285      958B53B8 
 285      89622263 
 285      8E0319F3 
 285      6CF5
 286 0a02 D6BEF86C 		.ascii	"\326\276\370lh\206\374.9+\370\274\017[_\320\003\203"
 286      6886FC2E 
 286      392BF8BC 
 286      0F5B5FD0 
 286      0383
 287 0a14 5AE140D8 		.ascii	"Z\341@\330\253\266\362\271ve;;\266Q\276\336\325\025"
 287      ABB6F2B9 
 287      76653B3B 
 287      B651BEDE 
 287      D515
 288 0a26 503B208E 		.ascii	"P; \216\331\350\200\260\304\226\265E\257~\312:\261F"
 288      D9E880B0 
 288      C496B545 
 288      AF7ECA3A 
 288      B146
 289 0a38 C875E26D 		.ascii	"\310u\342m\231M\220R\363>\016\314\255?\371\253\327e"
 289      994D9052 
 289      F33E0ECC 
 289      AD3FF9AB 
 289      D765
 290 0a4a B937F4F9 		.ascii	"\2717\364\371\0012j\272d!\035\015\320\304D\236y\320"
 290      01326ABA 
 290      64211D0D 
 290      D0C4449E 
 290      79D0
 291 0a5c 9417CE66 		.ascii	"\224\027\316f\262G\340t\232h\217\345`\302$\314\272\320"
 291      B247E074 
 291      9A688FE5 
 291      60C224CC 
 291      BAD0
ARM GAS  /tmp/ccezqgOT.s 			page 23


 292 0a6e 3666D60F 		.ascii	"6f\326\017\311\014cM\200D\323\233\026\302<B\341bT\240"
 292      C90C634D 
 292      8044D39B 
 292      16C23C42 
 292      E16254A0 
 293 0a82 C8461D4E 		.ascii	"\310F\035N\337\214\342\3145\216\332\"{\3256\233U\373"
 293      DF8CE2CC 
 293      358EDA22 
 293      7BD5369B 
 293      55FB
 294 0a94 63661E51 		.ascii	"cf\036Qms\353\256>\257\325\310/\254\006\225v\261]\003"
 294      6D73EBAE 
 294      3EAFD5C8 
 294      2FAC0695 
 294      76B15D03 
 295 0aa8 6CA75AFF 		.ascii	"l\247Z\377\243\321{\270\2101,\320\277\374+\034\314n"
 295      A3D17BB8 
 295      88312CD0 
 295      BFFC2B1C 
 295      CC6E
 296 0aba 089039DB 		.ascii	"\010\2209\333tK\263\036\2008f!V\332\024\310=\271\252"
 296      744BB31E 
 296      80386621 
 296      56DA14C8 
 296      3DB9AA
 297 0acd AD68926F 		.ascii	"\255h\222o\335\257h\316i\247K\0116k\205\035\372\370"
 297      DDAF68CE 
 297      69A74B09 
 297      366B851D 
 297      FAF8
 298 0adf B3AF81F6 		.ascii	"\263\257\201\366\315\023\036G\332\025\244}\245\003\355"
 298      CD131E47 
 298      DA15A47D 
 298      A503ED
 299 0aee 8E303076 		.ascii	"\21600v\307*[s)o\253U)\337\352\211\362\003G\315\213"
 299      C72A5B73 
 299      296FAB55 
 299      29DFEA89 
 299      F20347CD 
 300 0b03 203B745C 		.ascii	" ;t\\\227q<\275l\347WmGq\262F\327\005>\260\202\371\232"
 300      97713CBD 
 300      6CE7576D 
 300      4771B246 
 300      D7053EB0 
 301 0b1a ACC9CA61 		.ascii	"\254\311\312a\012\366\026\036U>\354\033,b\242\354\304"
 301      0AF6161E 
 301      553EEC1B 
 301      2C62A2EC 
 301      C4
 302 0b2b 4CF3E9E2 		.ascii	"L\363\351\342v/x.\347\247\316\0345\236\237\362\015f"
 302      762F782E 
 302      E7A7CE1C 
 302      359E9FF2 
 302      0D66
 303 0b3d 26EE1B23 		.ascii	"&\356\033#\330W^\300\354N\031\331]F#\341\331m\0012\205"
 303      D8575EC0 
 303      EC4E19D9 
ARM GAS  /tmp/ccezqgOT.s 			page 24


 303      5D4623E1 
 303      D96D0132 
 304 0b52 69099069 		.ascii	"i\011\220i\305vLwb\272\013\323=\230\356\013\230fT\227"
 304      C5764C77 
 304      62BA0BD3 
 304      3D98EE0B 
 304      98665497 
 305 0b66 751FB135 		.ascii	"u\037\2615\305\356LBV\3269;\207\335Bz\307\332\015\365"
 305      C5EE4C42 
 305      56D6393B 
 305      87DD427A 
 305      C7DA0DF5 
 306 0b7a 4FA373B4 		.ascii	"O\243s\264\241s\334\354\3369\254\033\025\223\213I\225"
 306      A173DCEC 
 306      DE39AC1B 
 306      15938B49 
 306      95
 307 0b8b 4339CED1 		.ascii	"C9\316\321zc\214\352\034\207<8G\215re\332\034o\207x"
 307      7A638CEA 
 307      1C873C38 
 307      478D7265 
 307      DA1C6F87 
 308 0ba0 F5F67F68 		.ascii	"\365\366\177h`cQ=\335@<\216l,/\356\226\0153\014\370"
 308      6063513D 
 308      DD403C8E 
 308      6C2C2FEE 
 308      960D330C 
 309 0bb5 38563991 		.ascii	"8V9\221\313\306\227\032\033'<\261\261a\232f\371\307"
 309      CBC6971A 
 309      1B273CB1 
 309      B1619A66 
 309      F9C7
 310 0bc7 B0A3D8A5 		.ascii	"\260\243\330\245\343\366h\211G\331x\010\215\225\202"
 310      E3F66889 
 310      47D97808 
 310      8D9582
 311 0bd6 B5F90633 		.ascii	"\265\371\0063[\376\346C~\327\275\326\2568\300\241`?"
 311      5BFEE643 
 311      7ED7BDD6 
 311      AE38C0A1 
 311      603F
 312 0be8 C1FEF878 		.ascii	"\301\376\370x\261\265?\356\321\212\314i/|8/,\201V\276"
 312      B1B53FEE 
 312      D18ACC69 
 312      2F7C382F 
 312      2C8156BE 
 313 0bfc 9E62B3AD 		.ascii	"\236b\263\255\326m\027\276\366\354\204\373\221\233/"
 313      D66D17BE 
 313      F6EC84FB 
 313      919B2F
 314 0c0b 509C5FE7 		.ascii	"P\234_\347p\263.`\331\273\267t\310\340\241\276I\217"
 314      70B32E60 
 314      D9BBB774 
 314      C8E0A1BE 
 314      498F
 315 0c1d 5848BFB0 		.ascii	"XH\277\260H;\037\201\3632\371\026\017\200\336\027sN"
 315      483B1F81 
ARM GAS  /tmp/ccezqgOT.s 			page 25


 315      F332F916 
 315      0F80DE17 
 315      734E
 316 0c2f 1802D049 		.ascii	"\030\002\320I\014@\2470\320|\214\351iL?\307\364\214"
 316      0C40A730 
 316      D07C8CE9 
 316      694C3FC7 
 316      F48C
 317 0c41 31F4380D 		.ascii	"1\3648\015V\216e\005\302\263\037\0058\325\325{f\313"
 317      568E6505 
 317      C2B31F05 
 317      38D5D57B 
 317      66CB
 318 0c53 D7B3B6CC 		.ascii	"\327\263\266\314\263\235\276\301\314\266<\361\250\266"
 318      B39DBEC1 
 318      CCB63CF1 
 318      A8B6
 319 0c61 2E4E4C93 		.ascii	".NL\223g?\363\202\347\262X\271\212\366\012\324\316\353"
 319      673FF382 
 319      E7B258B9 
 319      8AF60AD4 
 319      CEEB
 320 0c73 6E617D82 		.ascii	"na}\202E\334\224r\310\240\224#\250\224\243\250\202s"
 320      45DC9472 
 320      C8A09423 
 320      A894A3A8 
 320      8273
 321 0c85 989EC7F4 		.ascii	"\230\236\307\364\202\271'\230t\213\245'0\307]\273\216"
 321      82B92798 
 321      748BA527 
 321      30C75DBB 
 321      8E
 322 0c96 C9281F59 		.ascii	"\311(\037Y\331\364\277\015\274]\334\373\265Vw\262\361"
 322      D9F4BF0D 
 322      BC5DDCFB 
 322      B55677B2 
 322      F1
 323 0ca7 00C697F5 		.ascii	"\000\306\227\365t\243\3532\306\317\231\267t\037?\315"
 323      74A3EB32 
 323      C6CF99B7 
 323      741F3FCD 
 324 0cb7 381CB314 		.ascii	"8\034\263\024\353\\\313\035$uj\203\244k\335\007\320"
 324      EB5CCB1D 
 324      24756A83 
 324      A46BDD07 
 324      D0
 325 0cc8 17462BEB 		.ascii	"\027F+\353f\275\232\355\007F\353\236\335\3412\2774\035"
 325      66BD9AED 
 325      0746EB9E 
 325      DDE132BF 
 325      341D
 326 0cda 1BDEA0D3 		.ascii	"\033\336\240\323\321\023#\225\225-\3074\273\242'\027"
 326      D1132395 
 326      952DC734 
 326      BBA22717 
 327 0cea B6FAC633 		.ascii	"\266\372\3063\353\341\3401\264+\012\366\276\0270\227"
 327      EBE1E031 
ARM GAS  /tmp/ccezqgOT.s 			page 26


 327      B42B0AF6 
 327      BE173097 
 328 0cfa 41DAB9FF 		.ascii	"A\332\271\377\266U\252\242\017\034\307\032\224z\344"
 328      B655AAA2 
 328      0F1CC71A 
 328      947AE4
 329 0d09 AB9377D3 		.ascii	"\253\223w\323\345\364\332 \321\352\225\356\265j\001"
 329      E5F4DA20 
 329      D1EA95EE 
 329      B56A01
 330 0d18 22C27D31 		.ascii	"\"\302}1h\331i\231\333\212;-\344}\367\335as\253&\315"
 330      68D96999 
 330      DB8A3B2D 
 330      E47DF7DD 
 330      6173AB26 
 331 0d2d 3CC2FF4B 		.ascii	"<\302\377K%\254\012\331\263\010\262\245\316\333 \301"
 331      25AC0AD9 
 331      B308B2A5 
 331      CEDB20C1 
 332 0d3d F6D0C094 		.ascii	"\366\320\300\224Vrh\340e\224\305\244\022\237\003\035"
 332      567268E0 
 332      6594C5A4 
 332      129F031D 
 333 0d4d C26AA355 		.ascii	"\302j\243U\024\007\350\246S\243'Q\034k1\006,\216\231"
 333      1407E8A6 
 333      53A32751 
 333      1C6B3106 
 333      2C8E99
 334 0d60 8F2434F6 		.ascii	"\217$4\366X\026\347k\315c\354e\276\361\"&\274\253t\353"
 334      5816E76B 
 334      CD63EC65 
 334      BEF12226 
 334      BCAB74EB 
 335 0d74 073BA555 		.ascii	"\007;\245U^\260\\\202\351\244\326\331\177'w(\254v\012"
 335      5EB05C82 
 335      E9A4D6D9 
 335      7F277728 
 335      AC760A
 336 0d87 7AA315CF 		.ascii	"z\243\025\317\356L\252\367x\232U\004\317N\012\222x:"
 336      EE4CAAF7 
 336      789A5504 
 336      CF4E0A92 
 336      783A
 337 0d99 394862E8 		.ascii	"9Hb\350TL\247c:3\350\241{\253\017\032\"\307V\337\306"
 337      544CA763 
 337      3A33E8A1 
 337      7BAB0F1A 
 337      22C756DF 
 338 0dae 69142078 		.ascii	"i\024 x\372\023\015\374\255L\203jG\324\3224[\322\375"
 338      FA130DFC 
 338      AD4C836A 
 338      47D4D234 
 338      5BD2FD
 339 0dc1 4AD6FCEA 		.ascii	"J\326\374\352\225\340\255\2303\035\252\302\"N\304\316"
 339      95E0AD98 
 339      331DAAC2 
 339      224EC4CE 
ARM GAS  /tmp/ccezqgOT.s 			page 27


 340 0dd1 0D66FFA7 		.ascii	"\015f\377\247\2428\234\315\014\3209\330i\345\300\322"
 340      A2389CCD 
 340      0CD039D8 
 340      69E5C0D2 
 341 0de1 AE8BE2EC 		.ascii	"\256\213\342\354\005\375\242A\320\343P\320/\241p'`:"
 341      05FDA241 
 341      D0E350D0 
 341      2FA17027 
 341      603A
 342 0df3 2768EAB2 		.ascii	"'h\352\262\332J,\301\315\022M|\253\371\232\241\333\274"
 342      DA4A2CC1 
 342      CD124D7C 
 342      ABF99AA1 
 342      DBBC
 343 0e05 81DDE64D 		.ascii	"\201\335\346M\354*\253\261\365\321\230\2161\323p\262"
 343      EC2AABB1 
 343      F5D1988E 
 343      31D370B2 
 344 0e15 C4D26D5A 		.ascii	"\304\322mZ\372)5\357|\262\240c}\335\207\241jY\231\376"
 344      FA2935EF 
 344      7CB2A063 
 344      7DDD87A1 
 344      6A5999FE 
 345 0e29 90F66FBB 		.ascii	"\220\366o\273\235VH\363\177\344\252Y\305%j\267\267\027"
 345      9D5648F3 
 345      7FE4AA59 
 345      C5256AB7 
 345      B717
 346 0e3b EB61BBDB 		.ascii	"\353a\273\3333'\263\272\376\366\030v\305\257b\240:c"
 346      3327B3BA 
 346      FEF61876 
 346      C5AF62A0 
 346      3A63
 347 0e4d 1FA8DCCF 		.ascii	"\037\250\334\317d/\265\006\252\263B\204\276\3650\017"
 347      642FB506 
 347      AAB34284 
 347      BEF5300F 
 348 0e5d EB548F78 		.ascii	"\353T\217x\321=\340\352^\254\012\3503J\331\253t\251"
 348      D13DE0EA 
 348      5EAC0AE8 
 348      334AD9AB 
 348      74A9
 349 0e6f C1A096A1 		.ascii	"\301\240\226\241A-7+pl/\213\264\355\332k\312:\202U\330"
 349      412D372B 
 349      706C2F8B 
 349      B4EDDA6B 
 349      CA3A8255 
 350 0e84 E47F3FA8 		.ascii	"\344\177?\250\376l\027\245\002\032D\377\254\304\233"
 350      FE6C17A5 
 350      021A44FF 
 350      ACC49B
 351 0e93 AF5EA112 		.ascii	"\257^\241\022\177\035%\276\252\227\207\305-\023\016"
 351      7F1D25BE 
 351      AA9787C5 
 351      2D130E
 352 0ea2 616C8DAD 		.ascii	"al\215\255\310\327x\022\371yM\344t\333{\013\022\260"
 352      C8D77812 
ARM GAS  /tmp/ccezqgOT.s 			page 28


 352      F9794DE4 
 352      74DB7B0B 
 352      12B0
 353 0eb4 A6C71DC3 		.ascii	"\246\307\035\303\005\201L.(\3266\337X\021\2434\225o"
 353      05814C2E 
 353      28D636DF 
 353      5811A334 
 353      956F
 354 0ec6 F2C68ECE 		.ascii	"\362\306\216\316\327\216j\354\261\202\331\356\367\272"
 354      D78E6AEC 
 354      B182D9EE 
 354      F7BA
 355 0ed4 38C25523 		.ascii	"8\302U#\332\021Oh\021\317\246\265\306`Zk\321\264\336"
 355      DA114F68 
 355      11CFA6B5 
 355      C6605A6B 
 355      D1B4DE
 356 0ee7 C008B11E 		.ascii	"\300\010\261\036\32371\335h6\266\217\255\306f\326\253"
 356      D33731DD 
 356      6836B68F 
 356      ADC666D6 
 356      AB
 357 0ef8 9A5DE262 		.ascii	"\232]\342bm\315\255\235\217\241\265i\201\037\254\204"
 357      6DCDAD9D 
 357      8FA1B569 
 357      811FAC84 
 358 0f08 FEC79886 		.ascii	"\376\307\230\206\330K\203\271\314\252\204\276\355;\362"
 358      D84B83B9 
 358      CCAA84BE 
 358      ED3BF2
 359 0f17 6F7188FC 		.ascii	"oq\210\374w\353\234\234\315\341\304\334\256\232\357"
 359      77EB9C9C 
 359      CDE1C4DC 
 359      AE9AEF
 360 0f26 B063C55E 		.ascii	"\260c\305^\234\233\014\301\367m\014\276[0\370\036\300"
 360      9C9B0CC1 
 360      F76D0CBE 
 360      5B30F81E 
 360      C0
 361 0f37 F412A60B 		.ascii	"\364\022\246\013P\250\2130]\211\351f\263\200\345\336"
 361      50A88B30 
 361      5D89E966 
 361      B380E5DE 
 362 0f47 9A2F6964 		.ascii	"\232/id\231W\205IC\357\004\365\265j\262N\275\212\354"
 362      99578549 
 362      43EF04F5 
 362      B56AB24E 
 362      BD8AEC
 363 0f5a 8AED78F0 		.ascii	"\212\355x\360\315\032\262+&_\356b\273\002\331NU\037"
 363      CD1AB22B 
 363      265FEE62 
 363      BB02D94E 
 363      551F
 364 0f6c F7296EFF 		.ascii	"\367)n\377a\255o\221\346\270\235\261{6\374w5\317nSu"
 364      61AD6F91 
 364      E6B89DB1 
 364      7B36FC77 
ARM GAS  /tmp/ccezqgOT.s 			page 29


 364      35CF6E53 
 365 0f81 927B71CC 		.ascii	"\222{q\314\350\336\254\005\213g[\314D75(s_\232\302\312"
 365      E8DEAC05 
 365      8B675BCC 
 365      44373528 
 365      735F9AC2 
 366 0f96 F36A64F9 		.ascii	"\363jd\371fW\027kl\307"
 366      6657176B 
 366      6CC7
 367 0fa0 B069625E 		.ascii	"\260ib^t\"8\333}\333\302\016\007[\010\352\364\326Z\205"
 367      742238DB 
 367      7DDBC20E 
 367      075B08EA 
 367      F4D65A85 
 368 0fb4 9EDBEC4E 		.ascii	"\236\333\354N\213\314\225\2169\313\317\366\335]C\266"
 368      8BCC958E 
 368      39CBCFF6 
 368      DD5D43B6 
 369 0fc4 E34D3227 		.ascii	"\343M2'g\356MB\327\372\037\230W\270,\012\326\003\011"
 369      67EE4D42 
 369      D7FA1F98 
 369      57B82C0A 
 369      D60309
 370 0fd7 DD0EA979 		.ascii	"\335\016\251yvo\220\314\331\367YB'\331\025\325\266\004"
 370      766F90CC 
 370      D9F75942 
 370      27D915D5 
 370      B604
 371 0fe9 F679EBB3 		.ascii	"\366y\353\263nl\247\001\364\004\216\204\247\241\000"
 371      6E6CA701 
 371      F4048E84 
 371      A7A100
 372 0ff8 F6F53880 		.ascii	"\366\3658\200^\373\024\341"
 372      5EFB14E1 
 373 1000 2C6B4B13 		.ascii	",kK\023\\\366t>4\216#g\373n>bj\376:\306o\002\011\223"
 373      5CF6743E 
 373      348E2367 
 373      FB6E3E62 
 373      6AFE3AC6 
 374 1018 042F582E 		.ascii	"\004/X.\003\361\233\006\254\345\276\261\"\026qkz\340"
 374      03F19B06 
 374      ACE5BEB1 
 374      2216716B 
 374      7AE0
 375 102a D9FDE8ED 		.ascii	"\331\375\350\355m\230\036\302\364H\367\343m\213@\367"
 375      6D981EC2 
 375      F448F7E3 
 375      6D8B40F7 
 376 103a 385082EB 		.ascii	"8P\202\353N\301\"K\333j\311\201fB\015fJ+\331\027\343"
 376      4EC1224B 
 376      DB6AC981 
 376      66420D66 
 376      4A2BD917 
 377 104f D9E3BE1D 		.ascii	"\331\343\276\035\355\257\016\216f\334a\317\226\002\371"
 377      EDAF0E8E 
 377      66DC61CF 
 377      9602F9
ARM GAS  /tmp/ccezqgOT.s 			page 30


 378 105e AEB5FA5D 		.ascii	"\256\265\372]\016\021\355\252\333=\312\254\225\307*"
 378      0E11EDAA 
 378      DB3DCAAC 
 378      95C72A
 379 106d 303ED805 		.ascii	"0>\330\005T\351z{\216\271*O\227\301\023\337\371Q\200"
 379      54E97A7B 
 379      8EB92A4F 
 379      97C113DF 
 379      F95180
 380 1080 32437CF3 		.ascii	"2C|\363\314>\345b\355\034VnRC\013\225\033\307\274mm"
 380      CC3EE562 
 380      ED1C566E 
 380      52430B95 
 380      1BC7BC6D 
 381 1095 2D77BE7A 		.ascii	"-w\276z\312\324\334@Z\223\352\216\266\245\\j1O\245\265"
 381      CAD4DC40 
 381      5A93EA8E 
 381      B6A55C6A 
 381      314FA5B5 
 382 10a9 B835DDBC 		.ascii	"\2705\335\274\243?RC\356\245\"\237\366-\315O\034\244"
 382      A33F5243 
 382      EEA5229F 
 382      F62DCD4F 
 382      1CA4
 383 10bb 59E26A31 		.ascii	"Y\342j10\012\315\032\302\335Lk\3579\362\364\201\331"
 383      300ACD1A 
 383      C2DD4C6B 
 383      EF39F2F4 
 383      81D9
 384 10cd E6A90592 		.ascii	"\346\251\005\222\032\324\001\251-\032\177\037Qy\035"
 384      1AD401A9 
 384      2D1A7F1F 
 384      51791D
 385 10dc 2B2BD7F3 		.ascii	"++\327\363\351k\363\301\021\265]*;\315\352,\206\272"
 385      E96BF3C1 
 385      11B55D2A 
 385      3BCDEA2C 
 385      86BA
 386 10ee C161348A 		.ascii	"\301a4\212\247\370\262\364E\230\271$z-\332\030\256\011"
 386      A7F8B2F4 
 386      4598B924 
 386      7A2DDA18 
 386      AE09
 387 1100 EA8754C8 		.ascii	"\352\207T\310!.\375\262\340\222\355y'\334/\254\270\312"
 387      212EFDB2 
 387      E092ED79 
 387      27DC2FAC 
 387      B8CA
 388 1112 F597648E 		.ascii	"\365\227d\216\323q\311\231+\306\322r\373\342#}\345\027"
 388      D371C999 
 388      2BC6D272 
 388      FBE2237D 
 388      E517
 389 1124 0AF43237 		.ascii	"\012\364279\347\266'\272D\263\257\263m[jm\315\332kN"
 389      39E7B627 
 389      BA44B3AF 
 389      B36D5B6A 
ARM GAS  /tmp/ccezqgOT.s 			page 31


 389      6DCDDA6B 
 390 1139 AD338EB5 		.ascii	"\2553\216\265\310\3212\247Zg\035k-s\241\360\234c\255"
 390      C8D132A7 
 390      5A671D6B 
 390      2D73A1F0 
 390      9C63AD
 391 114c ED2E149E 		.ascii	"\355.\024\236w\254\325\345B\341\005\307Z\013\\(\274"
 391      77ACD5E5 
 391      42E105C7 
 391      5A0B5C28 
 391      BC
 392 115d E8586BAE 		.ascii	"\350Xk\256K\255o\034kMu\251u\311\241\226\036\034\247"
 392      4BAD6F1C 
 392      6B4D75A9 
 392      75C9A196 
 392      1E1CA7
 393 1170 777340E7 		.ascii	"ws@\347\212ow\276\352\340\316\332\341\004\247z\227s"
 393      8A6F77BE 
 393      EAE0CEDA 
 393      E104A77A 
 393      9773
 394 1182 DC65F6F2 		.ascii	"\334e\366\362w\3562\032\255\371T\327O\373\365+\325\377"
 394      77EE321A 
 394      ADF954D7 
 394      4FFBF52B 
 394      D5FF
 395 1194 2A33A5A2 		.ascii	"*3\245\242T\032O\305\022UeBi\254B\252\020\005\276,\323"
 395      541A4FC5 
 395      12556542 
 395      69AC42AA 
 395      1005BE2C 
 396 11a9 AF82F907 		.ascii	"\257\202\371\007\267b\231Q\031iTZ \345\012h\225\250"
 396      B7629951 
 396      1969545A 
 396      20E50A68 
 396      95A8
 397 11bb 94FFC4BF 		.ascii	"\224\377\304\277\37712\210\011\307*\242\364\325\337"
 397      FF313288 
 397      09C72AA2 
 397      F4D5DF
 398 11ca BB22C42A 		.ascii	"\273\"\304*\312\240v~:\232\022FJ\360H\213\302\360\307"
 398      CAA0767E 
 398      3A9A1246 
 398      4AF0488B 
 398      C2F0C7
 399 11dd 726BA42B 		.ascii	"rk\244+E)S\372\353\337?9\350\311\221\245\261\312d:\236"
 399      452953FA 
 399      EBDF3F39 
 399      E8C991A5 
 399      B1CA643A 
 400 11f2 10C44CE9 		.ascii	"\020\304L\351\023\203\006\021jU\032BRZ\214WF\245\037"
 400      13830611 
 400      6A551A42 
 400      525A8C57 
 400      46A51F
 401 1205 95566544 		.ascii	"\225VeD\275\221\2240\"\021\037R\232\221\312\342)\211"
 401      BD919430 
ARM GAS  /tmp/ccezqgOT.s 			page 32


 401      22111F52 
 401      9A91CAE2 
 401      2989
 402 1217 505A05CF 		.ascii	"PZ\005\317\237?\022\225\036\264+\226\344c\025\361\224"
 402      9F3F1295 
 402      1EB42B96 
 402      E46315F1 
 402      94
 403 1228 501A2D13 		.ascii	"P\032-\023\206\362U\011)\252\201\027F\243ZE$3^\031\212"
 403      86F25509 
 403      29AA8117 
 403      46A35A45 
 403      24335E19 
 404 123d 55A624A0 		.ascii	"U\246$\240\372\376\356\310\255\210U\212\002@\024\221"
 404      FAFEEEC8 
 404      AD88558A 
 404      02401491 
 405 124d D7510089 		.ascii	"\327Q\000\211I#\037\360T):\374\261$!Y\024\312y1\031"
 405      49231FF0 
 405      54293AFC 
 405      B1242159 
 405      14CA7931 
 406 1262 9538F151 		.ascii	"\2258\361QN\374'N\374\005'>\306\211\3759\361\227\001"
 406      4EFC274E 
 406      FC05273E 
 406      C689FD39 
 406      F19701
 407 1275 F1E187E0 		.ascii	"\361\341\207\340~\230K\210\360\370y^:\012\340!\"\316"
 407      7E984B88 
 407      F0F8795E 
 407      3A0AE021 
 407      22CE
 408 1287 118208CF 		.ascii	"\021\202\010\317\312D\231 \006c\025\274Hd\314'\205\302"
 408      CA449920 
 408      066315BC 
 408      4864CC27 
 408      85C2
 409 1299 8C348C4F 		.ascii	"\2144\214O\304\313SQ\011%\361\213G\243\222\312\033f"
 409      C4CB5351 
 409      0925F18B 
 409      47A392CA 
 409      1B66
 410 12ab D3512890 		.ascii	"\323Q(\220\210'\343R\201\224\221xI\210J!\362\261\177"
 410      8827E352 
 410      81949178 
 410      49884A21 
 410      F2B17F
 411 12be 540AD362 		.ascii	"T\012\323b\220\013\221R\360-$%+\313\004\374=4\301\227"
 411      900B9152 
 411      F02D2425 
 411      2BCB04FC 
 411      3D34C197 
 412 12d2 67429228 		.ascii	"gB\222(\014\315\240\204H&/\231)\207\217\252\330\240"
 412      0CCDA084 
 412      48262F99 
 412      29878FAA 
 412      D8A0
ARM GAS  /tmp/ccezqgOT.s 			page 33


 413 12e4 BA2640B1 		.ascii	"\272&@\261l\024|*\020F\306\245\030\000\344\217\220*"
 413      6C147C2A 
 413      1046C6A5 
 413      1800E48F 
 413      902A
 414 12f6 87FC297D 		.ascii	"\207\374)}\233jCPU\020\205T\014\200\363FH\222\230.\006"
 414      9B6A4350 
 414      55108554 
 414      0C80F346 
 414      4892982E 
 415 130b 63CA0849 		.ascii	"c\312\010I>]\0012\371\261\253=\011D^\275T\373\215>["
 415      3E5D0132 
 415      F9B1AB3D 
 415      09445EBD 
 415      54FB8D3E 
 416 1320 2554014A 		.ascii	"%T\001Jo\335\030\325W!\365\231\027K\201\206\3632Qx\002"
 416      6FDD18D5 
 416      5721F599 
 416      174B8186 
 416      F3325178 
 417 1335 11503B5D 		.ascii	"\021P;]\000e\223U\240W\327v\222\322HbpI\025.\031\255"
 417      00659355 
 417      A057D776 
 417      92D24862 
 417      7049152E 
 418 134b 1C910279 		.ascii	"\034\221\002ycE\340/I\315y\204\004\345\322E\302p!%%"
 418      6345E02F 
 418      49CD7984 
 418      04E5D245 
 418      C2702125 
 419 1360 F9CC30F8 		.ascii	"\371\3140\370\"\214 \231@:ZU\242Q\224\210g\200\210^"
 419      228C2099 
 419      403A5A55 
 419      A2519488 
 419      6780885E 
 420 1374 061AC99B 		.ascii	"\006\032\311\233p::\202\217K\361T9\250\004\204E\351"
 420      703A3A82 
 420      8F4BF154 
 420      39A80484 
 420      45E9
 421 1386 C52CBC10 		.ascii	"\305,\274\020\322B\012\354\271\034JA\023\244|!\0219"
 421      D2420AEC 
 421      B91C4A41 
 421      13A47C21 
 421      1139
 422 1398 9F40C384 		.ascii	"\237@\303\204\227\351\312\312\304\275\256.N\004u\233"
 422      97E9CACA 
 422      C4BDAE2E 
 422      4E04759B 
 423 13a8 144F0AD1 		.ascii	"\024O\012\321\244\300g\252D!)\020a\204D\011\205\022"
 423      A4C067AA 
 423      44212910 
 423      61844409 
 423      8512
 424 13ba 1C226440 		.ascii	"\034\"d@\374\225bF\012&\370\214\224_\205\257\331T\201"
 424      FC956246 
 424      0A26F88C 
ARM GAS  /tmp/ccezqgOT.s 			page 34


 424      945F85AF 
 424      D95481
 425 13cd 28612DA9 		.ascii	"(a-\2510V\225\254J\360R|\270\240\332C\346\226X\305\037"
 425      305695AC 
 425      4AF0527C 
 425      B8A0DA43 
 425      E69658C5 
 426 13e2 2ACA9E10 		.ascii	"*\312\236\020\244\247\204\304\320\247o\325~\375\016"
 426      A4A784C4 
 426      D0A76FD5 
 426      7EFD0E
 427 13f1 8812E3D2 		.ascii	"\210\022\343\322\250\247\335e\232)'\266\036\253x2S\016"
 427      A8A7DD65 
 427      9A2927B6 
 427      1EAB7832 
 427      530E
 428 1403 9538297D 		.ascii	"\2258)}\267\261\270\004\364\220\012\344I\212\306\230"
 428      B7B1B804 
 428      F4900AE4 
 428      498AC698 
 429 1413 7C2A2F36 		.ascii	"|*/6]\014\277\037\216\012#\205\030\310?\214\000O\201"
 429      5D0CBF1F 
 429      8E0A2385 
 429      18C83F8C 
 429      004F81
 430 1426 7CEE72AA 		.ascii	"|\356r\252\016\315\344E\177\003\022\272=J~F\371LF\000"
 430      0ECDE445 
 430      7F0312BA 
 430      3D4A7E46 
 430      F94C4600 
 431 143a CFCC0820 		.ascii	"\317\314\010 d0\273^\370R\000\027\210J\225\303\204T"
 431      6430BB5E 
 431      F8520017 
 431      884A95C3 
 431      8454
 432 144c 3122FE5E 		.ascii	"1\"\376^H\200\234T\370\377\002\325<\202\361\203\004"
 432      48809C54 
 432      F8FF02D5 
 432      3C82F183 
 432      04
 433 145d 8DF258AC 		.ascii	"\215\362X\254\024\374\363\301TeJxP\340\207\304K\037"
 433      14FCF3C1 
 433      54654A78 
 433      50E087C4 
 433      4B1F
 434 146f EDD7BFDF 		.ascii	"\355\327\277\337#:o\020{ \234\2208\227\211\377\231\270"
 434      233A6F10 
 434      7B209C90 
 434      389789FF 
 434      99B8
 435 1481 8B34B42A 		.ascii	"\2134\264*\025\213JT@\203\200\011Ix\012\344\027\217"
 435      158B4A54 
 435      40838009 
 435      49780AE4 
 435      178F
 436 1493 15114B87 		.ascii	"\025\021K\207\250*\200\263\207\365|1as\224j( \343h\366"
 436      A82A80B3 
ARM GAS  /tmp/ccezqgOT.s 			page 35


 436      87F57C31 
 436      6173946A 
 436      2820E368 
 437 14a8 7748A426 		.ascii	"wH\244&\230/bL\312\023\321\377E\325\377E\352\377ax["
 437      982F624C 
 437      CA13D1FF 
 437      45D5FF45 
 437      EAFF6178 
 438 14bd 25824B49 		.ascii	"%\202KIy\"\251t\373\360\270(U\361\211(Q\244\250Y\340"
 438      7922A974 
 438      FBF0B828 
 438      55F18928 
 438      51A4A859 
 439 14d2 1D006CF3 		.ascii	"\035\000l\363\241\227\351\035u&\323\253\320p\011\315"
 439      A197E91D 
 439      7526D3AB 
 439      D07009CD 
 440 14e2 9D3C49F8 		.ascii	"\235<I\370\016\023\242\321B\012\340M\231\220\220x\310"
 440      0E13A2D1 
 440      420AE04D 
 440      99909078 
 440      C8
 441 14f3 508E4919 		.ascii	"P\216I\031\222\313'ey\261\010\036\304\270HqxE\232+Q"
 441      92CB2765 
 441      79B1081E 
 441      C4B84871 
 441      78459A2B 
 442 1508 D92F1386 		.ascii	"\331/\023\206T\225S\2670\276\011\247\371T<F\274 \024"
 442      549553B7 
 442      30BE09A7 
 442      F9543C46 
 442      BC2014
 443 151b CF88C46F 		.ascii	"\317\210\304o\013\022\225\261a$s\237\233qae\320\300"
 443      0B1295B1 
 443      6124739F 
 443      9B716165 
 443      D0C0
 444 152d ADC4CD44 		.ascii	"\255\304\315D\036b\313\220\252\241C\011?!iH\224\250"
 444      1E62CB90 
 444      AAA14309 
 444      3F216948 
 444      94A8
 445 153f A584B434 		.ascii	"\245\204\2644\"\026Eo\205\327\031\001\331\313#\317t"
 445      2216456F 
 445      85D71901 
 445      D9CB23CF 
 445      74
 446 1550 18521AA4 		.ascii	"\030R\032\244\012 \207\261/\037\352\245%1\014\017\012"
 446      0A2087B1 
 446      2F1FEAA5 
 446      25310C0F 
 446      0A
 447 1561 556CC40D 		.ascii	"Ul\304\015\224\015)/L\362\020\360\320F{K\311h\014\302"
 447      940D292F 
 447      4CF210F0 
 447      D0467B4B 
 447      C9680CC2 
ARM GAS  /tmp/ccezqgOT.s 			page 36


 448 1575 EE1011B4 		.ascii	"\356\020\021\264\\\011\2617\277r\350\320\0141\362\244"
 448      5C09B137 
 448      BF72E8D0 
 448      0C31F2A4 
 449 1585 2BD9E855 		.ascii	"+\331\350U@v\3110AL\011\011\352e\020\261R\321\270\370"
 449      4076C930 
 449      414C0909 
 449      EA6510B1 
 449      52D1B8F8 
 450 1599 6C418A28 		.ascii	"lA\212(\033h.\004p\221XkE\231\226\005\341\024\033\353"
 450      1B682E04 
 450      7091586B 
 450      45999605 
 450      E1141BEB 
 451 15ad 94C4CB12 		.ascii	"\224\304\313\022\202\032` \260p\261\012n\004\037R\003"
 451      821A6020 
 451      B070B10A 
 451      6E041F52 
 451      03
 452 15be 4E0131F8 		.ascii	"N\0011\370\030\030w\220\364\020\300\261T\225\206w\274"
 452      18187790 
 452      F410C0B1 
 452      54958677 
 452      BC
 453 15cf 5806612D 		.ascii	"X\006a-\244\372Ua\232\227$@$\201[\365\301\207{=)d2|"
 453      A4FA5561 
 453      9A972440 
 453      24815BF5 
 453      C1877B3D 
 454 15e7 B9907920 		.ascii	"\271\220y \222\250\254L3\377\007\375)\355{"
 454      92A8AC4C 
 454      33FF07FD 
 454      29ED7B
 455              		.text
 456              		.section	.gnu.lto_.symtab.3cd3da169d1b3642,"",%progbits
 457 0000 70617474 		.ascii	"patternmsg\000\000\000\000\000\000\000\000\000\000\000"
 457      65726E6D 
 457      73670000 
 457      00000000 
 457      00000000 
 458 0015 004B0200 		.ascii	"\000K\002\000\000testmsg1\000\000\000\000\000\000\000"
 458      00746573 
 458      746D7367 
 458      31000000 
 458      00000000 
 459 0029 00000000 		.ascii	"\000\000\000\000\000a\002\000\000ch\000\000\002\000"
 459      00610200 
 459      00636800 
 459      000200
 460 0038 00000000 		.ascii	"\000\000\000\000\000\000\000\000\270\001\000\000wa\000"
 460      00000000 
 460      B8010000 
 460      776100
 461 0047 00020000 		.ascii	"\000\002\000\000\000\000\000\000\000\000\000B\002\000"
 461      00000000 
 461      00000042 
 461      0200
ARM GAS  /tmp/ccezqgOT.s 			page 37


 462 0055 00746872 		.ascii	"\000threads\000\000\002\000\000\000\000\000\000\000"
 462      65616473 
 462      00000200 
 462      00000000 
 462      0000
 463 0067 00004702 		.ascii	"\000\000G\002\000\000chMsgSend\000\000\002\000\000\000"
 463      00006368 
 463      4D736753 
 463      656E6400 
 463      00020000 
 464 007c 00000000 		.ascii	"\000\000\000\000\000\000\220\001\000\000_test_asser"
 464      00009001 
 464      00005F74 
 464      6573745F 
 464      61737365 
 465 0091 745F7365 		.ascii	"t_sequence\000\000\002\000\000\000\000\000\000\000\000"
 465      7175656E 
 465      63650000 
 465      02000000 
 465      00000000 
 466 00a6 00950100 		.ascii	"\000\225\001\000\000test_emit_token\000\000\002\000"
 466      00746573 
 466      745F656D 
 466      69745F74 
 466      6F6B656E 
 467 00be 00000000 		.ascii	"\000\000\000\000\000\000\000\000\236\001\000\000chM"
 467      00000000 
 467      9E010000 
 467      63684D
 468 00cd 73675265 		.ascii	"sgRelease\000\000\002\000\000\000\000\000\000\000\000"
 468      6C656173 
 468      65000002 
 468      00000000 
 468      00000000 
 469 00e1 00A20100 		.ascii	"\000\242\001\000\000chMsgWait\000\000\002\000\000\000"
 469      0063684D 
 469      73675761 
 469      69740000 
 469      02000000 
 470 00f5 00000000 		.ascii	"\000\000\000\000\000\000\247\001\000\000chThdCreate"
 470      0000A701 
 470      00006368 
 470      54686443 
 470      72656174 
 471 010a 53746174 		.ascii	"Static\000\000\002\000\000\000\000\000\000\000\000\000"
 471      69630000 
 471      02000000 
 471      00000000 
 471      0000
 472 011c A9010000 		.ascii	"\251\001\000\000"
 473              		.text
 474              		.section	.gnu.lto_.opts,"",%progbits
 475 0000 272D6D63 		.ascii	"'-mcpu=cortex-m4' '-mno-thumb-interwork' '-mthumb' "
 475      70753D63 
 475      6F727465 
 475      782D6D34 
 475      2720272D 
ARM GAS  /tmp/ccezqgOT.s 			page 38


 476 0033 272D6767 		.ascii	"'-ggdb' '-O0' '-fomit-frame-pointer' '-falign-funct"
 476      64622720 
 476      272D4F30 
 476      2720272D 
 476      666F6D69 
 477 0066 696F6E73 		.ascii	"ions=16' '-ffunction-sections' '-fdata-sections' '-"
 477      3D313627 
 477      20272D66 
 477      66756E63 
 477      74696F6E 
 478 0099 666E6F2D 		.ascii	"fno-common' '-flto'\000"
 478      636F6D6D 
 478      6F6E2720 
 478      272D666C 
 478      746F2700 
 479              		.text
 480              		.cfi_sections	.debug_frame
 481              		.section	.text.chThdGetSelfX,"ax",%progbits
 482              		.align	2
 483              		.p2align 4,,15
 484              		.thumb
 485              		.thumb_func
 486              		.type	chThdGetSelfX, %function
 487              	chThdGetSelfX:
 488              	.LFB189:
 489              		.file 1 "../../../../os/rt/include/chthreads.h"
 490              		.loc 1 174 0
 491              		.cfi_startproc
 492              		@ args = 0, pretend = 0, frame = 0
 493              		@ frame_needed = 0, uses_anonymous_args = 0
 494              		@ link register save eliminated.
 495              		.loc 1 176 0
 496 0000 40F20003 		movw	r3, #:lower16:ch
 497 0004 C0F20003 		movt	r3, #:upper16:ch
 498 0008 9B69     		ldr	r3, [r3, #24]
 499              		.loc 1 177 0
 500 000a 1846     		mov	r0, r3
 501 000c 7047     		bx	lr
 502              		.cfi_endproc
 503              	.LFE189:
 504              		.size	chThdGetSelfX, .-chThdGetSelfX
 505 000e 00BF     		.section	.text.chThdGetPriorityX,"ax",%progbits
 506              		.align	2
 507              		.p2align 4,,15
 508              		.thumb
 509              		.thumb_func
 510              		.type	chThdGetPriorityX, %function
 511              	chThdGetPriorityX:
 512              	.LFB190:
 513              		.loc 1 187 0
 514              		.cfi_startproc
 515              		@ args = 0, pretend = 0, frame = 0
 516              		@ frame_needed = 0, uses_anonymous_args = 0
 517 0000 08B5     		push	{r3, lr}
 518              		.cfi_def_cfa_offset 8
 519              		.cfi_offset 3, -8
 520              		.cfi_offset 14, -4
ARM GAS  /tmp/ccezqgOT.s 			page 39


 521              		.loc 1 189 0
 522 0002 FFF7FEFF 		bl	chThdGetSelfX
 523 0006 0346     		mov	r3, r0
 524 0008 9B68     		ldr	r3, [r3, #8]
 525              		.loc 1 190 0
 526 000a 1846     		mov	r0, r3
 527 000c 08BD     		pop	{r3, pc}
 528              		.cfi_endproc
 529              	.LFE190:
 530              		.size	chThdGetPriorityX, .-chThdGetPriorityX
 531 000e 00BF     		.section	.text.chMsgGet,"ax",%progbits
 532              		.align	2
 533              		.p2align 4,,15
 534              		.thumb
 535              		.thumb_func
 536              		.type	chMsgGet, %function
 537              	chMsgGet:
 538              	.LFB223:
 539              		.file 2 "../../../../os/rt/include/chmsg.h"
 540              		.loc 2 96 0
 541              		.cfi_startproc
 542              		@ args = 0, pretend = 0, frame = 8
 543              		@ frame_needed = 0, uses_anonymous_args = 0
 544              		@ link register save eliminated.
 545 0000 82B0     		sub	sp, sp, #8
 546              		.cfi_def_cfa_offset 8
 547 0002 0190     		str	r0, [sp, #4]
 548              		.loc 2 98 0
 549 0004 019B     		ldr	r3, [sp, #4]
 550 0006 5B6B     		ldr	r3, [r3, #52]
 551              		.loc 2 99 0
 552 0008 1846     		mov	r0, r3
 553 000a 02B0     		add	sp, sp, #8
 554              		@ sp needed
 555 000c 7047     		bx	lr
 556              		.cfi_endproc
 557              	.LFE223:
 558              		.size	chMsgGet, .-chMsgGet
 559 000e 00BF     		.section	.text.thread,"ax",%progbits
 560              		.align	2
 561              		.p2align 4,,15
 562              		.thumb
 563              		.thumb_func
 564              		.type	thread, %function
 565              	thread:
 566              	.LFB241:
 567              		.file 3 "../../../../test/rt/testmsg.c"
 568              		.loc 3 59 0
 569              		.cfi_startproc
 570              		@ args = 0, pretend = 0, frame = 8
 571              		@ frame_needed = 0, uses_anonymous_args = 0
 572 0000 00B5     		push	{lr}
 573              		.cfi_def_cfa_offset 4
 574              		.cfi_offset 14, -4
 575 0002 83B0     		sub	sp, sp, #12
 576              		.cfi_def_cfa_offset 16
 577 0004 0190     		str	r0, [sp, #4]
ARM GAS  /tmp/ccezqgOT.s 			page 40


 578              		.loc 3 61 0
 579 0006 0198     		ldr	r0, [sp, #4]
 580 0008 4121     		movs	r1, #65
 581 000a FFF7FEFF 		bl	chMsgSend
 582              		.loc 3 62 0
 583 000e 0198     		ldr	r0, [sp, #4]
 584 0010 4221     		movs	r1, #66
 585 0012 FFF7FEFF 		bl	chMsgSend
 586              		.loc 3 63 0
 587 0016 0198     		ldr	r0, [sp, #4]
 588 0018 4321     		movs	r1, #67
 589 001a FFF7FEFF 		bl	chMsgSend
 590              		.loc 3 64 0
 591 001e 03B0     		add	sp, sp, #12
 592              		@ sp needed
 593 0020 5DF804FB 		ldr	pc, [sp], #4
 594              		.cfi_endproc
 595              	.LFE241:
 596              		.size	thread, .-thread
 597 0024 AFF30080 		.section	.rodata
 597      AFF30080 
 597      AFF30080 
 598              		.align	2
 599              	.LC0:
 600 0000 41424300 		.ascii	"ABC\000"
 601              		.section	.text.msg1_execute,"ax",%progbits
 602              		.align	2
 603              		.p2align 4,,15
 604              		.thumb
 605              		.thumb_func
 606              		.type	msg1_execute, %function
 607              	msg1_execute:
 608              	.LFB242:
 609              		.loc 3 66 0
 610              		.cfi_startproc
 611              		@ args = 0, pretend = 0, frame = 8
 612              		@ frame_needed = 0, uses_anonymous_args = 0
 613 0000 30B5     		push	{r4, r5, lr}
 614              		.cfi_def_cfa_offset 12
 615              		.cfi_offset 4, -12
 616              		.cfi_offset 5, -8
 617              		.cfi_offset 14, -4
 618 0002 85B0     		sub	sp, sp, #20
 619              		.cfi_def_cfa_offset 32
 620              		.loc 3 73 0
 621 0004 40F20003 		movw	r3, #:lower16:wa
 622 0008 C0F20003 		movt	r3, #:upper16:wa
 623 000c 1D68     		ldr	r5, [r3]
 624 000e FFF7FEFF 		bl	chThdGetPriorityX
 625 0012 0346     		mov	r3, r0
 626 0014 5C1C     		adds	r4, r3, #1
 627              		.loc 3 74 0
 628 0016 FFF7FEFF 		bl	chThdGetSelfX
 629 001a 0346     		mov	r3, r0
 630              		.loc 3 73 0
 631 001c 0093     		str	r3, [sp]
 632 001e 2846     		mov	r0, r5
ARM GAS  /tmp/ccezqgOT.s 			page 41


 633 0020 4FF4B471 		mov	r1, #360
 634 0024 2246     		mov	r2, r4
 635 0026 40F20003 		movw	r3, #:lower16:thread
 636 002a C0F20003 		movt	r3, #:upper16:thread
 637 002e FFF7FEFF 		bl	chThdCreateStatic
 638 0032 0246     		mov	r2, r0
 639 0034 40F20003 		movw	r3, #:lower16:threads
 640 0038 C0F20003 		movt	r3, #:upper16:threads
 641 003c 1A60     		str	r2, [r3]
 642              		.loc 3 75 0
 643 003e FFF7FEFF 		bl	chMsgWait
 644 0042 0390     		str	r0, [sp, #12]
 645              		.loc 3 76 0
 646 0044 0398     		ldr	r0, [sp, #12]
 647 0046 FFF7FEFF 		bl	chMsgGet
 648 004a 0290     		str	r0, [sp, #8]
 649              		.loc 3 77 0
 650 004c 0398     		ldr	r0, [sp, #12]
 651 004e 0299     		ldr	r1, [sp, #8]
 652 0050 FFF7FEFF 		bl	chMsgRelease
 653              		.loc 3 78 0
 654 0054 029B     		ldr	r3, [sp, #8]
 655 0056 DBB2     		uxtb	r3, r3
 656 0058 1846     		mov	r0, r3
 657 005a FFF7FEFF 		bl	test_emit_token
 658              		.loc 3 79 0
 659 005e FFF7FEFF 		bl	chMsgWait
 660 0062 0390     		str	r0, [sp, #12]
 661              		.loc 3 80 0
 662 0064 0398     		ldr	r0, [sp, #12]
 663 0066 FFF7FEFF 		bl	chMsgGet
 664 006a 0290     		str	r0, [sp, #8]
 665              		.loc 3 81 0
 666 006c 0398     		ldr	r0, [sp, #12]
 667 006e 0299     		ldr	r1, [sp, #8]
 668 0070 FFF7FEFF 		bl	chMsgRelease
 669              		.loc 3 82 0
 670 0074 029B     		ldr	r3, [sp, #8]
 671 0076 DBB2     		uxtb	r3, r3
 672 0078 1846     		mov	r0, r3
 673 007a FFF7FEFF 		bl	test_emit_token
 674              		.loc 3 83 0
 675 007e FFF7FEFF 		bl	chMsgWait
 676 0082 0390     		str	r0, [sp, #12]
 677              		.loc 3 84 0
 678 0084 0398     		ldr	r0, [sp, #12]
 679 0086 FFF7FEFF 		bl	chMsgGet
 680 008a 0290     		str	r0, [sp, #8]
 681              		.loc 3 85 0
 682 008c 0398     		ldr	r0, [sp, #12]
 683 008e 0299     		ldr	r1, [sp, #8]
 684 0090 FFF7FEFF 		bl	chMsgRelease
 685              		.loc 3 86 0
 686 0094 029B     		ldr	r3, [sp, #8]
 687 0096 DBB2     		uxtb	r3, r3
 688 0098 1846     		mov	r0, r3
 689 009a FFF7FEFF 		bl	test_emit_token
ARM GAS  /tmp/ccezqgOT.s 			page 42


 690              		.loc 3 87 0
 691 009e 0120     		movs	r0, #1
 692 00a0 40F20001 		movw	r1, #:lower16:.LC0
 693 00a4 C0F20001 		movt	r1, #:upper16:.LC0
 694 00a8 FFF7FEFF 		bl	_test_assert_sequence
 695 00ac 0346     		mov	r3, r0
 696 00ae 002B     		cmp	r3, #0
 697 00b0 00D0     		beq	.L8
 698              		.loc 3 87 0 is_stmt 0 discriminator 1
 699 00b2 00BF     		nop
 700              	.L8:
 701              		.loc 3 88 0 is_stmt 1
 702 00b4 05B0     		add	sp, sp, #20
 703              		@ sp needed
 704 00b6 30BD     		pop	{r4, r5, pc}
 705              		.cfi_endproc
 706              	.LFE242:
 707              		.size	msg1_execute, .-msg1_execute
 708              		.global	testmsg1
 709 00b8 AFF30080 		.section	.rodata
 709      AFF30080 
 710              		.align	2
 711              	.LC1:
 712 0004 4D657373 		.ascii	"Messages, loop\000"
 712      61676573 
 712      2C206C6F 
 712      6F7000
 713 0013 00       		.section	.rodata.testmsg1,"a",%progbits
 714              		.align	2
 715              		.type	testmsg1, %object
 716              		.size	testmsg1, 16
 717              	testmsg1:
 718 0000 04000000 		.word	.LC1
 719 0004 00000000 		.word	0
 720 0008 00000000 		.word	0
 721 000c 00000000 		.word	msg1_execute
 722              		.global	patternmsg
 723              		.section	.rodata.patternmsg,"a",%progbits
 724              		.align	2
 725              		.type	patternmsg, %object
 726              		.size	patternmsg, 8
 727              	patternmsg:
 728 0000 00000000 		.word	testmsg1
 729 0004 00000000 		.word	0
 730              		.text
 731              	.Letext0:
 732              		.file 4 "/usr/lib/gcc/arm-none-eabi/4.8.2/include/stddef.h"
 733              		.file 5 "/usr/include/newlib/machine/_default_types.h"
 734              		.file 6 "/usr/include/newlib/stdint.h"
 735              		.file 7 "../../../../os/rt/ports/ARMCMx/compilers/GCC/chtypes.h"
 736              		.file 8 "../../../../os/rt/include/chsystypes.h"
 737              		.file 9 "../../../../os/rt/include/chschd.h"
 738              		.file 10 "../../../../os/rt/ports/ARMCMx/chcore.h"
 739              		.file 11 "../../../../os/rt/ports/ARMCMx/chcore_v7m.h"
 740              		.file 12 "../../../../os/rt/include/chdebug.h"
 741              		.file 13 "../../../../os/rt/include/chtm.h"
 742              		.file 14 "../../../../os/rt/include/chstats.h"
ARM GAS  /tmp/ccezqgOT.s 			page 43


 743              		.file 15 "../../../../os/rt/include/chsem.h"
 744              		.file 16 "../../../../os/rt/include/chmtx.h"
 745              		.file 17 "../../../../test/rt/test.h"
 746              		.file 18 "../../../../os/ext/CMSIS/include/core_cm4.h"