ARM GAS  /tmp/cc4BmMZ0.s 			page 1


   1              		.syntax unified
   2              		.cpu cortex-m4
   3              		.fpu softvfp
   4              		.eabi_attribute 20, 1
   5              		.eabi_attribute 21, 1
   6              		.eabi_attribute 23, 3
   7              		.eabi_attribute 24, 1
   8              		.eabi_attribute 25, 1
   9              		.eabi_attribute 26, 1
  10              		.eabi_attribute 30, 6
  11              		.eabi_attribute 34, 1
  12              		.eabi_attribute 18, 4
  13              		.thumb
  14              		.file	"testmbox.c"
  15              		.text
  16              	.Ltext0:
  17              		.section	.gnu.lto_.inline.67cf1c1dd1d6e29a,"",%progbits
  18 0000 789C6362 		.ascii	"x\234cb`b\300\006v1ChN\006\006\026 \223\211\345\203"
  18      6062C006 
  18      76314368 
  18      4E060616 
  18      209389E5 
  19 0015 1E030B44 		.ascii	"\036\003\013D-#\206\010\023\003;?\220dZ \017\023a\341"
  19      2D238608 
  19      13033B3F 
  19      90645A20 
  19      0F1361E1 
  20 0029 0512AC0C 		.ascii	"\005\022\254\014\254\274hZ\271\200\004\033\003\273\004"
  20      ACBC685A 
  20      B980041B 
  20      03BB04
  21 0038 AA6A661E 		.ascii	"\252jf\036\230\034;\0369\016\0066\005T9\2600\202\340"
  21      981C3B1E 
  21      390E0636 
  21      055439B0 
  21      3082E0
  22 004b 64103401 		.ascii	"d\0204\001*\020\371\260\232\021E\005\0237\2122\036\206"
  22      2A10F9B0 
  22      9A114505 
  22      13378A32 
  22      1E86
  23 005d 6D2C47F9 		.ascii	"m,G\371\200\302\017\230.\234\025\3054\013\354v4\243"
  23      80C20F98 
  23      2E9C15C5 
  23      340BEC76 
  23      34A3
  24 006f 718A219C 		.ascii	"q\212!\234\207S\002l=\232\001\304\352\005s\321\014@"
  24      8753026C 
  24      3D9A01C4 
  24      EA0573D1 
  24      0C40
  25 0081 6361E312 		.ascii	"ca\343\022A`\363\326 q\025u\202\035\247\323X\3710\355"
  25      4160F3D6 
  25      20711575 
  25      821DA7D3 
  25      58F930ED 
  26 0095 45882158 		.ascii	"E\210!X\010\017\202\305\350\346*\374\262h,\234\0261"
ARM GAS  /tmp/cc4BmMZ0.s 			page 2


  26      080F82C5 
  26      E8E62AFC 
  26      B2682C9C 
  26      1631
  27 00a7 0000D424 		.ascii	"\000\000\324$\027\026"
  27      1716
  28              		.text
  29              		.section	.gnu.lto_port_lock.67cf1c1dd1d6e29a,"",%progbits
  30 0000 789C6362 		.ascii	"x\234cb`b@\007\"@,\310\310\300\320\000\342030\002U0"
  30      60624007 
  30      22402CC8 
  30      C8C0D000 
  30      E2303330 
  31 0017 32310205 		.ascii	"21\002\005\030\030\031\352\231\030\353#AL\006F%\206"
  31      181819EA 
  31      9918EB23 
  31      414C0646 
  31      2586
  32 0029 850D0D93 		.ascii	"\205\015\015\223\036\264>{\3144\263\341@\313\202\206"
  32      1EB43E7B 
  32      CC34B3E1 
  32      40CB8286 
  33 0039 3FFFFF33 		.ascii	"?\377\37732f2\002M\324gdHfd\210\000r\030\025\300\024"
  33      32663202 
  33      4DD46764 
  33      48666488 
  33      00721815 
  34 004f 130BAA15 		.ascii	"\023\013\252\025\353\231\016<\370\377\377D\347\363\275"
  34      EB990E3C 
  34      F8FFFF44 
  34      E7F3BD
  35 005e 40931912 		.ascii	"@\223\031\022\031\027\002M\003\002V\206\226\206\206"
  35      1917024D 
  35      03025686 
  35      968686
  36 006d 090A0C20 		.ascii	"\011\012\014 \335@\020\002&CA\016`>\313\320\264\003"
  36      DD401002 
  36      2643410E 
  36      603ECBD0 
  36      B403
  37 007f 48A73332 		.ascii	"H\24732\202\314c\000\252a8\307\320\364\361\355\214\307"
  37      82CC6300 
  37      AA6138C7 
  37      D0F4F1ED 
  37      8CC7
  38 0091 12705D60 		.ascii	"\022p]`F\303\201\356+\355\2540#\023\031\0273\262\002"
  38      46C381EE 
  38      2BEDAC30 
  38      23131917 
  38      33B202
  39 00a4 8D833819 		.ascii	"\215\2038\031\010S\231A>f\206x[\216\241ln\303\014\207"
  39      08539941 
  39      3E668678 
  39      5B8EA16C 
  39      6EC30C87 
  40 00b8 4C466610 		.ascii	"LFf\020/\035\254\012.U\011\221\202\272\374\"C\343\203"
  40      2F1DAC0A 
ARM GAS  /tmp/cc4BmMZ0.s 			page 3


  40      2E550991 
  40      82BAFC22 
  40      43E383
  41 00cb 9DFA10E3 		.ascii	"\235\372\020\343` \004\244\001\244ZGOO\037\216\362\213"
  41      602004A4 
  41      01A45A47 
  41      4F4F1F8E 
  41      F28B
  42 00dd F58B4AF4 		.ascii	"\365\213J\364\013\362\213J\212\365\035\203|\235}+\364"
  42      0BF28B4A 
  42      8AF51D83 
  42      7C9D7D2B 
  42      F4
  43 00ee 933392F3 		.ascii	"\2233\222\363\213R\343\313\314s\3652\030X\313\022sJ"
  43      8B52E3CB 
  43      CC73F532 
  43      1858CB12 
  43      734A
  44 0100 53F5D1B4 		.ascii	"S\365\321\264\244V\224\350;\373\006{\006\353g\346%\347"
  44      A45694E8 
  44      3BFB067B 
  44      06EB67E6 
  44      25E7
  45 0112 94A6A4EA 		.ascii	"\224\246\244\352\203\265$\347\272\225\346%\003u\011"
  45      83B524E7 
  45      BA95E625 
  45      037509
  46 0121 F8060729 		.ascii	"\370\006\007)$%\026\247\026\024e\352(\250\03200\025"
  46      242516A7 
  46      161465EA 
  46      28A81A30 
  46      3015
  47 0133 31B0E7A6 		.ascii	"1\260\347\246\346\346\027U2\000\000%\366_c"
  47      E6E61755 
  47      32000025 
  47      F65F63
  48              		.text
  49              		.section	.gnu.lto_port_unlock.67cf1c1dd1d6e29a,"",%progbits
  50 0000 789C6362 		.ascii	"x\234cb`b@\007\"@,\310\310\300\320\000\342030\002U0"
  50      60624007 
  50      22402CC8 
  50      C8C0D000 
  50      E2303330 
  51 0017 32310205 		.ascii	"21\002\005\030\030\031\352\231\030\353#AL\006F%\206"
  51      181819EA 
  51      9918EB23 
  51      414C0646 
  51      2586
  52 0029 850D0D93 		.ascii	"\205\015\015\223\036\264~z\3144\263\341@\313\202\206"
  52      1EB47E7A 
  52      CC34B3E1 
  52      40CB8286 
  53 0039 3FFFFF33 		.ascii	"?\377\37732f2\002M\324gdHfd\210\000r\030\025\300\024"
  53      32663202 
  53      4DD46764 
  53      48666488 
  53      00721815 
ARM GAS  /tmp/cc4BmMZ0.s 			page 4


  54 004f 130BAA15 		.ascii	"\023\013\252\025\353\231\016<\370\377\377E\347\376}"
  54      EB990E3C 
  54      F8FFFF45 
  54      E7FE7D
  55 005e 40931912 		.ascii	"@\223\031\022\031\027\002M\003\002V\206\226\206\206"
  55      1917024D 
  55      03025686 
  55      968686
  56 006d 090A0C20 		.ascii	"\011\012\014 \335@\020\002&CA\016`>\313\320\264\003"
  56      DD401002 
  56      2643410E 
  56      603ECBD0 
  56      B403
  57 007f 48A73332 		.ascii	"H\24732\202\314\003\033r\216\241\351\343\333\031\217"
  57      82CC031B 
  57      728EA1E9 
  57      E3DB198F 
  58 008f 25E0BAC0 		.ascii	"%\340\272\300\214\206\003\247\237\266\263\302\214Ld"
  58      8C8603A7 
  58      9FB6B3C2 
  58      8C4C64
  59 009e 5CCCC80A 		.ascii	"\\\314\310\0124\016\342d Le\006\371\230\031\342m9\206"
  59      340EE264 
  59      204C6506 
  59      F99819E2 
  59      6D3986
  60 00b1 B2B90D33 		.ascii	"\262\271\0153\0342\031\231A\274t\260*\270T%D\012\352"
  60      1C321999 
  60      41BC74B0 
  60      2AB85425 
  60      440AEA
  61 00c4 F28B0C8D 		.ascii	"\362\213\014\215\017\316\353C\214\203\201\020\220\006"
  61      0FCEEB43 
  61      8C838110 
  61      9006
  62 00d2 906A1D3D 		.ascii	"\220j\035==}8\312/\326/*\321/\310/*)\326w\014\362u\366"
  62      3D7D38CA 
  62      2FD62F2A 
  62      D12FC82F 
  62      2A29D677 
  63 00ea ADD04FCE 		.ascii	"\255\320O\316H\316/J\215/3\317\325\313``-K\314)M\325"
  63      48CE2F4A 
  63      8D2F33CF 
  63      D5CB6060 
  63      2D4BCC29 
  64 0100 47D3925A 		.ascii	"G\323\222ZQ\242\357\354\033\354\031\254\237\231\227"
  64      51A2EFEC 
  64      1BEC19AC 
  64      9F9997
  65 010f 9C539A92 		.ascii	"\234S\232\222\252\017\326\222\234\353V\232\227\014\324"
  65      AA0FD692 
  65      9CEB569A 
  65      970CD4
  66 011e 25E01B1C 		.ascii	"%\340\033\034\244\220\224X\234ZP\224\251\243\240j\300"
  66      A4909458 
  66      9C5A5094 
  66      A9A3A06A 
ARM GAS  /tmp/cc4BmMZ0.s 			page 5


  66      C0
  67 012f C054C4C0 		.ascii	"\300T\304\300\236\233\232\233_T\311\000\000g\003_\257"
  67      9E9B9A9B 
  67      5F54C900 
  67      0067035F 
  67      AF
  68              		.text
  69              		.section	.gnu.lto_mbox1_setup.67cf1c1dd1d6e29a,"",%progbits
  70 0000 789C6362 		.ascii	"x\234cb`b@\007\"@|\026\210\025A\034f\006F\240\012F&"
  70      60624007 
  70      22407C16 
  70      8815411C 
  70      660646A0 
  71 0017 46462087 		.ascii	"FF \207\221\241\236\211\261>\222\021\254l=\323\201\007"
  71      91A19E89 
  71      B13E9211 
  71      AC6C3DD3 
  71      8107
  72 0029 FFFFAF9B 		.ascii	"\377\377\257\233wl\376\032\306\231L 1V\206\226\206\206"
  72      776CFE1A 
  72      C6994C20 
  72      31568696 
  72      8686
  73 003b 090A0C0C 		.ascii	"\011\012\014\014\311`\025!`2\024\244\237\371<C\333\203"
  73      C9601521 
  73      603214A4 
  73      9FF93C43 
  73      DB83
  74 004d 998BB912 		.ascii	"\231\213\271\022\031\0272\262\002\005\253\031~5t4\010"
  74      191732B2 
  74      0205AB19 
  74      7E357434 
  74      08
  75 005e 64320295 		.ascii	"d2\002\225BL\003\211pd22\34622@\025A\3244Lf\314dd\322"
  75      424C0389 
  75      70643232 
  75      E6323240 
  75      1541D434 
  76 0078 6658D500 		.ascii	"fX\325\000\004\033\201lf({6\220\315\222\313\310\230"
  76      041B816C 
  76      66287B36 
  76      90CD92CB 
  76      C898
  77 008a 04D1CF90 		.ascii	"\004\321\317\220\0045\010\252;\002(\315\312\312\220"
  77      043508AA 
  77      3B0228CD 
  77      CACA90
  78 0099 C9C8C6C0 		.ascii	"\311\310\306\300p\221\241\361\301,e\230\335\020\020"
  78      7091A1F1 
  78      C12C6598 
  78      DD1010
  79 00a8 02520EF2 		.ascii	"\002R\016\362\273\274\236\236>\034\225\244\026\227\350"
  79      BBBC9E9E 
  79      3E1C95A4 
  79      1697E8
  80 00b7 179580E9 		.ascii	"\027\225\200\351\334\244\374\012\275d\006\000\225\343"
  80      DCA4FC0A 
ARM GAS  /tmp/cc4BmMZ0.s 			page 6


  80      BD640600 
  80      95E3
  81 00c5 37B5     		.ascii	"7\265"
  82              		.text
  83              		.section	.gnu.lto_chSemGetCounterI.67cf1c1dd1d6e29a,"",%progbits
  84 0000 789C6362 		.ascii	"x\234cb`b@\007\322@\314\302\310\300\240\002\342\260"
  84      60624007 
  84      D240CCC2 
  84      C8C0A002 
  84      E2B0
  85 0012 30300255 		.ascii	"00\002U0212\003IfF\2400\003#C=\0233c}$\210\315\300\250"
  85      30323132 
  85      03496646 
  85      A0300323 
  85      433D1333 
  86 002d C4B0B0A1 		.ascii	"\304\260\260\241a\306\203\245\353fJv-h\232\320\360\357"
  86      61C683A5 
  86      EB664A76 
  86      2D689AD0 
  86      F0EF
  87 003f FF7FC64C 		.ascii	"\377\177\306L\220T2#C\004\220\305\250\000\246\230XP"
  87      90543223 
  87      430490C5 
  87      A800A698 
  87      5850
  88 0051 2D59CF74 		.ascii	"-Y\317t\340\301\377\377w\256\356y\274\213Q\010hn.#\320"
  88      E0C1FFFF 
  88      77AEEE79 
  88      BC8B5108 
  88      686E2E23 
  89 0066 25607D0C 		.ascii	"%`}\014\254\014-\015\015\023\024\300&\000A\010\230\014"
  89      AC0C2D0D 
  89      0D1314C0 
  89      26004108 
  89      980C
  90 0078 053983F9 		.ascii	"\0059\203\371<C\363\203\365O\271\022\031\0271\262\002"
  90      3C43F383 
  90      F54FB912 
  90      191731B2 
  90      02
  91 0089 05AB197E 		.ascii	"\005\253\031~5t4\010d22'\203]\306\0004\001h\317Y\206"
  91      35743408 
  91      64323227 
  91      835DC600 
  91      340168CF 
  92 009f A65B3BD6 		.ascii	"\246[;\326IBT\24532i3\254j\000\002K\240\361\263\031"
  92      494254A5 
  92      33326933 
  92      AC6A0002 
  92      4BA0F1B3 
  93 00b4 66011DC3 		.ascii	"f\001\035\303\232\316\310\010r\024\033XO\022#\262\303"
  93      9ACEC808 
  93      72141B58 
  93      4F1223B2 
  93      C3
  94 00c5 42413E65 		.ascii	"BA>e>\315\320\310\301\300\220\0022\365\"C\343\001f\270"
  94      3ECDD0C8 
ARM GAS  /tmp/cc4BmMZ0.s 			page 7


  94      C1C09002 
  94      32F52243 
  94      E30166B8 
  95 00d9 59104521 		.ascii	"Y\020E! \011\020[IOO\037\216\362\213\365\213J\3643\363"
  95      2009105B 
  95      494F4F1F 
  95      8EF28BF5 
  95      8B4AF433 
  96 00ee 92734A53 		.ascii	"\222sJSR\365\2233\212Ss\3652\030\000>@@\342"
  96      52F59333 
  96      8A5373F5 
  96      3218003E 
  96      4040E2
  97              		.text
  98              		.section	.gnu.lto_chMBGetFreeCountI.67cf1c1dd1d6e29a,"",%progbits
  99 0000 789C6362 		.ascii	"x\234cb`b@\007\322@\234\313\310\300\240\016\342\260"
  99      60624007 
  99      D2409CCB 
  99      C8C0A00E 
  99      E2B0
 100 0012 30300255 		.ascii	"00\002U0212\003IfF\2400\003#C=\0233c}$\210\315\300\244"
 100      30323132 
 100      03496646 
 100      A0300323 
 100      433D1333 
 101 002d C4B0B0A1 		.ascii	"\304\260\260\241a\306\203\243\233fJv-h\232\320\360\357"
 101      61C683A3 
 101      9B664A76 
 101      2D689AD0 
 101      F0EF
 102 003f FF7FC64C 		.ascii	"\377\177\306L\220T2#C\004\220\305\250\000\246\230XP"
 102      90543223 
 102      430490C5 
 102      A800A698 
 102      5850
 103 0051 2D016B9B 		.ascii	"-\001k\233\324\360\365I\300\211\206\226\003\377\377"
 103      D4F0F549 
 103      C0898696 
 103      03FFFF
 104 0060 DB67826C 		.ascii	"\333g\202l\300\257g=\323\201\007\377\377\277\271\276"
 104      C0AF673D 
 104      D38107FF 
 104      FFBFB9BE 
 105 0070 E7F16946 		.ascii	"\347\361iF!\026FF\240#\231\030\200\372\230\031\300\026"
 105      21164646 
 105      A0239918 
 105      80FA9819 
 105      C016
 106 0082 32B032B4 		.ascii	"2\2602\26444LP\000\033\003\004!`2\024\344~\346\363\014"
 106      34344C50 
 106      001B0304 
 106      21603214 
 106      E47EE6F3 
 107 0097 CD0F4E3C 		.ascii	"\315\017N<\345Jd\\\314\310\012\024\254f\370\325\320"
 107      E54A645C 
 107      CCC80A14 
 107      AC66F8D5 
ARM GAS  /tmp/cc4BmMZ0.s 			page 8


 107      D0
 108 00a8 D12090C9 		.ascii	"\321 \220\311\310\222\014\366\022\003\320\004\240\370"
 108      C8920CF6 
 108      1203D004 
 108      A0F8
 109 00b6 5986A65F 		.ascii	"Y\206\246_\315\253\247YA\224\24532U3T\001\315\327fX"
 109      CDABA759 
 109      4194A533 
 109      32553354 
 109      01CDD766 
 110 00cb D50004F5 		.ascii	"\325\000\004\365\231\214l\263\031f\001\035\306\236\316"
 110      998C6CB3 
 110      1966011D 
 110      C69ECE
 111 00da C8087220 		.ascii	"\310\010r \007Xk\022#\222\033\3173\264\034`\206\351"
 111      07586B12 
 111      23921BCF 
 111      33B41C60 
 111      86E9
 112 00ec 6786DBC3 		.ascii	"g\206\333\303\231\314\010\011h\240\241\231\214\\\020"
 112      99CC0809 
 112      68A0A199 
 112      8C5C10
 113 00fb B5A1202F 		.ascii	"\265\241 /3\237fh\004\232\223\002r\307E\006F\270V\210"
 113      339F6668 
 113      049A9302 
 113      72C74506 
 113      46B85688 
 114 010f 92109030 		.ascii	"\222\020\2200H\247\252\236\236>\034\345\027\353\027"
 114      48A7AA9E 
 114      9E3E1CE5 
 114      17EB17
 115 011e 95E867E6 		.ascii	"\225\350g\346%\347\224\246\244\352'g\344&\345W\244\026"
 115      25E794A6 
 115      A4EA2767 
 115      E426E557 
 115      A416
 116 0130 EB653000 		.ascii	"\353e0\000\000\341JY\025"
 116      00E14A59 
 116      15
 117              		.text
 118              		.section	.gnu.lto_chMBGetUsedCountI.67cf1c1dd1d6e29a,"",%progbits
 119 0000 789C6362 		.ascii	"x\234cb`b@\007\322@\234\313\310\300\240\016\342\260"
 119      60624007 
 119      D2409CCB 
 119      C8C0A00E 
 119      E2B0
 120 0012 30300255 		.ascii	"00\002U0212\003IfF\2400\003#C=\0233c}$\210\315\300\244"
 120      30323132 
 120      03496646 
 120      A0300323 
 120      433D1333 
 121 002d C4B0B0A1 		.ascii	"\304\260\260\241a\306\203\245\273gJv-h\232\320\360\357"
 121      61C683A5 
 121      BB674A76 
 121      2D689AD0 
 121      F0EF
ARM GAS  /tmp/cc4BmMZ0.s 			page 9


 122 003f FF7FC64C 		.ascii	"\377\177\306L\220T2#C\004\220\305\250\000\246\230XP"
 122      90543223 
 122      430490C5 
 122      A800A698 
 122      5850
 123 0051 2D016B9B 		.ascii	"-\001k\233\324\360\365I\300\211\206\226\003\377\377"
 123      D4F0F549 
 123      C0898696 
 123      03FFFF
 124 0060 DB67826C 		.ascii	"\333g\202l\300\257g=\323\201\007\377\377\317\271\273"
 124      C0AF673D 
 124      D38107FF 
 124      FFCFB9BB 
 125 0070 E7F13B46 		.ascii	"\347\361;F!\026FF\240#\231\030\200\372\230\031\300\026"
 125      21164646 
 125      A0239918 
 125      80FA9819 
 125      C016
 126 0082 32B032B4 		.ascii	"2\2602\26444LP\000\033\003\004!`2\024\344~\346\363\014"
 126      34344C50 
 126      001B0304 
 126      21603214 
 126      E47EE6F3 
 127 0097 CD0F5E3F 		.ascii	"\315\017^?\345Jd\\\314\310\012\024\254f\370\325\320"
 127      E54A645C 
 127      CCC80A14 
 127      AC66F8D5 
 127      D0
 128 00a8 D12090C9 		.ascii	"\321 \220\311\310\222\014\366\022\003\320\004\240\370"
 128      C8920CF6 
 128      1203D004 
 128      A0F8
 129 00b6 5986A65F 		.ascii	"Y\206\246_\315\333\247[A\224\24532U3T\001\315\327fX"
 129      CDDBA75B 
 129      4194A533 
 129      32553354 
 129      01CDD766 
 130 00cb D50004F5 		.ascii	"\325\000\004\365\231\214l\263\031f\001\035\306\236\316"
 130      998C6CB3 
 130      1966011D 
 130      C69ECE
 131 00da C8087220 		.ascii	"\310\010r \007Xk\022#\222\033\3173\264\034`\206\351"
 131      07586B12 
 131      23921BCF 
 131      33B41C60 
 131      86E9
 132 00ec 6786DBC3 		.ascii	"g\206\333\303\231\314\010\011h\240\241\231\214\\\020"
 132      99CC0809 
 132      68A0A199 
 132      8C5C10
 133 00fb B5A1202F 		.ascii	"\265\241 /3\237fh\004\232\223\002r\307E\006F\270V\210"
 133      339F6668 
 133      049A9302 
 133      72C74506 
 133      46B85688 
 134 010f 92109030 		.ascii	"\222\020\2200H\247\252\236\236>\034\345\027\353\027"
 134      48A7AA9E 
ARM GAS  /tmp/cc4BmMZ0.s 			page 10


 134      9E3E1CE5 
 134      17EB17
 135 011e 95E867E6 		.ascii	"\225\350g\346%\347\224\246\244\352'g\344&\345W\244\026"
 135      25E794A6 
 135      A4EA2767 
 135      E426E557 
 135      A416
 136 0130 EB653000 		.ascii	"\353e0\000\000\272\365Y\007"
 136      00BAF559 
 136      07
 137              		.text
 138              		.section	.gnu.lto_chSysLock.67cf1c1dd1d6e29a,"",%progbits
 139 0000 789C6362 		.ascii	"x\234cb`b@\007\"@|\010\210U@\034f\006F\240\012F&FF "
 139      60624007 
 139      22407C08 
 139      8855401C 
 139      660646A0 
 140 001a 8791A19E 		.ascii	"\207\221\241\236\211\261>\222\021\254l=\323\201\007"
 140      89B13E92 
 140      11AC6C3D 
 140      D38107
 141 0029 FFFFAFFB 		.ascii	"\377\377\257\3732m\331\037\306\333L 1V\206\226\206\206"
 141      326DD91F 
 141      C6DB4C20 
 141      31568696 
 141      8686
 142 003b 090A0C0C 		.ascii	"\011\012\014\014\311`\025!`2\024\244\237\371<C\363\203"
 142      C9601521 
 142      603214A4 
 142      9FF93C43 
 142      F383
 143 004d 3DDDEC89 		.ascii	"=\335\354\211\214\013\031Y\201\202\325\014\277\032:"
 143      8C0B1959 
 143      8182D50C 
 143      BF1A3A
 144 005c 1A043219 		.ascii	"\032\0042\031\201J!\246e\202h\220\252\275\335B\330T"
 144      814A21A6 
 144      65826890 
 144      AABDDD42 
 144      D854
 145 006e 31A1AADA 		.ascii	"1\241\252\332w\232\013\233*f\204\252\213\014\215\017"
 145      779A0B9B 
 145      2A6684AA 
 145      8B0C8D0F 
 146 007e F66BC314 		.ascii	"\366k\303\024A@\010H\002d\222\222\236\236>\034\345\027"
 146      41400848 
 146      02649292 
 146      9E9E3E1C 
 146      E517
 147 0090 EB1795E8 		.ascii	"\353\027\225\350g\346%\347\224\246\244\352'g\024W\026"
 147      67E625E7 
 147      94A6A4EA 
 147      27671457 
 147      16
 148 00a1 EB653000 		.ascii	"\353e0\000\000\203q8C"
 148      00837138 
 148      43
ARM GAS  /tmp/cc4BmMZ0.s 			page 11


 149              		.text
 150              		.section	.gnu.lto_chSysUnlock.67cf1c1dd1d6e29a,"",%progbits
 151 0000 789CCD92 		.ascii	"x\234\315\222\275J\003A\020\200gv\367.\211Qc#\250U\010"
 151      BD4A0341 
 151      10806776 
 151      F72E8951 
 151      6323A855 
 152 0015 560AC90B 		.ascii	"V\012\311\013\370\030\011\250\235\236\222\034\030\005"
 152      F81809A8 
 152      9D9E921C 
 152      1805
 153 0023 A38558B8 		.ascii	"\243\205X\270j\012\321&Xj\023\033\261\023\354\322YX"
 153      6A0AD126 
 153      586A131B 
 153      B113ECD2 
 153      5958
 154 0035 0444C44E 		.ascii	"\004D\304N\255\202\220*\351#\"\236\263{?9c\032\305\302"
 154      AD82902A 
 154      E923229E 
 154      B37B3F39 
 154      631AC5C2 
 155 0049 E16E666F 		.ascii	"\341nfoo\346\233\331\235a\300\240Wf\3505\005\300\244"
 155      6FE69BD9 
 155      9D61C0A0 
 155      5766E835 
 155      05C0A4
 156 005c FA880092 		.ascii	"\372\210\000\222\0072\344\2449\243m\311LRB0#X\033H\006"
 156      0732E4A4 
 156      39A36DC9 
 156      4C524230 
 156      23581B48 
 157 0071 4D440A40 		.ascii	"MD\012@\330a\\\030&\356\314\251O0Sp&\345q\243\3319\031"
 157      D8615C18 
 157      26EECCA9 
 157      4F305370 
 157      26E571A3 
 158 0088 3FACEE55 		.ascii	"?\254\356U\344\207\343\240\255~Y\010\263\264\302\244"
 158      E487E3A0 
 158      AD7E5908 
 158      B3B4C2A4 
 159 0098 360A1D16 		.ascii	"6\012\035\0267L^]\310XU\276;\016\377]\014\377/y\212"
 159      374C5E5D 
 159      C85855BE 
 159      3B0EFF5D 
 159      0CFF2F79 
 160 00ad 0897ECBA 		.ascii	"\010\227\354\272\3418\355Z\355\245\215\243&\002ebJq"
 160      E138ED5A 
 160      EDA58DA3 
 160      26026562 
 160      4A71
 161 00bf 525CA895 		.ascii	"R\\\250\225\001\232D\266,e%Y\364J!\311j\235S\315\340"
 161      019A44B6 
 161      2C652559 
 161      F44A21C9 
 161      6A9D53CD 
 162 00d4 F7B0DF78 		.ascii	"\367\260\337x<\212/\3409R\017`\033\336\344\201\034\261"
 162      3C8A2FE0 
ARM GAS  /tmp/cc4BmMZ0.s 			page 12


 162      39520F60 
 162      1BDEE481 
 162      1CB1
 163 00e6 5158BA03 		.ascii	"QX\272\003@\020\332W^O\255D?/\326\365r\251\224\223\337"
 163      4010DA57 
 163      5E4FAD44 
 163      3F2FD6F5 
 163      72A99493 
 164 00fb C1DEF36B 		.ascii	"\301\336\363kg\302\365\317#N\303\024U\244\265\251u\344"
 164      67C2F5CF 
 164      234EC314 
 164      55A4B5A9 
 164      75E4
 165 010d 144E76A5 		.ascii	"\024Nv\245BD\003X\254\250S\252\003\3074k\321\255\200"
 165      42440358 
 165      ACA853AA 
 165      03C7346B 
 165      D1AD80
 166 0120 2C7AD61F 		.ascii	",z\326\037\260:\224\333\030\320\025!j\343@\230O\254"
 166      B03A94DB 
 166      18D01521 
 166      6AE34098 
 166      4FAC
 167 0132 DEF02F92 		.ascii	"\336\360/\222C\341\3269\357cX\250\310\037\226\307=h"
 167      43E1D639 
 167      EF6358A8 
 167      C81F96C7 
 167      3D68
 168 0144 18C73528 		.ascii	"\030\3075(N \012\030$\374\254;\251:@\364\011\020\177"
 168      4E200A18 
 168      24FCAC3B 
 168      A93A40F4 
 168      09107F
 169 0157 7D4961B8 		.ascii	"}Ia\270\321S\215\350WM\035n\232\301\255\362\274\337"
 169      D1538DE8 
 169      574D1D6E 
 169      9AC1ADF2 
 169      BCDF
 170 0169 52F7BA0C 		.ascii	"R\367\272\014=,\342\333\010\014Y\336\361\325\316\230"
 170      3D2CE2DB 
 170      080C59DE 
 170      F1D5CE98 
 171 0179 8DC33468 		.ascii	"\215\3034h\236\223\215\011?\332\364F\255u\033\3517D"
 171      9E938D09 
 171      3FDAF446 
 171      AD751BE9 
 171      3744
 172 018b A23B440F 		.ascii	"\242;D\017\260\333hO\373N\256d\325\331\324\261R\351"
 172      B0DB684F 
 172      FB4EAE64 
 172      D5D9D4B1 
 172      52E9
 173 019d 742678D6 		.ascii	"t&x\326J\231\365\215\214\275j\255l.-g\254Bi\253\224"
 173      4A99F58D 
 173      8CBD6AAD 
 173      6C2E2D67 
 173      AC4269AB 
ARM GAS  /tmp/cc4BmMZ0.s 			page 13


 174 01b2 2EC027B8 		.ascii	".\300'\270W\315R"
 174      57CD52
 175              		.text
 176              		.section	.gnu.lto_mbox1_execute.67cf1c1dd1d6e29a,"",%progbits
 177 0000 789CDD5B 		.ascii	"x\234\335[\011t\024E\032\256\252\231\334\204$$\220\003"
 177      09741445 
 177      1AAEAA99 
 177      DC842424 
 177      9003
 178 0012 1242B809 		.ascii	"\022B\270\011$\020\3563\204CA\024\020\211\334 \014\020"
 178      2410EE33 
 178      84434114 
 178      1089DC20 
 178      0C10
 179 0024 8653056F 		.ascii	"\206S\005o]\006\302\245\020\030\0211j8\024\017V\367"
 179      5D06C2A5 
 179      10181131 
 179      6A38140F 
 179      56F7
 180 0036 A90BFB5C 		.ascii	"\251\013\373\\\004W\307\013\220\010\210\202\002^QT\020"
 180      0457C70B 
 180      90088882 
 180      025E5154 
 180      10
 181 0047 BC9E7B78 		.ascii	"\274\236{x\256\263\365U\367t\317\244\253\241;Y\347\345"
 181      AEB3F555 
 181      F774CFA4 
 181      ABA13B59 
 181      E7E5
 182 0059 651EEFEF 		.ascii	"e\036\357\357\256\257\353\257\372\277\257\253\376\376"
 182      AEAFEBAF 
 182      FABFAFAB 
 182      FEFE
 183 0067 BB014618 		.ascii	"\273\001F\030\251\376+w\022\362\363(B\206\243\261\210"
 183      A9FE2B77 
 183      12F2F328 
 183      4286A3B1 
 183      88
 184 0078 50DE8332 		.ascii	"P\336\2032\346 \304\303\370\025\217\323A\027p\304I\243"
 184      E620C4C3 
 184      F8158FD3 
 184      411770C4 
 184      49A3
 185 008a B98D6091 		.ascii	"\271\215`\221\300\243\200G\012<J\340\321,\002x\014\360"
 185      C0A38047 
 185      0A3C4AE0 
 185      D12C0278 
 185      0CF0
 186 009c 18168BF3 		.ascii	"\030\026\213\3638\234\307\212>q\254\001\220x \015\004"
 186      389CC78A 
 186      3E71AC01 
 186      9078200D 
 186      04
 187 00ad 12CF1A02 		.ascii	"\022\317\032\002I\000\322P \011,\021H\022\220D\201$"
 187      4900D250 
 187      20092C11 
 187      48129044 
ARM GAS  /tmp/cc4BmMZ0.s 			page 14


 187      8124
 188 00bf B1464092 		.ascii	"\261F@\222\2014\022H2K\001\322\030H\212@\032\263&@R"
 188      81341248 
 188      324B01D2 
 188      18488A40 
 188      1AB32640 
 189 00d4 81341148 		.ascii	"\2014\021H*K\003\222\016$M \3514\223\333\014\326\024"
 189      2A4B0392 
 189      0E244D20 
 189      E93493DB 
 189      0CD614
 190 00e7 7833E04D 		.ascii	"x3\340M\005\336L\340\231,\003x\026\360,\326\034\347"
 190      05DE4CE0 
 190      992C0378 
 190      16F02CD6 
 190      1CE7
 191 00f9 D9386F2E 		.ascii	"\3318o.\372d\263\026@r\200\264\020H\016k\011\244\025"
 191      FA64B316 
 191      407280B4 
 191      10480E6B 
 191      09A415
 192 010c 90960269 		.ascii	"\220\226\002i\305Z\003i\003\244\265@\332\260\266@\332"
 192      C55A0369 
 192      03A4B540 
 192      DAB0B640 
 192      DA
 193 011d 01692B90 		.ascii	"\001i+\220v\254=\220\016@\332\013\244\003\313\005\322"
 193      76AC3D90 
 193      0E40DA0B 
 193      A403CB05 
 193      D2
 194 012e 1148AE40 		.ascii	"\021H\256@:\262N@\362\200t\022H\036\313\007\322\031"
 194      3AB24E40 
 194      F2807412 
 194      481ECB07 
 194      D219
 195 0140 48BE403A 		.ascii	"H\276@:\263.@\012\200t\021H\001\353\012\244\033\220"
 195      B32E400A 
 195      80741148 
 195      01EB0AA4 
 195      1B90
 196 0152 AE02E9C6 		.ascii	"\256\002\351\306\272\003\351\001\244\273@z\260\236@"
 196      BA03E901 
 196      A4BB407A 
 196      B09E40
 197 0161 7A01E929 		.ascii	"z\001\351)\220^\2547\220>@z\013\244\017\353\013\244"
 197      905EAC37 
 197      903E407A 
 197      0BA40FEB 
 197      0BA4
 198 0173 1F90BE02 		.ascii	"\037\220\276\002\351\307\372\003\031\000\244\277@\006"
 198      E9C7FA03 
 198      1900A4BF 
 198      4006
 199 0181 D041DC16 		.ascii	"\320A\334\026\262\201\300\213\200\373\210\270\360\012"
 199      B281C08B 
 199      80FB88B8 
ARM GAS  /tmp/cc4BmMZ0.s 			page 15


 199      F00A
 200 018f 11575E25 		.ascii	"\021W^%\254\020\227\006\343\322k\204\015Ac(\032\257"
 200      AC109706 
 200      E3D26B84 
 200      0D416328 
 200      1AAF
 201 01a1 2BFDDE20 		.ascii	"+\375\336 \3542`\227\003\333\257`\007\010\033\006l8"
 201      EC326097 
 201      03DBAF60 
 201      07081B06 
 201      6C38
 202 01b3 B0830AF6 		.ascii	"\260\203\012\366&aW\000\033\001\354\220\202U\022v%\260"
 202      26615700 
 202      1B01EC90 
 202      82551276 
 202      25B0
 203 01c5 AB80BDA5 		.ascii	"\253\200\275\245`\207\011\033\011l\024\260#\012v\224"
 203      6087091B 
 203      096C14B0 
 203      230A7694 
 204 01d5 B0D1C0AE 		.ascii	"\260\321\300\256\006\366\266\202\035#l\014\260k\200"
 204      06F6B682 
 204      1D236C0C 
 204      B06B80
 205 01e4 BDA360EF 		.ascii	"\275\243`\357\0226\026X1\260\343\012v\202\260k\201\215"
 205      12361658 
 205      31B0E30A 
 205      7682B06B 
 205      818D
 206 01f6 03F69E82 		.ascii	"\003\366\236\202\275O\350$~8I\330\004\\\232\210K\247"
 206      BD4FE824 
 206      7E3849D8 
 206      045C9A88 
 206      4BA7
 207 0208 944BA795 		.ascii	"\224K\247\225K\037\0206\036\227&\343\322\207\204MAc"
 207      4B1F1036 
 207      1E9726E3 
 207      D287844D 
 207      4163
 208 021a 2A1A1F29 		.ascii	"*\032\037)\375>&l\032\260\353\200}\242`U\204M\0076\003"
 208      FD3E266C 
 208      1AB0EB80 
 208      7DA26055 
 208      844D0736 
 209 022f D8A70AF6 		.ascii	"\330\247\012\366\031a.`3\201\235Q\260\317\011\233\005"
 209      19612E60 
 209      33819D51 
 209      B0CF099B 
 209      05
 210 0240 6C36B02F 		.ascii	"l6\260/\024\354K\302J\200\315\001vV\301\316\021\346"
 210      14EC4BC2 
 210      4A80CD01 
 210      7656C1CE 
 210      11E6
 211 0252 063617D8 		.ascii	"\0066\027\330W\012v\236\260y\300\346\003\273\240`_\023"
 211      570A769E 
 211      B079C0E6 
ARM GAS  /tmp/cc4BmMZ0.s 			page 16


 211      03BBA060 
 211      5F13
 212 0264 BA901FBE 		.ascii	"\272\220\037\276Q\016\337\022J\371\256\247d)s8#\"\243"
 212      510EDF12 
 212      4AF9AEA7 
 212      64297338 
 212      2322A3
 213 0277 A26362E3 		.ascii	"\242cb\343\032\3047LHLj\224\234\322\270IjZzF\323f\231"
 213      1AC4374C 
 213      484C6A94 
 213      9CD2B849 
 213      6A5A7A46 
 214 028e 59CDB35B 		.ascii	"Y\315\263[\344\264l\325\272M\333v\355;\344v\354\224"
 214      E4B46CD5 
 214      BA4DDB76 
 214      ED3BE476 
 214      EC94
 215 02a0 97DFB94B 		.ascii	"\227\337\271KA\327n\335{\364\354\325\273O\337~\375\007"
 215      41D76EDD 
 215      7BF4ECD5 
 215      BB4FDF7E 
 215      FD07
 216 02b2 14FAC82B 		.ascii	"\024\372\310+\344U\362\032y\235\274A\366\223\003\344"
 216      E455F21A 
 216      799DBC41 
 216      F69303E4 
 217 02c2 2079931C 		.ascii	" y\223\034\"\225\344-r\230\034!G\311\333\344\030y\207"
 217      2295E42D 
 217      72981C21 
 217      47C9DBE4 
 217      187987
 218 02d5 BC4B8E93 		.ascii	"\274K\216\223\023\344=\362>9IN\221\323\344\003\362!"
 218      13E43DF2 
 218      3E39494E 
 218      91D3E403 
 218      F221
 219 02e7 F9887C4C 		.ascii	"\371\210|L>!U\344S\362\0319C>'_\220/\311Yr\216|E\316"
 219      3E2155E4 
 219      53F21939 
 219      433E275F 
 219      902FC959 
 220 0300 930BE46B 		.ascii	"\223\013\344k\362\015\3411.\235\200(\311j\232C\036\361"
 220      F20DE131 
 220      2E9D8028 
 220      C96A9A43 
 220      1EF1
 221 0312 78BC555F 		.ascii	"x\274U_\234/O\277g\373r\257\347w\277\237\272q\315E\311"
 221      9C2F4FBF 
 221      67FB72AF 
 221      E777BF9F 
 221      BA71CD45 
 222 0327 787E46B3 		.ascii	"x~F\263\305\001\211+\370'\3346z\236\331\351ql\367\374"
 222      C501892B 
 222      F827DC36 
 222      7A9ED9E9 
 222      716CF7FC 
 223 033b E6F73BDC 		.ascii	"\346\367;\334\324\241\373D+>\364\377\345\343\373\347"
ARM GAS  /tmp/cc4BmMZ0.s 			page 17


 223      D4A1FB44 
 223      2B3EF4FF 
 223      E5E3FBE7 
 224 034b FE6DC1E1 		.ascii	"\376m\301\3419-\205\347\365\234\372|\364A\317\012\237"
 224      392D85E7 
 224      F59CFA7C 
 224      F441CF0A 
 224      9F
 225 035c DF5F6899 		.ascii	"\337_h\231\222\357\337\373\367>B=\253<\313\276\367\373"
 225      92EFDFFB 
 225      F73E423D 
 225      AB3CCBBE 
 225      F7FB
 226 036e 13FE5856 		.ascii	"\023\376XV\277\356\177!\\Sm>\2606\3669\317\032\217\337"
 226      BFEE7F21 
 226      5C536D3E 
 226      B036F639 
 226      CF1A8FDF 
 227 0382 BFF48F9D 		.ascii	"\277\364\217\235hk\270&\332\025\256\211\366\206g\"\257"
 227      686BB826 
 227      DA15AE89 
 227      F6866722 
 227      AF
 228 0393 EFF88175 		.ascii	"\357\370\201u\261\336e\352D\244N\355@\257\357\275\272"
 228      B1DE65EA 
 228      44A44EED 
 228      40AFEFBD 
 228      BA
 229 03a4 1BDC46DF 		.ascii	"\033\334F\337\311\340\340\",\006\267k\247'&0\221U\237"
 229      C9E0E022 
 229      2C06B76B 
 229      A7272630 
 229      91559F
 230 03b7 7011FAF1 		.ascii	"p\021\372\361@\230\222\220\327\367\363\352\315!\231"
 230      40989290 
 230      D7F7F3EA 
 230      CD2199
 231 03c6 9F911C6A 		.ascii	"\237\221\034j_\214H\213\304\376{\240&)\317\367\300\241"
 231      5F8C488B 
 231      C4FE7BA0 
 231      2629CFF7 
 231      C0A1
 232 03d8 AD35C9FF 		.ascii	"\2555\311\377'j\220\377\037<\024\266\244\\q(\\I\371"
 232      276A90FF 
 232      1F3C14B6 
 232      A45C7128 
 232      5C49F9
 233 03eb 503DDB1F 		.ascii	"P=\333\037\317\3257B/\206k)\034\017\317D^\337\307\207"
 233      CFD53742 
 233      2F866B29 
 233      1C0FCF44 
 233      5EDFC787 
 234 03ff EAEC03C3 		.ascii	"\352\354\003\303\353\373\276\356\006\267\321\367C}["
 234      EBFBBEEE 
 234      06B7D1F7 
 234      437D5B
 235 040e DCDECA30 		.ascii	"\334\336\3120-\356M\341\232\250<\\\023U\204k\242]\341"
ARM GAS  /tmp/cc4BmMZ0.s 			page 18


 235      2DEE4DE1 
 235      9AA83C5C 
 235      1355846B 
 235      A25DE1
 236 0421 9AE86F95 		.ascii	"\232\350o\225\365lu\277\\\031\266Z\355\330\332\352\265"
 236      F56C75BF 
 236      5C19B65A 
 236      EDD8DAEA 
 236      B5
 237 0432 5AFB3FB0 		.ascii	"Z\373?\260V;QY\203J\210\277)T\326\331\334\352\365\235"
 237      563B5159 
 237      834A88BF 
 237      2954D6D9 
 237      DCEAF59D 
 238 0446 ACBBC16D 		.ascii	"\254\273\301m\364\235\256o[\343\207p%\225\377\204k\242"
 238      F49DAE6F 
 238      5BE38770 
 238      2595FF84 
 238      6BA2
 239 0458 5FC235D1 		.ascii	"_\3025\321\357a{f\036\011\323D\233\217\324\263\325\375"
 239      EF617B66 
 239      1E09D344 
 239      9B8FD4B3 
 239      D5FD
 240 046a D723614B 		.ascii	"\327#aK\374\273\327WO\374\235\377\300\304\377\367#5"
 240      FCBBD757 
 240      4FFC9DFF 
 240      C0C4FFF7 
 240      2335
 241 047c 4AFC7B8E 		.ascii	"J\374{\216\324\331\334\352\365\355\255\273\301\361\267"
 241      D4D9DCEA 
 241      F5EDADBB 
 241      C1F1B7
 242 048b BFFAB535 		.ascii	"\277\372\2655\370\373U\335U\333\353\373\241\356\006"
 242      F8FB55DD 
 242      55DBEBFB 
 242      A1EE06
 243 049a B7D1F7AF 		.ascii	"\267\321\367\257\372\265\024\370\243\271~\021\362\372"
 243      FAB514F8 
 243      A3B97E11 
 243      F2FA
 244 04a8 F6ED5F97 		.ascii	"\366\355_\227\356\321sq\024#=\255\344b\237\327\363\362"
 244      EED17371 
 244      14233DAD 
 244      E4629FD7 
 244      F3F2
 245 04ba 4CED6B24 		.ascii	"L\355k$\367\352g-\203\373\376\261j}\360|NF\212.\345"
 245      F7EA672D 
 245      83FBFEB1 
 245      6A7DF07C 
 245      4E468A2E 
 246 04cf F92CF355 		.ascii	"\371,\363U\371\375o\355~\354\263\027i\362NJ\311t\372"
 246      F9FD6FED 
 246      7EECB317 
 246      69F24E4A 
 246      C974FA
 247 04e2 1796C39F 		.ascii	"\027\226\303\237\032\312\321\241\036\235\3521\202\360"
ARM GAS  /tmp/cc4BmMZ0.s 			page 19


 247      1ACAD1A1 
 247      1E9DEA31 
 247      82F0
 248 04f0 7D10C98D 		.ascii	"}\020\311\215#\012&Z\205cx\303\031\213kq\034\331\311"
 248      230A265A 
 248      856378C3 
 248      198B6B71 
 248      1CD9C9
 249 0503 9106B81C 		.ascii	"\221\006\270\034\017\323P\355\223\240^I\004\230\004"
 249      0FD350ED 
 249      93A05E49 
 249      049804
 250 0512 D3484592 		.ascii	"\323HE\222\321H\201i\254\"M\320H\205IS\221t42`\232\252"
 250      D1488169 
 250      AC224DD0 
 250      48854953 
 250      91743432 
 251 0529 48333432 		.ascii	"H342a\2620qs\234e\303\264@3\007g-aZq\023\321\032\246"
 251      61B23071 
 251      739C65C3 
 251      B4403307 
 251      672D615A 
 252 0542 0D9A6D61 		.ascii	"\015\232ma\332\2511\265W\307\352\0000\027\246#G^\242"
 252      DAA931B5 
 252      57C7EA00 
 252      3017A623 
 252      475EA2
 253 0555 39A4136F 		.ascii	"9\244\023oD\346\251\335\362q\24538v\301\330\005\252"
 253      44E6A9DD 
 253      F271A533 
 253      3876C1D8 
 253      05AA
 254 0567 5757C0DD 		.ascii	"WW\300\335`\272\253H\0174z\302\364\302\204\275a\372"
 254      60BAAB48 
 254      0F347AC2 
 254      F4C284BD 
 254      61FA
 255 0579 A0D917A6 		.ascii	"\240\331\027\246\037\232\375a\006\240Y\0103P\365,Bc"
 255      1F9AFD61 
 255      06A05908 
 255      3350F52C 
 255      4263
 256 058b 10CC6015 		.ascii	"\020\314`\025\031\202\306P\230\3130\351\3458\033\006"
 256      1982C650 
 256      98CB30E9 
 256      E5381B06 
 257 059b 331CCD2B 		.ascii	"3\034\315+p6\002\346J\014x\025\314H4G\301\214V\307\270"
 257      703602E6 
 257      4A0C7815 
 257      CC483447 
 257      C18C56C7 
 258 05b0 1A8D3130 		.ascii	"\032\21510\327\250\310X4\212a\256U\221qh\214\207\231"
 258      D7A8C858 
 258      348A61AE 
 258      55917168 
 258      8C8799
 259 05c3 A02213D1 		.ascii	"\240\"\023\321\230\0043YE\246\2401\025f\032&\272\016"
ARM GAS  /tmp/cc4BmMZ0.s 			page 20


 259      98043359 
 259      45A6A031 
 259      15661A26 
 259      BA0E
 260 05d5 663A9A33 		.ascii	"f:\2323`\\\252L3\325\336\263\000\316\206)\341\310\267"
 260      605CAA4C 
 260      33D5DEB3 
 260      00CE8629 
 260      E1C8B7
 261 05e8 5CCD3950 		.ascii	"\\\3159P\323\255v\233\213+\363@b>\316\026\300,Ds\021"
 261      D3AD769B 
 261      8B2BF340 
 261      623ECE16 
 261      C02C4473 
 262 05fd CEAE87B9 		.ascii	"\316\256\207\271\001\023\334\010\263\030\315%07\251"
 262      0113DC08 
 262      B318CD25 
 262      3037A9
 263 060c A3DF8CC6 		.ascii	"\243\337\214\306-0\267\252\310mh\334\016s\207\212\334"
 263      2D30B7AA 
 263      C86D68DC 
 263      0E73878A 
 263      DC
 264 061d 89C65D30 		.ascii	"\211\306]0\177R\221\245hx(\3542\252b\313E\263T\330\025"
 264      7F5291A5 
 264      687828EC 
 264      32AA62CB 
 264      45B354D8 
 265 0632 B0112B85 		.ascii	"\260\021+\205]%\220\325\302\256\011\354\210\273\003"
 265      5D2590D5 
 265      C2AE09EC 
 265      88BB03
 266 0641 5EF7087C 		.ascii	"^\367\010|\255\260\353\000\256\343`\031\232\221\353"
 266      ADB0EB00 
 266      AEE36019 
 266      9A91EB
 267 0650 039D3788 		.ascii	"\003\2357\210\253^Xr\2578\337(\354}\002\331$\316\357"
 267      AB5E5872 
 267      AF38DF28 
 267      EC7D02D9 
 267      24CEEF
 268 0663 1776B398 		.ascii	"\027v\263\230\361\001a\313\005\362\240\260\017\211\236"
 268      F10161CB 
 268      05F2A0B0 
 268      0F899E
 269 0672 0F8BF30A 		.ascii	"\017\213\363\012a\267\010d\2538\337&\354v\341\365\210"
 269      61B70864 
 269      AB38DF26 
 269      EC76E1F5 
 269      88
 270 0683 B08F0A64 		.ascii	"\260\217\012d\207\260\217\011\344qa\237\020\310\223"
 270      87B08F09 
 270      E471619F 
 270      10C893
 271 0692 C2F2ED1E 		.ascii	"\302\362\355\036AV\360\304\224\2550\231N\237\022\026"
 271      4156F0C4 
 271      94AD3099 
ARM GAS  /tmp/cc4BmMZ0.s 			page 21


 271      4E9F1216 
 272 06a2 118B8CC6 		.ascii	"\021\213\214\306\177c\205-\246\214\020\307QRZ\365\264"
 272      7F63852D 
 272      A68C10C7 
 272      51525AF5 
 272      B4
 273 06b3 6B3A7D06 		.ascii	"k:}\006\377\300\210\334A~\341\265\177\242\233F\273\250"
 273      FFC088DC 
 273      417EE1B5 
 273      7FA29B46 
 273      BBA8
 274 06c5 92EEDC34 		.ascii	"\222\356\3344\206\220\243\304\251\364(\241\021Z\227"
 274      8690A3C4 
 274      A9F428A1 
 274      115A97
 275 06d4 581755FE 		.ascii	"X\027U\376\255\023\220h7\215[\000e\3048n\332\200\220"
 275      AD139068 
 275      378D5B00 
 275      65C4386E 
 275      DA8090
 276 06e7 C3A4F4A8 		.ascii	"\303\244\364\250#\340\026\311=\221\232\010f9J\"\002"
 276      23E016C9 
 276      3D919A08 
 276      66394A22 
 276      02
 277 06f8 7894365C 		.ascii	"x\2246\\\274K\004OD\006sR\370\270iCB\016\222\025_S\255"
 277      BC4B044F 
 277      44067352 
 277      F8B86943 
 277      420E9215 
 278 070f 3B2E3A82 		.ascii	";.:\202s[1\232\234\205CF\301\251SP\372:-\365=L\226\357"
 278      735B319A 
 278      9C854346 
 278      C1A95350 
 278      FA3A2DF5 
 279 0727 29FFF66D 		.ascii	")\377\366mm\326h\021\222>#wupvkJ\317\226\025\006\372"
 279      6DD66811 
 279      923E2377 
 279      7570766B 
 279      4ACF9615 
 280 073d C494502A 		.ascii	"\304\224P*\272\015\"b\200oKwi\376\261%\212\210\253|"
 280      BA0D2262 
 280      806F4B77 
 280      69FEB125 
 280      8A88AB7C 
 281 0751 1901284E 		.ascii	"\031\001(N\233:\301\205\361\264`<\023B\224\344\316\030"
 281      9B3AC185 
 281      F1B4603C 
 281      134294E4 
 281      CE18
 282 0763 35D1CF7F 		.ascii	"5\321\317\177\011<\272$E\327\322\013e\232\204\015\370"
 282      093CBA24 
 282      45D7D20B 
 282      659A840D 
 282      F8
 283 0774 68425A12 		.ascii	"hBZ\022*m\274\211\264\014>Fi\343\015\322\216\305\033"
 283      2A6DBC89 
ARM GAS  /tmp/cc4BmMZ0.s 			page 22


 283      B40C3E46 
 283      69E30DD2 
 283      8EC51B
 284 0787 82A39846 		.ascii	"\202\243\230F\005\350\236)\033\036\350\3350@\227j\252"
 284      05E89E29 
 284      1B1EE8DD 
 284      3040976A 
 284      AA
 285 0798 44F36E7C 		.ascii	"D\363n|\304/\227E\005:)=\3641O\021\312\305t\356tp\377"
 285      C42F9745 
 285      053A293D 
 285      F4314F11 
 285      CAC574EE 
 286 07af A8F21838 		.ascii	"\250\362\0308\305\210\033\262\252\352\305\322\310\200"
 286      C5881BB2 
 286      AAEAC5D2 
 286      C880
 287 07bd 5742B034 		.ascii	"WB\2604\221\301\322L\013\221\006\203G\025\021\251<?"
 287      91C1D24C 
 287      0B910683 
 287      471511A9 
 287      3C3F
 288 07cf 96       		.ascii	"\226"
 289 07d0 692B2F91 		.ascii	"i+/\221\217(\223'\311D\036\007|\214\362$I\344\211\025"
 289      8F289327 
 289      C9441E07 
 289      7C8CF224 
 289      49E48915 
 290 07e4 F2C4A914 		.ascii	"\362\304\251\024\016\351\024\032\231\336\335b#\205\361"
 290      0EE9141A 
 290      99DEDD62 
 290      2385F1
 291 07f3 E2D08806 		.ascii	"\342\320\210\006\205\377\354z-\374d>\232\010\337\037"
 291      85FFEC7A 
 291      2DFC643E 
 291      9A08DF1F 
 292 0803 F8D1A521 		.ascii	"\370\321\245!<RLx8\341l\344\221\"\341\321@\360\210W"
 292      3C524C78 
 292      38E16CE4 
 292      9122E1D1 
 292      40F08857 
 293 0817 B3C15BA5 		.ascii	"\263\301[\245Q\227L\007+\253\016\353l\033k\335\222]"
 293      51974C07 
 293      2BAB0EEB 
 293      6C1B6BDD 
 293      925D
 294 0829 582C3ADB 		.ascii	"X,:\333q2\266n\232\202!J\253\216\274&\235(d#r1^\326"
 294      7132B66E 
 294      9A82214A 
 294      AB8EBC26 
 294      9D286423 
 295 0841 C568C227 		.ascii	"\305h\302'\273\250\030\251&b\010g\243\030\251\0221\032"
 295      BBA818A9 
 295      26620867 
 295      A318A912 
 295      311A
 296 0853 0A3112D4 		.ascii	"\0121\022\324\233zR\247\231fg]Jn\352Y\235G:\037\355"
ARM GAS  /tmp/cc4BmMZ0.s 			page 23


 296      9B7A52A7 
 296      9966675D 
 296      4A6EEA59 
 296      9D473A1F 
 297 0868 A23C324C 		.ascii	"\242<2LxD\302\331\310#C\302#Q\360HRo\352iK7\365\003"
 297      7844C2D9 
 297      C82343C2 
 297      2351F048 
 297      526FEA69 
 298 0880 9D6DD3E0 		.ascii	"\235m\323\340\233\032\035\314\366\206\213\336\324\017"
 298      9B1A1DCC 
 298      F6868BDE 
 298      D40F
 299 088e ADDDD41F 		.ascii	"\255\335\324\037u1\232\361\311.*F\246\211\030Qp6\212"
 299      75319AF1 
 299      C92E2A46 
 299      A6891851 
 299      70368A
 300 08a1 912911A3 		.ascii	"\221)\021\243\221\020#Y\021c\373y\351\003@\376\274\313"
 300      91102359 
 300      1163FB79 
 300      E90340FE 
 300      BCCB
 301 08b3 AAD9F3AE 		.ascii	"\252\331\363\2569\367\224e\235l\023.\321\3601r\311\226"
 301      39F79465 
 301      9D6C132E 
 301      D1F03172 
 301      C996
 302 08c5 3CEF526C 		.ascii	"<\357Rl<\357\032[\352\013M.\330\320\244E\260&1\2265"
 302      3CEF1A5B 
 302      EA0B4D2E 
 302      D8D0A445 
 302      B0263196 
 303 08da C9E19EB2 		.ascii	"\311\341\236\262\032\240\245\211&1\3601j\322R\242I\023"
 303      1AA0A589 
 303      2631F031 
 303      6AD252A2 
 303      4913
 304 08ec 1B9AA45A 		.ascii	"\033\232\244Z\326\344\353Ki\302\237\363\023\003a\265"
 304      D6E4EB4B 
 304      69C29FF3 
 304      130361B5 
 305 08fc CA251D78 		.ascii	"\312%\035x-\3660yh\231\007=\365\254\010QTNq\302w\206"
 305      2DF63079 
 305      6899073D 
 305      F5AC0851 
 305      544E71C2 
 306 0912 F626193C 		.ascii	"\366&\031<@k;\003Pm\200 \201\333\360(\3708!\342\266"
 306      406B3B03 
 306      506D8020 
 306      81DBF028 
 306      F83821E2 
 307 0927 35113716 		.ascii	"5\0217\026\375\215\342\266\225\210\233fC\334t\313\005"
 307      FD8DE2B6 
 307      95889B66 
 307      43DC74CB 
 307      05
ARM GAS  /tmp/cc4BmMZ0.s 			page 24


 308 0938 D69EDFF5 		.ascii	"\326\236\337\365\002\253]\265\002+C\311\276\333\177"
 308      02AB5DB5 
 308      022B43C9 
 308      BEDB7F
 309 0947 D1A8B5D7 		.ascii	"\321\250\265\327Fj\342\302sW\033\3333)d\325\335An\307"
 309      466AE2C2 
 309      73571BDB 
 309      332964D5 
 309      DD416EC7 
 310 095b 6B8B5AF4 		.ascii	"k\213Z\364j\031J+\020R\325\374\363\335\006M\241\016"
 310      6A194A2B 
 310      1052D5FC 
 310      F3DD064D 
 310      A10E
 311 096d 7C74D956 		.ascii	"|t\331V\3155Q.\016>F\345r%i\247\251H;\315D\375\264\374"
 311      CD35512E 
 311      0E3E46E5 
 311      722569A7 
 311      A9483BCD 
 312 0985 CD727F15 		.ascii	"\315r\177\025\013\364\356\250\204(\244\270\240\261\354"
 312      0BF4EEA8 
 312      8428A4B8 
 312      A0B1EC
 313 0994 C42F04ED 		.ascii	"\304/\004\355\264 \375\322\\\352\255\347\235\334PY\251"
 313      B420FDD2 
 313      5CEAADE7 
 313      9DDC5059 
 313      A9
 314 09a5 3F37F40F 		.ascii	"?7\364\017\270\346\225PV\255 \3134\024dL\255\014\002"
 314      B8E69550 
 314      56AD20CB 
 314      3414644C 
 314      AD0C02
 315 09b8 BF538471 		.ascii	"\277S\204q\361\323Q\220\3455;\031\005\247,!\375\312"
 315      F1D35190 
 315      E5353B19 
 315      05A72C21 
 315      FDCA
 316 09ca AADF5D01 		.ascii	"\252\337]\001\247|-\210\014\027\366t@\207\006\"\272"
 316      A77C2D88 
 316      0C17F674 
 316      40870622 
 316      BA
 317 09db 34376D9A 		.ascii	"47m\232E\006o\361\224\017ts\246\332\346\317\254&O\276"
 317      45066FF1 
 317      940F7473 
 317      A6DAE6CF 
 317      AC264FBE 
 318 09ef 449EE642 		.ascii	"D\236\346B\236\354@y\371\354&\215M\347@\254Z5\375\224"
 318      9EEC4079 
 318      F9EC268D 
 318      4DE740AC 
 318      5A35FD94 
 319 0a03 3652177E 		.ascii	"6R\027~Y\251\246\323\002P\201\305z\213;K\313\305\335"
 319      59A9A6D3 
 319      025081C5 
 319      7A8B3B4B 
ARM GAS  /tmp/cc4BmMZ0.s 			page 25


 319      CBC5DD
 320 0a16 9BB45BD0 		.ascii	"\233\264[\320\225\217&[\015\335LVC<|\214\253\241\233"
 320      958F265B 
 320      0DDD4C56 
 320      433C7C8C 
 320      ABA19B
 321 0a29 846E0B41 		.ascii	"\204n\013A7G\255,\312Vj\317\332\356\246\213{\\\215\026"
 321      3747AD2C 
 321      CA566ACF 
 321      DAEEA68B 
 321      7B5C8D16 
 322 0a3d F73E9D4E 		.ascii	"\367>\235N\017>\272\214NO\023:\015\341c\244\323SB\247"
 322      0F3EBA8C 
 322      4E4F133A 
 322      0DE163A4 
 322      D35342A7 
 323 0a51 A5A0D34A 		.ascii	"\245\240\323JY\334\247\317\355\320:\367\262\223\310"
 323      59DCA7CF 
 323      EDD03AF7 
 323      B293C8
 324 0a60 02FF5D26 		.ascii	"\002\377]&8\023\366\256u&\354\303\243\340\343\204P\356"
 324      3813F6AE 
 324      7526ECC3 
 324      A3E0E384 
 324      50EE
 325 0a72 6B423901 		.ascii	"kB9\001\375\215\224\373J(\267\026\224\333\250\224\327"
 325      FD8D94FB 
 325      4A28B716 
 325      94DBA894 
 325      D7
 326 0a83 3CA175EE 		.ascii	"<\241u\356W[\312\375k\366\364\010\242<\200G\301\307"
 326      575BCAFD 
 326      6BF6F408 
 326      A23C8047 
 326      C1C7
 327 0a95 09A15C68 		.ascii	"\011\241\\hB9\021\375\215\224\013%\224\333\012\312\355"
 327      423911FD 
 327      8D940B25 
 327      94DB0ACA 
 327      ED
 328 0aa6 D445BB45 		.ascii	"\324E\273E_\264\003k\267hEi\034X\260\277\352\013\266"
 328      5FB4036B 
 328      B7684569 
 328      1C58B0BF 
 328      EA0BB6
 329 0ab9 888F7CD1 		.ascii	"\210\217|\321jp\220\011\247$8\0339\015\222pj/8uPK\343"
 329      6A709009 
 329      A724381B 
 329      390D9270 
 329      6A2F3875 
 330 0ad0 6D2BAD94 		.ascii	"m+\255\224\306;u\346\203\265nY.\2745\021\223ww\011s"
 330      C63B75E6 
 330      83B56E59 
 330      2EBC3511 
 330      93777709 
 331 0ae5 37721E26 		.ascii	"7r\036&\375\363\033\226\312\344\247\357\327\204\031"
 331      FDF31B96 
ARM GAS  /tmp/cc4BmMZ0.s 			page 26


 331      CAE4A7EF 
 331      D78419
 332 0af4 C227BEA8 		.ascii	"\302'\276\2500CM\204i\004g\2430C%\302\344\012a:\252"
 332      30434D84 
 332      690467A3 
 332      304325C2 
 332      E40A613A 
 333 0b09 65F2B311 		.ascii	"e\362\263\021\326K\302\313jV&_\316=e%\3410\023.\311"
 333      D64BC2CB 
 333      6A56265F 
 333      CE3D6525 
 333      E130132E 
 334 0b1e F0317219 		.ascii	"\3601r\031&\251Z:\331\250Z\362,\227\204{lh2\274fe\362"
 334      26A95A3A 
 334      D9A85AF2 
 334      2C97847B 
 334      6C6832BC 
 335 0b35 15DC5396 		.ascii	"\025\334S\226\262G\230h\222\002\037\243&#$\232\344\333"
 335      B2479868 
 335      92021FA3 
 335      2623249A 
 335      E4DB
 336 0b47 D0A4B365 		.ascii	"\320\244\263eM^\270\224&\301\211\356\312\332\226\311"
 336      4D5EB894 
 336      26C189EE 
 336      CADA96C9 
 337 0b57 57D5FAE1 		.ascii	"W\325\372\3410\222G\301\307\011\021w\224\211\270\215"
 337      309247C1 
 337      C7091177 
 337      9489B88D 
 338 0b67 D1DF28EE 		.ascii	"\321\337(\356(\211\270]l\210[`U\334\252\227,e\247\227"
 338      2889B85D 
 338      6C885B60 
 338      55DCAA97 
 338      2C65A797 
 339 0b7b F5EC34DA 		.ascii	"\365\3544\332\316\327\230\"\345\305]\344\232\035\233"
 339      CED79822 
 339      E5C55DE4 
 339      9A1D9B
 340 0b8a 3585AEE6 		.ascii	"5\205\256\346\303\310\226\340\030\023\225\232\300\307"
 340      C3C896E0 
 340      1813959A 
 340      C0C7
 341 0b98 A8D21849 		.ascii	"\250\322\030I\212\351*RL7\265\312|S\217\373\032;q\017"
 341      8AE92A52 
 341      4C37B5CA 
 341      7C538FFB 
 341      1A3B710F 
 342 0bac 0A8AFB69 		.ascii	"\012\212\373i=\356\261|\030Y\334\305&q\247\302\307\030"
 342      3DEEB17C 
 342      1859DCC5 
 342      2671A7C2 
 342      C718
 343 0bbe 77B124EE 		.ascii	"w\261$\356\356\"\356\036j\334\225z\334\327\332\211{"
 343      EE22EE1E 
 343      6ADC957A 
 343      DCD7DA89 
ARM GAS  /tmp/cc4BmMZ0.s 			page 27


 343      7B
 344 0bcf 7050DCBB 		.ascii	"pP\334\273\365\270\307\361adq\2177\211;\015>\306\270"
 344      F5B8C7F1 
 344      6164718F 
 344      37893B0D 
 344      3EC6B8
 345 0be2 C74BE2EE 		.ascii	"\307K\342\356)\342\356\245\306}X\217{\202\235\270\207"
 345      29E2EEA5 
 345      C67D588F 
 345      7B829DB8 
 345      87
 346 0bf3 04C5BD4F 		.ascii	"\004\305\275O\217{\"\037F\026\367$\223\270\323\341c"
 346      8F7B221F 
 346      4616F724 
 346      93B8D3E1 
 346      63
 347 0c04 8C7B9224 		.ascii	"\214{\222$\356\336\"\356>j\334G\365\270'\333\211{\250"
 347      EEDE22EE 
 347      3E6ADC47 
 347      F5B827DB 
 347      897BA8
 348 0c17 FE61EAA4 		.ascii	"\376a\352\244\265'\356Y\235\335\024>\231\214\335T\023"
 348      B527EE59 
 348      9DDD143E 
 348      998CDD54 
 348      13
 349 0c28 7619F031 		.ascii	"v\031\3601\262\233*a\327W\260\353\247\026\222\007\237"
 349      B29B2A61 
 349      D757B0EB 
 349      A7169207 
 349      9F
 350 0c39 D73A4FAB 		.ascii	"\327:O\253mz\274\256\326\351q:\217\202\217\023By\206"
 350      6D7ABCAE 
 350      D6E9713A 
 350      8F828F13 
 350      427986
 351 0c4c 09E5A6E8 		.ascii	"\011\345\246\350o\244<CB\271\277\240<@\241\274\347\247"
 351      6FA43C43 
 351      42B9BFA0 
 351      3C40A1BC 
 351      E7A7
 352 0c5e E78F69BD 		.ascii	"\347\217i\275]\325\336\376\013\325\302\354C\371\035"
 352      5DD5DEFE 
 352      0BD5C2EC 
 352      43F91D
 353 0c6d AB96FA3E 		.ascii	"\253\226\372>zC[\0323M\013\263)\226\013\263\217W\306"
 353      7A435B1A 
 353      334D0BB3 
 353      29960BB3 
 353      8F57C6
 354 0c80 5A5926FE 		.ascii	"ZY&\376\315\2326\263\370\304\262e2\333D\263f\3601j6"
 354      CD9A36B3 
 354      F8C4B265 
 354      32DB44B3 
 354      66F0316A 
 355 0c95 5BA2D940 		.ascii	"[\242\331@\241YQ\340\373\301\336O\265\357\007%\322\357"
 355      A15951E0 
ARM GAS  /tmp/cc4BmMZ0.s 			page 28


 355      FBC1DE4F 
 355      B5EF0725 
 355      D2EF
 356 0ca7 0773F885 		.ascii	"\007s\370\205K~?\230\243\177?\370n\263\366\306\355."
 356      4B7E3F98 
 356      A37F3FF8 
 356      6EB3F6C6 
 356      ED2E
 357 0cb9 A18E6ADF 		.ascii	"\241\216j\337\017\006\031\276\0378\014\337\017\034\374"
 357      0F0619BE 
 357      1F380CDF 
 357      0F1CFC
 358 0cc8 F60DC0F7 		.ascii	"\366\015\300\367\003w\221\362\375`\260\272c\317\317"
 358      037791F2 
 358      FD60B0BA 
 358      63CFCF
 359 0cd7 0A38CD35 		.ascii	"\0128\3155\371~\220i\353\373\301\\\211<C\204<C\325r"
 359      F97E9069 
 359      EBFBC15C 
 359      893C4384 
 359      3C43D572 
 360 0ceb F5828DD2 		.ascii	"\365\202\215\322l^\315\312\325\371\334SV\256.0\271\325"
 360      6C5ECDCA 
 360      D5F9DC53 
 360      56AE2E30 
 360      B9D5
 361 0cfd 59F031DE 		.ascii	"Y\3601\336\352\005\222\352\3412\033\325\303\345\326"
 361      EA0592EA 
 361      E1321BD5 
 361      C3E5D6
 362 0d0c BF60DAD0 		.ascii	"\277`\332\320da\315\312\325E\334S\266\374\2577\321\244"
 362      6461CDCA 
 362      D545DC53 
 362      B6FCAF37 
 362      D1A4
 363 0d1e 397C8C9A 		.ascii	"9|\214\232\\/\321d\230\015M\206[\375\360xz\347>m\322"
 363      5C2FD164 
 363      980D4D86 
 363      5BFDF078 
 363      7AE73E6D 
 364 0d33 1B6A9B6D 		.ascii	"\033j\233mo\254u\266]\314\243\340\343\204H\267\304D"
 364      6FAC75B6 
 364      5DCCA3E0 
 364      E38448B7 
 364      C444
 365 0d45 BA6CF437 		.ascii	"\272l\3647J\267D\2625\256\020[c\204\232I\277\263TD\376"
 365      4AB744B2 
 365      35AE105B 
 365      63849A49 
 365      BFB35444 
 366 0d5a A43F646F 		.ascii	"\244?do\262\363\267?C\203\212\203\263\017h\314n\346"
 366      B2F3B73F 
 366      43838A83 
 366      B30F68CC 
 366      6EE6
 367 0d6c C3C816C6 		.ascii	"\303\310\026\306-&\354Z\300\307\310\356\026\011\273"
 367      2D26EC5A 
ARM GAS  /tmp/cc4BmMZ0.s 			page 29


 367      C0C7C8EE 
 367      1609BB
 368 0d7b 2B05BBAB 		.ascii	"+\005\273\253\324T\363\213\036\367\255v\342\016.j\276"
 368      D454F38B 
 368      1EF7AD76 
 368      E20E2E6A 
 368      BE
 369 0d8c D3E3BE8D 		.ascii	"\323\343\276\215\017#\213\373v\223\270s\340c\214\373"
 369      0F238BFB 
 369      7693B873 
 369      E0638CFB 
 370 0d9c 7649DC23 		.ascii	"vI\334#E\334\243\324\270\177\323\343\276\303N\334\301"
 370      45DCA3D4 
 370      B87FD3E3 
 370      BEC34EDC 
 370      C1
 371 0dad 45E48F7A 		.ascii	"E\344\217z\334w\362adq\337e\022wK\370\030\343\276K\022"
 371      DC77F261 
 371      6471DF65 
 371      12774BF8 
 371      18E3BE4B 
 372 0dc2 F76811F7 		.ascii	"\367h\021\367\325\201O\303z\334\177\262\023wp\321\356"
 372      D5814FC3 
 372      7ADC7FB2 
 372      137770D1 
 372      EE
 373 0dd3 D7E35ECA 		.ascii	"\327\343^\312\207\221\305\355\241&\201\267\202\2231"
 373      8791C5ED 
 373      A12681B7 
 373      829331
 374 0de2 700F9544 		.ascii	"p\017\225D>FD~\215\032\371\232\325Z\344\313\250\235"
 374      3E46447E 
 374      8D1AF99A 
 374      D55AE4CB 
 374      A89D
 375 0df4 D08BF43A 		.ascii	"\320\213\364:\362\356\003\326\276\334Th\004\227SL'\243"
 375      F2EE03D6 
 375      BEDC5468 
 375      0497534C 
 375      27A3
 376 0e06 586A46B1 		.ascii	"XjF\261\265p3r,\225q\034+8\026\007>\304~\246\365^Ak"
 376      B5703372 
 376      2C95711C 
 376      2B381607 
 376      3EC47EA6 
 377 0e1e 9BDF56DA 		.ascii	"\233\337V\332\032A\232\340VQ\004\202\241B\250\2576\243"
 377      1A419AE0 
 377      56510482 
 377      A142A8AF 
 377      36A3
 378 0e30 DE46F818 		.ascii	"\336F\370\030\251\257\226Q\277VP\037\247\026\225\345"
 378      A9AF9651 
 378      BF56501F 
 378      A71695E5 
 379 0e40 67F4A272 		.ascii	"g\364\242r\015\255VU\216Wsa\231\374\376U\313\205\353"
 379      0DAD5655 
 379      8E577361 
ARM GAS  /tmp/cc4BmMZ0.s 			page 30


 379      99FCFE55 
 379      CB85EB
 380 0e53 0F682BE5 		.ascii	"\017h+\345n=\322\232\227\225\033V[*+\317Th\002\335C"
 380      6E3DD29A 
 380      97951B56 
 380      5B2A2BCF 
 380      546802DD 
 381 0e68 31B56CD5 		.ascii	"1\265l\325\2545\223\256\255p3J\267V&\335\004!\335D\265"
 381      AC3593AE 
 381      AD70334A 
 381      B75626DD 
 381      0421DD44 
 382 0e7d B6DCF3A5 		.ascii	"\266\334\363\245^[\256\243\322\342\262\214\342\322%"
 382      5E5BAEA3 
 382      D2E2B28C 
 382      E2D225
 383 0e8c CBCB32AA 		.ascii	"\313\3132\252\327\227\273+\264\372r=\367vV+0'\031\012"
 383      D797BB2B 
 383      B4FA723D 
 383      F776562B 
 383      3027190A 
 384 0ea0 4CA7A1C0 		.ascii	"L\247\241\300t\342V\216C\205\271\236NTJ\314\311\352"
 384      74E2568E 
 384      4385B99E 
 384      4E544ACC 
 384      C9EA
 385 0eb2 6E7EB824 		.ascii	"n~\270$\340\266AW$\264\306lg\253\306\334 \323i\212\320"
 385      E0B64157 
 385      24B4C66C 
 385      67ABC6DC 
 385      20D3698A 
 386 0ec7 69AA5A64 		.ascii	"i\252ZdV\\z\361h\005\225W\217\312V\225y/\205\257\254"
 386      565C7AF1 
 386      68059557 
 386      8FCA5695 
 386      792F85AF 
 387 0edc CEDC6876 		.ascii	"\316\334hv\347\333\0137\343\235\337hdTL\247\331(\253"
 387      E7DB0B37 
 387      E39DDF68 
 387      64544CA7 
 387      D928AB
 388 0eef AEB35C6A 		.ascii	"\256\263\\jn\261\241\314}!\312X\25757Q\370\312\366\304"
 388      6EB1A1CC 
 388      7D21CA58 
 388      AF353751 
 388      F8CAF6C4 
 389 0f03 FD66CA74 		.ascii	"\375f\312t\020nFe\356\227)3\335\20623,\027\234\007\317"
 389      106E4665 
 389      EE972933 
 389      DD863233 
 389      2C179C07 
 390 0f18 6AB36EAE 		.ascii	"j\263n\256uF~\240\366\031\271\234\"\020\014\025\"\341"
 390      75467EA0 
 390      F619B99C 
 390      22100C15 
 390      22E1
 391 0f2a 836612E6 		.ascii	"\203f\022\346\012\037\243\204\017\312\266\213Kl\227"
ARM GAS  /tmp/cc4BmMZ0.s 			page 31


 391      0A1FA384 
 391      0FCAB68B 
 391      4B6C97
 392 0f39 99429C15 		.ascii	"\231B\234\025UO\2576\256\212l\027F2\271\343-\224t\271"
 392      554FAF36 
 392      AE8A6C17 
 392      4632B9E3 
 392      2D9474B9 
 393 0f4d A7C4FA62 		.ascii	"\247\304\372bz\250\206\333\354a\012_\3316\2530S\242"
 393      7AA886DB 
 393      EC610A5F 
 393      D936AB30 
 393      53A2
 394 0f5f A370332A 		.ascii	"\243p3*Q![L\263l,\246\331\326?\266\333\330f[j\270\315"
 394      51215B4C 
 394      B36C2CA6 
 394      D9D63FB6 
 394      DBD8665B 
 395 0f76 B652F8CA 		.ascii	"\266R\370\312\266\33163e:\0117\2432\333d\312\224\330"
 395      B6D93633 
 395      653A0937 
 395      A332DB64 
 395      CA94D8
 396 0f89 50668E65 		.ascii	"Pf\216ee\366^J\231\340m\264\335\3266\222\375\215\355"
 396      65F65E4A 
 396      99E06DB4 
 396      DDD63692 
 396      FD8DED
 397 0f9c 23B5DF88 		.ascii	"#\265\337\210"
 398 0fa0 8F520482 		.ascii	"\217R\004\202\241BD\336a&r\236\3601\212\274C&\262\333"
 398      A14244DE 
 398      6126729E 
 398      F0318ABC 
 398      4326B2DB 
 399 0fb4 86C8732D 		.ascii	"\206\310s-\213\274\317\216\310\217\325Z\344\307k\230"
 399      8BBCCF8E 
 399      C88FD55A 
 399      E4C76B98 
 400 0fc4 2F83447E 		.ascii	"/\203D~\202\"\020\014\025\"\362\223f\"\347\013\037\243"
 400      8222100C 
 400      1522F293 
 400      6622E70B 
 400      1FA3
 401 0fd6 C84FCA44 		.ascii	"\310O\312D\236gC\344\371\026\037\030\257^P+1\245\012"
 401      9E6743E4 
 401      F9161F18 
 401      AF5E502B 
 401      31A50A
 402 0fe9 EB46767B 		.ascii	"\353Fv{\326\340\035D\233t\201\250\331^\275pn\356\305"
 402      D6E01D44 
 402      9B7481A8 
 402      D95EBD70 
 402      6EEEC5
 403 0ffc FB2DE4FD 		.ascii	"\373-\344\375"
 404 1000 2AC932FE 		.ascii	"*\3112\376n3\023w\350\2308\015\374\306\002\202\344\315"
 404      6E331377 
 404      E898380D 
ARM GAS  /tmp/cc4BmMZ0.s 			page 32


 404      FCC60282 
 404      E4CD
 405 1012 F3F2F2B5 		.ascii	"\363\362\362\265?Kf-^\222\177\343\022q\\0c\321\255y"
 405      3F4B662D 
 405      5E927FE3 
 405      12715C30 
 405      63D1AD79 
 406 1026 2E12B960 		.ascii	".\022\271`qIA^g\345\320E9\0248\371\241\013L\001uG\026"
 406      7149415E 
 406      67E5D045 
 406      391438F9 
 406      A10B4C01 
 407 103d 0D1A3C64 		.ascii	"\015\032<d(\371\0378R\230\260"
 407      28F91F38 
 407      5298B0
 408              		.text
 409              		.section	.gnu.lto_.symbol_nodes.67cf1c1dd1d6e29a,"",%progbits
 410 0000 789C4D52 		.ascii	"x\234MR[O\023A\024>3\313\266T\253\334o\012\362\333\370"
 410      5B4F1341 
 410      143E33CB 
 410      B654ABDC 
 410      6F0AF2DB 
 411 0015 25537795 		.ascii	"%Sw\225\213$` B\002\211$\273\0115\220`\242\011$\232"
 411      8B246020 
 411      42028924 
 411      BB093590 
 411      60A20924 
 412 002a 80ED3E9A 		.ascii	"\200\355>\232\370\344\017\320\335\004\0220\020[\331"
 412      F8E40FD0 
 412      DD041230 
 412      105BD9
 413 0039 6A2B5DB7 		.ascii	"j+]\2673\347s\332\227\357r\276s\316\364\264\222$\335"
 413      33E773DA 
 413      97EF72BE 
 413      73CEF4B4 
 413      9224DD
 414 004c 16C87C64 		.ascii	"\026\310|dF\212\350\345\027\"\245^-/\310\212P\242O6"
 414      468AE8E5 
 414      1722A55E 
 414      2D2FC88A 
 414      50A24F36 
 415 0060 84922CBF 		.ascii	"\204\222,\277\256,\270?\005\025\224\343\246B\344]\362"
 415      AE2CB83F 
 415      051594E3 
 415      A642E45D 
 415      F2
 416 0071 B3504E5F 		.ascii	"\263PN_6\026j\240O&B\271}\262*T\241O\276\021\252h\245"
 416      36166AA0 
 416      4F2642B9 
 416      7DB22A54 
 416      A14FBE11 
 417 0088 BB24653E 		.ascii	"\273$e>\321]\221\316\200rdS\250\301\276\255\267b\240"
 417      D15D91CE 
 417      80726453 
 417      A8C1BEAD 
 417      B762A0
 418 009b 98177F09 		.ascii	"\230\027\177\0117\007\321\022\252d\212\225\212\020\236"
ARM GAS  /tmp/cc4BmMZ0.s 			page 33


 418      3707D112 
 418      AA648A95 
 418      8A109E
 419 00aa 54F7AC7A 		.ascii	"T\367\254z&\325}\253|\251\312V-K\365\300\252E\251\036"
 419      26D57DAB 
 419      7CA9CA56 
 419      2D4BF5C0 
 419      AA45A91E 
 420 00be 5AF55CAA 		.ascii	"Z\365\\\252!\253~\0135l\325S\251F\254\312\204\032\265"
 420      21AB7E0B 
 420      356CD553 
 420      A946ACCA 
 420      841AB5
 421 00d1 AA2BD498 		.ascii	"\252+\324\230U\025\251\306\255\372+\324\204U\035\241"
 421      5515A9C6 
 421      ADFA2BD4 
 421      84551DA1 
 422 00e1 26ADBA13 		.ascii	"&\255\272\023j\312\252?BM[\325\026j\346\277r\344\020"
 422      6ACAAA3F 
 422      424D5BD5 
 422      166AE6BF 
 422      72E410
 423 00f4 F9DFBAC2 		.ascii	"\371\337\272\302q\207\015\026\200.\325{Xd]d=H\344i\034"
 423      71870D16 
 423      802ED57B 
 423      58645D64 
 423      3D48E469 
 424 0109 A550E308 		.ascii	"\245P\343\010E=,M\230\\i\334\370\2451\012\027\177\314"
 424      453D2C4D 
 424      985C69DC 
 424      F8A5310A 
 424      177FCC
 425 011c 3B2541F5 		.ascii	";%A\365\036\226\007M_\271@\201\306IJ4\226(\370n\260"
 425      1E96074D 
 425      5FB94081 
 425      C6494A34 
 425      9628F86E 
 426 0131 AEF10945 		.ascii	"\256\361\011E:?I\376R\017\347\311\177at\244\361\011"
 426      3A3F49FE 
 426      520FE7C9 
 426      7F6174A4 
 426      F109
 427 0143 F9ABAC57 		.ascii	"\371\253\254Wy\356Z\017g)\324\230\317Y\343\376u\323"
 427      79EE5A0F 
 427      6729D498 
 427      CF59E3FE 
 427      75D3
 428 0155 1FADB3DE 		.ascii	"\037\255\263\3360\371\272\306\307\224l\230\274\267\311"
 428      30F9BAC6 
 428      C7946C98 
 428      BCB7C9
 429 0164 F33679DE 		.ascii	"\3636y\336V\017\363wn\031?\3312\271`\233\347o\233\\"
 429      560FF377 
 429      6E193FD9 
 429      32B9609B 
 429      E76F9B5C 
 430 0178 ACB148DE 		.ascii	"\254\261H\336\016\367\357\360\274]\316\357\362\276]"
ARM GAS  /tmp/cc4BmMZ0.s 			page 34


 430      0EF7EFF0 
 430      BC5DCEEF 
 430      F2BE5D
 431 0187 AEBFE6FA 		.ascii	"\256\277\346\372\036\3275\316Q\262g\352a\374\351\316"
 431      1ED735CE 
 431      51B267EA 
 431      61FCE9CE 
 432 0197 71CA3314 		.ascii	"q\3123\024&\232L\223\177\256I\376\225/4\311g\0302G\376"
 432      269A4C93 
 432      7FAE49FE 
 432      952F34C9 
 432      67183247 
 433 01ac 251C90E4 		.ascii	"%\034\220\344\212\211\177\303\231\350\006NC\223\374"
 433      8A897FC3 
 433      99E8064E 
 433      4393FC
 434 01bb 29863CA2 		.ascii	")\206<\242\304\220\3741M\314ir\306K5\311\277\177\212"
 434      C490FC31 
 434      4DCC6972 
 434      C64B35C9 
 434      BF7F8A
 435 01ce C9298783 		.ascii	"\311)\207\203\026\223z\213\303\261!\371\021\332\230"
 435      16937A8B 
 435      C3B121F9 
 435      11DA98
 436 01dd D3C6E40E 		.ascii	"\323\306\344\016\272:\330\336A\246\213L\206L\206\214"
 436      BA3AD8DE 
 436      41A68B4C 
 436      864C868C 
 437 01ed 21B39464 		.ascii	"!\263\224d\034\016\203\032;\206\344N\010'\204\263\017"
 437      1C0E831A 
 437      3B86E44E 
 437      082784B3 
 437      0F
 438 01fe 671F4E15 		.ascii	"g\037N\025\216!\371\256\003.E \311a\215\227\036\325"
 438      8E21F9AE 
 438      032E4520 
 438      C9618D97 
 438      1ED5
 439 0210 F82C4708 		.ascii	"\370,G\010\277E\330\220\031\212\336\325\314\217\022"
 439      BF45D890 
 439      198ADED5 
 439      CC8F12
 440 021f BEE7AED8 		.ascii	"\276\347\256\330\220\002y\307\010\037\243\375\204Ip"
 440      900279C7 
 440      081FA3FD 
 440      844970
 441 022e 82158614 		.ascii	"\202\025\206\024)>\301\013?p&\006\361>r\311?E\227!\371"
 441      293EC10B 
 441      3F702606 
 441      F13E72C9 
 441      3F459721 
 442 0243 7FF5145D 		.ascii	"\177\365\024]gp\316\340\304pb8\011\234\004\3169\234"
 442      6770CEE0 
 442      C4706238 
 442      099C04CE 
 442      399C
ARM GAS  /tmp/cc4BmMZ0.s 			page 35


 443 0255 73ECBAC0 		.ascii	"s\354\272\300\233A\222K,\275\3025\256\020\276F\370\032"
 443      9B41924B 
 443      2CBDC235 
 443      AE10BE46 
 443      F81A
 444 0267 D7B8C135 		.ascii	"\327\270\3015\032\270F\003\327h\"\334D{\212k\244X\221"
 444      1AB84603 
 444      D76822DC 
 444      447B8A6B 
 444      A45891
 445 027a E21A295E 		.ascii	"\342\032)^\330\3025@\2746\256\321\321d\212\242\016v"
 445      D8C23540 
 445      BC36AED1 
 445      D1648AA2 
 445      0E76
 446 028c 75B0AB8B 		.ascii	"u\260\253\213]]te\330\225aW\206]\031v\005u\336\005\342"
 446      5D5D7465 
 446      D8956157 
 446      865D1976 
 446      0575DE05 
 447 02a1 8575130E 		.ascii	"\205u\023\016\014\351\375\243\220\001\361\252\310T\221"
 447      0CE9FDA3 
 447      9001F1AA 
 447      C85491
 448 02b0 394006C4 		.ascii	"9@\006\304;\314\011\375\003\245Hj\000"
 448      3BCC09FD 
 448      03A5486A 
 448      00
 449              		.text
 450              		.section	.gnu.lto_.refs.67cf1c1dd1d6e29a,"",%progbits
 451 0000 789C6362 		.ascii	"x\234cb`b\230\317\000\001LLL\314L,\034@\014\205\314"
 451      606298CF 
 451      00014C4C 
 451      4CCC4C2C 
 451      1C400C85 
 452 0015 10C8CAC9 		.ascii	"\020\310\312\311\300\305\304\305\000\204L\334\346<0"
 452      C0C5C4C5 
 452      00844CDC 
 452      E63C30
 453 0024 51046400 		.ascii	"Q\004d\000B\004\013\301cBa\243\253\303/\0163\211\221"
 453      42040BC1 
 453      634261A3 
 453      ABC32F0E 
 453      338991
 454 0037 97890F08 		.ascii	"\227\211\017\010\231\230x\030\000\026\214\002\235"
 454      99987818 
 454      00168C02 
 454      9D
 455              		.text
 456              		.section	.gnu.lto_.decls.67cf1c1dd1d6e29a,"",%progbits
 457 0000 789CBD5C 		.ascii	"x\234\275\\{t\024U\232\257\252\356N\272I\014\017g\\"
 457      7B741455 
 457      9AAFAAEE 
 457      4EBA490C 
 457      0F675C
 458 0013 9C5189AE 		.ascii	"\234Q\211\2563;\3538\202\243\216zfwD\231U\3313\356z"
 458      333BEB38 
ARM GAS  /tmp/cc4BmMZ0.s 			page 36


 458      82A38E7A 
 458      66774499 
 458      55D933EE 
 459 0028 7C9CB3E7 		.ascii	"|\234\263\347\314q\333\242S@\306t\322\323]\341\261\373"
 459      CC71DBA2 
 459      5340C674 
 459      D2D35DE1 
 459      B1FB
 460 003a 8795F01C 		.ascii	"\207\225\360\034@\010\010\022^\022\3240\003\003\312"
 460      40080812 
 460      5E12D430 
 460      0303CA
 461 0049 43040449 		.ascii	"C\004\004I\011\222DD^\201\000\341\025@^3\203\020\202"
 461      09924444 
 461      5E8100E1 
 461      15405E33 
 461      831082
 462 005c 8420A1F7 		.ascii	"\204 \241\367\273\337\275U]U]\325]\025\234\355\223{"
 462      BBDFBD55 
 462      5D555DD5 
 462      5D159CED 
 462      937B
 463 006e EB76F5BD 		.ascii	"\353v\365\275\277\373\275\357\243nE\340\004\356Y?\307"
 463      BFFBBDEF 
 463      A36E45E0 
 463      04EE593F 
 463      C7
 464 007f 25E173FE 		.ascii	"%\341s\376\025\216\343{p\034\374q\277\342R\237\037@"
 464      158EE37B 
 464      701CFC71 
 464      BFE2529F 
 464      1F40
 465 0091 5A046931 		.ascii	"Z\004i1\244%\220\226A\232\314s\\-\244%\220\226A\372"
 465      A4259096 
 465      419ACC73 
 465      5C2DA425 
 465      909641FA 
 466 00a5 00D22A48 		.ascii	"\000\322*H\353 }\014i#\244M\2206C\372\014R=\244\035"
 466      EB207D0C 
 466      6923A44D 
 466      903643FA 
 466      0C523DA4 
 467 00ba 90F6403A 		.ascii	"\220\366@:\000\3510\244\343\220NC:\013\251\015R\007"
 467      00E930A4 
 467      E3904E43 
 467      3A0BA90D 
 467      5207
 468 00cc A41CC0EE 		.ascii	"\244\034\300\356\204k\201\300q\017C\332\004i+\244C\002"
 468      846B81C0 
 468      710F43DA 
 468      04692BA4 
 468      4302
 469 00de 67FA107A 		.ascii	"g\372\020z\002\220\232!\025@\312\207t\012\352\234f\365"
 469      02909A21 
 469      1540CA87 
 469      740AEA9C 
 469      66F5
ARM GAS  /tmp/cc4BmMZ0.s 			page 37


 470 00f0 0456E7AC 		.ascii	"\004V\347\254\245\035\307\370\310\326v\261C[\302\177"
 470      A51DC7F8 
 470      C8D676B1 
 470      435BC27F 
 471 0100 2EA436F8 		.ascii	".\2446\370m*\320\331\005\351\006$\001\276\277\017\367"
 471      6D2AD0D9 
 471      05E90624 
 471      01BEBF0F 
 471      F7
 472 0111 57F3B47D 		.ascii	"W\363\264}\037\310\374\002-\2236\253\330}\2157\343g"
 472      1FC8FC02 
 472      2D9336AB 
 472      D87D8D37 
 472      E367
 473 0123 19C37CDF 		.ascii	"\031\303|\337@\317N\250\363\016\\\327CZ\007\011\232"
 473      40CF4EA8 
 473      F30E5CD7 
 473      435A0709 
 473      9A
 474 0134 71E31806 		.ascii	"q\343\030\006\251\277\216\225'\302\365\222\005\217\350"
 474      A9BF8E95 
 474      27C2F592 
 474      058FE8
 475 0143 26CF82B7 		.ascii	"&\317\202\267\316\2029\215\247\364\267\303\275\345\014"
 475      CE82398D 
 475      A7F4B7C3 
 475      BDE50C
 476 0152 7F21643E 		.ascii	"\177!d>\326\236\340/c\262x\007\312\227-}\324v\263\217"
 476      D69EE02F 
 476      63B27807 
 476      CA972D7D 
 476      D476B38F 
 477 0166 05AC8F5A 		.ascii	"\005\254\217ZK\037\177\204\3627\226>\2260\0365L\362"
 477      4B1F7F84 
 477      F237963E 
 477      96301E35 
 477      4CF2
 478 0178 F1B3FB44 		.ascii	"\361\263\373D\267\033\231\255Y?\304\036{\301\265\301"
 478      B71B99AD 
 478      593FC41E 
 478      7BC1B5C1 
 479 0188 405BAE01 		.ascii	"@[\256\001G\205\364/P~\004\322\025H?\206\324\004\367"
 479      4785F42F 
 479      507E04D2 
 479      15483F86 
 479      D404F7
 480 019b 1A217540 		.ascii	"\032!u@\371*\244:\236\332\310/\241\374\024\244z(\377"
 480      F92AA43A 
 480      9EDAC82F 
 480      A1FC14A4 
 480      7A28FF
 481 01ae 06AE7B38 		.ascii	"\006\256{8z\177\031\263\353\315\314\316\0273>61\273"
 481      7A7F19B3 
 481      EBCDCCCE 
 481      17333E36 
 481      31BB
 482 01c0 357E886F 		.ascii	"5~\210o\334\303Q\333\326\350id\370\263\310\025\322\317"
ARM GAS  /tmp/cc4BmMZ0.s 			page 38


 482      DCC351DB 
 482      D6E86964 
 482      F8B3C815 
 482      D2CF
 483 01d2 F8147D9D 		.ascii	"\370\024}\235\314\266\246@\272\006\345\006\270~+P\036"
 483      CCB6A640 
 483      BA06E506 
 483      B87E2B50 
 483      1E
 484 01e3 2E41F93C 		.ascii	".A\371<\244\353\360\375\004Oe\334\005\345s\304\016\341"
 484      A4EBF0FD 
 484      044F65DC 
 484      05E573C4 
 484      0EE1
 485 01f5 7A10AE49 		.ascii	"z\020\256I\322?\010\231\207\324D\344\015\327#p\365\303"
 485      D23F0899 
 485      87D444E4 
 485      0DD72370 
 485      F5C3
 486 0207 752793FF 		.ascii	"u'\223\377<\270\316\2014\023ROF#\221\353d\346\253\313"
 486      3CB8CE81 
 486      3413524F 
 486      462391EB 
 486      64E6ABCB 
 487 021b 0C3E799A 		.ascii	"\014>y\232\371j-\363\325\003\314\217\0173\237\326\354"
 487      F96A2DF3 
 487      D503CC8F 
 487      0F339FD6 
 487      EC
 488 022c 3AE033F3 		.ascii	":\3403\363\335\217{[Qw\265\216;}R\230\243\250c\025\010"
 488      DD8F7B5B 
 488      5177B58E 
 488      3B7D5298 
 488      A3A86315 
 489 0241 310A5F78 		.ascii	"1\012_x\0337K\201O\315xE\341e\221\377\325\367\271\377"
 489      1B374B81 
 489      4FCD7845 
 489      E16591FF 
 489      D5F7B9FF 
 490 0255 E245BE20 		.ascii	"\342E\276 \304\025b!?\204:\3468\221\177\207\277\215"
 490      C4156221 
 490      3F843AE6 
 490      38917F87 
 490      BF8D
 491 0267 955E66C8 		.ascii	"\225^f\310\002\327\237\347\356\343\226@\373*Ey\347\256"
 491      02D79FE7 
 491      EEE39640 
 491      FB2A4579 
 491      E7AE
 492 0279 74DDC3E7 		.ascii	"t\335\303\347\307\\-\351@\371\223\342Cx\002\260\210"
 492      C75C2DE9 
 492      40F993E2 
 492      437802B0 
 492      88
 493 028a EF67AC22 		.ascii	"\357g\254\"\362\357\362&%QR\325\252c\371U\025\255\311"
 493      F2EFF226 
 493      255152D5 
ARM GAS  /tmp/cc4BmMZ0.s 			page 39


 493      AA63F955 
 493      15ADC9
 494 029d E4C29A5E 		.ascii	"\344\302\232^\264{\201\033\310C\355\367\370\3732\302"
 494      B47B811B 
 494      C843EDF7 
 494      F8FB32C2 
 495 02ad 2FB6C2FF 		.ascii	"/\266\302\377\321\016\276u}}\303n~\372\030\245Q\271"
 495      D10EBE75 
 495      7D7DC36E 
 495      7EFA18A5 
 495      51B9
 496 02bf 984CF6D4 		.ascii	"\230L\366\324\273(q\323\305\022k\027Km\273hkh\336\303"
 496      BB2871D3 
 496      C5126B17 
 496      4B6DBB68 
 496      6B68DEC3 
 497 02d3 CFD0BAA8 		.ascii	"\317\320\272\250\012\232\244\035\342&\262/\3176\202"
 497      0A9AA41D 
 497      E226B22F 
 497      CF3682
 498 02e2 21DAC9FD 		.ascii	"!\332\311\375G\334{ \333\326\216m\365\273\3711\320F"
 498      47DC7B20 
 498      DBD68E6D 
 498      F5BBF931 
 498      D046
 499 02f4 E4DFE743 		.ascii	"\344\337\347C@c\023o&\322=T\373\216\317V\362\225\010"
 499      4063136F 
 499      26D23D54 
 499      FB8ECF56 
 499      F29508
 500 0307 B512A13A 		.ascii	"\265\022\241:\272\015\225\334\271\3661E\011\212\374"
 500      BA0D95DC 
 500      B9F63145 
 500      098AFC
 501 0316 8708B45C 		.ascii	"\207\010\264\\0\003\211|N\310,#\370\256U h\360\225\364"
 501      3003897C 
 501      4EC82C23 
 501      F8AE5520 
 501      68F095F4 
 502 032a 74950C76 		.ascii	"t\225\014v\374\353\354\016\371\222\313\375\277\267s"
 502      FCEBEC0E 
 502      F992CBFD 
 502      BFB773
 503 0339 32FAE5CC 		.ascii	"2\372\345\314\350}\350V\020c')J%\023N\037n:\301+4\210"
 503      E87DE856 
 503      10632729 
 503      4A25134E 
 503      1F6E3AC1 
 504 0350 E955AD7D 		.ascii	"\351U\255}~JLm\0236\372PL\353\371>\200\262\326\"\246"
 504      7E4A4C6D 
 504      1336FA50 
 504      4CEBF93E 
 504      80B2D622 
 505 0365 6C2802B7 		.ascii	"l(\002\267\005[l\204\326\264\035\342*\352\301E|!\275"
 505      055B6C84 
 505      D6B41DE2 
 505      2AEAC145 
ARM GAS  /tmp/cc4BmMZ0.s 			page 40


 505      7C21BD
 506 0378 CD590CD6 		.ascii	"\315Y\014\326\360\271\233\253!u\017\235\012)3\362m\272"
 506      F0B99BAB 
 506      21750F9D 
 506      0A2933F2 
 506      6DBA
 507 038a 1AA87515 		.ascii	"\032\250u\025L\021\274\373\255\275\323\371\261h\"*\222"
 507      4C11BCFB 
 507      ADBDD3F9 
 507      B168222A 
 507      92
 508 039b 7CD59EE4 		.ascii	"|\325\236\344\232\201N@\0027\321G\232l\261\320\334\332"
 508      9A814E40 
 508      0237D147 
 508      9A6CB1D0 
 508      DCDA
 509 03ad DED251C9 		.ascii	"\336\322Q\311W \364\026\027\204W\252m\223\027\334\256"
 509      5720F416 
 509      178457AA 
 509      6D9317DC 
 509      AE
 510 03be D46CE66D 		.ascii	"\324l\346m\005?\361$\257\367\257\344h\004\274\232\342"
 510      053FF124 
 510      AFF7AFE4 
 510      6804BC9A 
 510      E2
 511 03cf 6457F313 		.ascii	"dW\363\023\212_\344\033\221\213O|\366\202wF\021\270"
 511      8A5FE41B 
 511      918B4F7C 
 511      F6827746 
 511      11B8
 512 03e1 7A6CF345 		.ascii	"zl\363E\032\033s\267\216al|\341\212\215\331S)\033\""
 512      1A1B73B7 
 512      8E616C7C 
 512      E18A8DD9 
 512      53291B22 
 513 03f5 DF00AC08 		.ascii	"\337\000\254\010\334.\035\327\316\360X\221~X\0053\336"
 513      DC2E1DD7 
 513      CEF05891 
 513      7E580533 
 513      DE
 514 0406 DC1DF955 		.ascii	"\334\035\371U\242\006\266\3373X\241\011l\341\216\371"
 514      A206B6DF 
 514      3358A109 
 514      6CE18EF9 
 515 0416 481C7A7E 		.ascii	"H\034z~\245\253x4\3513-\0365\241\357\037\365\331\004"
 515      A5AB7834 
 515      E9332D1E 
 515      35A1EF1F 
 515      F5D904
 516 0429 115750ED 		.ascii	"\021WP\355S\267~\312\342Q3B\235\3566Tr\332\306\307\321"
 516      53B77ECA 
 516      E2513342 
 516      9DEE3654 
 516      72DAC6C7 
 517 043e D10E22D0 		.ascii	"\321\016\"\320\005\2375\036\345Z\342Q\2569>\340\317"
 517      059F351E 
ARM GAS  /tmp/cc4BmMZ0.s 			page 41


 517      E55AE251 
 517      AE393EE0 
 517      CF
 518 044f AC40C242 		.ascii	"\254@\302BO\356\357\\]\340\256\271Q]\320\311\016\224"
 518      4FEEEF5C 
 518      5DE0AEB9 
 518      515DD0C9 
 518      0E94
 519 0461 D64B73B7 		.ascii	"\326Ks\267\373\310`\356\323\\2\307IF\002W\341'}\035"
 519      FBC860EE 
 519      D35C32C7 
 519      49460257 
 519      E1277D1D 
 520 0475 B5DAF2EA 		.ascii	"\265\332\362\352\023\215\377\\\255(\275\350O\331My\315"
 520      138DFF5C 
 520      AD28BDE8 
 520      4FD94D79 
 520      CD
 521 0486 B6D9CE1E 		.ascii	"\266\331\316\036i\350\275F\320\272\277\027\273_\205"
 521      69E8BD46 
 521      D0BABF17 
 521      BB5F85
 522 0495 DD9FB476 		.ascii	"\335\237\264v_\233\374\224G\245\235t\325\373\356=3\323"
 522      5F9BFC94 
 522      47A59D74 
 522      D5FBEE3D 
 522      33D3
 523 04a7 7B779CB6 		.ascii	"{w\234\2660\303X}\342\354\035\013\221\3053\3500\233"
 523      30C3587D 
 523      E2EC1D0B 
 523      91C533E8 
 523      309B
 524 04b9 FC56CB78 		.ascii	"\374V\313x\"\317\254;\370n\250 p\015:\361\335\362\327"
 524      22CFAC3B 
 524      F86EA820 
 524      700D3AF1 
 524      DDF2D7
 525 04cc D6DAA5DB 		.ascii	"\326\332\245\333p\322\345\323H\330\346\031\260\320$"
 525      70D2E5D3 
 525      48D8E619 
 525      B0D024
 526 04db 87BD7B30 		.ascii	"\207\275{0\000P\260/\335\2009ZQ\245\332l\004\333\345"
 526      0050B02F 
 526      DD80395A 
 526      51A5DA6C 
 526      04DBE5
 527 04ee 19CC4CD9 		.ascii	"\031\314L\331\001#X\223\033\260^\316\224\265\030\301"
 527      01235893 
 527      1BB05ECE 
 527      94B518C1 
 528 04fe 9A3D8399 		.ascii	"\232=\203\231);l\004;\350\006\254\2573eG\215`G<\203"
 528      293B6C04 
 528      3BE806AC 
 528      AF336547 
 528      8D60473C 
 529 0513 9929BB68 		.ascii	"\231)\273h\004;\356\006\254\320\2062\375\3434\2319\301"
 529      043BEE06 
ARM GAS  /tmp/cc4BmMZ0.s 			page 42


 529      ACD08632 
 529      FDE33499 
 529      39C1
 530 0525 EB662E70 		.ascii	"\353f.p_\351\341\300\243Is)\214\263~\257\341\313\304"
 530      5FE9E1C0 
 530      A3497329 
 530      8CB37EAF 
 530      E1CBC4
 531 0538 378CA35F 		.ascii	"7\214\243_\276\313\277\011\323\343\001\332X\366\265"
 531      BECBBF09 
 531      D3E301DA 
 531      58F6B5
 532 0547 1BC40C06 		.ascii	"\033\304\014\006\363\221q`\274\342\031\314\254\226\275"
 532      F3917160 
 532      BCE219CC 
 532      AC96BD
 533 0556 04CC1469 		.ascii	"\004\314\024i\330`\324Z\253\366\255N\205\272\240\206"
 533      D860D45A 
 533      ABF6AD4E 
 533      85BAA086 
 534 0566 4556BF34 		.ascii	"EV\2774\256\301zH\320++}\373\332\327\025\371\261\302"
 534      AEC17A48 
 534      D02B2B7D 
 534      FBDAD715 
 534      F9B1C2
 535 0579 8F201F27 		.ascii	"\217 \037'\204t*hY+%qAw\303o\263\256\246:\315\334\324"
 535      84742A68 
 535      592B2571 
 535      4177C36F 
 535      B3AEA63A 
 536 0590 C9122A05 		.ascii	"\311\022*\005\203%\214\011\270\020S\006W\270\350$&u"
 536      83258C09 
 536      B8105306 
 536      57B8E824 
 536      2675
 537 05a2 BC3291AF 		.ascii	"\2742\221\257XyG\306\331&\004\347;\227bp\236$\220a{"
 537      587947C6 
 537      D92604E7 
 537      3B976270 
 537      9E249061 
 538 05b7 52C076FC 		.ascii	"R\300v\374w\205\325>u\2476\231x\003\301fu\037\254&\271"
 538      7785D53E 
 538      75A73699 
 538      7803C166 
 538      751FAC26 
 539 05cc F30E3279 		.ascii	"\363\0162y\254B\240\267\003\326!#d\231L\204\314\303"
 539      AC42A0B7 
 539      03D62123 
 539      64994C84 
 539      CCC3
 540 05de 7D28942A 		.ascii	"}(\224*$\265\217Y\213\177\3276N\232\377\203Q\363K<k"
 540      24B58F59 
 540      8B7FD736 
 540      4E9AFF83 
 540      51F34B3C 
 541 05f3 DEE420AD 		.ascii	"\336\344 \255\227Z\216\372f+j\205\317`\352\031\375\202"
 541      975A8EFA 
ARM GAS  /tmp/cc4BmMZ0.s 			page 43


 541      662B6A85 
 541      CF60EA19 
 541      FD82
 542 0605 2C6537FD 		.ascii	",e7\375+\216\367\263P\256\037\332+\310\005P\373\324"
 542      2B8EF7B3 
 542      50AE1FDA 
 542      2BC80550 
 542      FBD4
 543 0617 E53F45A0 		.ascii	"\345?E\240j\004\372\244\333@\311io\323e\354<\004\332"
 543      6A04FAA4 
 543      DB40C969 
 543      6FD365EC 
 543      3C04DA
 544 062a 9AA669DE 		.ascii	"\232\246i\336\242i\336\254\001>\224*\244i\353;\254+"
 544      A269DEAC 
 544      013E942A 
 544      A469EB3B 
 544      AC2B
 545 063c 703BADEA 		.ascii	"p;\255\3522\261\223ad\320\302m\313Wo\362\355\225J\365"
 545      32B19361 
 545      64D0C26D 
 545      CB576FF2 
 545      ED954AF5 
 546 0650 000FFA9A 		.ascii	"\000\017\372\232\304\364U\203\322\331\237&\235j\301"
 546      C4F45583 
 546      D2D99F26 
 546      9D6AC1
 547 065f 9B7804EE 		.ascii	"\233x\004\356\230g6\202f6\346\236\351\006\033u\224\215"
 547      98673682 
 547      6636E69E 
 547      E9061B75 
 547      948D
 548 0671 5A64E3CC 		.ascii	"Zd\343\314w\300\306\005\317l\3642\260A\326\302\227g"
 548      77C0C605 
 548      CF6CF432 
 548      B041D6C2 
 548      9767
 549 0683 D2C1EF56 		.ascii	"\322\301\357VnF\346\311;n0\011\267\232\327\377\337\354"
 549      6E46E6C9 
 549      3B6E3009 
 549      B79AD7FF 
 549      DFEC
 550 0695 24EB7F72 		.ascii	"$\353\177r;\373\372\377\315=\206%\236\313-'}\211\267"
 550      3BFBFAFF 
 550      CD3D8625 
 550      9ECB2D27 
 550      7D89B7
 551 06a8 1C457625 		.ascii	"\034Ev%Md+\255\216\341a\277E\340\256#\036!\277;Sj\262"
 551      4D642BAD 
 551      8EE161BF 
 551      45E0AE23 
 551      1E21BF3B 
 552 06bf 06DF3E53 		.ascii	"\006\337>S\233;P\012\307\344\334\014b\245Z7C[\244?A"
 552      9B3B500A 
 552      C7E4DC0C 
 552      62A55A37 
 552      435BA43F 
ARM GAS  /tmp/cc4BmMZ0.s 			page 44


 553 06d4 660F536E 		.ascii	"f\017Sn\022\016\247\233\246a\321\262hit\210\273\372"
 553      120EA79B 
 553      A661D1B2 
 553      68697488 
 553      BBFA
 554 06e6 364CBD36 		.ascii	"6L\2756\230\255\025\010Ao\346X5\320\300[\326-\344\206"
 554      98AD1508 
 554      416FE658 
 554      35D0C05B 
 554      D62DE486 
 555 06fa A18A932D 		.ascii	"\241\212\223-}d\034\004\026\337\034\237\240\210c\357"
 555      7D641C04 
 555      16DF1C9F 
 555      A08863EF 
 556 070a 514558F8 		.ascii	"QEX\370\333\350\300\037\241`\243\221\202e7)\351\267"
 556      DBE8C01F 
 556      A160A391 
 556      82653729 
 556      E9B7
 557 071c 9BAC92B6 		.ascii	"\233\254\222\266Y\217*\274q\306'p\253\261SU\260\254"
 557      598F2ABC 
 557      71C62770 
 557      ABB15355 
 557      B0AC
 558 072e 473BDB1B 		.ascii	"G;\333\033'\260\255\035\362[v\327\372\006\267\326\264"
 558      27B0AD1D 
 558      F25B76D7 
 558      FA06B7D6 
 558      B4
 559 073f ADB2633A 		.ascii	"\255\262c:\252\335\314\";+\235\347>\347\021\216\316"
 559      AADDCC22 
 559      3B2B9DE7 
 559      3EE7118E 
 559      CE
 560 0750 60CF58E1 		.ascii	"`\317X\341<\256\354\256K\026\255d\025\0145>\365\340"
 560      3CAEECAE 
 560      4B16AD64 
 560      150C353E 
 560      F5E0
 561 0762 29125C3E 		.ascii	")\022\\>\027\010O\027\322\354\216J\306`w)1\212\374f"
 561      17084F17 
 561      D2EC8E4A 
 561      C6607729 
 561      318AFC66 
 562 0776 9CD26E11 		.ascii	"\234\322n\021\356\206|+\346\015\220\353\037'\213h4Z"
 562      EE867C2B 
 562      E60D90EB 
 562      1F278B68 
 562      345A
 563 0788 448767BE 		.ascii	"D\207g\276\013-\332q\352\246\316\330\315\215\2334\375"
 563      0B2DDA71 
 563      EAA6CED8 
 563      CD8D9B34 
 563      FD
 564 0799 4B2D17FC 		.ascii	"K-\027\374\270\254\367\260u\266m\253\026Wwb\324\032"
 564      B8ACF7B0 
 564      75B66DAB 
ARM GAS  /tmp/cc4BmMZ0.s 			page 45


 564      16577762 
 564      D41A
 565 07ab 976B956E 		.ascii	"\227k\225n\2635\256\272\331I\232\236\333MV\364\217\300"
 565      B335AEBA 
 565      D9499A9E 
 565      DB4D56F4 
 565      8FC0
 566 07bd 55E7BA98 		.ascii	"U\347\272\230\016\026\332H]\017\311\035,$g\335\216\322"
 566      0E16DA48 
 566      5D0FC91D 
 566      2C2467DD 
 566      8ED2
 567 07cf 62       		.ascii	"b"
 568 07d0 5CF3F60A 		.ascii	"\\\363\366\012\266\325\274\017mm\276E\032.\366\265\376"
 568      B6D5BC0F 
 568      6D6DBE45 
 568      1A2EF6B5 
 568      FE
 569 07e1 8C4D0E58 		.ascii	"\214M\016X\035\271}\356em\253\371\200\013G\256T\233"
 569      1DB97DEE 
 569      656DABF9 
 569      800B47AE 
 569      549B
 570 07f3 261BF768 		.ascii	"&\033\367hA=\274\300p\273+Q\223\022\017\030\\\244\005"
 570      413DBCC0 
 570      70BB2B51 
 570      93120F18 
 570      5CA405
 571 0806 5DE490D1 		.ascii	"]\344\220\321-\004n\203\033\351\377\304\311\030\025"
 571      2D046E83 
 571      1BE9FFC4 
 571      C91815
 572 0815 B5B3693E 		.ascii	"\265\263i>O\351\247\241h\253\025\317.\024\231\360L\332"
 572      4FE9A7A1 
 572      68AB15CF 
 572      2E1499F0 
 572      4CDA
 573 0827 54AB9A71 		.ascii	"T\253\232q)M\307\326]n\210\033\340\004V\251\316\247"
 573      294DC7D6 
 573      5D6E881B 
 573      E00456A9 
 573      CEA7
 574 0839 60D4E49B 		.ascii	"`\324\344\233\335\200=\346\304i\245\272\341-MSu80\036"
 574      DD803DE6 
 574      C469A5BA 
 574      E12D4D53 
 574      7538301E 
 575 084d F78C6726 		.ascii	"\367\214g&\256\251y>\303\243\273\331\177u\2037\320\231"
 575      AEA9793E 
 575      C3A3BBD9 
 575      7F758337 
 575      D099
 576 085f BEB6B74C 		.ascii	"\276\266\267L\023\211+\236\341\314\212\350j&\212\235"
 576      13892B9E 
 576      E1CC8AE8 
 576      6A268A9D 
 577 086f D2D7EE81 		.ascii	"\322\327\356\201\205\252\007o\262Lc^\325\225\274x;\015"
ARM GAS  /tmp/cc4BmMZ0.s 			page 46


 577      85AA076F 
 577      B24C635E 
 577      D595BC78 
 577      3B0D
 578 0881 317F41A7 		.ascii	"1\177A\247\252\011f\177\362a\006\"\006{\336\342Q\352"
 578      AA09667F 
 578      F2610622 
 578      067BDEE2 
 578      51EA
 579 0893 CAFA7CB2 		.ascii	"\312\372|\262 >\357\312\233V\327{~\250\260m#\235\242"
 579      203EEFCA 
 579      9B56D77B 
 579      7EA8B06D 
 579      239DA2
 580 08a6 5F442359 		.ascii	"_D#Y\035\374N\342\342\006\2049\357\335\213Y\210\357"
 580      1DFC4EE2 
 580      E2068439 
 580      EFDD8B59 
 580      88EF
 581 08b8 4AEEBA7D 		.ascii	"J\356\272}\375*E\371C\216F\230\352\031\321lm\037\325"
 581      FD2A45F9 
 581      438E4698 
 581      EA19D16C 
 581      6D1FD5
 582 08cb A32B50B0 		.ascii	"\243+P\260z7`\031\006\370u\004\314\313\203\233\006m"
 582      7A376019 
 582      06F87504 
 582      CCCB839B 
 582      066D
 583 08dd F4E9C4FE 		.ascii	"\364\351\304\376\277\370n\244\274\3073\033&\231\200"
 583      BFF86EA4 
 583      BCC7331B 
 583      269980
 584 08ec 94CFDEBE 		.ascii	"\224\317\336\276\376CEY\371\252\227\355\236\216I\237"
 584      FE434559 
 584      F9AA97ED 
 584      9E8E499F 
 585 08fc 508BB981 		.ascii	"P\213\271\201\274\354M\343\345\015\353\242\316\345\346"
 585      BCEC4DE3 
 585      E50DEBA2 
 585      CEE5E6
 586 090b 89C01DB1 		.ascii	"\211\300\035\2612d\027<\355\366!\355>F_\022\371\257"
 586      3264173C 
 586      EDF621ED 
 586      3E465F12 
 586      F9AF
 587 091d 31F85FC0 		.ascii	"1\370_\300\231\321e\314\257`~\025\363.\363\240p6h\211"
 587      99D165CC 
 587      AF607E15 
 587      F32EF3A0 
 587      70366889 
 588 0931 1D663F65 		.ascii	"\035f?e\305g]\023\222z\224)\362_\362\204\220\035<\351"
 588      C5675D13 
 588      927A9429 
 588      F25FF284 
 588      901D3CE9 
 589 0945 7617E67B 		.ascii	"v\027\346{0?\202y\027\346I\314+\220\264\211\230\317"
ARM GAS  /tmp/cc4BmMZ0.s 			page 47


 589      303F8279 
 589      17E649CC 
 589      2B90B489 
 589      98CF
 590 0957 C47C21E6 		.ascii	"\304|!\346\357a\276\004\363\275\230\037\301\374\030"
 590      EF61BE04 
 590      F3BD981F 
 590      C1FC18
 591 0966 E6C7313F 		.ascii	"\346\3071?\211\371)\314\317`~\316\315t\320\262\222\321"
 591      89F929CC 
 591      CF607ECE 
 591      CD74D0B2 
 591      92D1
 592 0978 86E32DDD 		.ascii	"\206\343-\335~\004\323\336r\375\035\343^\263\310\357"
 592      7E04D3DE 
 592      72FD1DE3 
 592      5EB3C8EF 
 593 0988 F68C5898 		.ascii	"\366\214X\230I\264[\014\242\335\212\242\255G\341\215"
 593      49B45B0C 
 593      A2DD8AA2 
 593      AD47E18D 
 594 0998 F199347A 		.ascii	"\361\2314z1\250=\315\357\316\012AimkX\3738{\224D\317"
 594      31A83DCD 
 594      EFCE0A41 
 594      696D6B58 
 594      FB387B94 
 595 09ae 825CB502 		.ascii	"\202\\\265\002\272\015!\366ll4\260\261\011\331\250C"
 595      BA0D21F6 
 595      6C6C34B0 
 595      B109D9A8 
 595      43
 596 09bf 36C6F95C 		.ascii	"6\306\371\\hm]jA\232:&\204l\337\2608\347\275\334\273"
 596      686D5D6A 
 596      419A3A26 
 596      846CDFB0 
 596      38E7BDDC 
 597 09d4 8A32433D 		.ascii	"\2122C=\264m\015\014\023\002m)p\323B\244\3262\276\237"
 597      B46D0D0C 
 597      13026D29 
 597      70D342A4 
 597      D632BE9F 
 598 09e8 6D0F3A3E 		.ascii	"m\017:>;\221s\350\253\347\237\245R\3402\264b\324L\360"
 598      3B9173E8 
 598      ABE79FA5 
 598      52E032B4 
 598      62D44CF0 
 599 09fc D91DD0D9 		.ascii	"\331\035\320\331\273\264\355\247\316\247\241\010\264"
 599      BBB4EDA7 
 599      CEA7A108 
 599      B4
 600 0a09 13AB537C 		.ascii	"\023\253S|\236N\206\250\372\343P2\345b\253\254\331\365"
 600      9E4E86A8 
 600      FAE35032 
 600      E562ABAC 
 600      D9F5
 601 0a1b 649535CD 		.ascii	"d\2255\315G\006\351u\241\254\347B\314\030\204\210\031"
 601      4706E975 
ARM GAS  /tmp/cc4BmMZ0.s 			page 48


 601      A1ACE742 
 601      CC188488 
 601      19
 602 0a2c 3ECB18DD 		.ascii	">\313\030\335&\025\322\273\331G\350v\272\324\264,\332"
 602      2615D2BB 
 602      D947E876 
 602      BAD4B42C 
 602      DA
 603 0a3d C974CF89 		.ascii	"\311t\317\211\345Y>\303\332i3\322K\272\352\226?\252"
 603      E5593EC3 
 603      DA6933D2 
 603      4BBAEA96 
 603      3FAA
 604 0a4f 5724E289 		.ascii	"W$\342\211\004R\340\266{\306*4a]3`5\271\301\312\262"
 604      0452E0B6 
 604      7BC62A34 
 604      615D3360 
 604      35B9C1CA 
 605 0a64 64D6B00E 		.ascii	"d\326\260\016{\3062\322\245\250I\2667@O\376\234\262"
 605      7BC632D2 
 605      A5A849B6 
 605      37404FFE 
 605      9CB2
 606 0a76 A2BDAA41 		.ascii	"\242\275\252A\344\247\320\034\237m)\352\214\247\311"
 606      E4A7D01C 
 606      9F6D29EA 
 606      8CA7C9
 607 0a85 BC81625D 		.ascii	"\274\201b]t\203e\267so\3671\332\221\310\277\351#N?\323"
 607      748365B7 
 607      736FF731 
 607      DA91C8BF 
 607      E9234E3F 
 608 0a9a 479C7E36 		.ascii	"G\234~6\346s0\237\207\371\002\314\027\272\011\006S}"
 608      E673309F 
 608      87F902CC 
 608      17BA0906 
 608      537D
 609 0aac 4EC1E07A 		.ascii	"N\301\340z\3106\030tMb\301`*J\177j\017Rk\262\317)\030"
 609      C8361874 
 609      4D62C160 
 609      2A4A7F6A 
 609      0F526BB2 
 610 0ac3 307CDB60 		.ascii	"0|\333`\340\324\212Q\263\310.\030\250{\2760\2347$\376"
 610      E0D48A51 
 610      B3C82E18 
 610      A87BBE30 
 610      9C3724FE 
 611 0ad7 2D70337A 		.ascii	"-p3z\330Q\252\354\223\236\245\375\213\374\273>2\212"
 611      D851AAEC 
 611      939EA5FD 
 611      8BFCBB3E 
 611      328A
 612 0ae9 D4768B4A 		.ascii	"\324v\213J\247V\214\312\305\266!k\316\352\335\277]F"
 612      A7568CCA 
 612      C5B6216B 
 612      CEEADDBF 
 612      5D46
ARM GAS  /tmp/cc4BmMZ0.s 			page 49


 613 0afb 66A4CA8D 		.ascii	"f\244\312\215\344\353\025\225\274vn\261\301B\252\303"
 613      E4EB1595 
 613      BC766EB1 
 613      C142AAC3 
 614 0b0b C1459FF5 		.ascii	"\301E\237\365\340\242\255(\346\357O;z\271\333\025\376"
 614      E0A2AD28 
 614      E6EF4F3B 
 614      7AB9DB15 
 614      FE
 615 0b1c 322BFE72 		.ascii	"2+\376r[&\326\217\337aw\366\362\210\253>>\260\366\261"
 615      5B26D68F 
 615      DF6177F6 
 615      F288AB3E 
 615      3EB0F6B1 
 616 0b30 22BD8FD6 		.ascii	"\"\275\217\326\252\326}K\333\356\254^\245\214EA\361"
 616      AAD67D4B 
 616      DBEEAC5E 
 616      A58C4541 
 616      F1
 617 0b41 EE0FBAAE 		.ascii	"\356\017\272\2566Gv\252B\375\013\013\202\372w\252K\253"
 617      364776AA 
 617      42FD0B0B 
 617      82FA77AA 
 617      4BAB
 618 0b53 85FF358D 		.ascii	"\205\3775\215\021Zi\255-\245\227\327\266\375r\216\262"
 618      115A69AD 
 618      2DA597D7 
 618      B6FD728E 
 618      B2
 619 0b64 998C42AF 		.ascii	"\231\214B\257s\232,\026\346\331C\254\267\203P/\356\230"
 619      739A2C16 
 619      E6D943AC 
 619      B783502F 
 619      EE98
 620 0b76 A2F0A8B2 		.ascii	"\242\360\250\262~\032\300\012\007\200\015\2664Tm\352"
 620      7E1AC00A 
 620      07800DB6 
 620      34546DEA 
 621 0b86 BC3D8D86 		.ascii	"\274=\215\206S\016\020\237\330BT\257n\373w\035\302\275"
 621      530E109F 
 621      D84254AF 
 621      6EFB771D 
 621      C2BD
 622 0b98 BCEBACF2 		.ascii	"\274\353\254\362&O\247-\362\034\223oO\310\247\016\274"
 622      264FA72D 
 622      F21C936F 
 622      4FC8A70E 
 622      BC
 623 0ba9 7CFA8334 		.ascii	"|\372\2034^\336p\200\330\342\240\222\317\323U\262\324"
 623      5EDE7080 
 623      D8E2A092 
 623      CFD355B2 
 623      D4
 624 0bba 0162AB2D 		.ascii	"\001b\253-\304\325\223\273\177h/\216 7\001\237[\215"
 624      C4D593BB 
 624      7F682F8E 
 624      2037019F 
ARM GAS  /tmp/cc4BmMZ0.s 			page 50


 624      5B8D
 625 0bcc 532AF8DF 		.ascii	"S*\370\337\353\001\324\341\030\201\3107\372\202\320"
 625      EB01D4E1 
 625      1881C837 
 625      FA82D0
 626 0bdb F9817CC7 		.ascii	"\371\201|\307C\000\244\002\371\220\366\264\254\2252"
 626      4300A402 
 626      F990F6B4 
 626      AC9532
 627 0bea 3C096EB0 		.ascii	"<\011n\260\212=\020J\225\031\242E\013G\035\370\377\322"
 627      8A3D104A 
 627      9519A245 
 627      0B471DF8 
 627      FFD2
 628 0bfc 96FFBD4B 		.ascii	"\226\377\275K;\357\354\2069\354\264s?\253{9\020\262"
 628      3BEFEC86 
 628      39ECB473 
 628      3FAB7B39 
 628      10B2
 629 0c0e DB411107 		.ascii	"\333A\021\007\035\024A\031u\242\244\311YB\226Y\323\270"
 629      1D144119 
 629      75A2A4C9 
 629      59429659 
 629      D3B8
 630 0c20 0CB3A666 		.ascii	"\014\263\246f_\236\211F\023#\33780\262\337\336\311\353"
 630      5F9E8946 
 630      1323DF38 
 630      30B2DFDE 
 630      C9EB
 631 0c32 7527772F 		.ascii	"u'w/\317\203V.\010\261\0262&\337bO\306!\207\300\372"
 631      CF83562E 
 631      08B11632 
 631      26DF624F 
 631      C62187C0 
 632 0c47 79BF394E 		.ascii	"y\2779N\2015\323\004\362\210\233\310j!m\236\003i\255"
 632      8135D304 
 632      F2889BC8 
 632      6A216D9E 
 632      0369AD
 633 0c5a B6123ADC 		.ascii	"\266\022:\334\340$\241Lt\235\310H\327r\301.\302/v\240"
 633      E024A14C 
 633      749DC848 
 633      D772C12E 
 633      C22F76A0 
 634 0c6e EB942D5D 		.ascii	"\353\224-]\315\015\206\360|\002\247\026k\034\000\316"
 634      CD0D86F0 
 634      7C02A716 
 634      6B1C00CE 
 635 0c7e D8021CED 		.ascii	"\330\002\034\355\026c\347<\014e\356w\221v7\257\271\017"
 635      1663E73C 
 635      0C65EE77 
 635      917637AF 
 635      B90F
 636 0c90 F75DCEFB 		.ascii	"\367]\316\373\310\002\264\316\302H\267\366\220\322\005"
 636      C802B4CE 
 636      C248B7F6 
 636      90D205
ARM GAS  /tmp/cc4BmMZ0.s 			page 51


 637 0c9f FCB9837C 		.ascii	"\374\271\203|.:\331\344]\335\262\311Knt\257\177'\034"
 637      2E3AD9E4 
 637      5DDDB2C9 
 637      4B6E74AF 
 637      7F271C
 638 0cb2 A793DAE4 		.ascii	"\247\223\332\344@\352\025[U\0360\332\302%\264\205\303"
 638      40EA155B 
 638      551E30DA 
 638      C225B485 
 638      C3
 639 0cc3 0E0057CD 		.ascii	"\016\000W\315\000\367p\213\350\344iS\337\012\262hU\256"
 639      00F7708B 
 639      E8E46953 
 639      DF0AB268 
 639      55AE
 640 0cd5 27933CAF 		.ascii	"'\223<\257\255 \377\242\2038\256\027\2571\274\207\271"
 640      AD20FFA2 
 640      8338AE17 
 640      AF31BC87 
 640      B9
 641 0ce6 D5CA44F5 		.ascii	"\325\312D\365U\332\222N\366\377\227\273\246\004Ma\255"
 641      55DA924E 
 641      F6FF97BB 
 641      A6044D61 
 641      AD
 642 0cf7 3757A56D 		.ascii	"7W\245m\023\323\303Y\032\354m\032,{%O\344o\370zs\272"
 642      13D3C359 
 642      1AEC6D1A 
 642      2C7B254F 
 642      E46FF87A 
 643 0d0d 0D297A58 		.ascii	"\015)zX\314w\026{\322\227:\267\226\037J\025\356g\254"
 643      CC77167B 
 643      D2973AB7 
 643      961F4A15 
 643      EE67AC
 644 0d20 3AB5EB4A 		.ascii	":\265\353JE\323\237r\367\321\236\241`\273\245\035\323"
 644      45D39F72 
 644      F7D19EA1 
 644      60BBA51D 
 644      D3
 645 0d31 1A4F2C60 		.ascii	"\032O,`\255+\375\326\307\275'\217\367\245\373\241\344"
 645      AD2BFDD6 
 645      C7BD278F 
 645      F7A5FBA1 
 645      E4
 646 0d42 A7EC4F7B 		.ascii	"\247\354O{\347\325\367PN\250<\355W\340\276F\221\223"
 646      E7D5F750 
 646      4EA83CED 
 646      57E0BE46 
 646      9193
 647 0d54 A6F6B2C9 		.ascii	"\246\366\262\311\272\235\243\316\177\272j|\276\006\327"
 647      BA9DA3CE 
 647      7FBA6A7C 
 647      BE06D7
 648 0d63 E60E8E89 		.ascii	"\346\016\216\211\335\026\357m#\336ewx\273\002\316x+"
 648      DD16EF6D 
 648      23DE6577 
ARM GAS  /tmp/cc4BmMZ0.s 			page 52


 648      78BB02CE 
 648      782B
 649 0d75 8C781DEE 		.ascii	"\214x\035\356\360\3269\237XWW\031\361\256\271\303\253"
 649      F0D6399F 
 649      58575719 
 649      F1AEB9C3 
 649      AB
 650 0d86 C9B3C133 		.ascii	"\311\263\30139\005x\325\312/\026\360\312\242)\240S\360"
 650      390578D5 
 650      CA2F16F0 
 650      CAA229A0 
 650      53F0
 651 0d98 2B76A226 		.ascii	"+v\242&\2239\010\\\027\366>\315o9W3\273\336WHog7\207"
 651      9339085C 
 651      17F63ECD 
 651      6F395733 
 651      BBDE5748 
 652 0db0 359A3910 		.ascii	"5\2329\020\036\004nR\201\206h\337gvsX[\377\006\257\264"
 652      1E046E52 
 652      818668DF 
 652      67767358 
 652      5BFF06AF 
 653 0dc5 AABCE67B 		.ascii	"\252\274\346{\325\005\364h\222\263I\317\362{u\275\267"
 653      D505F468 
 653      92B349CF 
 653      F27B75BD 
 653      B7
 654 0dd6 FCF6AE37 		.ascii	"\374\366\2567\241\200\321\002s\345\3563\242\177\004"
 654      A180D102 
 654      73E5EE33 
 654      A27F04
 655 0de5 6E668135 		.ascii	"nf\2015 \245\223_\355\327#\234\310\317\360\337\255\025"
 655      20A5935F 
 655      EDD7239C 
 655      C8CFF0DF 
 655      AD15
 656 0df7 C7FA533B 		.ascii	"\307\372S;\014t\037\342\327\334\026e\242\202\301\217"
 656      0C741FE2 
 656      D7DC1665 
 656      A282C18F 
 657 0e07 0E5D18B1 		.ascii	"\016]\030\261hD0\206\002\315\313\247\372\357q\206dd"
 657      68443086 
 657      02CDCBA7 
 657      FAEF7186 
 657      6464
 658 0e19 7C8FFE32 		.ascii	"|\217\3762G\213\177\335D\243\233#7\207@6VhX.\244\233"
 658      478B7FDD 
 658      44A39B23 
 658      37874036 
 658      5668582E 
 659 0e2f 3C74E355 		.ascii	"<t\343U\277\245\342-\262\245\234\036\251\351\257N\372"
 659      BFA5E22D 
 659      B2A59C1E 
 659      A9E9AF4E 
 659      FA
 660 0e40 5EEC3787 		.ascii	"^\3547\207LR\027\013\264\227N\337=\254{V\237t\233\242"
 660      4C52170B 
ARM GAS  /tmp/cc4BmMZ0.s 			page 53


 660      B4974EDF 
 660      3DAC7B56 
 660      9F749BA2 
 661 0e54 6B4C8A33 		.ascii	"kL\2123\002\344\031\201\243[\307\204\246\0346v.\364"
 661      02E41981 
 661      A35BC784 
 661      A61C3676 
 661      2EF4
 662 0e66 C66AB68E 		.ascii	"\306j\266\216\027\3364\351\016\010f\3221H\322`\323\332"
 662      17DE34E9 
 662      0E0866D2 
 662      3148D260 
 662      D3DA
 663 0e78 DEB2BDEF 		.ascii	"\336\262\275\357\262Je\354J\360\270$\237|\302v\370y"
 663      B24A65EC 
 663      4AF0B824 
 663      9F7CC276 
 663      F879
 664 0e8a 4553C401 		.ascii	"ES\304\001\"\177\375T\327\345E\354\011\334\032\214\031"
 664      227FFD54 
 664      D7E545EC 
 664      09DC1A8C 
 664      19
 665 0e9b 730ACC43 		.ascii	"s\012\314C\277\013(\201\253\305F\353\254\243Y\373\334"
 665      BF0B2881 
 665      ABC546EB 
 665      ACA359FB 
 665      DC
 666 0eac ADDAE1A5 		.ascii	"\255\332\341\245u\256\206\263\005G\351\231\001\233\315"
 666      75AE86B3 
 666      0547E999 
 666      019BCD
 667 0ebb E656FD41 		.ascii	"\346V\375A\323\035\006\352\233\367\037g\324oD\352?p"
 667      D31D06EA 
 667      9BF71F67 
 667      D46F44EA 
 667      3F70
 668 0ecd A0DE1148 		.ascii	"\240\336\021H\3406b\223\272t\332\367\216g\264\327\271"
 668      E0366293 
 668      BA74DAF7 
 668      8E67B4D7 
 668      B9
 669 0ede A2BDA9C5 		.ascii	"\242\275\251\305|\336a\233\216\313:\366\364`\245R\335"
 669      7CDE619B 
 669      8ECB3AF6 
 669      F460A552 
 669      DD
 670 0eef DB82CF65 		.ascii	"\333\202\317e\351\021\200=V0O\273\310\212z\200\202\035"
 670      E911803D 
 670      56304FBB 
 670      C88A7A80 
 670      821D
 671 0f01 45CA0E7A 		.ascii	"E\312\016z\006+4Qvl\256\371\355\301cn\3602\274$q\261"
 671      062B3451 
 671      766CAEF9 
 671      EDC1636E 
 671      F032BC24 
ARM GAS  /tmp/cc4BmMZ0.s 			page 54


 672 0f17 C5F092C4 		.ascii	"\305\360\222\304\031\317`f\342\256\030\301.\270\001"
 672      19CF6066 
 672      E2AE18C1 
 672      2EB801
 673 0f26 B37B95C0 		.ascii	"\263{\225\300\356c4\022\221\377\324O\266\2457\373\311"
 673      EE633412 
 673      91FFD44F 
 673      B6A537FB 
 673      C9
 674 0f37 F6F36798 		.ascii	"\366\363g\230\327c\336\210\3716\314\267\033\"*P\323"
 674      D763DE88 
 674      F936CCB7 
 674      1B222A50 
 674      D3
 675 0f48 A97B89AD 		.ascii	"\251{\211\255)f\037\215\3278\273\207\335\2519p\3563"
 675      29661F8D 
 675      D738BB87 
 675      DDA93970 
 675      EE33
 676 0f5a 15FC38B4 		.ascii	"\025\3748\264\341]\350\036\311\354\356a=\2278\253'i"
 676      E15DE81E 
 676      C9ECEE61 
 676      3D9738AB 
 676      2769
 677 0f6c D294E61E 		.ascii	"\322\224\346\036-]\343\230{4\271p\217J\265sv\2067g\215"
 677      2D5DE398 
 677      7B34B970 
 677      8F4AB573 
 677      76863767 
 678 0f81 EFE9E9FD 		.ascii	"\357\351\351\375\177\317\300H\363W\332+\300\007\220"
 678      7FCFC048 
 678      F357DA2B 
 678      C00790
 679 0f90 91653DB3 		.ascii	"\221e=\2632b\006\002?\307&\207\322\0319\257"
 679      32620602 
 679      3FC72687 
 679      D21939AF 
 680 0fa0 3172C815 		.ascii	"1r\310\025#\353gk\326\277\337\217o\273\351\270\031l"
 680      23EB676B 
 680      D6BFDF8F 
 680      6FBBE9B8 
 680      196C
 681 0fb2 CC51A995 		.ascii	"\314Q\251\225\352\307\373\321`)\330>\317`f\353\377d"
 681      EAC7FBD1 
 681      6029D83E 
 681      CF6066EB 
 681      FF64
 682 0fc4 BF767488 		.ascii	"\277vt\210\256\205\217\270\301\313\360\364i\323~\353"
 682      AE858FB8 
 682      C1CBF0F4 
 682      69D37EEB 
 683 0fd4 5156F71B 		.ascii	"QV\367\033=\247\375\226\225\354\023\226}\263LK\372\267"
 683      3DA7FD96 
 683      95EC1396 
 683      7DB34C4B 
 683      FAB7
 684 0fe6 8E56B0C3 		.ascii	"\216V\260\303\306\247P0\247-\012\267\3147H_Nt\374\305"
ARM GAS  /tmp/cc4BmMZ0.s 			page 55


 684      C6A75030 
 684      A72D0AB7 
 684      CC37485F 
 684      4E74FCC5 
 685 0ffa 9FE7A0D4 		.ascii	"\237\347\240\324\264\337"
 685      B4DF
 686 1000 20627816 		.ascii	" bx\026\230I\001\344\024}\255\366X\037O[u\270\001t\177"
 686      984901E4 
 686      147DADF6 
 686      581F4F5B 
 686      75B80174 
 687 1015 72E39021 		.ascii	"r\343\220!\004\035\301\020t\024CM+\346'0\377\012\363"
 687      041DC110 
 687      7414434D 
 687      2BE62730 
 687      FF0AF3
 688 1028 BF19838F 		.ascii	"\277\031\203\217\223l\366\373\015\317\304\216\371\005"
 688      936CF6FB 
 688      0DCFC48E 
 688      F905
 689 1036 E6EADDB3 		.ascii	"\346\352\335\263\344\353)K\026\371\343\236\301L\202"
 689      E4EB294B 
 689      16F9E39E 
 689      C14C82
 690 1045 54A7B718 		.ascii	"T\247\267\030-Y\344O\272\301\313`\311+\350\270@\335"
 690      2D59E44F 
 690      BAC1CB60 
 690      C92BE8B8 
 690      40DD
 691 1057 E2861ED4 		.ascii	"\342\206\036\324<j\331^)M\006\245\354C\2454\243\012"
 691      3C6AD95E 
 691      294D06A5 
 691      EC43A534 
 691      A30A
 692 1069 BEC6FC02 		.ascii	"\276\306\374\002\346\027\315c\301\244^\226\261\300\034"
 692      E617CD63 
 692      C1A45E96 
 692      B1C01C
 693 1078 77ED8626 		.ascii	"w\355\206&\243|\024u\343\177W\211vQ\357I\255\355L\343"
 693      A37C1475 
 693      E37F5789 
 693      7651EF49 
 693      ADED4CE3 
 694 108c BF50683E 		.ascii	"\277Ph>\257\235k\275\214\361sz\257\354\361\323\214$"
 694      AF9D6BBD 
 694      8CF1737A 
 694      AFECF1D3 
 694      8C24
 695 109e 7035D8A6 		.ascii	"p5\330\246#}\242tJ\233(ud\017\240c\307\250k\346-N\215"
 695      237DA274 
 695      4A9B2875 
 695      640FA063 
 695      C7A86BE6 
 696 10b5 04637417 		.ascii	"\004ct\027\036\223aS\314\364~\340\012\235\216\356\230"
 696      1E936153 
 696      CCF47EE0 
 696      0A9D8EEE 
ARM GAS  /tmp/cc4BmMZ0.s 			page 56


 696      98
 697 10c6 A9A2D61D 		.ascii	"\251\242\326\035\322,\213\036X\371\3303\236Y\023\315"
 697      D22C8B1E 
 697      58F9D833 
 697      9E5913CD 
 698 10d6 87D0B228 		.ascii	"\207\320\262(\330f7`\031&j\227~k\253VU\237<N4\250\365"
 698      D8663760 
 698      19266A97 
 698      7E6BAB56 
 698      559F3C4E 
 699 10ed 9BB5C7EF 		.ascii	"\233\265\307\357b\273E\001\242\325/\262k\325\002\204"
 699      62BB4501 
 699      A2D52FB2 
 699      6BD50284 
 700 10fd 6B8A80E5 		.ascii	"k\212\200\345\320\306\302\006<XI\356g\037\016\3276h"
 700      D0C6C206 
 700      3C5849EE 
 700      671F0ED7 
 700      3668
 701 110f D20CE080 		.ascii	"\322\014\340\200\203$\220\246\335\213!u\023\334M\023"
 701      832490A6 
 701      DD8B2175 
 701      13DC4D13 
 702 111f 6CDF1298 		.ascii	"l\337\022\230\325@\316\257LFY\234\312.\0133\006\356"
 702      D540CEAF 
 702      4C46599C 
 702      CA2E0B33 
 702      06EE
 703 1131 B55A45D1 		.ascii	"\265ZE\321D\317\230Nu%\212C\365\346\301\3672\2220\265"
 703      44CF984E 
 703      75258A43 
 703      F5E6C1F7 
 703      329230B5 
 704 1145 DBB2681F 		.ascii	"\333\262h\037o\236g_\367\214Wh\302\273FOz\342\260T\331"
 704      6F9E675F 
 704      F78C5768 
 704      C2BB464F 
 704      7AE2B054 
 705 115a DB055686 		.ascii	"\333\005V\206p\372f\303\374\177 \033C\332\373\216S\254"
 705      70FA66C3 
 705      FC7F201B 
 705      43DAFB8E 
 705      53AC
 706 116c 78766F9F 		.ascii	"xvo\237\271\217\250)E\210\374\264\000\211\250U\001\022"
 706      B98FA829 
 706      4588FCB4 
 706      0089A855 
 706      0112
 707 117e 4567603E 		.ascii	"Eg`>\023\363\267\002.\006\270I\001C\344\230\325\333"
 707      13F3B702 
 707      2E06B849 
 707      0143E498 
 707      D5DB
 708 1190 AB711A05 		.ascii	"\253q\032\005\010\236\376L\225\250\355\204\221\2205"
 708      089EFE4C 
 708      95A8ED84 
 708      919035
ARM GAS  /tmp/cc4BmMZ0.s 			page 57


 709 119f 3985A4E8 		.ascii	"9\205\244\350~\245h~57\340u'l^\300~'\354\011\235\203"
 709      7EA5687E 
 709      3537E075 
 709      276C5EC0 
 709      7E27EC09 
 710 11b5 F9560E2C 		.ascii	"\371V\016,\375fP\234\275\240\307\031\004=\036\005=\001"
 710      FD66509C 
 710      BDA0C719 
 710      043D1E05 
 710      3D01
 711 11c7 85FB07CC 		.ascii	"\205\373\007\314\347\004L\203\326\342\336\226\340f\211"
 711      E7044C83 
 711      D6E2DE96 
 711      E06689
 712 11d6 269ED5DC 		.ascii	"&\236\325\334a\0308;q\340\274\206\203e\027\346I\314"
 712      6118383B 
 712      71E0BC86 
 712      836517E6 
 712      49CC
 713 11e8 2BCC34AC 		.ascii	"+\3144\254\356m\0318-\343\024+;\277H\320zi\356\276\334"
 713      EE6D1938 
 713      2DE3142B 
 713      3BBF48D0 
 713      7A69EEBE 
 714 11fd 0A45AD1E 		.ascii	"\012E\255\036\240\375'\236\265VH\363\277\335aE5C\324"
 714      A0FD279E 
 714      B55648F3 
 714      BFDD6145 
 714      3543D4
 715 1210 3E7A345F 		.ascii	">z4_\017\333Y_2\351J\236}\024\037W\275\203\201jso\333"
 715      0FDB595F 
 715      32E94A9E 
 715      7D141F57 
 715      BD83816A 
 716 1227 4095F9ED 		.ascii	"@\225\371\355\313Zk\240\302\203v\265\256\302T\347)\366"
 716      CB5A6BA0 
 716      C28376B5 
 716      AEC254E7 
 716      29F6
 717 1239 4E173DF2 		.ascii	"N\027=\362\335\204\375\327z\217R\366*\2555\030\324b"
 717      DD84FDD7 
 717      7A8F52F6 
 717      2AAD3518 
 717      D462
 718 124b 34A83F9A 		.ascii	"4\250?\232\025\330b\225\266]\1775)G\260\012\233\274"
 718      15D86295 
 718      B65D7F35 
 718      2947B00A 
 718      9BBC
 719 125d E54DF567 		.ascii	"\345M\365g\2735\345\323 \036KI|\372\246N*\361?\243\304"
 719      BB35E5D3 
 719      201E4B49 
 719      7CFAA64E 
 719      2AF13FA3 
 720 1272 8FD84B3C 		.ascii	"\217\330K<\003\016\036\254\261\025\371\373\256D\336"
 720      030E1EAC 
 720      B115F9FB 
ARM GAS  /tmp/cc4BmMZ0.s 			page 58


 720      AE44DE
 721 1281 AE899C9E 		.ascii	"\256\211\234\236r\377\033\022\360~\267\007\206\313x"
 721      72FF1B12 
 721      F07EB707 
 721      86CB78
 722 1290 2690625D 		.ascii	"&\220b]\362\214Uh\224\246z%0qL\216\366f\306\267V0\333"
 722      F28C5568 
 722      94A67A25 
 722      30714C8E 
 722      F666C6B7 
 723 12a7 E3DD191C 		.ascii	"\343\335\031\034\341\232\021m|\0377h\205\256M\353}\203"
 723      E19A116D 
 723      7C1F3768 
 723      85AE4DEB 
 723      7D83
 724 12b9 697D80A6 		.ascii	"i}\200\246\265\002\243\324*\314?\304\374#\263\261M\357"
 724      B502A3D4 
 724      2ACC3FC4 
 724      FC23B3B1 
 724      4DEF
 725 12cb 633136B3 		.ascii	"c16\263^Y\361O\031\254\255\275\345\324\243hm\216\217"
 725      5E59F14F 
 725      19ACADBD 
 725      E5D4A368 
 725      6D8E8F
 726 12de 1F7B6A30 		.ascii	"\037{j0WyF\350\307\236#\377\006\207\310\177\227\316"
 726      577946E8 
 726      C79E23FF 
 726      0687C87F 
 726      97CE
 727 12f0 C9DB699C 		.ascii	"\311\333i\234\230\373e\345V;V\354\305\271\316\020|?"
 727      98FB65E5 
 727      563B56EC 
 727      C5B9CE10 
 727      7C3F
 728 1302 C6E0BB01 		.ascii	"\306\340\273\001\003\356N\314\3331_\210B]\204\371R\314"
 728      03EE4ECC 
 728      DB315F88 
 728      425D84F9 
 728      52CC
 729 1314 D79B05BC 		.ascii	"\327\233\005\274\274\217\365\231\212yo\030Og\005\364"
 729      BC8FF599 
 729      8A796F18 
 729      4F6705F4 
 730 1324 672A64BF 		.ascii	"g*d\277z\327\256\326\352\325\235\257TT\251ck\350\023"
 730      7AD7AED6 
 730      EAD59DAF 
 730      5454A963 
 730      6BE813
 731 1337 63E3D325 		.ascii	"c\343\323%\3032\340U\015)\037\333\032k\215s\254%\362"
 731      C332E055 
 731      0D291FDB 
 731      1A6B8D73 
 731      AC25F2
 732 134a AA67E97F 		.ascii	"\252g\351\177\352 }\363A\031\255\026Y\202 \327\313R"
 732      EA207DF3 
 732      4119AD16 
ARM GAS  /tmp/cc4BmMZ0.s 			page 59


 732      598220D7 
 732      CB52
 733 135c C7252D44 		.ascii	"\307%-D\010\334\372>\324\030\356\342\032\372, \241\247"
 733      08DCFA3E 
 733      D418EEE2 
 733      1AFA2C20 
 733      A1A7
 734 136e 0EA922FC 		.ascii	"\016\251\"\374\257P[\327\217?\337\304\317T\224Fr(7\311"
 734      AF505BD7 
 734      8F3FDFC4 
 734      CF549446 
 734      722837C9 
 735 1382 F763AC91 		.ascii	"\367c\254\221\377`\247O|\325\324\304\027\014\221\317"
 735      FF60A74F 
 735      7CD5D4C4 
 735      170C91CF 
 736 1392 B045B717 		.ascii	"\260E\267\027\372\312:\275\025\371\317\003d\005\275"
 736      FACA3ABD 
 736      15F9CF03 
 736      6405BD
 737 13a1 2D90F6C8 		.ascii	"-\220\366\310\371\240\266I\277\315\335\370\321\325H"
 737      F9A0B649 
 737      BFCDDDF8 
 737      D1D548
 738 13b0 835925BE 		.ascii	"\203Y%\276\355v\004e\261\255\333\301\354\333s\2156\347"
 738      ED760465 
 738      B1ADDBC1 
 738      ECDB738D 
 738      36E7
 739 13c2 BEC90137 		.ascii	"\276\311\0017'u\3554\316\351Nx\356\276\320\324==_M "
 739      2775ED34 
 739      CEE94E78 
 739      EEBED0D4 
 739      3D3D5F4D 
 740 13d7 05EEAC1B 		.ascii	"\005\356\254\033\254\014\223\342\033\006\2546\317X\205"
 740      AC0C93E2 
 740      1B06AC36 
 740      CF5885
 741 13e6 16716B7A 		.ascii	"\026qkz\020\371\355\350y;0\337\215yS\366\271\257\365"
 741      10F9EDE8 
 741      793B30DF 
 741      8D7953F6 
 741      B9AFF5
 742 13f9 ED7E074A 		.ascii	"\355~\007J\010\376\276@\236\245oVs\240\231P\203\231"
 742      08FEBE40 
 742      9EA56F56 
 742      73A09950 
 742      8399
 743 140b D246F6D5 		.ascii	"\322F\366\325D\276\331\263\013\356wpA\343\031\303T-"
 743      44BED9B3 
 743      0BEE7770 
 743      41E319C3 
 743      542D
 744 141d B2996E0D 		.ascii	"\262\231n\015<iD\034\010\030\017\227\300X]\017T\351"
 744      3C69441C 
 744      08180F97 
 744      C0585D0F 
ARM GAS  /tmp/cc4BmMZ0.s 			page 60


 744      54E9
 745 142f 7A230FE2 		.ascii	"z#\017\342\252\311\343\333\257\037\242\274\020\327\274"
 745      AAC9E3DB 
 745      AF1FA2BC 
 745      10D7BC
 746 143e B84BED9A 		.ascii	"\270K\355\232\272\200Wj*\025\345\0068&\025\233\300\215"
 746      BA80576A 
 746      2A15E506 
 746      3826159B 
 746      C08D
 747 1450 BBD5D259 		.ascii	"\273\325\322Y\372\322\361\260\251\267\201\264%U\035"
 747      FAD2F1B0 
 747      A9B781B4 
 747      25551D
 748 145f ED4A4DEE 		.ascii	"\355JM\356\340m\317\263X\342\231\242\237\222)d\320\255"
 748      E06DCFB3 
 748      58E299A2 
 748      9F922964 
 748      D0AD
 749 1471 9EA579DC 		.ascii	"\236\245y\334A\232\3329e\247v\307R\206p\0277\355\326"
 749      419ADA39 
 749      65A776C7 
 749      52867017 
 749      37EDD6
 750 1484 054AF5C0 		.ascii	"\005J\365\300T\367\324\002\0113\023\025\265\252'5t\375"
 750      54F7D402 
 750      09331315 
 750      B5AA2735 
 750      74FD
 751 1496 5FCF52CB 		.ascii	"_\317R\313$x\324=\251\215\262\3323\365\332\306\263\322"
 751      2478D43D 
 751      A98DB2DA 
 751      33F5DAC6 
 751      B3D2
 752 14a8 8C0A2A4A 		.ascii	"\214\012*J\315\006u\033\263\210\245\227F\253v\306\347"
 752      CD06751B 
 752      B388A597 
 752      46AB76C6 
 752      E7
 753 14b9 944E966E 		.ascii	"\224N\226n\025\016\022}Lk\232\313\032\234\366,\3203"
 753      150E127D 
 753      4C6B9ACB 
 753      1A9CF62C 
 753      D033
 754 14cb 0E02CD61 		.ascii	"\016\002\315a\254\260c\344\2737\354\231\302O\377`\274"
 754      ACB063E4 
 754      BB37EC99 
 754      C24FFF60 
 754      BC
 755 14dc 428E53BD 		.ascii	"B\216S\275\276P\255\362\273\337.?\027\260l\2277\363"
 755      BE50ADF2 
 755      BBDF2E3F 
 755      17B06C97 
 755      37F3
 756 14ee 69E7225B 		.ascii	"i\347\"[o5\316\\\261\246\300}}+s\022\3662\300nX\346"
 756      6F35CE5C 
 756      B1A6C07D 
ARM GAS  /tmp/cc4BmMZ0.s 			page 61


 756      7D2B7312 
 756      F632C06E 
 757 1504 F3DABFAF 		.ascii	"\363\332\277\257\274\216-\316\006\234^\007`G\343\330"
 757      BC8E2DCE 
 757      069C5E07 
 757      6047E3D8 
 758 1514 B1F6F68A 		.ascii	"\261\366\366\212\347\373\352\307\332I#\223\367\3755"
 758      E7FBEAC7 
 758      DA492393 
 758      F7FD35
 759 1523 603AFD65 		.ascii	"`:\375e\0110\344\230\272\023om)\273*\344\026\222Q\247"
 759      0930E498 
 759      BA136F6D 
 759      29BB2AE4 
 759      169251A7 
 760 1537 6DC2913E 		.ascii	"m\302\221>\312\330`\352\234\276\361\037\030[\337\001"
 760      CAD860EA 
 760      9CBEF11F 
 760      185BDF01 
 761 1547 CA3016B4 		.ascii	"\3120\026\264\247!\357]z\360~#\362d\343\351|ZG=<Y\021"
 761      A721EF5D 
 761      7AF07E23 
 761      F264E3E9 
 761      7C5A473D 
 762 155e 04BD46AD 		.ascii	"\004\275F\255\317\271\3575\016\353\024<N\227\352\333"
 762      CFB9EF35 
 762      0EEB143C 
 762      4E97EADB 
 763 156e D2AA2E83 		.ascii	"\322\252.\203,:\234[\245\342SZ\253\253\216\255\246d"
 763      2C3A9C5B 
 763      A5E2535A 
 763      ABAB8EAD 
 763      A664
 764 1580 E8ABD3B1 		.ascii	"\350\253\323\261UC\206V\327\034[]\312\320\352[\307V"
 764      55438656 
 764      D71C5B5D 
 764      CAD0EA5B 
 764      C756
 765 1592 2732B4BA 		.ascii	"'2\264\272\356\330\352\\\206V]\216\255\016fhu\303\261"
 765      EED8EA5C 
 765      86565D8E 
 765      AD0E6668 
 765      75C3B1
 766 15a5 55538656 		.ascii	"US\206VI\207V\016\301f\20094\210|E\216\327`S\231c\037"
 766      4987560E 
 766      C1668039 
 766      34887C45 
 766      8ED76053 
 767 15bc 6C028C0C 		.ascii	"l\002\214\014\247vJ\216\023\177G2\3607\306\261\325\316"
 767      A7764A8E 
 767      137F4732 
 767      F037C6B1 
 767      D5CE
 768 15ce 0CADC6E6 		.ascii	"\014\255\306\346X\375n\335\370\243>\243\337\231\337"
 768      58FD6EDD 
 768      F8A33EA3 
 768      DF99DF
ARM GAS  /tmp/cc4BmMZ0.s 			page 62


 769 15dd 8AB9FF81 		.ascii	"\212\271\377\201\007\372\353\177e\211\376q\271\177\254"
 769      07FAEB7F 
 769      6589FE71 
 769      B97FAC
 770 15ec 2C2E27FA 		.ascii	",.'\372?\371\302s\203\236\033\325?2<R\026\227\302#\036"
 770      3FF9C273 
 770      839E1BD5 
 770      3F323C52 
 770      1697C223 
 771 1601 8D3E309C 		.ascii	"\215>0\234\013\221\237\302%e\221\327r\236\371\217\227"
 771      0B919FC2 
 771      256591D7 
 771      729EF98F 
 771      97
 772 1612 0B077179 		.ascii	"\013\007qyx\243\274\224\334\352gD\222\245\204L\260\310"
 772      78A3BC94 
 772      DCEA6744 
 772      92A5844C 
 772      B0C8
 773 1624 353AA46C 		.ascii	"5:\244l\324\003\021.\217\\\037\014'$\271<vOz\257\305"
 773      D403112E 
 773      8F5C1F0C 
 773      2724B93C 
 773      764F7AAF 
 774 1639 A59192F2 		.ascii	"\245\221\222\362\"\011:LH\244\257G\263\021V\026\215"
 774      22093A4C 
 774      48A4AF47 
 774      B3115616 
 774      8D
 775 164a 159748F1 		.ascii	"\025\227H\361D\377g\006\015\202V\362\350\230\224\200"
 775      44FF6706 
 775      0D8256F2 
 775      E8989480 
 776 165a 768148A9 		.ascii	"v\201H\251\034\226\357\354_\236\210\353\230\245\322"
 776      1C96EFEC 
 776      5F9E88EB 
 776      98A5D2
 777 1669 C892E221 		.ascii	"\310\222\342!\375\023rQq\251\014ur\341\362\320\317\303"
 777      FD137251 
 777      71A90C75 
 777      72E1F2D0 
 777      CFC3
 778 167b F2CFEC6A 		.ascii	"\362\317\354jE\305\310\360\342R\251\177\270H\032*\226"
 778      45C5C8F0 
 778      E252A97F 
 778      B8481A2A 
 778      96
 779 168c 97001843 		.ascii	"\227\000\030C\016\205\303\254]\036\220(\306\206\023"
 779      0E85C3AC 
 779      5D1E9028 
 779      C68613
 780 169b C1C8F991 		.ascii	"\301\310\371\221\341a\375\353?e\344ktB\203\352)\017"
 780      E161FDEB 
 780      3F65E46B 
 780      744283EA 
 780      290F
 781 16ad 8F4B6251 		.ascii	"\217KbQ\"\374\373r\251\034@z\001\210\351\326?f\004\212"
ARM GAS  /tmp/cc4BmMZ0.s 			page 63


 781      22FCFB72 
 781      A91C407A 
 781      0188E9D6 
 781      3F66048A 
 782 16c1 0C2F0290 		.ascii	"\014/\002\220 m\021\226Cz\353\234X\270T\032%\303%\026"
 782      206D1196 
 782      437AEB9C 
 782      58B8541A 
 782      25C32516 
 783 16d5 9746E4CA 		.ascii	"\227F\344\312\261xqYX\016\2263\272{\204\303Z\021\253"
 783      B1787159 
 783      580E9633 
 783      BA7B84C3 
 783      5A11AB
 784 16e8 1497E546 		.ascii	"\024\227\345F\312Jeh\361\023Wf\000\235R\215\003HD\036"
 784      CA4A6568 
 784      F1135766 
 784      009D528D 
 784      0348441E 
 785 16fc 158C4BC3 		.ascii	"\025\214K\303\304x4,\013\361\207\205\370#B\374\027B"
 785      C478342C 
 785      0BF18785 
 785      F82342FC 
 785      1742
 786 170e FC5121FE 		.ascii	"\374Q!\376\230\020\177\334\027\177p\000\244\007\205"
 786      98107FDC 
 786      177F7000 
 786      A40785
 787 171d 92385C1E 		.ascii	"\2228\\\036\012\304\302P?\227P7R\212\303\265\254\244"
 787      0AC4C250 
 787      3F975037 
 787      528AC3B5 
 787      ACA4
 788 172f 488AFB23 		.ascii	"H\212\373#\303\3058!Y\214J=\022\362kbI\361\260RF\356"
 788      C3C53821 
 788      598C4A3D 
 788      12F26B62 
 788      49F1B052 
 789 1745 2F1ED6C9 		.ascii	"/\036\326\311\305b,\014\025J\212\243\305rPN\310\242"
 789      C5622C0C 
 789      154A8AA3 
 789      C572504E 
 789      C8A2
 790 1757 0C42CB25 		.ascii	"\014B\313%?>\006\354\323jP\312%\265\340\267\\9ZV$\341"
 790      3F3E06EC 
 790      D36A50CA 
 790      25B5E0B7 
 790      5C395A56 
 791 176d F7A125E2 		.ascii	"\367\241%\342\260D\256\034\227\206&\220iR\010D\023\303"
 791      B044AE1C 
 791      97862690 
 791      69520844 
 791      13C3
 792 177f E04BBC68 		.ascii	"\340K\274h4\024\202\322\250b9\002\325sF\312eC~\027\353"
 792      341482D2 
 792      A8623902 
 792      D57346CA 
ARM GAS  /tmp/cc4BmMZ0.s 			page 64


 792      65437E17 
 793 1794 C3A40A15 		.ascii	"\303\244\012\025\245\270T\032\001\230\300HY\216\307"
 793      A5B8541A 
 793      0198C048 
 793      598EC7
 794 17a3 E077D073 		.ascii	"\340w\320s,\010\302\216\226\203\3142\332pT\036E\354"
 794      2C08C28E 
 794      9683CC32 
 794      DA70541E 
 794      45EC
 795 17b5 2C4AB509 		.ascii	",J\265\011\327\262\221\245\30086\204\256\243TM#e\250"
 795      D7B291A5 
 795      C0383684 
 795      AEA3544D 
 795      2365A8
 796 17c8 17CB9346 		.ascii	"\027\313\223FH\245rT"
 796      48A57254 
 797 17d0 4CBC06BF 		.ascii	"L\274\006\277H#I\301\027\013\227\027h\006QR\234\000"
 797      482349C1 
 797      170B9717 
 797      68065152 
 797      9C00
 798 17e2 23EC6930 		.ascii	"#\354i0\021r'\024\013\217\024\213\345\342\322a \033"
 798      11722714 
 798      0B8F148B 
 798      E5E2D261 
 798      201B
 799 17f4 E0033B0A 		.ascii	"\340\003;\012`\021nH1\251\024\214}\030\324\202.H\375"
 799      60116E48 
 799      31A9148C 
 799      7D18D482 
 799      2E48FD
 800 1807 1E8477B1 		.ascii	"\036\204w\261\004\225\0167cee%wg\342@&N\330G.\216J\341"
 800      04950E37 
 800      63656525 
 800      7767E240 
 800      264ED847 
 801 181f A82426CA 		.ascii	"\250$&\312\343RT\"\236\225\033\227\321\303\374C\300"
 801      E3525422 
 801      9E951B97 
 801      D1C3FC43 
 801      C0
 802 1830 B50323CB 		.ascii	"\265\003#\313\342\011\331_\"&\344\234r\274\315\227\006"
 802      E209D95F 
 802      2226E49C 
 802      72BCCD97 
 802      06
 803 1841 E332B692 		.ascii	"\3432\266\222{D\312\243\345%\242\\<Bb\212I\3442\363"
 803      7B44CAA3 
 803      E525A25C 
 803      3C42628A 
 803      49E432F3 
 804 1855 0E24C250 		.ascii	"\016$\302P\033\254\376E)\372\214$\017*+\007+\214\017"
 804      1BACFE45 
 804      29FA8C24 
 804      0F2A2B07 
 804      2B8C0F
ARM GAS  /tmp/cc4BmMZ0.s 			page 65


 805 1868 1612B11F 		.ascii	"\026\022\261\037e\224*D\020\352\212Q\261\270\004\276"
 805      65942A44 
 805      10EA8A51 
 805      B1B804BE 
 806 1878 80F2A343 		.ascii	"\200\362\243C\302C\312\207\202\256r\240$\227\305\202"
 806      C243CA87 
 806      82AE72A0 
 806      2497C582 
 807 1888 7019198F 		.ascii	"p\031\031\217\311qR\210\027A\241\007\024\206\226\227"
 807      C9715288 
 807      1741A107 
 807      14869697 
 808 1898 9480F620 		.ascii	"\224\200\366 \006\205A\207\362h(\367\216\014\177\356"
 808      06854187 
 808      F26828F7 
 808      8E0C7FEE 
 809 18a8 29E8FCE9 		.ascii	")\350\374\351\270$!\001\203}\321!1\355\356\313\011\251"
 809      B8242101 
 809      837DD121 
 809      31EDEECB 
 809      09A9
 810 18ba 88DECD1C 		.ascii	"\210\336\315\034\253F#9\300\310\350\304o \010\346a\351"
 810      AB462339 
 810      C0C8E8C4 
 810      6F2008E6 
 810      61E9
 811 18cc 650C88B7 		.ascii	"e\014\210\267\320\200'\215\222\"\240\366\002\002\374"
 811      D080278D 
 811      9222A0F6 
 811      0202FC
 812 18db 9F437E27 		.ascii	"\237C~'E\344\301\245\305\362\275\231P\213\244!\345\303"
 812      45E4C1A5 
 812      C5F2BD99 
 812      508BA421 
 812      E5C3
 813 18ed 001704F4 		.ascii	"\000\027\004\364\353!\303\006\015\227\"\257\015\002"
 813      EB21C306 
 813      0D9722AF 
 813      0D02
 814 18fb 192706F7 		.ascii	"\031'\006\367\014\027\015\031\026\216\220\033\030\206"
 814      0C170D19 
 814      168E901B 
 814      1886
 815 1909 33A2A0C4 		.ascii	"3\242\240\304\001\345N*{\222\203\3532e\206#\361bP\327"
 815      01E54E2A 
 815      7B9283EB 
 815      32658623 
 815      F16250D7 
 816 191d F0224AFB 		.ascii	"\360\"J\373\263b\211|\207^\257,\226V\255\267\241g\032"
 816      B362897C 
 816      875EAF2C 
 816      9656ADB7 
 816      A1671A
 817 1930 EF7FE814 		.ascii	"\357\177\350\024\357I\020\016?\005\366\225\037&_\303"
 817      EF49100E 
 817      3F05F695 
 817      1F265FC3 
ARM GAS  /tmp/cc4BmMZ0.s 			page 66


 818 1940 40B81427 		.ascii	"@\270\024'A\352\271\247^\220 \374\177\337x\033b'X\004"
 818      41EAB9A7 
 818      5E9020FC 
 818      7FDF781B 
 818      62275804 
 819 1954 B8594FBC 		.ascii	"\270YO\274)EIwe\257I\245=H\375\247%92|0\212\356\371"
 819      29454977 
 819      65AF49A5 
 819      3D48FDA7 
 819      2539327C 
 820 196c B284FCE4 		.ascii	"\262\204\374\344p0\377\301!\355\353\340\020\011\251"
 820      7030FFC1 
 820      21EDEBE0 
 820      1009A9
 821 197b 686B21BD 		.ascii	"hk!\275vP\373\365\026S+\320\355\203\302K\003\204\227"
 821      7650FBF5 
 821      16532BD0 
 821      ED83C24B 
 821      038497
 822 198e 20FFB9F0 		.ascii	" \377\271\360\322C\302K\017\347c\217\324x\022\302H1"
 822      D243C24B 
 822      0FE7638F 
 822      D47812C2 
 822      4831
 823 19a0 8716FDE4 		.ascii	"\207\026\375\344v\036\211\352\000.Eix\245\345|\342~"
 823      761E89EA 
 823      002E4569 
 823      78A5E57C 
 823      E27E
 824 19b2 A3994302 		.ascii	"\243\231C\002~8\365=7N-;'\216q5\020\307\200\027g\001"
 824      7E38F53D 
 824      374E2D3B 
 824      278E7135 
 824      10C78017 
 825 19c8 2F4E035E 		.ascii	"/N\003^\010\356\226\307!\252\310\2018i\364\375\021\305"
 825      08EE96C7 
 825      21AAC881 
 825      3869F4FD 
 825      11C5
 826 19da 71B95C2C 		.ascii	"q\271\\,\011\023&\342\232\247\337\006\3006?\3644\335"
 826      091326E2 
 826      9AA7DF06 
 826      C0363FF4 
 826      34DD
 827 19ec A36386E9 		.ascii	"\243c\206\351V\356\010\031\303\012\271\222\360\037\204"
 827      56EE0819 
 827      C30AB992 
 827      F01F84
 828 19fb 6B915422 		.ascii	"k\221T\"\213P\030Z^\032\011\343/\244\224Cj\210\361<"
 828      8B50185A 
 828      5E1A09E3 
 828      2FA49443 
 828      6A88F13C 
 829 1a0f B810D725 		.ascii	"\270\020\327%\255\341\026\351\244\2001\215\026H\203"
 829      ADE116E9 
 829      A480318D 
 829      164883
ARM GAS  /tmp/cc4BmMZ0.s 			page 67


 830 1a1e 8EF14E28 		.ascii	"\216\361N(&\226\026GH\214\311-N\304\211\017\007\211"
 830      26961647 
 830      488CC92D 
 830      4EC4890F 
 830      0789
 831 1a30 2990426F 		.ascii	")\220Bo\022\237\342\"\304K*F\350M\036\022N\024\377\017"
 831      129FE222 
 831      C44B2A46 
 831      E84D1E12 
 831      4E14FF0F 
 832 1a44 B1FC7062 		.ascii	"\261\374pbd$\214a\016n'$\2447@\256\261\020\3444\360"
 832      64248C61 
 832      0E6E2724 
 832      A43740AE 
 832      B110E434 
 833 1a59 06A184D1 		.ascii	"\006\241\204\321;\007\332\201\333\206d\315\263\363\215"
 833      3B07DA81 
 833      DB8664CD 
 833      B3F38D
 834 1a68 B83EB0C3 		.ascii	"\270>\260\303\036\340\376\2454\030\366\222\243\341\010"
 834      1EE0FEA5 
 834      3418F692 
 834      A3E108
 835 1a77 0C1C43E2 		.ascii	"\014\034C\342\020h\312`\364\310)\033:\024\214L\220\243"
 835      1068CA60 
 835      F4C8291B 
 835      3A148C4C 
 835      90A3
 836 1a89 05AF49F1 		.ascii	"\005\257I\361R\251\204Y\265\034(\015\027\307\177\037"
 836      52A98459 
 836      B51C280D 
 836      17C77F1F 
 837 1a99 2C258A01 		.ascii	",%\212\001rzDu\333\326\212\300R\276\261MAqQ\211\304"
 837      727A4475 
 837      DBD68AC0 
 837      52BEB14D 
 837      41715189 
 838 1aae 822E045B 		.ascii	"\202.\004[\001\214+\214\362\013\207o\321\012\017<\362"
 838      018C2B8C 
 838      F20B876F 
 838      D10A0F3C 
 838      F2
 839 1abf F8838FE4 		.ascii	"\370\203\217\344\033\274\036\206e\260\237\210\230\220"
 839      1BBC1E86 
 839      65B09F88 
 839      9890
 840 1acd FC645C0B 		.ascii	"\374d\\\013\340|\007\356\211\361\"\030\003rY4\310\213"
 840      E07C07EE 
 840      89F12218 
 840      03725934 
 840      C88B
 841 1adf 893244BC 		.ascii	"\2112D\274R\022\"B\332$\351\301\302\347hX\223\022\367"
 841      52122242 
 841      DA24E9C1 
 841      C2E76858 
 841      9312F7
 842 1af2 17126B82 		.ascii	"\027\022k\202\000^(\226\026\025\022q\225\225\313\011"
ARM GAS  /tmp/cc4BmMZ0.s 			page 68


 842      005E2896 
 842      16151271 
 842      9595CB09 
 843 1b02 AEBFC5DF 		.ascii	"\256\277\305\337A\333\375\007=\367\342\340\027SnO&%"
 843      41DBFD07 
 843      3DF7E2E0 
 843      17536E4F 
 843      2625
 844 1b14 91E8D340 		.ascii	"\221\350\323@\034\370!\220\011\375\207\237z\362\305"
 844      1CF82190 
 844      09FD879F 
 844      7AF2C5
 845 1b23 7F7BFE85 		.ascii	"\177{\376\205\301\267\210%#\305\321\011\030\275K`\202"
 845      C1B78825 
 845      23C5D109 
 845      18BD4B60 
 845      82
 846 1b34 13182196 		.ascii	"\023\030!\226\224K\377\0078vX\200"
 846      944BFF07 
 846      38765880 
 847              		.text
 848              		.section	.gnu.lto_.symtab.67cf1c1dd1d6e29a,"",%progbits
 849 0000 70617474 		.ascii	"patternmbox\000\000\000\000\000\000\000\000\000\000"
 849      65726E6D 
 849      626F7800 
 849      00000000 
 849      00000000 
 850 0015 0000C502 		.ascii	"\000\000\305\002\000\000testmbox1\000\000\000\000\000"
 850      00007465 
 850      73746D62 
 850      6F783100 
 850      00000000 
 851 0029 00000000 		.ascii	"\000\000\000\000\000\000\000\333\002\000\000test\000"
 851      000000DB 
 851      02000074 
 851      65737400 
 852 0039 00020000 		.ascii	"\000\002\000\000\000\000\000\000\000\000\000\016\002"
 852      00000000 
 852      0000000E 
 852      02
 853 0046 00006368 		.ascii	"\000\000ch\000\000\002\000\000\000\000\000\000\000\000"
 853      00000200 
 853      00000000 
 853      000000
 854 0055 00340200 		.ascii	"\0004\002\000\000chMBObjectInit\000\000\002\000\000"
 854      0063684D 
 854      424F626A 
 854      65637449 
 854      6E697400 
 855 006d 00000000 		.ascii	"\000\000\000\000\000\000\000\262\001\000\000chDbgCh"
 855      000000B2 
 855      01000063 
 855      68446267 
 855      4368
 856 007f 65636B43 		.ascii	"eckClassI\000\000\002\000\000\000\000\000\000\000\000"
 856      6C617373 
 856      49000002 
ARM GAS  /tmp/cc4BmMZ0.s 			page 69


 856      00000000 
 856      00000000 
 857 0093 00B80100 		.ascii	"\000\270\001\000\000_dbg_check_lock\000\000\002\000"
 857      005F6462 
 857      675F6368 
 857      65636B5F 
 857      6C6F636B 
 858 00ab 00000000 		.ascii	"\000\000\000\000\000\000\000\000\272\001\000\000_st"
 858      00000000 
 858      BA010000 
 858      5F7374
 859 00ba 6174735F 		.ascii	"ats_start_measure_crit_thd\000\000\002\000\000\000\000"
 859      73746172 
 859      745F6D65 
 859      61737572 
 859      655F6372 
 860 00db 00000000 		.ascii	"\000\000\000\000\000\274\001\000\000chSysHalt\000\000"
 860      00BC0100 
 860      00636853 
 860      79734861 
 860      6C740000 
 861 00ef 02000000 		.ascii	"\002\000\000\000\000\000\000\000\000\000\276\001\000"
 861      00000000 
 861      0000BE01 
 861      00
 862 00fc 005F7374 		.ascii	"\000_stats_stop_measure_crit_thd\000\000\002\000\000"
 862      6174735F 
 862      73746F70 
 862      5F6D6561 
 862      73757265 
 863 011e 00000000 		.ascii	"\000\000\000\000\000\000\000\302\001\000\000_dbg_ch"
 863      000000C2 
 863      0100005F 
 863      6462675F 
 863      6368
 864 0130 65636B5F 		.ascii	"eck_unlock\000\000\002\000\000\000\000\000\000\000\000"
 864      756E6C6F 
 864      636B0000 
 864      02000000 
 864      00000000 
 865 0145 00C40100 		.ascii	"\000\304\001\000\000_test_assert\000\000\002\000\000"
 865      005F7465 
 865      73745F61 
 865      73736572 
 865      74000002 
 866 015b 00000000 		.ascii	"\000\000\000\000\000\000\000\306\001\000\000chMBRes"
 866      000000C6 
 866      01000063 
 866      684D4252 
 866      6573
 867 016d 65740000 		.ascii	"et\000\000\002\000\000\000\000\000\000\000\000\000\316"
 867      02000000 
 867      00000000 
 867      0000CE
 868 017c 0100005F 		.ascii	"\001\000\000_test_assert_sequence\000\000\002\000\000"
 868      74657374 
 868      5F617373 
ARM GAS  /tmp/cc4BmMZ0.s 			page 70


 868      6572745F 
 868      73657175 
 869 0199 00000000 		.ascii	"\000\000\000\000\000\000\000\322\001\000\000test_em"
 869      000000D2 
 869      01000074 
 869      6573745F 
 869      656D
 870 01ab 69745F74 		.ascii	"it_token\000\000\002\000\000\000\000\000\000\000\000"
 870      6F6B656E 
 870      00000200 
 870      00000000 
 870      000000
 871 01be 00D80100 		.ascii	"\000\330\001\000\000chMBFetchI\000\000\002\000\000\000"
 871      0063684D 
 871      42466574 
 871      63684900 
 871      00020000 
 872 01d3 00000000 		.ascii	"\000\000\000\000\000\000\334\001\000\000chMBPostAhe"
 872      0000DC01 
 872      00006368 
 872      4D42506F 
 872      73744168 
 873 01e8 61644900 		.ascii	"adI\000\000\002\000\000\000\000\000\000\000\000\000"
 873      00020000 
 873      00000000 
 873      000000
 874 01f7 E1010000 		.ascii	"\341\001\000\000chMBPostI\000\000\002\000\000\000\000"
 874      63684D42 
 874      506F7374 
 874      49000002 
 874      00000000 
 875 020b 00000000 		.ascii	"\000\000\000\000\000\346\001\000\000chMBFetch\000\000"
 875      00E60100 
 875      0063684D 
 875      42466574 
 875      63680000 
 876 021f 02000000 		.ascii	"\002\000\000\000\000\000\000\000\000\000\350\001\000"
 876      00000000 
 876      0000E801 
 876      00
 877 022c 0063684D 		.ascii	"\000chMBPost\000\000\002\000\000\000\000\000\000\000"
 877      42506F73 
 877      74000002 
 877      00000000 
 877      000000
 878 023f 0000F101 		.ascii	"\000\000\361\001\000\000chMBPostAhead\000\000\002\000"
 878      00006368 
 878      4D42506F 
 878      73744168 
 878      65616400 
 879 0256 00000000 		.ascii	"\000\000\000\000\000\000\000\000\367\001\000\000"
 879      00000000 
 879      F7010000 
 880              		.text
 881              		.section	.gnu.lto_.opts,"",%progbits
 882 0000 272D6D63 		.ascii	"'-mcpu=cortex-m4' '-mno-thumb-interwork' '-mthumb' "
 882      70753D63 
ARM GAS  /tmp/cc4BmMZ0.s 			page 71


 882      6F727465 
 882      782D6D34 
 882      2720272D 
 883 0033 272D6767 		.ascii	"'-ggdb' '-O0' '-fomit-frame-pointer' '-falign-funct"
 883      64622720 
 883      272D4F30 
 883      2720272D 
 883      666F6D69 
 884 0066 696F6E73 		.ascii	"ions=16' '-ffunction-sections' '-fdata-sections' '-"
 884      3D313627 
 884      20272D66 
 884      66756E63 
 884      74696F6E 
 885 0099 666E6F2D 		.ascii	"fno-common' '-flto'\000"
 885      636F6D6D 
 885      6F6E2720 
 885      272D666C 
 885      746F2700 
 886              		.text
 887              		.cfi_sections	.debug_frame
 888              		.section	.text.port_lock,"ax",%progbits
 889              		.align	2
 890              		.p2align 4,,15
 891              		.thumb
 892              		.thumb_func
 893              		.type	port_lock, %function
 894              	port_lock:
 895              	.LFB127:
 896              		.file 1 "../../../../os/rt/ports/ARMCMx/chcore_v7m.h"
 897              		.loc 1 456 0
 898              		.cfi_startproc
 899              		@ args = 0, pretend = 0, frame = 8
 900              		@ frame_needed = 0, uses_anonymous_args = 0
 901              		@ link register save eliminated.
 902 0000 82B0     		sub	sp, sp, #8
 903              		.cfi_def_cfa_offset 8
 904 0002 2023     		movs	r3, #32
 905 0004 0193     		str	r3, [sp, #4]
 906              	.LBB6:
 907              	.LBB7:
 908              		.file 2 "../../../../os/ext/CMSIS/include/core_cmFunc.h"
 909              		.loc 2 548 0
 910 0006 019B     		ldr	r3, [sp, #4]
 911              	@ 548 "../../../../os/ext/CMSIS/include/core_cmFunc.h" 1
 912 0008 83F31188 		MSR basepri, r3
 913              	@ 0 "" 2
 914              		.thumb
 915              	.LBE7:
 916              	.LBE6:
 917              		.loc 1 473 0
 918 000c 02B0     		add	sp, sp, #8
 919              		@ sp needed
 920 000e 7047     		bx	lr
 921              		.cfi_endproc
 922              	.LFE127:
 923              		.size	port_lock, .-port_lock
 924              		.section	.text.port_unlock,"ax",%progbits
ARM GAS  /tmp/cc4BmMZ0.s 			page 72


 925              		.align	2
 926              		.p2align 4,,15
 927              		.thumb
 928              		.thumb_func
 929              		.type	port_unlock, %function
 930              	port_unlock:
 931              	.LFB128:
 932              		.loc 1 480 0
 933              		.cfi_startproc
 934              		@ args = 0, pretend = 0, frame = 8
 935              		@ frame_needed = 0, uses_anonymous_args = 0
 936              		@ link register save eliminated.
 937 0000 82B0     		sub	sp, sp, #8
 938              		.cfi_def_cfa_offset 8
 939 0002 0023     		movs	r3, #0
 940 0004 0193     		str	r3, [sp, #4]
 941              	.LBB8:
 942              	.LBB9:
 943              		.loc 2 548 0
 944 0006 019B     		ldr	r3, [sp, #4]
 945              	@ 548 "../../../../os/ext/CMSIS/include/core_cmFunc.h" 1
 946 0008 83F31188 		MSR basepri, r3
 947              	@ 0 "" 2
 948              		.thumb
 949              	.LBE9:
 950              	.LBE8:
 951              		.loc 1 487 0
 952 000c 02B0     		add	sp, sp, #8
 953              		@ sp needed
 954 000e 7047     		bx	lr
 955              		.cfi_endproc
 956              	.LFE128:
 957              		.size	port_unlock, .-port_unlock
 958              		.section	.text.chSysLock,"ax",%progbits
 959              		.align	2
 960              		.p2align 4,,15
 961              		.thumb
 962              		.thumb_func
 963              		.type	chSysLock, %function
 964              	chSysLock:
 965              	.LFB167:
 966              		.file 3 "../../../../os/rt/include/chsys.h"
 967              		.loc 3 346 0
 968              		.cfi_startproc
 969              		@ args = 0, pretend = 0, frame = 0
 970              		@ frame_needed = 0, uses_anonymous_args = 0
 971 0000 08B5     		push	{r3, lr}
 972              		.cfi_def_cfa_offset 8
 973              		.cfi_offset 3, -8
 974              		.cfi_offset 14, -4
 975              		.loc 3 348 0
 976 0002 FFF7FEFF 		bl	port_lock
 977              		.loc 3 349 0
 978 0006 FFF7FEFF 		bl	_stats_start_measure_crit_thd
 979              		.loc 3 350 0
 980 000a FFF7FEFF 		bl	_dbg_check_lock
 981              		.loc 3 351 0
ARM GAS  /tmp/cc4BmMZ0.s 			page 73


 982 000e 08BD     		pop	{r3, pc}
 983              		.cfi_endproc
 984              	.LFE167:
 985              		.size	chSysLock, .-chSysLock
 986              		.section	.text.chSysUnlock,"ax",%progbits
 987              		.align	2
 988              		.p2align 4,,15
 989              		.thumb
 990              		.thumb_func
 991              		.type	chSysUnlock, %function
 992              	chSysUnlock:
 993              	.LFB168:
 994              		.loc 3 358 0
 995              		.cfi_startproc
 996              		@ args = 0, pretend = 0, frame = 0
 997              		@ frame_needed = 0, uses_anonymous_args = 0
 998 0000 08B5     		push	{r3, lr}
 999              		.cfi_def_cfa_offset 8
 1000              		.cfi_offset 3, -8
 1001              		.cfi_offset 14, -4
 1002              		.loc 3 360 0
 1003 0002 FFF7FEFF 		bl	_dbg_check_unlock
 1004              		.loc 3 361 0
 1005 0006 FFF7FEFF 		bl	_stats_stop_measure_crit_thd
 1006              		.loc 3 367 0
 1007 000a 40F20003 		movw	r3, #:lower16:ch
 1008 000e C0F20003 		movt	r3, #:upper16:ch
 1009 0012 1A68     		ldr	r2, [r3]
 1010 0014 40F20003 		movw	r3, #:lower16:ch
 1011 0018 C0F20003 		movt	r3, #:upper16:ch
 1012 001c 9A42     		cmp	r2, r3
 1013 001e 13D0     		beq	.L5
 1014              		.loc 3 367 0 is_stmt 0 discriminator 1
 1015 0020 40F20003 		movw	r3, #:lower16:ch
 1016 0024 C0F20003 		movt	r3, #:upper16:ch
 1017 0028 9B69     		ldr	r3, [r3, #24]
 1018 002a 9A68     		ldr	r2, [r3, #8]
 1019 002c 40F20003 		movw	r3, #:lower16:ch
 1020 0030 C0F20003 		movt	r3, #:upper16:ch
 1021 0034 1B68     		ldr	r3, [r3]
 1022 0036 9B68     		ldr	r3, [r3, #8]
 1023 0038 9A42     		cmp	r2, r3
 1024 003a 05D2     		bcs	.L5
 1025 003c 40F20000 		movw	r0, #:lower16:__func__.5915
 1026 0040 C0F20000 		movt	r0, #:upper16:__func__.5915
 1027 0044 FFF7FEFF 		bl	chSysHalt
 1028              	.L5:
 1029              		.loc 3 371 0 is_stmt 1
 1030 0048 FFF7FEFF 		bl	port_unlock
 1031              		.loc 3 372 0
 1032 004c 08BD     		pop	{r3, pc}
 1033              		.cfi_endproc
 1034              	.LFE168:
 1035              		.size	chSysUnlock, .-chSysUnlock
 1036 004e 00BF     		.section	.text.chSemGetCounterI,"ax",%progbits
 1037              		.align	2
 1038              		.p2align 4,,15
ARM GAS  /tmp/cc4BmMZ0.s 			page 74


 1039              		.thumb
 1040              		.thumb_func
 1041              		.type	chSemGetCounterI, %function
 1042              	chSemGetCounterI:
 1043              	.LFB203:
 1044              		.file 4 "../../../../os/rt/include/chsem.h"
 1045              		.loc 4 149 0
 1046              		.cfi_startproc
 1047              		@ args = 0, pretend = 0, frame = 8
 1048              		@ frame_needed = 0, uses_anonymous_args = 0
 1049 0000 00B5     		push	{lr}
 1050              		.cfi_def_cfa_offset 4
 1051              		.cfi_offset 14, -4
 1052 0002 83B0     		sub	sp, sp, #12
 1053              		.cfi_def_cfa_offset 16
 1054 0004 0190     		str	r0, [sp, #4]
 1055              		.loc 4 151 0
 1056 0006 FFF7FEFF 		bl	chDbgCheckClassI
 1057              		.loc 4 153 0
 1058 000a 019B     		ldr	r3, [sp, #4]
 1059 000c 9B68     		ldr	r3, [r3, #8]
 1060              		.loc 4 154 0
 1061 000e 1846     		mov	r0, r3
 1062 0010 03B0     		add	sp, sp, #12
 1063              		@ sp needed
 1064 0012 5DF804FB 		ldr	pc, [sp], #4
 1065              		.cfi_endproc
 1066              	.LFE203:
 1067              		.size	chSemGetCounterI, .-chSemGetCounterI
 1068 0016 00BFAFF3 		.section	.text.chMBGetFreeCountI,"ax",%progbits
 1068      0080AFF3 
 1068      0080
 1069              		.align	2
 1070              		.p2align 4,,15
 1071              		.thumb
 1072              		.thumb_func
 1073              		.type	chMBGetFreeCountI, %function
 1074              	chMBGetFreeCountI:
 1075              	.LFB226:
 1076              		.file 5 "../../../../os/rt/include/chmboxes.h"
 1077              		.loc 5 158 0
 1078              		.cfi_startproc
 1079              		@ args = 0, pretend = 0, frame = 8
 1080              		@ frame_needed = 0, uses_anonymous_args = 0
 1081 0000 00B5     		push	{lr}
 1082              		.cfi_def_cfa_offset 4
 1083              		.cfi_offset 14, -4
 1084 0002 83B0     		sub	sp, sp, #12
 1085              		.cfi_def_cfa_offset 16
 1086 0004 0190     		str	r0, [sp, #4]
 1087              		.loc 5 160 0
 1088 0006 FFF7FEFF 		bl	chDbgCheckClassI
 1089              		.loc 5 162 0
 1090 000a 019B     		ldr	r3, [sp, #4]
 1091 000c 1C33     		adds	r3, r3, #28
 1092 000e 1846     		mov	r0, r3
 1093 0010 FFF7FEFF 		bl	chSemGetCounterI
ARM GAS  /tmp/cc4BmMZ0.s 			page 75


 1094 0014 0346     		mov	r3, r0
 1095              		.loc 5 163 0
 1096 0016 1846     		mov	r0, r3
 1097 0018 03B0     		add	sp, sp, #12
 1098              		@ sp needed
 1099 001a 5DF804FB 		ldr	pc, [sp], #4
 1100              		.cfi_endproc
 1101              	.LFE226:
 1102              		.size	chMBGetFreeCountI, .-chMBGetFreeCountI
 1103 001e 00BF     		.section	.text.chMBGetUsedCountI,"ax",%progbits
 1104              		.align	2
 1105              		.p2align 4,,15
 1106              		.thumb
 1107              		.thumb_func
 1108              		.type	chMBGetUsedCountI, %function
 1109              	chMBGetUsedCountI:
 1110              	.LFB227:
 1111              		.loc 5 177 0
 1112              		.cfi_startproc
 1113              		@ args = 0, pretend = 0, frame = 8
 1114              		@ frame_needed = 0, uses_anonymous_args = 0
 1115 0000 00B5     		push	{lr}
 1116              		.cfi_def_cfa_offset 4
 1117              		.cfi_offset 14, -4
 1118 0002 83B0     		sub	sp, sp, #12
 1119              		.cfi_def_cfa_offset 16
 1120 0004 0190     		str	r0, [sp, #4]
 1121              		.loc 5 179 0
 1122 0006 FFF7FEFF 		bl	chDbgCheckClassI
 1123              		.loc 5 181 0
 1124 000a 019B     		ldr	r3, [sp, #4]
 1125 000c 1033     		adds	r3, r3, #16
 1126 000e 1846     		mov	r0, r3
 1127 0010 FFF7FEFF 		bl	chSemGetCounterI
 1128 0014 0346     		mov	r3, r0
 1129              		.loc 5 182 0
 1130 0016 1846     		mov	r0, r3
 1131 0018 03B0     		add	sp, sp, #12
 1132              		@ sp needed
 1133 001a 5DF804FB 		ldr	pc, [sp], #4
 1134              		.cfi_endproc
 1135              	.LFE227:
 1136              		.size	chMBGetUsedCountI, .-chMBGetUsedCountI
 1137 001e 00BF     		.section	.data.mb1,"aw",%progbits
 1138              		.align	2
 1139              		.type	mb1, %object
 1140              		.size	mb1, 40
 1141              	mb1:
 1142 0000 00000000 		.word	test
 1143 0004 14000000 		.word	test+20
 1144 0008 00000000 		.word	test
 1145 000c 00000000 		.word	test
 1146 0010 10000000 		.word	mb1+16
 1147 0014 10000000 		.word	mb1+16
 1148 0018 00000000 		.word	0
 1149 001c 1C000000 		.word	mb1+28
 1150 0020 1C000000 		.word	mb1+28
ARM GAS  /tmp/cc4BmMZ0.s 			page 76


 1151 0024 05000000 		.word	5
 1152              		.section	.text.mbox1_setup,"ax",%progbits
 1153              		.align	2
 1154              		.p2align 4,,15
 1155              		.thumb
 1156              		.thumb_func
 1157              		.type	mbox1_setup, %function
 1158              	mbox1_setup:
 1159              	.LFB241:
 1160              		.file 6 "../../../../test/rt/testmbox.c"
 1161              		.loc 6 71 0
 1162              		.cfi_startproc
 1163              		@ args = 0, pretend = 0, frame = 0
 1164              		@ frame_needed = 0, uses_anonymous_args = 0
 1165 0000 08B5     		push	{r3, lr}
 1166              		.cfi_def_cfa_offset 8
 1167              		.cfi_offset 3, -8
 1168              		.cfi_offset 14, -4
 1169              		.loc 6 73 0
 1170 0002 40F20000 		movw	r0, #:lower16:mb1
 1171 0006 C0F20000 		movt	r0, #:upper16:mb1
 1172 000a 40F20001 		movw	r1, #:lower16:test
 1173 000e C0F20001 		movt	r1, #:upper16:test
 1174 0012 0522     		movs	r2, #5
 1175 0014 FFF7FEFF 		bl	chMBObjectInit
 1176              		.loc 6 74 0
 1177 0018 08BD     		pop	{r3, pc}
 1178              		.cfi_endproc
 1179              	.LFE241:
 1180              		.size	mbox1_setup, .-mbox1_setup
 1181 001a 00BFAFF3 		.section	.rodata
 1181      0080
 1182              		.align	2
 1183              	.LC0:
 1184 0000 41424344 		.ascii	"ABCDE\000"
 1184      4500
 1185              		.section	.text.mbox1_execute,"ax",%progbits
 1186              		.align	2
 1187              		.p2align 4,,15
 1188              		.thumb
 1189              		.thumb_func
 1190              		.type	mbox1_execute, %function
 1191              	mbox1_execute:
 1192              	.LFB242:
 1193              		.loc 6 76 0
 1194              		.cfi_startproc
 1195              		@ args = 0, pretend = 0, frame = 16
 1196              		@ frame_needed = 0, uses_anonymous_args = 0
 1197 0000 00B5     		push	{lr}
 1198              		.cfi_def_cfa_offset 4
 1199              		.cfi_offset 14, -4
 1200 0002 85B0     		sub	sp, sp, #20
 1201              		.cfi_def_cfa_offset 24
 1202              		.loc 6 83 0
 1203 0004 FFF7FEFF 		bl	chSysLock
 1204 0008 40F20000 		movw	r0, #:lower16:mb1
 1205 000c C0F20000 		movt	r0, #:upper16:mb1
ARM GAS  /tmp/cc4BmMZ0.s 			page 77


 1206 0010 FFF7FEFF 		bl	chMBGetFreeCountI
 1207 0014 0346     		mov	r3, r0
 1208 0016 052B     		cmp	r3, #5
 1209 0018 14BF     		ite	ne
 1210 001a 0023     		movne	r3, #0
 1211 001c 0123     		moveq	r3, #1
 1212 001e DBB2     		uxtb	r3, r3
 1213 0020 0120     		movs	r0, #1
 1214 0022 1946     		mov	r1, r3
 1215 0024 FFF7FEFF 		bl	_test_assert
 1216 0028 0346     		mov	r3, r0
 1217 002a 002B     		cmp	r3, #0
 1218 002c 03D0     		beq	.L14
 1219              		.loc 6 83 0 is_stmt 0 discriminator 1
 1220 002e FFF7FEFF 		bl	chSysUnlock
 1221 0032 00F096BC 		b	.L13
 1222              	.L14:
 1223              		.loc 6 83 0 discriminator 2
 1224 0036 FFF7FEFF 		bl	chSysUnlock
 1225              		.loc 6 88 0 is_stmt 1 discriminator 2
 1226 003a 0023     		movs	r3, #0
 1227 003c 0393     		str	r3, [sp, #12]
 1228 003e 1DE0     		b	.L16
 1229              	.L18:
 1230              		.loc 6 89 0
 1231 0040 039B     		ldr	r3, [sp, #12]
 1232 0042 4233     		adds	r3, r3, #66
 1233 0044 40F20000 		movw	r0, #:lower16:mb1
 1234 0048 C0F20000 		movt	r0, #:upper16:mb1
 1235 004c 1946     		mov	r1, r3
 1236 004e 4FF0FF32 		mov	r2, #-1
 1237 0052 FFF7FEFF 		bl	chMBPost
 1238 0056 0290     		str	r0, [sp, #8]
 1239              		.loc 6 90 0
 1240 0058 029B     		ldr	r3, [sp, #8]
 1241 005a 002B     		cmp	r3, #0
 1242 005c 14BF     		ite	ne
 1243 005e 0023     		movne	r3, #0
 1244 0060 0123     		moveq	r3, #1
 1245 0062 DBB2     		uxtb	r3, r3
 1246 0064 0220     		movs	r0, #2
 1247 0066 1946     		mov	r1, r3
 1248 0068 FFF7FEFF 		bl	_test_assert
 1249 006c 0346     		mov	r3, r0
 1250 006e 002B     		cmp	r3, #0
 1251 0070 01D0     		beq	.L17
 1252              		.loc 6 90 0 is_stmt 0 discriminator 1
 1253 0072 00F076BC 		b	.L13
 1254              	.L17:
 1255              		.loc 6 88 0 is_stmt 1
 1256 0076 039B     		ldr	r3, [sp, #12]
 1257 0078 0133     		adds	r3, r3, #1
 1258 007a 0393     		str	r3, [sp, #12]
 1259              	.L16:
 1260              		.loc 6 88 0 is_stmt 0 discriminator 1
 1261 007c 039B     		ldr	r3, [sp, #12]
 1262 007e 032B     		cmp	r3, #3
ARM GAS  /tmp/cc4BmMZ0.s 			page 78


 1263 0080 DED9     		bls	.L18
 1264              		.loc 6 92 0 is_stmt 1
 1265 0082 40F20000 		movw	r0, #:lower16:mb1
 1266 0086 C0F20000 		movt	r0, #:upper16:mb1
 1267 008a 4121     		movs	r1, #65
 1268 008c 4FF0FF32 		mov	r2, #-1
 1269 0090 FFF7FEFF 		bl	chMBPostAhead
 1270 0094 0290     		str	r0, [sp, #8]
 1271              		.loc 6 93 0
 1272 0096 029B     		ldr	r3, [sp, #8]
 1273 0098 002B     		cmp	r3, #0
 1274 009a 14BF     		ite	ne
 1275 009c 0023     		movne	r3, #0
 1276 009e 0123     		moveq	r3, #1
 1277 00a0 DBB2     		uxtb	r3, r3
 1278 00a2 0320     		movs	r0, #3
 1279 00a4 1946     		mov	r1, r3
 1280 00a6 FFF7FEFF 		bl	_test_assert
 1281 00aa 0346     		mov	r3, r0
 1282 00ac 002B     		cmp	r3, #0
 1283 00ae 01D0     		beq	.L19
 1284              		.loc 6 93 0 is_stmt 0 discriminator 1
 1285 00b0 00F057BC 		b	.L13
 1286              	.L19:
 1287              		.loc 6 98 0 is_stmt 1
 1288 00b4 40F20000 		movw	r0, #:lower16:mb1
 1289 00b8 C0F20000 		movt	r0, #:upper16:mb1
 1290 00bc 5821     		movs	r1, #88
 1291 00be 0122     		movs	r2, #1
 1292 00c0 FFF7FEFF 		bl	chMBPost
 1293 00c4 0290     		str	r0, [sp, #8]
 1294              		.loc 6 99 0
 1295 00c6 029B     		ldr	r3, [sp, #8]
 1296 00c8 B3F1FF3F 		cmp	r3, #-1
 1297 00cc 14BF     		ite	ne
 1298 00ce 0023     		movne	r3, #0
 1299 00d0 0123     		moveq	r3, #1
 1300 00d2 DBB2     		uxtb	r3, r3
 1301 00d4 0420     		movs	r0, #4
 1302 00d6 1946     		mov	r1, r3
 1303 00d8 FFF7FEFF 		bl	_test_assert
 1304 00dc 0346     		mov	r3, r0
 1305 00de 002B     		cmp	r3, #0
 1306 00e0 01D0     		beq	.L20
 1307              		.loc 6 99 0 is_stmt 0 discriminator 1
 1308 00e2 00F03EBC 		b	.L13
 1309              	.L20:
 1310              		.loc 6 100 0 is_stmt 1
 1311 00e6 FFF7FEFF 		bl	chSysLock
 1312              		.loc 6 101 0
 1313 00ea 40F20000 		movw	r0, #:lower16:mb1
 1314 00ee C0F20000 		movt	r0, #:upper16:mb1
 1315 00f2 5821     		movs	r1, #88
 1316 00f4 FFF7FEFF 		bl	chMBPostI
 1317 00f8 0290     		str	r0, [sp, #8]
 1318              		.loc 6 102 0
 1319 00fa FFF7FEFF 		bl	chSysUnlock
ARM GAS  /tmp/cc4BmMZ0.s 			page 79


 1320              		.loc 6 103 0
 1321 00fe 029B     		ldr	r3, [sp, #8]
 1322 0100 B3F1FF3F 		cmp	r3, #-1
 1323 0104 14BF     		ite	ne
 1324 0106 0023     		movne	r3, #0
 1325 0108 0123     		moveq	r3, #1
 1326 010a DBB2     		uxtb	r3, r3
 1327 010c 0520     		movs	r0, #5
 1328 010e 1946     		mov	r1, r3
 1329 0110 FFF7FEFF 		bl	_test_assert
 1330 0114 0346     		mov	r3, r0
 1331 0116 002B     		cmp	r3, #0
 1332 0118 01D0     		beq	.L21
 1333              		.loc 6 103 0 is_stmt 0 discriminator 1
 1334 011a 00F022BC 		b	.L13
 1335              	.L21:
 1336              		.loc 6 104 0 is_stmt 1
 1337 011e 40F20000 		movw	r0, #:lower16:mb1
 1338 0122 C0F20000 		movt	r0, #:upper16:mb1
 1339 0126 5821     		movs	r1, #88
 1340 0128 0122     		movs	r2, #1
 1341 012a FFF7FEFF 		bl	chMBPostAhead
 1342 012e 0290     		str	r0, [sp, #8]
 1343              		.loc 6 105 0
 1344 0130 029B     		ldr	r3, [sp, #8]
 1345 0132 B3F1FF3F 		cmp	r3, #-1
 1346 0136 14BF     		ite	ne
 1347 0138 0023     		movne	r3, #0
 1348 013a 0123     		moveq	r3, #1
 1349 013c DBB2     		uxtb	r3, r3
 1350 013e 0620     		movs	r0, #6
 1351 0140 1946     		mov	r1, r3
 1352 0142 FFF7FEFF 		bl	_test_assert
 1353 0146 0346     		mov	r3, r0
 1354 0148 002B     		cmp	r3, #0
 1355 014a 01D0     		beq	.L22
 1356              		.loc 6 105 0 is_stmt 0 discriminator 1
 1357 014c 00F009BC 		b	.L13
 1358              	.L22:
 1359              		.loc 6 106 0 is_stmt 1
 1360 0150 FFF7FEFF 		bl	chSysLock
 1361              		.loc 6 107 0
 1362 0154 40F20000 		movw	r0, #:lower16:mb1
 1363 0158 C0F20000 		movt	r0, #:upper16:mb1
 1364 015c 5821     		movs	r1, #88
 1365 015e FFF7FEFF 		bl	chMBPostAheadI
 1366 0162 0290     		str	r0, [sp, #8]
 1367              		.loc 6 108 0
 1368 0164 FFF7FEFF 		bl	chSysUnlock
 1369              		.loc 6 109 0
 1370 0168 029B     		ldr	r3, [sp, #8]
 1371 016a B3F1FF3F 		cmp	r3, #-1
 1372 016e 14BF     		ite	ne
 1373 0170 0023     		movne	r3, #0
 1374 0172 0123     		moveq	r3, #1
 1375 0174 DBB2     		uxtb	r3, r3
 1376 0176 0720     		movs	r0, #7
ARM GAS  /tmp/cc4BmMZ0.s 			page 80


 1377 0178 1946     		mov	r1, r3
 1378 017a FFF7FEFF 		bl	_test_assert
 1379 017e 0346     		mov	r3, r0
 1380 0180 002B     		cmp	r3, #0
 1381 0182 00D0     		beq	.L23
 1382              		.loc 6 109 0 is_stmt 0 discriminator 1
 1383 0184 EDE3     		b	.L13
 1384              	.L23:
 1385              		.loc 6 114 0 is_stmt 1
 1386 0186 FFF7FEFF 		bl	chSysLock
 1387 018a 40F20000 		movw	r0, #:lower16:mb1
 1388 018e C0F20000 		movt	r0, #:upper16:mb1
 1389 0192 FFF7FEFF 		bl	chMBGetFreeCountI
 1390 0196 0346     		mov	r3, r0
 1391 0198 002B     		cmp	r3, #0
 1392 019a 14BF     		ite	ne
 1393 019c 0023     		movne	r3, #0
 1394 019e 0123     		moveq	r3, #1
 1395 01a0 DBB2     		uxtb	r3, r3
 1396 01a2 0820     		movs	r0, #8
 1397 01a4 1946     		mov	r1, r3
 1398 01a6 FFF7FEFF 		bl	_test_assert
 1399 01aa 0346     		mov	r3, r0
 1400 01ac 002B     		cmp	r3, #0
 1401 01ae 02D0     		beq	.L24
 1402              		.loc 6 114 0 is_stmt 0 discriminator 1
 1403 01b0 FFF7FEFF 		bl	chSysUnlock
 1404 01b4 D5E3     		b	.L13
 1405              	.L24:
 1406              		.loc 6 114 0 discriminator 2
 1407 01b6 FFF7FEFF 		bl	chSysUnlock
 1408              		.loc 6 115 0 is_stmt 1 discriminator 2
 1409 01ba FFF7FEFF 		bl	chSysLock
 1410 01be 40F20000 		movw	r0, #:lower16:mb1
 1411 01c2 C0F20000 		movt	r0, #:upper16:mb1
 1412 01c6 FFF7FEFF 		bl	chMBGetUsedCountI
 1413 01ca 0346     		mov	r3, r0
 1414 01cc 052B     		cmp	r3, #5
 1415 01ce 14BF     		ite	ne
 1416 01d0 0023     		movne	r3, #0
 1417 01d2 0123     		moveq	r3, #1
 1418 01d4 DBB2     		uxtb	r3, r3
 1419 01d6 0920     		movs	r0, #9
 1420 01d8 1946     		mov	r1, r3
 1421 01da FFF7FEFF 		bl	_test_assert
 1422 01de 0346     		mov	r3, r0
 1423 01e0 002B     		cmp	r3, #0
 1424 01e2 02D0     		beq	.L25
 1425              		.loc 6 115 0 is_stmt 0 discriminator 1
 1426 01e4 FFF7FEFF 		bl	chSysUnlock
 1427 01e8 BBE3     		b	.L13
 1428              	.L25:
 1429              		.loc 6 115 0 discriminator 2
 1430 01ea FFF7FEFF 		bl	chSysUnlock
 1431              		.loc 6 116 0 is_stmt 1 discriminator 2
 1432 01ee FFF7FEFF 		bl	chSysLock
 1433 01f2 40F20003 		movw	r3, #:lower16:mb1
ARM GAS  /tmp/cc4BmMZ0.s 			page 81


 1434 01f6 C0F20003 		movt	r3, #:upper16:mb1
 1435 01fa DA68     		ldr	r2, [r3, #12]
 1436 01fc 40F20003 		movw	r3, #:lower16:mb1
 1437 0200 C0F20003 		movt	r3, #:upper16:mb1
 1438 0204 9B68     		ldr	r3, [r3, #8]
 1439 0206 9A42     		cmp	r2, r3
 1440 0208 14BF     		ite	ne
 1441 020a 0023     		movne	r3, #0
 1442 020c 0123     		moveq	r3, #1
 1443 020e DBB2     		uxtb	r3, r3
 1444 0210 0A20     		movs	r0, #10
 1445 0212 1946     		mov	r1, r3
 1446 0214 FFF7FEFF 		bl	_test_assert
 1447 0218 0346     		mov	r3, r0
 1448 021a 002B     		cmp	r3, #0
 1449 021c 02D0     		beq	.L26
 1450              		.loc 6 116 0 is_stmt 0 discriminator 1
 1451 021e FFF7FEFF 		bl	chSysUnlock
 1452 0222 9EE3     		b	.L13
 1453              	.L26:
 1454              		.loc 6 116 0 discriminator 2
 1455 0224 FFF7FEFF 		bl	chSysUnlock
 1456              		.loc 6 121 0 is_stmt 1 discriminator 2
 1457 0228 0023     		movs	r3, #0
 1458 022a 0393     		str	r3, [sp, #12]
 1459 022c 20E0     		b	.L27
 1460              	.L29:
 1461              		.loc 6 122 0
 1462 022e 01AB     		add	r3, sp, #4
 1463 0230 40F20000 		movw	r0, #:lower16:mb1
 1464 0234 C0F20000 		movt	r0, #:upper16:mb1
 1465 0238 1946     		mov	r1, r3
 1466 023a 4FF0FF32 		mov	r2, #-1
 1467 023e FFF7FEFF 		bl	chMBFetch
 1468 0242 0290     		str	r0, [sp, #8]
 1469              		.loc 6 123 0
 1470 0244 029B     		ldr	r3, [sp, #8]
 1471 0246 002B     		cmp	r3, #0
 1472 0248 14BF     		ite	ne
 1473 024a 0023     		movne	r3, #0
 1474 024c 0123     		moveq	r3, #1
 1475 024e DBB2     		uxtb	r3, r3
 1476 0250 0B20     		movs	r0, #11
 1477 0252 1946     		mov	r1, r3
 1478 0254 FFF7FEFF 		bl	_test_assert
 1479 0258 0346     		mov	r3, r0
 1480 025a 002B     		cmp	r3, #0
 1481 025c 00D0     		beq	.L28
 1482              		.loc 6 123 0 is_stmt 0 discriminator 1
 1483 025e 80E3     		b	.L13
 1484              	.L28:
 1485              		.loc 6 124 0 is_stmt 1
 1486 0260 019B     		ldr	r3, [sp, #4]
 1487 0262 DBB2     		uxtb	r3, r3
 1488 0264 1846     		mov	r0, r3
 1489 0266 FFF7FEFF 		bl	test_emit_token
 1490              		.loc 6 121 0
ARM GAS  /tmp/cc4BmMZ0.s 			page 82


 1491 026a 039B     		ldr	r3, [sp, #12]
 1492 026c 0133     		adds	r3, r3, #1
 1493 026e 0393     		str	r3, [sp, #12]
 1494              	.L27:
 1495              		.loc 6 121 0 is_stmt 0 discriminator 1
 1496 0270 039B     		ldr	r3, [sp, #12]
 1497 0272 042B     		cmp	r3, #4
 1498 0274 DBD9     		bls	.L29
 1499              		.loc 6 126 0 is_stmt 1
 1500 0276 0C20     		movs	r0, #12
 1501 0278 40F20001 		movw	r1, #:lower16:.LC0
 1502 027c C0F20001 		movt	r1, #:upper16:.LC0
 1503 0280 FFF7FEFF 		bl	_test_assert_sequence
 1504 0284 0346     		mov	r3, r0
 1505 0286 002B     		cmp	r3, #0
 1506 0288 00D0     		beq	.L30
 1507              		.loc 6 126 0 is_stmt 0 discriminator 1
 1508 028a 6AE3     		b	.L13
 1509              	.L30:
 1510              		.loc 6 131 0 is_stmt 1
 1511 028c 039B     		ldr	r3, [sp, #12]
 1512 028e 4233     		adds	r3, r3, #66
 1513 0290 40F20000 		movw	r0, #:lower16:mb1
 1514 0294 C0F20000 		movt	r0, #:upper16:mb1
 1515 0298 1946     		mov	r1, r3
 1516 029a 4FF0FF32 		mov	r2, #-1
 1517 029e FFF7FEFF 		bl	chMBPost
 1518 02a2 0290     		str	r0, [sp, #8]
 1519              		.loc 6 132 0
 1520 02a4 029B     		ldr	r3, [sp, #8]
 1521 02a6 002B     		cmp	r3, #0
 1522 02a8 14BF     		ite	ne
 1523 02aa 0023     		movne	r3, #0
 1524 02ac 0123     		moveq	r3, #1
 1525 02ae DBB2     		uxtb	r3, r3
 1526 02b0 0D20     		movs	r0, #13
 1527 02b2 1946     		mov	r1, r3
 1528 02b4 FFF7FEFF 		bl	_test_assert
 1529 02b8 0346     		mov	r3, r0
 1530 02ba 002B     		cmp	r3, #0
 1531 02bc 00D0     		beq	.L31
 1532              		.loc 6 132 0 is_stmt 0 discriminator 1
 1533 02be 50E3     		b	.L13
 1534              	.L31:
 1535              		.loc 6 133 0 is_stmt 1
 1536 02c0 01AB     		add	r3, sp, #4
 1537 02c2 40F20000 		movw	r0, #:lower16:mb1
 1538 02c6 C0F20000 		movt	r0, #:upper16:mb1
 1539 02ca 1946     		mov	r1, r3
 1540 02cc 4FF0FF32 		mov	r2, #-1
 1541 02d0 FFF7FEFF 		bl	chMBFetch
 1542 02d4 0290     		str	r0, [sp, #8]
 1543              		.loc 6 134 0
 1544 02d6 029B     		ldr	r3, [sp, #8]
 1545 02d8 002B     		cmp	r3, #0
 1546 02da 14BF     		ite	ne
 1547 02dc 0023     		movne	r3, #0
ARM GAS  /tmp/cc4BmMZ0.s 			page 83


 1548 02de 0123     		moveq	r3, #1
 1549 02e0 DBB2     		uxtb	r3, r3
 1550 02e2 0E20     		movs	r0, #14
 1551 02e4 1946     		mov	r1, r3
 1552 02e6 FFF7FEFF 		bl	_test_assert
 1553 02ea 0346     		mov	r3, r0
 1554 02ec 002B     		cmp	r3, #0
 1555 02ee 00D0     		beq	.L32
 1556              		.loc 6 134 0 is_stmt 0 discriminator 1
 1557 02f0 37E3     		b	.L13
 1558              	.L32:
 1559              		.loc 6 135 0 is_stmt 1
 1560 02f2 40F20003 		movw	r3, #:lower16:mb1
 1561 02f6 C0F20003 		movt	r3, #:upper16:mb1
 1562 02fa 1A68     		ldr	r2, [r3]
 1563 02fc 40F20003 		movw	r3, #:lower16:mb1
 1564 0300 C0F20003 		movt	r3, #:upper16:mb1
 1565 0304 9B68     		ldr	r3, [r3, #8]
 1566 0306 9A42     		cmp	r2, r3
 1567 0308 14BF     		ite	ne
 1568 030a 0023     		movne	r3, #0
 1569 030c 0123     		moveq	r3, #1
 1570 030e DBB2     		uxtb	r3, r3
 1571 0310 0F20     		movs	r0, #15
 1572 0312 1946     		mov	r1, r3
 1573 0314 FFF7FEFF 		bl	_test_assert
 1574 0318 0346     		mov	r3, r0
 1575 031a 002B     		cmp	r3, #0
 1576 031c 00D0     		beq	.L33
 1577              		.loc 6 135 0 is_stmt 0 discriminator 1
 1578 031e 20E3     		b	.L13
 1579              	.L33:
 1580              		.loc 6 136 0 is_stmt 1
 1581 0320 40F20003 		movw	r3, #:lower16:mb1
 1582 0324 C0F20003 		movt	r3, #:upper16:mb1
 1583 0328 1A68     		ldr	r2, [r3]
 1584 032a 40F20003 		movw	r3, #:lower16:mb1
 1585 032e C0F20003 		movt	r3, #:upper16:mb1
 1586 0332 DB68     		ldr	r3, [r3, #12]
 1587 0334 9A42     		cmp	r2, r3
 1588 0336 14BF     		ite	ne
 1589 0338 0023     		movne	r3, #0
 1590 033a 0123     		moveq	r3, #1
 1591 033c DBB2     		uxtb	r3, r3
 1592 033e 1020     		movs	r0, #16
 1593 0340 1946     		mov	r1, r3
 1594 0342 FFF7FEFF 		bl	_test_assert
 1595 0346 0346     		mov	r3, r0
 1596 0348 002B     		cmp	r3, #0
 1597 034a 00D0     		beq	.L34
 1598              		.loc 6 136 0 is_stmt 0 discriminator 1
 1599 034c 09E3     		b	.L13
 1600              	.L34:
 1601              		.loc 6 141 0 is_stmt 1
 1602 034e 01AB     		add	r3, sp, #4
 1603 0350 40F20000 		movw	r0, #:lower16:mb1
 1604 0354 C0F20000 		movt	r0, #:upper16:mb1
ARM GAS  /tmp/cc4BmMZ0.s 			page 84


 1605 0358 1946     		mov	r1, r3
 1606 035a 0122     		movs	r2, #1
 1607 035c FFF7FEFF 		bl	chMBFetch
 1608 0360 0290     		str	r0, [sp, #8]
 1609              		.loc 6 142 0
 1610 0362 029B     		ldr	r3, [sp, #8]
 1611 0364 B3F1FF3F 		cmp	r3, #-1
 1612 0368 14BF     		ite	ne
 1613 036a 0023     		movne	r3, #0
 1614 036c 0123     		moveq	r3, #1
 1615 036e DBB2     		uxtb	r3, r3
 1616 0370 1120     		movs	r0, #17
 1617 0372 1946     		mov	r1, r3
 1618 0374 FFF7FEFF 		bl	_test_assert
 1619 0378 0346     		mov	r3, r0
 1620 037a 002B     		cmp	r3, #0
 1621 037c 00D0     		beq	.L35
 1622              		.loc 6 142 0 is_stmt 0 discriminator 1
 1623 037e F0E2     		b	.L13
 1624              	.L35:
 1625              		.loc 6 143 0 is_stmt 1
 1626 0380 FFF7FEFF 		bl	chSysLock
 1627              		.loc 6 144 0
 1628 0384 01AB     		add	r3, sp, #4
 1629 0386 40F20000 		movw	r0, #:lower16:mb1
 1630 038a C0F20000 		movt	r0, #:upper16:mb1
 1631 038e 1946     		mov	r1, r3
 1632 0390 FFF7FEFF 		bl	chMBFetchI
 1633 0394 0290     		str	r0, [sp, #8]
 1634              		.loc 6 145 0
 1635 0396 FFF7FEFF 		bl	chSysUnlock
 1636              		.loc 6 146 0
 1637 039a 029B     		ldr	r3, [sp, #8]
 1638 039c B3F1FF3F 		cmp	r3, #-1
 1639 03a0 14BF     		ite	ne
 1640 03a2 0023     		movne	r3, #0
 1641 03a4 0123     		moveq	r3, #1
 1642 03a6 DBB2     		uxtb	r3, r3
 1643 03a8 1220     		movs	r0, #18
 1644 03aa 1946     		mov	r1, r3
 1645 03ac FFF7FEFF 		bl	_test_assert
 1646 03b0 0346     		mov	r3, r0
 1647 03b2 002B     		cmp	r3, #0
 1648 03b4 00D0     		beq	.L36
 1649              		.loc 6 146 0 is_stmt 0 discriminator 1
 1650 03b6 D4E2     		b	.L13
 1651              	.L36:
 1652              		.loc 6 151 0 is_stmt 1
 1653 03b8 FFF7FEFF 		bl	chSysLock
 1654 03bc 40F20000 		movw	r0, #:lower16:mb1
 1655 03c0 C0F20000 		movt	r0, #:upper16:mb1
 1656 03c4 FFF7FEFF 		bl	chMBGetFreeCountI
 1657 03c8 0346     		mov	r3, r0
 1658 03ca 052B     		cmp	r3, #5
 1659 03cc 14BF     		ite	ne
 1660 03ce 0023     		movne	r3, #0
 1661 03d0 0123     		moveq	r3, #1
ARM GAS  /tmp/cc4BmMZ0.s 			page 85


 1662 03d2 DBB2     		uxtb	r3, r3
 1663 03d4 1320     		movs	r0, #19
 1664 03d6 1946     		mov	r1, r3
 1665 03d8 FFF7FEFF 		bl	_test_assert
 1666 03dc 0346     		mov	r3, r0
 1667 03de 002B     		cmp	r3, #0
 1668 03e0 02D0     		beq	.L37
 1669              		.loc 6 151 0 is_stmt 0 discriminator 1
 1670 03e2 FFF7FEFF 		bl	chSysUnlock
 1671 03e6 BCE2     		b	.L13
 1672              	.L37:
 1673              		.loc 6 151 0 discriminator 2
 1674 03e8 FFF7FEFF 		bl	chSysUnlock
 1675              		.loc 6 152 0 is_stmt 1 discriminator 2
 1676 03ec FFF7FEFF 		bl	chSysLock
 1677 03f0 40F20000 		movw	r0, #:lower16:mb1
 1678 03f4 C0F20000 		movt	r0, #:upper16:mb1
 1679 03f8 FFF7FEFF 		bl	chMBGetUsedCountI
 1680 03fc 0346     		mov	r3, r0
 1681 03fe 002B     		cmp	r3, #0
 1682 0400 14BF     		ite	ne
 1683 0402 0023     		movne	r3, #0
 1684 0404 0123     		moveq	r3, #1
 1685 0406 DBB2     		uxtb	r3, r3
 1686 0408 1420     		movs	r0, #20
 1687 040a 1946     		mov	r1, r3
 1688 040c FFF7FEFF 		bl	_test_assert
 1689 0410 0346     		mov	r3, r0
 1690 0412 002B     		cmp	r3, #0
 1691 0414 02D0     		beq	.L38
 1692              		.loc 6 152 0 is_stmt 0 discriminator 1
 1693 0416 FFF7FEFF 		bl	chSysUnlock
 1694 041a A2E2     		b	.L13
 1695              	.L38:
 1696              		.loc 6 152 0 discriminator 2
 1697 041c FFF7FEFF 		bl	chSysUnlock
 1698              		.loc 6 153 0 is_stmt 1 discriminator 2
 1699 0420 FFF7FEFF 		bl	chSysLock
 1700 0424 40F20003 		movw	r3, #:lower16:mb1
 1701 0428 C0F20003 		movt	r3, #:upper16:mb1
 1702 042c DA68     		ldr	r2, [r3, #12]
 1703 042e 40F20003 		movw	r3, #:lower16:mb1
 1704 0432 C0F20003 		movt	r3, #:upper16:mb1
 1705 0436 9B68     		ldr	r3, [r3, #8]
 1706 0438 9A42     		cmp	r2, r3
 1707 043a 14BF     		ite	ne
 1708 043c 0023     		movne	r3, #0
 1709 043e 0123     		moveq	r3, #1
 1710 0440 DBB2     		uxtb	r3, r3
 1711 0442 1520     		movs	r0, #21
 1712 0444 1946     		mov	r1, r3
 1713 0446 FFF7FEFF 		bl	_test_assert
 1714 044a 0346     		mov	r3, r0
 1715 044c 002B     		cmp	r3, #0
 1716 044e 02D0     		beq	.L39
 1717              		.loc 6 153 0 is_stmt 0 discriminator 1
 1718 0450 FFF7FEFF 		bl	chSysUnlock
ARM GAS  /tmp/cc4BmMZ0.s 			page 86


 1719 0454 85E2     		b	.L13
 1720              	.L39:
 1721              		.loc 6 153 0 discriminator 2
 1722 0456 FFF7FEFF 		bl	chSysUnlock
 1723              		.loc 6 158 0 is_stmt 1 discriminator 2
 1724 045a FFF7FEFF 		bl	chSysLock
 1725              		.loc 6 159 0 discriminator 2
 1726 045e 40F20000 		movw	r0, #:lower16:mb1
 1727 0462 C0F20000 		movt	r0, #:upper16:mb1
 1728 0466 4121     		movs	r1, #65
 1729 0468 FFF7FEFF 		bl	chMBPostI
 1730 046c 0290     		str	r0, [sp, #8]
 1731              		.loc 6 160 0 discriminator 2
 1732 046e 029B     		ldr	r3, [sp, #8]
 1733 0470 002B     		cmp	r3, #0
 1734 0472 14BF     		ite	ne
 1735 0474 0023     		movne	r3, #0
 1736 0476 0123     		moveq	r3, #1
 1737 0478 DBB2     		uxtb	r3, r3
 1738 047a 1620     		movs	r0, #22
 1739 047c 1946     		mov	r1, r3
 1740 047e FFF7FEFF 		bl	_test_assert
 1741 0482 0346     		mov	r3, r0
 1742 0484 002B     		cmp	r3, #0
 1743 0486 00D0     		beq	.L40
 1744              		.loc 6 160 0 is_stmt 0 discriminator 1
 1745 0488 6BE2     		b	.L13
 1746              	.L40:
 1747              		.loc 6 161 0 is_stmt 1
 1748 048a 40F20000 		movw	r0, #:lower16:mb1
 1749 048e C0F20000 		movt	r0, #:upper16:mb1
 1750 0492 4221     		movs	r1, #66
 1751 0494 FFF7FEFF 		bl	chMBPostI
 1752 0498 0290     		str	r0, [sp, #8]
 1753              		.loc 6 162 0
 1754 049a 029B     		ldr	r3, [sp, #8]
 1755 049c 002B     		cmp	r3, #0
 1756 049e 14BF     		ite	ne
 1757 04a0 0023     		movne	r3, #0
 1758 04a2 0123     		moveq	r3, #1
 1759 04a4 DBB2     		uxtb	r3, r3
 1760 04a6 1720     		movs	r0, #23
 1761 04a8 1946     		mov	r1, r3
 1762 04aa FFF7FEFF 		bl	_test_assert
 1763 04ae 0346     		mov	r3, r0
 1764 04b0 002B     		cmp	r3, #0
 1765 04b2 00D0     		beq	.L41
 1766              		.loc 6 162 0 is_stmt 0 discriminator 1
 1767 04b4 55E2     		b	.L13
 1768              	.L41:
 1769              		.loc 6 163 0 is_stmt 1
 1770 04b6 40F20000 		movw	r0, #:lower16:mb1
 1771 04ba C0F20000 		movt	r0, #:upper16:mb1
 1772 04be 4321     		movs	r1, #67
 1773 04c0 FFF7FEFF 		bl	chMBPostI
 1774 04c4 0290     		str	r0, [sp, #8]
 1775              		.loc 6 164 0
ARM GAS  /tmp/cc4BmMZ0.s 			page 87


 1776 04c6 029B     		ldr	r3, [sp, #8]
 1777 04c8 002B     		cmp	r3, #0
 1778 04ca 14BF     		ite	ne
 1779 04cc 0023     		movne	r3, #0
 1780 04ce 0123     		moveq	r3, #1
 1781 04d0 DBB2     		uxtb	r3, r3
 1782 04d2 1820     		movs	r0, #24
 1783 04d4 1946     		mov	r1, r3
 1784 04d6 FFF7FEFF 		bl	_test_assert
 1785 04da 0346     		mov	r3, r0
 1786 04dc 002B     		cmp	r3, #0
 1787 04de 00D0     		beq	.L42
 1788              		.loc 6 164 0 is_stmt 0 discriminator 1
 1789 04e0 3FE2     		b	.L13
 1790              	.L42:
 1791              		.loc 6 165 0 is_stmt 1
 1792 04e2 40F20000 		movw	r0, #:lower16:mb1
 1793 04e6 C0F20000 		movt	r0, #:upper16:mb1
 1794 04ea 4421     		movs	r1, #68
 1795 04ec FFF7FEFF 		bl	chMBPostI
 1796 04f0 0290     		str	r0, [sp, #8]
 1797              		.loc 6 166 0
 1798 04f2 029B     		ldr	r3, [sp, #8]
 1799 04f4 002B     		cmp	r3, #0
 1800 04f6 14BF     		ite	ne
 1801 04f8 0023     		movne	r3, #0
 1802 04fa 0123     		moveq	r3, #1
 1803 04fc DBB2     		uxtb	r3, r3
 1804 04fe 1920     		movs	r0, #25
 1805 0500 1946     		mov	r1, r3
 1806 0502 FFF7FEFF 		bl	_test_assert
 1807 0506 0346     		mov	r3, r0
 1808 0508 002B     		cmp	r3, #0
 1809 050a 00D0     		beq	.L43
 1810              		.loc 6 166 0 is_stmt 0 discriminator 1
 1811 050c 29E2     		b	.L13
 1812              	.L43:
 1813              		.loc 6 167 0 is_stmt 1
 1814 050e 40F20000 		movw	r0, #:lower16:mb1
 1815 0512 C0F20000 		movt	r0, #:upper16:mb1
 1816 0516 4521     		movs	r1, #69
 1817 0518 FFF7FEFF 		bl	chMBPostI
 1818 051c 0290     		str	r0, [sp, #8]
 1819              		.loc 6 168 0
 1820 051e FFF7FEFF 		bl	chSysUnlock
 1821              		.loc 6 169 0
 1822 0522 029B     		ldr	r3, [sp, #8]
 1823 0524 002B     		cmp	r3, #0
 1824 0526 14BF     		ite	ne
 1825 0528 0023     		movne	r3, #0
 1826 052a 0123     		moveq	r3, #1
 1827 052c DBB2     		uxtb	r3, r3
 1828 052e 1A20     		movs	r0, #26
 1829 0530 1946     		mov	r1, r3
 1830 0532 FFF7FEFF 		bl	_test_assert
 1831 0536 0346     		mov	r3, r0
 1832 0538 002B     		cmp	r3, #0
ARM GAS  /tmp/cc4BmMZ0.s 			page 88


 1833 053a 00D0     		beq	.L44
 1834              		.loc 6 169 0 is_stmt 0 discriminator 1
 1835 053c 11E2     		b	.L13
 1836              	.L44:
 1837              		.loc 6 170 0 is_stmt 1
 1838 053e 40F20003 		movw	r3, #:lower16:mb1
 1839 0542 C0F20003 		movt	r3, #:upper16:mb1
 1840 0546 DA68     		ldr	r2, [r3, #12]
 1841 0548 40F20003 		movw	r3, #:lower16:mb1
 1842 054c C0F20003 		movt	r3, #:upper16:mb1
 1843 0550 9B68     		ldr	r3, [r3, #8]
 1844 0552 9A42     		cmp	r2, r3
 1845 0554 14BF     		ite	ne
 1846 0556 0023     		movne	r3, #0
 1847 0558 0123     		moveq	r3, #1
 1848 055a DBB2     		uxtb	r3, r3
 1849 055c 1B20     		movs	r0, #27
 1850 055e 1946     		mov	r1, r3
 1851 0560 FFF7FEFF 		bl	_test_assert
 1852 0564 0346     		mov	r3, r0
 1853 0566 002B     		cmp	r3, #0
 1854 0568 00D0     		beq	.L45
 1855              		.loc 6 170 0 is_stmt 0 discriminator 1
 1856 056a FAE1     		b	.L13
 1857              	.L45:
 1858              		.loc 6 171 0 is_stmt 1
 1859 056c 0023     		movs	r3, #0
 1860 056e 0393     		str	r3, [sp, #12]
 1861 0570 22E0     		b	.L46
 1862              	.L48:
 1863              		.loc 6 172 0
 1864 0572 FFF7FEFF 		bl	chSysLock
 1865              		.loc 6 173 0
 1866 0576 01AB     		add	r3, sp, #4
 1867 0578 40F20000 		movw	r0, #:lower16:mb1
 1868 057c C0F20000 		movt	r0, #:upper16:mb1
 1869 0580 1946     		mov	r1, r3
 1870 0582 FFF7FEFF 		bl	chMBFetchI
 1871 0586 0290     		str	r0, [sp, #8]
 1872              		.loc 6 174 0
 1873 0588 FFF7FEFF 		bl	chSysUnlock
 1874              		.loc 6 175 0
 1875 058c 029B     		ldr	r3, [sp, #8]
 1876 058e 002B     		cmp	r3, #0
 1877 0590 14BF     		ite	ne
 1878 0592 0023     		movne	r3, #0
 1879 0594 0123     		moveq	r3, #1
 1880 0596 DBB2     		uxtb	r3, r3
 1881 0598 1C20     		movs	r0, #28
 1882 059a 1946     		mov	r1, r3
 1883 059c FFF7FEFF 		bl	_test_assert
 1884 05a0 0346     		mov	r3, r0
 1885 05a2 002B     		cmp	r3, #0
 1886 05a4 00D0     		beq	.L47
 1887              		.loc 6 175 0 is_stmt 0 discriminator 1
 1888 05a6 DCE1     		b	.L13
 1889              	.L47:
ARM GAS  /tmp/cc4BmMZ0.s 			page 89


 1890              		.loc 6 176 0 is_stmt 1
 1891 05a8 019B     		ldr	r3, [sp, #4]
 1892 05aa DBB2     		uxtb	r3, r3
 1893 05ac 1846     		mov	r0, r3
 1894 05ae FFF7FEFF 		bl	test_emit_token
 1895              		.loc 6 171 0
 1896 05b2 039B     		ldr	r3, [sp, #12]
 1897 05b4 0133     		adds	r3, r3, #1
 1898 05b6 0393     		str	r3, [sp, #12]
 1899              	.L46:
 1900              		.loc 6 171 0 is_stmt 0 discriminator 1
 1901 05b8 039B     		ldr	r3, [sp, #12]
 1902 05ba 042B     		cmp	r3, #4
 1903 05bc D9D9     		bls	.L48
 1904              		.loc 6 178 0 is_stmt 1
 1905 05be 1D20     		movs	r0, #29
 1906 05c0 40F20001 		movw	r1, #:lower16:.LC0
 1907 05c4 C0F20001 		movt	r1, #:upper16:.LC0
 1908 05c8 FFF7FEFF 		bl	_test_assert_sequence
 1909 05cc 0346     		mov	r3, r0
 1910 05ce 002B     		cmp	r3, #0
 1911 05d0 00D0     		beq	.L49
 1912              		.loc 6 178 0 is_stmt 0 discriminator 1
 1913 05d2 C6E1     		b	.L13
 1914              	.L49:
 1915              		.loc 6 179 0 is_stmt 1
 1916 05d4 FFF7FEFF 		bl	chSysLock
 1917 05d8 40F20000 		movw	r0, #:lower16:mb1
 1918 05dc C0F20000 		movt	r0, #:upper16:mb1
 1919 05e0 FFF7FEFF 		bl	chMBGetFreeCountI
 1920 05e4 0346     		mov	r3, r0
 1921 05e6 052B     		cmp	r3, #5
 1922 05e8 14BF     		ite	ne
 1923 05ea 0023     		movne	r3, #0
 1924 05ec 0123     		moveq	r3, #1
 1925 05ee DBB2     		uxtb	r3, r3
 1926 05f0 1E20     		movs	r0, #30
 1927 05f2 1946     		mov	r1, r3
 1928 05f4 FFF7FEFF 		bl	_test_assert
 1929 05f8 0346     		mov	r3, r0
 1930 05fa 002B     		cmp	r3, #0
 1931 05fc 02D0     		beq	.L50
 1932              		.loc 6 179 0 is_stmt 0 discriminator 1
 1933 05fe FFF7FEFF 		bl	chSysUnlock
 1934 0602 AEE1     		b	.L13
 1935              	.L50:
 1936              		.loc 6 179 0 discriminator 2
 1937 0604 FFF7FEFF 		bl	chSysUnlock
 1938              		.loc 6 180 0 is_stmt 1 discriminator 2
 1939 0608 FFF7FEFF 		bl	chSysLock
 1940 060c 40F20000 		movw	r0, #:lower16:mb1
 1941 0610 C0F20000 		movt	r0, #:upper16:mb1
 1942 0614 FFF7FEFF 		bl	chMBGetUsedCountI
 1943 0618 0346     		mov	r3, r0
 1944 061a 002B     		cmp	r3, #0
 1945 061c 14BF     		ite	ne
 1946 061e 0023     		movne	r3, #0
ARM GAS  /tmp/cc4BmMZ0.s 			page 90


 1947 0620 0123     		moveq	r3, #1
 1948 0622 DBB2     		uxtb	r3, r3
 1949 0624 1F20     		movs	r0, #31
 1950 0626 1946     		mov	r1, r3
 1951 0628 FFF7FEFF 		bl	_test_assert
 1952 062c 0346     		mov	r3, r0
 1953 062e 002B     		cmp	r3, #0
 1954 0630 02D0     		beq	.L51
 1955              		.loc 6 180 0 is_stmt 0 discriminator 1
 1956 0632 FFF7FEFF 		bl	chSysUnlock
 1957 0636 94E1     		b	.L13
 1958              	.L51:
 1959              		.loc 6 180 0 discriminator 2
 1960 0638 FFF7FEFF 		bl	chSysUnlock
 1961              		.loc 6 181 0 is_stmt 1 discriminator 2
 1962 063c 40F20003 		movw	r3, #:lower16:mb1
 1963 0640 C0F20003 		movt	r3, #:upper16:mb1
 1964 0644 DA68     		ldr	r2, [r3, #12]
 1965 0646 40F20003 		movw	r3, #:lower16:mb1
 1966 064a C0F20003 		movt	r3, #:upper16:mb1
 1967 064e 9B68     		ldr	r3, [r3, #8]
 1968 0650 9A42     		cmp	r2, r3
 1969 0652 14BF     		ite	ne
 1970 0654 0023     		movne	r3, #0
 1971 0656 0123     		moveq	r3, #1
 1972 0658 DBB2     		uxtb	r3, r3
 1973 065a 2020     		movs	r0, #32
 1974 065c 1946     		mov	r1, r3
 1975 065e FFF7FEFF 		bl	_test_assert
 1976 0662 0346     		mov	r3, r0
 1977 0664 002B     		cmp	r3, #0
 1978 0666 00D0     		beq	.L52
 1979              		.loc 6 181 0 is_stmt 0 discriminator 1
 1980 0668 7BE1     		b	.L13
 1981              	.L52:
 1982              		.loc 6 183 0 is_stmt 1
 1983 066a FFF7FEFF 		bl	chSysLock
 1984              		.loc 6 184 0
 1985 066e 40F20000 		movw	r0, #:lower16:mb1
 1986 0672 C0F20000 		movt	r0, #:upper16:mb1
 1987 0676 4521     		movs	r1, #69
 1988 0678 FFF7FEFF 		bl	chMBPostAheadI
 1989 067c 0290     		str	r0, [sp, #8]
 1990              		.loc 6 185 0
 1991 067e 029B     		ldr	r3, [sp, #8]
 1992 0680 002B     		cmp	r3, #0
 1993 0682 14BF     		ite	ne
 1994 0684 0023     		movne	r3, #0
 1995 0686 0123     		moveq	r3, #1
 1996 0688 DBB2     		uxtb	r3, r3
 1997 068a 2120     		movs	r0, #33
 1998 068c 1946     		mov	r1, r3
 1999 068e FFF7FEFF 		bl	_test_assert
 2000 0692 0346     		mov	r3, r0
 2001 0694 002B     		cmp	r3, #0
 2002 0696 00D0     		beq	.L53
 2003              		.loc 6 185 0 is_stmt 0 discriminator 1
ARM GAS  /tmp/cc4BmMZ0.s 			page 91


 2004 0698 63E1     		b	.L13
 2005              	.L53:
 2006              		.loc 6 186 0 is_stmt 1
 2007 069a 40F20000 		movw	r0, #:lower16:mb1
 2008 069e C0F20000 		movt	r0, #:upper16:mb1
 2009 06a2 4421     		movs	r1, #68
 2010 06a4 FFF7FEFF 		bl	chMBPostAheadI
 2011 06a8 0290     		str	r0, [sp, #8]
 2012              		.loc 6 187 0
 2013 06aa 029B     		ldr	r3, [sp, #8]
 2014 06ac 002B     		cmp	r3, #0
 2015 06ae 14BF     		ite	ne
 2016 06b0 0023     		movne	r3, #0
 2017 06b2 0123     		moveq	r3, #1
 2018 06b4 DBB2     		uxtb	r3, r3
 2019 06b6 2220     		movs	r0, #34
 2020 06b8 1946     		mov	r1, r3
 2021 06ba FFF7FEFF 		bl	_test_assert
 2022 06be 0346     		mov	r3, r0
 2023 06c0 002B     		cmp	r3, #0
 2024 06c2 00D0     		beq	.L54
 2025              		.loc 6 187 0 is_stmt 0 discriminator 1
 2026 06c4 4DE1     		b	.L13
 2027              	.L54:
 2028              		.loc 6 188 0 is_stmt 1
 2029 06c6 40F20000 		movw	r0, #:lower16:mb1
 2030 06ca C0F20000 		movt	r0, #:upper16:mb1
 2031 06ce 4321     		movs	r1, #67
 2032 06d0 FFF7FEFF 		bl	chMBPostAheadI
 2033 06d4 0290     		str	r0, [sp, #8]
 2034              		.loc 6 189 0
 2035 06d6 029B     		ldr	r3, [sp, #8]
 2036 06d8 002B     		cmp	r3, #0
 2037 06da 14BF     		ite	ne
 2038 06dc 0023     		movne	r3, #0
 2039 06de 0123     		moveq	r3, #1
 2040 06e0 DBB2     		uxtb	r3, r3
 2041 06e2 2320     		movs	r0, #35
 2042 06e4 1946     		mov	r1, r3
 2043 06e6 FFF7FEFF 		bl	_test_assert
 2044 06ea 0346     		mov	r3, r0
 2045 06ec 002B     		cmp	r3, #0
 2046 06ee 00D0     		beq	.L55
 2047              		.loc 6 189 0 is_stmt 0 discriminator 1
 2048 06f0 37E1     		b	.L13
 2049              	.L55:
 2050              		.loc 6 190 0 is_stmt 1
 2051 06f2 40F20000 		movw	r0, #:lower16:mb1
 2052 06f6 C0F20000 		movt	r0, #:upper16:mb1
 2053 06fa 4221     		movs	r1, #66
 2054 06fc FFF7FEFF 		bl	chMBPostAheadI
 2055 0700 0290     		str	r0, [sp, #8]
 2056              		.loc 6 191 0
 2057 0702 029B     		ldr	r3, [sp, #8]
 2058 0704 002B     		cmp	r3, #0
 2059 0706 14BF     		ite	ne
 2060 0708 0023     		movne	r3, #0
ARM GAS  /tmp/cc4BmMZ0.s 			page 92


 2061 070a 0123     		moveq	r3, #1
 2062 070c DBB2     		uxtb	r3, r3
 2063 070e 2420     		movs	r0, #36
 2064 0710 1946     		mov	r1, r3
 2065 0712 FFF7FEFF 		bl	_test_assert
 2066 0716 0346     		mov	r3, r0
 2067 0718 002B     		cmp	r3, #0
 2068 071a 00D0     		beq	.L56
 2069              		.loc 6 191 0 is_stmt 0 discriminator 1
 2070 071c 21E1     		b	.L13
 2071              	.L56:
 2072              		.loc 6 192 0 is_stmt 1
 2073 071e 40F20000 		movw	r0, #:lower16:mb1
 2074 0722 C0F20000 		movt	r0, #:upper16:mb1
 2075 0726 4121     		movs	r1, #65
 2076 0728 FFF7FEFF 		bl	chMBPostAheadI
 2077 072c 0290     		str	r0, [sp, #8]
 2078              		.loc 6 193 0
 2079 072e FFF7FEFF 		bl	chSysUnlock
 2080              		.loc 6 194 0
 2081 0732 029B     		ldr	r3, [sp, #8]
 2082 0734 002B     		cmp	r3, #0
 2083 0736 14BF     		ite	ne
 2084 0738 0023     		movne	r3, #0
 2085 073a 0123     		moveq	r3, #1
 2086 073c DBB2     		uxtb	r3, r3
 2087 073e 2520     		movs	r0, #37
 2088 0740 1946     		mov	r1, r3
 2089 0742 FFF7FEFF 		bl	_test_assert
 2090 0746 0346     		mov	r3, r0
 2091 0748 002B     		cmp	r3, #0
 2092 074a 00D0     		beq	.L57
 2093              		.loc 6 194 0 is_stmt 0 discriminator 1
 2094 074c 09E1     		b	.L13
 2095              	.L57:
 2096              		.loc 6 195 0 is_stmt 1
 2097 074e 40F20003 		movw	r3, #:lower16:mb1
 2098 0752 C0F20003 		movt	r3, #:upper16:mb1
 2099 0756 DA68     		ldr	r2, [r3, #12]
 2100 0758 40F20003 		movw	r3, #:lower16:mb1
 2101 075c C0F20003 		movt	r3, #:upper16:mb1
 2102 0760 9B68     		ldr	r3, [r3, #8]
 2103 0762 9A42     		cmp	r2, r3
 2104 0764 14BF     		ite	ne
 2105 0766 0023     		movne	r3, #0
 2106 0768 0123     		moveq	r3, #1
 2107 076a DBB2     		uxtb	r3, r3
 2108 076c 2620     		movs	r0, #38
 2109 076e 1946     		mov	r1, r3
 2110 0770 FFF7FEFF 		bl	_test_assert
 2111 0774 0346     		mov	r3, r0
 2112 0776 002B     		cmp	r3, #0
 2113 0778 00D0     		beq	.L58
 2114              		.loc 6 195 0 is_stmt 0 discriminator 1
 2115 077a F2E0     		b	.L13
 2116              	.L58:
 2117              		.loc 6 196 0 is_stmt 1
ARM GAS  /tmp/cc4BmMZ0.s 			page 93


 2118 077c 0023     		movs	r3, #0
 2119 077e 0393     		str	r3, [sp, #12]
 2120 0780 22E0     		b	.L59
 2121              	.L61:
 2122              		.loc 6 197 0
 2123 0782 FFF7FEFF 		bl	chSysLock
 2124              		.loc 6 198 0
 2125 0786 01AB     		add	r3, sp, #4
 2126 0788 40F20000 		movw	r0, #:lower16:mb1
 2127 078c C0F20000 		movt	r0, #:upper16:mb1
 2128 0790 1946     		mov	r1, r3
 2129 0792 FFF7FEFF 		bl	chMBFetchI
 2130 0796 0290     		str	r0, [sp, #8]
 2131              		.loc 6 199 0
 2132 0798 FFF7FEFF 		bl	chSysUnlock
 2133              		.loc 6 200 0
 2134 079c 029B     		ldr	r3, [sp, #8]
 2135 079e 002B     		cmp	r3, #0
 2136 07a0 14BF     		ite	ne
 2137 07a2 0023     		movne	r3, #0
 2138 07a4 0123     		moveq	r3, #1
 2139 07a6 DBB2     		uxtb	r3, r3
 2140 07a8 2720     		movs	r0, #39
 2141 07aa 1946     		mov	r1, r3
 2142 07ac FFF7FEFF 		bl	_test_assert
 2143 07b0 0346     		mov	r3, r0
 2144 07b2 002B     		cmp	r3, #0
 2145 07b4 00D0     		beq	.L60
 2146              		.loc 6 200 0 is_stmt 0 discriminator 1
 2147 07b6 D4E0     		b	.L13
 2148              	.L60:
 2149              		.loc 6 201 0 is_stmt 1
 2150 07b8 019B     		ldr	r3, [sp, #4]
 2151 07ba DBB2     		uxtb	r3, r3
 2152 07bc 1846     		mov	r0, r3
 2153 07be FFF7FEFF 		bl	test_emit_token
 2154              		.loc 6 196 0
 2155 07c2 039B     		ldr	r3, [sp, #12]
 2156 07c4 0133     		adds	r3, r3, #1
 2157 07c6 0393     		str	r3, [sp, #12]
 2158              	.L59:
 2159              		.loc 6 196 0 is_stmt 0 discriminator 1
 2160 07c8 039B     		ldr	r3, [sp, #12]
 2161 07ca 042B     		cmp	r3, #4
 2162 07cc D9D9     		bls	.L61
 2163              		.loc 6 203 0 is_stmt 1
 2164 07ce 2820     		movs	r0, #40
 2165 07d0 40F20001 		movw	r1, #:lower16:.LC0
 2166 07d4 C0F20001 		movt	r1, #:upper16:.LC0
 2167 07d8 FFF7FEFF 		bl	_test_assert_sequence
 2168 07dc 0346     		mov	r3, r0
 2169 07de 002B     		cmp	r3, #0
 2170 07e0 00D0     		beq	.L62
 2171              		.loc 6 203 0 is_stmt 0 discriminator 1
 2172 07e2 BEE0     		b	.L13
 2173              	.L62:
 2174              		.loc 6 204 0 is_stmt 1
ARM GAS  /tmp/cc4BmMZ0.s 			page 94


 2175 07e4 FFF7FEFF 		bl	chSysLock
 2176 07e8 40F20000 		movw	r0, #:lower16:mb1
 2177 07ec C0F20000 		movt	r0, #:upper16:mb1
 2178 07f0 FFF7FEFF 		bl	chMBGetFreeCountI
 2179 07f4 0346     		mov	r3, r0
 2180 07f6 052B     		cmp	r3, #5
 2181 07f8 14BF     		ite	ne
 2182 07fa 0023     		movne	r3, #0
 2183 07fc 0123     		moveq	r3, #1
 2184 07fe DBB2     		uxtb	r3, r3
 2185 0800 2920     		movs	r0, #41
 2186 0802 1946     		mov	r1, r3
 2187 0804 FFF7FEFF 		bl	_test_assert
 2188 0808 0346     		mov	r3, r0
 2189 080a 002B     		cmp	r3, #0
 2190 080c 02D0     		beq	.L63
 2191              		.loc 6 204 0 is_stmt 0 discriminator 1
 2192 080e FFF7FEFF 		bl	chSysUnlock
 2193 0812 A6E0     		b	.L13
 2194              	.L63:
 2195              		.loc 6 204 0 discriminator 2
 2196 0814 FFF7FEFF 		bl	chSysUnlock
 2197              		.loc 6 205 0 is_stmt 1 discriminator 2
 2198 0818 FFF7FEFF 		bl	chSysLock
 2199 081c 40F20000 		movw	r0, #:lower16:mb1
 2200 0820 C0F20000 		movt	r0, #:upper16:mb1
 2201 0824 FFF7FEFF 		bl	chMBGetUsedCountI
 2202 0828 0346     		mov	r3, r0
 2203 082a 002B     		cmp	r3, #0
 2204 082c 14BF     		ite	ne
 2205 082e 0023     		movne	r3, #0
 2206 0830 0123     		moveq	r3, #1
 2207 0832 DBB2     		uxtb	r3, r3
 2208 0834 2A20     		movs	r0, #42
 2209 0836 1946     		mov	r1, r3
 2210 0838 FFF7FEFF 		bl	_test_assert
 2211 083c 0346     		mov	r3, r0
 2212 083e 002B     		cmp	r3, #0
 2213 0840 02D0     		beq	.L64
 2214              		.loc 6 205 0 is_stmt 0 discriminator 1
 2215 0842 FFF7FEFF 		bl	chSysUnlock
 2216 0846 8CE0     		b	.L13
 2217              	.L64:
 2218              		.loc 6 205 0 discriminator 2
 2219 0848 FFF7FEFF 		bl	chSysUnlock
 2220              		.loc 6 206 0 is_stmt 1 discriminator 2
 2221 084c 40F20003 		movw	r3, #:lower16:mb1
 2222 0850 C0F20003 		movt	r3, #:upper16:mb1
 2223 0854 DA68     		ldr	r2, [r3, #12]
 2224 0856 40F20003 		movw	r3, #:lower16:mb1
 2225 085a C0F20003 		movt	r3, #:upper16:mb1
 2226 085e 9B68     		ldr	r3, [r3, #8]
 2227 0860 9A42     		cmp	r2, r3
 2228 0862 14BF     		ite	ne
 2229 0864 0023     		movne	r3, #0
 2230 0866 0123     		moveq	r3, #1
 2231 0868 DBB2     		uxtb	r3, r3
ARM GAS  /tmp/cc4BmMZ0.s 			page 95


 2232 086a 2B20     		movs	r0, #43
 2233 086c 1946     		mov	r1, r3
 2234 086e FFF7FEFF 		bl	_test_assert
 2235 0872 0346     		mov	r3, r0
 2236 0874 002B     		cmp	r3, #0
 2237 0876 00D0     		beq	.L65
 2238              		.loc 6 206 0 is_stmt 0 discriminator 1
 2239 0878 73E0     		b	.L13
 2240              	.L65:
 2241              		.loc 6 211 0 is_stmt 1
 2242 087a 40F20000 		movw	r0, #:lower16:mb1
 2243 087e C0F20000 		movt	r0, #:upper16:mb1
 2244 0882 FFF7FEFF 		bl	chMBReset
 2245              		.loc 6 216 0
 2246 0886 FFF7FEFF 		bl	chSysLock
 2247 088a 40F20000 		movw	r0, #:lower16:mb1
 2248 088e C0F20000 		movt	r0, #:upper16:mb1
 2249 0892 FFF7FEFF 		bl	chMBGetFreeCountI
 2250 0896 0346     		mov	r3, r0
 2251 0898 052B     		cmp	r3, #5
 2252 089a 14BF     		ite	ne
 2253 089c 0023     		movne	r3, #0
 2254 089e 0123     		moveq	r3, #1
 2255 08a0 DBB2     		uxtb	r3, r3
 2256 08a2 2C20     		movs	r0, #44
 2257 08a4 1946     		mov	r1, r3
 2258 08a6 FFF7FEFF 		bl	_test_assert
 2259 08aa 0346     		mov	r3, r0
 2260 08ac 002B     		cmp	r3, #0
 2261 08ae 02D0     		beq	.L66
 2262              		.loc 6 216 0 is_stmt 0 discriminator 1
 2263 08b0 FFF7FEFF 		bl	chSysUnlock
 2264 08b4 55E0     		b	.L13
 2265              	.L66:
 2266              		.loc 6 216 0 discriminator 2
 2267 08b6 FFF7FEFF 		bl	chSysUnlock
 2268              		.loc 6 217 0 is_stmt 1 discriminator 2
 2269 08ba FFF7FEFF 		bl	chSysLock
 2270 08be 40F20000 		movw	r0, #:lower16:mb1
 2271 08c2 C0F20000 		movt	r0, #:upper16:mb1
 2272 08c6 FFF7FEFF 		bl	chMBGetUsedCountI
 2273 08ca 0346     		mov	r3, r0
 2274 08cc 002B     		cmp	r3, #0
 2275 08ce 14BF     		ite	ne
 2276 08d0 0023     		movne	r3, #0
 2277 08d2 0123     		moveq	r3, #1
 2278 08d4 DBB2     		uxtb	r3, r3
 2279 08d6 2D20     		movs	r0, #45
 2280 08d8 1946     		mov	r1, r3
 2281 08da FFF7FEFF 		bl	_test_assert
 2282 08de 0346     		mov	r3, r0
 2283 08e0 002B     		cmp	r3, #0
 2284 08e2 02D0     		beq	.L67
 2285              		.loc 6 217 0 is_stmt 0 discriminator 1
 2286 08e4 FFF7FEFF 		bl	chSysUnlock
 2287 08e8 3BE0     		b	.L13
 2288              	.L67:
ARM GAS  /tmp/cc4BmMZ0.s 			page 96


 2289              		.loc 6 217 0 discriminator 2
 2290 08ea FFF7FEFF 		bl	chSysUnlock
 2291              		.loc 6 218 0 is_stmt 1 discriminator 2
 2292 08ee FFF7FEFF 		bl	chSysLock
 2293 08f2 40F20003 		movw	r3, #:lower16:mb1
 2294 08f6 C0F20003 		movt	r3, #:upper16:mb1
 2295 08fa 1A68     		ldr	r2, [r3]
 2296 08fc 40F20003 		movw	r3, #:lower16:mb1
 2297 0900 C0F20003 		movt	r3, #:upper16:mb1
 2298 0904 9B68     		ldr	r3, [r3, #8]
 2299 0906 9A42     		cmp	r2, r3
 2300 0908 14BF     		ite	ne
 2301 090a 0023     		movne	r3, #0
 2302 090c 0123     		moveq	r3, #1
 2303 090e DBB2     		uxtb	r3, r3
 2304 0910 2E20     		movs	r0, #46
 2305 0912 1946     		mov	r1, r3
 2306 0914 FFF7FEFF 		bl	_test_assert
 2307 0918 0346     		mov	r3, r0
 2308 091a 002B     		cmp	r3, #0
 2309 091c 02D0     		beq	.L68
 2310              		.loc 6 218 0 is_stmt 0 discriminator 1
 2311 091e FFF7FEFF 		bl	chSysUnlock
 2312 0922 1EE0     		b	.L13
 2313              	.L68:
 2314              		.loc 6 218 0 discriminator 2
 2315 0924 FFF7FEFF 		bl	chSysUnlock
 2316              		.loc 6 219 0 is_stmt 1 discriminator 2
 2317 0928 FFF7FEFF 		bl	chSysLock
 2318 092c 40F20003 		movw	r3, #:lower16:mb1
 2319 0930 C0F20003 		movt	r3, #:upper16:mb1
 2320 0934 1A68     		ldr	r2, [r3]
 2321 0936 40F20003 		movw	r3, #:lower16:mb1
 2322 093a C0F20003 		movt	r3, #:upper16:mb1
 2323 093e DB68     		ldr	r3, [r3, #12]
 2324 0940 9A42     		cmp	r2, r3
 2325 0942 14BF     		ite	ne
 2326 0944 0023     		movne	r3, #0
 2327 0946 0123     		moveq	r3, #1
 2328 0948 DBB2     		uxtb	r3, r3
 2329 094a 2F20     		movs	r0, #47
 2330 094c 1946     		mov	r1, r3
 2331 094e FFF7FEFF 		bl	_test_assert
 2332 0952 0346     		mov	r3, r0
 2333 0954 002B     		cmp	r3, #0
 2334 0956 02D0     		beq	.L69
 2335              		.loc 6 219 0 is_stmt 0 discriminator 1
 2336 0958 FFF7FEFF 		bl	chSysUnlock
 2337 095c 01E0     		b	.L13
 2338              	.L69:
 2339              		.loc 6 219 0 discriminator 2
 2340 095e FFF7FEFF 		bl	chSysUnlock
 2341              	.L13:
 2342              		.loc 6 220 0 is_stmt 1
 2343 0962 05B0     		add	sp, sp, #20
 2344              		@ sp needed
 2345 0964 5DF804FB 		ldr	pc, [sp], #4
ARM GAS  /tmp/cc4BmMZ0.s 			page 97


 2346              		.cfi_endproc
 2347              	.LFE242:
 2348              		.size	mbox1_execute, .-mbox1_execute
 2349              		.global	testmbox1
 2350 0968 AFF30080 		.section	.rodata
 2350      AFF30080 
 2351 0006 0000     		.align	2
 2352              	.LC1:
 2353 0008 4D61696C 		.ascii	"Mailboxes, queuing and timeouts\000"
 2353      626F7865 
 2353      732C2071 
 2353      75657569 
 2353      6E672061 
 2354              		.section	.rodata.testmbox1,"a",%progbits
 2355              		.align	2
 2356              		.type	testmbox1, %object
 2357              		.size	testmbox1, 16
 2358              	testmbox1:
 2359 0000 08000000 		.word	.LC1
 2360 0004 00000000 		.word	mbox1_setup
 2361 0008 00000000 		.word	0
 2362 000c 00000000 		.word	mbox1_execute
 2363              		.global	patternmbox
 2364              		.section	.rodata.patternmbox,"a",%progbits
 2365              		.align	2
 2366              		.type	patternmbox, %object
 2367              		.size	patternmbox, 8
 2368              	patternmbox:
 2369 0000 00000000 		.word	testmbox1
 2370 0004 00000000 		.word	0
 2371              		.section	.rodata.__func__.5915,"a",%progbits
 2372              		.align	2
 2373              		.type	__func__.5915, %object
 2374              		.size	__func__.5915, 12
 2375              	__func__.5915:
 2376 0000 63685379 		.ascii	"chSysUnlock\000"
 2376      73556E6C 
 2376      6F636B00 
 2377              		.text
 2378              	.Letext0:
 2379              		.file 7 "/usr/lib/gcc/arm-none-eabi/4.8.2/include/stddef.h"
 2380              		.file 8 "/usr/include/newlib/machine/_default_types.h"
 2381              		.file 9 "/usr/include/newlib/stdint.h"
 2382              		.file 10 "../../../../os/rt/ports/ARMCMx/compilers/GCC/chtypes.h"
 2383              		.file 11 "../../../../os/rt/include/chsystypes.h"
 2384              		.file 12 "../../../../os/rt/include/chschd.h"
 2385              		.file 13 "../../../../os/rt/ports/ARMCMx/chcore.h"
 2386              		.file 14 "../../../../os/rt/include/chdebug.h"
 2387              		.file 15 "../../../../os/rt/include/chtm.h"
 2388              		.file 16 "../../../../os/rt/include/chstats.h"
 2389              		.file 17 "../../../../os/rt/include/chmtx.h"
 2390              		.file 18 "../../../../test/rt/test.h"
 2391              		.file 19 "../../../../os/ext/CMSIS/include/core_cm4.h"
 2392              		.section	.debug_info,"",%progbits
 2393              	.Ldebug_info0:
 2394 0000 FE0A0000 		.4byte	0xafe
 2395 0004 0400     		.2byte	0x4
ARM GAS  /tmp/cc4BmMZ0.s 			page 98


 2396 0006 00000000 		.4byte	.Ldebug_abbrev0
 2397 000a 04       		.byte	0x4
 2398 000b 01       		.uleb128 0x1
 2399 000c 05030000 		.4byte	.LASF158
 2400 0010 01       		.byte	0x1
 2401 0011 00040000 		.4byte	.LASF159
 2402 0015 AE020000 		.4byte	.LASF160
 2403 0019 00000000 		.4byte	.Ldebug_ranges0+0
 2404 001d 00000000 		.4byte	0
 2405 0021 00000000 		.4byte	.Ldebug_line0
 2406 0025 02       		.uleb128 0x2
 2407 0026 04       		.byte	0x4
 2408 0027 05       		.byte	0x5
 2409 0028 696E7400 		.ascii	"int\000"
 2410 002c 03       		.uleb128 0x3
 2411 002d 1C000000 		.4byte	.LASF2
 2412 0031 07       		.byte	0x7
 2413 0032 D4       		.byte	0xd4
 2414 0033 37000000 		.4byte	0x37
 2415 0037 04       		.uleb128 0x4
 2416 0038 04       		.byte	0x4
 2417 0039 07       		.byte	0x7
 2418 003a 14020000 		.4byte	.LASF0
 2419 003e 04       		.uleb128 0x4
 2420 003f 01       		.byte	0x1
 2421 0040 06       		.byte	0x6
 2422 0041 30010000 		.4byte	.LASF1
 2423 0045 03       		.uleb128 0x3
 2424 0046 40000000 		.4byte	.LASF3
 2425 004a 08       		.byte	0x8
 2426 004b 1C       		.byte	0x1c
 2427 004c 50000000 		.4byte	0x50
 2428 0050 04       		.uleb128 0x4
 2429 0051 01       		.byte	0x1
 2430 0052 08       		.byte	0x8
 2431 0053 3D050000 		.4byte	.LASF4
 2432 0057 04       		.uleb128 0x4
 2433 0058 02       		.byte	0x2
 2434 0059 05       		.byte	0x5
 2435 005a 7B050000 		.4byte	.LASF5
 2436 005e 04       		.uleb128 0x4
 2437 005f 02       		.byte	0x2
 2438 0060 07       		.byte	0x7
 2439 0061 6B020000 		.4byte	.LASF6
 2440 0065 03       		.uleb128 0x3
 2441 0066 E1030000 		.4byte	.LASF7
 2442 006a 08       		.byte	0x8
 2443 006b 37       		.byte	0x37
 2444 006c 70000000 		.4byte	0x70
 2445 0070 04       		.uleb128 0x4
 2446 0071 04       		.byte	0x4
 2447 0072 05       		.byte	0x5
 2448 0073 6F010000 		.4byte	.LASF8
 2449 0077 03       		.uleb128 0x3
 2450 0078 F8010000 		.4byte	.LASF9
 2451 007c 08       		.byte	0x8
 2452 007d 38       		.byte	0x38
ARM GAS  /tmp/cc4BmMZ0.s 			page 99


 2453 007e 82000000 		.4byte	0x82
 2454 0082 04       		.uleb128 0x4
 2455 0083 04       		.byte	0x4
 2456 0084 07       		.byte	0x7
 2457 0085 3B060000 		.4byte	.LASF10
 2458 0089 04       		.uleb128 0x4
 2459 008a 08       		.byte	0x8
 2460 008b 05       		.byte	0x5
 2461 008c 22010000 		.4byte	.LASF11
 2462 0090 03       		.uleb128 0x3
 2463 0091 CF040000 		.4byte	.LASF12
 2464 0095 08       		.byte	0x8
 2465 0096 4E       		.byte	0x4e
 2466 0097 9B000000 		.4byte	0x9b
 2467 009b 04       		.uleb128 0x4
 2468 009c 08       		.byte	0x8
 2469 009d 07       		.byte	0x7
 2470 009e A8000000 		.4byte	.LASF13
 2471 00a2 03       		.uleb128 0x3
 2472 00a3 02070000 		.4byte	.LASF14
 2473 00a7 09       		.byte	0x9
 2474 00a8 2A       		.byte	0x2a
 2475 00a9 45000000 		.4byte	0x45
 2476 00ad 03       		.uleb128 0x3
 2477 00ae 35050000 		.4byte	.LASF15
 2478 00b2 09       		.byte	0x9
 2479 00b3 41       		.byte	0x41
 2480 00b4 65000000 		.4byte	0x65
 2481 00b8 03       		.uleb128 0x3
 2482 00b9 0A060000 		.4byte	.LASF16
 2483 00bd 09       		.byte	0x9
 2484 00be 42       		.byte	0x42
 2485 00bf 77000000 		.4byte	0x77
 2486 00c3 03       		.uleb128 0x3
 2487 00c4 2A000000 		.4byte	.LASF17
 2488 00c8 09       		.byte	0x9
 2489 00c9 4E       		.byte	0x4e
 2490 00ca 90000000 		.4byte	0x90
 2491 00ce 03       		.uleb128 0x3
 2492 00cf BD060000 		.4byte	.LASF18
 2493 00d3 0A       		.byte	0xa
 2494 00d4 39       		.byte	0x39
 2495 00d5 B8000000 		.4byte	0xb8
 2496 00d9 03       		.uleb128 0x3
 2497 00da 12010000 		.4byte	.LASF19
 2498 00de 0A       		.byte	0xa
 2499 00df 3A       		.byte	0x3a
 2500 00e0 C3000000 		.4byte	0xc3
 2501 00e4 03       		.uleb128 0x3
 2502 00e5 A8030000 		.4byte	.LASF20
 2503 00e9 0A       		.byte	0xa
 2504 00ea 3C       		.byte	0x3c
 2505 00eb A2000000 		.4byte	0xa2
 2506 00ef 03       		.uleb128 0x3
 2507 00f0 78010000 		.4byte	.LASF21
 2508 00f4 0A       		.byte	0xa
 2509 00f5 3D       		.byte	0x3d
ARM GAS  /tmp/cc4BmMZ0.s 			page 100


 2510 00f6 A2000000 		.4byte	0xa2
 2511 00fa 03       		.uleb128 0x3
 2512 00fb F3040000 		.4byte	.LASF22
 2513 00ff 0A       		.byte	0xa
 2514 0100 3E       		.byte	0x3e
 2515 0101 A2000000 		.4byte	0xa2
 2516 0105 03       		.uleb128 0x3
 2517 0106 24050000 		.4byte	.LASF23
 2518 010a 0A       		.byte	0xa
 2519 010b 40       		.byte	0x40
 2520 010c B8000000 		.4byte	0xb8
 2521 0110 03       		.uleb128 0x3
 2522 0111 A3020000 		.4byte	.LASF24
 2523 0115 0A       		.byte	0xa
 2524 0116 41       		.byte	0x41
 2525 0117 AD000000 		.4byte	0xad
 2526 011b 03       		.uleb128 0x3
 2527 011c D5030000 		.4byte	.LASF25
 2528 0120 0A       		.byte	0xa
 2529 0121 43       		.byte	0x43
 2530 0122 B8000000 		.4byte	0xb8
 2531 0126 03       		.uleb128 0x3
 2532 0127 03020000 		.4byte	.LASF26
 2533 012b 0A       		.byte	0xa
 2534 012c 45       		.byte	0x45
 2535 012d AD000000 		.4byte	0xad
 2536 0131 03       		.uleb128 0x3
 2537 0132 F2020000 		.4byte	.LASF27
 2538 0136 0A       		.byte	0xa
 2539 0137 46       		.byte	0x46
 2540 0138 B8000000 		.4byte	0xb8
 2541 013c 03       		.uleb128 0x3
 2542 013d 67060000 		.4byte	.LASF28
 2543 0141 0B       		.byte	0xb
 2544 0142 33       		.byte	0x33
 2545 0143 B8000000 		.4byte	0xb8
 2546 0147 03       		.uleb128 0x3
 2547 0148 52060000 		.4byte	.LASF29
 2548 014c 0B       		.byte	0xb
 2549 014d 3F       		.byte	0x3f
 2550 014e 52010000 		.4byte	0x152
 2551 0152 05       		.uleb128 0x5
 2552 0153 8D020000 		.4byte	.LASF51
 2553 0157 60       		.byte	0x60
 2554 0158 0C       		.byte	0xc
 2555 0159 C2       		.byte	0xc2
 2556 015a 58020000 		.4byte	0x258
 2557 015e 06       		.uleb128 0x6
 2558 015f 9B050000 		.4byte	.LASF30
 2559 0163 0C       		.byte	0xc
 2560 0164 C3       		.byte	0xc3
 2561 0165 63020000 		.4byte	0x263
 2562 0169 00       		.byte	0
 2563 016a 06       		.uleb128 0x6
 2564 016b 15050000 		.4byte	.LASF31
 2565 016f 0C       		.byte	0xc
 2566 0170 C5       		.byte	0xc5
ARM GAS  /tmp/cc4BmMZ0.s 			page 101


 2567 0171 63020000 		.4byte	0x263
 2568 0175 04       		.byte	0x4
 2569 0176 06       		.uleb128 0x6
 2570 0177 1B010000 		.4byte	.LASF32
 2571 017b 0C       		.byte	0xc
 2572 017c C7       		.byte	0xc7
 2573 017d 05010000 		.4byte	0x105
 2574 0181 08       		.byte	0x8
 2575 0182 06       		.uleb128 0x6
 2576 0183 63070000 		.4byte	.LASF33
 2577 0187 0C       		.byte	0xc
 2578 0188 C8       		.byte	0xc8
 2579 0189 CC040000 		.4byte	0x4cc
 2580 018d 0C       		.byte	0xc
 2581 018e 06       		.uleb128 0x6
 2582 018f 8E010000 		.4byte	.LASF34
 2583 0193 0C       		.byte	0xc
 2584 0194 CA       		.byte	0xca
 2585 0195 63020000 		.4byte	0x263
 2586 0199 10       		.byte	0x10
 2587 019a 06       		.uleb128 0x6
 2588 019b 76040000 		.4byte	.LASF35
 2589 019f 0C       		.byte	0xc
 2590 01a0 CB       		.byte	0xcb
 2591 01a1 63020000 		.4byte	0x263
 2592 01a5 14       		.byte	0x14
 2593 01a6 06       		.uleb128 0x6
 2594 01a7 11070000 		.4byte	.LASF36
 2595 01ab 0C       		.byte	0xc
 2596 01ac D2       		.byte	0xd2
 2597 01ad 70070000 		.4byte	0x770
 2598 01b1 18       		.byte	0x18
 2599 01b2 06       		.uleb128 0x6
 2600 01b3 09020000 		.4byte	.LASF37
 2601 01b7 0C       		.byte	0xc
 2602 01b8 D8       		.byte	0xd8
 2603 01b9 82070000 		.4byte	0x782
 2604 01bd 1C       		.byte	0x1c
 2605 01be 06       		.uleb128 0x6
 2606 01bf 85050000 		.4byte	.LASF38
 2607 01c3 0C       		.byte	0xc
 2608 01c4 DD       		.byte	0xdd
 2609 01c5 EF000000 		.4byte	0xef
 2610 01c9 20       		.byte	0x20
 2611 01ca 06       		.uleb128 0x6
 2612 01cb A2050000 		.4byte	.LASF39
 2613 01cf 0C       		.byte	0xc
 2614 01d0 E1       		.byte	0xe1
 2615 01d1 E4000000 		.4byte	0xe4
 2616 01d5 21       		.byte	0x21
 2617 01d6 06       		.uleb128 0x6
 2618 01d7 ED060000 		.4byte	.LASF40
 2619 01db 0C       		.byte	0xc
 2620 01dc E6       		.byte	0xe6
 2621 01dd FA000000 		.4byte	0xfa
 2622 01e1 22       		.byte	0x22
 2623 01e2 07       		.uleb128 0x7
ARM GAS  /tmp/cc4BmMZ0.s 			page 102


 2624 01e3 705F7500 		.ascii	"p_u\000"
 2625 01e7 0C       		.byte	0xc
 2626 01e8 3101     		.2byte	0x131
 2627 01ea AB060000 		.4byte	0x6ab
 2628 01ee 24       		.byte	0x24
 2629 01ef 08       		.uleb128 0x8
 2630 01f0 71070000 		.4byte	.LASF41
 2631 01f4 0C       		.byte	0xc
 2632 01f5 3601     		.2byte	0x136
 2633 01f7 69020000 		.4byte	0x269
 2634 01fb 28       		.byte	0x28
 2635 01fc 08       		.uleb128 0x8
 2636 01fd 3A020000 		.4byte	.LASF42
 2637 0201 0C       		.byte	0xc
 2638 0202 3C01     		.2byte	0x13c
 2639 0204 8D020000 		.4byte	0x28d
 2640 0208 2C       		.byte	0x2c
 2641 0209 08       		.uleb128 0x8
 2642 020a 40070000 		.4byte	.LASF43
 2643 020e 0C       		.byte	0xc
 2644 020f 4001     		.2byte	0x140
 2645 0211 10010000 		.4byte	0x110
 2646 0215 34       		.byte	0x34
 2647 0216 08       		.uleb128 0x8
 2648 0217 FF050000 		.4byte	.LASF44
 2649 021b 0C       		.byte	0xc
 2650 021c 4601     		.2byte	0x146
 2651 021e 1B010000 		.4byte	0x11b
 2652 0222 38       		.byte	0x38
 2653 0223 08       		.uleb128 0x8
 2654 0224 71050000 		.4byte	.LASF45
 2655 0228 0C       		.byte	0xc
 2656 0229 4D01     		.2byte	0x14d
 2657 022b 6A070000 		.4byte	0x76a
 2658 022f 3C       		.byte	0x3c
 2659 0230 08       		.uleb128 0x8
 2660 0231 71060000 		.4byte	.LASF46
 2661 0235 0C       		.byte	0xc
 2662 0236 5101     		.2byte	0x151
 2663 0238 05010000 		.4byte	0x105
 2664 023c 40       		.byte	0x40
 2665 023d 08       		.uleb128 0x8
 2666 023e 3C010000 		.4byte	.LASF47
 2667 0242 0C       		.byte	0xc
 2668 0243 5801     		.2byte	0x158
 2669 0245 40030000 		.4byte	0x340
 2670 0249 44       		.byte	0x44
 2671 024a 08       		.uleb128 0x8
 2672 024b AA050000 		.4byte	.LASF48
 2673 024f 0C       		.byte	0xc
 2674 0250 5E01     		.2byte	0x15e
 2675 0252 5C060000 		.4byte	0x65c
 2676 0256 48       		.byte	0x48
 2677 0257 00       		.byte	0
 2678 0258 03       		.uleb128 0x3
 2679 0259 28040000 		.4byte	.LASF49
 2680 025d 0B       		.byte	0xb
ARM GAS  /tmp/cc4BmMZ0.s 			page 103


 2681 025e 44       		.byte	0x44
 2682 025f 63020000 		.4byte	0x263
 2683 0263 09       		.uleb128 0x9
 2684 0264 04       		.byte	0x4
 2685 0265 47010000 		.4byte	0x147
 2686 0269 03       		.uleb128 0x3
 2687 026a 18070000 		.4byte	.LASF50
 2688 026e 0B       		.byte	0xb
 2689 026f 49       		.byte	0x49
 2690 0270 74020000 		.4byte	0x274
 2691 0274 05       		.uleb128 0x5
 2692 0275 2B060000 		.4byte	.LASF52
 2693 0279 04       		.byte	0x4
 2694 027a 0C       		.byte	0xc
 2695 027b B0       		.byte	0xb0
 2696 027c 8D020000 		.4byte	0x28d
 2697 0280 06       		.uleb128 0x6
 2698 0281 9B050000 		.4byte	.LASF30
 2699 0285 0C       		.byte	0xc
 2700 0286 B1       		.byte	0xb1
 2701 0287 63020000 		.4byte	0x263
 2702 028b 00       		.byte	0
 2703 028c 00       		.byte	0
 2704 028d 03       		.uleb128 0x3
 2705 028e C8050000 		.4byte	.LASF53
 2706 0292 0B       		.byte	0xb
 2707 0293 50       		.byte	0x50
 2708 0294 98020000 		.4byte	0x298
 2709 0298 05       		.uleb128 0x5
 2710 0299 56000000 		.4byte	.LASF54
 2711 029d 08       		.byte	0x8
 2712 029e 0C       		.byte	0xc
 2713 029f B7       		.byte	0xb7
 2714 02a0 BD020000 		.4byte	0x2bd
 2715 02a4 06       		.uleb128 0x6
 2716 02a5 9B050000 		.4byte	.LASF30
 2717 02a9 0C       		.byte	0xc
 2718 02aa B8       		.byte	0xb8
 2719 02ab 63020000 		.4byte	0x263
 2720 02af 00       		.byte	0
 2721 02b0 06       		.uleb128 0x6
 2722 02b1 15050000 		.4byte	.LASF31
 2723 02b5 0C       		.byte	0xc
 2724 02b6 B9       		.byte	0xb9
 2725 02b7 63020000 		.4byte	0x263
 2726 02bb 04       		.byte	0x4
 2727 02bc 00       		.byte	0
 2728 02bd 03       		.uleb128 0x3
 2729 02be 07000000 		.4byte	.LASF55
 2730 02c2 0B       		.byte	0xb
 2731 02c3 57       		.byte	0x57
 2732 02c4 C8020000 		.4byte	0x2c8
 2733 02c8 0A       		.uleb128 0xa
 2734 02c9 C7030000 		.4byte	.LASF56
 2735 02cd 1C       		.byte	0x1c
 2736 02ce 0C       		.byte	0xc
 2737 02cf 9001     		.2byte	0x190
ARM GAS  /tmp/cc4BmMZ0.s 			page 104


 2738 02d1 24030000 		.4byte	0x324
 2739 02d5 08       		.uleb128 0x8
 2740 02d6 1A060000 		.4byte	.LASF57
 2741 02da 0C       		.byte	0xc
 2742 02db 9101     		.2byte	0x191
 2743 02dd 8D020000 		.4byte	0x28d
 2744 02e1 00       		.byte	0
 2745 02e2 08       		.uleb128 0x8
 2746 02e3 8D050000 		.4byte	.LASF58
 2747 02e7 0C       		.byte	0xc
 2748 02e8 9201     		.2byte	0x192
 2749 02ea 05010000 		.4byte	0x105
 2750 02ee 08       		.byte	0x8
 2751 02ef 08       		.uleb128 0x8
 2752 02f0 7E040000 		.4byte	.LASF59
 2753 02f4 0C       		.byte	0xc
 2754 02f5 9401     		.2byte	0x194
 2755 02f7 CC040000 		.4byte	0x4cc
 2756 02fb 0C       		.byte	0xc
 2757 02fc 08       		.uleb128 0x8
 2758 02fd B8010000 		.4byte	.LASF60
 2759 0301 0C       		.byte	0xc
 2760 0302 9701     		.2byte	0x197
 2761 0304 63020000 		.4byte	0x263
 2762 0308 10       		.byte	0x10
 2763 0309 08       		.uleb128 0x8
 2764 030a C7040000 		.4byte	.LASF61
 2765 030e 0C       		.byte	0xc
 2766 030f 9801     		.2byte	0x198
 2767 0311 63020000 		.4byte	0x263
 2768 0315 14       		.byte	0x14
 2769 0316 08       		.uleb128 0x8
 2770 0317 BD040000 		.4byte	.LASF62
 2771 031b 0C       		.byte	0xc
 2772 031c 9B01     		.2byte	0x19b
 2773 031e 63020000 		.4byte	0x263
 2774 0322 18       		.byte	0x18
 2775 0323 00       		.byte	0
 2776 0324 03       		.uleb128 0x3
 2777 0325 7C060000 		.4byte	.LASF63
 2778 0329 0B       		.byte	0xb
 2779 032a 5C       		.byte	0x5c
 2780 032b 2F030000 		.4byte	0x32f
 2781 032f 09       		.uleb128 0x9
 2782 0330 04       		.byte	0x4
 2783 0331 35030000 		.4byte	0x335
 2784 0335 0B       		.uleb128 0xb
 2785 0336 40030000 		.4byte	0x340
 2786 033a 0C       		.uleb128 0xc
 2787 033b 40030000 		.4byte	0x340
 2788 033f 00       		.byte	0
 2789 0340 0D       		.uleb128 0xd
 2790 0341 04       		.byte	0x4
 2791 0342 03       		.uleb128 0x3
 2792 0343 05050000 		.4byte	.LASF64
 2793 0347 0B       		.byte	0xb
 2794 0348 61       		.byte	0x61
ARM GAS  /tmp/cc4BmMZ0.s 			page 105


 2795 0349 4D030000 		.4byte	0x34d
 2796 034d 0A       		.uleb128 0xa
 2797 034e D8050000 		.4byte	.LASF65
 2798 0352 14       		.byte	0x14
 2799 0353 0C       		.byte	0xc
 2800 0354 6B01     		.2byte	0x16b
 2801 0356 9C030000 		.4byte	0x39c
 2802 035a 08       		.uleb128 0x8
 2803 035b 21020000 		.4byte	.LASF66
 2804 035f 0C       		.byte	0xc
 2805 0360 6C01     		.2byte	0x16c
 2806 0362 88070000 		.4byte	0x788
 2807 0366 00       		.byte	0
 2808 0367 08       		.uleb128 0x8
 2809 0368 C9010000 		.4byte	.LASF67
 2810 036c 0C       		.byte	0xc
 2811 036d 6D01     		.2byte	0x16d
 2812 036f 88070000 		.4byte	0x788
 2813 0373 04       		.byte	0x4
 2814 0374 08       		.uleb128 0x8
 2815 0375 22060000 		.4byte	.LASF68
 2816 0379 0C       		.byte	0xc
 2817 037a 6E01     		.2byte	0x16e
 2818 037c 3C010000 		.4byte	0x13c
 2819 0380 08       		.byte	0x8
 2820 0381 08       		.uleb128 0x8
 2821 0382 69070000 		.4byte	.LASF69
 2822 0386 0C       		.byte	0xc
 2823 0387 6F01     		.2byte	0x16f
 2824 0389 24030000 		.4byte	0x324
 2825 038d 0C       		.byte	0xc
 2826 038e 08       		.uleb128 0x8
 2827 038f C5060000 		.4byte	.LASF70
 2828 0393 0C       		.byte	0xc
 2829 0394 7101     		.2byte	0x171
 2830 0396 40030000 		.4byte	0x340
 2831 039a 10       		.byte	0x10
 2832 039b 00       		.byte	0
 2833 039c 03       		.uleb128 0x3
 2834 039d F3000000 		.4byte	.LASF71
 2835 03a1 0B       		.byte	0xb
 2836 03a2 66       		.byte	0x66
 2837 03a3 A7030000 		.4byte	0x3a7
 2838 03a7 0A       		.uleb128 0xa
 2839 03a8 3B040000 		.4byte	.LASF72
 2840 03ac 10       		.byte	0x10
 2841 03ad 0C       		.byte	0xc
 2842 03ae 7B01     		.2byte	0x17b
 2843 03b0 E9030000 		.4byte	0x3e9
 2844 03b4 08       		.uleb128 0x8
 2845 03b5 21020000 		.4byte	.LASF66
 2846 03b9 0C       		.byte	0xc
 2847 03ba 7C01     		.2byte	0x17c
 2848 03bc 88070000 		.4byte	0x788
 2849 03c0 00       		.byte	0
 2850 03c1 08       		.uleb128 0x8
 2851 03c2 C9010000 		.4byte	.LASF67
ARM GAS  /tmp/cc4BmMZ0.s 			page 106


 2852 03c6 0C       		.byte	0xc
 2853 03c7 7E01     		.2byte	0x17e
 2854 03c9 88070000 		.4byte	0x788
 2855 03cd 04       		.byte	0x4
 2856 03ce 08       		.uleb128 0x8
 2857 03cf 22060000 		.4byte	.LASF68
 2858 03d3 0C       		.byte	0xc
 2859 03d4 8001     		.2byte	0x180
 2860 03d6 3C010000 		.4byte	0x13c
 2861 03da 08       		.byte	0x8
 2862 03db 08       		.uleb128 0x8
 2863 03dc 6A040000 		.4byte	.LASF73
 2864 03e0 0C       		.byte	0xc
 2865 03e1 8801     		.2byte	0x188
 2866 03e3 3C010000 		.4byte	0x13c
 2867 03e7 0C       		.byte	0xc
 2868 03e8 00       		.byte	0
 2869 03e9 03       		.uleb128 0x3
 2870 03ea 67000000 		.4byte	.LASF74
 2871 03ee 0B       		.byte	0xb
 2872 03ef 6B       		.byte	0x6b
 2873 03f0 F4030000 		.4byte	0x3f4
 2874 03f4 0E       		.uleb128 0xe
 2875 03f5 D1010000 		.4byte	.LASF75
 2876 03f9 1404     		.2byte	0x414
 2877 03fb 0C       		.byte	0xc
 2878 03fc A201     		.2byte	0x1a2
 2879 03fe 37040000 		.4byte	0x437
 2880 0402 08       		.uleb128 0x8
 2881 0403 A4060000 		.4byte	.LASF76
 2882 0407 0C       		.byte	0xc
 2883 0408 AA01     		.2byte	0x1aa
 2884 040a 8E070000 		.4byte	0x78e
 2885 040e 00       		.byte	0
 2886 040f 08       		.uleb128 0x8
 2887 0410 F4060000 		.4byte	.LASF77
 2888 0414 0C       		.byte	0xc
 2889 0415 AF01     		.2byte	0x1af
 2890 0417 26010000 		.4byte	0x126
 2891 041b 04       		.byte	0x4
 2892 041c 08       		.uleb128 0x8
 2893 041d EF010000 		.4byte	.LASF78
 2894 0421 0C       		.byte	0xc
 2895 0422 B301     		.2byte	0x1b3
 2896 0424 26010000 		.4byte	0x126
 2897 0428 08       		.byte	0x8
 2898 0429 08       		.uleb128 0x8
 2899 042a 27070000 		.4byte	.LASF79
 2900 042e 0C       		.byte	0xc
 2901 042f B901     		.2byte	0x1b9
 2902 0431 EE050000 		.4byte	0x5ee
 2903 0435 0C       		.byte	0xc
 2904 0436 00       		.byte	0
 2905 0437 03       		.uleb128 0x3
 2906 0438 F9020000 		.4byte	.LASF80
 2907 043c 0B       		.byte	0xb
 2908 043d 70       		.byte	0x70
ARM GAS  /tmp/cc4BmMZ0.s 			page 107


 2909 043e 42040000 		.4byte	0x442
 2910 0442 0E       		.uleb128 0xe
 2911 0443 65010000 		.4byte	.LASF81
 2912 0447 D805     		.2byte	0x5d8
 2913 0449 0C       		.byte	0xc
 2914 044a C201     		.2byte	0x1c2
 2915 044c AF040000 		.4byte	0x4af
 2916 0450 08       		.uleb128 0x8
 2917 0451 FC060000 		.4byte	.LASF82
 2918 0455 0C       		.byte	0xc
 2919 0456 C601     		.2byte	0x1c6
 2920 0458 BD020000 		.4byte	0x2bd
 2921 045c 00       		.byte	0
 2922 045d 08       		.uleb128 0x8
 2923 045e 4C010000 		.4byte	.LASF83
 2924 0462 0C       		.byte	0xc
 2925 0463 CA01     		.2byte	0x1ca
 2926 0465 9C030000 		.4byte	0x39c
 2927 0469 1C       		.byte	0x1c
 2928 046a 07       		.uleb128 0x7
 2929 046b 64626700 		.ascii	"dbg\000"
 2930 046f 0C       		.byte	0xc
 2931 0470 CE01     		.2byte	0x1ce
 2932 0472 E9030000 		.4byte	0x3e9
 2933 0476 2C       		.byte	0x2c
 2934 0477 0F       		.uleb128 0xf
 2935 0478 E3000000 		.4byte	.LASF84
 2936 047c 0C       		.byte	0xc
 2937 047d D201     		.2byte	0x1d2
 2938 047f 47010000 		.4byte	0x147
 2939 0483 4004     		.2byte	0x440
 2940 0485 10       		.uleb128 0x10
 2941 0486 746D00   		.ascii	"tm\000"
 2942 0489 0C       		.byte	0xc
 2943 048a D701     		.2byte	0x1d7
 2944 048c 0E060000 		.4byte	0x60e
 2945 0490 A004     		.2byte	0x4a0
 2946 0492 0F       		.uleb128 0xf
 2947 0493 33000000 		.4byte	.LASF85
 2948 0497 0C       		.byte	0xc
 2949 0498 DD01     		.2byte	0x1dd
 2950 049a A0060000 		.4byte	0x6a0
 2951 049e A804     		.2byte	0x4a8
 2952 04a0 0F       		.uleb128 0xf
 2953 04a1 76000000 		.4byte	.LASF86
 2954 04a5 0C       		.byte	0xc
 2955 04a6 E301     		.2byte	0x1e3
 2956 04a8 93070000 		.4byte	0x793
 2957 04ac E004     		.2byte	0x4e0
 2958 04ae 00       		.byte	0
 2959 04af 04       		.uleb128 0x4
 2960 04b0 04       		.byte	0x4
 2961 04b1 07       		.byte	0x7
 2962 04b2 1F040000 		.4byte	.LASF87
 2963 04b6 03       		.uleb128 0x3
 2964 04b7 C0010000 		.4byte	.LASF88
 2965 04bb 0D       		.byte	0xd
ARM GAS  /tmp/cc4BmMZ0.s 			page 108


 2966 04bc 65       		.byte	0x65
 2967 04bd 40030000 		.4byte	0x340
 2968 04c1 03       		.uleb128 0x3
 2969 04c2 F5030000 		.4byte	.LASF89
 2970 04c6 0D       		.byte	0xd
 2971 04c7 6D       		.byte	0x6d
 2972 04c8 C3000000 		.4byte	0xc3
 2973 04cc 05       		.uleb128 0x5
 2974 04cd B5060000 		.4byte	.LASF90
 2975 04d1 04       		.byte	0x4
 2976 04d2 0D       		.byte	0xd
 2977 04d3 89       		.byte	0x89
 2978 04d4 E5040000 		.4byte	0x4e5
 2979 04d8 11       		.uleb128 0x11
 2980 04d9 72313300 		.ascii	"r13\000"
 2981 04dd 0D       		.byte	0xd
 2982 04de 8A       		.byte	0x8a
 2983 04df 60050000 		.4byte	0x560
 2984 04e3 00       		.byte	0
 2985 04e4 00       		.byte	0
 2986 04e5 05       		.uleb128 0x5
 2987 04e6 4A000000 		.4byte	.LASF91
 2988 04ea 24       		.byte	0x24
 2989 04eb 01       		.byte	0x1
 2990 04ec FD       		.byte	0xfd
 2991 04ed 60050000 		.4byte	0x560
 2992 04f1 07       		.uleb128 0x7
 2993 04f2 723400   		.ascii	"r4\000"
 2994 04f5 01       		.byte	0x1
 2995 04f6 1001     		.2byte	0x110
 2996 04f8 B6040000 		.4byte	0x4b6
 2997 04fc 00       		.byte	0
 2998 04fd 07       		.uleb128 0x7
 2999 04fe 723500   		.ascii	"r5\000"
 3000 0501 01       		.byte	0x1
 3001 0502 1101     		.2byte	0x111
 3002 0504 B6040000 		.4byte	0x4b6
 3003 0508 04       		.byte	0x4
 3004 0509 07       		.uleb128 0x7
 3005 050a 723600   		.ascii	"r6\000"
 3006 050d 01       		.byte	0x1
 3007 050e 1201     		.2byte	0x112
 3008 0510 B6040000 		.4byte	0x4b6
 3009 0514 08       		.byte	0x8
 3010 0515 07       		.uleb128 0x7
 3011 0516 723700   		.ascii	"r7\000"
 3012 0519 01       		.byte	0x1
 3013 051a 1301     		.2byte	0x113
 3014 051c B6040000 		.4byte	0x4b6
 3015 0520 0C       		.byte	0xc
 3016 0521 07       		.uleb128 0x7
 3017 0522 723800   		.ascii	"r8\000"
 3018 0525 01       		.byte	0x1
 3019 0526 1401     		.2byte	0x114
 3020 0528 B6040000 		.4byte	0x4b6
 3021 052c 10       		.byte	0x10
 3022 052d 07       		.uleb128 0x7
ARM GAS  /tmp/cc4BmMZ0.s 			page 109


 3023 052e 723900   		.ascii	"r9\000"
 3024 0531 01       		.byte	0x1
 3025 0532 1501     		.2byte	0x115
 3026 0534 B6040000 		.4byte	0x4b6
 3027 0538 14       		.byte	0x14
 3028 0539 07       		.uleb128 0x7
 3029 053a 72313000 		.ascii	"r10\000"
 3030 053e 01       		.byte	0x1
 3031 053f 1601     		.2byte	0x116
 3032 0541 B6040000 		.4byte	0x4b6
 3033 0545 18       		.byte	0x18
 3034 0546 07       		.uleb128 0x7
 3035 0547 72313100 		.ascii	"r11\000"
 3036 054b 01       		.byte	0x1
 3037 054c 1701     		.2byte	0x117
 3038 054e B6040000 		.4byte	0x4b6
 3039 0552 1C       		.byte	0x1c
 3040 0553 07       		.uleb128 0x7
 3041 0554 6C7200   		.ascii	"lr\000"
 3042 0557 01       		.byte	0x1
 3043 0558 1801     		.2byte	0x118
 3044 055a B6040000 		.4byte	0x4b6
 3045 055e 20       		.byte	0x20
 3046 055f 00       		.byte	0
 3047 0560 09       		.uleb128 0x9
 3048 0561 04       		.byte	0x4
 3049 0562 E5040000 		.4byte	0x4e5
 3050 0566 12       		.uleb128 0x12
 3051 0567 10       		.byte	0x10
 3052 0568 0E       		.byte	0xe
 3053 0569 51       		.byte	0x51
 3054 056a 9F050000 		.4byte	0x59f
 3055 056e 06       		.uleb128 0x6
 3056 056f 14000000 		.4byte	.LASF92
 3057 0573 0E       		.byte	0xe
 3058 0574 55       		.byte	0x55
 3059 0575 3C010000 		.4byte	0x13c
 3060 0579 00       		.byte	0
 3061 057a 06       		.uleb128 0x6
 3062 057b 81010000 		.4byte	.LASF93
 3063 057f 0E       		.byte	0xe
 3064 0580 59       		.byte	0x59
 3065 0581 63020000 		.4byte	0x263
 3066 0585 04       		.byte	0x4
 3067 0586 06       		.uleb128 0x6
 3068 0587 59070000 		.4byte	.LASF94
 3069 058b 0E       		.byte	0xe
 3070 058c 5D       		.byte	0x5d
 3071 058d 40030000 		.4byte	0x340
 3072 0591 08       		.byte	0x8
 3073 0592 06       		.uleb128 0x6
 3074 0593 D1000000 		.4byte	.LASF95
 3075 0597 0E       		.byte	0xe
 3076 0598 61       		.byte	0x61
 3077 0599 A2000000 		.4byte	0xa2
 3078 059d 0C       		.byte	0xc
 3079 059e 00       		.byte	0
ARM GAS  /tmp/cc4BmMZ0.s 			page 110


 3080 059f 03       		.uleb128 0x3
 3081 05a0 5B040000 		.4byte	.LASF96
 3082 05a4 0E       		.byte	0xe
 3083 05a5 62       		.byte	0x62
 3084 05a6 66050000 		.4byte	0x566
 3085 05aa 13       		.uleb128 0x13
 3086 05ab 0804     		.2byte	0x408
 3087 05ad 0E       		.byte	0xe
 3088 05ae 67       		.byte	0x67
 3089 05af D8050000 		.4byte	0x5d8
 3090 05b3 06       		.uleb128 0x6
 3091 05b4 B0010000 		.4byte	.LASF97
 3092 05b8 0E       		.byte	0xe
 3093 05b9 6B       		.byte	0x6b
 3094 05ba 37000000 		.4byte	0x37
 3095 05be 00       		.byte	0
 3096 05bf 06       		.uleb128 0x6
 3097 05c0 00000000 		.4byte	.LASF98
 3098 05c4 0E       		.byte	0xe
 3099 05c5 6F       		.byte	0x6f
 3100 05c6 D8050000 		.4byte	0x5d8
 3101 05ca 04       		.byte	0x4
 3102 05cb 06       		.uleb128 0x6
 3103 05cc FB040000 		.4byte	.LASF99
 3104 05d0 0E       		.byte	0xe
 3105 05d1 73       		.byte	0x73
 3106 05d2 DE050000 		.4byte	0x5de
 3107 05d6 08       		.byte	0x8
 3108 05d7 00       		.byte	0
 3109 05d8 09       		.uleb128 0x9
 3110 05d9 04       		.byte	0x4
 3111 05da 9F050000 		.4byte	0x59f
 3112 05de 14       		.uleb128 0x14
 3113 05df 9F050000 		.4byte	0x59f
 3114 05e3 EE050000 		.4byte	0x5ee
 3115 05e7 15       		.uleb128 0x15
 3116 05e8 AF040000 		.4byte	0x4af
 3117 05ec 3F       		.byte	0x3f
 3118 05ed 00       		.byte	0
 3119 05ee 03       		.uleb128 0x3
 3120 05ef BF000000 		.4byte	.LASF100
 3121 05f3 0E       		.byte	0xe
 3122 05f4 74       		.byte	0x74
 3123 05f5 AA050000 		.4byte	0x5aa
 3124 05f9 12       		.uleb128 0x12
 3125 05fa 04       		.byte	0x4
 3126 05fb 0F       		.byte	0xf
 3127 05fc 38       		.byte	0x38
 3128 05fd 0E060000 		.4byte	0x60e
 3129 0601 06       		.uleb128 0x6
 3130 0602 AE060000 		.4byte	.LASF101
 3131 0606 0F       		.byte	0xf
 3132 0607 3C       		.byte	0x3c
 3133 0608 CE000000 		.4byte	0xce
 3134 060c 00       		.byte	0
 3135 060d 00       		.byte	0
 3136 060e 03       		.uleb128 0x3
ARM GAS  /tmp/cc4BmMZ0.s 			page 111


 3137 060f 8E040000 		.4byte	.LASF102
 3138 0613 0F       		.byte	0xf
 3139 0614 3D       		.byte	0x3d
 3140 0615 F9050000 		.4byte	0x5f9
 3141 0619 12       		.uleb128 0x12
 3142 061a 18       		.byte	0x18
 3143 061b 0F       		.byte	0xf
 3144 061c 48       		.byte	0x48
 3145 061d 5C060000 		.4byte	0x65c
 3146 0621 06       		.uleb128 0x6
 3147 0622 5B060000 		.4byte	.LASF103
 3148 0626 0F       		.byte	0xf
 3149 0627 49       		.byte	0x49
 3150 0628 CE000000 		.4byte	0xce
 3151 062c 00       		.byte	0
 3152 062d 06       		.uleb128 0x6
 3153 062e 8F000000 		.4byte	.LASF104
 3154 0632 0F       		.byte	0xf
 3155 0633 4A       		.byte	0x4a
 3156 0634 CE000000 		.4byte	0xce
 3157 0638 04       		.byte	0x4
 3158 0639 06       		.uleb128 0x6
 3159 063a A9020000 		.4byte	.LASF105
 3160 063e 0F       		.byte	0xf
 3161 063f 4B       		.byte	0x4b
 3162 0640 CE000000 		.4byte	0xce
 3163 0644 08       		.byte	0x8
 3164 0645 11       		.uleb128 0x11
 3165 0646 6E00     		.ascii	"n\000"
 3166 0648 0F       		.byte	0xf
 3167 0649 4C       		.byte	0x4c
 3168 064a 31010000 		.4byte	0x131
 3169 064e 0C       		.byte	0xc
 3170 064f 06       		.uleb128 0x6
 3171 0650 DA040000 		.4byte	.LASF106
 3172 0654 0F       		.byte	0xf
 3173 0655 4D       		.byte	0x4d
 3174 0656 D9000000 		.4byte	0xd9
 3175 065a 10       		.byte	0x10
 3176 065b 00       		.byte	0
 3177 065c 03       		.uleb128 0x3
 3178 065d 95000000 		.4byte	.LASF107
 3179 0661 0F       		.byte	0xf
 3180 0662 4E       		.byte	0x4e
 3181 0663 19060000 		.4byte	0x619
 3182 0667 12       		.uleb128 0x12
 3183 0668 38       		.byte	0x38
 3184 0669 10       		.byte	0x10
 3185 066a 38       		.byte	0x38
 3186 066b A0060000 		.4byte	0x6a0
 3187 066f 06       		.uleb128 0x6
 3188 0670 5A020000 		.4byte	.LASF108
 3189 0674 10       		.byte	0x10
 3190 0675 39       		.byte	0x39
 3191 0676 31010000 		.4byte	0x131
 3192 067a 00       		.byte	0
 3193 067b 06       		.uleb128 0x6
ARM GAS  /tmp/cc4BmMZ0.s 			page 112


 3194 067c 2C050000 		.4byte	.LASF109
 3195 0680 10       		.byte	0x10
 3196 0681 3A       		.byte	0x3a
 3197 0682 31010000 		.4byte	0x131
 3198 0686 04       		.byte	0x4
 3199 0687 06       		.uleb128 0x6
 3200 0688 46070000 		.4byte	.LASF110
 3201 068c 10       		.byte	0x10
 3202 068d 3B       		.byte	0x3b
 3203 068e 5C060000 		.4byte	0x65c
 3204 0692 08       		.byte	0x8
 3205 0693 06       		.uleb128 0x6
 3206 0694 BC030000 		.4byte	.LASF111
 3207 0698 10       		.byte	0x10
 3208 0699 3D       		.byte	0x3d
 3209 069a 5C060000 		.4byte	0x65c
 3210 069e 20       		.byte	0x20
 3211 069f 00       		.byte	0
 3212 06a0 03       		.uleb128 0x3
 3213 06a1 7E020000 		.4byte	.LASF112
 3214 06a5 10       		.byte	0x10
 3215 06a6 3F       		.byte	0x3f
 3216 06a7 67060000 		.4byte	0x667
 3217 06ab 16       		.uleb128 0x16
 3218 06ac 04       		.byte	0x4
 3219 06ad 0C       		.byte	0xc
 3220 06ae FA       		.byte	0xfa
 3221 06af 08070000 		.4byte	0x708
 3222 06b3 17       		.uleb128 0x17
 3223 06b4 23000000 		.4byte	.LASF113
 3224 06b8 0C       		.byte	0xc
 3225 06b9 0101     		.2byte	0x101
 3226 06bb 10010000 		.4byte	0x110
 3227 06bf 17       		.uleb128 0x17
 3228 06c0 DA000000 		.4byte	.LASF114
 3229 06c4 0C       		.byte	0xc
 3230 06c5 0801     		.2byte	0x108
 3231 06c7 10010000 		.4byte	0x110
 3232 06cb 17       		.uleb128 0x17
 3233 06cc 0A070000 		.4byte	.LASF115
 3234 06d0 0C       		.byte	0xc
 3235 06d1 0F01     		.2byte	0x10f
 3236 06d3 40030000 		.4byte	0x340
 3237 06d7 17       		.uleb128 0x17
 3238 06d8 5F010000 		.4byte	.LASF116
 3239 06dc 0C       		.byte	0xc
 3240 06dd 1601     		.2byte	0x116
 3241 06df 08070000 		.4byte	0x708
 3242 06e3 17       		.uleb128 0x17
 3243 06e4 33020000 		.4byte	.LASF117
 3244 06e8 0C       		.byte	0xc
 3245 06e9 1E01     		.2byte	0x11e
 3246 06eb 33070000 		.4byte	0x733
 3247 06ef 17       		.uleb128 0x17
 3248 06f0 13060000 		.4byte	.LASF118
 3249 06f4 0C       		.byte	0xc
 3250 06f5 2701     		.2byte	0x127
ARM GAS  /tmp/cc4BmMZ0.s 			page 113


 3251 06f7 6A070000 		.4byte	0x76a
 3252 06fb 17       		.uleb128 0x17
 3253 06fc 94050000 		.4byte	.LASF119
 3254 0700 0C       		.byte	0xc
 3255 0701 2F01     		.2byte	0x12f
 3256 0703 1B010000 		.4byte	0x11b
 3257 0707 00       		.byte	0
 3258 0708 09       		.uleb128 0x9
 3259 0709 04       		.byte	0x4
 3260 070a 58020000 		.4byte	0x258
 3261 070e 05       		.uleb128 0x5
 3262 070f F2050000 		.4byte	.LASF120
 3263 0713 0C       		.byte	0xc
 3264 0714 04       		.byte	0x4
 3265 0715 34       		.byte	0x34
 3266 0716 33070000 		.4byte	0x733
 3267 071a 06       		.uleb128 0x6
 3268 071b 96010000 		.4byte	.LASF121
 3269 071f 04       		.byte	0x4
 3270 0720 35       		.byte	0x35
 3271 0721 8D020000 		.4byte	0x28d
 3272 0725 00       		.byte	0
 3273 0726 06       		.uleb128 0x6
 3274 0727 60020000 		.4byte	.LASF122
 3275 072b 04       		.byte	0x4
 3276 072c 37       		.byte	0x37
 3277 072d 26010000 		.4byte	0x126
 3278 0731 08       		.byte	0x8
 3279 0732 00       		.byte	0
 3280 0733 09       		.uleb128 0x9
 3281 0734 04       		.byte	0x4
 3282 0735 0E070000 		.4byte	0x70e
 3283 0739 05       		.uleb128 0x5
 3284 073a E4060000 		.4byte	.LASF123
 3285 073e 10       		.byte	0x10
 3286 073f 11       		.byte	0x11
 3287 0740 39       		.byte	0x39
 3288 0741 6A070000 		.4byte	0x76a
 3289 0745 06       		.uleb128 0x6
 3290 0746 44010000 		.4byte	.LASF124
 3291 074a 11       		.byte	0x11
 3292 074b 3A       		.byte	0x3a
 3293 074c 8D020000 		.4byte	0x28d
 3294 0750 00       		.byte	0
 3295 0751 06       		.uleb128 0x6
 3296 0752 51070000 		.4byte	.LASF125
 3297 0756 11       		.byte	0x11
 3298 0757 3C       		.byte	0x3c
 3299 0758 63020000 		.4byte	0x263
 3300 075c 08       		.byte	0x8
 3301 075d 06       		.uleb128 0x6
 3302 075e 60060000 		.4byte	.LASF126
 3303 0762 11       		.byte	0x11
 3304 0763 3E       		.byte	0x3e
 3305 0764 B9070000 		.4byte	0x7b9
 3306 0768 0C       		.byte	0xc
 3307 0769 00       		.byte	0
ARM GAS  /tmp/cc4BmMZ0.s 			page 114


 3308 076a 09       		.uleb128 0x9
 3309 076b 04       		.byte	0x4
 3310 076c 39070000 		.4byte	0x739
 3311 0770 09       		.uleb128 0x9
 3312 0771 04       		.byte	0x4
 3313 0772 76070000 		.4byte	0x776
 3314 0776 18       		.uleb128 0x18
 3315 0777 7B070000 		.4byte	0x77b
 3316 077b 04       		.uleb128 0x4
 3317 077c 01       		.byte	0x1
 3318 077d 08       		.byte	0x8
 3319 077e 4D060000 		.4byte	.LASF127
 3320 0782 09       		.uleb128 0x9
 3321 0783 04       		.byte	0x4
 3322 0784 C1040000 		.4byte	0x4c1
 3323 0788 09       		.uleb128 0x9
 3324 0789 04       		.byte	0x4
 3325 078a 42030000 		.4byte	0x342
 3326 078e 19       		.uleb128 0x19
 3327 078f 70070000 		.4byte	0x770
 3328 0793 14       		.uleb128 0x14
 3329 0794 C1040000 		.4byte	0x4c1
 3330 0798 A3070000 		.4byte	0x7a3
 3331 079c 15       		.uleb128 0x15
 3332 079d AF040000 		.4byte	0x4af
 3333 07a1 1E       		.byte	0x1e
 3334 07a2 00       		.byte	0
 3335 07a3 03       		.uleb128 0x3
 3336 07a4 BC050000 		.4byte	.LASF128
 3337 07a8 04       		.byte	0x4
 3338 07a9 38       		.byte	0x38
 3339 07aa 0E070000 		.4byte	0x70e
 3340 07ae 03       		.uleb128 0x3
 3341 07af E1010000 		.4byte	.LASF129
 3342 07b3 11       		.byte	0x11
 3343 07b4 34       		.byte	0x34
 3344 07b5 39070000 		.4byte	0x739
 3345 07b9 09       		.uleb128 0x9
 3346 07ba 04       		.byte	0x4
 3347 07bb AE070000 		.4byte	0x7ae
 3348 07bf 12       		.uleb128 0x12
 3349 07c0 28       		.byte	0x28
 3350 07c1 05       		.byte	0x5
 3351 07c2 38       		.byte	0x38
 3352 07c3 10080000 		.4byte	0x810
 3353 07c7 06       		.uleb128 0x6
 3354 07c8 A5040000 		.4byte	.LASF130
 3355 07cc 05       		.byte	0x5
 3356 07cd 39       		.byte	0x39
 3357 07ce 10080000 		.4byte	0x810
 3358 07d2 00       		.byte	0
 3359 07d3 06       		.uleb128 0x6
 3360 07d4 5D050000 		.4byte	.LASF131
 3361 07d8 05       		.byte	0x5
 3362 07d9 3B       		.byte	0x3b
 3363 07da 10080000 		.4byte	0x810
 3364 07de 04       		.byte	0x4
ARM GAS  /tmp/cc4BmMZ0.s 			page 115


 3365 07df 06       		.uleb128 0x6
 3366 07e0 09010000 		.4byte	.LASF132
 3367 07e4 05       		.byte	0x5
 3368 07e5 3D       		.byte	0x3d
 3369 07e6 10080000 		.4byte	0x810
 3370 07ea 08       		.byte	0x8
 3371 07eb 06       		.uleb128 0x6
 3372 07ec 52040000 		.4byte	.LASF133
 3373 07f0 05       		.byte	0x5
 3374 07f1 3E       		.byte	0x3e
 3375 07f2 10080000 		.4byte	0x810
 3376 07f6 0C       		.byte	0xc
 3377 07f7 06       		.uleb128 0x6
 3378 07f8 CC060000 		.4byte	.LASF134
 3379 07fc 05       		.byte	0x5
 3380 07fd 3F       		.byte	0x3f
 3381 07fe A3070000 		.4byte	0x7a3
 3382 0802 10       		.byte	0x10
 3383 0803 06       		.uleb128 0x6
 3384 0804 4E020000 		.4byte	.LASF135
 3385 0808 05       		.byte	0x5
 3386 0809 41       		.byte	0x41
 3387 080a A3070000 		.4byte	0x7a3
 3388 080e 1C       		.byte	0x1c
 3389 080f 00       		.byte	0
 3390 0810 09       		.uleb128 0x9
 3391 0811 04       		.byte	0x4
 3392 0812 10010000 		.4byte	0x110
 3393 0816 03       		.uleb128 0x3
 3394 0817 84040000 		.4byte	.LASF136
 3395 081b 05       		.byte	0x5
 3396 081c 43       		.byte	0x43
 3397 081d BF070000 		.4byte	0x7bf
 3398 0821 05       		.uleb128 0x5
 3399 0822 E9050000 		.4byte	.LASF137
 3400 0826 10       		.byte	0x10
 3401 0827 12       		.byte	0x12
 3402 0828 3B       		.byte	0x3b
 3403 0829 5E080000 		.4byte	0x85e
 3404 082d 06       		.uleb128 0x6
 3405 082e 66020000 		.4byte	.LASF138
 3406 0832 12       		.byte	0x12
 3407 0833 3C       		.byte	0x3c
 3408 0834 70070000 		.4byte	0x770
 3409 0838 00       		.byte	0
 3410 0839 06       		.uleb128 0x6
 3411 083a 9F040000 		.4byte	.LASF139
 3412 083e 12       		.byte	0x12
 3413 083f 3D       		.byte	0x3d
 3414 0840 5F080000 		.4byte	0x85f
 3415 0844 04       		.byte	0x4
 3416 0845 06       		.uleb128 0x6
 3417 0846 45020000 		.4byte	.LASF140
 3418 084a 12       		.byte	0x12
 3419 084b 3E       		.byte	0x3e
 3420 084c 5F080000 		.4byte	0x85f
 3421 0850 08       		.byte	0x8
ARM GAS  /tmp/cc4BmMZ0.s 			page 116


 3422 0851 06       		.uleb128 0x6
 3423 0852 1C050000 		.4byte	.LASF141
 3424 0856 12       		.byte	0x12
 3425 0857 3F       		.byte	0x3f
 3426 0858 5F080000 		.4byte	0x85f
 3427 085c 0C       		.byte	0xc
 3428 085d 00       		.byte	0
 3429 085e 1A       		.uleb128 0x1a
 3430 085f 09       		.uleb128 0x9
 3431 0860 04       		.byte	0x4
 3432 0861 5E080000 		.4byte	0x85e
 3433 0865 13       		.uleb128 0x13
 3434 0866 0807     		.2byte	0x708
 3435 0868 12       		.byte	0x12
 3436 0869 44       		.byte	0x44
 3437 086a AA080000 		.4byte	0x8aa
 3438 086e 11       		.uleb128 0x11
 3439 086f 543000   		.ascii	"T0\000"
 3440 0872 12       		.byte	0x12
 3441 0873 45       		.byte	0x45
 3442 0874 AA080000 		.4byte	0x8aa
 3443 0878 00       		.byte	0
 3444 0879 1B       		.uleb128 0x1b
 3445 087a 543100   		.ascii	"T1\000"
 3446 087d 12       		.byte	0x12
 3447 087e 46       		.byte	0x46
 3448 087f AA080000 		.4byte	0x8aa
 3449 0883 6801     		.2byte	0x168
 3450 0885 1B       		.uleb128 0x1b
 3451 0886 543200   		.ascii	"T2\000"
 3452 0889 12       		.byte	0x12
 3453 088a 47       		.byte	0x47
 3454 088b AA080000 		.4byte	0x8aa
 3455 088f D002     		.2byte	0x2d0
 3456 0891 1B       		.uleb128 0x1b
 3457 0892 543300   		.ascii	"T3\000"
 3458 0895 12       		.byte	0x12
 3459 0896 48       		.byte	0x48
 3460 0897 AA080000 		.4byte	0x8aa
 3461 089b 3804     		.2byte	0x438
 3462 089d 1B       		.uleb128 0x1b
 3463 089e 543400   		.ascii	"T4\000"
 3464 08a1 12       		.byte	0x12
 3465 08a2 49       		.byte	0x49
 3466 08a3 AA080000 		.4byte	0x8aa
 3467 08a7 A005     		.2byte	0x5a0
 3468 08a9 00       		.byte	0
 3469 08aa 14       		.uleb128 0x14
 3470 08ab C1040000 		.4byte	0x4c1
 3471 08af BA080000 		.4byte	0x8ba
 3472 08b3 15       		.uleb128 0x15
 3473 08b4 AF040000 		.4byte	0x4af
 3474 08b8 2C       		.byte	0x2c
 3475 08b9 00       		.byte	0
 3476 08ba 1C       		.uleb128 0x1c
 3477 08bb D7060000 		.4byte	.LASF161
 3478 08bf 0807     		.2byte	0x708
ARM GAS  /tmp/cc4BmMZ0.s 			page 117


 3479 08c1 12       		.byte	0x12
 3480 08c2 43       		.byte	0x43
 3481 08c3 DD080000 		.4byte	0x8dd
 3482 08c7 1D       		.uleb128 0x1d
 3483 08c8 776100   		.ascii	"wa\000"
 3484 08cb 12       		.byte	0x12
 3485 08cc 4A       		.byte	0x4a
 3486 08cd 65080000 		.4byte	0x865
 3487 08d1 1E       		.uleb128 0x1e
 3488 08d2 87010000 		.4byte	.LASF142
 3489 08d6 12       		.byte	0x12
 3490 08d7 4B       		.byte	0x4b
 3491 08d8 DD080000 		.4byte	0x8dd
 3492 08dc 00       		.byte	0
 3493 08dd 14       		.uleb128 0x14
 3494 08de A2000000 		.4byte	0xa2
 3495 08e2 EE080000 		.4byte	0x8ee
 3496 08e6 1F       		.uleb128 0x1f
 3497 08e7 AF040000 		.4byte	0x4af
 3498 08eb 0707     		.2byte	0x707
 3499 08ed 00       		.byte	0
 3500 08ee 20       		.uleb128 0x20
 3501 08ef 96060000 		.4byte	.LASF162
 3502 08f3 02       		.byte	0x2
 3503 08f4 2202     		.2byte	0x222
 3504 08f6 03       		.byte	0x3
 3505 08f7 08090000 		.4byte	0x908
 3506 08fb 21       		.uleb128 0x21
 3507 08fc E9010000 		.4byte	.LASF163
 3508 0900 02       		.byte	0x2
 3509 0901 2202     		.2byte	0x222
 3510 0903 B8000000 		.4byte	0xb8
 3511 0907 00       		.byte	0
 3512 0908 22       		.uleb128 0x22
 3513 0909 85000000 		.4byte	.LASF143
 3514 090d 01       		.byte	0x1
 3515 090e C801     		.2byte	0x1c8
 3516 0910 00000000 		.4byte	.LFB127
 3517 0914 10000000 		.4byte	.LFE127-.LFB127
 3518 0918 01       		.uleb128 0x1
 3519 0919 9C       		.byte	0x9c
 3520 091a 38090000 		.4byte	0x938
 3521 091e 23       		.uleb128 0x23
 3522 091f EE080000 		.4byte	0x8ee
 3523 0923 06000000 		.4byte	.LBB6
 3524 0927 06000000 		.4byte	.LBE6-.LBB6
 3525 092b 01       		.byte	0x1
 3526 092c D001     		.2byte	0x1d0
 3527 092e 24       		.uleb128 0x24
 3528 092f FB080000 		.4byte	0x8fb
 3529 0933 02       		.uleb128 0x2
 3530 0934 91       		.byte	0x91
 3531 0935 7C       		.sleb128 -4
 3532 0936 00       		.byte	0
 3533 0937 00       		.byte	0
 3534 0938 22       		.uleb128 0x22
 3535 0939 53010000 		.4byte	.LASF144
ARM GAS  /tmp/cc4BmMZ0.s 			page 118


 3536 093d 01       		.byte	0x1
 3537 093e E001     		.2byte	0x1e0
 3538 0940 00000000 		.4byte	.LFB128
 3539 0944 10000000 		.4byte	.LFE128-.LFB128
 3540 0948 01       		.uleb128 0x1
 3541 0949 9C       		.byte	0x9c
 3542 094a 68090000 		.4byte	0x968
 3543 094e 23       		.uleb128 0x23
 3544 094f EE080000 		.4byte	0x8ee
 3545 0953 06000000 		.4byte	.LBB8
 3546 0957 06000000 		.4byte	.LBE8-.LBB8
 3547 095b 01       		.byte	0x1
 3548 095c E301     		.2byte	0x1e3
 3549 095e 24       		.uleb128 0x24
 3550 095f FB080000 		.4byte	0x8fb
 3551 0963 02       		.uleb128 0x2
 3552 0964 91       		.byte	0x91
 3553 0965 7C       		.sleb128 -4
 3554 0966 00       		.byte	0
 3555 0967 00       		.byte	0
 3556 0968 25       		.uleb128 0x25
 3557 0969 B2050000 		.4byte	.LASF149
 3558 096d 03       		.byte	0x3
 3559 096e 5A01     		.2byte	0x15a
 3560 0970 00000000 		.4byte	.LFB167
 3561 0974 10000000 		.4byte	.LFE167-.LFB167
 3562 0978 01       		.uleb128 0x1
 3563 0979 9C       		.byte	0x9c
 3564 097a 26       		.uleb128 0x26
 3565 097b 34070000 		.4byte	.LASF145
 3566 097f 03       		.byte	0x3
 3567 0980 6601     		.2byte	0x166
 3568 0982 00000000 		.4byte	.LFB168
 3569 0986 4E000000 		.4byte	.LFE168-.LFB168
 3570 098a 01       		.uleb128 0x1
 3571 098b 9C       		.byte	0x9c
 3572 098c A0090000 		.4byte	0x9a0
 3573 0990 27       		.uleb128 0x27
 3574 0991 E5040000 		.4byte	.LASF164
 3575 0995 B0090000 		.4byte	0x9b0
 3576 0999 05       		.uleb128 0x5
 3577 099a 03       		.byte	0x3
 3578 099b 00000000 		.4byte	__func__.5915
 3579 099f 00       		.byte	0
 3580 09a0 14       		.uleb128 0x14
 3581 09a1 7B070000 		.4byte	0x77b
 3582 09a5 B0090000 		.4byte	0x9b0
 3583 09a9 15       		.uleb128 0x15
 3584 09aa AF040000 		.4byte	0x4af
 3585 09ae 0B       		.byte	0xb
 3586 09af 00       		.byte	0
 3587 09b0 18       		.uleb128 0x18
 3588 09b1 A0090000 		.4byte	0x9a0
 3589 09b5 28       		.uleb128 0x28
 3590 09b6 85060000 		.4byte	.LASF146
 3591 09ba 04       		.byte	0x4
 3592 09bb 95       		.byte	0x95
ARM GAS  /tmp/cc4BmMZ0.s 			page 119


 3593 09bc 26010000 		.4byte	0x126
 3594 09c0 00000000 		.4byte	.LFB203
 3595 09c4 16000000 		.4byte	.LFE203-.LFB203
 3596 09c8 01       		.uleb128 0x1
 3597 09c9 9C       		.byte	0x9c
 3598 09ca DC090000 		.4byte	0x9dc
 3599 09ce 29       		.uleb128 0x29
 3600 09cf 737000   		.ascii	"sp\000"
 3601 09d2 04       		.byte	0x4
 3602 09d3 95       		.byte	0x95
 3603 09d4 DC090000 		.4byte	0x9dc
 3604 09d8 02       		.uleb128 0x2
 3605 09d9 91       		.byte	0x91
 3606 09da 74       		.sleb128 -12
 3607 09db 00       		.byte	0
 3608 09dc 09       		.uleb128 0x9
 3609 09dd 04       		.byte	0x4
 3610 09de A3070000 		.4byte	0x7a3
 3611 09e2 28       		.uleb128 0x28
 3612 09e3 9E010000 		.4byte	.LASF147
 3613 09e7 05       		.byte	0x5
 3614 09e8 9E       		.byte	0x9e
 3615 09e9 26010000 		.4byte	0x126
 3616 09ed 00000000 		.4byte	.LFB226
 3617 09f1 1E000000 		.4byte	.LFE226-.LFB226
 3618 09f5 01       		.uleb128 0x1
 3619 09f6 9C       		.byte	0x9c
 3620 09f7 0A0A0000 		.4byte	0xa0a
 3621 09fb 29       		.uleb128 0x29
 3622 09fc 6D627000 		.ascii	"mbp\000"
 3623 0a00 05       		.byte	0x5
 3624 0a01 9E       		.byte	0x9e
 3625 0a02 0A0A0000 		.4byte	0xa0a
 3626 0a06 02       		.uleb128 0x2
 3627 0a07 91       		.byte	0x91
 3628 0a08 74       		.sleb128 -12
 3629 0a09 00       		.byte	0
 3630 0a0a 09       		.uleb128 0x9
 3631 0a0b 04       		.byte	0x4
 3632 0a0c 16080000 		.4byte	0x816
 3633 0a10 28       		.uleb128 0x28
 3634 0a11 4B050000 		.4byte	.LASF148
 3635 0a15 05       		.byte	0x5
 3636 0a16 B1       		.byte	0xb1
 3637 0a17 26010000 		.4byte	0x126
 3638 0a1b 00000000 		.4byte	.LFB227
 3639 0a1f 1E000000 		.4byte	.LFE227-.LFB227
 3640 0a23 01       		.uleb128 0x1
 3641 0a24 9C       		.byte	0x9c
 3642 0a25 380A0000 		.4byte	0xa38
 3643 0a29 29       		.uleb128 0x29
 3644 0a2a 6D627000 		.ascii	"mbp\000"
 3645 0a2e 05       		.byte	0x5
 3646 0a2f B1       		.byte	0xb1
 3647 0a30 0A0A0000 		.4byte	0xa0a
 3648 0a34 02       		.uleb128 0x2
 3649 0a35 91       		.byte	0x91
ARM GAS  /tmp/cc4BmMZ0.s 			page 120


 3650 0a36 74       		.sleb128 -12
 3651 0a37 00       		.byte	0
 3652 0a38 2A       		.uleb128 0x2a
 3653 0a39 B0030000 		.4byte	.LASF150
 3654 0a3d 06       		.byte	0x6
 3655 0a3e 47       		.byte	0x47
 3656 0a3f 00000000 		.4byte	.LFB241
 3657 0a43 1A000000 		.4byte	.LFE241-.LFB241
 3658 0a47 01       		.uleb128 0x1
 3659 0a48 9C       		.byte	0x9c
 3660 0a49 2B       		.uleb128 0x2b
 3661 0a4a AF040000 		.4byte	.LASF151
 3662 0a4e 06       		.byte	0x6
 3663 0a4f 4C       		.byte	0x4c
 3664 0a50 00000000 		.4byte	.LFB242
 3665 0a54 68090000 		.4byte	.LFE242-.LFB242
 3666 0a58 01       		.uleb128 0x1
 3667 0a59 9C       		.byte	0x9c
 3668 0a5a 870A0000 		.4byte	0xa87
 3669 0a5e 2C       		.uleb128 0x2c
 3670 0a5f 29020000 		.4byte	.LASF152
 3671 0a63 06       		.byte	0x6
 3672 0a64 4D       		.byte	0x4d
 3673 0a65 10010000 		.4byte	0x110
 3674 0a69 02       		.uleb128 0x2
 3675 0a6a 91       		.byte	0x91
 3676 0a6b 70       		.sleb128 -16
 3677 0a6c 2C       		.uleb128 0x2c
 3678 0a6d 2E020000 		.4byte	.LASF153
 3679 0a71 06       		.byte	0x6
 3680 0a72 4D       		.byte	0x4d
 3681 0a73 10010000 		.4byte	0x110
 3682 0a77 02       		.uleb128 0x2
 3683 0a78 91       		.byte	0x91
 3684 0a79 6C       		.sleb128 -20
 3685 0a7a 2D       		.uleb128 0x2d
 3686 0a7b 6900     		.ascii	"i\000"
 3687 0a7d 06       		.byte	0x6
 3688 0a7e 4E       		.byte	0x4e
 3689 0a7f 37000000 		.4byte	0x37
 3690 0a83 02       		.uleb128 0x2
 3691 0a84 91       		.byte	0x91
 3692 0a85 74       		.sleb128 -12
 3693 0a86 00       		.byte	0
 3694 0a87 2D       		.uleb128 0x2d
 3695 0a88 6D623100 		.ascii	"mb1\000"
 3696 0a8c 06       		.byte	0x6
 3697 0a8d 3C       		.byte	0x3c
 3698 0a8e 16080000 		.4byte	0x816
 3699 0a92 05       		.uleb128 0x5
 3700 0a93 03       		.byte	0x3
 3701 0a94 00000000 		.4byte	mb1
 3702 0a98 2E       		.uleb128 0x2e
 3703 0a99 64050000 		.4byte	.LASF154
 3704 0a9d 13       		.byte	0x13
 3705 0a9e FA06     		.2byte	0x6fa
 3706 0aa0 A40A0000 		.4byte	0xaa4
ARM GAS  /tmp/cc4BmMZ0.s 			page 121


 3707 0aa4 19       		.uleb128 0x19
 3708 0aa5 AD000000 		.4byte	0xad
 3709 0aa9 2F       		.uleb128 0x2f
 3710 0aaa 636800   		.ascii	"ch\000"
 3711 0aad 0C       		.byte	0xc
 3712 0aae 0902     		.2byte	0x209
 3713 0ab0 37040000 		.4byte	0x437
 3714 0ab4 30       		.uleb128 0x30
 3715 0ab5 EE000000 		.4byte	.LASF155
 3716 0ab9 12       		.byte	0x12
 3717 0aba A8       		.byte	0xa8
 3718 0abb BA080000 		.4byte	0x8ba
 3719 0abf 31       		.uleb128 0x31
 3720 0ac0 EB030000 		.4byte	.LASF156
 3721 0ac4 06       		.byte	0x6
 3722 0ac5 DE       		.byte	0xde
 3723 0ac6 D00A0000 		.4byte	0xad0
 3724 0aca 05       		.uleb128 0x5
 3725 0acb 03       		.byte	0x3
 3726 0acc 00000000 		.4byte	testmbox1
 3727 0ad0 18       		.uleb128 0x18
 3728 0ad1 21080000 		.4byte	0x821
 3729 0ad5 14       		.uleb128 0x14
 3730 0ad6 E50A0000 		.4byte	0xae5
 3731 0ada E50A0000 		.4byte	0xae5
 3732 0ade 15       		.uleb128 0x15
 3733 0adf AF040000 		.4byte	0x4af
 3734 0ae3 01       		.byte	0x1
 3735 0ae4 00       		.byte	0
 3736 0ae5 09       		.uleb128 0x9
 3737 0ae6 04       		.byte	0x4
 3738 0ae7 D00A0000 		.4byte	0xad0
 3739 0aeb 31       		.uleb128 0x31
 3740 0aec 97020000 		.4byte	.LASF157
 3741 0af0 06       		.byte	0x6
 3742 0af1 EA       		.byte	0xea
 3743 0af2 FC0A0000 		.4byte	0xafc
 3744 0af6 05       		.uleb128 0x5
 3745 0af7 03       		.byte	0x3
 3746 0af8 00000000 		.4byte	patternmbox
 3747 0afc 18       		.uleb128 0x18
 3748 0afd D50A0000 		.4byte	0xad5
 3749 0b01 00       		.byte	0
 3750              		.section	.debug_abbrev,"",%progbits
 3751              	.Ldebug_abbrev0:
 3752 0000 01       		.uleb128 0x1
 3753 0001 11       		.uleb128 0x11
 3754 0002 01       		.byte	0x1
 3755 0003 25       		.uleb128 0x25
 3756 0004 0E       		.uleb128 0xe
 3757 0005 13       		.uleb128 0x13
 3758 0006 0B       		.uleb128 0xb
 3759 0007 03       		.uleb128 0x3
 3760 0008 0E       		.uleb128 0xe
 3761 0009 1B       		.uleb128 0x1b
 3762 000a 0E       		.uleb128 0xe
 3763 000b 55       		.uleb128 0x55
ARM GAS  /tmp/cc4BmMZ0.s 			page 122


 3764 000c 17       		.uleb128 0x17
 3765 000d 11       		.uleb128 0x11
 3766 000e 01       		.uleb128 0x1
 3767 000f 10       		.uleb128 0x10
 3768 0010 17       		.uleb128 0x17
 3769 0011 00       		.byte	0
 3770 0012 00       		.byte	0
 3771 0013 02       		.uleb128 0x2
 3772 0014 24       		.uleb128 0x24
 3773 0015 00       		.byte	0
 3774 0016 0B       		.uleb128 0xb
 3775 0017 0B       		.uleb128 0xb
 3776 0018 3E       		.uleb128 0x3e
 3777 0019 0B       		.uleb128 0xb
 3778 001a 03       		.uleb128 0x3
 3779 001b 08       		.uleb128 0x8
 3780 001c 00       		.byte	0
 3781 001d 00       		.byte	0
 3782 001e 03       		.uleb128 0x3
 3783 001f 16       		.uleb128 0x16
 3784 0020 00       		.byte	0
 3785 0021 03       		.uleb128 0x3
 3786 0022 0E       		.uleb128 0xe
 3787 0023 3A       		.uleb128 0x3a
 3788 0024 0B       		.uleb128 0xb
 3789 0025 3B       		.uleb128 0x3b
 3790 0026 0B       		.uleb128 0xb
 3791 0027 49       		.uleb128 0x49
 3792 0028 13       		.uleb128 0x13
 3793 0029 00       		.byte	0
 3794 002a 00       		.byte	0
 3795 002b 04       		.uleb128 0x4
 3796 002c 24       		.uleb128 0x24
 3797 002d 00       		.byte	0
 3798 002e 0B       		.uleb128 0xb
 3799 002f 0B       		.uleb128 0xb
 3800 0030 3E       		.uleb128 0x3e
 3801 0031 0B       		.uleb128 0xb
 3802 0032 03       		.uleb128 0x3
 3803 0033 0E       		.uleb128 0xe
 3804 0034 00       		.byte	0
 3805 0035 00       		.byte	0
 3806 0036 05       		.uleb128 0x5
 3807 0037 13       		.uleb128 0x13
 3808 0038 01       		.byte	0x1
 3809 0039 03       		.uleb128 0x3
 3810 003a 0E       		.uleb128 0xe
 3811 003b 0B       		.uleb128 0xb
 3812 003c 0B       		.uleb128 0xb
 3813 003d 3A       		.uleb128 0x3a
 3814 003e 0B       		.uleb128 0xb
 3815 003f 3B       		.uleb128 0x3b
 3816 0040 0B       		.uleb128 0xb
 3817 0041 01       		.uleb128 0x1
 3818 0042 13       		.uleb128 0x13
 3819 0043 00       		.byte	0
 3820 0044 00       		.byte	0
ARM GAS  /tmp/cc4BmMZ0.s 			page 123


 3821 0045 06       		.uleb128 0x6
 3822 0046 0D       		.uleb128 0xd
 3823 0047 00       		.byte	0
 3824 0048 03       		.uleb128 0x3
 3825 0049 0E       		.uleb128 0xe
 3826 004a 3A       		.uleb128 0x3a
 3827 004b 0B       		.uleb128 0xb
 3828 004c 3B       		.uleb128 0x3b
 3829 004d 0B       		.uleb128 0xb
 3830 004e 49       		.uleb128 0x49
 3831 004f 13       		.uleb128 0x13
 3832 0050 38       		.uleb128 0x38
 3833 0051 0B       		.uleb128 0xb
 3834 0052 00       		.byte	0
 3835 0053 00       		.byte	0
 3836 0054 07       		.uleb128 0x7
 3837 0055 0D       		.uleb128 0xd
 3838 0056 00       		.byte	0
 3839 0057 03       		.uleb128 0x3
 3840 0058 08       		.uleb128 0x8
 3841 0059 3A       		.uleb128 0x3a
 3842 005a 0B       		.uleb128 0xb
 3843 005b 3B       		.uleb128 0x3b
 3844 005c 05       		.uleb128 0x5
 3845 005d 49       		.uleb128 0x49
 3846 005e 13       		.uleb128 0x13
 3847 005f 38       		.uleb128 0x38
 3848 0060 0B       		.uleb128 0xb
 3849 0061 00       		.byte	0
 3850 0062 00       		.byte	0
 3851 0063 08       		.uleb128 0x8
 3852 0064 0D       		.uleb128 0xd
 3853 0065 00       		.byte	0
 3854 0066 03       		.uleb128 0x3
 3855 0067 0E       		.uleb128 0xe
 3856 0068 3A       		.uleb128 0x3a
 3857 0069 0B       		.uleb128 0xb
 3858 006a 3B       		.uleb128 0x3b
 3859 006b 05       		.uleb128 0x5
 3860 006c 49       		.uleb128 0x49
 3861 006d 13       		.uleb128 0x13
 3862 006e 38       		.uleb128 0x38
 3863 006f 0B       		.uleb128 0xb
 3864 0070 00       		.byte	0
 3865 0071 00       		.byte	0
 3866 0072 09       		.uleb128 0x9
 3867 0073 0F       		.uleb128 0xf
 3868 0074 00       		.byte	0
 3869 0075 0B       		.uleb128 0xb
 3870 0076 0B       		.uleb128 0xb
 3871 0077 49       		.uleb128 0x49
 3872 0078 13       		.uleb128 0x13
 3873 0079 00       		.byte	0
 3874 007a 00       		.byte	0
 3875 007b 0A       		.uleb128 0xa
 3876 007c 13       		.uleb128 0x13
 3877 007d 01       		.byte	0x1
ARM GAS  /tmp/cc4BmMZ0.s 			page 124


 3878 007e 03       		.uleb128 0x3
 3879 007f 0E       		.uleb128 0xe
 3880 0080 0B       		.uleb128 0xb
 3881 0081 0B       		.uleb128 0xb
 3882 0082 3A       		.uleb128 0x3a
 3883 0083 0B       		.uleb128 0xb
 3884 0084 3B       		.uleb128 0x3b
 3885 0085 05       		.uleb128 0x5
 3886 0086 01       		.uleb128 0x1
 3887 0087 13       		.uleb128 0x13
 3888 0088 00       		.byte	0
 3889 0089 00       		.byte	0
 3890 008a 0B       		.uleb128 0xb
 3891 008b 15       		.uleb128 0x15
 3892 008c 01       		.byte	0x1
 3893 008d 27       		.uleb128 0x27
 3894 008e 19       		.uleb128 0x19
 3895 008f 01       		.uleb128 0x1
 3896 0090 13       		.uleb128 0x13
 3897 0091 00       		.byte	0
 3898 0092 00       		.byte	0
 3899 0093 0C       		.uleb128 0xc
 3900 0094 05       		.uleb128 0x5
 3901 0095 00       		.byte	0
 3902 0096 49       		.uleb128 0x49
 3903 0097 13       		.uleb128 0x13
 3904 0098 00       		.byte	0
 3905 0099 00       		.byte	0
 3906 009a 0D       		.uleb128 0xd
 3907 009b 0F       		.uleb128 0xf
 3908 009c 00       		.byte	0
 3909 009d 0B       		.uleb128 0xb
 3910 009e 0B       		.uleb128 0xb
 3911 009f 00       		.byte	0
 3912 00a0 00       		.byte	0
 3913 00a1 0E       		.uleb128 0xe
 3914 00a2 13       		.uleb128 0x13
 3915 00a3 01       		.byte	0x1
 3916 00a4 03       		.uleb128 0x3
 3917 00a5 0E       		.uleb128 0xe
 3918 00a6 0B       		.uleb128 0xb
 3919 00a7 05       		.uleb128 0x5
 3920 00a8 3A       		.uleb128 0x3a
 3921 00a9 0B       		.uleb128 0xb
 3922 00aa 3B       		.uleb128 0x3b
 3923 00ab 05       		.uleb128 0x5
 3924 00ac 01       		.uleb128 0x1
 3925 00ad 13       		.uleb128 0x13
 3926 00ae 00       		.byte	0
 3927 00af 00       		.byte	0
 3928 00b0 0F       		.uleb128 0xf
 3929 00b1 0D       		.uleb128 0xd
 3930 00b2 00       		.byte	0
 3931 00b3 03       		.uleb128 0x3
 3932 00b4 0E       		.uleb128 0xe
 3933 00b5 3A       		.uleb128 0x3a
 3934 00b6 0B       		.uleb128 0xb
ARM GAS  /tmp/cc4BmMZ0.s 			page 125


 3935 00b7 3B       		.uleb128 0x3b
 3936 00b8 05       		.uleb128 0x5
 3937 00b9 49       		.uleb128 0x49
 3938 00ba 13       		.uleb128 0x13
 3939 00bb 38       		.uleb128 0x38
 3940 00bc 05       		.uleb128 0x5
 3941 00bd 00       		.byte	0
 3942 00be 00       		.byte	0
 3943 00bf 10       		.uleb128 0x10
 3944 00c0 0D       		.uleb128 0xd
 3945 00c1 00       		.byte	0
 3946 00c2 03       		.uleb128 0x3
 3947 00c3 08       		.uleb128 0x8
 3948 00c4 3A       		.uleb128 0x3a
 3949 00c5 0B       		.uleb128 0xb
 3950 00c6 3B       		.uleb128 0x3b
 3951 00c7 05       		.uleb128 0x5
 3952 00c8 49       		.uleb128 0x49
 3953 00c9 13       		.uleb128 0x13
 3954 00ca 38       		.uleb128 0x38
 3955 00cb 05       		.uleb128 0x5
 3956 00cc 00       		.byte	0
 3957 00cd 00       		.byte	0
 3958 00ce 11       		.uleb128 0x11
 3959 00cf 0D       		.uleb128 0xd
 3960 00d0 00       		.byte	0
 3961 00d1 03       		.uleb128 0x3
 3962 00d2 08       		.uleb128 0x8
 3963 00d3 3A       		.uleb128 0x3a
 3964 00d4 0B       		.uleb128 0xb
 3965 00d5 3B       		.uleb128 0x3b
 3966 00d6 0B       		.uleb128 0xb
 3967 00d7 49       		.uleb128 0x49
 3968 00d8 13       		.uleb128 0x13
 3969 00d9 38       		.uleb128 0x38
 3970 00da 0B       		.uleb128 0xb
 3971 00db 00       		.byte	0
 3972 00dc 00       		.byte	0
 3973 00dd 12       		.uleb128 0x12
 3974 00de 13       		.uleb128 0x13
 3975 00df 01       		.byte	0x1
 3976 00e0 0B       		.uleb128 0xb
 3977 00e1 0B       		.uleb128 0xb
 3978 00e2 3A       		.uleb128 0x3a
 3979 00e3 0B       		.uleb128 0xb
 3980 00e4 3B       		.uleb128 0x3b
 3981 00e5 0B       		.uleb128 0xb
 3982 00e6 01       		.uleb128 0x1
 3983 00e7 13       		.uleb128 0x13
 3984 00e8 00       		.byte	0
 3985 00e9 00       		.byte	0
 3986 00ea 13       		.uleb128 0x13
 3987 00eb 13       		.uleb128 0x13
 3988 00ec 01       		.byte	0x1
 3989 00ed 0B       		.uleb128 0xb
 3990 00ee 05       		.uleb128 0x5
 3991 00ef 3A       		.uleb128 0x3a
ARM GAS  /tmp/cc4BmMZ0.s 			page 126


 3992 00f0 0B       		.uleb128 0xb
 3993 00f1 3B       		.uleb128 0x3b
 3994 00f2 0B       		.uleb128 0xb
 3995 00f3 01       		.uleb128 0x1
 3996 00f4 13       		.uleb128 0x13
 3997 00f5 00       		.byte	0
 3998 00f6 00       		.byte	0
 3999 00f7 14       		.uleb128 0x14
 4000 00f8 01       		.uleb128 0x1
 4001 00f9 01       		.byte	0x1
 4002 00fa 49       		.uleb128 0x49
 4003 00fb 13       		.uleb128 0x13
 4004 00fc 01       		.uleb128 0x1
 4005 00fd 13       		.uleb128 0x13
 4006 00fe 00       		.byte	0
 4007 00ff 00       		.byte	0
 4008 0100 15       		.uleb128 0x15
 4009 0101 21       		.uleb128 0x21
 4010 0102 00       		.byte	0
 4011 0103 49       		.uleb128 0x49
 4012 0104 13       		.uleb128 0x13
 4013 0105 2F       		.uleb128 0x2f
 4014 0106 0B       		.uleb128 0xb
 4015 0107 00       		.byte	0
 4016 0108 00       		.byte	0
 4017 0109 16       		.uleb128 0x16
 4018 010a 17       		.uleb128 0x17
 4019 010b 01       		.byte	0x1
 4020 010c 0B       		.uleb128 0xb
 4021 010d 0B       		.uleb128 0xb
 4022 010e 3A       		.uleb128 0x3a
 4023 010f 0B       		.uleb128 0xb
 4024 0110 3B       		.uleb128 0x3b
 4025 0111 0B       		.uleb128 0xb
 4026 0112 01       		.uleb128 0x1
 4027 0113 13       		.uleb128 0x13
 4028 0114 00       		.byte	0
 4029 0115 00       		.byte	0
 4030 0116 17       		.uleb128 0x17
 4031 0117 0D       		.uleb128 0xd
 4032 0118 00       		.byte	0
 4033 0119 03       		.uleb128 0x3
 4034 011a 0E       		.uleb128 0xe
 4035 011b 3A       		.uleb128 0x3a
 4036 011c 0B       		.uleb128 0xb
 4037 011d 3B       		.uleb128 0x3b
 4038 011e 05       		.uleb128 0x5
 4039 011f 49       		.uleb128 0x49
 4040 0120 13       		.uleb128 0x13
 4041 0121 00       		.byte	0
 4042 0122 00       		.byte	0
 4043 0123 18       		.uleb128 0x18
 4044 0124 26       		.uleb128 0x26
 4045 0125 00       		.byte	0
 4046 0126 49       		.uleb128 0x49
 4047 0127 13       		.uleb128 0x13
 4048 0128 00       		.byte	0
ARM GAS  /tmp/cc4BmMZ0.s 			page 127


 4049 0129 00       		.byte	0
 4050 012a 19       		.uleb128 0x19
 4051 012b 35       		.uleb128 0x35
 4052 012c 00       		.byte	0
 4053 012d 49       		.uleb128 0x49
 4054 012e 13       		.uleb128 0x13
 4055 012f 00       		.byte	0
 4056 0130 00       		.byte	0
 4057 0131 1A       		.uleb128 0x1a
 4058 0132 15       		.uleb128 0x15
 4059 0133 00       		.byte	0
 4060 0134 27       		.uleb128 0x27
 4061 0135 19       		.uleb128 0x19
 4062 0136 00       		.byte	0
 4063 0137 00       		.byte	0
 4064 0138 1B       		.uleb128 0x1b
 4065 0139 0D       		.uleb128 0xd
 4066 013a 00       		.byte	0
 4067 013b 03       		.uleb128 0x3
 4068 013c 08       		.uleb128 0x8
 4069 013d 3A       		.uleb128 0x3a
 4070 013e 0B       		.uleb128 0xb
 4071 013f 3B       		.uleb128 0x3b
 4072 0140 0B       		.uleb128 0xb
 4073 0141 49       		.uleb128 0x49
 4074 0142 13       		.uleb128 0x13
 4075 0143 38       		.uleb128 0x38
 4076 0144 05       		.uleb128 0x5
 4077 0145 00       		.byte	0
 4078 0146 00       		.byte	0
 4079 0147 1C       		.uleb128 0x1c
 4080 0148 17       		.uleb128 0x17
 4081 0149 01       		.byte	0x1
 4082 014a 03       		.uleb128 0x3
 4083 014b 0E       		.uleb128 0xe
 4084 014c 0B       		.uleb128 0xb
 4085 014d 05       		.uleb128 0x5
 4086 014e 3A       		.uleb128 0x3a
 4087 014f 0B       		.uleb128 0xb
 4088 0150 3B       		.uleb128 0x3b
 4089 0151 0B       		.uleb128 0xb
 4090 0152 01       		.uleb128 0x1
 4091 0153 13       		.uleb128 0x13
 4092 0154 00       		.byte	0
 4093 0155 00       		.byte	0
 4094 0156 1D       		.uleb128 0x1d
 4095 0157 0D       		.uleb128 0xd
 4096 0158 00       		.byte	0
 4097 0159 03       		.uleb128 0x3
 4098 015a 08       		.uleb128 0x8
 4099 015b 3A       		.uleb128 0x3a
 4100 015c 0B       		.uleb128 0xb
 4101 015d 3B       		.uleb128 0x3b
 4102 015e 0B       		.uleb128 0xb
 4103 015f 49       		.uleb128 0x49
 4104 0160 13       		.uleb128 0x13
 4105 0161 00       		.byte	0
ARM GAS  /tmp/cc4BmMZ0.s 			page 128


 4106 0162 00       		.byte	0
 4107 0163 1E       		.uleb128 0x1e
 4108 0164 0D       		.uleb128 0xd
 4109 0165 00       		.byte	0
 4110 0166 03       		.uleb128 0x3
 4111 0167 0E       		.uleb128 0xe
 4112 0168 3A       		.uleb128 0x3a
 4113 0169 0B       		.uleb128 0xb
 4114 016a 3B       		.uleb128 0x3b
 4115 016b 0B       		.uleb128 0xb
 4116 016c 49       		.uleb128 0x49
 4117 016d 13       		.uleb128 0x13
 4118 016e 00       		.byte	0
 4119 016f 00       		.byte	0
 4120 0170 1F       		.uleb128 0x1f
 4121 0171 21       		.uleb128 0x21
 4122 0172 00       		.byte	0
 4123 0173 49       		.uleb128 0x49
 4124 0174 13       		.uleb128 0x13
 4125 0175 2F       		.uleb128 0x2f
 4126 0176 05       		.uleb128 0x5
 4127 0177 00       		.byte	0
 4128 0178 00       		.byte	0
 4129 0179 20       		.uleb128 0x20
 4130 017a 2E       		.uleb128 0x2e
 4131 017b 01       		.byte	0x1
 4132 017c 03       		.uleb128 0x3
 4133 017d 0E       		.uleb128 0xe
 4134 017e 3A       		.uleb128 0x3a
 4135 017f 0B       		.uleb128 0xb
 4136 0180 3B       		.uleb128 0x3b
 4137 0181 05       		.uleb128 0x5
 4138 0182 27       		.uleb128 0x27
 4139 0183 19       		.uleb128 0x19
 4140 0184 20       		.uleb128 0x20
 4141 0185 0B       		.uleb128 0xb
 4142 0186 01       		.uleb128 0x1
 4143 0187 13       		.uleb128 0x13
 4144 0188 00       		.byte	0
 4145 0189 00       		.byte	0
 4146 018a 21       		.uleb128 0x21
 4147 018b 05       		.uleb128 0x5
 4148 018c 00       		.byte	0
 4149 018d 03       		.uleb128 0x3
 4150 018e 0E       		.uleb128 0xe
 4151 018f 3A       		.uleb128 0x3a
 4152 0190 0B       		.uleb128 0xb
 4153 0191 3B       		.uleb128 0x3b
 4154 0192 05       		.uleb128 0x5
 4155 0193 49       		.uleb128 0x49
 4156 0194 13       		.uleb128 0x13
 4157 0195 00       		.byte	0
 4158 0196 00       		.byte	0
 4159 0197 22       		.uleb128 0x22
 4160 0198 2E       		.uleb128 0x2e
 4161 0199 01       		.byte	0x1
 4162 019a 03       		.uleb128 0x3
ARM GAS  /tmp/cc4BmMZ0.s 			page 129


 4163 019b 0E       		.uleb128 0xe
 4164 019c 3A       		.uleb128 0x3a
 4165 019d 0B       		.uleb128 0xb
 4166 019e 3B       		.uleb128 0x3b
 4167 019f 05       		.uleb128 0x5
 4168 01a0 27       		.uleb128 0x27
 4169 01a1 19       		.uleb128 0x19
 4170 01a2 11       		.uleb128 0x11
 4171 01a3 01       		.uleb128 0x1
 4172 01a4 12       		.uleb128 0x12
 4173 01a5 06       		.uleb128 0x6
 4174 01a6 40       		.uleb128 0x40
 4175 01a7 18       		.uleb128 0x18
 4176 01a8 9742     		.uleb128 0x2117
 4177 01aa 19       		.uleb128 0x19
 4178 01ab 01       		.uleb128 0x1
 4179 01ac 13       		.uleb128 0x13
 4180 01ad 00       		.byte	0
 4181 01ae 00       		.byte	0
 4182 01af 23       		.uleb128 0x23
 4183 01b0 1D       		.uleb128 0x1d
 4184 01b1 01       		.byte	0x1
 4185 01b2 31       		.uleb128 0x31
 4186 01b3 13       		.uleb128 0x13
 4187 01b4 11       		.uleb128 0x11
 4188 01b5 01       		.uleb128 0x1
 4189 01b6 12       		.uleb128 0x12
 4190 01b7 06       		.uleb128 0x6
 4191 01b8 58       		.uleb128 0x58
 4192 01b9 0B       		.uleb128 0xb
 4193 01ba 59       		.uleb128 0x59
 4194 01bb 05       		.uleb128 0x5
 4195 01bc 00       		.byte	0
 4196 01bd 00       		.byte	0
 4197 01be 24       		.uleb128 0x24
 4198 01bf 05       		.uleb128 0x5
 4199 01c0 00       		.byte	0
 4200 01c1 31       		.uleb128 0x31
 4201 01c2 13       		.uleb128 0x13
 4202 01c3 02       		.uleb128 0x2
 4203 01c4 18       		.uleb128 0x18
 4204 01c5 00       		.byte	0
 4205 01c6 00       		.byte	0
 4206 01c7 25       		.uleb128 0x25
 4207 01c8 2E       		.uleb128 0x2e
 4208 01c9 00       		.byte	0
 4209 01ca 03       		.uleb128 0x3
 4210 01cb 0E       		.uleb128 0xe
 4211 01cc 3A       		.uleb128 0x3a
 4212 01cd 0B       		.uleb128 0xb
 4213 01ce 3B       		.uleb128 0x3b
 4214 01cf 05       		.uleb128 0x5
 4215 01d0 27       		.uleb128 0x27
 4216 01d1 19       		.uleb128 0x19
 4217 01d2 11       		.uleb128 0x11
 4218 01d3 01       		.uleb128 0x1
 4219 01d4 12       		.uleb128 0x12
ARM GAS  /tmp/cc4BmMZ0.s 			page 130


 4220 01d5 06       		.uleb128 0x6
 4221 01d6 40       		.uleb128 0x40
 4222 01d7 18       		.uleb128 0x18
 4223 01d8 9642     		.uleb128 0x2116
 4224 01da 19       		.uleb128 0x19
 4225 01db 00       		.byte	0
 4226 01dc 00       		.byte	0
 4227 01dd 26       		.uleb128 0x26
 4228 01de 2E       		.uleb128 0x2e
 4229 01df 01       		.byte	0x1
 4230 01e0 03       		.uleb128 0x3
 4231 01e1 0E       		.uleb128 0xe
 4232 01e2 3A       		.uleb128 0x3a
 4233 01e3 0B       		.uleb128 0xb
 4234 01e4 3B       		.uleb128 0x3b
 4235 01e5 05       		.uleb128 0x5
 4236 01e6 27       		.uleb128 0x27
 4237 01e7 19       		.uleb128 0x19
 4238 01e8 11       		.uleb128 0x11
 4239 01e9 01       		.uleb128 0x1
 4240 01ea 12       		.uleb128 0x12
 4241 01eb 06       		.uleb128 0x6
 4242 01ec 40       		.uleb128 0x40
 4243 01ed 18       		.uleb128 0x18
 4244 01ee 9642     		.uleb128 0x2116
 4245 01f0 19       		.uleb128 0x19
 4246 01f1 01       		.uleb128 0x1
 4247 01f2 13       		.uleb128 0x13
 4248 01f3 00       		.byte	0
 4249 01f4 00       		.byte	0
 4250 01f5 27       		.uleb128 0x27
 4251 01f6 34       		.uleb128 0x34
 4252 01f7 00       		.byte	0
 4253 01f8 03       		.uleb128 0x3
 4254 01f9 0E       		.uleb128 0xe
 4255 01fa 49       		.uleb128 0x49
 4256 01fb 13       		.uleb128 0x13
 4257 01fc 34       		.uleb128 0x34
 4258 01fd 19       		.uleb128 0x19
 4259 01fe 02       		.uleb128 0x2
 4260 01ff 18       		.uleb128 0x18
 4261 0200 00       		.byte	0
 4262 0201 00       		.byte	0
 4263 0202 28       		.uleb128 0x28
 4264 0203 2E       		.uleb128 0x2e
 4265 0204 01       		.byte	0x1
 4266 0205 03       		.uleb128 0x3
 4267 0206 0E       		.uleb128 0xe
 4268 0207 3A       		.uleb128 0x3a
 4269 0208 0B       		.uleb128 0xb
 4270 0209 3B       		.uleb128 0x3b
 4271 020a 0B       		.uleb128 0xb
 4272 020b 27       		.uleb128 0x27
 4273 020c 19       		.uleb128 0x19
 4274 020d 49       		.uleb128 0x49
 4275 020e 13       		.uleb128 0x13
 4276 020f 11       		.uleb128 0x11
ARM GAS  /tmp/cc4BmMZ0.s 			page 131


 4277 0210 01       		.uleb128 0x1
 4278 0211 12       		.uleb128 0x12
 4279 0212 06       		.uleb128 0x6
 4280 0213 40       		.uleb128 0x40
 4281 0214 18       		.uleb128 0x18
 4282 0215 9642     		.uleb128 0x2116
 4283 0217 19       		.uleb128 0x19
 4284 0218 01       		.uleb128 0x1
 4285 0219 13       		.uleb128 0x13
 4286 021a 00       		.byte	0
 4287 021b 00       		.byte	0
 4288 021c 29       		.uleb128 0x29
 4289 021d 05       		.uleb128 0x5
 4290 021e 00       		.byte	0
 4291 021f 03       		.uleb128 0x3
 4292 0220 08       		.uleb128 0x8
 4293 0221 3A       		.uleb128 0x3a
 4294 0222 0B       		.uleb128 0xb
 4295 0223 3B       		.uleb128 0x3b
 4296 0224 0B       		.uleb128 0xb
 4297 0225 49       		.uleb128 0x49
 4298 0226 13       		.uleb128 0x13
 4299 0227 02       		.uleb128 0x2
 4300 0228 18       		.uleb128 0x18
 4301 0229 00       		.byte	0
 4302 022a 00       		.byte	0
 4303 022b 2A       		.uleb128 0x2a
 4304 022c 2E       		.uleb128 0x2e
 4305 022d 00       		.byte	0
 4306 022e 03       		.uleb128 0x3
 4307 022f 0E       		.uleb128 0xe
 4308 0230 3A       		.uleb128 0x3a
 4309 0231 0B       		.uleb128 0xb
 4310 0232 3B       		.uleb128 0x3b
 4311 0233 0B       		.uleb128 0xb
 4312 0234 27       		.uleb128 0x27
 4313 0235 19       		.uleb128 0x19
 4314 0236 11       		.uleb128 0x11
 4315 0237 01       		.uleb128 0x1
 4316 0238 12       		.uleb128 0x12
 4317 0239 06       		.uleb128 0x6
 4318 023a 40       		.uleb128 0x40
 4319 023b 18       		.uleb128 0x18
 4320 023c 9642     		.uleb128 0x2116
 4321 023e 19       		.uleb128 0x19
 4322 023f 00       		.byte	0
 4323 0240 00       		.byte	0
 4324 0241 2B       		.uleb128 0x2b
 4325 0242 2E       		.uleb128 0x2e
 4326 0243 01       		.byte	0x1
 4327 0244 03       		.uleb128 0x3
 4328 0245 0E       		.uleb128 0xe
 4329 0246 3A       		.uleb128 0x3a
 4330 0247 0B       		.uleb128 0xb
 4331 0248 3B       		.uleb128 0x3b
 4332 0249 0B       		.uleb128 0xb
 4333 024a 27       		.uleb128 0x27
ARM GAS  /tmp/cc4BmMZ0.s 			page 132


 4334 024b 19       		.uleb128 0x19
 4335 024c 11       		.uleb128 0x11
 4336 024d 01       		.uleb128 0x1
 4337 024e 12       		.uleb128 0x12
 4338 024f 06       		.uleb128 0x6
 4339 0250 40       		.uleb128 0x40
 4340 0251 18       		.uleb128 0x18
 4341 0252 9642     		.uleb128 0x2116
 4342 0254 19       		.uleb128 0x19
 4343 0255 01       		.uleb128 0x1
 4344 0256 13       		.uleb128 0x13
 4345 0257 00       		.byte	0
 4346 0258 00       		.byte	0
 4347 0259 2C       		.uleb128 0x2c
 4348 025a 34       		.uleb128 0x34
 4349 025b 00       		.byte	0
 4350 025c 03       		.uleb128 0x3
 4351 025d 0E       		.uleb128 0xe
 4352 025e 3A       		.uleb128 0x3a
 4353 025f 0B       		.uleb128 0xb
 4354 0260 3B       		.uleb128 0x3b
 4355 0261 0B       		.uleb128 0xb
 4356 0262 49       		.uleb128 0x49
 4357 0263 13       		.uleb128 0x13
 4358 0264 02       		.uleb128 0x2
 4359 0265 18       		.uleb128 0x18
 4360 0266 00       		.byte	0
 4361 0267 00       		.byte	0
 4362 0268 2D       		.uleb128 0x2d
 4363 0269 34       		.uleb128 0x34
 4364 026a 00       		.byte	0
 4365 026b 03       		.uleb128 0x3
 4366 026c 08       		.uleb128 0x8
 4367 026d 3A       		.uleb128 0x3a
 4368 026e 0B       		.uleb128 0xb
 4369 026f 3B       		.uleb128 0x3b
 4370 0270 0B       		.uleb128 0xb
 4371 0271 49       		.uleb128 0x49
 4372 0272 13       		.uleb128 0x13
 4373 0273 02       		.uleb128 0x2
 4374 0274 18       		.uleb128 0x18
 4375 0275 00       		.byte	0
 4376 0276 00       		.byte	0
 4377 0277 2E       		.uleb128 0x2e
 4378 0278 34       		.uleb128 0x34
 4379 0279 00       		.byte	0
 4380 027a 03       		.uleb128 0x3
 4381 027b 0E       		.uleb128 0xe
 4382 027c 3A       		.uleb128 0x3a
 4383 027d 0B       		.uleb128 0xb
 4384 027e 3B       		.uleb128 0x3b
 4385 027f 05       		.uleb128 0x5
 4386 0280 49       		.uleb128 0x49
 4387 0281 13       		.uleb128 0x13
 4388 0282 3F       		.uleb128 0x3f
 4389 0283 19       		.uleb128 0x19
 4390 0284 3C       		.uleb128 0x3c
ARM GAS  /tmp/cc4BmMZ0.s 			page 133


 4391 0285 19       		.uleb128 0x19
 4392 0286 00       		.byte	0
 4393 0287 00       		.byte	0
 4394 0288 2F       		.uleb128 0x2f
 4395 0289 34       		.uleb128 0x34
 4396 028a 00       		.byte	0
 4397 028b 03       		.uleb128 0x3
 4398 028c 08       		.uleb128 0x8
 4399 028d 3A       		.uleb128 0x3a
 4400 028e 0B       		.uleb128 0xb
 4401 028f 3B       		.uleb128 0x3b
 4402 0290 05       		.uleb128 0x5
 4403 0291 49       		.uleb128 0x49
 4404 0292 13       		.uleb128 0x13
 4405 0293 3F       		.uleb128 0x3f
 4406 0294 19       		.uleb128 0x19
 4407 0295 3C       		.uleb128 0x3c
 4408 0296 19       		.uleb128 0x19
 4409 0297 00       		.byte	0
 4410 0298 00       		.byte	0
 4411 0299 30       		.uleb128 0x30
 4412 029a 34       		.uleb128 0x34
 4413 029b 00       		.byte	0
 4414 029c 03       		.uleb128 0x3
 4415 029d 0E       		.uleb128 0xe
 4416 029e 3A       		.uleb128 0x3a
 4417 029f 0B       		.uleb128 0xb
 4418 02a0 3B       		.uleb128 0x3b
 4419 02a1 0B       		.uleb128 0xb
 4420 02a2 49       		.uleb128 0x49
 4421 02a3 13       		.uleb128 0x13
 4422 02a4 3F       		.uleb128 0x3f
 4423 02a5 19       		.uleb128 0x19
 4424 02a6 3C       		.uleb128 0x3c
 4425 02a7 19       		.uleb128 0x19
 4426 02a8 00       		.byte	0
 4427 02a9 00       		.byte	0
 4428 02aa 31       		.uleb128 0x31
 4429 02ab 34       		.uleb128 0x34
 4430 02ac 00       		.byte	0
 4431 02ad 03       		.uleb128 0x3
 4432 02ae 0E       		.uleb128 0xe
 4433 02af 3A       		.uleb128 0x3a
 4434 02b0 0B       		.uleb128 0xb
 4435 02b1 3B       		.uleb128 0x3b
 4436 02b2 0B       		.uleb128 0xb
 4437 02b3 49       		.uleb128 0x49
 4438 02b4 13       		.uleb128 0x13
 4439 02b5 3F       		.uleb128 0x3f
 4440 02b6 19       		.uleb128 0x19
 4441 02b7 02       		.uleb128 0x2
 4442 02b8 18       		.uleb128 0x18
 4443 02b9 00       		.byte	0
 4444 02ba 00       		.byte	0
 4445 02bb 00       		.byte	0
 4446              		.section	.debug_aranges,"",%progbits
 4447 0000 5C000000 		.4byte	0x5c
ARM GAS  /tmp/cc4BmMZ0.s 			page 134


 4448 0004 0200     		.2byte	0x2
 4449 0006 00000000 		.4byte	.Ldebug_info0
 4450 000a 04       		.byte	0x4
 4451 000b 00       		.byte	0
 4452 000c 0000     		.2byte	0
 4453 000e 0000     		.2byte	0
 4454 0010 00000000 		.4byte	.LFB127
 4455 0014 10000000 		.4byte	.LFE127-.LFB127
 4456 0018 00000000 		.4byte	.LFB128
 4457 001c 10000000 		.4byte	.LFE128-.LFB128
 4458 0020 00000000 		.4byte	.LFB167
 4459 0024 10000000 		.4byte	.LFE167-.LFB167
 4460 0028 00000000 		.4byte	.LFB168
 4461 002c 4E000000 		.4byte	.LFE168-.LFB168
 4462 0030 00000000 		.4byte	.LFB203
 4463 0034 16000000 		.4byte	.LFE203-.LFB203
 4464 0038 00000000 		.4byte	.LFB226
 4465 003c 1E000000 		.4byte	.LFE226-.LFB226
 4466 0040 00000000 		.4byte	.LFB227
 4467 0044 1E000000 		.4byte	.LFE227-.LFB227
 4468 0048 00000000 		.4byte	.LFB241
 4469 004c 1A000000 		.4byte	.LFE241-.LFB241
 4470 0050 00000000 		.4byte	.LFB242
 4471 0054 68090000 		.4byte	.LFE242-.LFB242
 4472 0058 00000000 		.4byte	0
 4473 005c 00000000 		.4byte	0
 4474              		.section	.debug_ranges,"",%progbits
 4475              	.Ldebug_ranges0:
 4476 0000 00000000 		.4byte	.LFB127
 4477 0004 10000000 		.4byte	.LFE127
 4478 0008 00000000 		.4byte	.LFB128
 4479 000c 10000000 		.4byte	.LFE128
 4480 0010 00000000 		.4byte	.LFB167
 4481 0014 10000000 		.4byte	.LFE167
 4482 0018 00000000 		.4byte	.LFB168
 4483 001c 4E000000 		.4byte	.LFE168
 4484 0020 00000000 		.4byte	.LFB203
 4485 0024 16000000 		.4byte	.LFE203
 4486 0028 00000000 		.4byte	.LFB226
 4487 002c 1E000000 		.4byte	.LFE226
 4488 0030 00000000 		.4byte	.LFB227
 4489 0034 1E000000 		.4byte	.LFE227
 4490 0038 00000000 		.4byte	.LFB241
 4491 003c 1A000000 		.4byte	.LFE241
 4492 0040 00000000 		.4byte	.LFB242
 4493 0044 68090000 		.4byte	.LFE242
 4494 0048 00000000 		.4byte	0
 4495 004c 00000000 		.4byte	0
 4496              		.section	.debug_line,"",%progbits
 4497              	.Ldebug_line0:
 4498 0000 3F050000 		.section	.debug_str,"MS",%progbits,1
 4498      02000202 
 4498      00000201 
 4498      FB0E0D00 
 4498      01010101 
 4499              	.LASF98:
 4500 0000 74625F70 		.ascii	"tb_ptr\000"
ARM GAS  /tmp/cc4BmMZ0.s 			page 135


 4500      747200
 4501              	.LASF55:
 4502 0007 72656164 		.ascii	"ready_list_t\000"
 4502      795F6C69 
 4502      73745F74 
 4502      00
 4503              	.LASF92:
 4504 0014 73655F74 		.ascii	"se_time\000"
 4504      696D6500 
 4505              	.LASF2:
 4506 001c 73697A65 		.ascii	"size_t\000"
 4506      5F7400
 4507              	.LASF113:
 4508 0023 7264796D 		.ascii	"rdymsg\000"
 4508      736700
 4509              	.LASF17:
 4510 002a 75696E74 		.ascii	"uint64_t\000"
 4510      36345F74 
 4510      00
 4511              	.LASF85:
 4512 0033 6B65726E 		.ascii	"kernel_stats\000"
 4512      656C5F73 
 4512      74617473 
 4512      00
 4513              	.LASF3:
 4514 0040 5F5F7569 		.ascii	"__uint8_t\000"
 4514      6E74385F 
 4514      7400
 4515              	.LASF91:
 4516 004a 706F7274 		.ascii	"port_intctx\000"
 4516      5F696E74 
 4516      63747800 
 4517              	.LASF54:
 4518 0056 63685F74 		.ascii	"ch_threads_queue\000"
 4518      68726561 
 4518      64735F71 
 4518      75657565 
 4518      00
 4519              	.LASF74:
 4520 0067 73797374 		.ascii	"system_debug_t\000"
 4520      656D5F64 
 4520      65627567 
 4520      5F7400
 4521              	.LASF86:
 4522 0076 69646C65 		.ascii	"idle_thread_wa\000"
 4522      5F746872 
 4522      6561645F 
 4522      776100
 4523              	.LASF143:
 4524 0085 706F7274 		.ascii	"port_lock\000"
 4524      5F6C6F63 
 4524      6B00
 4525              	.LASF104:
 4526 008f 776F7273 		.ascii	"worst\000"
 4526      7400
 4527              	.LASF107:
 4528 0095 74696D65 		.ascii	"time_measurement_t\000"
ARM GAS  /tmp/cc4BmMZ0.s 			page 136


 4528      5F6D6561 
 4528      73757265 
 4528      6D656E74 
 4528      5F7400
 4529              	.LASF13:
 4530 00a8 6C6F6E67 		.ascii	"long long unsigned int\000"
 4530      206C6F6E 
 4530      6720756E 
 4530      7369676E 
 4530      65642069 
 4531              	.LASF100:
 4532 00bf 63685F74 		.ascii	"ch_trace_buffer_t\000"
 4532      72616365 
 4532      5F627566 
 4532      6665725F 
 4532      7400
 4533              	.LASF95:
 4534 00d1 73655F73 		.ascii	"se_state\000"
 4534      74617465 
 4534      00
 4535              	.LASF114:
 4536 00da 65786974 		.ascii	"exitcode\000"
 4536      636F6465 
 4536      00
 4537              	.LASF84:
 4538 00e3 6D61696E 		.ascii	"mainthread\000"
 4538      74687265 
 4538      616400
 4539              	.LASF155:
 4540 00ee 74657374 		.ascii	"test\000"
 4540      00
 4541              	.LASF71:
 4542 00f3 76697274 		.ascii	"virtual_timers_list_t\000"
 4542      75616C5F 
 4542      74696D65 
 4542      72735F6C 
 4542      6973745F 
 4543              	.LASF132:
 4544 0109 6D625F77 		.ascii	"mb_wrptr\000"
 4544      72707472 
 4544      00
 4545              	.LASF19:
 4546 0112 72747469 		.ascii	"rttime_t\000"
 4546      6D655F74 
 4546      00
 4547              	.LASF32:
 4548 011b 705F7072 		.ascii	"p_prio\000"
 4548      696F00
 4549              	.LASF11:
 4550 0122 6C6F6E67 		.ascii	"long long int\000"
 4550      206C6F6E 
 4550      6720696E 
 4550      7400
 4551              	.LASF1:
 4552 0130 7369676E 		.ascii	"signed char\000"
 4552      65642063 
 4552      68617200 
ARM GAS  /tmp/cc4BmMZ0.s 			page 137


 4553              	.LASF47:
 4554 013c 705F6D70 		.ascii	"p_mpool\000"
 4554      6F6F6C00 
 4555              	.LASF124:
 4556 0144 6D5F7175 		.ascii	"m_queue\000"
 4556      65756500 
 4557              	.LASF83:
 4558 014c 76746C69 		.ascii	"vtlist\000"
 4558      737400
 4559              	.LASF144:
 4560 0153 706F7274 		.ascii	"port_unlock\000"
 4560      5F756E6C 
 4560      6F636B00 
 4561              	.LASF116:
 4562 015f 77747472 		.ascii	"wttrp\000"
 4562      7000
 4563              	.LASF81:
 4564 0165 63685F73 		.ascii	"ch_system\000"
 4564      79737465 
 4564      6D00
 4565              	.LASF8:
 4566 016f 6C6F6E67 		.ascii	"long int\000"
 4566      20696E74 
 4566      00
 4567              	.LASF21:
 4568 0178 74737461 		.ascii	"tstate_t\000"
 4568      74655F74 
 4568      00
 4569              	.LASF93:
 4570 0181 73655F74 		.ascii	"se_tp\000"
 4570      7000
 4571              	.LASF142:
 4572 0187 62756666 		.ascii	"buffer\000"
 4572      657200
 4573              	.LASF34:
 4574 018e 705F6E65 		.ascii	"p_newer\000"
 4574      77657200 
 4575              	.LASF121:
 4576 0196 735F7175 		.ascii	"s_queue\000"
 4576      65756500 
 4577              	.LASF147:
 4578 019e 63684D42 		.ascii	"chMBGetFreeCountI\000"
 4578      47657446 
 4578      72656543 
 4578      6F756E74 
 4578      4900
 4579              	.LASF97:
 4580 01b0 74625F73 		.ascii	"tb_size\000"
 4580      697A6500 
 4581              	.LASF60:
 4582 01b8 725F6E65 		.ascii	"r_newer\000"
 4582      77657200 
 4583              	.LASF88:
 4584 01c0 72656761 		.ascii	"regarm_t\000"
 4584      726D5F74 
 4584      00
 4585              	.LASF67:
ARM GAS  /tmp/cc4BmMZ0.s 			page 138


 4586 01c9 76745F70 		.ascii	"vt_prev\000"
 4586      72657600 
 4587              	.LASF75:
 4588 01d1 63685F73 		.ascii	"ch_system_debug\000"
 4588      79737465 
 4588      6D5F6465 
 4588      62756700 
 4589              	.LASF129:
 4590 01e1 6D757465 		.ascii	"mutex_t\000"
 4590      785F7400 
 4591              	.LASF163:
 4592 01e9 76616C75 		.ascii	"value\000"
 4592      6500
 4593              	.LASF78:
 4594 01ef 6C6F636B 		.ascii	"lock_cnt\000"
 4594      5F636E74 
 4594      00
 4595              	.LASF9:
 4596 01f8 5F5F7569 		.ascii	"__uint32_t\000"
 4596      6E743332 
 4596      5F7400
 4597              	.LASF26:
 4598 0203 636E745F 		.ascii	"cnt_t\000"
 4598      7400
 4599              	.LASF37:
 4600 0209 705F7374 		.ascii	"p_stklimit\000"
 4600      6B6C696D 
 4600      697400
 4601              	.LASF0:
 4602 0214 756E7369 		.ascii	"unsigned int\000"
 4602      676E6564 
 4602      20696E74 
 4602      00
 4603              	.LASF66:
 4604 0221 76745F6E 		.ascii	"vt_next\000"
 4604      65787400 
 4605              	.LASF152:
 4606 0229 6D736731 		.ascii	"msg1\000"
 4606      00
 4607              	.LASF153:
 4608 022e 6D736732 		.ascii	"msg2\000"
 4608      00
 4609              	.LASF117:
 4610 0233 77747365 		.ascii	"wtsemp\000"
 4610      6D7000
 4611              	.LASF42:
 4612 023a 705F6D73 		.ascii	"p_msgqueue\000"
 4612      67717565 
 4612      756500
 4613              	.LASF140:
 4614 0245 74656172 		.ascii	"teardown\000"
 4614      646F776E 
 4614      00
 4615              	.LASF135:
 4616 024e 6D625F65 		.ascii	"mb_emptysem\000"
 4616      6D707479 
 4616      73656D00 
ARM GAS  /tmp/cc4BmMZ0.s 			page 139


 4617              	.LASF108:
 4618 025a 6E5F6972 		.ascii	"n_irq\000"
 4618      7100
 4619              	.LASF122:
 4620 0260 735F636E 		.ascii	"s_cnt\000"
 4620      7400
 4621              	.LASF138:
 4622 0266 6E616D65 		.ascii	"name\000"
 4622      00
 4623              	.LASF6:
 4624 026b 73686F72 		.ascii	"short unsigned int\000"
 4624      7420756E 
 4624      7369676E 
 4624      65642069 
 4624      6E7400
 4625              	.LASF112:
 4626 027e 6B65726E 		.ascii	"kernel_stats_t\000"
 4626      656C5F73 
 4626      74617473 
 4626      5F7400
 4627              	.LASF51:
 4628 028d 63685F74 		.ascii	"ch_thread\000"
 4628      68726561 
 4628      6400
 4629              	.LASF157:
 4630 0297 70617474 		.ascii	"patternmbox\000"
 4630      65726E6D 
 4630      626F7800 
 4631              	.LASF24:
 4632 02a3 6D73675F 		.ascii	"msg_t\000"
 4632      7400
 4633              	.LASF105:
 4634 02a9 6C617374 		.ascii	"last\000"
 4634      00
 4635              	.LASF160:
 4636 02ae 2F686F6D 		.ascii	"/home/jerker/chibios/ChibiOS_16.1.4/testhal/STM32/S"
 4636      652F6A65 
 4636      726B6572 
 4636      2F636869 
 4636      62696F73 
 4637 02e1 544D3332 		.ascii	"TM32F4xx/USB_CDC\000"
 4637      46347878 
 4637      2F555342 
 4637      5F434443 
 4637      00
 4638              	.LASF27:
 4639 02f2 75636E74 		.ascii	"ucnt_t\000"
 4639      5F7400
 4640              	.LASF80:
 4641 02f9 63685F73 		.ascii	"ch_system_t\000"
 4641      79737465 
 4641      6D5F7400 
 4642              	.LASF158:
 4643 0305 474E5520 		.ascii	"GNU C 4.8.2 -mcpu=cortex-m4 -mno-thumb-interwork -m"
 4643      4320342E 
 4643      382E3220 
 4643      2D6D6370 
ARM GAS  /tmp/cc4BmMZ0.s 			page 140


 4643      753D636F 
 4644 0338 7468756D 		.ascii	"thumb -ggdb -O0 -fomit-frame-pointer -falign-functi"
 4644      62202D67 
 4644      67646220 
 4644      2D4F3020 
 4644      2D666F6D 
 4645 036b 6F6E733D 		.ascii	"ons=16 -ffunction-sections -fdata-sections -fno-com"
 4645      3136202D 
 4645      6666756E 
 4645      6374696F 
 4645      6E2D7365 
 4646 039e 6D6F6E20 		.ascii	"mon -flto\000"
 4646      2D666C74 
 4646      6F00
 4647              	.LASF20:
 4648 03a8 746D6F64 		.ascii	"tmode_t\000"
 4648      655F7400 
 4649              	.LASF150:
 4650 03b0 6D626F78 		.ascii	"mbox1_setup\000"
 4650      315F7365 
 4650      74757000 
 4651              	.LASF111:
 4652 03bc 6D5F6372 		.ascii	"m_crit_isr\000"
 4652      69745F69 
 4652      737200
 4653              	.LASF56:
 4654 03c7 63685F72 		.ascii	"ch_ready_list\000"
 4654      65616479 
 4654      5F6C6973 
 4654      7400
 4655              	.LASF25:
 4656 03d5 6576656E 		.ascii	"eventmask_t\000"
 4656      746D6173 
 4656      6B5F7400 
 4657              	.LASF7:
 4658 03e1 5F5F696E 		.ascii	"__int32_t\000"
 4658      7433325F 
 4658      7400
 4659              	.LASF156:
 4660 03eb 74657374 		.ascii	"testmbox1\000"
 4660      6D626F78 
 4660      3100
 4661              	.LASF89:
 4662 03f5 73746B61 		.ascii	"stkalign_t\000"
 4662      6C69676E 
 4662      5F7400
 4663              	.LASF159:
 4664 0400 2E2E2F2E 		.ascii	"../../../../test/rt/testmbox.c\000"
 4664      2E2F2E2E 
 4664      2F2E2E2F 
 4664      74657374 
 4664      2F72742F 
 4665              	.LASF87:
 4666 041f 73697A65 		.ascii	"sizetype\000"
 4666      74797065 
 4666      00
 4667              	.LASF49:
ARM GAS  /tmp/cc4BmMZ0.s 			page 141


 4668 0428 74687265 		.ascii	"thread_reference_t\000"
 4668      61645F72 
 4668      65666572 
 4668      656E6365 
 4668      5F7400
 4669              	.LASF72:
 4670 043b 63685F76 		.ascii	"ch_virtual_timers_list\000"
 4670      69727475 
 4670      616C5F74 
 4670      696D6572 
 4670      735F6C69 
 4671              	.LASF133:
 4672 0452 6D625F72 		.ascii	"mb_rdptr\000"
 4672      64707472 
 4672      00
 4673              	.LASF96:
 4674 045b 63685F73 		.ascii	"ch_swc_event_t\000"
 4674      77635F65 
 4674      76656E74 
 4674      5F7400
 4675              	.LASF73:
 4676 046a 76745F6C 		.ascii	"vt_lasttime\000"
 4676      61737474 
 4676      696D6500 
 4677              	.LASF35:
 4678 0476 705F6F6C 		.ascii	"p_older\000"
 4678      64657200 
 4679              	.LASF59:
 4680 047e 725F6374 		.ascii	"r_ctx\000"
 4680      7800
 4681              	.LASF136:
 4682 0484 6D61696C 		.ascii	"mailbox_t\000"
 4682      626F785F 
 4682      7400
 4683              	.LASF102:
 4684 048e 746D5F63 		.ascii	"tm_calibration_t\000"
 4684      616C6962 
 4684      72617469 
 4684      6F6E5F74 
 4684      00
 4685              	.LASF139:
 4686 049f 73657475 		.ascii	"setup\000"
 4686      7000
 4687              	.LASF130:
 4688 04a5 6D625F62 		.ascii	"mb_buffer\000"
 4688      75666665 
 4688      7200
 4689              	.LASF151:
 4690 04af 6D626F78 		.ascii	"mbox1_execute\000"
 4690      315F6578 
 4690      65637574 
 4690      6500
 4691              	.LASF62:
 4692 04bd 725F6375 		.ascii	"r_current\000"
 4692      7272656E 
 4692      7400
 4693              	.LASF61:
ARM GAS  /tmp/cc4BmMZ0.s 			page 142


 4694 04c7 725F6F6C 		.ascii	"r_older\000"
 4694      64657200 
 4695              	.LASF12:
 4696 04cf 5F5F7569 		.ascii	"__uint64_t\000"
 4696      6E743634 
 4696      5F7400
 4697              	.LASF106:
 4698 04da 63756D75 		.ascii	"cumulative\000"
 4698      6C617469 
 4698      766500
 4699              	.LASF164:
 4700 04e5 5F5F6675 		.ascii	"__func__.5915\000"
 4700      6E635F5F 
 4700      2E353931 
 4700      3500
 4701              	.LASF22:
 4702 04f3 74726566 		.ascii	"trefs_t\000"
 4702      735F7400 
 4703              	.LASF99:
 4704 04fb 74625F62 		.ascii	"tb_buffer\000"
 4704      75666665 
 4704      7200
 4705              	.LASF64:
 4706 0505 76697274 		.ascii	"virtual_timer_t\000"
 4706      75616C5F 
 4706      74696D65 
 4706      725F7400 
 4707              	.LASF31:
 4708 0515 705F7072 		.ascii	"p_prev\000"
 4708      657600
 4709              	.LASF141:
 4710 051c 65786563 		.ascii	"execute\000"
 4710      75746500 
 4711              	.LASF23:
 4712 0524 74707269 		.ascii	"tprio_t\000"
 4712      6F5F7400 
 4713              	.LASF109:
 4714 052c 6E5F6374 		.ascii	"n_ctxswc\000"
 4714      78737763 
 4714      00
 4715              	.LASF15:
 4716 0535 696E7433 		.ascii	"int32_t\000"
 4716      325F7400 
 4717              	.LASF4:
 4718 053d 756E7369 		.ascii	"unsigned char\000"
 4718      676E6564 
 4718      20636861 
 4718      7200
 4719              	.LASF148:
 4720 054b 63684D42 		.ascii	"chMBGetUsedCountI\000"
 4720      47657455 
 4720      73656443 
 4720      6F756E74 
 4720      4900
 4721              	.LASF131:
 4722 055d 6D625F74 		.ascii	"mb_top\000"
 4722      6F7000
ARM GAS  /tmp/cc4BmMZ0.s 			page 143


 4723              	.LASF154:
 4724 0564 49544D5F 		.ascii	"ITM_RxBuffer\000"
 4724      52784275 
 4724      66666572 
 4724      00
 4725              	.LASF45:
 4726 0571 705F6D74 		.ascii	"p_mtxlist\000"
 4726      786C6973 
 4726      7400
 4727              	.LASF5:
 4728 057b 73686F72 		.ascii	"short int\000"
 4728      7420696E 
 4728      7400
 4729              	.LASF38:
 4730 0585 705F7374 		.ascii	"p_state\000"
 4730      61746500 
 4731              	.LASF58:
 4732 058d 725F7072 		.ascii	"r_prio\000"
 4732      696F00
 4733              	.LASF119:
 4734 0594 65776D61 		.ascii	"ewmask\000"
 4734      736B00
 4735              	.LASF30:
 4736 059b 705F6E65 		.ascii	"p_next\000"
 4736      787400
 4737              	.LASF39:
 4738 05a2 705F666C 		.ascii	"p_flags\000"
 4738      61677300 
 4739              	.LASF48:
 4740 05aa 705F7374 		.ascii	"p_stats\000"
 4740      61747300 
 4741              	.LASF149:
 4742 05b2 63685379 		.ascii	"chSysLock\000"
 4742      734C6F63 
 4742      6B00
 4743              	.LASF128:
 4744 05bc 73656D61 		.ascii	"semaphore_t\000"
 4744      70686F72 
 4744      655F7400 
 4745              	.LASF53:
 4746 05c8 74687265 		.ascii	"threads_queue_t\000"
 4746      6164735F 
 4746      71756575 
 4746      655F7400 
 4747              	.LASF65:
 4748 05d8 63685F76 		.ascii	"ch_virtual_timer\000"
 4748      69727475 
 4748      616C5F74 
 4748      696D6572 
 4748      00
 4749              	.LASF137:
 4750 05e9 74657374 		.ascii	"testcase\000"
 4750      63617365 
 4750      00
 4751              	.LASF120:
 4752 05f2 63685F73 		.ascii	"ch_semaphore\000"
 4752      656D6170 
ARM GAS  /tmp/cc4BmMZ0.s 			page 144


 4752      686F7265 
 4752      00
 4753              	.LASF44:
 4754 05ff 705F6570 		.ascii	"p_epending\000"
 4754      656E6469 
 4754      6E6700
 4755              	.LASF16:
 4756 060a 75696E74 		.ascii	"uint32_t\000"
 4756      33325F74 
 4756      00
 4757              	.LASF118:
 4758 0613 77746D74 		.ascii	"wtmtxp\000"
 4758      787000
 4759              	.LASF57:
 4760 061a 725F7175 		.ascii	"r_queue\000"
 4760      65756500 
 4761              	.LASF68:
 4762 0622 76745F64 		.ascii	"vt_delta\000"
 4762      656C7461 
 4762      00
 4763              	.LASF52:
 4764 062b 63685F74 		.ascii	"ch_threads_list\000"
 4764      68726561 
 4764      64735F6C 
 4764      69737400 
 4765              	.LASF10:
 4766 063b 6C6F6E67 		.ascii	"long unsigned int\000"
 4766      20756E73 
 4766      69676E65 
 4766      6420696E 
 4766      7400
 4767              	.LASF127:
 4768 064d 63686172 		.ascii	"char\000"
 4768      00
 4769              	.LASF29:
 4770 0652 74687265 		.ascii	"thread_t\000"
 4770      61645F74 
 4770      00
 4771              	.LASF103:
 4772 065b 62657374 		.ascii	"best\000"
 4772      00
 4773              	.LASF126:
 4774 0660 6D5F6E65 		.ascii	"m_next\000"
 4774      787400
 4775              	.LASF28:
 4776 0667 73797374 		.ascii	"systime_t\000"
 4776      696D655F 
 4776      7400
 4777              	.LASF46:
 4778 0671 705F7265 		.ascii	"p_realprio\000"
 4778      616C7072 
 4778      696F00
 4779              	.LASF63:
 4780 067c 76746675 		.ascii	"vtfunc_t\000"
 4780      6E635F74 
 4780      00
 4781              	.LASF146:
ARM GAS  /tmp/cc4BmMZ0.s 			page 145


 4782 0685 63685365 		.ascii	"chSemGetCounterI\000"
 4782      6D476574 
 4782      436F756E 
 4782      74657249 
 4782      00
 4783              	.LASF162:
 4784 0696 5F5F7365 		.ascii	"__set_BASEPRI\000"
 4784      745F4241 
 4784      53455052 
 4784      4900
 4785              	.LASF76:
 4786 06a4 70616E69 		.ascii	"panic_msg\000"
 4786      635F6D73 
 4786      6700
 4787              	.LASF101:
 4788 06ae 6F666673 		.ascii	"offset\000"
 4788      657400
 4789              	.LASF90:
 4790 06b5 636F6E74 		.ascii	"context\000"
 4790      65787400 
 4791              	.LASF18:
 4792 06bd 7274636E 		.ascii	"rtcnt_t\000"
 4792      745F7400 
 4793              	.LASF70:
 4794 06c5 76745F70 		.ascii	"vt_par\000"
 4794      617200
 4795              	.LASF134:
 4796 06cc 6D625F66 		.ascii	"mb_fullsem\000"
 4796      756C6C73 
 4796      656D00
 4797              	.LASF161:
 4798 06d7 74657374 		.ascii	"test_buffers\000"
 4798      5F627566 
 4798      66657273 
 4798      00
 4799              	.LASF123:
 4800 06e4 63685F6D 		.ascii	"ch_mutex\000"
 4800      75746578 
 4800      00
 4801              	.LASF40:
 4802 06ed 705F7265 		.ascii	"p_refs\000"
 4802      667300
 4803              	.LASF77:
 4804 06f4 6973725F 		.ascii	"isr_cnt\000"
 4804      636E7400 
 4805              	.LASF82:
 4806 06fc 726C6973 		.ascii	"rlist\000"
 4806      7400
 4807              	.LASF14:
 4808 0702 75696E74 		.ascii	"uint8_t\000"
 4808      385F7400 
 4809              	.LASF115:
 4810 070a 77746F62 		.ascii	"wtobjp\000"
 4810      6A7000
 4811              	.LASF36:
 4812 0711 705F6E61 		.ascii	"p_name\000"
 4812      6D6500
ARM GAS  /tmp/cc4BmMZ0.s 			page 146


 4813              	.LASF50:
 4814 0718 74687265 		.ascii	"threads_list_t\000"
 4814      6164735F 
 4814      6C697374 
 4814      5F7400
 4815              	.LASF79:
 4816 0727 74726163 		.ascii	"trace_buffer\000"
 4816      655F6275 
 4816      66666572 
 4816      00
 4817              	.LASF145:
 4818 0734 63685379 		.ascii	"chSysUnlock\000"
 4818      73556E6C 
 4818      6F636B00 
 4819              	.LASF43:
 4820 0740 705F6D73 		.ascii	"p_msg\000"
 4820      6700
 4821              	.LASF110:
 4822 0746 6D5F6372 		.ascii	"m_crit_thd\000"
 4822      69745F74 
 4822      686400
 4823              	.LASF125:
 4824 0751 6D5F6F77 		.ascii	"m_owner\000"
 4824      6E657200 
 4825              	.LASF94:
 4826 0759 73655F77 		.ascii	"se_wtobjp\000"
 4826      746F626A 
 4826      7000
 4827              	.LASF33:
 4828 0763 705F6374 		.ascii	"p_ctx\000"
 4828      7800
 4829              	.LASF69:
 4830 0769 76745F66 		.ascii	"vt_func\000"
 4830      756E6300 
 4831              	.LASF41:
 4832 0771 705F7761 		.ascii	"p_waiting\000"
 4832      6974696E 
 4832      6700
 4833              		.comm	__gnu_lto_v1,1,1
 4834              		.ident	"GCC: (4.8.2-14ubuntu1+6) 4.8.2"
ARM GAS  /tmp/cc4BmMZ0.s 			page 147


DEFINED SYMBOLS
                            *ABS*:0000000000000000 testmbox.c
     /tmp/cc4BmMZ0.s:889    .text.port_lock:0000000000000000 $t
     /tmp/cc4BmMZ0.s:894    .text.port_lock:0000000000000000 port_lock
     /tmp/cc4BmMZ0.s:925    .text.port_unlock:0000000000000000 $t
     /tmp/cc4BmMZ0.s:930    .text.port_unlock:0000000000000000 port_unlock
     /tmp/cc4BmMZ0.s:959    .text.chSysLock:0000000000000000 $t
     /tmp/cc4BmMZ0.s:964    .text.chSysLock:0000000000000000 chSysLock
     /tmp/cc4BmMZ0.s:987    .text.chSysUnlock:0000000000000000 $t
     /tmp/cc4BmMZ0.s:992    .text.chSysUnlock:0000000000000000 chSysUnlock
     /tmp/cc4BmMZ0.s:2375   .rodata.__func__.5915:0000000000000000 __func__.5915
     /tmp/cc4BmMZ0.s:1037   .text.chSemGetCounterI:0000000000000000 $t
     /tmp/cc4BmMZ0.s:1042   .text.chSemGetCounterI:0000000000000000 chSemGetCounterI
     /tmp/cc4BmMZ0.s:1069   .text.chMBGetFreeCountI:0000000000000000 $t
     /tmp/cc4BmMZ0.s:1074   .text.chMBGetFreeCountI:0000000000000000 chMBGetFreeCountI
     /tmp/cc4BmMZ0.s:1104   .text.chMBGetUsedCountI:0000000000000000 $t
     /tmp/cc4BmMZ0.s:1109   .text.chMBGetUsedCountI:0000000000000000 chMBGetUsedCountI
     /tmp/cc4BmMZ0.s:1138   .data.mb1:0000000000000000 $d
     /tmp/cc4BmMZ0.s:1141   .data.mb1:0000000000000000 mb1
     /tmp/cc4BmMZ0.s:1153   .text.mbox1_setup:0000000000000000 $t
     /tmp/cc4BmMZ0.s:1158   .text.mbox1_setup:0000000000000000 mbox1_setup
     /tmp/cc4BmMZ0.s:1182   .rodata:0000000000000000 $d
     /tmp/cc4BmMZ0.s:1183   .rodata:0000000000000000 .LC0
     /tmp/cc4BmMZ0.s:1186   .text.mbox1_execute:0000000000000000 $t
     /tmp/cc4BmMZ0.s:1191   .text.mbox1_execute:0000000000000000 mbox1_execute
     /tmp/cc4BmMZ0.s:2358   .rodata.testmbox1:0000000000000000 testmbox1
     /tmp/cc4BmMZ0.s:2355   .rodata.testmbox1:0000000000000000 $d
     /tmp/cc4BmMZ0.s:2368   .rodata.patternmbox:0000000000000000 patternmbox
     /tmp/cc4BmMZ0.s:2365   .rodata.patternmbox:0000000000000000 $d
     /tmp/cc4BmMZ0.s:2372   .rodata.__func__.5915:0000000000000000 $d
                            *COM*:0000000000000001 __gnu_lto_v1
                     .debug_frame:0000000000000010 $d

UNDEFINED SYMBOLS
_stats_start_measure_crit_thd
_dbg_check_lock
_dbg_check_unlock
_stats_stop_measure_crit_thd
ch
chSysHalt
chDbgCheckClassI
test
chMBObjectInit
_test_assert
chMBPost
chMBPostAhead
chMBPostI
chMBPostAheadI
chMBFetch
test_emit_token
_test_assert_sequence
chMBFetchI
chMBReset
