Archive member included because of file (symbol)

/usr/lib/gcc/arm-none-eabi/4.8.2/../../../arm-none-eabi/lib/armv7e-m/libg.a(lib_a-memcpy.o)
                              /tmp/ccFEEOUj.ltrans0.ltrans.o (memcpy)
/usr/lib/gcc/arm-none-eabi/4.8.2/../../../arm-none-eabi/lib/armv7e-m/libg.a(lib_a-memset.o)
                              /tmp/ccFEEOUj.ltrans7.ltrans.o (memset)
/usr/lib/gcc/arm-none-eabi/4.8.2/../../../arm-none-eabi/lib/armv7e-m/libg.a(lib_a-strcmp.o)
                              /tmp/ccFEEOUj.ltrans1.ltrans.o (strcmp)
/usr/lib/gcc/arm-none-eabi/4.8.2/../../../arm-none-eabi/lib/armv7e-m/libg.a(lib_a-strpbrk.o)
                              /tmp/ccFEEOUj.ltrans1.ltrans.o (strpbrk)
/usr/lib/gcc/arm-none-eabi/4.8.2/../../../arm-none-eabi/lib/armv7e-m/libg.a(lib_a-strspn.o)
                              /tmp/ccFEEOUj.ltrans1.ltrans.o (strspn)

Discarded input sections

 .data          0x0000000000000000        0x0 build/obj/crt0_v7m.o
 .bss           0x0000000000000000        0x0 build/obj/crt0_v7m.o
 .data          0x0000000000000000        0x0 build/obj/chcoreasm_v7m.o
 .bss           0x0000000000000000        0x0 build/obj/chcoreasm_v7m.o
 .text          0x0000000000000000        0x0 build/obj/crt1.o (symbol from plugin)
 .text          0x0000000000000000        0x0 /tmp/ccFEEOUj.ltrans0.ltrans.o
 .data          0x0000000000000000        0x0 /tmp/ccFEEOUj.ltrans0.ltrans.o
 .bss           0x0000000000000000        0x0 /tmp/ccFEEOUj.ltrans0.ltrans.o
 .text.shellCreateStatic.4420
                0x0000000000000000       0x30 /tmp/ccFEEOUj.ltrans0.ltrans.o
 .text.writes.14583
                0x0000000000000000       0x60 /tmp/ccFEEOUj.ltrans0.ltrans.o
 .text.reads.14589
                0x0000000000000000       0x60 /tmp/ccFEEOUj.ltrans0.ltrans.o
 .text.put.14570
                0x0000000000000000       0x50 /tmp/ccFEEOUj.ltrans0.ltrans.o
 .text.get.14580
                0x0000000000000000       0x40 /tmp/ccFEEOUj.ltrans0.ltrans.o
 .text.msObjectInit.4378
                0x0000000000000000       0x40 /tmp/ccFEEOUj.ltrans0.ltrans.o
 .text.chsnprintf.4349
                0x0000000000000000       0x60 /tmp/ccFEEOUj.ltrans0.ltrans.o
 .text          0x0000000000000000        0x0 /tmp/ccFEEOUj.ltrans1.ltrans.o
 .data          0x0000000000000000        0x0 /tmp/ccFEEOUj.ltrans1.ltrans.o
 .bss           0x0000000000000000        0x0 /tmp/ccFEEOUj.ltrans1.ltrans.o
 .text          0x0000000000000000        0x0 /tmp/ccFEEOUj.ltrans2.ltrans.o
 .data          0x0000000000000000        0x0 /tmp/ccFEEOUj.ltrans2.ltrans.o
 .bss           0x0000000000000000        0x0 /tmp/ccFEEOUj.ltrans2.ltrans.o
 .text          0x0000000000000000        0x0 /tmp/ccFEEOUj.ltrans3.ltrans.o
 .data          0x0000000000000000        0x0 /tmp/ccFEEOUj.ltrans3.ltrans.o
 .bss           0x0000000000000000        0x0 /tmp/ccFEEOUj.ltrans3.ltrans.o
 .text          0x0000000000000000        0x0 /tmp/ccFEEOUj.ltrans4.ltrans.o
 .data          0x0000000000000000        0x0 /tmp/ccFEEOUj.ltrans4.ltrans.o
 .bss           0x0000000000000000        0x0 /tmp/ccFEEOUj.ltrans4.ltrans.o
 .text          0x0000000000000000        0x0 /tmp/ccFEEOUj.ltrans5.ltrans.o
 .data          0x0000000000000000        0x0 /tmp/ccFEEOUj.ltrans5.ltrans.o
 .bss           0x0000000000000000        0x0 /tmp/ccFEEOUj.ltrans5.ltrans.o
 .text          0x0000000000000000        0x0 /tmp/ccFEEOUj.ltrans6.ltrans.o
 .data          0x0000000000000000        0x0 /tmp/ccFEEOUj.ltrans6.ltrans.o
 .bss           0x0000000000000000        0x0 /tmp/ccFEEOUj.ltrans6.ltrans.o
 .text.usb_lld_stop
                0x0000000000000000       0xa0 /tmp/ccFEEOUj.ltrans6.ltrans.o
 .text.usb_lld_disable_endpoints
                0x0000000000000000       0x20 /tmp/ccFEEOUj.ltrans6.ltrans.o
 .text          0x0000000000000000        0x0 /tmp/ccFEEOUj.ltrans7.ltrans.o
 .data          0x0000000000000000        0x0 /tmp/ccFEEOUj.ltrans7.ltrans.o
 .bss           0x0000000000000000        0x0 /tmp/ccFEEOUj.ltrans7.ltrans.o
 .text.usbDisableEndpointsI.4503
                0x0000000000000000       0x80 /tmp/ccFEEOUj.ltrans7.ltrans.o
 .text.usbStallReceiveI.4487
                0x0000000000000000       0x60 /tmp/ccFEEOUj.ltrans7.ltrans.o
 .text.usbStallTransmitI.4483
                0x0000000000000000       0x60 /tmp/ccFEEOUj.ltrans7.ltrans.o
 .text.nvicDisableVector
                0x0000000000000000       0x40 /tmp/ccFEEOUj.ltrans7.ltrans.o
 .text.nvicSetSystemHandlerPriority.4450
                0x0000000000000000       0x40 /tmp/ccFEEOUj.ltrans7.ltrans.o
 .text.nvicClearPending.4446
                0x0000000000000000       0x30 /tmp/ccFEEOUj.ltrans7.ltrans.o
 .text._pal_lld_setgroupmode
                0x0000000000000000      0x170 /tmp/ccFEEOUj.ltrans7.ltrans.o
 .text          0x0000000000000000        0x0 /tmp/ccFEEOUj.ltrans8.ltrans.o
 .data          0x0000000000000000        0x0 /tmp/ccFEEOUj.ltrans8.ltrans.o
 .bss           0x0000000000000000        0x0 /tmp/ccFEEOUj.ltrans8.ltrans.o
 .text.obqFlush.4534
                0x0000000000000000       0x40 /tmp/ccFEEOUj.ltrans8.ltrans.o
 .text.palReadBus.4531
                0x0000000000000000       0x40 /tmp/ccFEEOUj.ltrans8.ltrans.o
 .text.palWriteBus.4527
                0x0000000000000000       0x60 /tmp/ccFEEOUj.ltrans8.ltrans.o
 .text.palSetBusMode.4494
                0x0000000000000000       0x50 /tmp/ccFEEOUj.ltrans8.ltrans.o
 .text.osalOsRescheduleS.9382.4465
                0x0000000000000000       0x10 /tmp/ccFEEOUj.ltrans8.ltrans.o
 .text.sduStop.4402
                0x0000000000000000       0xb0 /tmp/ccFEEOUj.ltrans8.ltrans.o
 .text.osalOsRescheduleS.9763.4293
                0x0000000000000000       0x10 /tmp/ccFEEOUj.ltrans8.ltrans.o
 .text.usbStop.4010
                0x0000000000000000       0x90 /tmp/ccFEEOUj.ltrans8.ltrans.o
 .text          0x0000000000000000        0x0 /tmp/ccFEEOUj.ltrans9.ltrans.o
 .data          0x0000000000000000        0x0 /tmp/ccFEEOUj.ltrans9.ltrans.o
 .bss           0x0000000000000000        0x0 /tmp/ccFEEOUj.ltrans9.ltrans.o
 .text.st_lld_get_alarm.8742.4250
                0x0000000000000000       0x10 /tmp/ccFEEOUj.ltrans9.ltrans.o
 .text.stGetAlarm.4234
                0x0000000000000000       0x30 /tmp/ccFEEOUj.ltrans9.ltrans.o
 .text.ibqGetFullBufferTimeout.4171
                0x0000000000000000       0x30 /tmp/ccFEEOUj.ltrans9.ltrans.o
 .text.ibqReleaseEmptyBuffer.4164
                0x0000000000000000       0x20 /tmp/ccFEEOUj.ltrans9.ltrans.o
 .text.obqGetEmptyBufferTimeout.4128
                0x0000000000000000       0x30 /tmp/ccFEEOUj.ltrans9.ltrans.o
 .text.obqPostFullBuffer.4010
                0x0000000000000000       0x20 /tmp/ccFEEOUj.ltrans9.ltrans.o
 .text          0x0000000000000000        0x0 /tmp/ccFEEOUj.ltrans10.ltrans.o
 .data          0x0000000000000000        0x0 /tmp/ccFEEOUj.ltrans10.ltrans.o
 .bss           0x0000000000000000        0x0 /tmp/ccFEEOUj.ltrans10.ltrans.o
 .text.chEvtGetAndClearFlags.4309
                0x0000000000000000       0x30 /tmp/ccFEEOUj.ltrans10.ltrans.o
 .text.chEvtGetAndClearFlagsI.4283
                0x0000000000000000       0x20 /tmp/ccFEEOUj.ltrans10.ltrans.o
 .text          0x0000000000000000        0x0 /tmp/ccFEEOUj.ltrans11.ltrans.o
 .data          0x0000000000000000        0x0 /tmp/ccFEEOUj.ltrans11.ltrans.o
 .bss           0x0000000000000000        0x0 /tmp/ccFEEOUj.ltrans11.ltrans.o
 .text.chThdSleepUntilWindowed.4370
                0x0000000000000000       0x40 /tmp/ccFEEOUj.ltrans11.ltrans.o
 .text.chThdSuspendTimeoutS.4352
                0x0000000000000000       0x50 /tmp/ccFEEOUj.ltrans11.ltrans.o
 .text.chThdResumeS.4344
                0x0000000000000000       0x40 /tmp/ccFEEOUj.ltrans11.ltrans.o
 .text.chThdResume.4340
                0x0000000000000000       0x20 /tmp/ccFEEOUj.ltrans11.ltrans.o
 .text          0x0000000000000000        0x0 /tmp/ccFEEOUj.ltrans12.ltrans.o
 .data          0x0000000000000000        0x0 /tmp/ccFEEOUj.ltrans12.ltrans.o
 .bss           0x0000000000000000        0x0 /tmp/ccFEEOUj.ltrans12.ltrans.o
 .text.chVTIsTimeWithinX.5393
                0x0000000000000000       0x30 /tmp/ccFEEOUj.ltrans12.ltrans.o
 .rodata.__func__.6690.5587
                0x0000000000000000       0x18 /tmp/ccFEEOUj.ltrans12.ltrans.o
 .rodata.__func__.6702.5589
                0x0000000000000000       0x10 /tmp/ccFEEOUj.ltrans12.ltrans.o
 .rodata.__func__.7438.8764
                0x0000000000000000        0xc /tmp/ccFEEOUj.ltrans12.ltrans.o
 .rodata.__func__.7424.9197
                0x0000000000000000        0xc /tmp/ccFEEOUj.ltrans12.ltrans.o
 .rodata.__func__.7429.9198
                0x0000000000000000        0xc /tmp/ccFEEOUj.ltrans12.ltrans.o
 .rodata.__func__.7434.9199
                0x0000000000000000       0x10 /tmp/ccFEEOUj.ltrans12.ltrans.o
 .rodata.__func__.7488.9715
                0x0000000000000000        0x8 /tmp/ccFEEOUj.ltrans12.ltrans.o
 .rodata.__func__.7816.10191
                0x0000000000000000        0x8 /tmp/ccFEEOUj.ltrans12.ltrans.o
 .rodata.__func__.7830.10193
                0x0000000000000000       0x18 /tmp/ccFEEOUj.ltrans12.ltrans.o
 .rodata.__func__.7854.10196
                0x0000000000000000       0x14 /tmp/ccFEEOUj.ltrans12.ltrans.o
 .rodata.__func__.7859.10197
                0x0000000000000000       0x14 /tmp/ccFEEOUj.ltrans12.ltrans.o
 .rodata.__func__.7432.10258
                0x0000000000000000       0x20 /tmp/ccFEEOUj.ltrans12.ltrans.o
 .data.SystemCoreClock.5588
                0x0000000000000000        0x4 /tmp/ccFEEOUj.ltrans12.ltrans.o
 .rodata.vmt.14613
                0x0000000000000000       0x10 /tmp/ccFEEOUj.ltrans12.ltrans.o
 .text          0x0000000000000000        0x0 build/obj/vectors.o (symbol from plugin)
 .text          0x0000000000000000        0x0 build/obj/chsys.o (symbol from plugin)
 .text          0x0000000000000000        0x0 build/obj/chdebug.o (symbol from plugin)
 .text          0x0000000000000000        0x0 build/obj/chvt.o (symbol from plugin)
 .text          0x0000000000000000        0x0 build/obj/chschd.o (symbol from plugin)
 .text          0x0000000000000000        0x0 build/obj/chthreads.o (symbol from plugin)
 .text          0x0000000000000000        0x0 build/obj/chtm.o (symbol from plugin)
 .text          0x0000000000000000        0x0 build/obj/chstats.o (symbol from plugin)
 .text          0x0000000000000000        0x0 build/obj/chdynamic.o (symbol from plugin)
 .text          0x0000000000000000        0x0 build/obj/chregistry.o (symbol from plugin)
 .text          0x0000000000000000        0x0 build/obj/chsem.o (symbol from plugin)
 .text          0x0000000000000000        0x0 build/obj/chmtx.o (symbol from plugin)
 .text          0x0000000000000000        0x0 build/obj/chcond.o (symbol from plugin)
 .text          0x0000000000000000        0x0 build/obj/chevents.o (symbol from plugin)
 .text          0x0000000000000000        0x0 build/obj/chmsg.o (symbol from plugin)
 .text          0x0000000000000000        0x0 build/obj/chmboxes.o (symbol from plugin)
 .text          0x0000000000000000        0x0 build/obj/chqueues.o (symbol from plugin)
 .text          0x0000000000000000        0x0 build/obj/chmemcore.o (symbol from plugin)
 .text          0x0000000000000000        0x0 build/obj/chheap.o (symbol from plugin)
 .text          0x0000000000000000        0x0 build/obj/chmempools.o (symbol from plugin)
 .text          0x0000000000000000        0x0 build/obj/chcore.o (symbol from plugin)
 .text          0x0000000000000000        0x0 build/obj/chcore_v7m.o (symbol from plugin)
 .text          0x0000000000000000        0x0 build/obj/osal.o (symbol from plugin)
 .text          0x0000000000000000        0x0 build/obj/hal.o (symbol from plugin)
 .text          0x0000000000000000        0x0 build/obj/st.o (symbol from plugin)
 .text          0x0000000000000000        0x0 build/obj/hal_buffers.o (symbol from plugin)
 .text          0x0000000000000000        0x0 build/obj/hal_queues.o (symbol from plugin)
 .text          0x0000000000000000        0x0 build/obj/hal_mmcsd.o (symbol from plugin)
 .text          0x0000000000000000        0x0 build/obj/pal.o (symbol from plugin)
 .text          0x0000000000000000        0x0 build/obj/serial_usb.o (symbol from plugin)
 .text          0x0000000000000000        0x0 build/obj/usb.o (symbol from plugin)
 .text          0x0000000000000000        0x0 build/obj/nvic.o (symbol from plugin)
 .text          0x0000000000000000        0x0 build/obj/hal_lld.o (symbol from plugin)
 .text          0x0000000000000000        0x0 build/obj/stm32_dma.o (symbol from plugin)
 .text          0x0000000000000000        0x0 build/obj/st_lld.o (symbol from plugin)
 .text          0x0000000000000000        0x0 build/obj/pal_lld.o (symbol from plugin)
 .text          0x0000000000000000        0x0 build/obj/usb_lld.o (symbol from plugin)
 .text          0x0000000000000000        0x0 build/obj/board.o (symbol from plugin)
 .text          0x0000000000000000        0x0 build/obj/test.o (symbol from plugin)
 .text          0x0000000000000000        0x0 build/obj/testthd.o (symbol from plugin)
 .text          0x0000000000000000        0x0 build/obj/testsem.o (symbol from plugin)
 .text          0x0000000000000000        0x0 build/obj/testmtx.o (symbol from plugin)
 .text          0x0000000000000000        0x0 build/obj/testmsg.o (symbol from plugin)
 .text          0x0000000000000000        0x0 build/obj/testmbox.o (symbol from plugin)
 .text          0x0000000000000000        0x0 build/obj/testevt.o (symbol from plugin)
 .text          0x0000000000000000        0x0 build/obj/testheap.o (symbol from plugin)
 .text          0x0000000000000000        0x0 build/obj/testpools.o (symbol from plugin)
 .text          0x0000000000000000        0x0 build/obj/testdyn.o (symbol from plugin)
 .text          0x0000000000000000        0x0 build/obj/testqueues.o (symbol from plugin)
 .text          0x0000000000000000        0x0 build/obj/testsys.o (symbol from plugin)
 .text          0x0000000000000000        0x0 build/obj/testbmk.o (symbol from plugin)
 .text          0x0000000000000000        0x0 build/obj/shell.o (symbol from plugin)
 .text          0x0000000000000000        0x0 build/obj/memstreams.o (symbol from plugin)
 .text          0x0000000000000000        0x0 build/obj/chprintf.o (symbol from plugin)
 .text          0x0000000000000000        0x0 build/obj/usbcfg.o (symbol from plugin)
 .text          0x0000000000000000        0x0 build/obj/main.o (symbol from plugin)
 .data          0x0000000000000000        0x0 /usr/lib/gcc/arm-none-eabi/4.8.2/../../../arm-none-eabi/lib/armv7e-m/libg.a(lib_a-memcpy.o)
 .bss           0x0000000000000000        0x0 /usr/lib/gcc/arm-none-eabi/4.8.2/../../../arm-none-eabi/lib/armv7e-m/libg.a(lib_a-memcpy.o)
 .text          0x0000000000000000        0x0 /usr/lib/gcc/arm-none-eabi/4.8.2/../../../arm-none-eabi/lib/armv7e-m/libg.a(lib_a-memset.o)
 .data          0x0000000000000000        0x0 /usr/lib/gcc/arm-none-eabi/4.8.2/../../../arm-none-eabi/lib/armv7e-m/libg.a(lib_a-memset.o)
 .bss           0x0000000000000000        0x0 /usr/lib/gcc/arm-none-eabi/4.8.2/../../../arm-none-eabi/lib/armv7e-m/libg.a(lib_a-memset.o)
 .data          0x0000000000000000        0x0 /usr/lib/gcc/arm-none-eabi/4.8.2/../../../arm-none-eabi/lib/armv7e-m/libg.a(lib_a-strcmp.o)
 .bss           0x0000000000000000        0x0 /usr/lib/gcc/arm-none-eabi/4.8.2/../../../arm-none-eabi/lib/armv7e-m/libg.a(lib_a-strcmp.o)
 .text          0x0000000000000000        0x0 /usr/lib/gcc/arm-none-eabi/4.8.2/../../../arm-none-eabi/lib/armv7e-m/libg.a(lib_a-strpbrk.o)
 .data          0x0000000000000000        0x0 /usr/lib/gcc/arm-none-eabi/4.8.2/../../../arm-none-eabi/lib/armv7e-m/libg.a(lib_a-strpbrk.o)
 .bss           0x0000000000000000        0x0 /usr/lib/gcc/arm-none-eabi/4.8.2/../../../arm-none-eabi/lib/armv7e-m/libg.a(lib_a-strpbrk.o)
 .text          0x0000000000000000        0x0 /usr/lib/gcc/arm-none-eabi/4.8.2/../../../arm-none-eabi/lib/armv7e-m/libg.a(lib_a-strspn.o)
 .data          0x0000000000000000        0x0 /usr/lib/gcc/arm-none-eabi/4.8.2/../../../arm-none-eabi/lib/armv7e-m/libg.a(lib_a-strspn.o)
 .bss           0x0000000000000000        0x0 /usr/lib/gcc/arm-none-eabi/4.8.2/../../../arm-none-eabi/lib/armv7e-m/libg.a(lib_a-strspn.o)

Memory Configuration

Name             Origin             Length             Attributes
flash            0x0000000008000000 0x0000000000100000
ram0             0x0000000020000000 0x0000000000020000
ram1             0x0000000020000000 0x000000000001c000
ram2             0x000000002001c000 0x0000000000004000
ram3             0x0000000000000000 0x0000000000000000
ram4             0x0000000010000000 0x0000000000010000
ram5             0x0000000040024000 0x0000000000001000
ram6             0x0000000000000000 0x0000000000000000
ram7             0x0000000000000000 0x0000000000000000
*default*        0x0000000000000000 0xffffffffffffffff

Linker script and memory map

LOAD build/obj/crt0_v7m.o
LOAD build/obj/chcoreasm_v7m.o
LOAD build/obj/crt1.o
LOAD /tmp/ccFEEOUj.ltrans0.ltrans.o
LOAD /tmp/ccFEEOUj.ltrans1.ltrans.o
LOAD /tmp/ccFEEOUj.ltrans2.ltrans.o
LOAD /tmp/ccFEEOUj.ltrans3.ltrans.o
LOAD /tmp/ccFEEOUj.ltrans4.ltrans.o
LOAD /tmp/ccFEEOUj.ltrans5.ltrans.o
LOAD /tmp/ccFEEOUj.ltrans6.ltrans.o
LOAD /tmp/ccFEEOUj.ltrans7.ltrans.o
LOAD /tmp/ccFEEOUj.ltrans8.ltrans.o
LOAD /tmp/ccFEEOUj.ltrans9.ltrans.o
LOAD /tmp/ccFEEOUj.ltrans10.ltrans.o
LOAD /tmp/ccFEEOUj.ltrans11.ltrans.o
LOAD /tmp/ccFEEOUj.ltrans12.ltrans.o
LOAD build/obj/vectors.o
LOAD build/obj/chsys.o
LOAD build/obj/chdebug.o
LOAD build/obj/chvt.o
LOAD build/obj/chschd.o
LOAD build/obj/chthreads.o
LOAD build/obj/chtm.o
LOAD build/obj/chstats.o
LOAD build/obj/chdynamic.o
LOAD build/obj/chregistry.o
LOAD build/obj/chsem.o
LOAD build/obj/chmtx.o
LOAD build/obj/chcond.o
LOAD build/obj/chevents.o
LOAD build/obj/chmsg.o
LOAD build/obj/chmboxes.o
LOAD build/obj/chqueues.o
LOAD build/obj/chmemcore.o
LOAD build/obj/chheap.o
LOAD build/obj/chmempools.o
LOAD build/obj/chcore.o
LOAD build/obj/chcore_v7m.o
LOAD build/obj/osal.o
LOAD build/obj/hal.o
LOAD build/obj/st.o
LOAD build/obj/hal_buffers.o
LOAD build/obj/hal_queues.o
LOAD build/obj/hal_mmcsd.o
LOAD build/obj/pal.o
LOAD build/obj/serial_usb.o
LOAD build/obj/usb.o
LOAD build/obj/nvic.o
LOAD build/obj/hal_lld.o
LOAD build/obj/stm32_dma.o
LOAD build/obj/st_lld.o
LOAD build/obj/pal_lld.o
LOAD build/obj/usb_lld.o
LOAD build/obj/board.o
LOAD build/obj/test.o
LOAD build/obj/testthd.o
LOAD build/obj/testsem.o
LOAD build/obj/testmtx.o
LOAD build/obj/testmsg.o
LOAD build/obj/testmbox.o
LOAD build/obj/testevt.o
LOAD build/obj/testheap.o
LOAD build/obj/testpools.o
LOAD build/obj/testdyn.o
LOAD build/obj/testqueues.o
LOAD build/obj/testsys.o
LOAD build/obj/testbmk.o
LOAD build/obj/shell.o
LOAD build/obj/memstreams.o
LOAD build/obj/chprintf.o
LOAD build/obj/usbcfg.o
LOAD build/obj/main.o
                0x0000000020000000                __ram0_start__ = ORIGIN (ram0)
                0x0000000000020000                __ram0_size__ = 0x20000
                0x0000000020020000                __ram0_end__ = (__ram0_start__ + __ram0_size__)
                0x0000000020000000                __ram1_start__ = ORIGIN (ram1)
                0x000000000001c000                __ram1_size__ = 0x1c000
                0x000000002001c000                __ram1_end__ = (__ram1_start__ + __ram1_size__)
                0x000000002001c000                __ram2_start__ = ORIGIN (ram2)
                0x0000000000004000                __ram2_size__ = 0x4000
                0x0000000020020000                __ram2_end__ = (__ram2_start__ + __ram2_size__)
                0x0000000000000000                __ram3_start__ = ORIGIN (ram3)
                0x0000000000000000                __ram3_size__ = 0x0
                0x0000000000000000                __ram3_end__ = (__ram3_start__ + __ram3_size__)
                0x0000000010000000                __ram4_start__ = ORIGIN (ram4)
                0x0000000000010000                __ram4_size__ = 0x10000
                0x0000000010010000                __ram4_end__ = (__ram4_start__ + __ram4_size__)
                0x0000000040024000                __ram5_start__ = ORIGIN (ram5)
                0x0000000000001000                __ram5_size__ = 0x1000
                0x0000000040025000                __ram5_end__ = (__ram5_start__ + __ram5_size__)
                0x0000000000000000                __ram6_start__ = ORIGIN (ram6)
                0x0000000000000000                __ram6_size__ = 0x0
                0x0000000000000000                __ram6_end__ = (__ram6_start__ + __ram6_size__)
                0x0000000000000000                __ram7_start__ = ORIGIN (ram7)
                0x0000000000000000                __ram7_size__ = 0x0
                0x0000000000000000                __ram7_end__ = (__ram7_start__ + __ram7_size__)
                0x0000000000000000                . = 0x0
                0x0000000000000000                _text = .

startup         0x0000000008000000      0x200
 *(.vectors)
 .vectors       0x0000000008000000      0x200 /tmp/ccFEEOUj.ltrans12.ltrans.o
                0x0000000008000000                _vectors

constructors    0x0000000008000200        0x0
                0x0000000008000200                __init_array_start = .
 *(SORT(.init_array.*))
 *(.init_array)
                0x0000000008000200                __init_array_end = .

destructors     0x0000000008000200        0x0
                0x0000000008000200                __fini_array_start = .
 *(.fini_array)
 *(SORT(.fini_array.*))
                0x0000000008000200                __fini_array_end = .

.text           0x0000000008000200    0x12438
 *(.text)
 .text          0x0000000008000200       0xc4 build/obj/crt0_v7m.o
                0x0000000008000200                Reset_Handler
 *fill*         0x00000000080002c4        0xc 
 .text          0x00000000080002d0       0x40 build/obj/chcoreasm_v7m.o
                0x00000000080002d0                _port_switch
                0x00000000080002e0                _port_thread_start
                0x00000000080002f8                _port_switch_from_isr
                0x000000000800030c                _port_exit_from_isr
 .text          0x0000000008000310      0x134 /usr/lib/gcc/arm-none-eabi/4.8.2/../../../arm-none-eabi/lib/armv7e-m/libg.a(lib_a-memcpy.o)
                0x0000000008000310                memcpy
 *fill*         0x0000000008000444        0xc 
 .text          0x0000000008000450      0x21c /usr/lib/gcc/arm-none-eabi/4.8.2/../../../arm-none-eabi/lib/armv7e-m/libg.a(lib_a-strcmp.o)
                0x0000000008000450                strcmp
 *(.text.*)
 *fill*         0x000000000800066c        0x4 
 .text.shellInit.4446
                0x0000000008000670       0x10 /tmp/ccFEEOUj.ltrans0.ltrans.o
 .text.shellExit
                0x0000000008000680       0x30 /tmp/ccFEEOUj.ltrans0.ltrans.o
                0x0000000008000680                shellExit
 .text.shellCreate.4438
                0x00000000080006b0       0x30 /tmp/ccFEEOUj.ltrans0.ltrans.o
 .text.shellGetLine
                0x00000000080006e0      0x100 /tmp/ccFEEOUj.ltrans0.ltrans.o
                0x00000000080006e0                shellGetLine
 .text.long_to_string_with_divisor.14618.4372
                0x00000000080007e0       0xa0 /tmp/ccFEEOUj.ltrans0.ltrans.o
 .text.ch_ltoa.14626.4367
                0x0000000008000880       0x20 /tmp/ccFEEOUj.ltrans0.ltrans.o
 .text.chvprintf.4359
                0x00000000080008a0      0x450 /tmp/ccFEEOUj.ltrans0.ltrans.o
 .text.chprintf
                0x0000000008000cf0       0x30 /tmp/ccFEEOUj.ltrans0.ltrans.o
                0x0000000008000cf0                chprintf
 .text.port_lock.14689.4347
                0x0000000008000d20       0x10 /tmp/ccFEEOUj.ltrans0.ltrans.o
 .text.port_unlock.14692.4345
                0x0000000008000d30       0x10 /tmp/ccFEEOUj.ltrans0.ltrans.o
 .text.port_lock_from_isr.14694.4343
                0x0000000008000d40       0x10 /tmp/ccFEEOUj.ltrans0.ltrans.o
 .text.port_unlock_from_isr.14696.4341
                0x0000000008000d50       0x10 /tmp/ccFEEOUj.ltrans0.ltrans.o
 .text.chSysLockFromISR.14958.4339
                0x0000000008000d60       0x10 /tmp/ccFEEOUj.ltrans0.ltrans.o
 .text.chSysUnlockFromISR.14962.4337
                0x0000000008000d70       0x10 /tmp/ccFEEOUj.ltrans0.ltrans.o
 .text.osalSysLockFromISR.14960.4335
                0x0000000008000d80       0x10 /tmp/ccFEEOUj.ltrans0.ltrans.o
 .text.osalSysUnlockFromISR.14968.4333
                0x0000000008000d90       0x10 /tmp/ccFEEOUj.ltrans0.ltrans.o
 .text.get_descriptor.14698
                0x0000000008000da0       0x60 /tmp/ccFEEOUj.ltrans0.ltrans.o
                0x0000000008000da0                get_descriptor.14698
 .text.usb_event.14964
                0x0000000008000e00       0x90 /tmp/ccFEEOUj.ltrans0.ltrans.o
                0x0000000008000e00                usb_event.14964
 .text.sof_handler.14970
                0x0000000008000e90       0x20 /tmp/ccFEEOUj.ltrans0.ltrans.o
                0x0000000008000e90                sof_handler.14970
 .text.chThdGetSelfX.15075.4149
                0x0000000008000eb0       0x10 /tmp/ccFEEOUj.ltrans0.ltrans.o
 .text.chThdGetPriorityX.15164.4147
                0x0000000008000ec0       0x10 /tmp/ccFEEOUj.ltrans0.ltrans.o
 .text.chThdTerminatedX.15166.4062
                0x0000000008000ed0       0x20 /tmp/ccFEEOUj.ltrans0.ltrans.o
 .text.chRegSetThreadName.15170.4058
                0x0000000008000ef0       0x20 /tmp/ccFEEOUj.ltrans0.ltrans.o
 .text.cmd_mem.15187
                0x0000000008000f10       0x70 /tmp/ccFEEOUj.ltrans0.ltrans.o
                0x0000000008000f10                cmd_mem.15187
 .text.cmd_threads.15192
                0x0000000008000f80       0x90 /tmp/ccFEEOUj.ltrans0.ltrans.o
                0x0000000008000f80                cmd_threads.15192
 .text.cmd_test.15197
                0x0000000008001010       0x70 /tmp/ccFEEOUj.ltrans0.ltrans.o
                0x0000000008001010                cmd_test.15197
 .text.cmd_write.15173
                0x0000000008001080       0x70 /tmp/ccFEEOUj.ltrans0.ltrans.o
                0x0000000008001080                cmd_write.15173
 .text.Thread1.15203.4013
                0x00000000080010f0       0x90 /tmp/ccFEEOUj.ltrans0.ltrans.o
 .text.main     0x0000000008001180      0x110 /tmp/ccFEEOUj.ltrans0.ltrans.o
                0x0000000008001180                main
 .text.chVTIsArmed.13745.4309
                0x0000000008001290       0x30 /tmp/ccFEEOUj.ltrans1.ltrans.o
 .text.chVTResetI.13730.4306
                0x00000000080012c0       0x20 /tmp/ccFEEOUj.ltrans1.ltrans.o
 .text.chVTSetI.13733.4300
                0x00000000080012e0       0x30 /tmp/ccFEEOUj.ltrans1.ltrans.o
 .text.chVTSet.13739.4286
                0x0000000008001310       0x30 /tmp/ccFEEOUj.ltrans1.ltrans.o
 .text.vtcb.13716.4283
                0x0000000008001340       0x30 /tmp/ccFEEOUj.ltrans1.ltrans.o
 .text.sys1_execute.13748
                0x0000000008001370       0x90 /tmp/ccFEEOUj.ltrans1.ltrans.o
                0x0000000008001370                sys1_execute.13748
 .text.sys2_execute.13756
                0x0000000008001400       0x20 /tmp/ccFEEOUj.ltrans1.ltrans.o
                0x0000000008001400                sys2_execute.13756
 .text.sys3_execute.13758
                0x0000000008001420      0x100 /tmp/ccFEEOUj.ltrans1.ltrans.o
                0x0000000008001420                sys3_execute.13758
 .text.port_lock.13940.4274
                0x0000000008001520       0x10 /tmp/ccFEEOUj.ltrans1.ltrans.o
 .text.port_unlock.13943.4272
                0x0000000008001530       0x10 /tmp/ccFEEOUj.ltrans1.ltrans.o
 .text.chSysLock.14054.4270
                0x0000000008001540       0x10 /tmp/ccFEEOUj.ltrans1.ltrans.o
 .text.chSysUnlock.14056.4268
                0x0000000008001550       0x50 /tmp/ccFEEOUj.ltrans1.ltrans.o
 .text.chThdGetSelfX.13945.4266
                0x00000000080015a0       0x10 /tmp/ccFEEOUj.ltrans1.ltrans.o
 .text.chThdGetPriorityX.14033.4264
                0x00000000080015b0       0x10 /tmp/ccFEEOUj.ltrans1.ltrans.o
 .text.chThdShouldTerminateX.14035.4262
                0x00000000080015c0       0x20 /tmp/ccFEEOUj.ltrans1.ltrans.o
 .text.chMsgGet.14038.4259
                0x00000000080015e0       0x10 /tmp/ccFEEOUj.ltrans1.ltrans.o
 .text.chIQGet.14079.4243
                0x00000000080015f0       0x20 /tmp/ccFEEOUj.ltrans1.ltrans.o
 .text.thread1.14044.4221
                0x0000000008001610       0x20 /tmp/ccFEEOUj.ltrans1.ltrans.o
 .text.thread2.14047.4233
                0x0000000008001630       0x30 /tmp/ccFEEOUj.ltrans1.ltrans.o
 .text.msg_loop_test.14105.4240
                0x0000000008001660       0x50 /tmp/ccFEEOUj.ltrans1.ltrans.o
 .text.bmk1_execute.14108
                0x00000000080016b0       0x90 /tmp/ccFEEOUj.ltrans1.ltrans.o
                0x00000000080016b0                bmk1_execute.14108
 .text.bmk2_execute.14110
                0x0000000008001740       0x90 /tmp/ccFEEOUj.ltrans1.ltrans.o
                0x0000000008001740                bmk2_execute.14110
 .text.bmk3_execute.14112
                0x00000000080017d0      0x160 /tmp/ccFEEOUj.ltrans1.ltrans.o
                0x00000000080017d0                bmk3_execute.14112
 .text.thread4.14058.4228
                0x0000000008001930       0x30 /tmp/ccFEEOUj.ltrans1.ltrans.o
 .text.bmk4_execute.14061
                0x0000000008001960       0xe0 /tmp/ccFEEOUj.ltrans1.ltrans.o
                0x0000000008001960                bmk4_execute.14061
 .text.bmk5_execute.14063
                0x0000000008001a40       0x90 /tmp/ccFEEOUj.ltrans1.ltrans.o
                0x0000000008001a40                bmk5_execute.14063
 .text.bmk6_execute.14050
                0x0000000008001ad0       0x80 /tmp/ccFEEOUj.ltrans1.ltrans.o
                0x0000000008001ad0                bmk6_execute.14050
 .text.thread3.14065.4214
                0x0000000008001b50       0x30 /tmp/ccFEEOUj.ltrans1.ltrans.o
 .text.bmk7_setup.14068
                0x0000000008001b80       0x20 /tmp/ccFEEOUj.ltrans1.ltrans.o
                0x0000000008001b80                bmk7_setup.14068
 .text.bmk7_execute.14072
                0x0000000008001ba0      0x1a0 /tmp/ccFEEOUj.ltrans1.ltrans.o
                0x0000000008001ba0                bmk7_execute.14072
 .text.thread8.14074.4209
                0x0000000008001d40       0x40 /tmp/ccFEEOUj.ltrans1.ltrans.o
 .text.bmk8_execute.14077
                0x0000000008001d80      0x150 /tmp/ccFEEOUj.ltrans1.ltrans.o
                0x0000000008001d80                bmk8_execute.14077
 .text.bmk9_execute.14095
                0x0000000008001ed0       0xf0 /tmp/ccFEEOUj.ltrans1.ltrans.o
                0x0000000008001ed0                bmk9_execute.14095
 .text.tmo.14041.4202
                0x0000000008001fc0       0x10 /tmp/ccFEEOUj.ltrans1.ltrans.o
 .text.bmk10_execute.14097
                0x0000000008001fd0       0xb0 /tmp/ccFEEOUj.ltrans1.ltrans.o
                0x0000000008001fd0                bmk10_execute.14097
 .text.bmk11_setup.14070
                0x0000000008002080       0x20 /tmp/ccFEEOUj.ltrans1.ltrans.o
                0x0000000008002080                bmk11_setup.14070
 .text.bmk11_execute.14099
                0x00000000080020a0       0xc0 /tmp/ccFEEOUj.ltrans1.ltrans.o
                0x00000000080020a0                bmk11_execute.14099
 .text.bmk12_setup.14101
                0x0000000008002160       0x10 /tmp/ccFEEOUj.ltrans1.ltrans.o
                0x0000000008002160                bmk12_setup.14101
 .text.bmk12_execute.14103
                0x0000000008002170       0xc0 /tmp/ccFEEOUj.ltrans1.ltrans.o
                0x0000000008002170                bmk12_execute.14103
 .text.bmk13_execute.14052
                0x0000000008002230      0x140 /tmp/ccFEEOUj.ltrans1.ltrans.o
                0x0000000008002230                bmk13_execute.14052
 .text.port_lock.14247.4187
                0x0000000008002370       0x10 /tmp/ccFEEOUj.ltrans1.ltrans.o
 .text.port_unlock.14250.4185
                0x0000000008002380       0x10 /tmp/ccFEEOUj.ltrans1.ltrans.o
 .text.st_lld_get_counter.14252.4183
                0x0000000008002390       0x10 /tmp/ccFEEOUj.ltrans1.ltrans.o
 .text.port_timer_get_time.14257.4181
                0x00000000080023a0       0x10 /tmp/ccFEEOUj.ltrans1.ltrans.o
 .text.chSysLock.14362
                0x00000000080023b0       0x10 /tmp/ccFEEOUj.ltrans1.ltrans.o
                0x00000000080023b0                chSysLock.14362
 .text.chSysUnlock.14364.4177
                0x00000000080023c0       0x50 /tmp/ccFEEOUj.ltrans1.ltrans.o
 .text.chVTGetSystemTimeX.14259.4175
                0x0000000008002410       0x10 /tmp/ccFEEOUj.ltrans1.ltrans.o
 .text.chVTGetSystemTime.14366.4172
                0x0000000008002420       0x20 /tmp/ccFEEOUj.ltrans1.ltrans.o
 .text.chRegSetThreadName.14261.4169
                0x0000000008002440       0x20 /tmp/ccFEEOUj.ltrans1.ltrans.o
 .text.chEvtObjectInit.14265
                0x0000000008002460       0x10 /tmp/ccFEEOUj.ltrans1.ltrans.o
                0x0000000008002460                chEvtObjectInit.14265
 .text.chEvtBroadcastI.14368
                0x0000000008002470       0x20 /tmp/ccFEEOUj.ltrans1.ltrans.o
                0x0000000008002470                chEvtBroadcastI.14368
 .text._strtok.14371.4065
                0x0000000008002490       0x70 /tmp/ccFEEOUj.ltrans1.ltrans.o
 .text.usage.14376.4061
                0x0000000008002500       0x20 /tmp/ccFEEOUj.ltrans1.ltrans.o
 .text.list_commands.14399.4057
                0x0000000008002520       0x40 /tmp/ccFEEOUj.ltrans1.ltrans.o
 .text.cmd_info.14389
                0x0000000008002560       0xf0 /tmp/ccFEEOUj.ltrans1.ltrans.o
                0x0000000008002560                cmd_info.14389
 .text.cmd_systime.14394
                0x0000000008002650       0x40 /tmp/ccFEEOUj.ltrans1.ltrans.o
                0x0000000008002650                cmd_systime.14394
 .text.cmdexec.14408.4014
                0x0000000008002690       0x50 /tmp/ccFEEOUj.ltrans1.ltrans.o
 .text.shell_thread.14430
                0x00000000080026e0      0x1d0 /tmp/ccFEEOUj.ltrans1.ltrans.o
                0x00000000080026e0                shell_thread.14430
 .text.pools1_setup.13131
                0x00000000080028b0       0x20 /tmp/ccFEEOUj.ltrans2.ltrans.o
                0x00000000080028b0                pools1_setup.13131
 .text.pools1_execute.13133
                0x00000000080028d0      0x150 /tmp/ccFEEOUj.ltrans2.ltrans.o
                0x00000000080028d0                pools1_execute.13133
 .text.chThdGetSelfX.13161.4246
                0x0000000008002a20       0x10 /tmp/ccFEEOUj.ltrans2.ltrans.o
 .text.chThdGetPriorityX.13250.4244
                0x0000000008002a30       0x10 /tmp/ccFEEOUj.ltrans2.ltrans.o
 .text.thread.13252.4228
                0x0000000008002a40       0x20 /tmp/ccFEEOUj.ltrans2.ltrans.o
 .text.dyn1_setup.13255
                0x0000000008002a60       0x20 /tmp/ccFEEOUj.ltrans2.ltrans.o
                0x0000000008002a60                dyn1_setup.13255
 .text.dyn1_execute.13259
                0x0000000008002a80      0x1a0 /tmp/ccFEEOUj.ltrans2.ltrans.o
                0x0000000008002a80                dyn1_execute.13259
 .text.dyn2_setup.13261
                0x0000000008002c20       0x20 /tmp/ccFEEOUj.ltrans2.ltrans.o
                0x0000000008002c20                dyn2_setup.13261
 .text.dyn2_execute.13263
                0x0000000008002c40      0x200 /tmp/ccFEEOUj.ltrans2.ltrans.o
                0x0000000008002c40                dyn2_execute.13263
 .text.regfind.13265.4233
                0x0000000008002e40       0x50 /tmp/ccFEEOUj.ltrans2.ltrans.o
 .text.dyn3_setup.13257
                0x0000000008002e90       0x20 /tmp/ccFEEOUj.ltrans2.ltrans.o
                0x0000000008002e90                dyn3_setup.13257
 .text.dyn3_execute.13269
                0x0000000008002eb0      0x1a0 /tmp/ccFEEOUj.ltrans2.ltrans.o
                0x0000000008002eb0                dyn3_execute.13269
 .text.port_lock.13401.4223
                0x0000000008003050       0x10 /tmp/ccFEEOUj.ltrans2.ltrans.o
 .text.port_unlock.13404.4221
                0x0000000008003060       0x10 /tmp/ccFEEOUj.ltrans2.ltrans.o
 .text.chSysLock.13540.4219
                0x0000000008003070       0x10 /tmp/ccFEEOUj.ltrans2.ltrans.o
 .text.chSysUnlock.13542.4217
                0x0000000008003080       0x50 /tmp/ccFEEOUj.ltrans2.ltrans.o
 .text.chThdGetSelfX.13406.4215
                0x00000000080030d0       0x10 /tmp/ccFEEOUj.ltrans2.ltrans.o
 .text.chThdGetPriorityX.13494.4213
                0x00000000080030e0       0x10 /tmp/ccFEEOUj.ltrans2.ltrans.o
 .text.chIQGetFullI.13527.4210
                0x00000000080030f0       0x20 /tmp/ccFEEOUj.ltrans2.ltrans.o
 .text.chIQIsEmptyI.13524.4207
                0x0000000008003110       0x20 /tmp/ccFEEOUj.ltrans2.ltrans.o
 .text.chIQIsFullI.13520.4204
                0x0000000008003130       0x40 /tmp/ccFEEOUj.ltrans2.ltrans.o
 .text.chIQGet.13516.4200
                0x0000000008003170       0x20 /tmp/ccFEEOUj.ltrans2.ltrans.o
 .text.chOQGetFullI.13534.4197
                0x0000000008003190       0x30 /tmp/ccFEEOUj.ltrans2.ltrans.o
 .text.chOQIsEmptyI.13530.4194
                0x00000000080031c0       0x40 /tmp/ccFEEOUj.ltrans2.ltrans.o
 .text.chOQIsFullI.13537.4191
                0x0000000008003200       0x20 /tmp/ccFEEOUj.ltrans2.ltrans.o
 .text.chOQPut.13551.4186
                0x0000000008003220       0x30 /tmp/ccFEEOUj.ltrans2.ltrans.o
 .text.notify.13496
                0x0000000008003250       0x10 /tmp/ccFEEOUj.ltrans2.ltrans.o
                0x0000000008003250                notify.13496
 .text.queues1_setup.13511
                0x0000000008003260       0x30 /tmp/ccFEEOUj.ltrans2.ltrans.o
                0x0000000008003260                queues1_setup.13511
 .text.thread1.13513.4181
                0x0000000008003290       0x20 /tmp/ccFEEOUj.ltrans2.ltrans.o
 .text.queues1_execute.13544
                0x00000000080032b0      0x380 /tmp/ccFEEOUj.ltrans2.ltrans.o
                0x00000000080032b0                queues1_execute.13544
 .text.queues2_setup.13546
                0x0000000008003630       0x30 /tmp/ccFEEOUj.ltrans2.ltrans.o
                0x0000000008003630                queues2_setup.13546
 .text.thread2.13548.4072
                0x0000000008003660       0x20 /tmp/ccFEEOUj.ltrans2.ltrans.o
 .text.queues2_execute.13555
                0x0000000008003680      0x310 /tmp/ccFEEOUj.ltrans2.ltrans.o
                0x0000000008003680                queues2_execute.13555
 .text.port_get_irq_status.13676.4067
                0x0000000008003990       0x20 /tmp/ccFEEOUj.ltrans2.ltrans.o
 .text.port_irq_enabled.13682.4063
                0x00000000080039b0       0x20 /tmp/ccFEEOUj.ltrans2.ltrans.o
 .text.port_lock.13686.4061
                0x00000000080039d0       0x10 /tmp/ccFEEOUj.ltrans2.ltrans.o
 .text.port_unlock.13688.4059
                0x00000000080039e0       0x10 /tmp/ccFEEOUj.ltrans2.ltrans.o
 .text.port_lock_from_isr.13690.4057
                0x00000000080039f0       0x10 /tmp/ccFEEOUj.ltrans2.ltrans.o
 .text.port_unlock_from_isr.13692.4055
                0x0000000008003a00       0x10 /tmp/ccFEEOUj.ltrans2.ltrans.o
 .text.port_disable.13694.4053
                0x0000000008003a10       0x10 /tmp/ccFEEOUj.ltrans2.ltrans.o
 .text.port_suspend.13696.4051
                0x0000000008003a20       0x20 /tmp/ccFEEOUj.ltrans2.ltrans.o
 .text.port_enable.13698.4049
                0x0000000008003a40       0x20 /tmp/ccFEEOUj.ltrans2.ltrans.o
 .text.chSysDisable.13750
                0x0000000008003a60       0x10 /tmp/ccFEEOUj.ltrans2.ltrans.o
                0x0000000008003a60                chSysDisable.13750
 .text.chSysSuspend.13752
                0x0000000008003a70       0x10 /tmp/ccFEEOUj.ltrans2.ltrans.o
                0x0000000008003a70                chSysSuspend.13752
 .text.chSysEnable.13754
                0x0000000008003a80       0x10 /tmp/ccFEEOUj.ltrans2.ltrans.o
                0x0000000008003a80                chSysEnable.13754
 .text.chSysLock.13723
                0x0000000008003a90       0x10 /tmp/ccFEEOUj.ltrans2.ltrans.o
                0x0000000008003a90                chSysLock.13723
 .text.chSysUnlock.13719
                0x0000000008003aa0       0x50 /tmp/ccFEEOUj.ltrans2.ltrans.o
                0x0000000008003aa0                chSysUnlock.13719
 .text.chSysLockFromISR.13712
                0x0000000008003af0       0x10 /tmp/ccFEEOUj.ltrans2.ltrans.o
                0x0000000008003af0                chSysLockFromISR.13712
 .text.chSysUnlockFromISR.13714
                0x0000000008003b00       0x10 /tmp/ccFEEOUj.ltrans2.ltrans.o
                0x0000000008003b00                chSysUnlockFromISR.13714
 .text.chSysUnconditionalLock.13725
                0x0000000008003b10       0x20 /tmp/ccFEEOUj.ltrans2.ltrans.o
                0x0000000008003b10                chSysUnconditionalLock.13725
 .text.chSysUnconditionalUnlock.13721
                0x0000000008003b30       0x20 /tmp/ccFEEOUj.ltrans2.ltrans.o
                0x0000000008003b30                chSysUnconditionalUnlock.13721
 .text.chVTObjectInit.13700
                0x0000000008003b50       0x10 /tmp/ccFEEOUj.ltrans2.ltrans.o
                0x0000000008003b50                chVTObjectInit.13700
 .text.chVTIsArmedI.13727
                0x0000000008003b60       0x20 /tmp/ccFEEOUj.ltrans2.ltrans.o
                0x0000000008003b60                chVTIsArmedI.13727
 .text.port_lock.12694.4184
                0x0000000008003b80       0x10 /tmp/ccFEEOUj.ltrans3.ltrans.o
 .text.port_unlock.12697.4182
                0x0000000008003b90       0x10 /tmp/ccFEEOUj.ltrans3.ltrans.o
 .text.st_lld_get_counter.12699.4180
                0x0000000008003ba0       0x10 /tmp/ccFEEOUj.ltrans3.ltrans.o
 .text.port_timer_get_time.12704.4178
                0x0000000008003bb0       0x10 /tmp/ccFEEOUj.ltrans3.ltrans.o
 .text.chSysLock.12846.4176
                0x0000000008003bc0       0x10 /tmp/ccFEEOUj.ltrans3.ltrans.o
 .text.chSysUnlock.12848.4174
                0x0000000008003bd0       0x50 /tmp/ccFEEOUj.ltrans3.ltrans.o
 .text.chVTGetSystemTimeX.12706.4172
                0x0000000008003c20       0x10 /tmp/ccFEEOUj.ltrans3.ltrans.o
 .text.chVTGetSystemTime.12850.4169
                0x0000000008003c30       0x20 /tmp/ccFEEOUj.ltrans3.ltrans.o
 .text.chThdGetSelfX.12708.4167
                0x0000000008003c50       0x10 /tmp/ccFEEOUj.ltrans3.ltrans.o
 .text.chThdGetPriorityX.12794.4165
                0x0000000008003c60       0x10 /tmp/ccFEEOUj.ltrans3.ltrans.o
 .text.chEvtObjectInit.12796.4162
                0x0000000008003c70       0x10 /tmp/ccFEEOUj.ltrans3.ltrans.o
 .text.chEvtRegisterMask.12830.4157
                0x0000000008003c80       0x20 /tmp/ccFEEOUj.ltrans3.ltrans.o
 .text.chEvtIsListeningI.12810.4153
                0x0000000008003ca0       0x20 /tmp/ccFEEOUj.ltrans3.ltrans.o
 .text.chEvtBroadcast.12840.4053
                0x0000000008003cc0       0x20 /tmp/ccFEEOUj.ltrans3.ltrans.o
 .text.evt1_setup.12814
                0x0000000008003ce0       0x10 /tmp/ccFEEOUj.ltrans3.ltrans.o
                0x0000000008003ce0                evt1_setup.12814
 .text.h1.12820
                0x0000000008003cf0       0x20 /tmp/ccFEEOUj.ltrans3.ltrans.o
                0x0000000008003cf0                h1.12820
 .text.h2.12824
                0x0000000008003d10       0x20 /tmp/ccFEEOUj.ltrans3.ltrans.o
                0x0000000008003d10                h2.12824
 .text.h3.12827
                0x0000000008003d30       0x20 /tmp/ccFEEOUj.ltrans3.ltrans.o
                0x0000000008003d30                h3.12827
 .text.evt1_execute.12835
                0x0000000008003d50       0xf0 /tmp/ccFEEOUj.ltrans3.ltrans.o
                0x0000000008003d50                evt1_execute.12835
 .text.evt2_setup.12816
                0x0000000008003e40       0x10 /tmp/ccFEEOUj.ltrans3.ltrans.o
                0x0000000008003e40                evt2_setup.12816
 .text.thread1.12837.4028
                0x0000000008003e50       0x20 /tmp/ccFEEOUj.ltrans3.ltrans.o
 .text.thread2.12843.4031
                0x0000000008003e70       0x30 /tmp/ccFEEOUj.ltrans3.ltrans.o
 .text.evt2_execute.12852
                0x0000000008003ea0      0x3b0 /tmp/ccFEEOUj.ltrans3.ltrans.o
                0x0000000008003ea0                evt2_execute.12852
 .text.evt3_setup.12818
                0x0000000008004250       0x10 /tmp/ccFEEOUj.ltrans3.ltrans.o
                0x0000000008004250                evt3_setup.12818
 .text.evt3_execute.12854
                0x0000000008004260       0xf0 /tmp/ccFEEOUj.ltrans3.ltrans.o
                0x0000000008004260                evt3_execute.12854
 .text.heap1_setup.12993
                0x0000000008004350       0x20 /tmp/ccFEEOUj.ltrans3.ltrans.o
                0x0000000008004350                heap1_setup.12993
 .text.heap1_execute.12996
                0x0000000008004370      0x370 /tmp/ccFEEOUj.ltrans3.ltrans.o
                0x0000000008004370                heap1_execute.12996
 .text.null_provider.13126
                0x00000000080046e0       0x10 /tmp/ccFEEOUj.ltrans3.ltrans.o
                0x00000000080046e0                null_provider.13126
 .text.thread4a.12144.4174
                0x00000000080046f0       0x30 /tmp/ccFEEOUj.ltrans4.ltrans.o
 .text.thread4b.12147.4177
                0x0000000008004720       0x30 /tmp/ccFEEOUj.ltrans4.ltrans.o
 .text.mtx4_execute.12154
                0x0000000008004750      0x350 /tmp/ccFEEOUj.ltrans4.ltrans.o
                0x0000000008004750                mtx4_execute.12154
 .text.mtx5_setup.12134
                0x0000000008004aa0       0x10 /tmp/ccFEEOUj.ltrans4.ltrans.o
                0x0000000008004aa0                mtx5_setup.12134
 .text.mtx5_execute.12156
                0x0000000008004ab0      0x130 /tmp/ccFEEOUj.ltrans4.ltrans.o
                0x0000000008004ab0                mtx5_execute.12156
 .text.mtx6_setup.12158
                0x0000000008004be0       0x20 /tmp/ccFEEOUj.ltrans4.ltrans.o
                0x0000000008004be0                mtx6_setup.12158
 .text.thread10.12164.4152
                0x0000000008004c00       0x40 /tmp/ccFEEOUj.ltrans4.ltrans.o
 .text.mtx6_execute.12167
                0x0000000008004c40      0x180 /tmp/ccFEEOUj.ltrans4.ltrans.o
                0x0000000008004c40                mtx6_execute.12167
 .text.mtx7_setup.12160
                0x0000000008004dc0       0x20 /tmp/ccFEEOUj.ltrans4.ltrans.o
                0x0000000008004dc0                mtx7_setup.12160
 .text.mtx7_execute.12169
                0x0000000008004de0      0x140 /tmp/ccFEEOUj.ltrans4.ltrans.o
                0x0000000008004de0                mtx7_execute.12169
 .text.mtx8_setup.12162
                0x0000000008004f20       0x30 /tmp/ccFEEOUj.ltrans4.ltrans.o
                0x0000000008004f20                mtx8_setup.12162
 .text.thread11.12171.4149
                0x0000000008004f50       0x60 /tmp/ccFEEOUj.ltrans4.ltrans.o
 .text.thread12.12139.4155
                0x0000000008004fb0       0x30 /tmp/ccFEEOUj.ltrans4.ltrans.o
 .text.mtx8_execute.12174
                0x0000000008004fe0       0xe0 /tmp/ccFEEOUj.ltrans4.ltrans.o
                0x0000000008004fe0                mtx8_execute.12174
 .text.chThdGetSelfX.12294.4144
                0x00000000080050c0       0x10 /tmp/ccFEEOUj.ltrans4.ltrans.o
 .text.chThdGetPriorityX.12383.4142
                0x00000000080050d0       0x10 /tmp/ccFEEOUj.ltrans4.ltrans.o
 .text.chMsgGet.12385.4139
                0x00000000080050e0       0x10 /tmp/ccFEEOUj.ltrans4.ltrans.o
 .text.thread.12388.4136
                0x00000000080050f0       0x30 /tmp/ccFEEOUj.ltrans4.ltrans.o
 .text.msg1_execute.12391
                0x0000000008005120       0xb0 /tmp/ccFEEOUj.ltrans4.ltrans.o
                0x0000000008005120                msg1_execute.12391
 .text.port_lock.12474.4131
                0x00000000080051d0       0x10 /tmp/ccFEEOUj.ltrans4.ltrans.o
 .text.port_unlock.12477.4129
                0x00000000080051e0       0x10 /tmp/ccFEEOUj.ltrans4.ltrans.o
 .text.chSysLock.12585.4127
                0x00000000080051f0       0x10 /tmp/ccFEEOUj.ltrans4.ltrans.o
 .text.chSysUnlock.12587.4125
                0x0000000008005200       0x50 /tmp/ccFEEOUj.ltrans4.ltrans.o
 .text.chSemGetCounterI.12481.4122
                0x0000000008005250       0x20 /tmp/ccFEEOUj.ltrans4.ltrans.o
 .text.chMBGetFreeCountI.12571.4119
                0x0000000008005270       0x20 /tmp/ccFEEOUj.ltrans4.ltrans.o
 .text.chMBGetUsedCountI.12582.4015
                0x0000000008005290       0x20 /tmp/ccFEEOUj.ltrans4.ltrans.o
 .text.mbox1_setup.12479
                0x00000000080052b0       0x20 /tmp/ccFEEOUj.ltrans4.ltrans.o
                0x00000000080052b0                mbox1_setup.12479
 .text.mbox1_execute.12589
                0x00000000080052d0      0x960 /tmp/ccFEEOUj.ltrans4.ltrans.o
                0x00000000080052d0                mbox1_execute.12589
 .text.TestThread
                0x0000000008005c30      0x280 /tmp/ccFEEOUj.ltrans5.ltrans.o
                0x0000000008005c30                TestThread
 .text.port_lock.11485.4237
                0x0000000008005eb0       0x10 /tmp/ccFEEOUj.ltrans5.ltrans.o
 .text.port_unlock.11488.4235
                0x0000000008005ec0       0x10 /tmp/ccFEEOUj.ltrans5.ltrans.o
 .text.st_lld_get_counter.11490.4233
                0x0000000008005ed0       0x10 /tmp/ccFEEOUj.ltrans5.ltrans.o
 .text.port_timer_get_time.11495.4231
                0x0000000008005ee0       0x10 /tmp/ccFEEOUj.ltrans5.ltrans.o
 .text.chSysLock.11592.4229
                0x0000000008005ef0       0x10 /tmp/ccFEEOUj.ltrans5.ltrans.o
 .text.chSysUnlock.11594.4227
                0x0000000008005f00       0x50 /tmp/ccFEEOUj.ltrans5.ltrans.o
 .text.chVTGetSystemTimeX.11497.4225
                0x0000000008005f50       0x10 /tmp/ccFEEOUj.ltrans5.ltrans.o
 .text.chVTGetSystemTime.11598.4223
                0x0000000008005f60       0x20 /tmp/ccFEEOUj.ltrans5.ltrans.o
 .text.chThdGetSelfX.11499.4221
                0x0000000008005f80       0x10 /tmp/ccFEEOUj.ltrans5.ltrans.o
 .text.chThdGetPriorityX.11585.4219
                0x0000000008005f90       0x10 /tmp/ccFEEOUj.ltrans5.ltrans.o
 .text.thread.11587.4214
                0x0000000008005fa0       0x20 /tmp/ccFEEOUj.ltrans5.ltrans.o
 .text.thd1_execute.11590
                0x0000000008005fc0      0x140 /tmp/ccFEEOUj.ltrans5.ltrans.o
                0x0000000008005fc0                thd1_execute.11590
 .text.thd2_execute.11596
                0x0000000008006100      0x160 /tmp/ccFEEOUj.ltrans5.ltrans.o
                0x0000000008006100                thd2_execute.11596
 .text.thd3_execute.11600
                0x0000000008006260      0x1e0 /tmp/ccFEEOUj.ltrans5.ltrans.o
                0x0000000008006260                thd3_execute.11600
 .text.thd4_execute.11602
                0x0000000008006440       0xb0 /tmp/ccFEEOUj.ltrans5.ltrans.o
                0x0000000008006440                thd4_execute.11602
 .text.port_lock.11730.4205
                0x00000000080064f0       0x10 /tmp/ccFEEOUj.ltrans5.ltrans.o
 .text.port_unlock.11733.4203
                0x0000000008006500       0x10 /tmp/ccFEEOUj.ltrans5.ltrans.o
 .text.st_lld_get_counter.11735.4201
                0x0000000008006510       0x10 /tmp/ccFEEOUj.ltrans5.ltrans.o
 .text.port_timer_get_time.11740.4199
                0x0000000008006520       0x10 /tmp/ccFEEOUj.ltrans5.ltrans.o
 .text.queue_isempty.11742.4196
                0x0000000008006530       0x20 /tmp/ccFEEOUj.ltrans5.ltrans.o
 .text.chSysLock.11859.4194
                0x0000000008006550       0x10 /tmp/ccFEEOUj.ltrans5.ltrans.o
 .text.chSysUnlock.11867.4192
                0x0000000008006560       0x50 /tmp/ccFEEOUj.ltrans5.ltrans.o
 .text.chVTGetSystemTimeX.11830.4190
                0x00000000080065b0       0x10 /tmp/ccFEEOUj.ltrans5.ltrans.o
 .text.chVTGetSystemTime.11871.4187
                0x00000000080065c0       0x20 /tmp/ccFEEOUj.ltrans5.ltrans.o
 .text.chThdGetSelfX.11832.4185
                0x00000000080065e0       0x10 /tmp/ccFEEOUj.ltrans5.ltrans.o
 .text.chThdGetPriorityX.11834.4183
                0x00000000080065f0       0x10 /tmp/ccFEEOUj.ltrans5.ltrans.o
 .text.chSemGetCounterI.11861.4180
                0x0000000008006600       0x20 /tmp/ccFEEOUj.ltrans5.ltrans.o
 .text.chBSemObjectInit.11842.4176
                0x0000000008006620       0x30 /tmp/ccFEEOUj.ltrans5.ltrans.o
 .text.chBSemWait.11850.4173
                0x0000000008006650       0x20 /tmp/ccFEEOUj.ltrans5.ltrans.o
 .text.chBSemReset.11889.4169
                0x0000000008006670       0x30 /tmp/ccFEEOUj.ltrans5.ltrans.o
 .text.chBSemSignalI.11876.4166
                0x00000000080066a0       0x20 /tmp/ccFEEOUj.ltrans5.ltrans.o
 .text.chBSemSignal.11879.4163
                0x00000000080066c0       0x20 /tmp/ccFEEOUj.ltrans5.ltrans.o
 .text.chBSemGetStateI.11864.4154
                0x00000000080066e0       0x20 /tmp/ccFEEOUj.ltrans5.ltrans.o
 .text.sem1_setup.11836
                0x0000000008006700       0x20 /tmp/ccFEEOUj.ltrans5.ltrans.o
                0x0000000008006700                sem1_setup.11836
 .text.thread1.11853.4149
                0x0000000008006720       0x30 /tmp/ccFEEOUj.ltrans5.ltrans.o
 .text.sem1_execute.11869
                0x0000000008006750      0x210 /tmp/ccFEEOUj.ltrans5.ltrans.o
                0x0000000008006750                sem1_execute.11869
 .text.sem2_setup.11838
                0x0000000008006960       0x20 /tmp/ccFEEOUj.ltrans5.ltrans.o
                0x0000000008006960                sem2_setup.11838
 .text.thread2.11873.4142
                0x0000000008006980       0x30 /tmp/ccFEEOUj.ltrans5.ltrans.o
 .text.sem2_execute.11885
                0x00000000080069b0      0x1e0 /tmp/ccFEEOUj.ltrans5.ltrans.o
                0x00000000080069b0                sem2_execute.11885
 .text.sem3_setup.11840
                0x0000000008006b90       0x20 /tmp/ccFEEOUj.ltrans5.ltrans.o
                0x0000000008006b90                sem3_setup.11840
 .text.thread3.11856.4135
                0x0000000008006bb0       0x30 /tmp/ccFEEOUj.ltrans5.ltrans.o
 .text.sem3_execute.11887
                0x0000000008006be0       0xe0 /tmp/ccFEEOUj.ltrans5.ltrans.o
                0x0000000008006be0                sem3_execute.11887
 .text.thread4.11882.4130
                0x0000000008006cc0       0x20 /tmp/ccFEEOUj.ltrans5.ltrans.o
 .text.sem4_execute.11893
                0x0000000008006ce0      0x1b0 /tmp/ccFEEOUj.ltrans5.ltrans.o
                0x0000000008006ce0                sem4_execute.11893
 .text.port_lock.12031.4125
                0x0000000008006e90       0x10 /tmp/ccFEEOUj.ltrans5.ltrans.o
 .text.port_unlock.12034.4123
                0x0000000008006ea0       0x10 /tmp/ccFEEOUj.ltrans5.ltrans.o
 .text.queue_isempty.12036
                0x0000000008006eb0       0x20 /tmp/ccFEEOUj.ltrans5.ltrans.o
                0x0000000008006eb0                queue_isempty.12036
 .text.chSysLock.12150
                0x0000000008006ed0       0x10 /tmp/ccFEEOUj.ltrans5.ltrans.o
                0x0000000008006ed0                chSysLock.12150
 .text.chSysUnlock.12152
                0x0000000008006ee0       0x50 /tmp/ccFEEOUj.ltrans5.ltrans.o
                0x0000000008006ee0                chSysUnlock.12152
 .text.chThdGetSelfX.12126.4027
                0x0000000008006f30       0x10 /tmp/ccFEEOUj.ltrans5.ltrans.o
 .text.chThdGetPriorityX.12128
                0x0000000008006f40       0x10 /tmp/ccFEEOUj.ltrans5.ltrans.o
                0x0000000008006f40                chThdGetPriorityX.12128
 .text.mtx1_setup.12130
                0x0000000008006f50       0x10 /tmp/ccFEEOUj.ltrans5.ltrans.o
                0x0000000008006f50                mtx1_setup.12130
 .text.thread1.12136.4015
                0x0000000008006f60       0x30 /tmp/ccFEEOUj.ltrans5.ltrans.o
 .text.mtx1_execute.12142
                0x0000000008006f90      0x170 /tmp/ccFEEOUj.ltrans5.ltrans.o
                0x0000000008006f90                mtx1_execute.12142
 .text.mtx4_setup.12132
                0x0000000008007100       0x20 /tmp/ccFEEOUj.ltrans5.ltrans.o
                0x0000000008007100                mtx4_setup.12132
 .text.otg_isoc_in_failed_handler.10881.4459
                0x0000000008007120      0x130 /tmp/ccFEEOUj.ltrans6.ltrans.o
 .text.otg_isoc_out_failed_handler.10884.4456
                0x0000000008007250       0xb0 /tmp/ccFEEOUj.ltrans6.ltrans.o
 .text.usb_lld_serve_interrupt.10939.4453
                0x0000000008007300      0x230 /tmp/ccFEEOUj.ltrans6.ltrans.o
 .text.Vector14C
                0x0000000008007530       0x20 /tmp/ccFEEOUj.ltrans6.ltrans.o
                0x0000000008007530                Vector14C
 .text.Vector174
                0x0000000008007550       0x20 /tmp/ccFEEOUj.ltrans6.ltrans.o
                0x0000000008007550                Vector174
 .text.usb_lld_init
                0x0000000008007570       0xf0 /tmp/ccFEEOUj.ltrans6.ltrans.o
                0x0000000008007570                usb_lld_init
 .text.usb_lld_start
                0x0000000008007660      0x1e0 /tmp/ccFEEOUj.ltrans6.ltrans.o
                0x0000000008007660                usb_lld_start
 .text.usb_lld_reset
                0x0000000008007840      0x130 /tmp/ccFEEOUj.ltrans6.ltrans.o
                0x0000000008007840                usb_lld_reset
 .text.usb_lld_set_address
                0x0000000008007970       0x30 /tmp/ccFEEOUj.ltrans6.ltrans.o
                0x0000000008007970                usb_lld_set_address
 .text.usb_lld_init_endpoint
                0x00000000080079a0      0x260 /tmp/ccFEEOUj.ltrans6.ltrans.o
                0x00000000080079a0                usb_lld_init_endpoint
 .text.usb_lld_get_status_out
                0x0000000008007c00       0x40 /tmp/ccFEEOUj.ltrans6.ltrans.o
                0x0000000008007c00                usb_lld_get_status_out
 .text.usb_lld_get_status_in
                0x0000000008007c40       0x40 /tmp/ccFEEOUj.ltrans6.ltrans.o
                0x0000000008007c40                usb_lld_get_status_in
 .text.usb_lld_read_setup
                0x0000000008007c80       0x30 /tmp/ccFEEOUj.ltrans6.ltrans.o
                0x0000000008007c80                usb_lld_read_setup
 .text.usb_lld_start_out
                0x0000000008007cb0      0x140 /tmp/ccFEEOUj.ltrans6.ltrans.o
                0x0000000008007cb0                usb_lld_start_out
 .text.usb_lld_start_in
                0x0000000008007df0      0x160 /tmp/ccFEEOUj.ltrans6.ltrans.o
                0x0000000008007df0                usb_lld_start_in
 .text.usb_lld_stall_out
                0x0000000008007f50       0x40 /tmp/ccFEEOUj.ltrans6.ltrans.o
                0x0000000008007f50                usb_lld_stall_out
 .text.usb_lld_stall_in
                0x0000000008007f90       0x40 /tmp/ccFEEOUj.ltrans6.ltrans.o
                0x0000000008007f90                usb_lld_stall_in
 .text.usb_lld_clear_out
                0x0000000008007fd0       0x40 /tmp/ccFEEOUj.ltrans6.ltrans.o
                0x0000000008007fd0                usb_lld_clear_out
 .text.usb_lld_clear_in
                0x0000000008008010       0x40 /tmp/ccFEEOUj.ltrans6.ltrans.o
                0x0000000008008010                usb_lld_clear_in
 .text.usb_lld_pump.4130
                0x0000000008008050      0x110 /tmp/ccFEEOUj.ltrans6.ltrans.o
 .text.__early_init
                0x0000000008008160       0x10 /tmp/ccFEEOUj.ltrans6.ltrans.o
                0x0000000008008160                __early_init
 .text.boardInit
                0x0000000008008170       0x10 /tmp/ccFEEOUj.ltrans6.ltrans.o
                0x0000000008008170                boardInit
 .text.port_lock.11147.4123
                0x0000000008008180       0x10 /tmp/ccFEEOUj.ltrans6.ltrans.o
 .text.port_unlock.11150.4121
                0x0000000008008190       0x10 /tmp/ccFEEOUj.ltrans6.ltrans.o
 .text.st_lld_get_counter.11152.4119
                0x00000000080081a0       0x10 /tmp/ccFEEOUj.ltrans6.ltrans.o
 .text.port_timer_get_time.11157.4117
                0x00000000080081b0       0x10 /tmp/ccFEEOUj.ltrans6.ltrans.o
 .text.chSysLock.11170.4115
                0x00000000080081c0       0x10 /tmp/ccFEEOUj.ltrans6.ltrans.o
 .text.chSysUnlock.11172.4113
                0x00000000080081d0       0x50 /tmp/ccFEEOUj.ltrans6.ltrans.o
 .text.chVTGetSystemTimeX.11159.4111
                0x0000000008008220       0x10 /tmp/ccFEEOUj.ltrans6.ltrans.o
 .text.chVTGetSystemTime.11174.4109
                0x0000000008008230       0x20 /tmp/ccFEEOUj.ltrans6.ltrans.o
 .text.chVTIsTimeWithinX.11161.4104
                0x0000000008008250       0x30 /tmp/ccFEEOUj.ltrans6.ltrans.o
 .text.chVTIsSystemTimeWithin.11176.4100
                0x0000000008008280       0x30 /tmp/ccFEEOUj.ltrans6.ltrans.o
 .text.chVTIsArmedI.11180.4097
                0x00000000080082b0       0x20 /tmp/ccFEEOUj.ltrans6.ltrans.o
 .text.chVTResetI.11191.4094
                0x00000000080082d0       0x20 /tmp/ccFEEOUj.ltrans6.ltrans.o
 .text.chVTSetI.11194.4088
                0x00000000080082f0       0x30 /tmp/ccFEEOUj.ltrans6.ltrans.o
 .text.chVTSet.11200.4074
                0x0000000008008320       0x30 /tmp/ccFEEOUj.ltrans6.ltrans.o
 .text.test_printn
                0x0000000008008350       0xb0 /tmp/ccFEEOUj.ltrans6.ltrans.o
                0x0000000008008350                test_printn
 .text.test_print
                0x0000000008008400       0x40 /tmp/ccFEEOUj.ltrans6.ltrans.o
                0x0000000008008400                test_print
 .text.test_println
                0x0000000008008440       0x40 /tmp/ccFEEOUj.ltrans6.ltrans.o
                0x0000000008008440                test_println
 .text.clear_tokens.11216.4063
                0x0000000008008480       0x20 /tmp/ccFEEOUj.ltrans6.ltrans.o
 .text.print_tokens.11218
                0x00000000080084a0       0x50 /tmp/ccFEEOUj.ltrans6.ltrans.o
                0x00000000080084a0                print_tokens.11218
 .text.test_emit_token
                0x00000000080084f0       0x40 /tmp/ccFEEOUj.ltrans6.ltrans.o
                0x00000000080084f0                test_emit_token
 .text._test_fail.4055
                0x0000000008008530       0x30 /tmp/ccFEEOUj.ltrans6.ltrans.o
 .text._test_assert
                0x0000000008008560       0x30 /tmp/ccFEEOUj.ltrans6.ltrans.o
                0x0000000008008560                _test_assert
 .text._test_assert_sequence
                0x0000000008008590       0x70 /tmp/ccFEEOUj.ltrans6.ltrans.o
                0x0000000008008590                _test_assert_sequence
 .text._test_assert_time_window
                0x0000000008008600       0x30 /tmp/ccFEEOUj.ltrans6.ltrans.o
                0x0000000008008600                _test_assert_time_window
 .text.test_terminate_threads
                0x0000000008008630       0x50 /tmp/ccFEEOUj.ltrans6.ltrans.o
                0x0000000008008630                test_terminate_threads
 .text.test_wait_threads
                0x0000000008008680       0x60 /tmp/ccFEEOUj.ltrans6.ltrans.o
                0x0000000008008680                test_wait_threads
 .text.test_wait_tick
                0x00000000080086e0       0x20 /tmp/ccFEEOUj.ltrans6.ltrans.o
                0x00000000080086e0                test_wait_tick
 .text.tmr.11167.4027
                0x0000000008008700       0x20 /tmp/ccFEEOUj.ltrans6.ltrans.o
 .text.test_start_timer
                0x0000000008008720       0x50 /tmp/ccFEEOUj.ltrans6.ltrans.o
                0x0000000008008720                test_start_timer
 .text.execute_test.11248
                0x0000000008008770       0x70 /tmp/ccFEEOUj.ltrans6.ltrans.o
                0x0000000008008770                execute_test.11248
 .text.print_line.11256
                0x00000000080087e0       0x60 /tmp/ccFEEOUj.ltrans6.ltrans.o
                0x00000000080087e0                print_line.11256
 .text.usbInitEndpointI
                0x0000000008008840       0xb0 /tmp/ccFEEOUj.ltrans7.ltrans.o
                0x0000000008008840                usbInitEndpointI
 .text.usbStartReceiveI
                0x00000000080088f0       0xa0 /tmp/ccFEEOUj.ltrans7.ltrans.o
                0x00000000080088f0                usbStartReceiveI
 .text.usbStartTransmitI
                0x0000000008008990       0xa0 /tmp/ccFEEOUj.ltrans7.ltrans.o
                0x0000000008008990                usbStartTransmitI
 .text._usb_reset
                0x0000000008008a30       0x80 /tmp/ccFEEOUj.ltrans7.ltrans.o
                0x0000000008008a30                _usb_reset
 .text._usb_suspend
                0x0000000008008ab0       0x30 /tmp/ccFEEOUj.ltrans7.ltrans.o
                0x0000000008008ab0                _usb_suspend
 .text._usb_wakeup
                0x0000000008008ae0       0x30 /tmp/ccFEEOUj.ltrans7.ltrans.o
                0x0000000008008ae0                _usb_wakeup
 .text._usb_ep0setup
                0x0000000008008b10      0x160 /tmp/ccFEEOUj.ltrans7.ltrans.o
                0x0000000008008b10                _usb_ep0setup
 .text._usb_ep0in
                0x0000000008008c70      0x110 /tmp/ccFEEOUj.ltrans7.ltrans.o
                0x0000000008008c70                _usb_ep0in
 .text._usb_ep0out
                0x0000000008008d80       0xd0 /tmp/ccFEEOUj.ltrans7.ltrans.o
                0x0000000008008d80                _usb_ep0out
 .text.nvicEnableVector
                0x0000000008008e50       0x60 /tmp/ccFEEOUj.ltrans7.ltrans.o
                0x0000000008008e50                nvicEnableVector
 .text.hal_lld_backup_domain_init.10299.4444
                0x0000000008008eb0       0x60 /tmp/ccFEEOUj.ltrans7.ltrans.o
 .text.hal_lld_init
                0x0000000008008f10       0xb0 /tmp/ccFEEOUj.ltrans7.ltrans.o
                0x0000000008008f10                hal_lld_init
 .text.stm32_clock_init
                0x0000000008008fc0      0x1d0 /tmp/ccFEEOUj.ltrans7.ltrans.o
                0x0000000008008fc0                stm32_clock_init
 .text.port_lock.10354.4437
                0x0000000008009190       0x10 /tmp/ccFEEOUj.ltrans7.ltrans.o
 .text.port_unlock.10357.4435
                0x00000000080091a0       0x10 /tmp/ccFEEOUj.ltrans7.ltrans.o
 .text.port_lock_from_isr.10359.4433
                0x00000000080091b0       0x10 /tmp/ccFEEOUj.ltrans7.ltrans.o
 .text.port_unlock_from_isr.10361.4431
                0x00000000080091c0       0x10 /tmp/ccFEEOUj.ltrans7.ltrans.o
 .text.chSysLockFromISR.10363.4429
                0x00000000080091d0       0x10 /tmp/ccFEEOUj.ltrans7.ltrans.o
 .text.chSysUnlockFromISR.10369.4427
                0x00000000080091e0       0x10 /tmp/ccFEEOUj.ltrans7.ltrans.o
 .text.osalSysLockFromISR.10365.4425
                0x00000000080091f0       0x10 /tmp/ccFEEOUj.ltrans7.ltrans.o
 .text.osalSysUnlockFromISR.10371.4423
                0x0000000008009200       0x10 /tmp/ccFEEOUj.ltrans7.ltrans.o
 .text.osalOsTimerHandlerI.10367.4421
                0x0000000008009210       0x10 /tmp/ccFEEOUj.ltrans7.ltrans.o
 .text.VectorB0
                0x0000000008009220       0x40 /tmp/ccFEEOUj.ltrans7.ltrans.o
                0x0000000008009220                VectorB0
 .text.st_lld_init
                0x0000000008009260       0x80 /tmp/ccFEEOUj.ltrans7.ltrans.o
                0x0000000008009260                st_lld_init
 .text.initgpio.10453.4411
                0x00000000080092e0       0x50 /tmp/ccFEEOUj.ltrans7.ltrans.o
 .text._pal_lld_init
                0x0000000008009330       0xf0 /tmp/ccFEEOUj.ltrans7.ltrans.o
                0x0000000008009330                _pal_lld_init
 .text.port_lock.10545.4356
                0x0000000008009420       0x10 /tmp/ccFEEOUj.ltrans7.ltrans.o
 .text.port_unlock.10548.4354
                0x0000000008009430       0x10 /tmp/ccFEEOUj.ltrans7.ltrans.o
 .text.port_lock_from_isr.10550.4352
                0x0000000008009440       0x10 /tmp/ccFEEOUj.ltrans7.ltrans.o
 .text.port_unlock_from_isr.10552.4350
                0x0000000008009450       0x10 /tmp/ccFEEOUj.ltrans7.ltrans.o
 .text.chSysLock.10668.4348
                0x0000000008009460       0x10 /tmp/ccFEEOUj.ltrans7.ltrans.o
 .text.chSysUnlock.10664.4346
                0x0000000008009470       0x50 /tmp/ccFEEOUj.ltrans7.ltrans.o
 .text.chSysLockFromISR.10564.4344
                0x00000000080094c0       0x10 /tmp/ccFEEOUj.ltrans7.ltrans.o
 .text.chSysUnlockFromISR.10654.4342
                0x00000000080094d0       0x10 /tmp/ccFEEOUj.ltrans7.ltrans.o
 .text.chThdStartI.10658
                0x00000000080094e0       0x30 /tmp/ccFEEOUj.ltrans7.ltrans.o
                0x00000000080094e0                chThdStartI.10658
 .text.chRegSetThreadName.10554
                0x0000000008009510       0x20 /tmp/ccFEEOUj.ltrans7.ltrans.o
                0x0000000008009510                chRegSetThreadName.10554
 .text.osalSysLock.10670
                0x0000000008009530       0x10 /tmp/ccFEEOUj.ltrans7.ltrans.o
                0x0000000008009530                osalSysLock.10670
 .text.osalSysUnlock.10666
                0x0000000008009540       0x10 /tmp/ccFEEOUj.ltrans7.ltrans.o
                0x0000000008009540                osalSysUnlock.10666
 .text.osalSysLockFromISR.10566
                0x0000000008009550       0x10 /tmp/ccFEEOUj.ltrans7.ltrans.o
                0x0000000008009550                osalSysLockFromISR.10566
 .text.osalSysUnlockFromISR.10656
                0x0000000008009560       0x10 /tmp/ccFEEOUj.ltrans7.ltrans.o
                0x0000000008009560                osalSysUnlockFromISR.10656
 .text.osalSysPolledDelayX.10558.4325
                0x0000000008009570       0x20 /tmp/ccFEEOUj.ltrans7.ltrans.o
 .text.osalThreadSuspendS.10661
                0x0000000008009590       0x20 /tmp/ccFEEOUj.ltrans7.ltrans.o
                0x0000000008009590                osalThreadSuspendS.10661
 .text.osalThreadResumeI.10568
                0x00000000080095b0       0x20 /tmp/ccFEEOUj.ltrans7.ltrans.o
                0x00000000080095b0                osalThreadResumeI.10568
 .text.otg_core_reset.10672
                0x00000000080095d0       0x40 /tmp/ccFEEOUj.ltrans7.ltrans.o
                0x00000000080095d0                otg_core_reset.10672
 .text.otg_disable_ep.10843
                0x0000000008009610       0x90 /tmp/ccFEEOUj.ltrans7.ltrans.o
                0x0000000008009610                otg_disable_ep.10843
 .text.otg_rxfifo_flush.10846
                0x00000000080096a0       0x30 /tmp/ccFEEOUj.ltrans7.ltrans.o
                0x00000000080096a0                otg_rxfifo_flush.10846
 .text.otg_txfifo_flush.10849
                0x00000000080096d0       0x40 /tmp/ccFEEOUj.ltrans7.ltrans.o
                0x00000000080096d0                otg_txfifo_flush.10849
 .text.otg_ram_reset.10853
                0x0000000008009710       0x20 /tmp/ccFEEOUj.ltrans7.ltrans.o
                0x0000000008009710                otg_ram_reset.10853
 .text.otg_ram_alloc.10856
                0x0000000008009730       0x40 /tmp/ccFEEOUj.ltrans7.ltrans.o
                0x0000000008009730                otg_ram_alloc.10856
 .text.otg_fifo_write_from_buffer.10860.4293
                0x0000000008009770       0x40 /tmp/ccFEEOUj.ltrans7.ltrans.o
 .text.otg_fifo_read_to_buffer.10865.4287
                0x00000000080097b0       0x50 /tmp/ccFEEOUj.ltrans7.ltrans.o
 .text.otg_rxfifo_handler.10871
                0x0000000008009800      0x110 /tmp/ccFEEOUj.ltrans7.ltrans.o
                0x0000000008009800                otg_rxfifo_handler.10871
 .text.otg_txfifo_handler.10874
                0x0000000008009910      0x130 /tmp/ccFEEOUj.ltrans7.ltrans.o
                0x0000000008009910                otg_txfifo_handler.10874
 .text.otg_epin_handler.10935
                0x0000000008009a40      0x150 /tmp/ccFEEOUj.ltrans7.ltrans.o
                0x0000000008009a40                otg_epin_handler.10935
 .text.otg_epout_handler.10927
                0x0000000008009b90      0x140 /tmp/ccFEEOUj.ltrans7.ltrans.o
                0x0000000008009b90                otg_epout_handler.10927
 .text.obqPostFullBufferS
                0x0000000008009cd0       0x90 /tmp/ccFEEOUj.ltrans8.ltrans.o
                0x0000000008009cd0                obqPostFullBufferS
 .text.obqPutTimeout.4546
                0x0000000008009d60       0x70 /tmp/ccFEEOUj.ltrans8.ltrans.o
 .text.obqWriteTimeout.4540
                0x0000000008009dd0      0x130 /tmp/ccFEEOUj.ltrans8.ltrans.o
 .text.obqTryFlushI.4537
                0x0000000008009f00       0xa0 /tmp/ccFEEOUj.ltrans8.ltrans.o
 .text.port_lock.9201.4492
                0x0000000008009fa0       0x10 /tmp/ccFEEOUj.ltrans8.ltrans.o
 .text.port_unlock.9204.4490
                0x0000000008009fb0       0x10 /tmp/ccFEEOUj.ltrans8.ltrans.o
 .text.port_lock_from_isr.9206.4488
                0x0000000008009fc0       0x10 /tmp/ccFEEOUj.ltrans8.ltrans.o
 .text.port_unlock_from_isr.9208.4486
                0x0000000008009fd0       0x10 /tmp/ccFEEOUj.ltrans8.ltrans.o
 .text.chSysLock.9374.4484
                0x0000000008009fe0       0x10 /tmp/ccFEEOUj.ltrans8.ltrans.o
 .text.chSysUnlock.9378.4482
                0x0000000008009ff0       0x50 /tmp/ccFEEOUj.ltrans8.ltrans.o
 .text.chSysLockFromISR.9388.4480
                0x000000000800a040       0x10 /tmp/ccFEEOUj.ltrans8.ltrans.o
 .text.chSysUnlockFromISR.9392.4478
                0x000000000800a050       0x10 /tmp/ccFEEOUj.ltrans8.ltrans.o
 .text.chEvtObjectInit.9210.4475
                0x000000000800a060       0x10 /tmp/ccFEEOUj.ltrans8.ltrans.o
 .text.osalSysLock.9376.4473
                0x000000000800a070       0x10 /tmp/ccFEEOUj.ltrans8.ltrans.o
 .text.osalSysUnlock.9380.4471
                0x000000000800a080       0x10 /tmp/ccFEEOUj.ltrans8.ltrans.o
 .text.osalSysLockFromISR.9390.4469
                0x000000000800a090       0x10 /tmp/ccFEEOUj.ltrans8.ltrans.o
 .text.osalSysUnlockFromISR.9394.4467
                0x000000000800a0a0       0x10 /tmp/ccFEEOUj.ltrans8.ltrans.o
 .text.osalEventObjectInit.9310.4462
                0x000000000800a0b0       0x20 /tmp/ccFEEOUj.ltrans8.ltrans.o
 .text.osalEventBroadcastFlagsI.9384.4458
                0x000000000800a0d0       0x20 /tmp/ccFEEOUj.ltrans8.ltrans.o
 .text.write.9313
                0x000000000800a0f0       0x40 /tmp/ccFEEOUj.ltrans8.ltrans.o
                0x000000000800a0f0                write.9313
 .text.read.9326
                0x000000000800a130       0x40 /tmp/ccFEEOUj.ltrans8.ltrans.o
                0x000000000800a130                read.9326
 .text.put.9337
                0x000000000800a170       0x40 /tmp/ccFEEOUj.ltrans8.ltrans.o
                0x000000000800a170                put.9337
 .text.get.9346
                0x000000000800a1b0       0x40 /tmp/ccFEEOUj.ltrans8.ltrans.o
                0x000000000800a1b0                get.9346
 .text.putt.9341
                0x000000000800a1f0       0x40 /tmp/ccFEEOUj.ltrans8.ltrans.o
                0x000000000800a1f0                putt.9341
 .text.gett.9349
                0x000000000800a230       0x40 /tmp/ccFEEOUj.ltrans8.ltrans.o
                0x000000000800a230                gett.9349
 .text.writet.9319
                0x000000000800a270       0x40 /tmp/ccFEEOUj.ltrans8.ltrans.o
                0x000000000800a270                writet.9319
 .text.readt.9331
                0x000000000800a2b0       0x40 /tmp/ccFEEOUj.ltrans8.ltrans.o
                0x000000000800a2b0                readt.9331
 .text.ibnotify.9353.4412
                0x000000000800a2f0       0x80 /tmp/ccFEEOUj.ltrans8.ltrans.o
 .text.obnotify.9371.4415
                0x000000000800a370       0x90 /tmp/ccFEEOUj.ltrans8.ltrans.o
 .text.sduInit  0x000000000800a400       0x10 /tmp/ccFEEOUj.ltrans8.ltrans.o
                0x000000000800a400                sduInit
 .text.sduObjectInit
                0x000000000800a410       0x80 /tmp/ccFEEOUj.ltrans8.ltrans.o
                0x000000000800a410                sduObjectInit
 .text.sduStart
                0x000000000800a490       0xa0 /tmp/ccFEEOUj.ltrans8.ltrans.o
                0x000000000800a490                sduStart
 .text.sduDisconnectI
                0x000000000800a530       0x30 /tmp/ccFEEOUj.ltrans8.ltrans.o
                0x000000000800a530                sduDisconnectI
 .text.sduConfigureHookI
                0x000000000800a560       0x70 /tmp/ccFEEOUj.ltrans8.ltrans.o
                0x000000000800a560                sduConfigureHookI
 .text.sduRequestsHook
                0x000000000800a5d0       0x80 /tmp/ccFEEOUj.ltrans8.ltrans.o
                0x000000000800a5d0                sduRequestsHook
 .text.sduSOFHookI
                0x000000000800a650       0xa0 /tmp/ccFEEOUj.ltrans8.ltrans.o
                0x000000000800a650                sduSOFHookI
 .text.sduDataTransmitted
                0x000000000800a6f0       0xe0 /tmp/ccFEEOUj.ltrans8.ltrans.o
                0x000000000800a6f0                sduDataTransmitted
 .text.sduDataReceived
                0x000000000800a7d0       0xa0 /tmp/ccFEEOUj.ltrans8.ltrans.o
                0x000000000800a7d0                sduDataReceived
 .text.sduInterruptTransmitted
                0x000000000800a870       0x10 /tmp/ccFEEOUj.ltrans8.ltrans.o
                0x000000000800a870                sduInterruptTransmitted
 .text.port_lock.9746.4317
                0x000000000800a880       0x10 /tmp/ccFEEOUj.ltrans8.ltrans.o
 .text.port_unlock.9749.4315
                0x000000000800a890       0x10 /tmp/ccFEEOUj.ltrans8.ltrans.o
 .text.port_lock_from_isr.9751.4313
                0x000000000800a8a0       0x10 /tmp/ccFEEOUj.ltrans8.ltrans.o
 .text.port_unlock_from_isr.9753.4311
                0x000000000800a8b0       0x10 /tmp/ccFEEOUj.ltrans8.ltrans.o
 .text.chSysLock.9755.4309
                0x000000000800a8c0       0x10 /tmp/ccFEEOUj.ltrans8.ltrans.o
 .text.chSysUnlock.9759.4307
                0x000000000800a8d0       0x50 /tmp/ccFEEOUj.ltrans8.ltrans.o
 .text.chSysLockFromISR.9765.4305
                0x000000000800a920       0x10 /tmp/ccFEEOUj.ltrans8.ltrans.o
 .text.chSysUnlockFromISR.9769.4303
                0x000000000800a930       0x10 /tmp/ccFEEOUj.ltrans8.ltrans.o
 .text.osalSysLock.9757.4301
                0x000000000800a940       0x10 /tmp/ccFEEOUj.ltrans8.ltrans.o
 .text.osalSysUnlock.9761.4299
                0x000000000800a950       0x10 /tmp/ccFEEOUj.ltrans8.ltrans.o
 .text.osalSysLockFromISR.9767
                0x000000000800a960       0x10 /tmp/ccFEEOUj.ltrans8.ltrans.o
                0x000000000800a960                osalSysLockFromISR.9767
 .text.osalSysUnlockFromISR.9771
                0x000000000800a970       0x10 /tmp/ccFEEOUj.ltrans8.ltrans.o
                0x000000000800a970                osalSysUnlockFromISR.9771
 .text.get_hword.9773
                0x000000000800a980       0x30 /tmp/ccFEEOUj.ltrans8.ltrans.o
                0x000000000800a980                get_hword.9773
 .text.set_address.9780.4287
                0x000000000800a9b0       0x40 /tmp/ccFEEOUj.ltrans8.ltrans.o
 .text.default_handler.10033
                0x000000000800a9f0      0x3b0 /tmp/ccFEEOUj.ltrans8.ltrans.o
                0x000000000800a9f0                default_handler.10033
 .text.usbInit  0x000000000800ada0       0x10 /tmp/ccFEEOUj.ltrans8.ltrans.o
                0x000000000800ada0                usbInit
 .text.usbObjectInit
                0x000000000800adb0       0x50 /tmp/ccFEEOUj.ltrans8.ltrans.o
                0x000000000800adb0                usbObjectInit
 .text.usbStart
                0x000000000800ae00       0x80 /tmp/ccFEEOUj.ltrans8.ltrans.o
                0x000000000800ae00                usbStart
 .text.chIQObjectInit
                0x000000000800ae80       0x50 /tmp/ccFEEOUj.ltrans9.ltrans.o
                0x000000000800ae80                chIQObjectInit
 .text.chIQResetI
                0x000000000800aed0       0x40 /tmp/ccFEEOUj.ltrans9.ltrans.o
                0x000000000800aed0                chIQResetI
 .text.chIQPutI
                0x000000000800af10       0x70 /tmp/ccFEEOUj.ltrans9.ltrans.o
                0x000000000800af10                chIQPutI
 .text.chIQGetTimeout
                0x000000000800af80       0x90 /tmp/ccFEEOUj.ltrans9.ltrans.o
                0x000000000800af80                chIQGetTimeout
 .text.chIQReadTimeout
                0x000000000800b010       0xc0 /tmp/ccFEEOUj.ltrans9.ltrans.o
                0x000000000800b010                chIQReadTimeout
 .text.chOQObjectInit
                0x000000000800b0d0       0x50 /tmp/ccFEEOUj.ltrans9.ltrans.o
                0x000000000800b0d0                chOQObjectInit
 .text.chOQResetI
                0x000000000800b120       0x40 /tmp/ccFEEOUj.ltrans9.ltrans.o
                0x000000000800b120                chOQResetI
 .text.chOQPutTimeout
                0x000000000800b160       0x90 /tmp/ccFEEOUj.ltrans9.ltrans.o
                0x000000000800b160                chOQPutTimeout
 .text.chOQGetI
                0x000000000800b1f0       0x60 /tmp/ccFEEOUj.ltrans9.ltrans.o
                0x000000000800b1f0                chOQGetI
 .text.chOQWriteTimeout
                0x000000000800b250       0xc0 /tmp/ccFEEOUj.ltrans9.ltrans.o
                0x000000000800b250                chOQWriteTimeout
 .text.port_lock.8109.4376
                0x000000000800b310       0x10 /tmp/ccFEEOUj.ltrans9.ltrans.o
 .text.port_unlock.8112.4374
                0x000000000800b320       0x10 /tmp/ccFEEOUj.ltrans9.ltrans.o
 .text.chSysLock.8114.4372
                0x000000000800b330       0x10 /tmp/ccFEEOUj.ltrans9.ltrans.o
 .text.chSysUnlock.8116.4370
                0x000000000800b340       0x50 /tmp/ccFEEOUj.ltrans9.ltrans.o
 .text._core_init
                0x000000000800b390       0x40 /tmp/ccFEEOUj.ltrans9.ltrans.o
                0x000000000800b390                _core_init
 .text.chCoreAlloc.4359
                0x000000000800b3d0       0x20 /tmp/ccFEEOUj.ltrans9.ltrans.o
 .text.chCoreAllocI.4365
                0x000000000800b3f0       0x70 /tmp/ccFEEOUj.ltrans9.ltrans.o
 .text.chCoreGetStatusX
                0x000000000800b460       0x20 /tmp/ccFEEOUj.ltrans9.ltrans.o
                0x000000000800b460                chCoreGetStatusX
 .text._heap_init
                0x000000000800b480       0x40 /tmp/ccFEEOUj.ltrans9.ltrans.o
                0x000000000800b480                _heap_init
 .text.chHeapObjectInit
                0x000000000800b4c0       0x60 /tmp/ccFEEOUj.ltrans9.ltrans.o
                0x000000000800b4c0                chHeapObjectInit
 .text.chHeapAlloc
                0x000000000800b520       0xf0 /tmp/ccFEEOUj.ltrans9.ltrans.o
                0x000000000800b520                chHeapAlloc
 .text.chHeapFree
                0x000000000800b610      0x100 /tmp/ccFEEOUj.ltrans9.ltrans.o
                0x000000000800b610                chHeapFree
 .text.chHeapStatus
                0x000000000800b710       0x80 /tmp/ccFEEOUj.ltrans9.ltrans.o
                0x000000000800b710                chHeapStatus
 .text.port_lock.8423.4324
                0x000000000800b790       0x10 /tmp/ccFEEOUj.ltrans9.ltrans.o
 .text.port_unlock.8426.4322
                0x000000000800b7a0       0x10 /tmp/ccFEEOUj.ltrans9.ltrans.o
 .text.chSysLock.8428.4320
                0x000000000800b7b0       0x10 /tmp/ccFEEOUj.ltrans9.ltrans.o
 .text.chSysUnlock.8430.4318
                0x000000000800b7c0       0x50 /tmp/ccFEEOUj.ltrans9.ltrans.o
 .text.chPoolAdd.8460.4314
                0x000000000800b810       0x20 /tmp/ccFEEOUj.ltrans9.ltrans.o
 .text.chPoolObjectInit
                0x000000000800b830       0x40 /tmp/ccFEEOUj.ltrans9.ltrans.o
                0x000000000800b830                chPoolObjectInit
 .text.chPoolLoadArray
                0x000000000800b870       0x50 /tmp/ccFEEOUj.ltrans9.ltrans.o
                0x000000000800b870                chPoolLoadArray
 .text.chPoolAllocI.4301
                0x000000000800b8c0       0x60 /tmp/ccFEEOUj.ltrans9.ltrans.o
 .text.chPoolAlloc
                0x000000000800b920       0x20 /tmp/ccFEEOUj.ltrans9.ltrans.o
                0x000000000800b920                chPoolAlloc
 .text.chPoolFreeI.4294
                0x000000000800b940       0x40 /tmp/ccFEEOUj.ltrans9.ltrans.o
 .text.chPoolFree
                0x000000000800b980       0x20 /tmp/ccFEEOUj.ltrans9.ltrans.o
                0x000000000800b980                chPoolFree
 .text.port_lock.8630.4278
                0x000000000800b9a0       0x10 /tmp/ccFEEOUj.ltrans9.ltrans.o
 .text.port_unlock.8633.4276
                0x000000000800b9b0       0x10 /tmp/ccFEEOUj.ltrans9.ltrans.o
 .text.port_lock_from_isr.8635.4274
                0x000000000800b9c0       0x10 /tmp/ccFEEOUj.ltrans9.ltrans.o
 .text.port_unlock_from_isr.8637.4272
                0x000000000800b9d0       0x10 /tmp/ccFEEOUj.ltrans9.ltrans.o
 .text.SVC_Handler
                0x000000000800b9e0       0x30 /tmp/ccFEEOUj.ltrans9.ltrans.o
                0x000000000800b9e0                SVC_Handler
 .text._port_irq_epilogue
                0x000000000800ba10       0x70 /tmp/ccFEEOUj.ltrans9.ltrans.o
                0x000000000800ba10                _port_irq_epilogue
 .text.osalInit.8696.4263
                0x000000000800ba80       0x10 /tmp/ccFEEOUj.ltrans9.ltrans.o
 .text.halInit  0x000000000800ba90       0x30 /tmp/ccFEEOUj.ltrans9.ltrans.o
                0x000000000800ba90                halInit
 .text.st_lld_start_alarm.8730.4257
                0x000000000800bac0       0x20 /tmp/ccFEEOUj.ltrans9.ltrans.o
 .text.st_lld_stop_alarm.8737.4255
                0x000000000800bae0       0x10 /tmp/ccFEEOUj.ltrans9.ltrans.o
 .text.st_lld_set_alarm.8739.4252
                0x000000000800baf0       0x10 /tmp/ccFEEOUj.ltrans9.ltrans.o
 .text.st_lld_is_alarm_active.8744.4247
                0x000000000800bb00       0x20 /tmp/ccFEEOUj.ltrans9.ltrans.o
 .text.stInit.4245
                0x000000000800bb20       0x10 /tmp/ccFEEOUj.ltrans9.ltrans.o
 .text.stStartAlarm
                0x000000000800bb30       0x30 /tmp/ccFEEOUj.ltrans9.ltrans.o
                0x000000000800bb30                stStartAlarm
 .text.stStopAlarm
                0x000000000800bb60       0x10 /tmp/ccFEEOUj.ltrans9.ltrans.o
                0x000000000800bb60                stStopAlarm
 .text.stSetAlarm
                0x000000000800bb70       0x30 /tmp/ccFEEOUj.ltrans9.ltrans.o
                0x000000000800bb70                stSetAlarm
 .text.port_lock.8790.4232
                0x000000000800bba0       0x10 /tmp/ccFEEOUj.ltrans9.ltrans.o
 .text.port_unlock.8793.4230
                0x000000000800bbb0       0x10 /tmp/ccFEEOUj.ltrans9.ltrans.o
 .text.st_lld_get_counter.8795.4228
                0x000000000800bbc0       0x10 /tmp/ccFEEOUj.ltrans9.ltrans.o
 .text.port_timer_get_time.8800.4226
                0x000000000800bbd0       0x10 /tmp/ccFEEOUj.ltrans9.ltrans.o
 .text.queue_init.8802.4223
                0x000000000800bbe0       0x20 /tmp/ccFEEOUj.ltrans9.ltrans.o
 .text.chSysLock.8907.4221
                0x000000000800bc00       0x10 /tmp/ccFEEOUj.ltrans9.ltrans.o
 .text.chSysUnlock.8911.4219
                0x000000000800bc10       0x50 /tmp/ccFEEOUj.ltrans9.ltrans.o
 .text.chVTGetSystemTimeX.8889.4217
                0x000000000800bc60       0x10 /tmp/ccFEEOUj.ltrans9.ltrans.o
 .text.chThdQueueObjectInit.8891.4214
                0x000000000800bc70       0x20 /tmp/ccFEEOUj.ltrans9.ltrans.o
 .text.osalSysLock.8909
                0x000000000800bc90       0x10 /tmp/ccFEEOUj.ltrans9.ltrans.o
                0x000000000800bc90                osalSysLock.8909
 .text.osalSysUnlock.8913
                0x000000000800bca0       0x10 /tmp/ccFEEOUj.ltrans9.ltrans.o
                0x000000000800bca0                osalSysUnlock.8913
 .text.osalOsGetSystemTimeX.8894
                0x000000000800bcb0       0x10 /tmp/ccFEEOUj.ltrans9.ltrans.o
                0x000000000800bcb0                osalOsGetSystemTimeX.8894
 .text.osalThreadQueueObjectInit.8896.4205
                0x000000000800bcc0       0x20 /tmp/ccFEEOUj.ltrans9.ltrans.o
 .text.osalThreadEnqueueTimeoutS.8915.4201
                0x000000000800bce0       0x20 /tmp/ccFEEOUj.ltrans9.ltrans.o
 .text.osalThreadDequeueNextI.8903.4197
                0x000000000800bd00       0x20 /tmp/ccFEEOUj.ltrans9.ltrans.o
 .text.osalThreadDequeueAllI.8899.4193
                0x000000000800bd20       0x20 /tmp/ccFEEOUj.ltrans9.ltrans.o
 .text.ibqObjectInit
                0x000000000800bd40       0x90 /tmp/ccFEEOUj.ltrans9.ltrans.o
                0x000000000800bd40                ibqObjectInit
 .text.ibqResetI
                0x000000000800bdd0       0x40 /tmp/ccFEEOUj.ltrans9.ltrans.o
                0x000000000800bdd0                ibqResetI
 .text.ibqGetEmptyBufferI
                0x000000000800be10       0x40 /tmp/ccFEEOUj.ltrans9.ltrans.o
                0x000000000800be10                ibqGetEmptyBufferI
 .text.ibqPostFullBufferI
                0x000000000800be50       0xa0 /tmp/ccFEEOUj.ltrans9.ltrans.o
                0x000000000800be50                ibqPostFullBufferI
 .text.ibqGetFullBufferTimeoutS.4167
                0x000000000800bef0       0x70 /tmp/ccFEEOUj.ltrans9.ltrans.o
 .text.ibqReleaseEmptyBufferS.4161
                0x000000000800bf60       0x70 /tmp/ccFEEOUj.ltrans9.ltrans.o
 .text.ibqGetTimeout
                0x000000000800bfd0       0x60 /tmp/ccFEEOUj.ltrans9.ltrans.o
                0x000000000800bfd0                ibqGetTimeout
 .text.ibqReadTimeout
                0x000000000800c030      0x120 /tmp/ccFEEOUj.ltrans9.ltrans.o
                0x000000000800c030                ibqReadTimeout
 .text.obqObjectInit
                0x000000000800c150       0x90 /tmp/ccFEEOUj.ltrans9.ltrans.o
                0x000000000800c150                obqObjectInit
 .text.obqResetI
                0x000000000800c1e0       0x40 /tmp/ccFEEOUj.ltrans9.ltrans.o
                0x000000000800c1e0                obqResetI
 .text.obqGetFullBufferI
                0x000000000800c220       0x50 /tmp/ccFEEOUj.ltrans9.ltrans.o
                0x000000000800c220                obqGetFullBufferI
 .text.obqReleaseEmptyBufferI
                0x000000000800c270       0x80 /tmp/ccFEEOUj.ltrans9.ltrans.o
                0x000000000800c270                obqReleaseEmptyBufferI
 .text.obqGetEmptyBufferTimeoutS
                0x000000000800c2f0       0x70 /tmp/ccFEEOUj.ltrans9.ltrans.o
                0x000000000800c2f0                obqGetEmptyBufferTimeoutS
 .text.chMtxTryLockS
                0x000000000800c360       0x60 /tmp/ccFEEOUj.ltrans10.ltrans.o
                0x000000000800c360                chMtxTryLockS
 .text.chMtxUnlock
                0x000000000800c3c0      0x100 /tmp/ccFEEOUj.ltrans10.ltrans.o
                0x000000000800c3c0                chMtxUnlock
 .text.chMtxUnlockS
                0x000000000800c4c0       0xf0 /tmp/ccFEEOUj.ltrans10.ltrans.o
                0x000000000800c4c0                chMtxUnlockS
 .text.chMtxUnlockAll
                0x000000000800c5b0       0x80 /tmp/ccFEEOUj.ltrans10.ltrans.o
                0x000000000800c5b0                chMtxUnlockAll
 .text.port_lock.6898.4398
                0x000000000800c630       0x10 /tmp/ccFEEOUj.ltrans10.ltrans.o
 .text.port_unlock.6901.4396
                0x000000000800c640       0x10 /tmp/ccFEEOUj.ltrans10.ltrans.o
 .text.queue_init.6903.4393
                0x000000000800c650       0x20 /tmp/ccFEEOUj.ltrans10.ltrans.o
 .text.queue_notempty.6992.4388
                0x000000000800c670       0x20 /tmp/ccFEEOUj.ltrans10.ltrans.o
 .text.queue_prio_insert.6996.4384
                0x000000000800c690       0x50 /tmp/ccFEEOUj.ltrans10.ltrans.o
 .text.queue_fifo_remove.7000.4381
                0x000000000800c6e0       0x30 /tmp/ccFEEOUj.ltrans10.ltrans.o
 .text.chSysLock.7007.4379
                0x000000000800c710       0x10 /tmp/ccFEEOUj.ltrans10.ltrans.o
 .text.chSysUnlock.7009.4377
                0x000000000800c720       0x50 /tmp/ccFEEOUj.ltrans10.ltrans.o
 .text.chThdGetSelfX.7003.4375
                0x000000000800c770       0x10 /tmp/ccFEEOUj.ltrans10.ltrans.o
 .text.chMtxGetNextMutexS.7005.4373
                0x000000000800c780       0x10 /tmp/ccFEEOUj.ltrans10.ltrans.o
 .text.chCondObjectInit
                0x000000000800c790       0x30 /tmp/ccFEEOUj.ltrans10.ltrans.o
                0x000000000800c790                chCondObjectInit
 .text.chCondSignal
                0x000000000800c7c0       0x50 /tmp/ccFEEOUj.ltrans10.ltrans.o
                0x000000000800c7c0                chCondSignal
 .text.chCondSignalI
                0x000000000800c810       0x50 /tmp/ccFEEOUj.ltrans10.ltrans.o
                0x000000000800c810                chCondSignalI
 .text.chCondBroadcast
                0x000000000800c860       0x20 /tmp/ccFEEOUj.ltrans10.ltrans.o
                0x000000000800c860                chCondBroadcast
 .text.chCondBroadcastI.4358
                0x000000000800c880       0x50 /tmp/ccFEEOUj.ltrans10.ltrans.o
 .text.chCondWait
                0x000000000800c8d0       0x20 /tmp/ccFEEOUj.ltrans10.ltrans.o
                0x000000000800c8d0                chCondWait
 .text.chCondWaitS.4352
                0x000000000800c8f0       0x80 /tmp/ccFEEOUj.ltrans10.ltrans.o
 .text.chCondWaitTimeout
                0x000000000800c970       0x30 /tmp/ccFEEOUj.ltrans10.ltrans.o
                0x000000000800c970                chCondWaitTimeout
 .text.chCondWaitTimeoutS.4340
                0x000000000800c9a0       0x90 /tmp/ccFEEOUj.ltrans10.ltrans.o
 .text.port_lock.7134.4338
                0x000000000800ca30       0x10 /tmp/ccFEEOUj.ltrans10.ltrans.o
 .text.port_unlock.7137.4336
                0x000000000800ca40       0x10 /tmp/ccFEEOUj.ltrans10.ltrans.o
 .text.chSysLock.7139.4334
                0x000000000800ca50       0x10 /tmp/ccFEEOUj.ltrans10.ltrans.o
 .text.chSysUnlock.7141.4332
                0x000000000800ca60       0x50 /tmp/ccFEEOUj.ltrans10.ltrans.o
 .text.chEvtRegisterMaskWithFlags
                0x000000000800cab0       0x60 /tmp/ccFEEOUj.ltrans10.ltrans.o
                0x000000000800cab0                chEvtRegisterMaskWithFlags
 .text.chEvtUnregister
                0x000000000800cb10       0x60 /tmp/ccFEEOUj.ltrans10.ltrans.o
                0x000000000800cb10                chEvtUnregister
 .text.chEvtGetAndClearEvents
                0x000000000800cb70       0x50 /tmp/ccFEEOUj.ltrans10.ltrans.o
                0x000000000800cb70                chEvtGetAndClearEvents
 .text.chEvtAddEvents
                0x000000000800cbc0       0x50 /tmp/ccFEEOUj.ltrans10.ltrans.o
                0x000000000800cbc0                chEvtAddEvents
 .text.chEvtBroadcastFlagsI
                0x000000000800cc10       0x70 /tmp/ccFEEOUj.ltrans10.ltrans.o
                0x000000000800cc10                chEvtBroadcastFlagsI
 .text.chEvtSignal
                0x000000000800cc80       0x40 /tmp/ccFEEOUj.ltrans10.ltrans.o
                0x000000000800cc80                chEvtSignal
 .text.chEvtSignalI.4301
                0x000000000800ccc0       0x70 /tmp/ccFEEOUj.ltrans10.ltrans.o
 .text.chEvtBroadcastFlags
                0x000000000800cd30       0x30 /tmp/ccFEEOUj.ltrans10.ltrans.o
                0x000000000800cd30                chEvtBroadcastFlags
 .text.chEvtDispatch
                0x000000000800cd60       0x80 /tmp/ccFEEOUj.ltrans10.ltrans.o
                0x000000000800cd60                chEvtDispatch
 .text.chEvtWaitOne
                0x000000000800cde0       0x70 /tmp/ccFEEOUj.ltrans10.ltrans.o
                0x000000000800cde0                chEvtWaitOne
 .text.chEvtWaitAny
                0x000000000800ce50       0x60 /tmp/ccFEEOUj.ltrans10.ltrans.o
                0x000000000800ce50                chEvtWaitAny
 .text.chEvtWaitAll
                0x000000000800ceb0       0x50 /tmp/ccFEEOUj.ltrans10.ltrans.o
                0x000000000800ceb0                chEvtWaitAll
 .text.chEvtWaitOneTimeout
                0x000000000800cf00       0x90 /tmp/ccFEEOUj.ltrans10.ltrans.o
                0x000000000800cf00                chEvtWaitOneTimeout
 .text.chEvtWaitAnyTimeout
                0x000000000800cf90       0x80 /tmp/ccFEEOUj.ltrans10.ltrans.o
                0x000000000800cf90                chEvtWaitAnyTimeout
 .text.chEvtWaitAllTimeout
                0x000000000800d010       0x70 /tmp/ccFEEOUj.ltrans10.ltrans.o
                0x000000000800d010                chEvtWaitAllTimeout
 .text.port_lock.7394.4253
                0x000000000800d080       0x10 /tmp/ccFEEOUj.ltrans10.ltrans.o
 .text.port_unlock.7397.4251
                0x000000000800d090       0x10 /tmp/ccFEEOUj.ltrans10.ltrans.o
 .text.queue_insert.7399.4247
                0x000000000800d0a0       0x30 /tmp/ccFEEOUj.ltrans10.ltrans.o
 .text.queue_fifo_remove.7489.4244
                0x000000000800d0d0       0x30 /tmp/ccFEEOUj.ltrans10.ltrans.o
 .text.chSysLock.7492.4242
                0x000000000800d100       0x10 /tmp/ccFEEOUj.ltrans10.ltrans.o
 .text.chSysUnlock.7494.4240
                0x000000000800d110       0x50 /tmp/ccFEEOUj.ltrans10.ltrans.o
 .text.chMsgIsPendingI.7496.4237
                0x000000000800d160       0x30 /tmp/ccFEEOUj.ltrans10.ltrans.o
 .text.chMsgReleaseS.7500.4233
                0x000000000800d190       0x20 /tmp/ccFEEOUj.ltrans10.ltrans.o
 .text.chMsgSend
                0x000000000800d1b0       0x70 /tmp/ccFEEOUj.ltrans10.ltrans.o
                0x000000000800d1b0                chMsgSend
 .text.chMsgWait
                0x000000000800d220       0x60 /tmp/ccFEEOUj.ltrans10.ltrans.o
                0x000000000800d220                chMsgWait
 .text.chMsgRelease
                0x000000000800d280       0x40 /tmp/ccFEEOUj.ltrans10.ltrans.o
                0x000000000800d280                chMsgRelease
 .text.port_lock.7593.4220
                0x000000000800d2c0       0x10 /tmp/ccFEEOUj.ltrans10.ltrans.o
 .text.port_unlock.7596.4218
                0x000000000800d2d0       0x10 /tmp/ccFEEOUj.ltrans10.ltrans.o
 .text.chSysLock.7598.4216
                0x000000000800d2e0       0x10 /tmp/ccFEEOUj.ltrans10.ltrans.o
 .text.chSysUnlock.7600.4214
                0x000000000800d2f0       0x50 /tmp/ccFEEOUj.ltrans10.ltrans.o
 .text.chSemFastWaitI.7692.4211
                0x000000000800d340       0x20 /tmp/ccFEEOUj.ltrans10.ltrans.o
 .text.chSemGetCounterI.7602.4208
                0x000000000800d360       0x20 /tmp/ccFEEOUj.ltrans10.ltrans.o
 .text.chMBObjectInit
                0x000000000800d380       0x70 /tmp/ccFEEOUj.ltrans10.ltrans.o
                0x000000000800d380                chMBObjectInit
 .text.chMBReset
                0x000000000800d3f0       0x20 /tmp/ccFEEOUj.ltrans10.ltrans.o
                0x000000000800d3f0                chMBReset
 .text.chMBResetI.4197
                0x000000000800d410       0x60 /tmp/ccFEEOUj.ltrans10.ltrans.o
 .text.chMBPost
                0x000000000800d470       0x30 /tmp/ccFEEOUj.ltrans10.ltrans.o
                0x000000000800d470                chMBPost
 .text.chMBPostS.4187
                0x000000000800d4a0       0x70 /tmp/ccFEEOUj.ltrans10.ltrans.o
 .text.chMBPostI
                0x000000000800d510       0x80 /tmp/ccFEEOUj.ltrans10.ltrans.o
                0x000000000800d510                chMBPostI
 .text.chMBPostAhead
                0x000000000800d590       0x30 /tmp/ccFEEOUj.ltrans10.ltrans.o
                0x000000000800d590                chMBPostAhead
 .text.chMBPostAheadS.4173
                0x000000000800d5c0       0x80 /tmp/ccFEEOUj.ltrans10.ltrans.o
 .text.chMBPostAheadI
                0x000000000800d640       0x80 /tmp/ccFEEOUj.ltrans10.ltrans.o
                0x000000000800d640                chMBPostAheadI
 .text.chMBFetch
                0x000000000800d6c0       0x30 /tmp/ccFEEOUj.ltrans10.ltrans.o
                0x000000000800d6c0                chMBFetch
 .text.chMBFetchS.4158
                0x000000000800d6f0       0x80 /tmp/ccFEEOUj.ltrans10.ltrans.o
 .text.chMBFetchI
                0x000000000800d770       0x80 /tmp/ccFEEOUj.ltrans10.ltrans.o
                0x000000000800d770                chMBFetchI
 .text.port_lock.7849.4140
                0x000000000800d7f0       0x10 /tmp/ccFEEOUj.ltrans10.ltrans.o
 .text.port_unlock.7852.4138
                0x000000000800d800       0x10 /tmp/ccFEEOUj.ltrans10.ltrans.o
 .text.queue_init.7854.4135
                0x000000000800d810       0x20 /tmp/ccFEEOUj.ltrans10.ltrans.o
 .text.chSysLock.7973
                0x000000000800d830       0x10 /tmp/ccFEEOUj.ltrans10.ltrans.o
                0x000000000800d830                chSysLock.7973
 .text.chSysUnlock.7975
                0x000000000800d840       0x50 /tmp/ccFEEOUj.ltrans10.ltrans.o
                0x000000000800d840                chSysUnlock.7975
 .text.chThdQueueObjectInit.7943
                0x000000000800d890       0x20 /tmp/ccFEEOUj.ltrans10.ltrans.o
                0x000000000800d890                chThdQueueObjectInit.7943
 .text.chIQIsEmptyI.7963
                0x000000000800d8b0       0x20 /tmp/ccFEEOUj.ltrans10.ltrans.o
                0x000000000800d8b0                chIQIsEmptyI.7963
 .text.chIQIsFullI.7946
                0x000000000800d8d0       0x40 /tmp/ccFEEOUj.ltrans10.ltrans.o
                0x000000000800d8d0                chIQIsFullI.7946
 .text.chOQIsEmptyI.7970
                0x000000000800d910       0x40 /tmp/ccFEEOUj.ltrans10.ltrans.o
                0x000000000800d910                chOQIsEmptyI.7970
 .text.chOQIsFullI.7966
                0x000000000800d950       0x20 /tmp/ccFEEOUj.ltrans10.ltrans.o
                0x000000000800d950                chOQIsFullI.7966
 .text.chThdStart
                0x000000000800d970       0x20 /tmp/ccFEEOUj.ltrans11.ltrans.o
                0x000000000800d970                chThdStart
 .text.chThdSetPriority
                0x000000000800d990       0x90 /tmp/ccFEEOUj.ltrans11.ltrans.o
                0x000000000800d990                chThdSetPriority
 .text.chThdTerminate
                0x000000000800da20       0x30 /tmp/ccFEEOUj.ltrans11.ltrans.o
                0x000000000800da20                chThdTerminate
 .text.chThdSleep
                0x000000000800da50       0x20 /tmp/ccFEEOUj.ltrans11.ltrans.o
                0x000000000800da50                chThdSleep
 .text.chThdSleepUntil
                0x000000000800da70       0x30 /tmp/ccFEEOUj.ltrans11.ltrans.o
                0x000000000800da70                chThdSleepUntil
 .text.chThdYield
                0x000000000800daa0       0x10 /tmp/ccFEEOUj.ltrans11.ltrans.o
                0x000000000800daa0                chThdYield
 .text.chThdExit
                0x000000000800dab0       0x20 /tmp/ccFEEOUj.ltrans11.ltrans.o
                0x000000000800dab0                chThdExit
 .text.chThdExitS
                0x000000000800dad0       0x80 /tmp/ccFEEOUj.ltrans11.ltrans.o
                0x000000000800dad0                chThdExitS
 .text.chThdWait
                0x000000000800db50       0x90 /tmp/ccFEEOUj.ltrans11.ltrans.o
                0x000000000800db50                chThdWait
 .text.chThdSuspendS
                0x000000000800dbe0       0x50 /tmp/ccFEEOUj.ltrans11.ltrans.o
                0x000000000800dbe0                chThdSuspendS
 .text.chThdResumeI
                0x000000000800dc30       0x50 /tmp/ccFEEOUj.ltrans11.ltrans.o
                0x000000000800dc30                chThdResumeI
 .text.chThdEnqueueTimeoutS
                0x000000000800dc80       0x40 /tmp/ccFEEOUj.ltrans11.ltrans.o
                0x000000000800dc80                chThdEnqueueTimeoutS
 .text.chThdDequeueNextI
                0x000000000800dcc0       0x30 /tmp/ccFEEOUj.ltrans11.ltrans.o
                0x000000000800dcc0                chThdDequeueNextI
 .text.chThdDequeueAllI
                0x000000000800dcf0       0x30 /tmp/ccFEEOUj.ltrans11.ltrans.o
                0x000000000800dcf0                chThdDequeueAllI
 .text.port_rt_get_counter_value.5636.4326
                0x000000000800dd20       0x10 /tmp/ccFEEOUj.ltrans11.ltrans.o
 .text.tm_stop.5642.4321
                0x000000000800dd30       0x70 /tmp/ccFEEOUj.ltrans11.ltrans.o
 .text._tm_init
                0x000000000800dda0       0x40 /tmp/ccFEEOUj.ltrans11.ltrans.o
                0x000000000800dda0                _tm_init
 .text.chTMObjectInit
                0x000000000800dde0       0x30 /tmp/ccFEEOUj.ltrans11.ltrans.o
                0x000000000800dde0                chTMObjectInit
 .text.chTMStartMeasurementX
                0x000000000800de10       0x20 /tmp/ccFEEOUj.ltrans11.ltrans.o
                0x000000000800de10                chTMStartMeasurementX
 .text.chTMStopMeasurementX.4310
                0x000000000800de30       0x30 /tmp/ccFEEOUj.ltrans11.ltrans.o
 .text.chTMChainMeasurementToX.4305
                0x000000000800de60       0x30 /tmp/ccFEEOUj.ltrans11.ltrans.o
 .text.port_lock.5830.4303
                0x000000000800de90       0x10 /tmp/ccFEEOUj.ltrans11.ltrans.o
 .text.port_unlock.5833.4301
                0x000000000800dea0       0x10 /tmp/ccFEEOUj.ltrans11.ltrans.o
 .text.port_lock_from_isr.5835.4299
                0x000000000800deb0       0x10 /tmp/ccFEEOUj.ltrans11.ltrans.o
 .text.port_unlock_from_isr.5837.4297
                0x000000000800dec0       0x10 /tmp/ccFEEOUj.ltrans11.ltrans.o
 .text._stats_init
                0x000000000800ded0       0x40 /tmp/ccFEEOUj.ltrans11.ltrans.o
                0x000000000800ded0                _stats_init
 .text._stats_increase_irq
                0x000000000800df10       0x30 /tmp/ccFEEOUj.ltrans11.ltrans.o
                0x000000000800df10                _stats_increase_irq
 .text._stats_ctxswc
                0x000000000800df40       0x40 /tmp/ccFEEOUj.ltrans11.ltrans.o
                0x000000000800df40                _stats_ctxswc
 .text._stats_start_measure_crit_thd
                0x000000000800df80       0x10 /tmp/ccFEEOUj.ltrans11.ltrans.o
                0x000000000800df80                _stats_start_measure_crit_thd
 .text._stats_stop_measure_crit_thd
                0x000000000800df90       0x10 /tmp/ccFEEOUj.ltrans11.ltrans.o
                0x000000000800df90                _stats_stop_measure_crit_thd
 .text._stats_start_measure_crit_isr
                0x000000000800dfa0       0x10 /tmp/ccFEEOUj.ltrans11.ltrans.o
                0x000000000800dfa0                _stats_start_measure_crit_isr
 .text._stats_stop_measure_crit_isr
                0x000000000800dfb0       0x10 /tmp/ccFEEOUj.ltrans11.ltrans.o
                0x000000000800dfb0                _stats_stop_measure_crit_isr
 .text.port_lock.6007.4278
                0x000000000800dfc0       0x10 /tmp/ccFEEOUj.ltrans11.ltrans.o
 .text.port_unlock.6010.4276
                0x000000000800dfd0       0x10 /tmp/ccFEEOUj.ltrans11.ltrans.o
 .text.chSysLock.6012.4274
                0x000000000800dfe0       0x10 /tmp/ccFEEOUj.ltrans11.ltrans.o
 .text.chSysUnlock.6014.4272
                0x000000000800dff0       0x50 /tmp/ccFEEOUj.ltrans11.ltrans.o
 .text.chThdAddRef
                0x000000000800e040       0x40 /tmp/ccFEEOUj.ltrans11.ltrans.o
                0x000000000800e040                chThdAddRef
 .text.chThdRelease
                0x000000000800e080       0xb0 /tmp/ccFEEOUj.ltrans11.ltrans.o
                0x000000000800e080                chThdRelease
 .text.chThdCreateFromHeap
                0x000000000800e130       0x80 /tmp/ccFEEOUj.ltrans11.ltrans.o
                0x000000000800e130                chThdCreateFromHeap
 .text.chThdCreateFromMemoryPool
                0x000000000800e1b0       0xa0 /tmp/ccFEEOUj.ltrans11.ltrans.o
                0x000000000800e1b0                chThdCreateFromMemoryPool
 .text.port_lock.6230.4226
                0x000000000800e250       0x10 /tmp/ccFEEOUj.ltrans11.ltrans.o
 .text.port_unlock.6233.4224
                0x000000000800e260       0x10 /tmp/ccFEEOUj.ltrans11.ltrans.o
 .text.chSysLock.6235.4222
                0x000000000800e270       0x10 /tmp/ccFEEOUj.ltrans11.ltrans.o
 .text.chSysUnlock.6237.4220
                0x000000000800e280       0x50 /tmp/ccFEEOUj.ltrans11.ltrans.o
 .text.chRegFirstThread
                0x000000000800e2d0       0x40 /tmp/ccFEEOUj.ltrans11.ltrans.o
                0x000000000800e2d0                chRegFirstThread
 .text.chRegNextThread
                0x000000000800e310       0x60 /tmp/ccFEEOUj.ltrans11.ltrans.o
                0x000000000800e310                chRegNextThread
 .text.port_lock.6425.4212
                0x000000000800e370       0x10 /tmp/ccFEEOUj.ltrans11.ltrans.o
 .text.port_unlock.6428.4210
                0x000000000800e380       0x10 /tmp/ccFEEOUj.ltrans11.ltrans.o
 .text.queue_init.6430.4207
                0x000000000800e390       0x20 /tmp/ccFEEOUj.ltrans11.ltrans.o
 .text.queue_isempty.6519.4204
                0x000000000800e3b0       0x20 /tmp/ccFEEOUj.ltrans11.ltrans.o
 .text.queue_notempty.6523.4201
                0x000000000800e3d0       0x20 /tmp/ccFEEOUj.ltrans11.ltrans.o
 .text.queue_insert.6526.4197
                0x000000000800e3f0       0x30 /tmp/ccFEEOUj.ltrans11.ltrans.o
 .text.queue_fifo_remove.6530.4194
                0x000000000800e420       0x30 /tmp/ccFEEOUj.ltrans11.ltrans.o
 .text.queue_lifo_remove.6533.4191
                0x000000000800e450       0x30 /tmp/ccFEEOUj.ltrans11.ltrans.o
 .text.chSysLock.6536.4189
                0x000000000800e480       0x10 /tmp/ccFEEOUj.ltrans11.ltrans.o
 .text.chSysUnlock.6538.4187
                0x000000000800e490       0x50 /tmp/ccFEEOUj.ltrans11.ltrans.o
 .text.chSemObjectInit
                0x000000000800e4e0       0x40 /tmp/ccFEEOUj.ltrans11.ltrans.o
                0x000000000800e4e0                chSemObjectInit
 .text.chSemReset
                0x000000000800e520       0x30 /tmp/ccFEEOUj.ltrans11.ltrans.o
                0x000000000800e520                chSemReset
 .text.chSemResetI
                0x000000000800e550       0xa0 /tmp/ccFEEOUj.ltrans11.ltrans.o
                0x000000000800e550                chSemResetI
 .text.chSemWait
                0x000000000800e5f0       0x20 /tmp/ccFEEOUj.ltrans11.ltrans.o
                0x000000000800e5f0                chSemWait
 .text.chSemWaitS.4169
                0x000000000800e610       0xc0 /tmp/ccFEEOUj.ltrans11.ltrans.o
 .text.chSemWaitTimeout
                0x000000000800e6d0       0x30 /tmp/ccFEEOUj.ltrans11.ltrans.o
                0x000000000800e6d0                chSemWaitTimeout
 .text.chSemWaitTimeoutS
                0x000000000800e700       0xd0 /tmp/ccFEEOUj.ltrans11.ltrans.o
                0x000000000800e700                chSemWaitTimeoutS
 .text.chSemSignal
                0x000000000800e7d0       0x90 /tmp/ccFEEOUj.ltrans11.ltrans.o
                0x000000000800e7d0                chSemSignal
 .text.chSemSignalI
                0x000000000800e860       0x90 /tmp/ccFEEOUj.ltrans11.ltrans.o
                0x000000000800e860                chSemSignalI
 .text.chSemAddCounterI
                0x000000000800e8f0       0xb0 /tmp/ccFEEOUj.ltrans11.ltrans.o
                0x000000000800e8f0                chSemAddCounterI
 .text.chSemSignalWait
                0x000000000800e9a0      0x130 /tmp/ccFEEOUj.ltrans11.ltrans.o
                0x000000000800e9a0                chSemSignalWait
 .text.port_lock.6673.4140
                0x000000000800ead0       0x10 /tmp/ccFEEOUj.ltrans11.ltrans.o
 .text.port_unlock.6676.4138
                0x000000000800eae0       0x10 /tmp/ccFEEOUj.ltrans11.ltrans.o
 .text.queue_init.6678.4135
                0x000000000800eaf0       0x20 /tmp/ccFEEOUj.ltrans11.ltrans.o
 .text.queue_notempty.6767.4130
                0x000000000800eb10       0x20 /tmp/ccFEEOUj.ltrans11.ltrans.o
 .text.queue_prio_insert.6771.4126
                0x000000000800eb30       0x50 /tmp/ccFEEOUj.ltrans11.ltrans.o
 .text.queue_fifo_remove.6775
                0x000000000800eb80       0x30 /tmp/ccFEEOUj.ltrans11.ltrans.o
                0x000000000800eb80                queue_fifo_remove.6775
 .text.queue_dequeue.6778.4120
                0x000000000800ebb0       0x20 /tmp/ccFEEOUj.ltrans11.ltrans.o
 .text.chSysLock.6781
                0x000000000800ebd0       0x10 /tmp/ccFEEOUj.ltrans11.ltrans.o
                0x000000000800ebd0                chSysLock.6781
 .text.chSysUnlock.6783
                0x000000000800ebe0       0x50 /tmp/ccFEEOUj.ltrans11.ltrans.o
                0x000000000800ebe0                chSysUnlock.6783
 .text.chMtxQueueNotEmptyS.6785
                0x000000000800ec30       0x20 /tmp/ccFEEOUj.ltrans11.ltrans.o
                0x000000000800ec30                chMtxQueueNotEmptyS.6785
 .text.chMtxObjectInit
                0x000000000800ec50       0x30 /tmp/ccFEEOUj.ltrans11.ltrans.o
                0x000000000800ec50                chMtxObjectInit
 .text.chMtxLock
                0x000000000800ec80       0x20 /tmp/ccFEEOUj.ltrans11.ltrans.o
                0x000000000800ec80                chMtxLock
 .text.chMtxLockS
                0x000000000800eca0      0x110 /tmp/ccFEEOUj.ltrans11.ltrans.o
                0x000000000800eca0                chMtxLockS
 .text.chMtxTryLock
                0x000000000800edb0       0x30 /tmp/ccFEEOUj.ltrans11.ltrans.o
                0x000000000800edb0                chMtxTryLock
 .text.__core_init
                0x000000000800ede0       0x10 /tmp/ccFEEOUj.ltrans12.ltrans.o
                0x000000000800ede0                __core_init
 .text.__late_init
                0x000000000800edf0       0x10 /tmp/ccFEEOUj.ltrans12.ltrans.o
                0x000000000800edf0                __late_init
 .text.__default_exit
                0x000000000800ee00       0x10 /tmp/ccFEEOUj.ltrans12.ltrans.o
                0x000000000800ee00                __default_exit
 .text.__init_ram_areas
                0x000000000800ee10       0x70 /tmp/ccFEEOUj.ltrans12.ltrans.o
                0x000000000800ee10                __init_ram_areas
 .text._unhandled_exception.4418
                0x000000000800ee80       0x10 /tmp/ccFEEOUj.ltrans12.ltrans.o
 .text.NVIC_SetPriorityGrouping.4201.4415
                0x000000000800ee90       0x50 /tmp/ccFEEOUj.ltrans12.ltrans.o
 .text.NVIC_SetPriority.4207.4409
                0x000000000800eee0       0x50 /tmp/ccFEEOUj.ltrans12.ltrans.o
 .text.port_init.4213.4407
                0x000000000800ef30       0x60 /tmp/ccFEEOUj.ltrans12.ltrans.o
 .text.port_get_irq_status.4215.4405
                0x000000000800ef90       0x20 /tmp/ccFEEOUj.ltrans12.ltrans.o
 .text.port_irq_enabled.4218.4402
                0x000000000800efb0       0x20 /tmp/ccFEEOUj.ltrans12.ltrans.o
 .text.port_is_isr_context.4222.4400
                0x000000000800efd0       0x20 /tmp/ccFEEOUj.ltrans12.ltrans.o
 .text.port_lock.4224.4398
                0x000000000800eff0       0x10 /tmp/ccFEEOUj.ltrans12.ltrans.o
 .text.port_unlock.4226.4396
                0x000000000800f000       0x10 /tmp/ccFEEOUj.ltrans12.ltrans.o
 .text.port_lock_from_isr.4228.4394
                0x000000000800f010       0x10 /tmp/ccFEEOUj.ltrans12.ltrans.o
 .text.port_unlock_from_isr.4230.4392
                0x000000000800f020       0x10 /tmp/ccFEEOUj.ltrans12.ltrans.o
 .text.port_disable.4232.4390
                0x000000000800f030       0x10 /tmp/ccFEEOUj.ltrans12.ltrans.o
 .text.port_enable.4234.4388
                0x000000000800f040       0x20 /tmp/ccFEEOUj.ltrans12.ltrans.o
 .text.port_wait_for_interrupt.4236.4386
                0x000000000800f060       0x10 /tmp/ccFEEOUj.ltrans12.ltrans.o
 .text.port_rt_get_counter_value.4238.4384
                0x000000000800f070       0x10 /tmp/ccFEEOUj.ltrans12.ltrans.o
 .text.st_lld_get_counter.4241.4382
                0x000000000800f080       0x10 /tmp/ccFEEOUj.ltrans12.ltrans.o
 .text.port_timer_stop_alarm.4343.4380
                0x000000000800f090       0x10 /tmp/ccFEEOUj.ltrans12.ltrans.o
 .text.port_timer_set_alarm.4349.4377
                0x000000000800f0a0       0x20 /tmp/ccFEEOUj.ltrans12.ltrans.o
 .text.port_timer_get_time.4244.4375
                0x000000000800f0c0       0x10 /tmp/ccFEEOUj.ltrans12.ltrans.o
 .text.chSysEnable.4341.4373
                0x000000000800f0d0       0x10 /tmp/ccFEEOUj.ltrans12.ltrans.o
 .text.chSysLock.4352.4371
                0x000000000800f0e0       0x10 /tmp/ccFEEOUj.ltrans12.ltrans.o
 .text.chSysUnlock.4361.4369
                0x000000000800f0f0       0x50 /tmp/ccFEEOUj.ltrans12.ltrans.o
 .text.chSysLockFromISR.4347.4367
                0x000000000800f140       0x10 /tmp/ccFEEOUj.ltrans12.ltrans.o
 .text.chSysUnlockFromISR.4345.4365
                0x000000000800f150       0x10 /tmp/ccFEEOUj.ltrans12.ltrans.o
 .text.chVTGetSystemTimeX.4246.4363
                0x000000000800f160       0x10 /tmp/ccFEEOUj.ltrans12.ltrans.o
 .text.chVTDoTickI.4359.4361
                0x000000000800f170      0x120 /tmp/ccFEEOUj.ltrans12.ltrans.o
 .text.chRegSetThreadName.4248.4358
                0x000000000800f290       0x20 /tmp/ccFEEOUj.ltrans12.ltrans.o
 .text.chRegSetThreadNameX.4252.4354
                0x000000000800f2b0       0x10 /tmp/ccFEEOUj.ltrans12.ltrans.o
 .text._idle_thread.4338.4351
                0x000000000800f2c0       0x10 /tmp/ccFEEOUj.ltrans12.ltrans.o
 .text.chSysInit
                0x000000000800f2d0       0xc0 /tmp/ccFEEOUj.ltrans12.ltrans.o
                0x000000000800f2d0                chSysInit
 .text.chSysHalt
                0x000000000800f390       0x20 /tmp/ccFEEOUj.ltrans12.ltrans.o
                0x000000000800f390                chSysHalt
 .text.chSysIntegrityCheckI
                0x000000000800f3b0      0x150 /tmp/ccFEEOUj.ltrans12.ltrans.o
                0x000000000800f3b0                chSysIntegrityCheckI
 .text.chSysTimerHandlerI
                0x000000000800f500       0x10 /tmp/ccFEEOUj.ltrans12.ltrans.o
                0x000000000800f500                chSysTimerHandlerI
 .text.chSysGetStatusAndLockX
                0x000000000800f510       0x40 /tmp/ccFEEOUj.ltrans12.ltrans.o
                0x000000000800f510                chSysGetStatusAndLockX
 .text.chSysRestoreStatusX
                0x000000000800f550       0x30 /tmp/ccFEEOUj.ltrans12.ltrans.o
                0x000000000800f550                chSysRestoreStatusX
 .text.chSysIsCounterWithinX.4330
                0x000000000800f580       0x30 /tmp/ccFEEOUj.ltrans12.ltrans.o
 .text.chSysPolledDelayX
                0x000000000800f5b0       0x30 /tmp/ccFEEOUj.ltrans12.ltrans.o
                0x000000000800f5b0                chSysPolledDelayX
 .text.port_lock.4605.4325
                0x000000000800f5e0       0x10 /tmp/ccFEEOUj.ltrans12.ltrans.o
 .text.port_unlock.4608.4323
                0x000000000800f5f0       0x10 /tmp/ccFEEOUj.ltrans12.ltrans.o
 .text.port_lock_from_isr.4610.4321
                0x000000000800f600       0x10 /tmp/ccFEEOUj.ltrans12.ltrans.o
 .text.port_unlock_from_isr.4612.4319
                0x000000000800f610       0x10 /tmp/ccFEEOUj.ltrans12.ltrans.o
 .text.st_lld_get_counter.4614.4317
                0x000000000800f620       0x10 /tmp/ccFEEOUj.ltrans12.ltrans.o
 .text.port_timer_get_time.4619.4315
                0x000000000800f630       0x10 /tmp/ccFEEOUj.ltrans12.ltrans.o
 .text.chVTGetSystemTimeX.4621.4313
                0x000000000800f640       0x10 /tmp/ccFEEOUj.ltrans12.ltrans.o
 .text._dbg_check_disable
                0x000000000800f650       0x30 /tmp/ccFEEOUj.ltrans12.ltrans.o
                0x000000000800f650                _dbg_check_disable
 .text._dbg_check_suspend
                0x000000000800f680       0x30 /tmp/ccFEEOUj.ltrans12.ltrans.o
                0x000000000800f680                _dbg_check_suspend
 .text._dbg_check_enable
                0x000000000800f6b0       0x30 /tmp/ccFEEOUj.ltrans12.ltrans.o
                0x000000000800f6b0                _dbg_check_enable
 .text._dbg_check_lock
                0x000000000800f6e0       0x40 /tmp/ccFEEOUj.ltrans12.ltrans.o
                0x000000000800f6e0                _dbg_check_lock
 .text._dbg_check_unlock
                0x000000000800f720       0x40 /tmp/ccFEEOUj.ltrans12.ltrans.o
                0x000000000800f720                _dbg_check_unlock
 .text._dbg_check_lock_from_isr
                0x000000000800f760       0x40 /tmp/ccFEEOUj.ltrans12.ltrans.o
                0x000000000800f760                _dbg_check_lock_from_isr
 .text._dbg_check_unlock_from_isr
                0x000000000800f7a0       0x40 /tmp/ccFEEOUj.ltrans12.ltrans.o
                0x000000000800f7a0                _dbg_check_unlock_from_isr
 .text._dbg_check_enter_isr
                0x000000000800f7e0       0x50 /tmp/ccFEEOUj.ltrans12.ltrans.o
                0x000000000800f7e0                _dbg_check_enter_isr
 .text._dbg_check_leave_isr
                0x000000000800f830       0x50 /tmp/ccFEEOUj.ltrans12.ltrans.o
                0x000000000800f830                _dbg_check_leave_isr
 .text.chDbgCheckClassI
                0x000000000800f880       0x30 /tmp/ccFEEOUj.ltrans12.ltrans.o
                0x000000000800f880                chDbgCheckClassI
 .text.chDbgCheckClassS
                0x000000000800f8b0       0x30 /tmp/ccFEEOUj.ltrans12.ltrans.o
                0x000000000800f8b0                chDbgCheckClassS
 .text._dbg_trace_init.4289
                0x000000000800f8e0       0x20 /tmp/ccFEEOUj.ltrans12.ltrans.o
 .text._dbg_trace.4285
                0x000000000800f900       0x90 /tmp/ccFEEOUj.ltrans12.ltrans.o
 .text.st_lld_get_counter.4821.4283
                0x000000000800f990       0x10 /tmp/ccFEEOUj.ltrans12.ltrans.o
 .text.port_timer_start_alarm.4831.4280
                0x000000000800f9a0       0x20 /tmp/ccFEEOUj.ltrans12.ltrans.o
 .text.port_timer_stop_alarm.4837.4278
                0x000000000800f9c0       0x10 /tmp/ccFEEOUj.ltrans12.ltrans.o
 .text.port_timer_set_alarm.4834.4275
                0x000000000800f9d0       0x20 /tmp/ccFEEOUj.ltrans12.ltrans.o
 .text.port_timer_get_time.4827.4273
                0x000000000800f9f0       0x10 /tmp/ccFEEOUj.ltrans12.ltrans.o
 .text.chVTGetSystemTimeX.4829.4271
                0x000000000800fa00       0x10 /tmp/ccFEEOUj.ltrans12.ltrans.o
 .text._vt_init.4269
                0x000000000800fa10       0x40 /tmp/ccFEEOUj.ltrans12.ltrans.o
 .text.chVTDoSetI
                0x000000000800fa50      0x150 /tmp/ccFEEOUj.ltrans12.ltrans.o
                0x000000000800fa50                chVTDoSetI
 .text.chVTDoResetI
                0x000000000800fba0      0x140 /tmp/ccFEEOUj.ltrans12.ltrans.o
                0x000000000800fba0                chVTDoResetI
 .text.port_lock.5026.4257
                0x000000000800fce0       0x10 /tmp/ccFEEOUj.ltrans12.ltrans.o
 .text.port_unlock.5029.4255
                0x000000000800fcf0       0x10 /tmp/ccFEEOUj.ltrans12.ltrans.o
 .text.port_lock_from_isr.5031.4253
                0x000000000800fd00       0x10 /tmp/ccFEEOUj.ltrans12.ltrans.o
 .text.port_unlock_from_isr.5033.4251
                0x000000000800fd10       0x10 /tmp/ccFEEOUj.ltrans12.ltrans.o
 .text.queue_init.5035.4248
                0x000000000800fd20       0x20 /tmp/ccFEEOUj.ltrans12.ltrans.o
 .text.queue_fifo_remove.5124.4245
                0x000000000800fd40       0x30 /tmp/ccFEEOUj.ltrans12.ltrans.o
 .text.queue_dequeue.5127.4242
                0x000000000800fd70       0x20 /tmp/ccFEEOUj.ltrans12.ltrans.o
 .text.chSchIsRescRequiredI.5147.4240
                0x000000000800fd90       0x30 /tmp/ccFEEOUj.ltrans12.ltrans.o
 .text.chSysLockFromISR.5149.4238
                0x000000000800fdc0       0x10 /tmp/ccFEEOUj.ltrans12.ltrans.o
 .text.chSysUnlockFromISR.5151.4236
                0x000000000800fdd0       0x10 /tmp/ccFEEOUj.ltrans12.ltrans.o
 .text.chVTIsArmedI.5134.4225
                0x000000000800fde0       0x20 /tmp/ccFEEOUj.ltrans12.ltrans.o
 .text.chSemFastSignalI.5130.4220
                0x000000000800fe00       0x20 /tmp/ccFEEOUj.ltrans12.ltrans.o
 .text._scheduler_init.4218
                0x000000000800fe20       0x40 /tmp/ccFEEOUj.ltrans12.ltrans.o
 .text.chSchReadyI
                0x000000000800fe60       0x90 /tmp/ccFEEOUj.ltrans12.ltrans.o
                0x000000000800fe60                chSchReadyI
 .text.chSchGoSleepS
                0x000000000800fef0       0xa0 /tmp/ccFEEOUj.ltrans12.ltrans.o
                0x000000000800fef0                chSchGoSleepS
 .text.wakeup.5158.4209
                0x000000000800ff90       0x80 /tmp/ccFEEOUj.ltrans12.ltrans.o
 .text.chSchGoSleepTimeoutS
                0x0000000008010010       0x80 /tmp/ccFEEOUj.ltrans12.ltrans.o
                0x0000000008010010                chSchGoSleepTimeoutS
 .text.chSchWakeupS
                0x0000000008010090       0xd0 /tmp/ccFEEOUj.ltrans12.ltrans.o
                0x0000000008010090                chSchWakeupS
 .text.chSchRescheduleS
                0x0000000008010160       0x20 /tmp/ccFEEOUj.ltrans12.ltrans.o
                0x0000000008010160                chSchRescheduleS
 .text.chSchIsPreemptionRequired
                0x0000000008010180       0x40 /tmp/ccFEEOUj.ltrans12.ltrans.o
                0x0000000008010180                chSchIsPreemptionRequired
 .text.chSchDoRescheduleBehind.4195
                0x00000000080101c0       0x90 /tmp/ccFEEOUj.ltrans12.ltrans.o
 .text.chSchDoRescheduleAhead.4193
                0x0000000008010250       0xd0 /tmp/ccFEEOUj.ltrans12.ltrans.o
 .text.chSchDoReschedule
                0x0000000008010320       0x10 /tmp/ccFEEOUj.ltrans12.ltrans.o
                0x0000000008010320                chSchDoReschedule
 .text.port_lock.5268.4188
                0x0000000008010330       0x10 /tmp/ccFEEOUj.ltrans12.ltrans.o
 .text.port_unlock.5271.4186
                0x0000000008010340       0x10 /tmp/ccFEEOUj.ltrans12.ltrans.o
 .text.st_lld_get_counter.5273.4184
                0x0000000008010350       0x10 /tmp/ccFEEOUj.ltrans12.ltrans.o
 .text.port_timer_get_time.5278.4182
                0x0000000008010360       0x10 /tmp/ccFEEOUj.ltrans12.ltrans.o
 .text.list_init.5280.4179
                0x0000000008010370       0x10 /tmp/ccFEEOUj.ltrans12.ltrans.o
 .text.list_notempty.5367
                0x0000000008010380       0x20 /tmp/ccFEEOUj.ltrans12.ltrans.o
                0x0000000008010380                list_notempty.5367
 .text.queue_init.5371.4173
                0x00000000080103a0       0x20 /tmp/ccFEEOUj.ltrans12.ltrans.o
 .text.queue_notempty.5374
                0x00000000080103c0       0x20 /tmp/ccFEEOUj.ltrans12.ltrans.o
                0x00000000080103c0                queue_notempty.5374
 .text.list_insert.5377
                0x00000000080103e0       0x20 /tmp/ccFEEOUj.ltrans12.ltrans.o
                0x00000000080103e0                list_insert.5377
 .text.list_remove.5381
                0x0000000008010400       0x20 /tmp/ccFEEOUj.ltrans12.ltrans.o
                0x0000000008010400                list_remove.5381
 .text.queue_insert.5384
                0x0000000008010420       0x30 /tmp/ccFEEOUj.ltrans12.ltrans.o
                0x0000000008010420                queue_insert.5384
 .text.queue_fifo_remove.5388.4155
                0x0000000008010450       0x30 /tmp/ccFEEOUj.ltrans12.ltrans.o
 .text.chSchCanYieldS.5414.4153
                0x0000000008010480       0x30 /tmp/ccFEEOUj.ltrans12.ltrans.o
 .text.chSchDoYieldS.5416
                0x00000000080104b0       0x20 /tmp/ccFEEOUj.ltrans12.ltrans.o
                0x00000000080104b0                chSchDoYieldS.5416
 .text.chSysLock.5400
                0x00000000080104d0       0x10 /tmp/ccFEEOUj.ltrans12.ltrans.o
                0x00000000080104d0                chSysLock.5400
 .text.chSysUnlock.5402
                0x00000000080104e0       0x50 /tmp/ccFEEOUj.ltrans12.ltrans.o
                0x00000000080104e0                chSysUnlock.5402
 .text.chVTGetSystemTimeX.5391
                0x0000000008010530       0x10 /tmp/ccFEEOUj.ltrans12.ltrans.o
                0x0000000008010530                chVTGetSystemTimeX.5391
 .text.chThdGetSelfX.5398
                0x0000000008010540       0x10 /tmp/ccFEEOUj.ltrans12.ltrans.o
                0x0000000008010540                chThdGetSelfX.5398
 .text.chThdStartI.5404
                0x0000000008010550       0x30 /tmp/ccFEEOUj.ltrans12.ltrans.o
                0x0000000008010550                chThdStartI.5404
 .text.chThdSleepS.5411
                0x0000000008010580       0x30 /tmp/ccFEEOUj.ltrans12.ltrans.o
                0x0000000008010580                chThdSleepS.5411
 .text.chThdDoDequeueNextI.5407
                0x00000000080105b0       0x60 /tmp/ccFEEOUj.ltrans12.ltrans.o
                0x00000000080105b0                chThdDoDequeueNextI.5407
 .text._thread_init.4122
                0x0000000008010610       0xa0 /tmp/ccFEEOUj.ltrans12.ltrans.o
 .text._thread_memfill
                0x00000000080106b0       0x30 /tmp/ccFEEOUj.ltrans12.ltrans.o
                0x00000000080106b0                _thread_memfill
 .text.chThdCreateI
                0x00000000080106e0       0x80 /tmp/ccFEEOUj.ltrans12.ltrans.o
                0x00000000080106e0                chThdCreateI
 .text.chThdCreateStatic
                0x0000000008010760       0x60 /tmp/ccFEEOUj.ltrans12.ltrans.o
                0x0000000008010760                chThdCreateStatic
 .text.memset   0x00000000080107c0       0x94 /usr/lib/gcc/arm-none-eabi/4.8.2/../../../arm-none-eabi/lib/armv7e-m/libg.a(lib_a-memset.o)
                0x00000000080107c0                memset
 *fill*         0x0000000008010854        0xc 
 .text.strpbrk  0x0000000008010860       0x50 /usr/lib/gcc/arm-none-eabi/4.8.2/../../../arm-none-eabi/lib/armv7e-m/libg.a(lib_a-strpbrk.o)
                0x0000000008010860                strpbrk
 .text.strspn   0x00000000080108b0       0x40 /usr/lib/gcc/arm-none-eabi/4.8.2/../../../arm-none-eabi/lib/armv7e-m/libg.a(lib_a-strspn.o)
                0x00000000080108b0                strspn
 *(.rodata)
 .rodata        0x00000000080108f0      0x120 /tmp/ccFEEOUj.ltrans0.ltrans.o
 .rodata        0x0000000008010a10      0x330 /tmp/ccFEEOUj.ltrans1.ltrans.o
 .rodata        0x0000000008010d40       0x20 /tmp/ccFEEOUj.ltrans2.ltrans.o
 .rodata        0x0000000008010d60        0x8 /tmp/ccFEEOUj.ltrans3.ltrans.o
 *fill*         0x0000000008010d68        0x8 
 .rodata        0x0000000008010d70       0x20 /tmp/ccFEEOUj.ltrans4.ltrans.o
 .rodata        0x0000000008010d90      0x200 /tmp/ccFEEOUj.ltrans5.ltrans.o
 .rodata        0x0000000008010f90       0x14 /tmp/ccFEEOUj.ltrans6.ltrans.o
 *fill*         0x0000000008010fa4        0xc 
 .rodata        0x0000000008010fb0      0x5f4 /tmp/ccFEEOUj.ltrans12.ltrans.o
 *(.rodata.*)
 *fill*         0x00000000080115a4        0xc 
 .rodata.ram_areas.4021.5166
                0x00000000080115b0       0x80 /tmp/ccFEEOUj.ltrans12.ltrans.o
 .rodata.__func__.6004.4488.5164
                0x0000000008011630        0xc /tmp/ccFEEOUj.ltrans12.ltrans.o
 *fill*         0x000000000801163c        0x4 
 .rodata.__func__.5915.4489.5165
                0x0000000008011640        0xc /tmp/ccFEEOUj.ltrans12.ltrans.o
 *fill*         0x000000000801164c        0x4 
 .rodata.__func__.6621.4997.5122
                0x0000000008011650        0xc /tmp/ccFEEOUj.ltrans12.ltrans.o
 *fill*         0x000000000801165c        0x4 
 .rodata.__func__.6629.4998.5121
                0x0000000008011660       0x10 /tmp/ccFEEOUj.ltrans12.ltrans.o
 .rodata.__func__.6618.5244.5120
                0x0000000008011670        0xc /tmp/ccFEEOUj.ltrans12.ltrans.o
 *fill*         0x000000000801167c        0x4 
 .rodata.__func__.6646.5245.5119
                0x0000000008011680       0x10 /tmp/ccFEEOUj.ltrans12.ltrans.o
 .rodata.__func__.6630.5582.5064
                0x0000000008011690       0x10 /tmp/ccFEEOUj.ltrans12.ltrans.o
 .rodata.__func__.5915.5578.5118
                0x00000000080116a0        0xc /tmp/ccFEEOUj.ltrans12.ltrans.o
 *fill*         0x00000000080116ac        0x4 
 .rodata.__func__.6085.5579.5117
                0x00000000080116b0        0xc /tmp/ccFEEOUj.ltrans12.ltrans.o
 *fill*         0x00000000080116bc        0x4 
 .rodata.__func__.6646.5583
                0x00000000080116c0       0x14 /tmp/ccFEEOUj.ltrans12.ltrans.o
                0x00000000080116c0                __func__.6646.5583
 *fill*         0x00000000080116d4        0xc 
 .rodata.__func__.6089.5581.5116
                0x00000000080116e0        0xc /tmp/ccFEEOUj.ltrans12.ltrans.o
 *fill*         0x00000000080116ec        0x4 
 .rodata.__func__.6674.5584
                0x00000000080116f0        0xc /tmp/ccFEEOUj.ltrans12.ltrans.o
                0x00000000080116f0                __func__.6674.5584
 *fill*         0x00000000080116fc        0x4 
 .rodata.__func__.6679.5585
                0x0000000008011700        0xc /tmp/ccFEEOUj.ltrans12.ltrans.o
                0x0000000008011700                __func__.6679.5585
 *fill*         0x000000000801170c        0x4 
 .rodata.__func__.6684.5586
                0x0000000008011710       0x10 /tmp/ccFEEOUj.ltrans12.ltrans.o
                0x0000000008011710                __func__.6684.5586
 .rodata.__func__.6696.5588
                0x0000000008011720       0x10 /tmp/ccFEEOUj.ltrans12.ltrans.o
                0x0000000008011720                __func__.6696.5588
 .rodata.__func__.6101.5580.5115
                0x0000000008011730       0x14 /tmp/ccFEEOUj.ltrans12.ltrans.o
 *fill*         0x0000000008011744        0xc 
 .rodata.__func__.6613.6217
                0x0000000008011750        0xc /tmp/ccFEEOUj.ltrans12.ltrans.o
                0x0000000008011750                __func__.6613.6217
 *fill*         0x000000000801175c        0x4 
 .rodata.__func__.5915.6216
                0x0000000008011760        0xc /tmp/ccFEEOUj.ltrans12.ltrans.o
                0x0000000008011760                __func__.5915.6216
 *fill*         0x000000000801176c        0x4 
 .rodata.__func__.6618.6218
                0x0000000008011770       0x10 /tmp/ccFEEOUj.ltrans12.ltrans.o
                0x0000000008011770                __func__.6618.6218
 .rodata.__func__.6640.6219
                0x0000000008011780       0x1c /tmp/ccFEEOUj.ltrans12.ltrans.o
                0x0000000008011780                __func__.6640.6219
 *fill*         0x000000000801179c        0x4 
 .rodata.ch_debug.5124
                0x00000000080117a0       0x18 /tmp/ccFEEOUj.ltrans12.ltrans.o
 *fill*         0x00000000080117b8        0x8 
 .rodata.__func__.5915.6395
                0x00000000080117c0        0xc /tmp/ccFEEOUj.ltrans12.ltrans.o
                0x00000000080117c0                __func__.5915.6395
 *fill*         0x00000000080117cc        0x4 
 .rodata.__func__.6619.6396
                0x00000000080117d0       0x10 /tmp/ccFEEOUj.ltrans12.ltrans.o
                0x00000000080117d0                __func__.6619.6396
 .rodata.__func__.6614.6653
                0x00000000080117e0       0x10 /tmp/ccFEEOUj.ltrans12.ltrans.o
                0x00000000080117e0                __func__.6614.6653
 .rodata.__func__.5915.6652
                0x00000000080117f0        0xc /tmp/ccFEEOUj.ltrans12.ltrans.o
                0x00000000080117f0                __func__.5915.6652
 *fill*         0x00000000080117fc        0x4 
 .rodata.__func__.6624.6654
                0x0000000008011800        0xc /tmp/ccFEEOUj.ltrans12.ltrans.o
                0x0000000008011800                __func__.6624.6654
 *fill*         0x000000000801180c        0x4 
 .rodata.__func__.6635.6655
                0x0000000008011810        0xc /tmp/ccFEEOUj.ltrans12.ltrans.o
                0x0000000008011810                __func__.6635.6655
 *fill*         0x000000000801181c        0x4 
 .rodata.__func__.6645.6656
                0x0000000008011820       0x14 /tmp/ccFEEOUj.ltrans12.ltrans.o
                0x0000000008011820                __func__.6645.6656
 *fill*         0x0000000008011834        0xc 
 .rodata.__func__.6649.6657
                0x0000000008011840        0xc /tmp/ccFEEOUj.ltrans12.ltrans.o
                0x0000000008011840                __func__.6649.6657
 *fill*         0x000000000801184c        0x4 
 .rodata.__func__.6653.6658
                0x0000000008011850       0x10 /tmp/ccFEEOUj.ltrans12.ltrans.o
                0x0000000008011850                __func__.6653.6658
 .rodata.__func__.6659.6659
                0x0000000008011860       0x14 /tmp/ccFEEOUj.ltrans12.ltrans.o
                0x0000000008011860                __func__.6659.6659
 *fill*         0x0000000008011874        0xc 
 .rodata.__func__.6668.6660
                0x0000000008011880       0x10 /tmp/ccFEEOUj.ltrans12.ltrans.o
                0x0000000008011880                __func__.6668.6660
 .rodata.__func__.6613.6880
                0x0000000008011890       0x10 /tmp/ccFEEOUj.ltrans12.ltrans.o
                0x0000000008011890                __func__.6613.6880
 .rodata.__func__.5915.6879
                0x00000000080118a0        0xc /tmp/ccFEEOUj.ltrans12.ltrans.o
                0x00000000080118a0                __func__.5915.6879
 *fill*         0x00000000080118ac        0x4 
 .rodata.__func__.6621.6881
                0x00000000080118b0        0xc /tmp/ccFEEOUj.ltrans12.ltrans.o
                0x00000000080118b0                __func__.6621.6881
 *fill*         0x00000000080118bc        0x4 
 .rodata.__func__.6638.6882
                0x00000000080118c0       0x10 /tmp/ccFEEOUj.ltrans12.ltrans.o
                0x00000000080118c0                __func__.6638.6882
 .rodata.__func__.6644.6883
                0x00000000080118d0        0xc /tmp/ccFEEOUj.ltrans12.ltrans.o
                0x00000000080118d0                __func__.6644.6883
 *fill*         0x00000000080118dc        0x4 
 .rodata.__func__.6655.6884
                0x00000000080118e0       0x10 /tmp/ccFEEOUj.ltrans12.ltrans.o
                0x00000000080118e0                __func__.6655.6884
 .rodata.__func__.6613.7117
                0x00000000080118f0       0x14 /tmp/ccFEEOUj.ltrans12.ltrans.o
                0x00000000080118f0                __func__.6613.7117
 *fill*         0x0000000008011904        0xc 
 .rodata.__func__.6617.7118
                0x0000000008011910       0x10 /tmp/ccFEEOUj.ltrans12.ltrans.o
                0x0000000008011910                __func__.6617.7118
 .rodata.__func__.5915.7116
                0x0000000008011920        0xc /tmp/ccFEEOUj.ltrans12.ltrans.o
                0x0000000008011920                __func__.5915.7116
 *fill*         0x000000000801192c        0x4 
 .rodata.__func__.6621.7119
                0x0000000008011930       0x10 /tmp/ccFEEOUj.ltrans12.ltrans.o
                0x0000000008011930                __func__.6621.7119
 .rodata.__func__.6629.7120
                0x0000000008011940       0x14 /tmp/ccFEEOUj.ltrans12.ltrans.o
                0x0000000008011940                __func__.6629.7120
 *fill*         0x0000000008011954        0xc 
 .rodata.__func__.6643.7121
                0x0000000008011960        0xc /tmp/ccFEEOUj.ltrans12.ltrans.o
                0x0000000008011960                __func__.6643.7121
 *fill*         0x000000000801196c        0x4 
 .rodata.__func__.6655.7122
                0x0000000008011970       0x14 /tmp/ccFEEOUj.ltrans12.ltrans.o
                0x0000000008011970                __func__.6655.7122
 *fill*         0x0000000008011984        0xc 
 .rodata.__func__.6616.7375
                0x0000000008011990       0x1c /tmp/ccFEEOUj.ltrans12.ltrans.o
                0x0000000008011990                __func__.6616.7375
 *fill*         0x00000000080119ac        0x4 
 .rodata.__func__.5915.7374
                0x00000000080119b0        0xc /tmp/ccFEEOUj.ltrans12.ltrans.o
                0x00000000080119b0                __func__.5915.7374
 *fill*         0x00000000080119bc        0x4 
 .rodata.__func__.6622.7376
                0x00000000080119c0       0x10 /tmp/ccFEEOUj.ltrans12.ltrans.o
                0x00000000080119c0                __func__.6622.7376
 .rodata.__func__.6638.7378
                0x00000000080119d0       0x18 /tmp/ccFEEOUj.ltrans12.ltrans.o
                0x00000000080119d0                __func__.6638.7378
 *fill*         0x00000000080119e8        0x8 
 .rodata.__func__.6650.7379
                0x00000000080119f0        0xc /tmp/ccFEEOUj.ltrans12.ltrans.o
                0x00000000080119f0                __func__.6650.7379
 *fill*         0x00000000080119fc        0x4 
 .rodata.__func__.6655.7377
                0x0000000008011a00       0x10 /tmp/ccFEEOUj.ltrans12.ltrans.o
                0x0000000008011a00                __func__.6655.7377
 .rodata.__func__.6669.7380
                0x0000000008011a10       0x10 /tmp/ccFEEOUj.ltrans12.ltrans.o
                0x0000000008011a10                __func__.6669.7380
 .rodata.__func__.6615.7584
                0x0000000008011a20        0xc /tmp/ccFEEOUj.ltrans12.ltrans.o
                0x0000000008011a20                __func__.6615.7584
 *fill*         0x0000000008011a2c        0x4 
 .rodata.__func__.5915.7583
                0x0000000008011a30        0xc /tmp/ccFEEOUj.ltrans12.ltrans.o
                0x0000000008011a30                __func__.5915.7583
 *fill*         0x0000000008011a3c        0x4 
 .rodata.__func__.6624.7585
                0x0000000008011a40       0x10 /tmp/ccFEEOUj.ltrans12.ltrans.o
                0x0000000008011a40                __func__.6624.7585
 .rodata.__func__.6615.7828
                0x0000000008011a50       0x10 /tmp/ccFEEOUj.ltrans12.ltrans.o
                0x0000000008011a50                __func__.6615.7828
 .rodata.__func__.5915.7827
                0x0000000008011a60        0xc /tmp/ccFEEOUj.ltrans12.ltrans.o
                0x0000000008011a60                __func__.5915.7827
 *fill*         0x0000000008011a6c        0x4 
 .rodata.__func__.6622.7829
                0x0000000008011a70        0xc /tmp/ccFEEOUj.ltrans12.ltrans.o
                0x0000000008011a70                __func__.6622.7829
 *fill*         0x0000000008011a7c        0x4 
 .rodata.__func__.6635.7830
                0x0000000008011a80        0xc /tmp/ccFEEOUj.ltrans12.ltrans.o
                0x0000000008011a80                __func__.6635.7830
 *fill*         0x0000000008011a8c        0x4 
 .rodata.__func__.6640.7831
                0x0000000008011a90        0xc /tmp/ccFEEOUj.ltrans12.ltrans.o
                0x0000000008011a90                __func__.6640.7831
 *fill*         0x0000000008011a9c        0x4 
 .rodata.__func__.6653.7832
                0x0000000008011aa0       0x10 /tmp/ccFEEOUj.ltrans12.ltrans.o
                0x0000000008011aa0                __func__.6653.7832
 .rodata.__func__.6658.7833
                0x0000000008011ab0       0x10 /tmp/ccFEEOUj.ltrans12.ltrans.o
                0x0000000008011ab0                __func__.6658.7833
 .rodata.__func__.6671.7834
                0x0000000008011ac0        0xc /tmp/ccFEEOUj.ltrans12.ltrans.o
                0x0000000008011ac0                __func__.6671.7834
 *fill*         0x0000000008011acc        0x4 
 .rodata.__func__.6676.7835
                0x0000000008011ad0        0xc /tmp/ccFEEOUj.ltrans12.ltrans.o
                0x0000000008011ad0                __func__.6676.7835
 *fill*         0x0000000008011adc        0x4 
 .rodata.__func__.5915.8093
                0x0000000008011ae0        0xc /tmp/ccFEEOUj.ltrans12.ltrans.o
                0x0000000008011ae0                __func__.5915.8093
 *fill*         0x0000000008011aec        0x4 
 .rodata.__func__.6641.8094
                0x0000000008011af0       0x10 /tmp/ccFEEOUj.ltrans12.ltrans.o
                0x0000000008011af0                __func__.6641.8094
 .rodata.__func__.6677.8095
                0x0000000008011b00       0x14 /tmp/ccFEEOUj.ltrans12.ltrans.o
                0x0000000008011b00                __func__.6677.8095
 *fill*         0x0000000008011b14        0xc 
 .rodata.__func__.5915.8280
                0x0000000008011b20        0xc /tmp/ccFEEOUj.ltrans12.ltrans.o
                0x0000000008011b20                __func__.5915.8280
 *fill*         0x0000000008011b2c        0x4 
 .rodata.__func__.6620.8418
                0x0000000008011b30       0x14 /tmp/ccFEEOUj.ltrans12.ltrans.o
                0x0000000008011b30                __func__.6620.8418
 *fill*         0x0000000008011b44        0xc 
 .rodata.__func__.6637.8419
                0x0000000008011b50        0xc /tmp/ccFEEOUj.ltrans12.ltrans.o
                0x0000000008011b50                __func__.6637.8419
 *fill*         0x0000000008011b5c        0x4 
 .rodata.__func__.6615.8621
                0x0000000008011b60       0x14 /tmp/ccFEEOUj.ltrans12.ltrans.o
                0x0000000008011b60                __func__.6615.8621
 *fill*         0x0000000008011b74        0xc 
 .rodata.__func__.6621.8624
                0x0000000008011b80       0x10 /tmp/ccFEEOUj.ltrans12.ltrans.o
                0x0000000008011b80                __func__.6621.8624
 .rodata.__func__.6629.8622
                0x0000000008011b90       0x10 /tmp/ccFEEOUj.ltrans12.ltrans.o
                0x0000000008011b90                __func__.6629.8622
 .rodata.__func__.5915.8620
                0x0000000008011ba0        0xc /tmp/ccFEEOUj.ltrans12.ltrans.o
                0x0000000008011ba0                __func__.5915.8620
 *fill*         0x0000000008011bac        0x4 
 .rodata.__func__.6639.8623
                0x0000000008011bb0        0xc /tmp/ccFEEOUj.ltrans12.ltrans.o
                0x0000000008011bb0                __func__.6639.8623
 *fill*         0x0000000008011bbc        0x4 
 .rodata.__func__.7427.8762
                0x0000000008011bc0       0x10 /tmp/ccFEEOUj.ltrans12.ltrans.o
                0x0000000008011bc0                __func__.7427.8762
 .rodata.__func__.7434.8763
                0x0000000008011bd0        0xc /tmp/ccFEEOUj.ltrans12.ltrans.o
                0x0000000008011bd0                __func__.7434.8763
 *fill*         0x0000000008011bdc        0x4 
 .rodata.__func__.7761.9101
                0x0000000008011be0       0x10 /tmp/ccFEEOUj.ltrans12.ltrans.o
                0x0000000008011be0                __func__.7761.9101
 .rodata.__func__.7772.9102
                0x0000000008011bf0       0x14 /tmp/ccFEEOUj.ltrans12.ltrans.o
                0x0000000008011bf0                __func__.7772.9102
 *fill*         0x0000000008011c04        0xc 
 .rodata.__func__.6247.9100
                0x0000000008011c10        0xc /tmp/ccFEEOUj.ltrans12.ltrans.o
                0x0000000008011c10                __func__.6247.9100
 *fill*         0x0000000008011c1c        0x4 
 .rodata.__func__.7786.9103
                0x0000000008011c20       0x1c /tmp/ccFEEOUj.ltrans12.ltrans.o
                0x0000000008011c20                __func__.7786.9103
 *fill*         0x0000000008011c3c        0x4 
 .rodata.__func__.7793.9104
                0x0000000008011c40       0x18 /tmp/ccFEEOUj.ltrans12.ltrans.o
                0x0000000008011c40                __func__.7793.9104
 *fill*         0x0000000008011c58        0x8 
 .rodata.__func__.7819.9105
                0x0000000008011c60       0x10 /tmp/ccFEEOUj.ltrans12.ltrans.o
                0x0000000008011c60                __func__.7819.9105
 .rodata.__func__.7830.9106
                0x0000000008011c70       0x18 /tmp/ccFEEOUj.ltrans12.ltrans.o
                0x0000000008011c70                __func__.7830.9106
 *fill*         0x0000000008011c88        0x8 
 .rodata.__func__.7844.9107
                0x0000000008011c90       0x1c /tmp/ccFEEOUj.ltrans12.ltrans.o
                0x0000000008011c90                __func__.7844.9107
 *fill*         0x0000000008011cac        0x4 
 .rodata.__func__.7853.9108
                0x0000000008011cb0       0x14 /tmp/ccFEEOUj.ltrans12.ltrans.o
                0x0000000008011cb0                __func__.7853.9108
 *fill*         0x0000000008011cc4        0xc 
 .rodata.vmt.9713
                0x0000000008011cd0       0x20 /tmp/ccFEEOUj.ltrans12.ltrans.o
                0x0000000008011cd0                vmt.9713
 .rodata.__func__.7483.9714
                0x0000000008011cf0        0xc /tmp/ccFEEOUj.ltrans12.ltrans.o
                0x0000000008011cf0                __func__.7483.9714
 *fill*         0x0000000008011cfc        0x4 
 .rodata.__func__.5915.9712
                0x0000000008011d00        0xc /tmp/ccFEEOUj.ltrans12.ltrans.o
                0x0000000008011d00                __func__.5915.9712
 *fill*         0x0000000008011d0c        0x4 
 .rodata.__func__.7496.9716
                0x0000000008011d10       0x14 /tmp/ccFEEOUj.ltrans12.ltrans.o
                0x0000000008011d10                __func__.7496.9716
 *fill*         0x0000000008011d24        0xc 
 .rodata.__func__.7509.9724
                0x0000000008011d30        0xc /tmp/ccFEEOUj.ltrans12.ltrans.o
                0x0000000008011d30                __func__.7509.9724
 *fill*         0x0000000008011d3c        0x4 
 .rodata.zero_status.10187
                0x0000000008011d40        0x4 /tmp/ccFEEOUj.ltrans12.ltrans.o
                0x0000000008011d40                zero_status.10187
 *fill*         0x0000000008011d44        0xc 
 .rodata.active_status.10189
                0x0000000008011d50        0x4 /tmp/ccFEEOUj.ltrans12.ltrans.o
                0x0000000008011d50                active_status.10189
 *fill*         0x0000000008011d54        0xc 
 .rodata.halted_status.10188
                0x0000000008011d60        0x4 /tmp/ccFEEOUj.ltrans12.ltrans.o
                0x0000000008011d60                halted_status.10188
 *fill*         0x0000000008011d64        0xc 
 .rodata.__func__.7808.10190
                0x0000000008011d70        0xc /tmp/ccFEEOUj.ltrans12.ltrans.o
                0x0000000008011d70                __func__.7808.10190
 *fill*         0x0000000008011d7c        0x4 
 .rodata.__func__.6247.10186
                0x0000000008011d80        0xc /tmp/ccFEEOUj.ltrans12.ltrans.o
                0x0000000008011d80                __func__.6247.10186
 *fill*         0x0000000008011d8c        0x4 
 .rodata.__func__.7825.10192
                0x0000000008011d90       0x14 /tmp/ccFEEOUj.ltrans12.ltrans.o
                0x0000000008011d90                __func__.7825.10192
 *fill*         0x0000000008011da4        0xc 
 .rodata.__func__.7841.10194
                0x0000000008011db0       0x14 /tmp/ccFEEOUj.ltrans12.ltrans.o
                0x0000000008011db0                __func__.7841.10194
 *fill*         0x0000000008011dc4        0xc 
 .rodata.__func__.7849.10195
                0x0000000008011dd0       0x14 /tmp/ccFEEOUj.ltrans12.ltrans.o
                0x0000000008011dd0                __func__.7849.10195
 *fill*         0x0000000008011de4        0xc 
 .rodata.__func__.7889.10198
                0x0000000008011df0        0xc /tmp/ccFEEOUj.ltrans12.ltrans.o
                0x0000000008011df0                __func__.7889.10198
 *fill*         0x0000000008011dfc        0x4 
 .rodata.__func__.7903.10199
                0x0000000008011e00        0xc /tmp/ccFEEOUj.ltrans12.ltrans.o
                0x0000000008011e00                __func__.7903.10199
 *fill*         0x0000000008011e0c        0x4 
 .rodata.ep0config.11060
                0x0000000008011e10       0x24 /tmp/ccFEEOUj.ltrans12.ltrans.o
                0x0000000008011e10                ep0config.11060
 *fill*         0x0000000008011e34        0xc 
 .rodata.fsparams.11057
                0x0000000008011e40        0xc /tmp/ccFEEOUj.ltrans12.ltrans.o
                0x0000000008011e40                fsparams.11057
 *fill*         0x0000000008011e4c        0x4 
 .rodata.hsparams.11059
                0x0000000008011e50        0xc /tmp/ccFEEOUj.ltrans12.ltrans.o
                0x0000000008011e50                hsparams.11059
 *fill*         0x0000000008011e5c        0x4 
 .rodata.__func__.7804.11054
                0x0000000008011e60       0x10 /tmp/ccFEEOUj.ltrans12.ltrans.o
                0x0000000008011e60                __func__.7804.11054
 .rodata.__func__.7810.11055
                0x0000000008011e70       0x1c /tmp/ccFEEOUj.ltrans12.ltrans.o
                0x0000000008011e70                __func__.7810.11055
 *fill*         0x0000000008011e8c        0x4 
 .rodata.__func__.6417.11052
                0x0000000008011e90        0xc /tmp/ccFEEOUj.ltrans12.ltrans.o
                0x0000000008011e90                __func__.6417.11052
 *fill*         0x0000000008011e9c        0x4 
 .rodata.__func__.6247.11053
                0x0000000008011ea0        0xc /tmp/ccFEEOUj.ltrans12.ltrans.o
                0x0000000008011ea0                __func__.6247.11053
 *fill*         0x0000000008011eac        0x4 
 .rodata.pal_default_config
                0x0000000008011eb0       0xfc /tmp/ccFEEOUj.ltrans12.ltrans.o
                0x0000000008011eb0                pal_default_config
 *fill*         0x0000000008011fac        0x4 
 .rodata.wa     0x0000000008011fb0       0x14 /tmp/ccFEEOUj.ltrans12.ltrans.o
                0x0000000008011fb0                wa
 *fill*         0x0000000008011fc4        0xc 
 .rodata.__func__.5915.11406
                0x0000000008011fd0        0xc /tmp/ccFEEOUj.ltrans12.ltrans.o
                0x0000000008011fd0                __func__.5915.11406
 *fill*         0x0000000008011fdc        0x4 
 .rodata.testthd1.5500
                0x0000000008011fe0       0x10 /tmp/ccFEEOUj.ltrans12.ltrans.o
 .rodata.testthd2.5505
                0x0000000008011ff0       0x10 /tmp/ccFEEOUj.ltrans12.ltrans.o
 .rodata.testthd3.5506
                0x0000000008012000       0x10 /tmp/ccFEEOUj.ltrans12.ltrans.o
 .rodata.testthd4.5507
                0x0000000008012010       0x10 /tmp/ccFEEOUj.ltrans12.ltrans.o
 .rodata.patternthd.5499
                0x0000000008012020       0x14 /tmp/ccFEEOUj.ltrans12.ltrans.o
 *fill*         0x0000000008012034        0xc 
 .rodata.__func__.5915.11684
                0x0000000008012040        0xc /tmp/ccFEEOUj.ltrans12.ltrans.o
                0x0000000008012040                __func__.5915.11684
 *fill*         0x000000000801204c        0x4 
 .rodata.testsem1.5487
                0x0000000008012050       0x10 /tmp/ccFEEOUj.ltrans12.ltrans.o
 .rodata.testsem2.5492
                0x0000000008012060       0x10 /tmp/ccFEEOUj.ltrans12.ltrans.o
 .rodata.testsem3.5493
                0x0000000008012070       0x10 /tmp/ccFEEOUj.ltrans12.ltrans.o
 .rodata.testsem4.5494
                0x0000000008012080       0x10 /tmp/ccFEEOUj.ltrans12.ltrans.o
 .rodata.patternsem.5486
                0x0000000008012090       0x14 /tmp/ccFEEOUj.ltrans12.ltrans.o
 *fill*         0x00000000080120a4        0xc 
 .rodata.__func__.5915.11979
                0x00000000080120b0        0xc /tmp/ccFEEOUj.ltrans12.ltrans.o
                0x00000000080120b0                __func__.5915.11979
 *fill*         0x00000000080120bc        0x4 
 .rodata.testmtx1.5466
                0x00000000080120c0       0x10 /tmp/ccFEEOUj.ltrans12.ltrans.o
 .rodata.testmtx4.5471
                0x00000000080120d0       0x10 /tmp/ccFEEOUj.ltrans12.ltrans.o
 .rodata.testmtx5.5472
                0x00000000080120e0       0x10 /tmp/ccFEEOUj.ltrans12.ltrans.o
 .rodata.testmtx6.5473
                0x00000000080120f0       0x10 /tmp/ccFEEOUj.ltrans12.ltrans.o
 .rodata.testmtx7.5474
                0x0000000008012100       0x10 /tmp/ccFEEOUj.ltrans12.ltrans.o
 .rodata.testmtx8.5475
                0x0000000008012110       0x10 /tmp/ccFEEOUj.ltrans12.ltrans.o
 .rodata.patternmtx.5465
                0x0000000008012120       0x1c /tmp/ccFEEOUj.ltrans12.ltrans.o
 *fill*         0x000000000801213c        0x4 
 .rodata.__func__.5915.12268
                0x0000000008012140        0xc /tmp/ccFEEOUj.ltrans12.ltrans.o
                0x0000000008012140                __func__.5915.12268
 *fill*         0x000000000801214c        0x4 
 .rodata.testmsg1.5457
                0x0000000008012150       0x10 /tmp/ccFEEOUj.ltrans12.ltrans.o
 .rodata.patternmsg.5456
                0x0000000008012160        0x8 /tmp/ccFEEOUj.ltrans12.ltrans.o
 *fill*         0x0000000008012168        0x8 
 .rodata.testmbox1.5439
                0x0000000008012170       0x10 /tmp/ccFEEOUj.ltrans12.ltrans.o
 .rodata.patternmbox.5438
                0x0000000008012180        0x8 /tmp/ccFEEOUj.ltrans12.ltrans.o
 *fill*         0x0000000008012188        0x8 
 .rodata.__func__.5915.12679
                0x0000000008012190        0xc /tmp/ccFEEOUj.ltrans12.ltrans.o
                0x0000000008012190                __func__.5915.12679
 *fill*         0x000000000801219c        0x4 
 .rodata.evhndl.12944
                0x00000000080121a0        0xc /tmp/ccFEEOUj.ltrans12.ltrans.o
                0x00000000080121a0                evhndl.12944
 *fill*         0x00000000080121ac        0x4 
 .rodata.testevt1.5424
                0x00000000080121b0       0x10 /tmp/ccFEEOUj.ltrans12.ltrans.o
 .rodata.testevt2.5429
                0x00000000080121c0       0x10 /tmp/ccFEEOUj.ltrans12.ltrans.o
 .rodata.testevt3.5430
                0x00000000080121d0       0x10 /tmp/ccFEEOUj.ltrans12.ltrans.o
 .rodata.patternevt.5423
                0x00000000080121e0       0x10 /tmp/ccFEEOUj.ltrans12.ltrans.o
 .rodata.__func__.5915.12946
                0x00000000080121f0        0xc /tmp/ccFEEOUj.ltrans12.ltrans.o
                0x00000000080121f0                __func__.5915.12946
 *fill*         0x00000000080121fc        0x4 
 .rodata.testheap1.5414
                0x0000000008012200       0x10 /tmp/ccFEEOUj.ltrans12.ltrans.o
 .rodata.patternheap.5413
                0x0000000008012210        0x8 /tmp/ccFEEOUj.ltrans12.ltrans.o
 *fill*         0x0000000008012218        0x8 
 .rodata.testpools1.5407
                0x0000000008012220       0x10 /tmp/ccFEEOUj.ltrans12.ltrans.o
 .rodata.patternpools.5406
                0x0000000008012230        0x8 /tmp/ccFEEOUj.ltrans12.ltrans.o
 *fill*         0x0000000008012238        0x8 
 .rodata.testdyn1.5374
                0x0000000008012240       0x10 /tmp/ccFEEOUj.ltrans12.ltrans.o
 .rodata.testdyn2.5379
                0x0000000008012250       0x10 /tmp/ccFEEOUj.ltrans12.ltrans.o
 .rodata.testdyn3.5380
                0x0000000008012260       0x10 /tmp/ccFEEOUj.ltrans12.ltrans.o
 .rodata.patterndyn.5373
                0x0000000008012270       0x10 /tmp/ccFEEOUj.ltrans12.ltrans.o
 .rodata.testqueues1.5352
                0x0000000008012280       0x10 /tmp/ccFEEOUj.ltrans12.ltrans.o
 .rodata.testqueues2.5357
                0x0000000008012290       0x10 /tmp/ccFEEOUj.ltrans12.ltrans.o
 .rodata.patternqueues.5351
                0x00000000080122a0        0xc /tmp/ccFEEOUj.ltrans12.ltrans.o
 *fill*         0x00000000080122ac        0x4 
 .rodata.__func__.5915.13650
                0x00000000080122b0        0xc /tmp/ccFEEOUj.ltrans12.ltrans.o
                0x00000000080122b0                __func__.5915.13650
 *fill*         0x00000000080122bc        0x4 
 .rodata.testsys1.5341
                0x00000000080122c0       0x10 /tmp/ccFEEOUj.ltrans12.ltrans.o
 .rodata.testsys2.5346
                0x00000000080122d0       0x10 /tmp/ccFEEOUj.ltrans12.ltrans.o
 .rodata.testsys3.5347
                0x00000000080122e0       0x10 /tmp/ccFEEOUj.ltrans12.ltrans.o
 .rodata.patternsys.5340
                0x00000000080122f0       0x10 /tmp/ccFEEOUj.ltrans12.ltrans.o
 .rodata.__func__.5915.13914
                0x0000000008012300        0xc /tmp/ccFEEOUj.ltrans12.ltrans.o
                0x0000000008012300                __func__.5915.13914
 *fill*         0x000000000801230c        0x4 
 .rodata.testbmk1.5318
                0x0000000008012310       0x10 /tmp/ccFEEOUj.ltrans12.ltrans.o
 .rodata.testbmk2.5323
                0x0000000008012320       0x10 /tmp/ccFEEOUj.ltrans12.ltrans.o
 .rodata.testbmk3.5324
                0x0000000008012330       0x10 /tmp/ccFEEOUj.ltrans12.ltrans.o
 .rodata.testbmk4.5325
                0x0000000008012340       0x10 /tmp/ccFEEOUj.ltrans12.ltrans.o
 .rodata.testbmk5.5326
                0x0000000008012350       0x10 /tmp/ccFEEOUj.ltrans12.ltrans.o
 .rodata.testbmk6.5327
                0x0000000008012360       0x10 /tmp/ccFEEOUj.ltrans12.ltrans.o
 .rodata.testbmk7.5328
                0x0000000008012370       0x10 /tmp/ccFEEOUj.ltrans12.ltrans.o
 .rodata.testbmk8.5329
                0x0000000008012380       0x10 /tmp/ccFEEOUj.ltrans12.ltrans.o
 .rodata.testbmk9.5330
                0x0000000008012390       0x10 /tmp/ccFEEOUj.ltrans12.ltrans.o
 .rodata.testbmk10.5331
                0x00000000080123a0       0x10 /tmp/ccFEEOUj.ltrans12.ltrans.o
 .rodata.testbmk11.5332
                0x00000000080123b0       0x10 /tmp/ccFEEOUj.ltrans12.ltrans.o
 .rodata.testbmk12.5333
                0x00000000080123c0       0x10 /tmp/ccFEEOUj.ltrans12.ltrans.o
 .rodata.testbmk13.5334
                0x00000000080123d0       0x10 /tmp/ccFEEOUj.ltrans12.ltrans.o
 .rodata.patternbmk.5312
                0x00000000080123e0       0x38 /tmp/ccFEEOUj.ltrans12.ltrans.o
 *fill*         0x0000000008012418        0x8 
 .rodata.__func__.5915.14211
                0x0000000008012420        0xc /tmp/ccFEEOUj.ltrans12.ltrans.o
                0x0000000008012420                __func__.5915.14211
 *fill*         0x000000000801242c        0x4 
 .rodata.__func__.6247.14531
                0x0000000008012430        0xc /tmp/ccFEEOUj.ltrans12.ltrans.o
                0x0000000008012430                __func__.6247.14531
 *fill*         0x000000000801243c        0x4 
 .rodata.vcom_device_descriptor_data.15042
                0x0000000008012440       0x14 /tmp/ccFEEOUj.ltrans12.ltrans.o
                0x0000000008012440                vcom_device_descriptor_data.15042
 *fill*         0x0000000008012454        0xc 
 .rodata.vcom_device_descriptor.15041
                0x0000000008012460        0x8 /tmp/ccFEEOUj.ltrans12.ltrans.o
                0x0000000008012460                vcom_device_descriptor.15041
 *fill*         0x0000000008012468        0x8 
 .rodata.vcom_configuration_descriptor_data.15044
                0x0000000008012470       0x44 /tmp/ccFEEOUj.ltrans12.ltrans.o
                0x0000000008012470                vcom_configuration_descriptor_data.15044
 *fill*         0x00000000080124b4        0xc 
 .rodata.vcom_configuration_descriptor.15043
                0x00000000080124c0        0x8 /tmp/ccFEEOUj.ltrans12.ltrans.o
                0x00000000080124c0                vcom_configuration_descriptor.15043
 *fill*         0x00000000080124c8        0x8 
 .rodata.vcom_string0.15046
                0x00000000080124d0        0x4 /tmp/ccFEEOUj.ltrans12.ltrans.o
                0x00000000080124d0                vcom_string0.15046
 *fill*         0x00000000080124d4        0xc 
 .rodata.vcom_string1.15047
                0x00000000080124e0       0x28 /tmp/ccFEEOUj.ltrans12.ltrans.o
                0x00000000080124e0                vcom_string1.15047
 *fill*         0x0000000008012508        0x8 
 .rodata.vcom_string2.15048
                0x0000000008012510       0x38 /tmp/ccFEEOUj.ltrans12.ltrans.o
                0x0000000008012510                vcom_string2.15048
 *fill*         0x0000000008012548        0x8 
 .rodata.vcom_string3.15049
                0x0000000008012550        0x8 /tmp/ccFEEOUj.ltrans12.ltrans.o
                0x0000000008012550                vcom_string3.15049
 *fill*         0x0000000008012558        0x8 
 .rodata.vcom_strings.15045
                0x0000000008012560       0x20 /tmp/ccFEEOUj.ltrans12.ltrans.o
                0x0000000008012560                vcom_strings.15045
 .rodata.ep1config.15050
                0x0000000008012580       0x24 /tmp/ccFEEOUj.ltrans12.ltrans.o
                0x0000000008012580                ep1config.15050
 *fill*         0x00000000080125a4        0xc 
 .rodata.ep2config.15053
                0x00000000080125b0       0x24 /tmp/ccFEEOUj.ltrans12.ltrans.o
                0x00000000080125b0                ep2config.15053
 *fill*         0x00000000080125d4        0xc 
 .rodata.usbcfg
                0x00000000080125e0       0x10 /tmp/ccFEEOUj.ltrans12.ltrans.o
                0x00000000080125e0                usbcfg
 .rodata.serusbcfg
                0x00000000080125f0        0x8 /tmp/ccFEEOUj.ltrans12.ltrans.o
                0x00000000080125f0                serusbcfg
 *fill*         0x00000000080125f8        0x8 
 .rodata.commands.15537
                0x0000000008012600       0x28 /tmp/ccFEEOUj.ltrans12.ltrans.o
                0x0000000008012600                commands.15537
 *fill*         0x0000000008012628        0x8 
 .rodata.shell_cfg1.15536
                0x0000000008012630        0x8 /tmp/ccFEEOUj.ltrans12.ltrans.o
                0x0000000008012630                shell_cfg1.15536
 *(.glue_7t)
 .glue_7t       0x0000000000000000        0x0 linker stubs
 *(.glue_7)
 .glue_7        0x0000000000000000        0x0 linker stubs
 *(.gcc*)

.vfp11_veneer   0x0000000008012638        0x0
 .vfp11_veneer  0x0000000000000000        0x0 linker stubs

.v4_bx          0x0000000008012638        0x0
 .v4_bx         0x0000000000000000        0x0 linker stubs

.iplt           0x0000000008012638        0x0
 .iplt          0x0000000000000000        0x0 build/obj/crt0_v7m.o

.rel.dyn        0x0000000008012638        0x0
 .rel.iplt      0x0000000000000000        0x0 build/obj/crt0_v7m.o

.ARM.extab
 *(.ARM.extab* .gnu.linkonce.armextab.*)

.ARM.exidx      0x0000000008012638        0x0
                0x0000000008012638                __exidx_start = .
 *(.ARM.exidx* .gnu.linkonce.armexidx.*)
                0x0000000008012638                __exidx_end = .

.eh_frame_hdr
 *(.eh_frame_hdr)

.eh_frame
 *(.eh_frame)

.textalign      0x0000000008012638        0x0
                0x0000000008012638                . = ALIGN (0x8)
                0x0000000008012638                . = ALIGN (0x4)
                0x0000000008012638                PROVIDE (_etext, .)

.mstack         0x0000000020000000      0x400
                0x0000000020000000                . = ALIGN (0x8)
                0x0000000020000000                __main_stack_base__ = .
                0x0000000020000400                . = (. + __main_stack_size__)
 *fill*         0x0000000020000000      0x400 
                0x0000000020000400                . = ALIGN (0x8)
                0x0000000020000400                __main_stack_end__ = .

.pstack         0x0000000020000400      0x400
                0x0000000020000400                __process_stack_base__ = .
                0x0000000020000400                __main_thread_stack_base__ = .
                0x0000000020000800                . = (. + __process_stack_size__)
 *fill*         0x0000000020000400      0x400 
                0x0000000020000800                . = ALIGN (0x8)
                0x0000000020000800                __process_stack_end__ = .
                0x0000000020000800                __main_thread_stack_end__ = .

.data           0x0000000020000800      0x550 load address 0x0000000008012638
                0x0000000020000800                . = ALIGN (0x4)
                0x0000000008012638                PROVIDE (_textdata, LOADADDR (.data))
                0x0000000020000800                PROVIDE (_data, .)
                0x0000000008012638                _textdata_start = LOADADDR (.data)
                0x0000000020000800                _data_start = .
 *(.data)
 *(.data.*)
 .data.linecoding.9717
                0x0000000020000800        0x8 /tmp/ccFEEOUj.ltrans12.ltrans.o
                0x0000000020000800                linecoding.9717
 .data.patterns.11424
                0x0000000020000808       0x34 /tmp/ccFEEOUj.ltrans12.ltrans.o
                0x0000000020000808                patterns.11424
 .data.sem1.11978
                0x000000002000083c        0xc /tmp/ccFEEOUj.ltrans12.ltrans.o
                0x000000002000083c                sem1.11978
 .data.m1.12264
                0x0000000020000848       0x10 /tmp/ccFEEOUj.ltrans12.ltrans.o
                0x0000000020000848                m1.12264
 .data.m2.12265
                0x0000000020000858       0x10 /tmp/ccFEEOUj.ltrans12.ltrans.o
                0x0000000020000858                m2.12265
 .data.c1.12269
                0x0000000020000868        0x8 /tmp/ccFEEOUj.ltrans12.ltrans.o
                0x0000000020000868                c1.12269
 .data.mb1.12610
                0x0000000020000870       0x28 /tmp/ccFEEOUj.ltrans12.ltrans.o
                0x0000000020000870                mb1.12610
 .data.es1.12943
                0x0000000020000898        0x4 /tmp/ccFEEOUj.ltrans12.ltrans.o
                0x0000000020000898                es1.12943
 .data.es2.12945
                0x000000002000089c        0x4 /tmp/ccFEEOUj.ltrans12.ltrans.o
                0x000000002000089c                es2.12945
 .data.mp1.13149
                0x00000000200008a0        0xc /tmp/ccFEEOUj.ltrans12.ltrans.o
                0x00000000200008a0                mp1.13149
 .data.iq.13639
                0x00000000200008ac       0x24 /tmp/ccFEEOUj.ltrans12.ltrans.o
                0x00000000200008ac                iq.13639
 .data.oq.13652
                0x00000000200008d0       0x24 /tmp/ccFEEOUj.ltrans12.ltrans.o
                0x00000000200008d0                oq.13652
 .data.local_commands.14533
                0x00000000200008f4       0x18 /tmp/ccFEEOUj.ltrans12.ltrans.o
                0x00000000200008f4                local_commands.14533
 .data.states.8586.15532
                0x000000002000090c       0x40 /tmp/ccFEEOUj.ltrans12.ltrans.o
                0x000000002000090c                states.8586.15532
 .data.buf.8601.15531
                0x000000002000094c      0x404 /tmp/ccFEEOUj.ltrans12.ltrans.o
                0x000000002000094c                buf.8601.15531
 *(.ramtext)
                0x0000000020000d50                . = ALIGN (0x4)
                0x0000000020000d50                PROVIDE (_edata, .)
                0x0000000020000d50                _data_end = .

.igot.plt       0x0000000020000d50        0x0 load address 0x0000000008012b88
 .igot.plt      0x0000000000000000        0x0 build/obj/crt0_v7m.o

.bss            0x0000000020000d50     0x1828 load address 0x0000000008012b88
                0x0000000020000d50                . = ALIGN (0x4)
                0x0000000020000d50                _bss_start = .
 *(.bss)
 *(.bss.*)
 .bss.ch        0x0000000020000d50      0x5d8 /tmp/ccFEEOUj.ltrans12.ltrans.o
                0x0000000020000d50                ch
 .bss.nextmem.8282
                0x0000000020001328        0x4 /tmp/ccFEEOUj.ltrans12.ltrans.o
                0x0000000020001328                nextmem.8282
 .bss.endmem.8284
                0x000000002000132c        0x4 /tmp/ccFEEOUj.ltrans12.ltrans.o
                0x000000002000132c                endmem.8284
 .bss.default_heap.8417
                0x0000000020001330       0x20 /tmp/ccFEEOUj.ltrans12.ltrans.o
                0x0000000020001330                default_heap.8417
 .bss.USBD1     0x0000000020001350      0x1e8 /tmp/ccFEEOUj.ltrans12.ltrans.o
                0x0000000020001350                USBD1
 .bss.USBD2     0x0000000020001538      0x1e8 /tmp/ccFEEOUj.ltrans12.ltrans.o
                0x0000000020001538                USBD2
 .bss.ep0_state.11061
                0x0000000020001720       0x10 /tmp/ccFEEOUj.ltrans12.ltrans.o
                0x0000000020001720                ep0_state.11061
 .bss.ep0setup_buffer.11065
                0x0000000020001730        0x8 /tmp/ccFEEOUj.ltrans12.ltrans.o
                0x0000000020001730                ep0setup_buffer.11065
 .bss.test_global_fail
                0x0000000020001738        0x1 /tmp/ccFEEOUj.ltrans12.ltrans.o
                0x0000000020001738                test_global_fail
 .bss.local_fail.11420
                0x0000000020001739        0x1 /tmp/ccFEEOUj.ltrans12.ltrans.o
                0x0000000020001739                local_fail.11420
 *fill*         0x000000002000173a        0x2 
 .bss.failpoint.11421
                0x000000002000173c        0x4 /tmp/ccFEEOUj.ltrans12.ltrans.o
                0x000000002000173c                failpoint.11421
 .bss.tokens_buffer.11418
                0x0000000020001740       0x10 /tmp/ccFEEOUj.ltrans12.ltrans.o
                0x0000000020001740                tokens_buffer.11418
 .bss.tokp.11417
                0x0000000020001750        0x4 /tmp/ccFEEOUj.ltrans12.ltrans.o
                0x0000000020001750                tokp.11417
 *fill*         0x0000000020001754        0x4 
 .bss.test      0x0000000020001758      0x708 /tmp/ccFEEOUj.ltrans12.ltrans.o
                0x0000000020001758                test
 .bss.threads   0x0000000020001e60       0x14 /tmp/ccFEEOUj.ltrans12.ltrans.o
                0x0000000020001e60                threads
 .bss.chp.11407
                0x0000000020001e74        0x4 /tmp/ccFEEOUj.ltrans12.ltrans.o
                0x0000000020001e74                chp.11407
 .bss.test_timer_done
                0x0000000020001e78        0x1 /tmp/ccFEEOUj.ltrans12.ltrans.o
                0x0000000020001e78                test_timer_done
 *fill*         0x0000000020001e79        0x3 
 .bss.vt.11423  0x0000000020001e7c       0x14 /tmp/ccFEEOUj.ltrans12.ltrans.o
                0x0000000020001e7c                vt.11423
 .bss.test_heap.13107
                0x0000000020001e90       0x20 /tmp/ccFEEOUj.ltrans12.ltrans.o
                0x0000000020001e90                test_heap.13107
 .bss.heap1.13372
                0x0000000020001eb0       0x20 /tmp/ccFEEOUj.ltrans12.ltrans.o
                0x0000000020001eb0                heap1.13372
 .bss.mp1.13384
                0x0000000020001ed0        0xc /tmp/ccFEEOUj.ltrans12.ltrans.o
                0x0000000020001ed0                mp1.13384
 .bss.sem1.14213
                0x0000000020001edc        0xc /tmp/ccFEEOUj.ltrans12.ltrans.o
                0x0000000020001edc                sem1.14213
 .bss.mtx1.14218
                0x0000000020001ee8       0x10 /tmp/ccFEEOUj.ltrans12.ltrans.o
                0x0000000020001ee8                mtx1.14218
 .bss.iq.6759.14214
                0x0000000020001ef8       0x24 /tmp/ccFEEOUj.ltrans12.ltrans.o
                0x0000000020001ef8                iq.6759.14214
 .bss.ib.6758.14215
                0x0000000020001f1c       0x10 /tmp/ccFEEOUj.ltrans12.ltrans.o
                0x0000000020001f1c                ib.6758.14215
 .bss.vt1.6769.14216
                0x0000000020001f2c       0x14 /tmp/ccFEEOUj.ltrans12.ltrans.o
                0x0000000020001f2c                vt1.6769.14216
 .bss.vt2.6770.14217
                0x0000000020001f40       0x14 /tmp/ccFEEOUj.ltrans12.ltrans.o
                0x0000000020001f40                vt2.6770.14217
 .bss.shell_terminated
                0x0000000020001f54        0x4 /tmp/ccFEEOUj.ltrans12.ltrans.o
                0x0000000020001f54                shell_terminated
 .bss.SDU1      0x0000000020001f58      0x488 /tmp/ccFEEOUj.ltrans12.ltrans.o
                0x0000000020001f58                SDU1
 .bss.ep1instate.15051
                0x00000000200023e0       0x10 /tmp/ccFEEOUj.ltrans12.ltrans.o
                0x00000000200023e0                ep1instate.15051
 .bss.ep1outstate.15052
                0x00000000200023f0       0x10 /tmp/ccFEEOUj.ltrans12.ltrans.o
                0x00000000200023f0                ep1outstate.15052
 .bss.ep2instate.15054
                0x0000000020002400       0x10 /tmp/ccFEEOUj.ltrans12.ltrans.o
                0x0000000020002400                ep2instate.15054
 .bss.waThread1.15535
                0x0000000020002410      0x168 /tmp/ccFEEOUj.ltrans12.ltrans.o
                0x0000000020002410                waThread1.15535
 *(COMMON)
                0x0000000020002578                . = ALIGN (0x4)
                0x0000000020002578                _bss_end = .
                0x0000000020002578                PROVIDE (end, .)

.ram0_init      0x0000000020002578        0x0 load address 0x0000000008012b88
                0x0000000020002578                . = ALIGN (0x4)
                0x0000000008012b88                __ram0_init_text__ = LOADADDR (.ram0_init)
                0x0000000020002578                __ram0_init__ = .
 *(.ram0_init)
 *(.ram0_init.*)
                0x0000000020002578                . = ALIGN (0x4)

.ram0           0x0000000020002578        0x0 load address 0x0000000008012b88
                0x0000000020002578                . = ALIGN (0x4)
                0x0000000020002578                __ram0_clear__ = .
 *(.ram0_clear)
 *(.ram0_clear.*)
                0x0000000020002578                . = ALIGN (0x4)
                0x0000000020002578                __ram0_noinit__ = .
 *(.ram0)
 *(.ram0.*)
                0x0000000020002578                . = ALIGN (0x4)
                0x0000000020002578                __ram0_free__ = .

.ram1_init      0x0000000020000000        0x0 load address 0x0000000008012b88
                0x0000000020000000                . = ALIGN (0x4)
                0x0000000008012b88                __ram1_init_text__ = LOADADDR (.ram1_init)
                0x0000000020000000                __ram1_init__ = .
 *(.ram1_init)
 *(.ram1_init.*)
                0x0000000020000000                . = ALIGN (0x4)

.ram1           0x0000000020000000        0x0 load address 0x0000000008012b88
                0x0000000020000000                . = ALIGN (0x4)
                0x0000000020000000                __ram1_clear__ = .
 *(.ram1_clear)
 *(.ram1_clear.*)
                0x0000000020000000                . = ALIGN (0x4)
                0x0000000020000000                __ram1_noinit__ = .
 *(.ram1)
 *(.ram1.*)
                0x0000000020000000                . = ALIGN (0x4)
                0x0000000020000000                __ram1_free__ = .

.ram2_init      0x000000002001c000        0x0 load address 0x0000000008012b88
                0x000000002001c000                . = ALIGN (0x4)
                0x0000000008012b88                __ram2_init_text__ = LOADADDR (.ram2_init)
                0x000000002001c000                __ram2_init__ = .
 *(.ram2_init)
 *(.ram2_init.*)
                0x000000002001c000                . = ALIGN (0x4)

.ram2           0x000000002001c000        0x0 load address 0x0000000008012b88
                0x000000002001c000                . = ALIGN (0x4)
                0x000000002001c000                __ram2_clear__ = .
 *(.ram2_clear)
 *(.ram2_clear.*)
                0x000000002001c000                . = ALIGN (0x4)
                0x000000002001c000                __ram2_noinit__ = .
 *(.ram2)
 *(.ram2.*)
                0x000000002001c000                . = ALIGN (0x4)
                0x000000002001c000                __ram2_free__ = .

.ram3_init      0x0000000000000000        0x0 load address 0x0000000008012b88
                0x0000000000000000                . = ALIGN (0x4)
                0x0000000008012b88                __ram3_init_text__ = LOADADDR (.ram3_init)
                0x0000000000000000                __ram3_init__ = .
 *(.ram3_init)
 *(.ram3_init.*)
                0x0000000000000000                . = ALIGN (0x4)

.ram3           0x0000000000000000        0x0 load address 0x0000000008012b88
                0x0000000000000000                . = ALIGN (0x4)
                0x0000000000000000                __ram3_clear__ = .
 *(.ram3_clear)
 *(.ram3_clear.*)
                0x0000000000000000                . = ALIGN (0x4)
                0x0000000000000000                __ram3_noinit__ = .
 *(.ram3)
 *(.ram3.*)
                0x0000000000000000                . = ALIGN (0x4)
                0x0000000000000000                __ram3_free__ = .

.ram4_init      0x0000000010000000        0x0 load address 0x0000000008012b88
                0x0000000010000000                . = ALIGN (0x4)
                0x0000000008012b88                __ram4_init_text__ = LOADADDR (.ram4_init)
                0x0000000010000000                __ram4_init__ = .
 *(.ram4_init)
 *(.ram4_init.*)
                0x0000000010000000                . = ALIGN (0x4)

.ram4           0x0000000010000000        0x0 load address 0x0000000008012b88
                0x0000000010000000                . = ALIGN (0x4)
                0x0000000010000000                __ram4_clear__ = .
 *(.ram4_clear)
 *(.ram4_clear.*)
                0x0000000010000000                . = ALIGN (0x4)
                0x0000000010000000                __ram4_noinit__ = .
 *(.ram4)
 *(.ram4.*)
                0x0000000010000000                . = ALIGN (0x4)
                0x0000000010000000                __ram4_free__ = .

.ram5_init      0x0000000040024000        0x0 load address 0x0000000008012b88
                0x0000000040024000                . = ALIGN (0x4)
                0x0000000008012b88                __ram5_init_text__ = LOADADDR (.ram5_init)
                0x0000000040024000                __ram5_init__ = .
 *(.ram5_init)
 *(.ram5_init.*)
                0x0000000040024000                . = ALIGN (0x4)

.ram5           0x0000000040024000        0x0 load address 0x0000000008012b88
                0x0000000040024000                . = ALIGN (0x4)
                0x0000000040024000                __ram5_clear__ = .
 *(.ram5_clear)
 *(.ram5_clear.*)
                0x0000000040024000                . = ALIGN (0x4)
                0x0000000040024000                __ram5_noinit__ = .
 *(.ram5)
 *(.ram5.*)
                0x0000000040024000                . = ALIGN (0x4)
                0x0000000040024000                __ram5_free__ = .

.ram6_init      0x0000000000000000        0x0 load address 0x0000000008012b88
                0x0000000000000000                . = ALIGN (0x4)
                0x0000000008012b88                __ram6_init_text__ = LOADADDR (.ram6_init)
                0x0000000000000000                __ram6_init__ = .
 *(.ram6_init)
 *(.ram6_init.*)
                0x0000000000000000                . = ALIGN (0x4)

.ram6           0x0000000000000000        0x0 load address 0x0000000008012b88
                0x0000000000000000                . = ALIGN (0x4)
                0x0000000000000000                __ram6_clear__ = .
 *(.ram6_clear)
 *(.ram6_clear.*)
                0x0000000000000000                . = ALIGN (0x4)
                0x0000000000000000                __ram6_noinit__ = .
 *(.ram6)
 *(.ram6.*)
                0x0000000000000000                . = ALIGN (0x4)
                0x0000000000000000                __ram6_free__ = .

.ram7_init      0x0000000000000000        0x0 load address 0x0000000008012b88
                0x0000000000000000                . = ALIGN (0x4)
                0x0000000008012b88                __ram7_init_text__ = LOADADDR (.ram7_init)
                0x0000000000000000                __ram7_init__ = .
 *(.ram7_init)
 *(.ram7_init.*)
                0x0000000000000000                . = ALIGN (0x4)

.ram7           0x0000000000000000        0x0 load address 0x0000000008012b88
                0x0000000000000000                . = ALIGN (0x4)
                0x0000000000000000                __ram7_clear__ = .
 *(.ram7_clear)
 *(.ram7_clear.*)
                0x0000000000000000                . = ALIGN (0x4)
                0x0000000000000000                __ram7_noinit__ = .
 *(.ram7)
 *(.ram7.*)
                0x0000000000000000                . = ALIGN (0x4)
                0x0000000000000000                __ram7_free__ = .

.heap           0x0000000020002578    0x1da88
                0x0000000020002578                . = ALIGN (0x8)
                0x0000000020002578                __heap_base__ = .
                0x0000000020020000                . = (ORIGIN (HEAP_RAM) + 0x20000)
 *fill*         0x0000000020002578    0x1da88 
                0x0000000020020000                __heap_end__ = .
                0x0000000000000400                __process_stack_size__ = 0x400
                0x0000000000000400                __main_stack_size__ = 0x400
START GROUP
LOAD /usr/lib/gcc/arm-none-eabi/4.8.2/armv7e-m/libgcc.a
LOAD /usr/lib/gcc/arm-none-eabi/4.8.2/../../../arm-none-eabi/lib/armv7e-m/libg.a
LOAD /usr/lib/gcc/arm-none-eabi/4.8.2/../../../arm-none-eabi/lib/armv7e-m/libc.a
END GROUP
OUTPUT(build/ch.elf elf32-littlearm)

.ARM.attributes
                0x0000000000000000       0x2f
 .ARM.attributes
                0x0000000000000000       0x21 build/obj/crt0_v7m.o
 .ARM.attributes
                0x0000000000000021       0x21 build/obj/chcoreasm_v7m.o
 .ARM.attributes
                0x0000000000000042       0x31 /tmp/ccFEEOUj.ltrans0.ltrans.o
 .ARM.attributes
                0x0000000000000073       0x31 /tmp/ccFEEOUj.ltrans1.ltrans.o
 .ARM.attributes
                0x00000000000000a4       0x31 /tmp/ccFEEOUj.ltrans2.ltrans.o
 .ARM.attributes
                0x00000000000000d5       0x31 /tmp/ccFEEOUj.ltrans3.ltrans.o
 .ARM.attributes
                0x0000000000000106       0x31 /tmp/ccFEEOUj.ltrans4.ltrans.o
 .ARM.attributes
                0x0000000000000137       0x31 /tmp/ccFEEOUj.ltrans5.ltrans.o
 .ARM.attributes
                0x0000000000000168       0x31 /tmp/ccFEEOUj.ltrans6.ltrans.o
 .ARM.attributes
                0x0000000000000199       0x31 /tmp/ccFEEOUj.ltrans7.ltrans.o
 .ARM.attributes
                0x00000000000001ca       0x31 /tmp/ccFEEOUj.ltrans8.ltrans.o
 .ARM.attributes
                0x00000000000001fb       0x31 /tmp/ccFEEOUj.ltrans9.ltrans.o
 .ARM.attributes
                0x000000000000022c       0x31 /tmp/ccFEEOUj.ltrans10.ltrans.o
 .ARM.attributes
                0x000000000000025d       0x31 /tmp/ccFEEOUj.ltrans11.ltrans.o
 .ARM.attributes
                0x000000000000028e       0x31 /tmp/ccFEEOUj.ltrans12.ltrans.o
 .ARM.attributes
                0x00000000000002bf       0x1c /usr/lib/gcc/arm-none-eabi/4.8.2/../../../arm-none-eabi/lib/armv7e-m/libg.a(lib_a-memcpy.o)
 .ARM.attributes
                0x00000000000002db       0x2e /usr/lib/gcc/arm-none-eabi/4.8.2/../../../arm-none-eabi/lib/armv7e-m/libg.a(lib_a-memset.o)
 .ARM.attributes
                0x0000000000000309       0x1c /usr/lib/gcc/arm-none-eabi/4.8.2/../../../arm-none-eabi/lib/armv7e-m/libg.a(lib_a-strcmp.o)
 .ARM.attributes
                0x0000000000000325       0x2e /usr/lib/gcc/arm-none-eabi/4.8.2/../../../arm-none-eabi/lib/armv7e-m/libg.a(lib_a-strpbrk.o)
 .ARM.attributes
                0x0000000000000353       0x2e /usr/lib/gcc/arm-none-eabi/4.8.2/../../../arm-none-eabi/lib/armv7e-m/libg.a(lib_a-strspn.o)

.comment        0x0000000000000000       0x1f
 .comment       0x0000000000000000       0x1f /tmp/ccFEEOUj.ltrans0.ltrans.o
                                         0x20 (size before relaxing)
 .comment       0x0000000000000000       0x20 /tmp/ccFEEOUj.ltrans1.ltrans.o
 .comment       0x0000000000000000       0x20 /tmp/ccFEEOUj.ltrans2.ltrans.o
 .comment       0x0000000000000000       0x20 /tmp/ccFEEOUj.ltrans3.ltrans.o
 .comment       0x0000000000000000       0x20 /tmp/ccFEEOUj.ltrans4.ltrans.o
 .comment       0x0000000000000000       0x20 /tmp/ccFEEOUj.ltrans5.ltrans.o
 .comment       0x0000000000000000       0x20 /tmp/ccFEEOUj.ltrans6.ltrans.o
 .comment       0x0000000000000000       0x20 /tmp/ccFEEOUj.ltrans7.ltrans.o
 .comment       0x0000000000000000       0x20 /tmp/ccFEEOUj.ltrans8.ltrans.o
 .comment       0x0000000000000000       0x20 /tmp/ccFEEOUj.ltrans9.ltrans.o
 .comment       0x0000000000000000       0x20 /tmp/ccFEEOUj.ltrans10.ltrans.o
 .comment       0x0000000000000000       0x20 /tmp/ccFEEOUj.ltrans11.ltrans.o
 .comment       0x0000000000000000       0x20 /tmp/ccFEEOUj.ltrans12.ltrans.o
 .comment       0x0000000000000000       0x20 /usr/lib/gcc/arm-none-eabi/4.8.2/../../../arm-none-eabi/lib/armv7e-m/libg.a(lib_a-memset.o)
 .comment       0x0000000000000000       0x20 /usr/lib/gcc/arm-none-eabi/4.8.2/../../../arm-none-eabi/lib/armv7e-m/libg.a(lib_a-strpbrk.o)
 .comment       0x0000000000000000       0x20 /usr/lib/gcc/arm-none-eabi/4.8.2/../../../arm-none-eabi/lib/armv7e-m/libg.a(lib_a-strspn.o)

.debug_info     0x0000000000000000    0x16804
 .debug_info    0x0000000000000000     0x1e6e /tmp/ccFEEOUj.ltrans0.ltrans.o
 .debug_info    0x0000000000001e6e     0x12e8 /tmp/ccFEEOUj.ltrans1.ltrans.o
 .debug_info    0x0000000000003156      0xe63 /tmp/ccFEEOUj.ltrans2.ltrans.o
 .debug_info    0x0000000000003fb9      0x996 /tmp/ccFEEOUj.ltrans3.ltrans.o
 .debug_info    0x000000000000494f      0x94b /tmp/ccFEEOUj.ltrans4.ltrans.o
 .debug_info    0x000000000000529a      0xcde /tmp/ccFEEOUj.ltrans5.ltrans.o
 .debug_info    0x0000000000005f78     0x1b90 /tmp/ccFEEOUj.ltrans6.ltrans.o
 .debug_info    0x0000000000007b08     0x1e7e /tmp/ccFEEOUj.ltrans7.ltrans.o
 .debug_info    0x0000000000009986     0x21b8 /tmp/ccFEEOUj.ltrans8.ltrans.o
 .debug_info    0x000000000000bb3e     0x1bf3 /tmp/ccFEEOUj.ltrans9.ltrans.o
 .debug_info    0x000000000000d731     0x1b5d /tmp/ccFEEOUj.ltrans10.ltrans.o
 .debug_info    0x000000000000f28e     0x1858 /tmp/ccFEEOUj.ltrans11.ltrans.o
 .debug_info    0x0000000000010ae6     0x5906 /tmp/ccFEEOUj.ltrans12.ltrans.o
 .debug_info    0x00000000000163ec       0xb3 /usr/lib/gcc/arm-none-eabi/4.8.2/../../../arm-none-eabi/lib/armv7e-m/libg.a(lib_a-memcpy.o)
 .debug_info    0x000000000001649f      0x117 /usr/lib/gcc/arm-none-eabi/4.8.2/../../../arm-none-eabi/lib/armv7e-m/libg.a(lib_a-memset.o)
 .debug_info    0x00000000000165b6       0xac /usr/lib/gcc/arm-none-eabi/4.8.2/../../../arm-none-eabi/lib/armv7e-m/libg.a(lib_a-strcmp.o)
 .debug_info    0x0000000000016662       0xc8 /usr/lib/gcc/arm-none-eabi/4.8.2/../../../arm-none-eabi/lib/armv7e-m/libg.a(lib_a-strpbrk.o)
 .debug_info    0x000000000001672a       0xda /usr/lib/gcc/arm-none-eabi/4.8.2/../../../arm-none-eabi/lib/armv7e-m/libg.a(lib_a-strspn.o)

.debug_abbrev   0x0000000000000000     0x34fd
 .debug_abbrev  0x0000000000000000      0x45b /tmp/ccFEEOUj.ltrans0.ltrans.o
 .debug_abbrev  0x000000000000045b      0x367 /tmp/ccFEEOUj.ltrans1.ltrans.o
 .debug_abbrev  0x00000000000007c2      0x359 /tmp/ccFEEOUj.ltrans2.ltrans.o
 .debug_abbrev  0x0000000000000b1b      0x298 /tmp/ccFEEOUj.ltrans3.ltrans.o
 .debug_abbrev  0x0000000000000db3      0x2a7 /tmp/ccFEEOUj.ltrans4.ltrans.o
 .debug_abbrev  0x000000000000105a      0x315 /tmp/ccFEEOUj.ltrans5.ltrans.o
 .debug_abbrev  0x000000000000136f      0x48d /tmp/ccFEEOUj.ltrans6.ltrans.o
 .debug_abbrev  0x00000000000017fc      0x428 /tmp/ccFEEOUj.ltrans7.ltrans.o
 .debug_abbrev  0x0000000000001c24      0x3fc /tmp/ccFEEOUj.ltrans8.ltrans.o
 .debug_abbrev  0x0000000000002020      0x438 /tmp/ccFEEOUj.ltrans9.ltrans.o
 .debug_abbrev  0x0000000000002458      0x355 /tmp/ccFEEOUj.ltrans10.ltrans.o
 .debug_abbrev  0x00000000000027ad      0x3e8 /tmp/ccFEEOUj.ltrans11.ltrans.o
 .debug_abbrev  0x0000000000002b95      0x792 /tmp/ccFEEOUj.ltrans12.ltrans.o
 .debug_abbrev  0x0000000000003327       0x14 /usr/lib/gcc/arm-none-eabi/4.8.2/../../../arm-none-eabi/lib/armv7e-m/libg.a(lib_a-memcpy.o)
 .debug_abbrev  0x000000000000333b       0x9f /usr/lib/gcc/arm-none-eabi/4.8.2/../../../arm-none-eabi/lib/armv7e-m/libg.a(lib_a-memset.o)
 .debug_abbrev  0x00000000000033da       0x14 /usr/lib/gcc/arm-none-eabi/4.8.2/../../../arm-none-eabi/lib/armv7e-m/libg.a(lib_a-strcmp.o)
 .debug_abbrev  0x00000000000033ee       0x81 /usr/lib/gcc/arm-none-eabi/4.8.2/../../../arm-none-eabi/lib/armv7e-m/libg.a(lib_a-strpbrk.o)
 .debug_abbrev  0x000000000000346f       0x8e /usr/lib/gcc/arm-none-eabi/4.8.2/../../../arm-none-eabi/lib/armv7e-m/libg.a(lib_a-strspn.o)

.debug_aranges  0x0000000000000000     0x1b40
 .debug_aranges
                0x0000000000000000      0x138 /tmp/ccFEEOUj.ltrans0.ltrans.o
 .debug_aranges
                0x0000000000000138      0x1e8 /tmp/ccFEEOUj.ltrans1.ltrans.o
 .debug_aranges
                0x0000000000000320      0x1c0 /tmp/ccFEEOUj.ltrans2.ltrans.o
 .debug_aranges
                0x00000000000004e0       0xf8 /tmp/ccFEEOUj.ltrans3.ltrans.o
 .debug_aranges
                0x00000000000005d8       0xf8 /tmp/ccFEEOUj.ltrans4.ltrans.o
 .debug_aranges
                0x00000000000006d0      0x1d8 /tmp/ccFEEOUj.ltrans5.ltrans.o
 .debug_aranges
                0x00000000000008a8      0x1d0 /tmp/ccFEEOUj.ltrans6.ltrans.o
 .debug_aranges
                0x0000000000000a78      0x208 /tmp/ccFEEOUj.ltrans7.ltrans.o
 .debug_aranges
                0x0000000000000c80      0x220 /tmp/ccFEEOUj.ltrans8.ltrans.o
 .debug_aranges
                0x0000000000000ea0      0x2c0 /tmp/ccFEEOUj.ltrans9.ltrans.o
 .debug_aranges
                0x0000000000001160      0x2b0 /tmp/ccFEEOUj.ltrans10.ltrans.o
 .debug_aranges
                0x0000000000001410      0x2c0 /tmp/ccFEEOUj.ltrans11.ltrans.o
 .debug_aranges
                0x00000000000016d0      0x3d0 /tmp/ccFEEOUj.ltrans12.ltrans.o
 .debug_aranges
                0x0000000000001aa0       0x20 /usr/lib/gcc/arm-none-eabi/4.8.2/../../../arm-none-eabi/lib/armv7e-m/libg.a(lib_a-memcpy.o)
 .debug_aranges
                0x0000000000001ac0       0x20 /usr/lib/gcc/arm-none-eabi/4.8.2/../../../arm-none-eabi/lib/armv7e-m/libg.a(lib_a-memset.o)
 .debug_aranges
                0x0000000000001ae0       0x20 /usr/lib/gcc/arm-none-eabi/4.8.2/../../../arm-none-eabi/lib/armv7e-m/libg.a(lib_a-strcmp.o)
 .debug_aranges
                0x0000000000001b00       0x20 /usr/lib/gcc/arm-none-eabi/4.8.2/../../../arm-none-eabi/lib/armv7e-m/libg.a(lib_a-strpbrk.o)
 .debug_aranges
                0x0000000000001b20       0x20 /usr/lib/gcc/arm-none-eabi/4.8.2/../../../arm-none-eabi/lib/armv7e-m/libg.a(lib_a-strspn.o)

.debug_ranges   0x0000000000000000     0x1a00
 .debug_ranges  0x0000000000000000      0x128 /tmp/ccFEEOUj.ltrans0.ltrans.o
 .debug_ranges  0x0000000000000128      0x1d8 /tmp/ccFEEOUj.ltrans1.ltrans.o
 .debug_ranges  0x0000000000000300      0x1b0 /tmp/ccFEEOUj.ltrans2.ltrans.o
 .debug_ranges  0x00000000000004b0       0xe8 /tmp/ccFEEOUj.ltrans3.ltrans.o
 .debug_ranges  0x0000000000000598       0xe8 /tmp/ccFEEOUj.ltrans4.ltrans.o
 .debug_ranges  0x0000000000000680      0x1c8 /tmp/ccFEEOUj.ltrans5.ltrans.o
 .debug_ranges  0x0000000000000848      0x1c0 /tmp/ccFEEOUj.ltrans6.ltrans.o
 .debug_ranges  0x0000000000000a08      0x1f8 /tmp/ccFEEOUj.ltrans7.ltrans.o
 .debug_ranges  0x0000000000000c00      0x210 /tmp/ccFEEOUj.ltrans8.ltrans.o
 .debug_ranges  0x0000000000000e10      0x2b0 /tmp/ccFEEOUj.ltrans9.ltrans.o
 .debug_ranges  0x00000000000010c0      0x2a0 /tmp/ccFEEOUj.ltrans10.ltrans.o
 .debug_ranges  0x0000000000001360      0x2b0 /tmp/ccFEEOUj.ltrans11.ltrans.o
 .debug_ranges  0x0000000000001610      0x3c0 /tmp/ccFEEOUj.ltrans12.ltrans.o
 .debug_ranges  0x00000000000019d0       0x10 /usr/lib/gcc/arm-none-eabi/4.8.2/../../../arm-none-eabi/lib/armv7e-m/libg.a(lib_a-memset.o)
 .debug_ranges  0x00000000000019e0       0x10 /usr/lib/gcc/arm-none-eabi/4.8.2/../../../arm-none-eabi/lib/armv7e-m/libg.a(lib_a-strpbrk.o)
 .debug_ranges  0x00000000000019f0       0x10 /usr/lib/gcc/arm-none-eabi/4.8.2/../../../arm-none-eabi/lib/armv7e-m/libg.a(lib_a-strspn.o)

.debug_line     0x0000000000000000     0x7bf7
 .debug_line    0x0000000000000000      0x71c /tmp/ccFEEOUj.ltrans0.ltrans.o
 .debug_line    0x000000000000071c      0x8a6 /tmp/ccFEEOUj.ltrans1.ltrans.o
 .debug_line    0x0000000000000fc2      0x74e /tmp/ccFEEOUj.ltrans2.ltrans.o
 .debug_line    0x0000000000001710      0x51f /tmp/ccFEEOUj.ltrans3.ltrans.o
 .debug_line    0x0000000000001c2f      0x50e /tmp/ccFEEOUj.ltrans4.ltrans.o
 .debug_line    0x000000000000213d      0x7bb /tmp/ccFEEOUj.ltrans5.ltrans.o
 .debug_line    0x00000000000028f8      0x87d /tmp/ccFEEOUj.ltrans6.ltrans.o
 .debug_line    0x0000000000003175      0x9ce /tmp/ccFEEOUj.ltrans7.ltrans.o
 .debug_line    0x0000000000003b43      0x95c /tmp/ccFEEOUj.ltrans8.ltrans.o
 .debug_line    0x000000000000449f      0xbbf /tmp/ccFEEOUj.ltrans9.ltrans.o
 .debug_line    0x000000000000505e      0xa87 /tmp/ccFEEOUj.ltrans10.ltrans.o
 .debug_line    0x0000000000005ae5      0xa6c /tmp/ccFEEOUj.ltrans11.ltrans.o
 .debug_line    0x0000000000006551     0x129f /tmp/ccFEEOUj.ltrans12.ltrans.o
 .debug_line    0x00000000000077f0       0xb8 /usr/lib/gcc/arm-none-eabi/4.8.2/../../../arm-none-eabi/lib/armv7e-m/libg.a(lib_a-memcpy.o)
 .debug_line    0x00000000000078a8       0xff /usr/lib/gcc/arm-none-eabi/4.8.2/../../../arm-none-eabi/lib/armv7e-m/libg.a(lib_a-memset.o)
 .debug_line    0x00000000000079a7       0xbe /usr/lib/gcc/arm-none-eabi/4.8.2/../../../arm-none-eabi/lib/armv7e-m/libg.a(lib_a-strcmp.o)
 .debug_line    0x0000000000007a65       0xb5 /usr/lib/gcc/arm-none-eabi/4.8.2/../../../arm-none-eabi/lib/armv7e-m/libg.a(lib_a-strpbrk.o)
 .debug_line    0x0000000000007b1a       0xdd /usr/lib/gcc/arm-none-eabi/4.8.2/../../../arm-none-eabi/lib/armv7e-m/libg.a(lib_a-strspn.o)

.debug_str      0x0000000000000000     0x58c5
 .debug_str     0x0000000000000000      0xf13 /tmp/ccFEEOUj.ltrans0.ltrans.o
                                       0x1036 (size before relaxing)
 .debug_str     0x0000000000000f13      0x59c /tmp/ccFEEOUj.ltrans1.ltrans.o
                                        0xaf6 (size before relaxing)
 .debug_str     0x00000000000014af      0x41a /tmp/ccFEEOUj.ltrans2.ltrans.o
                                        0x9b1 (size before relaxing)
 .debug_str     0x00000000000018c9      0x1a6 /tmp/ccFEEOUj.ltrans3.ltrans.o
                                        0x6f7 (size before relaxing)
 .debug_str     0x0000000000001a6f      0x247 /tmp/ccFEEOUj.ltrans4.ltrans.o
                                        0x6ab (size before relaxing)
 .debug_str     0x0000000000001cb6      0x2df /tmp/ccFEEOUj.ltrans5.ltrans.o
                                        0x7d5 (size before relaxing)
 .debug_str     0x0000000000001f95      0x3ba /tmp/ccFEEOUj.ltrans6.ltrans.o
                                        0xf3f (size before relaxing)
 .debug_str     0x000000000000234f      0x699 /tmp/ccFEEOUj.ltrans7.ltrans.o
                                       0x11c1 (size before relaxing)
 .debug_str     0x00000000000029e8      0x384 /tmp/ccFEEOUj.ltrans8.ltrans.o
                                       0x10fd (size before relaxing)
 .debug_str     0x0000000000002d6c      0x6d6 /tmp/ccFEEOUj.ltrans9.ltrans.o
                                        0xcf6 (size before relaxing)
 .debug_str     0x0000000000003442      0x63e /tmp/ccFEEOUj.ltrans10.ltrans.o
                                        0xc5e (size before relaxing)
 .debug_str     0x0000000000003a80      0x5e7 /tmp/ccFEEOUj.ltrans11.ltrans.o
                                        0xb81 (size before relaxing)
 .debug_str     0x0000000000004067     0x16c7 /tmp/ccFEEOUj.ltrans12.ltrans.o
                                       0x37c5 (size before relaxing)
 .debug_str     0x000000000000572e      0x12b /usr/lib/gcc/arm-none-eabi/4.8.2/../../../arm-none-eabi/lib/armv7e-m/libg.a(lib_a-memset.o)
                                        0x1b3 (size before relaxing)
 .debug_str     0x0000000000005859       0x37 /usr/lib/gcc/arm-none-eabi/4.8.2/../../../arm-none-eabi/lib/armv7e-m/libg.a(lib_a-strpbrk.o)
                                        0x19a (size before relaxing)
 .debug_str     0x0000000000005890       0x35 /usr/lib/gcc/arm-none-eabi/4.8.2/../../../arm-none-eabi/lib/armv7e-m/libg.a(lib_a-strspn.o)
                                        0x19f (size before relaxing)

.debug_frame    0x0000000000000000     0x4a3c
 .debug_frame   0x0000000000000000      0x35c /tmp/ccFEEOUj.ltrans0.ltrans.o
 .debug_frame   0x000000000000035c      0x56c /tmp/ccFEEOUj.ltrans1.ltrans.o
 .debug_frame   0x00000000000008c8      0x4d0 /tmp/ccFEEOUj.ltrans2.ltrans.o
 .debug_frame   0x0000000000000d98      0x290 /tmp/ccFEEOUj.ltrans3.ltrans.o
 .debug_frame   0x0000000000001028      0x2a0 /tmp/ccFEEOUj.ltrans4.ltrans.o
 .debug_frame   0x00000000000012c8      0x520 /tmp/ccFEEOUj.ltrans5.ltrans.o
 .debug_frame   0x00000000000017e8      0x4f8 /tmp/ccFEEOUj.ltrans6.ltrans.o
 .debug_frame   0x0000000000001ce0      0x5a0 /tmp/ccFEEOUj.ltrans7.ltrans.o
 .debug_frame   0x0000000000002280      0x604 /tmp/ccFEEOUj.ltrans8.ltrans.o
 .debug_frame   0x0000000000002884      0x7ac /tmp/ccFEEOUj.ltrans9.ltrans.o
 .debug_frame   0x0000000000003030      0x788 /tmp/ccFEEOUj.ltrans10.ltrans.o
 .debug_frame   0x00000000000037b8      0x7a4 /tmp/ccFEEOUj.ltrans11.ltrans.o
 .debug_frame   0x0000000000003f5c      0xa5c /tmp/ccFEEOUj.ltrans12.ltrans.o
 .debug_frame   0x00000000000049b8       0x2c /usr/lib/gcc/arm-none-eabi/4.8.2/../../../arm-none-eabi/lib/armv7e-m/libg.a(lib_a-memset.o)
 .debug_frame   0x00000000000049e4       0x2c /usr/lib/gcc/arm-none-eabi/4.8.2/../../../arm-none-eabi/lib/armv7e-m/libg.a(lib_a-strpbrk.o)
 .debug_frame   0x0000000000004a10       0x2c /usr/lib/gcc/arm-none-eabi/4.8.2/../../../arm-none-eabi/lib/armv7e-m/libg.a(lib_a-strspn.o)

.debug_loc      0x0000000000000000      0x334
 .debug_loc     0x0000000000000000      0x18b /usr/lib/gcc/arm-none-eabi/4.8.2/../../../arm-none-eabi/lib/armv7e-m/libg.a(lib_a-memset.o)
 .debug_loc     0x000000000000018b       0xa4 /usr/lib/gcc/arm-none-eabi/4.8.2/../../../arm-none-eabi/lib/armv7e-m/libg.a(lib_a-strpbrk.o)
 .debug_loc     0x000000000000022f      0x105 /usr/lib/gcc/arm-none-eabi/4.8.2/../../../arm-none-eabi/lib/armv7e-m/libg.a(lib_a-strspn.o)

Cross Reference Table

Symbol                                            File
BusFault_Handler                                  build/obj/vectors.o (symbol from plugin)
DebugMon_Handler                                  build/obj/vectors.o (symbol from plugin)
HardFault_Handler                                 build/obj/vectors.o (symbol from plugin)
MemManage_Handler                                 build/obj/vectors.o (symbol from plugin)
NMI_Handler                                       build/obj/vectors.o (symbol from plugin)
PendSV_Handler                                    build/obj/vectors.o (symbol from plugin)
Reset_Handler                                     build/obj/crt0_v7m.o
                                                  /tmp/ccFEEOUj.ltrans12.ltrans.o
                                                  build/obj/vectors.o (symbol from plugin)
SDU1                                              /tmp/ccFEEOUj.ltrans12.ltrans.o
                                                  build/obj/usbcfg.o (symbol from plugin)
                                                  /tmp/ccFEEOUj.ltrans0.ltrans.o
                                                  build/obj/main.o (symbol from plugin)
SVC_Handler                                       /tmp/ccFEEOUj.ltrans9.ltrans.o
                                                  build/obj/chcore_v7m.o (symbol from plugin)
                                                  build/obj/vectors.o (symbol from plugin)
                                                  /tmp/ccFEEOUj.ltrans12.ltrans.o
SysTick_Handler                                   build/obj/vectors.o (symbol from plugin)
SystemCoreClock                                   build/obj/hal_lld.o (symbol from plugin)
TestThread                                        /tmp/ccFEEOUj.ltrans5.ltrans.o
                                                  build/obj/test.o (symbol from plugin)
                                                  /tmp/ccFEEOUj.ltrans0.ltrans.o
                                                  build/obj/main.o (symbol from plugin)
USBD1                                             /tmp/ccFEEOUj.ltrans12.ltrans.o
                                                  build/obj/usb_lld.o (symbol from plugin)
                                                  /tmp/ccFEEOUj.ltrans6.ltrans.o
                                                  build/obj/usbcfg.o (symbol from plugin)
USBD2                                             /tmp/ccFEEOUj.ltrans12.ltrans.o
                                                  build/obj/usb_lld.o (symbol from plugin)
                                                  /tmp/ccFEEOUj.ltrans6.ltrans.o
UsageFault_Handler                                build/obj/vectors.o (symbol from plugin)
Vector100                                         build/obj/vectors.o (symbol from plugin)
Vector104                                         build/obj/vectors.o (symbol from plugin)
Vector108                                         build/obj/vectors.o (symbol from plugin)
Vector10C                                         build/obj/vectors.o (symbol from plugin)
Vector110                                         build/obj/vectors.o (symbol from plugin)
Vector114                                         build/obj/vectors.o (symbol from plugin)
Vector118                                         build/obj/vectors.o (symbol from plugin)
Vector11C                                         build/obj/vectors.o (symbol from plugin)
Vector120                                         build/obj/vectors.o (symbol from plugin)
Vector124                                         build/obj/vectors.o (symbol from plugin)
Vector128                                         build/obj/vectors.o (symbol from plugin)
Vector12C                                         build/obj/vectors.o (symbol from plugin)
Vector130                                         build/obj/vectors.o (symbol from plugin)
Vector134                                         build/obj/vectors.o (symbol from plugin)
Vector138                                         build/obj/vectors.o (symbol from plugin)
Vector13C                                         build/obj/vectors.o (symbol from plugin)
Vector140                                         build/obj/vectors.o (symbol from plugin)
Vector144                                         build/obj/vectors.o (symbol from plugin)
Vector148                                         build/obj/vectors.o (symbol from plugin)
Vector14C                                         /tmp/ccFEEOUj.ltrans6.ltrans.o
                                                  build/obj/usb_lld.o (symbol from plugin)
                                                  build/obj/vectors.o (symbol from plugin)
                                                  /tmp/ccFEEOUj.ltrans12.ltrans.o
Vector150                                         build/obj/vectors.o (symbol from plugin)
Vector154                                         build/obj/vectors.o (symbol from plugin)
Vector158                                         build/obj/vectors.o (symbol from plugin)
Vector15C                                         build/obj/vectors.o (symbol from plugin)
Vector160                                         build/obj/vectors.o (symbol from plugin)
Vector164                                         build/obj/vectors.o (symbol from plugin)
Vector168                                         build/obj/vectors.o (symbol from plugin)
Vector16C                                         build/obj/vectors.o (symbol from plugin)
Vector170                                         build/obj/vectors.o (symbol from plugin)
Vector174                                         /tmp/ccFEEOUj.ltrans6.ltrans.o
                                                  build/obj/usb_lld.o (symbol from plugin)
                                                  build/obj/vectors.o (symbol from plugin)
                                                  /tmp/ccFEEOUj.ltrans12.ltrans.o
Vector178                                         build/obj/vectors.o (symbol from plugin)
Vector17C                                         build/obj/vectors.o (symbol from plugin)
Vector180                                         build/obj/vectors.o (symbol from plugin)
Vector184                                         build/obj/vectors.o (symbol from plugin)
Vector188                                         build/obj/vectors.o (symbol from plugin)
Vector18C                                         build/obj/vectors.o (symbol from plugin)
Vector190                                         build/obj/vectors.o (symbol from plugin)
Vector194                                         build/obj/vectors.o (symbol from plugin)
Vector198                                         build/obj/vectors.o (symbol from plugin)
Vector19C                                         build/obj/vectors.o (symbol from plugin)
Vector1A0                                         build/obj/vectors.o (symbol from plugin)
Vector1A4                                         build/obj/vectors.o (symbol from plugin)
Vector1A8                                         build/obj/vectors.o (symbol from plugin)
Vector1AC                                         build/obj/vectors.o (symbol from plugin)
Vector1B0                                         build/obj/vectors.o (symbol from plugin)
Vector1B4                                         build/obj/vectors.o (symbol from plugin)
Vector1B8                                         build/obj/vectors.o (symbol from plugin)
Vector1BC                                         build/obj/vectors.o (symbol from plugin)
Vector1C                                          build/obj/vectors.o (symbol from plugin)
Vector20                                          build/obj/vectors.o (symbol from plugin)
Vector24                                          build/obj/vectors.o (symbol from plugin)
Vector28                                          build/obj/vectors.o (symbol from plugin)
Vector34                                          build/obj/vectors.o (symbol from plugin)
Vector40                                          build/obj/vectors.o (symbol from plugin)
Vector44                                          build/obj/vectors.o (symbol from plugin)
Vector48                                          build/obj/vectors.o (symbol from plugin)
Vector4C                                          build/obj/vectors.o (symbol from plugin)
Vector50                                          build/obj/vectors.o (symbol from plugin)
Vector54                                          build/obj/vectors.o (symbol from plugin)
Vector58                                          build/obj/vectors.o (symbol from plugin)
Vector5C                                          build/obj/vectors.o (symbol from plugin)
Vector60                                          build/obj/vectors.o (symbol from plugin)
Vector64                                          build/obj/vectors.o (symbol from plugin)
Vector68                                          build/obj/vectors.o (symbol from plugin)
Vector6C                                          build/obj/vectors.o (symbol from plugin)
Vector70                                          build/obj/vectors.o (symbol from plugin)
Vector74                                          build/obj/vectors.o (symbol from plugin)
Vector78                                          build/obj/vectors.o (symbol from plugin)
Vector7C                                          build/obj/vectors.o (symbol from plugin)
Vector80                                          build/obj/vectors.o (symbol from plugin)
Vector84                                          build/obj/vectors.o (symbol from plugin)
Vector88                                          build/obj/vectors.o (symbol from plugin)
Vector8C                                          build/obj/vectors.o (symbol from plugin)
Vector90                                          build/obj/vectors.o (symbol from plugin)
Vector94                                          build/obj/vectors.o (symbol from plugin)
Vector98                                          build/obj/vectors.o (symbol from plugin)
Vector9C                                          build/obj/vectors.o (symbol from plugin)
VectorA0                                          build/obj/vectors.o (symbol from plugin)
VectorA4                                          build/obj/vectors.o (symbol from plugin)
VectorA8                                          build/obj/vectors.o (symbol from plugin)
VectorAC                                          build/obj/vectors.o (symbol from plugin)
VectorB0                                          /tmp/ccFEEOUj.ltrans7.ltrans.o
                                                  build/obj/st_lld.o (symbol from plugin)
                                                  build/obj/vectors.o (symbol from plugin)
                                                  /tmp/ccFEEOUj.ltrans12.ltrans.o
VectorB4                                          build/obj/vectors.o (symbol from plugin)
VectorB8                                          build/obj/vectors.o (symbol from plugin)
VectorBC                                          build/obj/vectors.o (symbol from plugin)
VectorC0                                          build/obj/vectors.o (symbol from plugin)
VectorC4                                          build/obj/vectors.o (symbol from plugin)
VectorC8                                          build/obj/vectors.o (symbol from plugin)
VectorCC                                          build/obj/vectors.o (symbol from plugin)
VectorD0                                          build/obj/vectors.o (symbol from plugin)
VectorD4                                          build/obj/vectors.o (symbol from plugin)
VectorD8                                          build/obj/vectors.o (symbol from plugin)
VectorDC                                          build/obj/vectors.o (symbol from plugin)
VectorE0                                          build/obj/vectors.o (symbol from plugin)
VectorE4                                          build/obj/vectors.o (symbol from plugin)
VectorE8                                          build/obj/vectors.o (symbol from plugin)
VectorEC                                          build/obj/vectors.o (symbol from plugin)
VectorF0                                          build/obj/vectors.o (symbol from plugin)
VectorF4                                          build/obj/vectors.o (symbol from plugin)
VectorF8                                          build/obj/vectors.o (symbol from plugin)
VectorFC                                          build/obj/vectors.o (symbol from plugin)
__core_init                                       /tmp/ccFEEOUj.ltrans12.ltrans.o
                                                  build/obj/crt1.o (symbol from plugin)
                                                  build/obj/crt0_v7m.o
__default_exit                                    /tmp/ccFEEOUj.ltrans12.ltrans.o
                                                  build/obj/crt1.o (symbol from plugin)
                                                  build/obj/crt0_v7m.o
__early_init                                      /tmp/ccFEEOUj.ltrans6.ltrans.o
                                                  build/obj/board.o (symbol from plugin)
                                                  build/obj/crt1.o (symbol from plugin)
                                                  build/obj/crt0_v7m.o
__fini_array_end                                  build/obj/crt0_v7m.o
__fini_array_start                                build/obj/crt0_v7m.o
__func__.5915.11406                               /tmp/ccFEEOUj.ltrans12.ltrans.o
                                                  /tmp/ccFEEOUj.ltrans6.ltrans.o
__func__.5915.11684                               /tmp/ccFEEOUj.ltrans12.ltrans.o
                                                  /tmp/ccFEEOUj.ltrans5.ltrans.o
__func__.5915.11979                               /tmp/ccFEEOUj.ltrans12.ltrans.o
                                                  /tmp/ccFEEOUj.ltrans5.ltrans.o
__func__.5915.12268                               /tmp/ccFEEOUj.ltrans12.ltrans.o
                                                  /tmp/ccFEEOUj.ltrans5.ltrans.o
__func__.5915.12679                               /tmp/ccFEEOUj.ltrans12.ltrans.o
                                                  /tmp/ccFEEOUj.ltrans4.ltrans.o
__func__.5915.12946                               /tmp/ccFEEOUj.ltrans12.ltrans.o
                                                  /tmp/ccFEEOUj.ltrans3.ltrans.o
__func__.5915.13650                               /tmp/ccFEEOUj.ltrans12.ltrans.o
                                                  /tmp/ccFEEOUj.ltrans2.ltrans.o
__func__.5915.13914                               /tmp/ccFEEOUj.ltrans12.ltrans.o
                                                  /tmp/ccFEEOUj.ltrans2.ltrans.o
__func__.5915.14211                               /tmp/ccFEEOUj.ltrans12.ltrans.o
                                                  /tmp/ccFEEOUj.ltrans1.ltrans.o
__func__.5915.6216                                /tmp/ccFEEOUj.ltrans12.ltrans.o
                                                  /tmp/ccFEEOUj.ltrans11.ltrans.o
__func__.5915.6395                                /tmp/ccFEEOUj.ltrans12.ltrans.o
                                                  /tmp/ccFEEOUj.ltrans11.ltrans.o
__func__.5915.6652                                /tmp/ccFEEOUj.ltrans12.ltrans.o
                                                  /tmp/ccFEEOUj.ltrans11.ltrans.o
__func__.5915.6879                                /tmp/ccFEEOUj.ltrans12.ltrans.o
                                                  /tmp/ccFEEOUj.ltrans11.ltrans.o
__func__.5915.7116                                /tmp/ccFEEOUj.ltrans12.ltrans.o
                                                  /tmp/ccFEEOUj.ltrans10.ltrans.o
__func__.5915.7374                                /tmp/ccFEEOUj.ltrans12.ltrans.o
                                                  /tmp/ccFEEOUj.ltrans10.ltrans.o
__func__.5915.7583                                /tmp/ccFEEOUj.ltrans12.ltrans.o
                                                  /tmp/ccFEEOUj.ltrans10.ltrans.o
__func__.5915.7827                                /tmp/ccFEEOUj.ltrans12.ltrans.o
                                                  /tmp/ccFEEOUj.ltrans10.ltrans.o
__func__.5915.8093                                /tmp/ccFEEOUj.ltrans12.ltrans.o
                                                  /tmp/ccFEEOUj.ltrans10.ltrans.o
__func__.5915.8280                                /tmp/ccFEEOUj.ltrans12.ltrans.o
                                                  /tmp/ccFEEOUj.ltrans9.ltrans.o
__func__.5915.8620                                /tmp/ccFEEOUj.ltrans12.ltrans.o
                                                  /tmp/ccFEEOUj.ltrans9.ltrans.o
__func__.5915.9712                                /tmp/ccFEEOUj.ltrans12.ltrans.o
                                                  /tmp/ccFEEOUj.ltrans8.ltrans.o
__func__.6247.10186                               /tmp/ccFEEOUj.ltrans12.ltrans.o
                                                  /tmp/ccFEEOUj.ltrans8.ltrans.o
__func__.6247.11053                               /tmp/ccFEEOUj.ltrans12.ltrans.o
                                                  /tmp/ccFEEOUj.ltrans7.ltrans.o
__func__.6247.14531                               /tmp/ccFEEOUj.ltrans12.ltrans.o
                                                  /tmp/ccFEEOUj.ltrans1.ltrans.o
__func__.6247.9100                                /tmp/ccFEEOUj.ltrans12.ltrans.o
                                                  /tmp/ccFEEOUj.ltrans9.ltrans.o
__func__.6417.11052                               /tmp/ccFEEOUj.ltrans12.ltrans.o
                                                  /tmp/ccFEEOUj.ltrans7.ltrans.o
__func__.6613.6217                                /tmp/ccFEEOUj.ltrans12.ltrans.o
                                                  /tmp/ccFEEOUj.ltrans11.ltrans.o
__func__.6613.6880                                /tmp/ccFEEOUj.ltrans12.ltrans.o
                                                  /tmp/ccFEEOUj.ltrans11.ltrans.o
__func__.6613.7117                                /tmp/ccFEEOUj.ltrans12.ltrans.o
                                                  /tmp/ccFEEOUj.ltrans10.ltrans.o
__func__.6614.6653                                /tmp/ccFEEOUj.ltrans12.ltrans.o
                                                  /tmp/ccFEEOUj.ltrans11.ltrans.o
__func__.6615.7584                                /tmp/ccFEEOUj.ltrans12.ltrans.o
                                                  /tmp/ccFEEOUj.ltrans10.ltrans.o
__func__.6615.7828                                /tmp/ccFEEOUj.ltrans12.ltrans.o
                                                  /tmp/ccFEEOUj.ltrans10.ltrans.o
__func__.6615.8621                                /tmp/ccFEEOUj.ltrans12.ltrans.o
                                                  /tmp/ccFEEOUj.ltrans9.ltrans.o
__func__.6616.7375                                /tmp/ccFEEOUj.ltrans12.ltrans.o
                                                  /tmp/ccFEEOUj.ltrans10.ltrans.o
__func__.6617.7118                                /tmp/ccFEEOUj.ltrans12.ltrans.o
                                                  /tmp/ccFEEOUj.ltrans10.ltrans.o
__func__.6618.6218                                /tmp/ccFEEOUj.ltrans12.ltrans.o
                                                  /tmp/ccFEEOUj.ltrans11.ltrans.o
__func__.6619.6396                                /tmp/ccFEEOUj.ltrans12.ltrans.o
                                                  /tmp/ccFEEOUj.ltrans11.ltrans.o
__func__.6620.8418                                /tmp/ccFEEOUj.ltrans12.ltrans.o
                                                  /tmp/ccFEEOUj.ltrans9.ltrans.o
__func__.6621.6881                                /tmp/ccFEEOUj.ltrans12.ltrans.o
                                                  /tmp/ccFEEOUj.ltrans11.ltrans.o
__func__.6621.7119                                /tmp/ccFEEOUj.ltrans12.ltrans.o
                                                  /tmp/ccFEEOUj.ltrans10.ltrans.o
__func__.6621.8624                                /tmp/ccFEEOUj.ltrans12.ltrans.o
                                                  /tmp/ccFEEOUj.ltrans9.ltrans.o
__func__.6622.7376                                /tmp/ccFEEOUj.ltrans12.ltrans.o
                                                  /tmp/ccFEEOUj.ltrans10.ltrans.o
__func__.6622.7829                                /tmp/ccFEEOUj.ltrans12.ltrans.o
                                                  /tmp/ccFEEOUj.ltrans10.ltrans.o
__func__.6624.6654                                /tmp/ccFEEOUj.ltrans12.ltrans.o
                                                  /tmp/ccFEEOUj.ltrans11.ltrans.o
__func__.6624.7585                                /tmp/ccFEEOUj.ltrans12.ltrans.o
                                                  /tmp/ccFEEOUj.ltrans10.ltrans.o
__func__.6629.7120                                /tmp/ccFEEOUj.ltrans12.ltrans.o
                                                  /tmp/ccFEEOUj.ltrans10.ltrans.o
__func__.6629.8622                                /tmp/ccFEEOUj.ltrans12.ltrans.o
                                                  /tmp/ccFEEOUj.ltrans9.ltrans.o
__func__.6635.6655                                /tmp/ccFEEOUj.ltrans12.ltrans.o
                                                  /tmp/ccFEEOUj.ltrans11.ltrans.o
__func__.6635.7830                                /tmp/ccFEEOUj.ltrans12.ltrans.o
                                                  /tmp/ccFEEOUj.ltrans10.ltrans.o
__func__.6637.8419                                /tmp/ccFEEOUj.ltrans12.ltrans.o
                                                  /tmp/ccFEEOUj.ltrans9.ltrans.o
__func__.6638.6882                                /tmp/ccFEEOUj.ltrans12.ltrans.o
                                                  /tmp/ccFEEOUj.ltrans10.ltrans.o
__func__.6638.7378                                /tmp/ccFEEOUj.ltrans12.ltrans.o
                                                  /tmp/ccFEEOUj.ltrans10.ltrans.o
__func__.6639.8623                                /tmp/ccFEEOUj.ltrans12.ltrans.o
                                                  /tmp/ccFEEOUj.ltrans9.ltrans.o
__func__.6640.6219                                /tmp/ccFEEOUj.ltrans12.ltrans.o
                                                  /tmp/ccFEEOUj.ltrans11.ltrans.o
__func__.6640.7831                                /tmp/ccFEEOUj.ltrans12.ltrans.o
                                                  /tmp/ccFEEOUj.ltrans10.ltrans.o
__func__.6641.8094                                /tmp/ccFEEOUj.ltrans12.ltrans.o
                                                  /tmp/ccFEEOUj.ltrans9.ltrans.o
__func__.6643.7121                                /tmp/ccFEEOUj.ltrans12.ltrans.o
                                                  /tmp/ccFEEOUj.ltrans10.ltrans.o
__func__.6644.6883                                /tmp/ccFEEOUj.ltrans12.ltrans.o
                                                  /tmp/ccFEEOUj.ltrans10.ltrans.o
__func__.6645.6656                                /tmp/ccFEEOUj.ltrans12.ltrans.o
                                                  /tmp/ccFEEOUj.ltrans11.ltrans.o
__func__.6646.5583                                /tmp/ccFEEOUj.ltrans12.ltrans.o
                                                  /tmp/ccFEEOUj.ltrans11.ltrans.o
__func__.6649.6657                                /tmp/ccFEEOUj.ltrans12.ltrans.o
                                                  /tmp/ccFEEOUj.ltrans11.ltrans.o
__func__.6650.7379                                /tmp/ccFEEOUj.ltrans12.ltrans.o
                                                  /tmp/ccFEEOUj.ltrans10.ltrans.o
__func__.6653.6658                                /tmp/ccFEEOUj.ltrans12.ltrans.o
                                                  /tmp/ccFEEOUj.ltrans11.ltrans.o
__func__.6653.7832                                /tmp/ccFEEOUj.ltrans12.ltrans.o
                                                  /tmp/ccFEEOUj.ltrans10.ltrans.o
__func__.6655.6884                                /tmp/ccFEEOUj.ltrans12.ltrans.o
                                                  /tmp/ccFEEOUj.ltrans10.ltrans.o
__func__.6655.7122                                /tmp/ccFEEOUj.ltrans12.ltrans.o
                                                  /tmp/ccFEEOUj.ltrans10.ltrans.o
__func__.6655.7377                                /tmp/ccFEEOUj.ltrans12.ltrans.o
                                                  /tmp/ccFEEOUj.ltrans10.ltrans.o
__func__.6658.7833                                /tmp/ccFEEOUj.ltrans12.ltrans.o
                                                  /tmp/ccFEEOUj.ltrans10.ltrans.o
__func__.6659.6659                                /tmp/ccFEEOUj.ltrans12.ltrans.o
                                                  /tmp/ccFEEOUj.ltrans11.ltrans.o
__func__.6668.6660                                /tmp/ccFEEOUj.ltrans12.ltrans.o
                                                  /tmp/ccFEEOUj.ltrans11.ltrans.o
__func__.6669.7380                                /tmp/ccFEEOUj.ltrans12.ltrans.o
                                                  /tmp/ccFEEOUj.ltrans10.ltrans.o
__func__.6671.7834                                /tmp/ccFEEOUj.ltrans12.ltrans.o
                                                  /tmp/ccFEEOUj.ltrans10.ltrans.o
__func__.6674.5584                                /tmp/ccFEEOUj.ltrans12.ltrans.o
                                                  /tmp/ccFEEOUj.ltrans11.ltrans.o
__func__.6676.7835                                /tmp/ccFEEOUj.ltrans12.ltrans.o
                                                  /tmp/ccFEEOUj.ltrans10.ltrans.o
__func__.6677.8095                                /tmp/ccFEEOUj.ltrans12.ltrans.o
                                                  /tmp/ccFEEOUj.ltrans9.ltrans.o
__func__.6679.5585                                /tmp/ccFEEOUj.ltrans12.ltrans.o
                                                  /tmp/ccFEEOUj.ltrans11.ltrans.o
__func__.6684.5586                                /tmp/ccFEEOUj.ltrans12.ltrans.o
                                                  /tmp/ccFEEOUj.ltrans11.ltrans.o
__func__.6690.5587                                /tmp/ccFEEOUj.ltrans12.ltrans.o
                                                  /tmp/ccFEEOUj.ltrans11.ltrans.o
__func__.6696.5588                                /tmp/ccFEEOUj.ltrans12.ltrans.o
                                                  /tmp/ccFEEOUj.ltrans11.ltrans.o
__func__.6702.5589                                /tmp/ccFEEOUj.ltrans12.ltrans.o
                                                  /tmp/ccFEEOUj.ltrans11.ltrans.o
__func__.7424.9197                                /tmp/ccFEEOUj.ltrans12.ltrans.o
                                                  /tmp/ccFEEOUj.ltrans8.ltrans.o
__func__.7427.8762                                /tmp/ccFEEOUj.ltrans12.ltrans.o
                                                  /tmp/ccFEEOUj.ltrans9.ltrans.o
__func__.7429.9198                                /tmp/ccFEEOUj.ltrans12.ltrans.o
                                                  /tmp/ccFEEOUj.ltrans8.ltrans.o
__func__.7432.10258                               /tmp/ccFEEOUj.ltrans12.ltrans.o
                                                  /tmp/ccFEEOUj.ltrans7.ltrans.o
__func__.7434.8763                                /tmp/ccFEEOUj.ltrans12.ltrans.o
                                                  /tmp/ccFEEOUj.ltrans9.ltrans.o
__func__.7434.9199                                /tmp/ccFEEOUj.ltrans12.ltrans.o
                                                  /tmp/ccFEEOUj.ltrans8.ltrans.o
__func__.7438.8764                                /tmp/ccFEEOUj.ltrans12.ltrans.o
                                                  /tmp/ccFEEOUj.ltrans9.ltrans.o
__func__.7483.9714                                /tmp/ccFEEOUj.ltrans12.ltrans.o
                                                  /tmp/ccFEEOUj.ltrans8.ltrans.o
__func__.7488.9715                                /tmp/ccFEEOUj.ltrans12.ltrans.o
                                                  /tmp/ccFEEOUj.ltrans8.ltrans.o
__func__.7496.9716                                /tmp/ccFEEOUj.ltrans12.ltrans.o
                                                  /tmp/ccFEEOUj.ltrans8.ltrans.o
__func__.7509.9724                                /tmp/ccFEEOUj.ltrans12.ltrans.o
                                                  /tmp/ccFEEOUj.ltrans8.ltrans.o
__func__.7761.9101                                /tmp/ccFEEOUj.ltrans12.ltrans.o
                                                  /tmp/ccFEEOUj.ltrans9.ltrans.o
__func__.7772.9102                                /tmp/ccFEEOUj.ltrans12.ltrans.o
                                                  /tmp/ccFEEOUj.ltrans9.ltrans.o
__func__.7786.9103                                /tmp/ccFEEOUj.ltrans12.ltrans.o
                                                  /tmp/ccFEEOUj.ltrans9.ltrans.o
__func__.7793.9104                                /tmp/ccFEEOUj.ltrans12.ltrans.o
                                                  /tmp/ccFEEOUj.ltrans9.ltrans.o
__func__.7804.11054                               /tmp/ccFEEOUj.ltrans12.ltrans.o
                                                  /tmp/ccFEEOUj.ltrans7.ltrans.o
__func__.7808.10190                               /tmp/ccFEEOUj.ltrans12.ltrans.o
                                                  /tmp/ccFEEOUj.ltrans8.ltrans.o
__func__.7810.11055                               /tmp/ccFEEOUj.ltrans12.ltrans.o
                                                  /tmp/ccFEEOUj.ltrans7.ltrans.o
__func__.7816.10191                               /tmp/ccFEEOUj.ltrans12.ltrans.o
                                                  /tmp/ccFEEOUj.ltrans8.ltrans.o
__func__.7819.9105                                /tmp/ccFEEOUj.ltrans12.ltrans.o
                                                  /tmp/ccFEEOUj.ltrans9.ltrans.o
__func__.7825.10192                               /tmp/ccFEEOUj.ltrans12.ltrans.o
                                                  /tmp/ccFEEOUj.ltrans7.ltrans.o
__func__.7830.10193                               /tmp/ccFEEOUj.ltrans12.ltrans.o
                                                  /tmp/ccFEEOUj.ltrans7.ltrans.o
__func__.7830.9106                                /tmp/ccFEEOUj.ltrans12.ltrans.o
                                                  /tmp/ccFEEOUj.ltrans9.ltrans.o
__func__.7841.10194                               /tmp/ccFEEOUj.ltrans12.ltrans.o
                                                  /tmp/ccFEEOUj.ltrans7.ltrans.o
__func__.7844.9107                                /tmp/ccFEEOUj.ltrans12.ltrans.o
                                                  /tmp/ccFEEOUj.ltrans9.ltrans.o
__func__.7849.10195                               /tmp/ccFEEOUj.ltrans12.ltrans.o
                                                  /tmp/ccFEEOUj.ltrans7.ltrans.o
__func__.7853.9108                                /tmp/ccFEEOUj.ltrans12.ltrans.o
                                                  /tmp/ccFEEOUj.ltrans8.ltrans.o
__func__.7854.10196                               /tmp/ccFEEOUj.ltrans12.ltrans.o
                                                  /tmp/ccFEEOUj.ltrans7.ltrans.o
__func__.7859.10197                               /tmp/ccFEEOUj.ltrans12.ltrans.o
                                                  /tmp/ccFEEOUj.ltrans7.ltrans.o
__func__.7889.10198                               /tmp/ccFEEOUj.ltrans12.ltrans.o
                                                  /tmp/ccFEEOUj.ltrans7.ltrans.o
__func__.7903.10199                               /tmp/ccFEEOUj.ltrans12.ltrans.o
                                                  /tmp/ccFEEOUj.ltrans7.ltrans.o
__heap_base__                                     /tmp/ccFEEOUj.ltrans9.ltrans.o
                                                  build/obj/chmemcore.o (symbol from plugin)
__heap_end__                                      /tmp/ccFEEOUj.ltrans9.ltrans.o
                                                  build/obj/chmemcore.o (symbol from plugin)
__init_array_end                                  build/obj/crt0_v7m.o
__init_array_start                                build/obj/crt0_v7m.o
__init_ram_areas                                  /tmp/ccFEEOUj.ltrans12.ltrans.o
                                                  build/obj/crt1.o (symbol from plugin)
                                                  build/obj/crt0_v7m.o
__late_init                                       /tmp/ccFEEOUj.ltrans12.ltrans.o
                                                  build/obj/crt1.o (symbol from plugin)
                                                  build/obj/crt0_v7m.o
__main_stack_base__                               build/obj/crt0_v7m.o
__main_stack_end__                                /tmp/ccFEEOUj.ltrans12.ltrans.o
                                                  build/obj/vectors.o (symbol from plugin)
                                                  build/obj/crt0_v7m.o
__main_thread_stack_base__                        /tmp/ccFEEOUj.ltrans12.ltrans.o
                                                  build/obj/chsys.o (symbol from plugin)
__process_stack_base__                            build/obj/crt0_v7m.o
__process_stack_end__                             build/obj/crt0_v7m.o
__ram0_clear__                                    /tmp/ccFEEOUj.ltrans12.ltrans.o
                                                  build/obj/crt1.o (symbol from plugin)
__ram0_init__                                     /tmp/ccFEEOUj.ltrans12.ltrans.o
                                                  build/obj/crt1.o (symbol from plugin)
__ram0_init_text__                                /tmp/ccFEEOUj.ltrans12.ltrans.o
                                                  build/obj/crt1.o (symbol from plugin)
__ram0_noinit__                                   /tmp/ccFEEOUj.ltrans12.ltrans.o
                                                  build/obj/crt1.o (symbol from plugin)
__ram1_clear__                                    /tmp/ccFEEOUj.ltrans12.ltrans.o
                                                  build/obj/crt1.o (symbol from plugin)
__ram1_init__                                     /tmp/ccFEEOUj.ltrans12.ltrans.o
                                                  build/obj/crt1.o (symbol from plugin)
__ram1_init_text__                                /tmp/ccFEEOUj.ltrans12.ltrans.o
                                                  build/obj/crt1.o (symbol from plugin)
__ram1_noinit__                                   /tmp/ccFEEOUj.ltrans12.ltrans.o
                                                  build/obj/crt1.o (symbol from plugin)
__ram2_clear__                                    /tmp/ccFEEOUj.ltrans12.ltrans.o
                                                  build/obj/crt1.o (symbol from plugin)
__ram2_init__                                     /tmp/ccFEEOUj.ltrans12.ltrans.o
                                                  build/obj/crt1.o (symbol from plugin)
__ram2_init_text__                                /tmp/ccFEEOUj.ltrans12.ltrans.o
                                                  build/obj/crt1.o (symbol from plugin)
__ram2_noinit__                                   /tmp/ccFEEOUj.ltrans12.ltrans.o
                                                  build/obj/crt1.o (symbol from plugin)
__ram3_clear__                                    /tmp/ccFEEOUj.ltrans12.ltrans.o
                                                  build/obj/crt1.o (symbol from plugin)
__ram3_init__                                     /tmp/ccFEEOUj.ltrans12.ltrans.o
                                                  build/obj/crt1.o (symbol from plugin)
__ram3_init_text__                                /tmp/ccFEEOUj.ltrans12.ltrans.o
                                                  build/obj/crt1.o (symbol from plugin)
__ram3_noinit__                                   /tmp/ccFEEOUj.ltrans12.ltrans.o
                                                  build/obj/crt1.o (symbol from plugin)
__ram4_clear__                                    /tmp/ccFEEOUj.ltrans12.ltrans.o
                                                  build/obj/crt1.o (symbol from plugin)
__ram4_init__                                     /tmp/ccFEEOUj.ltrans12.ltrans.o
                                                  build/obj/crt1.o (symbol from plugin)
__ram4_init_text__                                /tmp/ccFEEOUj.ltrans12.ltrans.o
                                                  build/obj/crt1.o (symbol from plugin)
__ram4_noinit__                                   /tmp/ccFEEOUj.ltrans12.ltrans.o
                                                  build/obj/crt1.o (symbol from plugin)
__ram5_clear__                                    /tmp/ccFEEOUj.ltrans12.ltrans.o
                                                  build/obj/crt1.o (symbol from plugin)
__ram5_init__                                     /tmp/ccFEEOUj.ltrans12.ltrans.o
                                                  build/obj/crt1.o (symbol from plugin)
__ram5_init_text__                                /tmp/ccFEEOUj.ltrans12.ltrans.o
                                                  build/obj/crt1.o (symbol from plugin)
__ram5_noinit__                                   /tmp/ccFEEOUj.ltrans12.ltrans.o
                                                  build/obj/crt1.o (symbol from plugin)
__ram6_clear__                                    /tmp/ccFEEOUj.ltrans12.ltrans.o
                                                  build/obj/crt1.o (symbol from plugin)
__ram6_init__                                     /tmp/ccFEEOUj.ltrans12.ltrans.o
                                                  build/obj/crt1.o (symbol from plugin)
__ram6_init_text__                                /tmp/ccFEEOUj.ltrans12.ltrans.o
                                                  build/obj/crt1.o (symbol from plugin)
__ram6_noinit__                                   /tmp/ccFEEOUj.ltrans12.ltrans.o
                                                  build/obj/crt1.o (symbol from plugin)
__ram7_clear__                                    /tmp/ccFEEOUj.ltrans12.ltrans.o
                                                  build/obj/crt1.o (symbol from plugin)
__ram7_init__                                     /tmp/ccFEEOUj.ltrans12.ltrans.o
                                                  build/obj/crt1.o (symbol from plugin)
__ram7_init_text__                                /tmp/ccFEEOUj.ltrans12.ltrans.o
                                                  build/obj/crt1.o (symbol from plugin)
__ram7_noinit__                                   /tmp/ccFEEOUj.ltrans12.ltrans.o
                                                  build/obj/crt1.o (symbol from plugin)
_bss_end                                          build/obj/crt0_v7m.o
_bss_start                                        build/obj/crt0_v7m.o
_core_init                                        /tmp/ccFEEOUj.ltrans9.ltrans.o
                                                  build/obj/chmemcore.o (symbol from plugin)
                                                  /tmp/ccFEEOUj.ltrans12.ltrans.o
                                                  build/obj/chsys.o (symbol from plugin)
_data_end                                         build/obj/crt0_v7m.o
_data_start                                       build/obj/crt0_v7m.o
_dbg_check_disable                                /tmp/ccFEEOUj.ltrans12.ltrans.o
                                                  build/obj/chdebug.o (symbol from plugin)
                                                  /tmp/ccFEEOUj.ltrans2.ltrans.o
                                                  build/obj/testsys.o (symbol from plugin)
_dbg_check_enable                                 /tmp/ccFEEOUj.ltrans12.ltrans.o
                                                  build/obj/chdebug.o (symbol from plugin)
                                                  /tmp/ccFEEOUj.ltrans2.ltrans.o
                                                  build/obj/testsys.o (symbol from plugin)
                                                  build/obj/chsys.o (symbol from plugin)
_dbg_check_enter_isr                              /tmp/ccFEEOUj.ltrans12.ltrans.o
                                                  build/obj/chdebug.o (symbol from plugin)
                                                  /tmp/ccFEEOUj.ltrans7.ltrans.o
                                                  /tmp/ccFEEOUj.ltrans6.ltrans.o
                                                  build/obj/usb_lld.o (symbol from plugin)
                                                  build/obj/st_lld.o (symbol from plugin)
_dbg_check_leave_isr                              /tmp/ccFEEOUj.ltrans12.ltrans.o
                                                  build/obj/chdebug.o (symbol from plugin)
                                                  /tmp/ccFEEOUj.ltrans7.ltrans.o
                                                  /tmp/ccFEEOUj.ltrans6.ltrans.o
                                                  build/obj/usb_lld.o (symbol from plugin)
                                                  build/obj/st_lld.o (symbol from plugin)
_dbg_check_lock                                   /tmp/ccFEEOUj.ltrans12.ltrans.o
                                                  build/obj/chdebug.o (symbol from plugin)
                                                  /tmp/ccFEEOUj.ltrans11.ltrans.o
                                                  /tmp/ccFEEOUj.ltrans10.ltrans.o
                                                  /tmp/ccFEEOUj.ltrans9.ltrans.o
                                                  /tmp/ccFEEOUj.ltrans8.ltrans.o
                                                  /tmp/ccFEEOUj.ltrans7.ltrans.o
                                                  /tmp/ccFEEOUj.ltrans6.ltrans.o
                                                  /tmp/ccFEEOUj.ltrans5.ltrans.o
                                                  /tmp/ccFEEOUj.ltrans4.ltrans.o
                                                  /tmp/ccFEEOUj.ltrans3.ltrans.o
                                                  /tmp/ccFEEOUj.ltrans2.ltrans.o
                                                  /tmp/ccFEEOUj.ltrans1.ltrans.o
                                                  build/obj/shell.o (symbol from plugin)
                                                  build/obj/testbmk.o (symbol from plugin)
                                                  build/obj/testsys.o (symbol from plugin)
                                                  build/obj/testqueues.o (symbol from plugin)
                                                  build/obj/testevt.o (symbol from plugin)
                                                  build/obj/testmbox.o (symbol from plugin)
                                                  build/obj/testmtx.o (symbol from plugin)
                                                  build/obj/testsem.o (symbol from plugin)
                                                  build/obj/testthd.o (symbol from plugin)
                                                  build/obj/test.o (symbol from plugin)
                                                  build/obj/usb_lld.o (symbol from plugin)
                                                  build/obj/usb.o (symbol from plugin)
                                                  build/obj/serial_usb.o (symbol from plugin)
                                                  build/obj/hal_buffers.o (symbol from plugin)
                                                  build/obj/chmempools.o (symbol from plugin)
                                                  build/obj/chmemcore.o (symbol from plugin)
                                                  build/obj/chqueues.o (symbol from plugin)
                                                  build/obj/chmboxes.o (symbol from plugin)
                                                  build/obj/chmsg.o (symbol from plugin)
                                                  build/obj/chevents.o (symbol from plugin)
                                                  build/obj/chcond.o (symbol from plugin)
                                                  build/obj/chmtx.o (symbol from plugin)
                                                  build/obj/chsem.o (symbol from plugin)
                                                  build/obj/chregistry.o (symbol from plugin)
                                                  build/obj/chdynamic.o (symbol from plugin)
                                                  build/obj/chthreads.o (symbol from plugin)
                                                  build/obj/chsys.o (symbol from plugin)
                                                  build/obj/chcoreasm_v7m.o
_dbg_check_lock_from_isr                          /tmp/ccFEEOUj.ltrans12.ltrans.o
                                                  build/obj/chdebug.o (symbol from plugin)
                                                  /tmp/ccFEEOUj.ltrans8.ltrans.o
                                                  /tmp/ccFEEOUj.ltrans7.ltrans.o
                                                  /tmp/ccFEEOUj.ltrans2.ltrans.o
                                                  /tmp/ccFEEOUj.ltrans0.ltrans.o
                                                  build/obj/usbcfg.o (symbol from plugin)
                                                  build/obj/testsys.o (symbol from plugin)
                                                  build/obj/usb_lld.o (symbol from plugin)
                                                  build/obj/st_lld.o (symbol from plugin)
                                                  build/obj/usb.o (symbol from plugin)
                                                  build/obj/serial_usb.o (symbol from plugin)
                                                  build/obj/chschd.o (symbol from plugin)
                                                  build/obj/chsys.o (symbol from plugin)
_dbg_check_suspend                                /tmp/ccFEEOUj.ltrans12.ltrans.o
                                                  build/obj/chdebug.o (symbol from plugin)
                                                  /tmp/ccFEEOUj.ltrans2.ltrans.o
                                                  build/obj/testsys.o (symbol from plugin)
_dbg_check_unlock                                 /tmp/ccFEEOUj.ltrans12.ltrans.o
                                                  build/obj/chdebug.o (symbol from plugin)
                                                  /tmp/ccFEEOUj.ltrans11.ltrans.o
                                                  /tmp/ccFEEOUj.ltrans10.ltrans.o
                                                  /tmp/ccFEEOUj.ltrans9.ltrans.o
                                                  /tmp/ccFEEOUj.ltrans8.ltrans.o
                                                  /tmp/ccFEEOUj.ltrans7.ltrans.o
                                                  /tmp/ccFEEOUj.ltrans6.ltrans.o
                                                  /tmp/ccFEEOUj.ltrans5.ltrans.o
                                                  /tmp/ccFEEOUj.ltrans4.ltrans.o
                                                  /tmp/ccFEEOUj.ltrans3.ltrans.o
                                                  /tmp/ccFEEOUj.ltrans2.ltrans.o
                                                  /tmp/ccFEEOUj.ltrans1.ltrans.o
                                                  build/obj/shell.o (symbol from plugin)
                                                  build/obj/testbmk.o (symbol from plugin)
                                                  build/obj/testsys.o (symbol from plugin)
                                                  build/obj/testqueues.o (symbol from plugin)
                                                  build/obj/testevt.o (symbol from plugin)
                                                  build/obj/testmbox.o (symbol from plugin)
                                                  build/obj/testmtx.o (symbol from plugin)
                                                  build/obj/testsem.o (symbol from plugin)
                                                  build/obj/testthd.o (symbol from plugin)
                                                  build/obj/test.o (symbol from plugin)
                                                  build/obj/usb_lld.o (symbol from plugin)
                                                  build/obj/usb.o (symbol from plugin)
                                                  build/obj/serial_usb.o (symbol from plugin)
                                                  build/obj/hal_buffers.o (symbol from plugin)
                                                  build/obj/chmempools.o (symbol from plugin)
                                                  build/obj/chmemcore.o (symbol from plugin)
                                                  build/obj/chqueues.o (symbol from plugin)
                                                  build/obj/chmboxes.o (symbol from plugin)
                                                  build/obj/chmsg.o (symbol from plugin)
                                                  build/obj/chevents.o (symbol from plugin)
                                                  build/obj/chcond.o (symbol from plugin)
                                                  build/obj/chmtx.o (symbol from plugin)
                                                  build/obj/chsem.o (symbol from plugin)
                                                  build/obj/chregistry.o (symbol from plugin)
                                                  build/obj/chdynamic.o (symbol from plugin)
                                                  build/obj/chthreads.o (symbol from plugin)
                                                  build/obj/chsys.o (symbol from plugin)
                                                  build/obj/chcoreasm_v7m.o
_dbg_check_unlock_from_isr                        /tmp/ccFEEOUj.ltrans12.ltrans.o
                                                  build/obj/chdebug.o (symbol from plugin)
                                                  /tmp/ccFEEOUj.ltrans8.ltrans.o
                                                  /tmp/ccFEEOUj.ltrans7.ltrans.o
                                                  /tmp/ccFEEOUj.ltrans2.ltrans.o
                                                  /tmp/ccFEEOUj.ltrans0.ltrans.o
                                                  build/obj/usbcfg.o (symbol from plugin)
                                                  build/obj/testsys.o (symbol from plugin)
                                                  build/obj/usb_lld.o (symbol from plugin)
                                                  build/obj/st_lld.o (symbol from plugin)
                                                  build/obj/usb.o (symbol from plugin)
                                                  build/obj/serial_usb.o (symbol from plugin)
                                                  build/obj/chschd.o (symbol from plugin)
                                                  build/obj/chsys.o (symbol from plugin)
_dbg_trace                                        build/obj/chdebug.o (symbol from plugin)
                                                  build/obj/chschd.o (symbol from plugin)
_dbg_trace_init                                   build/obj/chdebug.o (symbol from plugin)
                                                  build/obj/chsys.o (symbol from plugin)
_heap_init                                        /tmp/ccFEEOUj.ltrans9.ltrans.o
                                                  build/obj/chheap.o (symbol from plugin)
                                                  /tmp/ccFEEOUj.ltrans12.ltrans.o
                                                  build/obj/chsys.o (symbol from plugin)
_pal_lld_init                                     /tmp/ccFEEOUj.ltrans7.ltrans.o
                                                  build/obj/pal_lld.o (symbol from plugin)
                                                  /tmp/ccFEEOUj.ltrans9.ltrans.o
                                                  build/obj/hal.o (symbol from plugin)
_pal_lld_setgroupmode                             /tmp/ccFEEOUj.ltrans7.ltrans.o
                                                  build/obj/pal_lld.o (symbol from plugin)
                                                  /tmp/ccFEEOUj.ltrans8.ltrans.o
                                                  build/obj/pal.o (symbol from plugin)
_port_exit_from_isr                               build/obj/chcoreasm_v7m.o
                                                  /tmp/ccFEEOUj.ltrans9.ltrans.o
                                                  build/obj/chcore_v7m.o (symbol from plugin)
_port_irq_epilogue                                /tmp/ccFEEOUj.ltrans9.ltrans.o
                                                  build/obj/chcore_v7m.o (symbol from plugin)
                                                  /tmp/ccFEEOUj.ltrans7.ltrans.o
                                                  /tmp/ccFEEOUj.ltrans6.ltrans.o
                                                  build/obj/usb_lld.o (symbol from plugin)
                                                  build/obj/st_lld.o (symbol from plugin)
_port_switch                                      build/obj/chcoreasm_v7m.o
                                                  /tmp/ccFEEOUj.ltrans12.ltrans.o
                                                  build/obj/chschd.o (symbol from plugin)
_port_switch_from_isr                             build/obj/chcoreasm_v7m.o
                                                  /tmp/ccFEEOUj.ltrans9.ltrans.o
                                                  build/obj/chcore_v7m.o (symbol from plugin)
_port_thread_start                                build/obj/chcoreasm_v7m.o
                                                  /tmp/ccFEEOUj.ltrans12.ltrans.o
                                                  build/obj/chthreads.o (symbol from plugin)
_scheduler_init                                   build/obj/chschd.o (symbol from plugin)
                                                  build/obj/chsys.o (symbol from plugin)
_stats_ctxswc                                     /tmp/ccFEEOUj.ltrans11.ltrans.o
                                                  build/obj/chstats.o (symbol from plugin)
                                                  /tmp/ccFEEOUj.ltrans12.ltrans.o
                                                  build/obj/chschd.o (symbol from plugin)
_stats_increase_irq                               /tmp/ccFEEOUj.ltrans11.ltrans.o
                                                  build/obj/chstats.o (symbol from plugin)
                                                  /tmp/ccFEEOUj.ltrans7.ltrans.o
                                                  /tmp/ccFEEOUj.ltrans6.ltrans.o
                                                  build/obj/usb_lld.o (symbol from plugin)
                                                  build/obj/st_lld.o (symbol from plugin)
_stats_init                                       /tmp/ccFEEOUj.ltrans11.ltrans.o
                                                  build/obj/chstats.o (symbol from plugin)
                                                  /tmp/ccFEEOUj.ltrans12.ltrans.o
                                                  build/obj/chsys.o (symbol from plugin)
_stats_start_measure_crit_isr                     /tmp/ccFEEOUj.ltrans11.ltrans.o
                                                  build/obj/chstats.o (symbol from plugin)
                                                  /tmp/ccFEEOUj.ltrans12.ltrans.o
                                                  /tmp/ccFEEOUj.ltrans8.ltrans.o
                                                  /tmp/ccFEEOUj.ltrans7.ltrans.o
                                                  /tmp/ccFEEOUj.ltrans2.ltrans.o
                                                  /tmp/ccFEEOUj.ltrans0.ltrans.o
                                                  build/obj/usbcfg.o (symbol from plugin)
                                                  build/obj/testsys.o (symbol from plugin)
                                                  build/obj/usb_lld.o (symbol from plugin)
                                                  build/obj/st_lld.o (symbol from plugin)
                                                  build/obj/usb.o (symbol from plugin)
                                                  build/obj/serial_usb.o (symbol from plugin)
                                                  build/obj/chschd.o (symbol from plugin)
                                                  build/obj/chsys.o (symbol from plugin)
_stats_start_measure_crit_thd                     /tmp/ccFEEOUj.ltrans11.ltrans.o
                                                  build/obj/chstats.o (symbol from plugin)
                                                  /tmp/ccFEEOUj.ltrans12.ltrans.o
                                                  /tmp/ccFEEOUj.ltrans10.ltrans.o
                                                  /tmp/ccFEEOUj.ltrans9.ltrans.o
                                                  /tmp/ccFEEOUj.ltrans8.ltrans.o
                                                  /tmp/ccFEEOUj.ltrans7.ltrans.o
                                                  /tmp/ccFEEOUj.ltrans6.ltrans.o
                                                  /tmp/ccFEEOUj.ltrans5.ltrans.o
                                                  /tmp/ccFEEOUj.ltrans4.ltrans.o
                                                  /tmp/ccFEEOUj.ltrans3.ltrans.o
                                                  /tmp/ccFEEOUj.ltrans2.ltrans.o
                                                  /tmp/ccFEEOUj.ltrans1.ltrans.o
                                                  build/obj/shell.o (symbol from plugin)
                                                  build/obj/testbmk.o (symbol from plugin)
                                                  build/obj/testsys.o (symbol from plugin)
                                                  build/obj/testqueues.o (symbol from plugin)
                                                  build/obj/testevt.o (symbol from plugin)
                                                  build/obj/testmbox.o (symbol from plugin)
                                                  build/obj/testmtx.o (symbol from plugin)
                                                  build/obj/testsem.o (symbol from plugin)
                                                  build/obj/testthd.o (symbol from plugin)
                                                  build/obj/test.o (symbol from plugin)
                                                  build/obj/usb_lld.o (symbol from plugin)
                                                  build/obj/usb.o (symbol from plugin)
                                                  build/obj/serial_usb.o (symbol from plugin)
                                                  build/obj/hal_buffers.o (symbol from plugin)
                                                  build/obj/chmempools.o (symbol from plugin)
                                                  build/obj/chmemcore.o (symbol from plugin)
                                                  build/obj/chqueues.o (symbol from plugin)
                                                  build/obj/chmboxes.o (symbol from plugin)
                                                  build/obj/chmsg.o (symbol from plugin)
                                                  build/obj/chevents.o (symbol from plugin)
                                                  build/obj/chcond.o (symbol from plugin)
                                                  build/obj/chmtx.o (symbol from plugin)
                                                  build/obj/chsem.o (symbol from plugin)
                                                  build/obj/chregistry.o (symbol from plugin)
                                                  build/obj/chdynamic.o (symbol from plugin)
                                                  build/obj/chthreads.o (symbol from plugin)
                                                  build/obj/chsys.o (symbol from plugin)
                                                  build/obj/chcoreasm_v7m.o
_stats_stop_measure_crit_isr                      /tmp/ccFEEOUj.ltrans11.ltrans.o
                                                  build/obj/chstats.o (symbol from plugin)
                                                  /tmp/ccFEEOUj.ltrans12.ltrans.o
                                                  /tmp/ccFEEOUj.ltrans8.ltrans.o
                                                  /tmp/ccFEEOUj.ltrans7.ltrans.o
                                                  /tmp/ccFEEOUj.ltrans2.ltrans.o
                                                  /tmp/ccFEEOUj.ltrans0.ltrans.o
                                                  build/obj/usbcfg.o (symbol from plugin)
                                                  build/obj/testsys.o (symbol from plugin)
                                                  build/obj/usb_lld.o (symbol from plugin)
                                                  build/obj/st_lld.o (symbol from plugin)
                                                  build/obj/usb.o (symbol from plugin)
                                                  build/obj/serial_usb.o (symbol from plugin)
                                                  build/obj/chschd.o (symbol from plugin)
                                                  build/obj/chsys.o (symbol from plugin)
_stats_stop_measure_crit_thd                      /tmp/ccFEEOUj.ltrans11.ltrans.o
                                                  build/obj/chstats.o (symbol from plugin)
                                                  /tmp/ccFEEOUj.ltrans12.ltrans.o
                                                  /tmp/ccFEEOUj.ltrans10.ltrans.o
                                                  /tmp/ccFEEOUj.ltrans9.ltrans.o
                                                  /tmp/ccFEEOUj.ltrans8.ltrans.o
                                                  /tmp/ccFEEOUj.ltrans7.ltrans.o
                                                  /tmp/ccFEEOUj.ltrans6.ltrans.o
                                                  /tmp/ccFEEOUj.ltrans5.ltrans.o
                                                  /tmp/ccFEEOUj.ltrans4.ltrans.o
                                                  /tmp/ccFEEOUj.ltrans3.ltrans.o
                                                  /tmp/ccFEEOUj.ltrans2.ltrans.o
                                                  /tmp/ccFEEOUj.ltrans1.ltrans.o
                                                  build/obj/shell.o (symbol from plugin)
                                                  build/obj/testbmk.o (symbol from plugin)
                                                  build/obj/testsys.o (symbol from plugin)
                                                  build/obj/testqueues.o (symbol from plugin)
                                                  build/obj/testevt.o (symbol from plugin)
                                                  build/obj/testmbox.o (symbol from plugin)
                                                  build/obj/testmtx.o (symbol from plugin)
                                                  build/obj/testsem.o (symbol from plugin)
                                                  build/obj/testthd.o (symbol from plugin)
                                                  build/obj/test.o (symbol from plugin)
                                                  build/obj/usb_lld.o (symbol from plugin)
                                                  build/obj/usb.o (symbol from plugin)
                                                  build/obj/serial_usb.o (symbol from plugin)
                                                  build/obj/hal_buffers.o (symbol from plugin)
                                                  build/obj/chmempools.o (symbol from plugin)
                                                  build/obj/chmemcore.o (symbol from plugin)
                                                  build/obj/chqueues.o (symbol from plugin)
                                                  build/obj/chmboxes.o (symbol from plugin)
                                                  build/obj/chmsg.o (symbol from plugin)
                                                  build/obj/chevents.o (symbol from plugin)
                                                  build/obj/chcond.o (symbol from plugin)
                                                  build/obj/chmtx.o (symbol from plugin)
                                                  build/obj/chsem.o (symbol from plugin)
                                                  build/obj/chregistry.o (symbol from plugin)
                                                  build/obj/chdynamic.o (symbol from plugin)
                                                  build/obj/chthreads.o (symbol from plugin)
                                                  build/obj/chsys.o (symbol from plugin)
                                                  build/obj/chcoreasm_v7m.o
_test_assert                                      /tmp/ccFEEOUj.ltrans6.ltrans.o
                                                  build/obj/test.o (symbol from plugin)
                                                  /tmp/ccFEEOUj.ltrans5.ltrans.o
                                                  /tmp/ccFEEOUj.ltrans4.ltrans.o
                                                  /tmp/ccFEEOUj.ltrans3.ltrans.o
                                                  /tmp/ccFEEOUj.ltrans2.ltrans.o
                                                  /tmp/ccFEEOUj.ltrans1.ltrans.o
                                                  build/obj/testsys.o (symbol from plugin)
                                                  build/obj/testqueues.o (symbol from plugin)
                                                  build/obj/testdyn.o (symbol from plugin)
                                                  build/obj/testpools.o (symbol from plugin)
                                                  build/obj/testheap.o (symbol from plugin)
                                                  build/obj/testevt.o (symbol from plugin)
                                                  build/obj/testmbox.o (symbol from plugin)
                                                  build/obj/testmtx.o (symbol from plugin)
                                                  build/obj/testsem.o (symbol from plugin)
                                                  build/obj/testthd.o (symbol from plugin)
_test_assert_sequence                             /tmp/ccFEEOUj.ltrans6.ltrans.o
                                                  build/obj/test.o (symbol from plugin)
                                                  /tmp/ccFEEOUj.ltrans5.ltrans.o
                                                  /tmp/ccFEEOUj.ltrans4.ltrans.o
                                                  /tmp/ccFEEOUj.ltrans3.ltrans.o
                                                  /tmp/ccFEEOUj.ltrans2.ltrans.o
                                                  build/obj/testqueues.o (symbol from plugin)
                                                  build/obj/testdyn.o (symbol from plugin)
                                                  build/obj/testevt.o (symbol from plugin)
                                                  build/obj/testmbox.o (symbol from plugin)
                                                  build/obj/testmsg.o (symbol from plugin)
                                                  build/obj/testmtx.o (symbol from plugin)
                                                  build/obj/testsem.o (symbol from plugin)
                                                  build/obj/testthd.o (symbol from plugin)
_test_assert_time_window                          /tmp/ccFEEOUj.ltrans6.ltrans.o
                                                  build/obj/test.o (symbol from plugin)
                                                  /tmp/ccFEEOUj.ltrans5.ltrans.o
                                                  /tmp/ccFEEOUj.ltrans3.ltrans.o
                                                  build/obj/testevt.o (symbol from plugin)
                                                  build/obj/testsem.o (symbol from plugin)
                                                  build/obj/testthd.o (symbol from plugin)
_test_fail                                        build/obj/test.o (symbol from plugin)
_textdata_start                                   build/obj/crt0_v7m.o
_thread_init                                      build/obj/chthreads.o (symbol from plugin)
                                                  build/obj/chsys.o (symbol from plugin)
_thread_memfill                                   /tmp/ccFEEOUj.ltrans12.ltrans.o
                                                  build/obj/chthreads.o (symbol from plugin)
                                                  /tmp/ccFEEOUj.ltrans11.ltrans.o
                                                  /tmp/ccFEEOUj.ltrans6.ltrans.o
                                                  build/obj/usb_lld.o (symbol from plugin)
                                                  build/obj/chdynamic.o (symbol from plugin)
_tm_init                                          /tmp/ccFEEOUj.ltrans11.ltrans.o
                                                  build/obj/chtm.o (symbol from plugin)
                                                  /tmp/ccFEEOUj.ltrans12.ltrans.o
                                                  build/obj/chsys.o (symbol from plugin)
_unhandled_exception                              build/obj/vectors.o (symbol from plugin)
_usb_ep0in                                        /tmp/ccFEEOUj.ltrans7.ltrans.o
                                                  build/obj/usb.o (symbol from plugin)
                                                  /tmp/ccFEEOUj.ltrans12.ltrans.o
                                                  build/obj/usb_lld.o (symbol from plugin)
_usb_ep0out                                       /tmp/ccFEEOUj.ltrans7.ltrans.o
                                                  build/obj/usb.o (symbol from plugin)
                                                  /tmp/ccFEEOUj.ltrans12.ltrans.o
                                                  build/obj/usb_lld.o (symbol from plugin)
_usb_ep0setup                                     /tmp/ccFEEOUj.ltrans7.ltrans.o
                                                  build/obj/usb.o (symbol from plugin)
                                                  /tmp/ccFEEOUj.ltrans12.ltrans.o
                                                  build/obj/usb_lld.o (symbol from plugin)
_usb_reset                                        /tmp/ccFEEOUj.ltrans7.ltrans.o
                                                  build/obj/usb.o (symbol from plugin)
                                                  /tmp/ccFEEOUj.ltrans6.ltrans.o
                                                  build/obj/usb_lld.o (symbol from plugin)
_usb_suspend                                      /tmp/ccFEEOUj.ltrans7.ltrans.o
                                                  build/obj/usb.o (symbol from plugin)
                                                  /tmp/ccFEEOUj.ltrans6.ltrans.o
                                                  build/obj/usb_lld.o (symbol from plugin)
_usb_wakeup                                       /tmp/ccFEEOUj.ltrans7.ltrans.o
                                                  build/obj/usb.o (symbol from plugin)
                                                  /tmp/ccFEEOUj.ltrans6.ltrans.o
                                                  build/obj/usb_lld.o (symbol from plugin)
_vectors                                          /tmp/ccFEEOUj.ltrans12.ltrans.o
                                                  build/obj/vectors.o (symbol from plugin)
_vt_init                                          build/obj/chvt.o (symbol from plugin)
                                                  build/obj/chsys.o (symbol from plugin)
active_status.10189                               /tmp/ccFEEOUj.ltrans12.ltrans.o
                                                  /tmp/ccFEEOUj.ltrans8.ltrans.o
bmk10_execute.14097                               /tmp/ccFEEOUj.ltrans1.ltrans.o
                                                  /tmp/ccFEEOUj.ltrans12.ltrans.o
bmk11_execute.14099                               /tmp/ccFEEOUj.ltrans1.ltrans.o
                                                  /tmp/ccFEEOUj.ltrans12.ltrans.o
bmk11_setup.14070                                 /tmp/ccFEEOUj.ltrans1.ltrans.o
                                                  /tmp/ccFEEOUj.ltrans12.ltrans.o
bmk12_execute.14103                               /tmp/ccFEEOUj.ltrans1.ltrans.o
                                                  /tmp/ccFEEOUj.ltrans12.ltrans.o
bmk12_setup.14101                                 /tmp/ccFEEOUj.ltrans1.ltrans.o
                                                  /tmp/ccFEEOUj.ltrans12.ltrans.o
bmk13_execute.14052                               /tmp/ccFEEOUj.ltrans1.ltrans.o
                                                  /tmp/ccFEEOUj.ltrans12.ltrans.o
bmk1_execute.14108                                /tmp/ccFEEOUj.ltrans1.ltrans.o
                                                  /tmp/ccFEEOUj.ltrans12.ltrans.o
bmk2_execute.14110                                /tmp/ccFEEOUj.ltrans1.ltrans.o
                                                  /tmp/ccFEEOUj.ltrans12.ltrans.o
bmk3_execute.14112                                /tmp/ccFEEOUj.ltrans1.ltrans.o
                                                  /tmp/ccFEEOUj.ltrans12.ltrans.o
bmk4_execute.14061                                /tmp/ccFEEOUj.ltrans1.ltrans.o
                                                  /tmp/ccFEEOUj.ltrans12.ltrans.o
bmk5_execute.14063                                /tmp/ccFEEOUj.ltrans1.ltrans.o
                                                  /tmp/ccFEEOUj.ltrans12.ltrans.o
bmk6_execute.14050                                /tmp/ccFEEOUj.ltrans1.ltrans.o
                                                  /tmp/ccFEEOUj.ltrans12.ltrans.o
bmk7_execute.14072                                /tmp/ccFEEOUj.ltrans1.ltrans.o
                                                  /tmp/ccFEEOUj.ltrans12.ltrans.o
bmk7_setup.14068                                  /tmp/ccFEEOUj.ltrans1.ltrans.o
                                                  /tmp/ccFEEOUj.ltrans12.ltrans.o
bmk8_execute.14077                                /tmp/ccFEEOUj.ltrans1.ltrans.o
                                                  /tmp/ccFEEOUj.ltrans12.ltrans.o
bmk9_execute.14095                                /tmp/ccFEEOUj.ltrans1.ltrans.o
                                                  /tmp/ccFEEOUj.ltrans12.ltrans.o
boardInit                                         /tmp/ccFEEOUj.ltrans6.ltrans.o
                                                  build/obj/board.o (symbol from plugin)
                                                  /tmp/ccFEEOUj.ltrans9.ltrans.o
                                                  build/obj/hal.o (symbol from plugin)
buf.8601.15531                                    /tmp/ccFEEOUj.ltrans12.ltrans.o
                                                  /tmp/ccFEEOUj.ltrans0.ltrans.o
c1.12269                                          /tmp/ccFEEOUj.ltrans12.ltrans.o
                                                  /tmp/ccFEEOUj.ltrans4.ltrans.o
ch                                                /tmp/ccFEEOUj.ltrans12.ltrans.o
                                                  build/obj/chschd.o (symbol from plugin)
                                                  /tmp/ccFEEOUj.ltrans11.ltrans.o
                                                  /tmp/ccFEEOUj.ltrans10.ltrans.o
                                                  /tmp/ccFEEOUj.ltrans9.ltrans.o
                                                  /tmp/ccFEEOUj.ltrans8.ltrans.o
                                                  /tmp/ccFEEOUj.ltrans7.ltrans.o
                                                  /tmp/ccFEEOUj.ltrans6.ltrans.o
                                                  /tmp/ccFEEOUj.ltrans5.ltrans.o
                                                  /tmp/ccFEEOUj.ltrans4.ltrans.o
                                                  /tmp/ccFEEOUj.ltrans3.ltrans.o
                                                  /tmp/ccFEEOUj.ltrans2.ltrans.o
                                                  /tmp/ccFEEOUj.ltrans1.ltrans.o
                                                  /tmp/ccFEEOUj.ltrans0.ltrans.o
                                                  build/obj/main.o (symbol from plugin)
                                                  build/obj/shell.o (symbol from plugin)
                                                  build/obj/testbmk.o (symbol from plugin)
                                                  build/obj/testsys.o (symbol from plugin)
                                                  build/obj/testqueues.o (symbol from plugin)
                                                  build/obj/testdyn.o (symbol from plugin)
                                                  build/obj/testevt.o (symbol from plugin)
                                                  build/obj/testmbox.o (symbol from plugin)
                                                  build/obj/testmsg.o (symbol from plugin)
                                                  build/obj/testmtx.o (symbol from plugin)
                                                  build/obj/testsem.o (symbol from plugin)
                                                  build/obj/testthd.o (symbol from plugin)
                                                  build/obj/test.o (symbol from plugin)
                                                  build/obj/usb_lld.o (symbol from plugin)
                                                  build/obj/usb.o (symbol from plugin)
                                                  build/obj/serial_usb.o (symbol from plugin)
                                                  build/obj/hal_buffers.o (symbol from plugin)
                                                  build/obj/chmempools.o (symbol from plugin)
                                                  build/obj/chmemcore.o (symbol from plugin)
                                                  build/obj/chqueues.o (symbol from plugin)
                                                  build/obj/chmboxes.o (symbol from plugin)
                                                  build/obj/chmsg.o (symbol from plugin)
                                                  build/obj/chevents.o (symbol from plugin)
                                                  build/obj/chcond.o (symbol from plugin)
                                                  build/obj/chmtx.o (symbol from plugin)
                                                  build/obj/chsem.o (symbol from plugin)
                                                  build/obj/chregistry.o (symbol from plugin)
                                                  build/obj/chdynamic.o (symbol from plugin)
                                                  build/obj/chstats.o (symbol from plugin)
                                                  build/obj/chtm.o (symbol from plugin)
                                                  build/obj/chthreads.o (symbol from plugin)
                                                  build/obj/chvt.o (symbol from plugin)
                                                  build/obj/chdebug.o (symbol from plugin)
                                                  build/obj/chsys.o (symbol from plugin)
chCondBroadcast                                   /tmp/ccFEEOUj.ltrans10.ltrans.o
                                                  build/obj/chcond.o (symbol from plugin)
                                                  /tmp/ccFEEOUj.ltrans4.ltrans.o
                                                  build/obj/testmtx.o (symbol from plugin)
chCondBroadcastI                                  build/obj/chcond.o (symbol from plugin)
chCondObjectInit                                  /tmp/ccFEEOUj.ltrans10.ltrans.o
                                                  build/obj/chcond.o (symbol from plugin)
                                                  /tmp/ccFEEOUj.ltrans4.ltrans.o
                                                  build/obj/testmtx.o (symbol from plugin)
chCondSignal                                      /tmp/ccFEEOUj.ltrans10.ltrans.o
                                                  build/obj/chcond.o (symbol from plugin)
                                                  /tmp/ccFEEOUj.ltrans4.ltrans.o
                                                  build/obj/testmtx.o (symbol from plugin)
chCondSignalI                                     /tmp/ccFEEOUj.ltrans10.ltrans.o
                                                  build/obj/chcond.o (symbol from plugin)
                                                  /tmp/ccFEEOUj.ltrans4.ltrans.o
                                                  build/obj/testmtx.o (symbol from plugin)
chCondWait                                        /tmp/ccFEEOUj.ltrans10.ltrans.o
                                                  build/obj/chcond.o (symbol from plugin)
                                                  /tmp/ccFEEOUj.ltrans4.ltrans.o
                                                  build/obj/testmtx.o (symbol from plugin)
chCondWaitS                                       build/obj/chcond.o (symbol from plugin)
chCondWaitTimeout                                 /tmp/ccFEEOUj.ltrans10.ltrans.o
                                                  build/obj/chcond.o (symbol from plugin)
                                                  /tmp/ccFEEOUj.ltrans4.ltrans.o
                                                  build/obj/testmtx.o (symbol from plugin)
chCondWaitTimeoutS                                build/obj/chcond.o (symbol from plugin)
chCoreAlloc                                       build/obj/chmemcore.o (symbol from plugin)
                                                  build/obj/chheap.o (symbol from plugin)
chCoreAllocI                                      build/obj/chmemcore.o (symbol from plugin)
chCoreGetStatusX                                  /tmp/ccFEEOUj.ltrans9.ltrans.o
                                                  build/obj/chmemcore.o (symbol from plugin)
                                                  /tmp/ccFEEOUj.ltrans3.ltrans.o
                                                  /tmp/ccFEEOUj.ltrans0.ltrans.o
                                                  build/obj/main.o (symbol from plugin)
                                                  build/obj/testheap.o (symbol from plugin)
chDbgCheckClassI                                  /tmp/ccFEEOUj.ltrans12.ltrans.o
                                                  build/obj/chdebug.o (symbol from plugin)
                                                  /tmp/ccFEEOUj.ltrans11.ltrans.o
                                                  /tmp/ccFEEOUj.ltrans10.ltrans.o
                                                  /tmp/ccFEEOUj.ltrans9.ltrans.o
                                                  /tmp/ccFEEOUj.ltrans8.ltrans.o
                                                  /tmp/ccFEEOUj.ltrans7.ltrans.o
                                                  /tmp/ccFEEOUj.ltrans6.ltrans.o
                                                  /tmp/ccFEEOUj.ltrans5.ltrans.o
                                                  /tmp/ccFEEOUj.ltrans4.ltrans.o
                                                  /tmp/ccFEEOUj.ltrans2.ltrans.o
                                                  build/obj/testsys.o (symbol from plugin)
                                                  build/obj/testqueues.o (symbol from plugin)
                                                  build/obj/testmbox.o (symbol from plugin)
                                                  build/obj/testsem.o (symbol from plugin)
                                                  build/obj/test.o (symbol from plugin)
                                                  build/obj/usb.o (symbol from plugin)
                                                  build/obj/hal_buffers.o (symbol from plugin)
                                                  build/obj/chmempools.o (symbol from plugin)
                                                  build/obj/chmemcore.o (symbol from plugin)
                                                  build/obj/chqueues.o (symbol from plugin)
                                                  build/obj/chmboxes.o (symbol from plugin)
                                                  build/obj/chmsg.o (symbol from plugin)
                                                  build/obj/chevents.o (symbol from plugin)
                                                  build/obj/chcond.o (symbol from plugin)
                                                  build/obj/chsem.o (symbol from plugin)
                                                  build/obj/chthreads.o (symbol from plugin)
                                                  build/obj/chschd.o (symbol from plugin)
                                                  build/obj/chvt.o (symbol from plugin)
                                                  build/obj/chsys.o (symbol from plugin)
chDbgCheckClassS                                  /tmp/ccFEEOUj.ltrans12.ltrans.o
                                                  build/obj/chdebug.o (symbol from plugin)
                                                  /tmp/ccFEEOUj.ltrans11.ltrans.o
                                                  /tmp/ccFEEOUj.ltrans10.ltrans.o
                                                  /tmp/ccFEEOUj.ltrans9.ltrans.o
                                                  /tmp/ccFEEOUj.ltrans8.ltrans.o
                                                  build/obj/hal_buffers.o (symbol from plugin)
                                                  build/obj/chmboxes.o (symbol from plugin)
                                                  build/obj/chmsg.o (symbol from plugin)
                                                  build/obj/chcond.o (symbol from plugin)
                                                  build/obj/chmtx.o (symbol from plugin)
                                                  build/obj/chsem.o (symbol from plugin)
                                                  build/obj/chthreads.o (symbol from plugin)
                                                  build/obj/chschd.o (symbol from plugin)
chEvtAddEvents                                    /tmp/ccFEEOUj.ltrans10.ltrans.o
                                                  build/obj/chevents.o (symbol from plugin)
                                                  /tmp/ccFEEOUj.ltrans3.ltrans.o
                                                  build/obj/testevt.o (symbol from plugin)
chEvtBroadcastFlags                               /tmp/ccFEEOUj.ltrans10.ltrans.o
                                                  build/obj/chevents.o (symbol from plugin)
                                                  /tmp/ccFEEOUj.ltrans3.ltrans.o
                                                  build/obj/testevt.o (symbol from plugin)
chEvtBroadcastFlagsI                              /tmp/ccFEEOUj.ltrans10.ltrans.o
                                                  build/obj/chevents.o (symbol from plugin)
                                                  /tmp/ccFEEOUj.ltrans8.ltrans.o
                                                  /tmp/ccFEEOUj.ltrans1.ltrans.o
                                                  build/obj/shell.o (symbol from plugin)
                                                  build/obj/serial_usb.o (symbol from plugin)
chEvtBroadcastI.14368                             /tmp/ccFEEOUj.ltrans1.ltrans.o
                                                  /tmp/ccFEEOUj.ltrans0.ltrans.o
chEvtDispatch                                     /tmp/ccFEEOUj.ltrans10.ltrans.o
                                                  build/obj/chevents.o (symbol from plugin)
                                                  /tmp/ccFEEOUj.ltrans3.ltrans.o
                                                  build/obj/testevt.o (symbol from plugin)
chEvtGetAndClearEvents                            /tmp/ccFEEOUj.ltrans10.ltrans.o
                                                  build/obj/chevents.o (symbol from plugin)
                                                  /tmp/ccFEEOUj.ltrans3.ltrans.o
                                                  build/obj/testevt.o (symbol from plugin)
chEvtGetAndClearFlags                             build/obj/chevents.o (symbol from plugin)
chEvtGetAndClearFlagsI                            build/obj/chevents.o (symbol from plugin)
chEvtObjectInit.14265                             /tmp/ccFEEOUj.ltrans1.ltrans.o
                                                  /tmp/ccFEEOUj.ltrans0.ltrans.o
chEvtRegisterMaskWithFlags                        /tmp/ccFEEOUj.ltrans10.ltrans.o
                                                  build/obj/chevents.o (symbol from plugin)
                                                  /tmp/ccFEEOUj.ltrans3.ltrans.o
                                                  build/obj/testevt.o (symbol from plugin)
chEvtSignal                                       /tmp/ccFEEOUj.ltrans10.ltrans.o
                                                  build/obj/chevents.o (symbol from plugin)
                                                  /tmp/ccFEEOUj.ltrans3.ltrans.o
                                                  build/obj/testevt.o (symbol from plugin)
chEvtSignalI                                      build/obj/chevents.o (symbol from plugin)
chEvtUnregister                                   /tmp/ccFEEOUj.ltrans10.ltrans.o
                                                  build/obj/chevents.o (symbol from plugin)
                                                  /tmp/ccFEEOUj.ltrans3.ltrans.o
                                                  build/obj/testevt.o (symbol from plugin)
chEvtWaitAll                                      /tmp/ccFEEOUj.ltrans10.ltrans.o
                                                  build/obj/chevents.o (symbol from plugin)
                                                  /tmp/ccFEEOUj.ltrans3.ltrans.o
                                                  build/obj/testevt.o (symbol from plugin)
chEvtWaitAllTimeout                               /tmp/ccFEEOUj.ltrans10.ltrans.o
                                                  build/obj/chevents.o (symbol from plugin)
                                                  /tmp/ccFEEOUj.ltrans3.ltrans.o
                                                  build/obj/testevt.o (symbol from plugin)
chEvtWaitAny                                      /tmp/ccFEEOUj.ltrans10.ltrans.o
                                                  build/obj/chevents.o (symbol from plugin)
                                                  /tmp/ccFEEOUj.ltrans3.ltrans.o
                                                  build/obj/testevt.o (symbol from plugin)
chEvtWaitAnyTimeout                               /tmp/ccFEEOUj.ltrans10.ltrans.o
                                                  build/obj/chevents.o (symbol from plugin)
                                                  /tmp/ccFEEOUj.ltrans3.ltrans.o
                                                  build/obj/testevt.o (symbol from plugin)
chEvtWaitOne                                      /tmp/ccFEEOUj.ltrans10.ltrans.o
                                                  build/obj/chevents.o (symbol from plugin)
                                                  /tmp/ccFEEOUj.ltrans3.ltrans.o
                                                  build/obj/testevt.o (symbol from plugin)
chEvtWaitOneTimeout                               /tmp/ccFEEOUj.ltrans10.ltrans.o
                                                  build/obj/chevents.o (symbol from plugin)
                                                  /tmp/ccFEEOUj.ltrans3.ltrans.o
                                                  build/obj/testevt.o (symbol from plugin)
chHeapAlloc                                       /tmp/ccFEEOUj.ltrans9.ltrans.o
                                                  build/obj/chheap.o (symbol from plugin)
                                                  /tmp/ccFEEOUj.ltrans11.ltrans.o
                                                  /tmp/ccFEEOUj.ltrans3.ltrans.o
                                                  /tmp/ccFEEOUj.ltrans2.ltrans.o
                                                  build/obj/testdyn.o (symbol from plugin)
                                                  build/obj/testheap.o (symbol from plugin)
                                                  build/obj/chdynamic.o (symbol from plugin)
chHeapFree                                        /tmp/ccFEEOUj.ltrans9.ltrans.o
                                                  build/obj/chheap.o (symbol from plugin)
                                                  /tmp/ccFEEOUj.ltrans11.ltrans.o
                                                  /tmp/ccFEEOUj.ltrans3.ltrans.o
                                                  /tmp/ccFEEOUj.ltrans2.ltrans.o
                                                  build/obj/testdyn.o (symbol from plugin)
                                                  build/obj/testheap.o (symbol from plugin)
                                                  build/obj/chdynamic.o (symbol from plugin)
chHeapObjectInit                                  /tmp/ccFEEOUj.ltrans9.ltrans.o
                                                  build/obj/chheap.o (symbol from plugin)
                                                  /tmp/ccFEEOUj.ltrans3.ltrans.o
                                                  /tmp/ccFEEOUj.ltrans2.ltrans.o
                                                  build/obj/testdyn.o (symbol from plugin)
                                                  build/obj/testheap.o (symbol from plugin)
chHeapStatus                                      /tmp/ccFEEOUj.ltrans9.ltrans.o
                                                  build/obj/chheap.o (symbol from plugin)
                                                  /tmp/ccFEEOUj.ltrans3.ltrans.o
                                                  /tmp/ccFEEOUj.ltrans2.ltrans.o
                                                  /tmp/ccFEEOUj.ltrans0.ltrans.o
                                                  build/obj/main.o (symbol from plugin)
                                                  build/obj/testdyn.o (symbol from plugin)
                                                  build/obj/testheap.o (symbol from plugin)
chIQGetTimeout                                    /tmp/ccFEEOUj.ltrans9.ltrans.o
                                                  build/obj/chqueues.o (symbol from plugin)
                                                  /tmp/ccFEEOUj.ltrans2.ltrans.o
                                                  /tmp/ccFEEOUj.ltrans1.ltrans.o
                                                  build/obj/testbmk.o (symbol from plugin)
                                                  build/obj/testqueues.o (symbol from plugin)
chIQIsEmptyI.7963                                 /tmp/ccFEEOUj.ltrans10.ltrans.o
                                                  /tmp/ccFEEOUj.ltrans9.ltrans.o
chIQIsFullI.7946                                  /tmp/ccFEEOUj.ltrans10.ltrans.o
                                                  /tmp/ccFEEOUj.ltrans9.ltrans.o
chIQObjectInit                                    /tmp/ccFEEOUj.ltrans9.ltrans.o
                                                  build/obj/chqueues.o (symbol from plugin)
                                                  /tmp/ccFEEOUj.ltrans2.ltrans.o
                                                  /tmp/ccFEEOUj.ltrans1.ltrans.o
                                                  build/obj/testbmk.o (symbol from plugin)
                                                  build/obj/testqueues.o (symbol from plugin)
chIQPutI                                          /tmp/ccFEEOUj.ltrans9.ltrans.o
                                                  build/obj/chqueues.o (symbol from plugin)
                                                  /tmp/ccFEEOUj.ltrans2.ltrans.o
                                                  /tmp/ccFEEOUj.ltrans1.ltrans.o
                                                  build/obj/testbmk.o (symbol from plugin)
                                                  build/obj/testqueues.o (symbol from plugin)
chIQReadTimeout                                   /tmp/ccFEEOUj.ltrans9.ltrans.o
                                                  build/obj/chqueues.o (symbol from plugin)
                                                  /tmp/ccFEEOUj.ltrans2.ltrans.o
                                                  build/obj/testqueues.o (symbol from plugin)
chIQResetI                                        /tmp/ccFEEOUj.ltrans9.ltrans.o
                                                  build/obj/chqueues.o (symbol from plugin)
                                                  /tmp/ccFEEOUj.ltrans2.ltrans.o
                                                  build/obj/testqueues.o (symbol from plugin)
chMBFetch                                         /tmp/ccFEEOUj.ltrans10.ltrans.o
                                                  build/obj/chmboxes.o (symbol from plugin)
                                                  /tmp/ccFEEOUj.ltrans4.ltrans.o
                                                  build/obj/testmbox.o (symbol from plugin)
chMBFetchI                                        /tmp/ccFEEOUj.ltrans10.ltrans.o
                                                  build/obj/chmboxes.o (symbol from plugin)
                                                  /tmp/ccFEEOUj.ltrans4.ltrans.o
                                                  build/obj/testmbox.o (symbol from plugin)
chMBFetchS                                        build/obj/chmboxes.o (symbol from plugin)
chMBObjectInit                                    /tmp/ccFEEOUj.ltrans10.ltrans.o
                                                  build/obj/chmboxes.o (symbol from plugin)
                                                  /tmp/ccFEEOUj.ltrans4.ltrans.o
                                                  build/obj/testmbox.o (symbol from plugin)
chMBPost                                          /tmp/ccFEEOUj.ltrans10.ltrans.o
                                                  build/obj/chmboxes.o (symbol from plugin)
                                                  /tmp/ccFEEOUj.ltrans4.ltrans.o
                                                  build/obj/testmbox.o (symbol from plugin)
chMBPostAhead                                     /tmp/ccFEEOUj.ltrans10.ltrans.o
                                                  build/obj/chmboxes.o (symbol from plugin)
                                                  /tmp/ccFEEOUj.ltrans4.ltrans.o
                                                  build/obj/testmbox.o (symbol from plugin)
chMBPostAheadI                                    /tmp/ccFEEOUj.ltrans10.ltrans.o
                                                  build/obj/chmboxes.o (symbol from plugin)
                                                  /tmp/ccFEEOUj.ltrans4.ltrans.o
                                                  build/obj/testmbox.o (symbol from plugin)
chMBPostAheadS                                    build/obj/chmboxes.o (symbol from plugin)
chMBPostI                                         /tmp/ccFEEOUj.ltrans10.ltrans.o
                                                  build/obj/chmboxes.o (symbol from plugin)
                                                  /tmp/ccFEEOUj.ltrans4.ltrans.o
                                                  build/obj/testmbox.o (symbol from plugin)
chMBPostS                                         build/obj/chmboxes.o (symbol from plugin)
chMBReset                                         /tmp/ccFEEOUj.ltrans10.ltrans.o
                                                  build/obj/chmboxes.o (symbol from plugin)
                                                  /tmp/ccFEEOUj.ltrans4.ltrans.o
                                                  build/obj/testmbox.o (symbol from plugin)
chMBResetI                                        build/obj/chmboxes.o (symbol from plugin)
chMsgRelease                                      /tmp/ccFEEOUj.ltrans10.ltrans.o
                                                  build/obj/chmsg.o (symbol from plugin)
                                                  /tmp/ccFEEOUj.ltrans4.ltrans.o
                                                  /tmp/ccFEEOUj.ltrans1.ltrans.o
                                                  build/obj/testbmk.o (symbol from plugin)
                                                  build/obj/testmsg.o (symbol from plugin)
chMsgSend                                         /tmp/ccFEEOUj.ltrans10.ltrans.o
                                                  build/obj/chmsg.o (symbol from plugin)
                                                  /tmp/ccFEEOUj.ltrans4.ltrans.o
                                                  /tmp/ccFEEOUj.ltrans1.ltrans.o
                                                  build/obj/testbmk.o (symbol from plugin)
                                                  build/obj/testmsg.o (symbol from plugin)
chMsgWait                                         /tmp/ccFEEOUj.ltrans10.ltrans.o
                                                  build/obj/chmsg.o (symbol from plugin)
                                                  /tmp/ccFEEOUj.ltrans4.ltrans.o
                                                  /tmp/ccFEEOUj.ltrans1.ltrans.o
                                                  build/obj/testbmk.o (symbol from plugin)
                                                  build/obj/testmsg.o (symbol from plugin)
chMtxLock                                         /tmp/ccFEEOUj.ltrans11.ltrans.o
                                                  build/obj/chmtx.o (symbol from plugin)
                                                  /tmp/ccFEEOUj.ltrans9.ltrans.o
                                                  /tmp/ccFEEOUj.ltrans5.ltrans.o
                                                  /tmp/ccFEEOUj.ltrans4.ltrans.o
                                                  /tmp/ccFEEOUj.ltrans1.ltrans.o
                                                  build/obj/testbmk.o (symbol from plugin)
                                                  build/obj/testmtx.o (symbol from plugin)
                                                  build/obj/chheap.o (symbol from plugin)
chMtxLockS                                        /tmp/ccFEEOUj.ltrans11.ltrans.o
                                                  build/obj/chmtx.o (symbol from plugin)
                                                  /tmp/ccFEEOUj.ltrans10.ltrans.o
                                                  build/obj/chcond.o (symbol from plugin)
chMtxObjectInit                                   /tmp/ccFEEOUj.ltrans11.ltrans.o
                                                  build/obj/chmtx.o (symbol from plugin)
                                                  /tmp/ccFEEOUj.ltrans9.ltrans.o
                                                  /tmp/ccFEEOUj.ltrans5.ltrans.o
                                                  /tmp/ccFEEOUj.ltrans4.ltrans.o
                                                  /tmp/ccFEEOUj.ltrans1.ltrans.o
                                                  build/obj/testbmk.o (symbol from plugin)
                                                  build/obj/testmtx.o (symbol from plugin)
                                                  build/obj/chheap.o (symbol from plugin)
chMtxQueueNotEmptyS.6785                          /tmp/ccFEEOUj.ltrans11.ltrans.o
                                                  /tmp/ccFEEOUj.ltrans10.ltrans.o
chMtxTryLock                                      /tmp/ccFEEOUj.ltrans11.ltrans.o
                                                  build/obj/chmtx.o (symbol from plugin)
                                                  /tmp/ccFEEOUj.ltrans4.ltrans.o
                                                  build/obj/testmtx.o (symbol from plugin)
chMtxTryLockS                                     /tmp/ccFEEOUj.ltrans10.ltrans.o
                                                  build/obj/chmtx.o (symbol from plugin)
                                                  /tmp/ccFEEOUj.ltrans11.ltrans.o
chMtxUnlock                                       /tmp/ccFEEOUj.ltrans10.ltrans.o
                                                  build/obj/chmtx.o (symbol from plugin)
                                                  /tmp/ccFEEOUj.ltrans9.ltrans.o
                                                  /tmp/ccFEEOUj.ltrans5.ltrans.o
                                                  /tmp/ccFEEOUj.ltrans4.ltrans.o
                                                  /tmp/ccFEEOUj.ltrans1.ltrans.o
                                                  build/obj/testbmk.o (symbol from plugin)
                                                  build/obj/testmtx.o (symbol from plugin)
                                                  build/obj/chheap.o (symbol from plugin)
chMtxUnlockAll                                    /tmp/ccFEEOUj.ltrans10.ltrans.o
                                                  build/obj/chmtx.o (symbol from plugin)
                                                  /tmp/ccFEEOUj.ltrans4.ltrans.o
                                                  build/obj/testmtx.o (symbol from plugin)
chMtxUnlockS                                      /tmp/ccFEEOUj.ltrans10.ltrans.o
                                                  build/obj/chmtx.o (symbol from plugin)
                                                  /tmp/ccFEEOUj.ltrans4.ltrans.o
                                                  build/obj/testmtx.o (symbol from plugin)
                                                  build/obj/chcond.o (symbol from plugin)
chOQGetI                                          /tmp/ccFEEOUj.ltrans9.ltrans.o
                                                  build/obj/chqueues.o (symbol from plugin)
                                                  /tmp/ccFEEOUj.ltrans2.ltrans.o
                                                  build/obj/testqueues.o (symbol from plugin)
chOQIsEmptyI.7970                                 /tmp/ccFEEOUj.ltrans10.ltrans.o
                                                  /tmp/ccFEEOUj.ltrans9.ltrans.o
chOQIsFullI.7966                                  /tmp/ccFEEOUj.ltrans10.ltrans.o
                                                  /tmp/ccFEEOUj.ltrans9.ltrans.o
chOQObjectInit                                    /tmp/ccFEEOUj.ltrans9.ltrans.o
                                                  build/obj/chqueues.o (symbol from plugin)
                                                  /tmp/ccFEEOUj.ltrans2.ltrans.o
                                                  build/obj/testqueues.o (symbol from plugin)
chOQPutTimeout                                    /tmp/ccFEEOUj.ltrans9.ltrans.o
                                                  build/obj/chqueues.o (symbol from plugin)
                                                  /tmp/ccFEEOUj.ltrans2.ltrans.o
                                                  build/obj/testqueues.o (symbol from plugin)
chOQResetI                                        /tmp/ccFEEOUj.ltrans9.ltrans.o
                                                  build/obj/chqueues.o (symbol from plugin)
                                                  /tmp/ccFEEOUj.ltrans2.ltrans.o
                                                  build/obj/testqueues.o (symbol from plugin)
chOQWriteTimeout                                  /tmp/ccFEEOUj.ltrans9.ltrans.o
                                                  build/obj/chqueues.o (symbol from plugin)
                                                  /tmp/ccFEEOUj.ltrans2.ltrans.o
                                                  build/obj/testqueues.o (symbol from plugin)
chPoolAlloc                                       /tmp/ccFEEOUj.ltrans9.ltrans.o
                                                  build/obj/chmempools.o (symbol from plugin)
                                                  /tmp/ccFEEOUj.ltrans11.ltrans.o
                                                  /tmp/ccFEEOUj.ltrans2.ltrans.o
                                                  build/obj/testdyn.o (symbol from plugin)
                                                  build/obj/testpools.o (symbol from plugin)
                                                  build/obj/chdynamic.o (symbol from plugin)
chPoolAllocI                                      build/obj/chmempools.o (symbol from plugin)
chPoolFree                                        /tmp/ccFEEOUj.ltrans9.ltrans.o
                                                  build/obj/chmempools.o (symbol from plugin)
                                                  /tmp/ccFEEOUj.ltrans11.ltrans.o
                                                  /tmp/ccFEEOUj.ltrans2.ltrans.o
                                                  build/obj/testdyn.o (symbol from plugin)
                                                  build/obj/testpools.o (symbol from plugin)
                                                  build/obj/chdynamic.o (symbol from plugin)
chPoolFreeI                                       build/obj/chmempools.o (symbol from plugin)
chPoolLoadArray                                   /tmp/ccFEEOUj.ltrans9.ltrans.o
                                                  build/obj/chmempools.o (symbol from plugin)
                                                  /tmp/ccFEEOUj.ltrans2.ltrans.o
                                                  build/obj/testpools.o (symbol from plugin)
chPoolObjectInit                                  /tmp/ccFEEOUj.ltrans9.ltrans.o
                                                  build/obj/chmempools.o (symbol from plugin)
                                                  /tmp/ccFEEOUj.ltrans2.ltrans.o
                                                  build/obj/testdyn.o (symbol from plugin)
                                                  build/obj/testpools.o (symbol from plugin)
chRegFirstThread                                  /tmp/ccFEEOUj.ltrans11.ltrans.o
                                                  build/obj/chregistry.o (symbol from plugin)
                                                  /tmp/ccFEEOUj.ltrans2.ltrans.o
                                                  /tmp/ccFEEOUj.ltrans0.ltrans.o
                                                  build/obj/main.o (symbol from plugin)
                                                  build/obj/testdyn.o (symbol from plugin)
chRegNextThread                                   /tmp/ccFEEOUj.ltrans11.ltrans.o
                                                  build/obj/chregistry.o (symbol from plugin)
                                                  /tmp/ccFEEOUj.ltrans2.ltrans.o
                                                  /tmp/ccFEEOUj.ltrans0.ltrans.o
                                                  build/obj/main.o (symbol from plugin)
                                                  build/obj/testdyn.o (symbol from plugin)
chRegSetThreadName.10554                          /tmp/ccFEEOUj.ltrans7.ltrans.o
                                                  /tmp/ccFEEOUj.ltrans6.ltrans.o
chSchDoReschedule                                 /tmp/ccFEEOUj.ltrans12.ltrans.o
                                                  build/obj/chschd.o (symbol from plugin)
                                                  build/obj/chcoreasm_v7m.o
chSchDoRescheduleAhead                            build/obj/chschd.o (symbol from plugin)
chSchDoRescheduleBehind                           build/obj/chschd.o (symbol from plugin)
                                                  build/obj/chthreads.o (symbol from plugin)
chSchDoYieldS.5416                                /tmp/ccFEEOUj.ltrans12.ltrans.o
                                                  /tmp/ccFEEOUj.ltrans11.ltrans.o
chSchGoSleepS                                     /tmp/ccFEEOUj.ltrans12.ltrans.o
                                                  build/obj/chschd.o (symbol from plugin)
                                                  /tmp/ccFEEOUj.ltrans11.ltrans.o
                                                  /tmp/ccFEEOUj.ltrans10.ltrans.o
                                                  /tmp/ccFEEOUj.ltrans1.ltrans.o
                                                  build/obj/testbmk.o (symbol from plugin)
                                                  build/obj/chmsg.o (symbol from plugin)
                                                  build/obj/chevents.o (symbol from plugin)
                                                  build/obj/chcond.o (symbol from plugin)
                                                  build/obj/chmtx.o (symbol from plugin)
                                                  build/obj/chsem.o (symbol from plugin)
                                                  build/obj/chthreads.o (symbol from plugin)
chSchGoSleepTimeoutS                              /tmp/ccFEEOUj.ltrans12.ltrans.o
                                                  build/obj/chschd.o (symbol from plugin)
                                                  /tmp/ccFEEOUj.ltrans11.ltrans.o
                                                  /tmp/ccFEEOUj.ltrans10.ltrans.o
                                                  build/obj/chevents.o (symbol from plugin)
                                                  build/obj/chcond.o (symbol from plugin)
                                                  build/obj/chsem.o (symbol from plugin)
                                                  build/obj/chthreads.o (symbol from plugin)
chSchIsPreemptionRequired                         /tmp/ccFEEOUj.ltrans12.ltrans.o
                                                  build/obj/chschd.o (symbol from plugin)
                                                  /tmp/ccFEEOUj.ltrans9.ltrans.o
                                                  build/obj/chcore_v7m.o (symbol from plugin)
chSchReadyI                                       /tmp/ccFEEOUj.ltrans12.ltrans.o
                                                  build/obj/chschd.o (symbol from plugin)
                                                  /tmp/ccFEEOUj.ltrans11.ltrans.o
                                                  /tmp/ccFEEOUj.ltrans10.ltrans.o
                                                  /tmp/ccFEEOUj.ltrans7.ltrans.o
                                                  build/obj/usb_lld.o (symbol from plugin)
                                                  build/obj/chmsg.o (symbol from plugin)
                                                  build/obj/chevents.o (symbol from plugin)
                                                  build/obj/chcond.o (symbol from plugin)
                                                  build/obj/chmtx.o (symbol from plugin)
                                                  build/obj/chsem.o (symbol from plugin)
                                                  build/obj/chthreads.o (symbol from plugin)
chSchRescheduleS                                  /tmp/ccFEEOUj.ltrans12.ltrans.o
                                                  build/obj/chschd.o (symbol from plugin)
                                                  /tmp/ccFEEOUj.ltrans11.ltrans.o
                                                  /tmp/ccFEEOUj.ltrans10.ltrans.o
                                                  /tmp/ccFEEOUj.ltrans8.ltrans.o
                                                  /tmp/ccFEEOUj.ltrans6.ltrans.o
                                                  /tmp/ccFEEOUj.ltrans5.ltrans.o
                                                  /tmp/ccFEEOUj.ltrans4.ltrans.o
                                                  build/obj/testmtx.o (symbol from plugin)
                                                  build/obj/testsem.o (symbol from plugin)
                                                  build/obj/usb_lld.o (symbol from plugin)
                                                  build/obj/usb.o (symbol from plugin)
                                                  build/obj/serial_usb.o (symbol from plugin)
                                                  build/obj/chmboxes.o (symbol from plugin)
                                                  build/obj/chevents.o (symbol from plugin)
                                                  build/obj/chcond.o (symbol from plugin)
                                                  build/obj/chmtx.o (symbol from plugin)
                                                  build/obj/chsem.o (symbol from plugin)
                                                  build/obj/chthreads.o (symbol from plugin)
                                                  build/obj/chsys.o (symbol from plugin)
chSchWakeupS                                      /tmp/ccFEEOUj.ltrans12.ltrans.o
                                                  build/obj/chschd.o (symbol from plugin)
                                                  /tmp/ccFEEOUj.ltrans11.ltrans.o
                                                  /tmp/ccFEEOUj.ltrans10.ltrans.o
                                                  /tmp/ccFEEOUj.ltrans1.ltrans.o
                                                  build/obj/testbmk.o (symbol from plugin)
                                                  build/obj/chmsg.o (symbol from plugin)
                                                  build/obj/chcond.o (symbol from plugin)
                                                  build/obj/chsem.o (symbol from plugin)
                                                  build/obj/chdynamic.o (symbol from plugin)
                                                  build/obj/chthreads.o (symbol from plugin)
chSemAddCounterI                                  /tmp/ccFEEOUj.ltrans11.ltrans.o
                                                  build/obj/chsem.o (symbol from plugin)
                                                  /tmp/ccFEEOUj.ltrans5.ltrans.o
                                                  build/obj/testsem.o (symbol from plugin)
chSemObjectInit                                   /tmp/ccFEEOUj.ltrans11.ltrans.o
                                                  build/obj/chsem.o (symbol from plugin)
                                                  /tmp/ccFEEOUj.ltrans10.ltrans.o
                                                  /tmp/ccFEEOUj.ltrans5.ltrans.o
                                                  /tmp/ccFEEOUj.ltrans1.ltrans.o
                                                  build/obj/testbmk.o (symbol from plugin)
                                                  build/obj/testsem.o (symbol from plugin)
                                                  build/obj/chmboxes.o (symbol from plugin)
chSemReset                                        /tmp/ccFEEOUj.ltrans11.ltrans.o
                                                  build/obj/chsem.o (symbol from plugin)
                                                  /tmp/ccFEEOUj.ltrans5.ltrans.o
                                                  /tmp/ccFEEOUj.ltrans1.ltrans.o
                                                  build/obj/testbmk.o (symbol from plugin)
                                                  build/obj/testsem.o (symbol from plugin)
chSemResetI                                       /tmp/ccFEEOUj.ltrans11.ltrans.o
                                                  build/obj/chsem.o (symbol from plugin)
                                                  /tmp/ccFEEOUj.ltrans10.ltrans.o
                                                  build/obj/chmboxes.o (symbol from plugin)
chSemSignal                                       /tmp/ccFEEOUj.ltrans11.ltrans.o
                                                  build/obj/chsem.o (symbol from plugin)
                                                  /tmp/ccFEEOUj.ltrans5.ltrans.o
                                                  /tmp/ccFEEOUj.ltrans1.ltrans.o
                                                  build/obj/testbmk.o (symbol from plugin)
                                                  build/obj/testsem.o (symbol from plugin)
chSemSignalI                                      /tmp/ccFEEOUj.ltrans11.ltrans.o
                                                  build/obj/chsem.o (symbol from plugin)
                                                  /tmp/ccFEEOUj.ltrans10.ltrans.o
                                                  /tmp/ccFEEOUj.ltrans5.ltrans.o
                                                  build/obj/testsem.o (symbol from plugin)
                                                  build/obj/chmboxes.o (symbol from plugin)
chSemSignalWait                                   /tmp/ccFEEOUj.ltrans11.ltrans.o
                                                  build/obj/chsem.o (symbol from plugin)
                                                  /tmp/ccFEEOUj.ltrans5.ltrans.o
                                                  build/obj/testsem.o (symbol from plugin)
chSemWait                                         /tmp/ccFEEOUj.ltrans11.ltrans.o
                                                  build/obj/chsem.o (symbol from plugin)
                                                  /tmp/ccFEEOUj.ltrans5.ltrans.o
                                                  /tmp/ccFEEOUj.ltrans1.ltrans.o
                                                  build/obj/testbmk.o (symbol from plugin)
                                                  build/obj/testsem.o (symbol from plugin)
chSemWaitS                                        build/obj/chsem.o (symbol from plugin)
chSemWaitTimeout                                  /tmp/ccFEEOUj.ltrans11.ltrans.o
                                                  build/obj/chsem.o (symbol from plugin)
                                                  /tmp/ccFEEOUj.ltrans5.ltrans.o
                                                  build/obj/testsem.o (symbol from plugin)
chSemWaitTimeoutS                                 /tmp/ccFEEOUj.ltrans11.ltrans.o
                                                  build/obj/chsem.o (symbol from plugin)
                                                  /tmp/ccFEEOUj.ltrans10.ltrans.o
                                                  build/obj/chmboxes.o (symbol from plugin)
chSysDisable.13750                                /tmp/ccFEEOUj.ltrans2.ltrans.o
                                                  /tmp/ccFEEOUj.ltrans1.ltrans.o
chSysEnable.13754                                 /tmp/ccFEEOUj.ltrans2.ltrans.o
                                                  /tmp/ccFEEOUj.ltrans1.ltrans.o
chSysGetStatusAndLockX                            /tmp/ccFEEOUj.ltrans12.ltrans.o
                                                  build/obj/chsys.o (symbol from plugin)
                                                  /tmp/ccFEEOUj.ltrans1.ltrans.o
                                                  build/obj/testsys.o (symbol from plugin)
chSysHalt                                         /tmp/ccFEEOUj.ltrans12.ltrans.o
                                                  build/obj/chsys.o (symbol from plugin)
                                                  /tmp/ccFEEOUj.ltrans11.ltrans.o
                                                  /tmp/ccFEEOUj.ltrans10.ltrans.o
                                                  /tmp/ccFEEOUj.ltrans9.ltrans.o
                                                  /tmp/ccFEEOUj.ltrans8.ltrans.o
                                                  /tmp/ccFEEOUj.ltrans7.ltrans.o
                                                  /tmp/ccFEEOUj.ltrans6.ltrans.o
                                                  /tmp/ccFEEOUj.ltrans5.ltrans.o
                                                  /tmp/ccFEEOUj.ltrans4.ltrans.o
                                                  /tmp/ccFEEOUj.ltrans3.ltrans.o
                                                  /tmp/ccFEEOUj.ltrans2.ltrans.o
                                                  /tmp/ccFEEOUj.ltrans1.ltrans.o
                                                  build/obj/shell.o (symbol from plugin)
                                                  build/obj/testbmk.o (symbol from plugin)
                                                  build/obj/testsys.o (symbol from plugin)
                                                  build/obj/testqueues.o (symbol from plugin)
                                                  build/obj/testevt.o (symbol from plugin)
                                                  build/obj/testmbox.o (symbol from plugin)
                                                  build/obj/testmtx.o (symbol from plugin)
                                                  build/obj/testsem.o (symbol from plugin)
                                                  build/obj/testthd.o (symbol from plugin)
                                                  build/obj/test.o (symbol from plugin)
                                                  build/obj/usb_lld.o (symbol from plugin)
                                                  build/obj/nvic.o (symbol from plugin)
                                                  build/obj/usb.o (symbol from plugin)
                                                  build/obj/serial_usb.o (symbol from plugin)
                                                  build/obj/pal.o (symbol from plugin)
                                                  build/obj/hal_buffers.o (symbol from plugin)
                                                  build/obj/st.o (symbol from plugin)
                                                  build/obj/chmempools.o (symbol from plugin)
                                                  build/obj/chheap.o (symbol from plugin)
                                                  build/obj/chmemcore.o (symbol from plugin)
                                                  build/obj/chqueues.o (symbol from plugin)
                                                  build/obj/chmboxes.o (symbol from plugin)
                                                  build/obj/chmsg.o (symbol from plugin)
                                                  build/obj/chevents.o (symbol from plugin)
                                                  build/obj/chcond.o (symbol from plugin)
                                                  build/obj/chmtx.o (symbol from plugin)
                                                  build/obj/chsem.o (symbol from plugin)
                                                  build/obj/chregistry.o (symbol from plugin)
                                                  build/obj/chdynamic.o (symbol from plugin)
                                                  build/obj/chthreads.o (symbol from plugin)
                                                  build/obj/chschd.o (symbol from plugin)
                                                  build/obj/chvt.o (symbol from plugin)
                                                  build/obj/chdebug.o (symbol from plugin)
chSysInit                                         /tmp/ccFEEOUj.ltrans12.ltrans.o
                                                  build/obj/chsys.o (symbol from plugin)
                                                  /tmp/ccFEEOUj.ltrans0.ltrans.o
                                                  build/obj/main.o (symbol from plugin)
chSysIntegrityCheckI                              /tmp/ccFEEOUj.ltrans12.ltrans.o
                                                  build/obj/chsys.o (symbol from plugin)
                                                  /tmp/ccFEEOUj.ltrans1.ltrans.o
                                                  build/obj/testsys.o (symbol from plugin)
chSysIsCounterWithinX                             build/obj/chsys.o (symbol from plugin)
chSysLock.12150                                   /tmp/ccFEEOUj.ltrans5.ltrans.o
                                                  /tmp/ccFEEOUj.ltrans4.ltrans.o
chSysLock.13723                                   /tmp/ccFEEOUj.ltrans2.ltrans.o
                                                  /tmp/ccFEEOUj.ltrans1.ltrans.o
chSysLock.14362                                   /tmp/ccFEEOUj.ltrans1.ltrans.o
                                                  /tmp/ccFEEOUj.ltrans0.ltrans.o
chSysLock.5400                                    /tmp/ccFEEOUj.ltrans12.ltrans.o
                                                  /tmp/ccFEEOUj.ltrans11.ltrans.o
chSysLock.6781                                    /tmp/ccFEEOUj.ltrans11.ltrans.o
                                                  /tmp/ccFEEOUj.ltrans10.ltrans.o
chSysLock.7973                                    /tmp/ccFEEOUj.ltrans10.ltrans.o
                                                  /tmp/ccFEEOUj.ltrans9.ltrans.o
chSysLockFromISR.13712                            /tmp/ccFEEOUj.ltrans2.ltrans.o
                                                  /tmp/ccFEEOUj.ltrans1.ltrans.o
chSysPolledDelayX                                 /tmp/ccFEEOUj.ltrans12.ltrans.o
                                                  build/obj/chsys.o (symbol from plugin)
                                                  /tmp/ccFEEOUj.ltrans7.ltrans.o
                                                  build/obj/usb_lld.o (symbol from plugin)
chSysRestoreStatusX                               /tmp/ccFEEOUj.ltrans12.ltrans.o
                                                  build/obj/chsys.o (symbol from plugin)
                                                  /tmp/ccFEEOUj.ltrans1.ltrans.o
                                                  build/obj/testsys.o (symbol from plugin)
chSysSuspend.13752                                /tmp/ccFEEOUj.ltrans2.ltrans.o
                                                  /tmp/ccFEEOUj.ltrans1.ltrans.o
chSysTimerHandlerI                                /tmp/ccFEEOUj.ltrans12.ltrans.o
                                                  build/obj/chsys.o (symbol from plugin)
                                                  /tmp/ccFEEOUj.ltrans7.ltrans.o
                                                  build/obj/st_lld.o (symbol from plugin)
chSysUnconditionalLock.13725                      /tmp/ccFEEOUj.ltrans2.ltrans.o
                                                  /tmp/ccFEEOUj.ltrans1.ltrans.o
chSysUnconditionalUnlock.13721                    /tmp/ccFEEOUj.ltrans2.ltrans.o
                                                  /tmp/ccFEEOUj.ltrans1.ltrans.o
chSysUnlock.12152                                 /tmp/ccFEEOUj.ltrans5.ltrans.o
                                                  /tmp/ccFEEOUj.ltrans4.ltrans.o
chSysUnlock.13719                                 /tmp/ccFEEOUj.ltrans2.ltrans.o
                                                  /tmp/ccFEEOUj.ltrans1.ltrans.o
chSysUnlock.5402                                  /tmp/ccFEEOUj.ltrans12.ltrans.o
                                                  /tmp/ccFEEOUj.ltrans11.ltrans.o
chSysUnlock.6783                                  /tmp/ccFEEOUj.ltrans11.ltrans.o
                                                  /tmp/ccFEEOUj.ltrans10.ltrans.o
chSysUnlock.7975                                  /tmp/ccFEEOUj.ltrans10.ltrans.o
                                                  /tmp/ccFEEOUj.ltrans9.ltrans.o
chSysUnlockFromISR.13714                          /tmp/ccFEEOUj.ltrans2.ltrans.o
                                                  /tmp/ccFEEOUj.ltrans1.ltrans.o
chTMChainMeasurementToX                           build/obj/chtm.o (symbol from plugin)
                                                  build/obj/chstats.o (symbol from plugin)
chTMObjectInit                                    /tmp/ccFEEOUj.ltrans11.ltrans.o
                                                  build/obj/chtm.o (symbol from plugin)
                                                  /tmp/ccFEEOUj.ltrans12.ltrans.o
                                                  build/obj/chstats.o (symbol from plugin)
                                                  build/obj/chthreads.o (symbol from plugin)
chTMStartMeasurementX                             /tmp/ccFEEOUj.ltrans11.ltrans.o
                                                  build/obj/chtm.o (symbol from plugin)
                                                  /tmp/ccFEEOUj.ltrans12.ltrans.o
                                                  build/obj/chstats.o (symbol from plugin)
                                                  build/obj/chsys.o (symbol from plugin)
chTMStopMeasurementX                              build/obj/chtm.o (symbol from plugin)
                                                  build/obj/chstats.o (symbol from plugin)
chThdAddRef                                       /tmp/ccFEEOUj.ltrans11.ltrans.o
                                                  build/obj/chdynamic.o (symbol from plugin)
                                                  /tmp/ccFEEOUj.ltrans2.ltrans.o
                                                  build/obj/testdyn.o (symbol from plugin)
chThdCreateFromHeap                               /tmp/ccFEEOUj.ltrans11.ltrans.o
                                                  build/obj/chdynamic.o (symbol from plugin)
                                                  /tmp/ccFEEOUj.ltrans2.ltrans.o
                                                  /tmp/ccFEEOUj.ltrans0.ltrans.o
                                                  build/obj/main.o (symbol from plugin)
                                                  build/obj/shell.o (symbol from plugin)
                                                  build/obj/testdyn.o (symbol from plugin)
chThdCreateFromMemoryPool                         /tmp/ccFEEOUj.ltrans11.ltrans.o
                                                  build/obj/chdynamic.o (symbol from plugin)
                                                  /tmp/ccFEEOUj.ltrans2.ltrans.o
                                                  build/obj/testdyn.o (symbol from plugin)
chThdCreateI                                      /tmp/ccFEEOUj.ltrans12.ltrans.o
                                                  build/obj/chthreads.o (symbol from plugin)
                                                  /tmp/ccFEEOUj.ltrans11.ltrans.o
                                                  /tmp/ccFEEOUj.ltrans6.ltrans.o
                                                  /tmp/ccFEEOUj.ltrans5.ltrans.o
                                                  build/obj/testthd.o (symbol from plugin)
                                                  build/obj/usb_lld.o (symbol from plugin)
                                                  build/obj/chdynamic.o (symbol from plugin)
chThdCreateStatic                                 /tmp/ccFEEOUj.ltrans12.ltrans.o
                                                  build/obj/chthreads.o (symbol from plugin)
                                                  /tmp/ccFEEOUj.ltrans5.ltrans.o
                                                  /tmp/ccFEEOUj.ltrans4.ltrans.o
                                                  /tmp/ccFEEOUj.ltrans3.ltrans.o
                                                  /tmp/ccFEEOUj.ltrans2.ltrans.o
                                                  /tmp/ccFEEOUj.ltrans1.ltrans.o
                                                  /tmp/ccFEEOUj.ltrans0.ltrans.o
                                                  build/obj/main.o (symbol from plugin)
                                                  build/obj/shell.o (symbol from plugin)
                                                  build/obj/testbmk.o (symbol from plugin)
                                                  build/obj/testqueues.o (symbol from plugin)
                                                  build/obj/testevt.o (symbol from plugin)
                                                  build/obj/testmsg.o (symbol from plugin)
                                                  build/obj/testmtx.o (symbol from plugin)
                                                  build/obj/testsem.o (symbol from plugin)
                                                  build/obj/testthd.o (symbol from plugin)
                                                  build/obj/chsys.o (symbol from plugin)
chThdDequeueAllI                                  /tmp/ccFEEOUj.ltrans11.ltrans.o
                                                  build/obj/chthreads.o (symbol from plugin)
                                                  /tmp/ccFEEOUj.ltrans9.ltrans.o
                                                  build/obj/hal_buffers.o (symbol from plugin)
                                                  build/obj/chqueues.o (symbol from plugin)
chThdDequeueNextI                                 /tmp/ccFEEOUj.ltrans11.ltrans.o
                                                  build/obj/chthreads.o (symbol from plugin)
                                                  /tmp/ccFEEOUj.ltrans9.ltrans.o
                                                  build/obj/hal_buffers.o (symbol from plugin)
                                                  build/obj/chqueues.o (symbol from plugin)
chThdDoDequeueNextI.5407                          /tmp/ccFEEOUj.ltrans12.ltrans.o
                                                  /tmp/ccFEEOUj.ltrans11.ltrans.o
chThdEnqueueTimeoutS                              /tmp/ccFEEOUj.ltrans11.ltrans.o
                                                  build/obj/chthreads.o (symbol from plugin)
                                                  /tmp/ccFEEOUj.ltrans9.ltrans.o
                                                  build/obj/hal_buffers.o (symbol from plugin)
                                                  build/obj/chqueues.o (symbol from plugin)
chThdExit                                         /tmp/ccFEEOUj.ltrans11.ltrans.o
                                                  build/obj/chthreads.o (symbol from plugin)
                                                  /tmp/ccFEEOUj.ltrans1.ltrans.o
                                                  build/obj/testbmk.o (symbol from plugin)
                                                  build/obj/chcoreasm_v7m.o
chThdExitS                                        /tmp/ccFEEOUj.ltrans11.ltrans.o
                                                  build/obj/chthreads.o (symbol from plugin)
                                                  /tmp/ccFEEOUj.ltrans0.ltrans.o
                                                  build/obj/shell.o (symbol from plugin)
chThdGetPriorityX.12128                           /tmp/ccFEEOUj.ltrans5.ltrans.o
                                                  /tmp/ccFEEOUj.ltrans4.ltrans.o
chThdGetSelfX.5398                                /tmp/ccFEEOUj.ltrans12.ltrans.o
                                                  /tmp/ccFEEOUj.ltrans11.ltrans.o
chThdQueueObjectInit.7943                         /tmp/ccFEEOUj.ltrans10.ltrans.o
                                                  /tmp/ccFEEOUj.ltrans9.ltrans.o
chThdRelease                                      /tmp/ccFEEOUj.ltrans11.ltrans.o
                                                  build/obj/chdynamic.o (symbol from plugin)
                                                  /tmp/ccFEEOUj.ltrans2.ltrans.o
                                                  /tmp/ccFEEOUj.ltrans0.ltrans.o
                                                  build/obj/main.o (symbol from plugin)
                                                  build/obj/testdyn.o (symbol from plugin)
                                                  build/obj/chregistry.o (symbol from plugin)
                                                  build/obj/chthreads.o (symbol from plugin)
chThdResume                                       build/obj/chthreads.o (symbol from plugin)
chThdResumeI                                      /tmp/ccFEEOUj.ltrans11.ltrans.o
                                                  build/obj/chthreads.o (symbol from plugin)
                                                  /tmp/ccFEEOUj.ltrans7.ltrans.o
                                                  build/obj/usb_lld.o (symbol from plugin)
chThdResumeS                                      build/obj/chthreads.o (symbol from plugin)
chThdSetPriority                                  /tmp/ccFEEOUj.ltrans11.ltrans.o
                                                  build/obj/chthreads.o (symbol from plugin)
                                                  /tmp/ccFEEOUj.ltrans5.ltrans.o
                                                  build/obj/testthd.o (symbol from plugin)
chThdSleep                                        /tmp/ccFEEOUj.ltrans11.ltrans.o
                                                  build/obj/chthreads.o (symbol from plugin)
                                                  /tmp/ccFEEOUj.ltrans6.ltrans.o
                                                  /tmp/ccFEEOUj.ltrans5.ltrans.o
                                                  /tmp/ccFEEOUj.ltrans4.ltrans.o
                                                  /tmp/ccFEEOUj.ltrans3.ltrans.o
                                                  /tmp/ccFEEOUj.ltrans2.ltrans.o
                                                  /tmp/ccFEEOUj.ltrans1.ltrans.o
                                                  /tmp/ccFEEOUj.ltrans0.ltrans.o
                                                  build/obj/main.o (symbol from plugin)
                                                  build/obj/testbmk.o (symbol from plugin)
                                                  build/obj/testsys.o (symbol from plugin)
                                                  build/obj/testdyn.o (symbol from plugin)
                                                  build/obj/testevt.o (symbol from plugin)
                                                  build/obj/testmtx.o (symbol from plugin)
                                                  build/obj/testsem.o (symbol from plugin)
                                                  build/obj/testthd.o (symbol from plugin)
                                                  build/obj/test.o (symbol from plugin)
chThdSleepS.5411                                  /tmp/ccFEEOUj.ltrans12.ltrans.o
                                                  /tmp/ccFEEOUj.ltrans11.ltrans.o
chThdSleepUntil                                   /tmp/ccFEEOUj.ltrans11.ltrans.o
                                                  build/obj/chthreads.o (symbol from plugin)
                                                  /tmp/ccFEEOUj.ltrans5.ltrans.o
                                                  build/obj/testthd.o (symbol from plugin)
chThdSleepUntilWindowed                           build/obj/chthreads.o (symbol from plugin)
chThdStart                                        /tmp/ccFEEOUj.ltrans11.ltrans.o
                                                  build/obj/chthreads.o (symbol from plugin)
                                                  /tmp/ccFEEOUj.ltrans5.ltrans.o
                                                  build/obj/testthd.o (symbol from plugin)
chThdStartI.10658                                 /tmp/ccFEEOUj.ltrans7.ltrans.o
                                                  /tmp/ccFEEOUj.ltrans6.ltrans.o
chThdStartI.5404                                  /tmp/ccFEEOUj.ltrans12.ltrans.o
                                                  /tmp/ccFEEOUj.ltrans11.ltrans.o
chThdSuspendS                                     /tmp/ccFEEOUj.ltrans11.ltrans.o
                                                  build/obj/chthreads.o (symbol from plugin)
                                                  /tmp/ccFEEOUj.ltrans7.ltrans.o
                                                  build/obj/usb_lld.o (symbol from plugin)
chThdSuspendTimeoutS                              build/obj/chthreads.o (symbol from plugin)
chThdTerminate                                    /tmp/ccFEEOUj.ltrans11.ltrans.o
                                                  build/obj/chthreads.o (symbol from plugin)
                                                  /tmp/ccFEEOUj.ltrans6.ltrans.o
                                                  build/obj/test.o (symbol from plugin)
chThdWait                                         /tmp/ccFEEOUj.ltrans11.ltrans.o
                                                  build/obj/chthreads.o (symbol from plugin)
                                                  /tmp/ccFEEOUj.ltrans6.ltrans.o
                                                  /tmp/ccFEEOUj.ltrans1.ltrans.o
                                                  /tmp/ccFEEOUj.ltrans0.ltrans.o
                                                  build/obj/main.o (symbol from plugin)
                                                  build/obj/testbmk.o (symbol from plugin)
                                                  build/obj/test.o (symbol from plugin)
chThdYield                                        /tmp/ccFEEOUj.ltrans11.ltrans.o
                                                  build/obj/chthreads.o (symbol from plugin)
                                                  /tmp/ccFEEOUj.ltrans1.ltrans.o
                                                  build/obj/testbmk.o (symbol from plugin)
chVTDoResetI                                      /tmp/ccFEEOUj.ltrans12.ltrans.o
                                                  build/obj/chvt.o (symbol from plugin)
                                                  /tmp/ccFEEOUj.ltrans6.ltrans.o
                                                  /tmp/ccFEEOUj.ltrans1.ltrans.o
                                                  build/obj/testbmk.o (symbol from plugin)
                                                  build/obj/testsys.o (symbol from plugin)
                                                  build/obj/test.o (symbol from plugin)
                                                  build/obj/chschd.o (symbol from plugin)
chVTDoSetI                                        /tmp/ccFEEOUj.ltrans12.ltrans.o
                                                  build/obj/chvt.o (symbol from plugin)
                                                  /tmp/ccFEEOUj.ltrans6.ltrans.o
                                                  /tmp/ccFEEOUj.ltrans1.ltrans.o
                                                  build/obj/testbmk.o (symbol from plugin)
                                                  build/obj/testsys.o (symbol from plugin)
                                                  build/obj/test.o (symbol from plugin)
                                                  build/obj/chschd.o (symbol from plugin)
chVTGetSystemTimeX.5391                           /tmp/ccFEEOUj.ltrans12.ltrans.o
                                                  /tmp/ccFEEOUj.ltrans11.ltrans.o
chVTIsArmedI.13727                                /tmp/ccFEEOUj.ltrans2.ltrans.o
                                                  /tmp/ccFEEOUj.ltrans1.ltrans.o
chVTIsTimeWithinX.5393                            /tmp/ccFEEOUj.ltrans12.ltrans.o
                                                  /tmp/ccFEEOUj.ltrans11.ltrans.o
chVTObjectInit.13700                              /tmp/ccFEEOUj.ltrans2.ltrans.o
                                                  /tmp/ccFEEOUj.ltrans1.ltrans.o
ch_debug                                          build/obj/chregistry.o (symbol from plugin)
                                                  build/obj/chsys.o (symbol from plugin)
chp.11407                                         /tmp/ccFEEOUj.ltrans12.ltrans.o
                                                  /tmp/ccFEEOUj.ltrans6.ltrans.o
                                                  /tmp/ccFEEOUj.ltrans5.ltrans.o
chprintf                                          /tmp/ccFEEOUj.ltrans0.ltrans.o
                                                  build/obj/chprintf.o (symbol from plugin)
                                                  /tmp/ccFEEOUj.ltrans1.ltrans.o
                                                  build/obj/main.o (symbol from plugin)
                                                  build/obj/shell.o (symbol from plugin)
chsnprintf                                        build/obj/chprintf.o (symbol from plugin)
chvprintf                                         build/obj/chprintf.o (symbol from plugin)
cmd_info.14389                                    /tmp/ccFEEOUj.ltrans1.ltrans.o
                                                  /tmp/ccFEEOUj.ltrans12.ltrans.o
cmd_mem.15187                                     /tmp/ccFEEOUj.ltrans0.ltrans.o
                                                  /tmp/ccFEEOUj.ltrans12.ltrans.o
cmd_systime.14394                                 /tmp/ccFEEOUj.ltrans1.ltrans.o
                                                  /tmp/ccFEEOUj.ltrans12.ltrans.o
cmd_test.15197                                    /tmp/ccFEEOUj.ltrans0.ltrans.o
                                                  /tmp/ccFEEOUj.ltrans12.ltrans.o
cmd_threads.15192                                 /tmp/ccFEEOUj.ltrans0.ltrans.o
                                                  /tmp/ccFEEOUj.ltrans12.ltrans.o
cmd_write.15173                                   /tmp/ccFEEOUj.ltrans0.ltrans.o
                                                  /tmp/ccFEEOUj.ltrans12.ltrans.o
commands.15537                                    /tmp/ccFEEOUj.ltrans12.ltrans.o
default_handler.10033                             /tmp/ccFEEOUj.ltrans8.ltrans.o
                                                  /tmp/ccFEEOUj.ltrans7.ltrans.o
default_heap.8417                                 /tmp/ccFEEOUj.ltrans12.ltrans.o
                                                  /tmp/ccFEEOUj.ltrans9.ltrans.o
dyn1_execute.13259                                /tmp/ccFEEOUj.ltrans2.ltrans.o
                                                  /tmp/ccFEEOUj.ltrans12.ltrans.o
dyn1_setup.13255                                  /tmp/ccFEEOUj.ltrans2.ltrans.o
                                                  /tmp/ccFEEOUj.ltrans12.ltrans.o
dyn2_execute.13263                                /tmp/ccFEEOUj.ltrans2.ltrans.o
                                                  /tmp/ccFEEOUj.ltrans12.ltrans.o
dyn2_setup.13261                                  /tmp/ccFEEOUj.ltrans2.ltrans.o
                                                  /tmp/ccFEEOUj.ltrans12.ltrans.o
dyn3_execute.13269                                /tmp/ccFEEOUj.ltrans2.ltrans.o
                                                  /tmp/ccFEEOUj.ltrans12.ltrans.o
dyn3_setup.13257                                  /tmp/ccFEEOUj.ltrans2.ltrans.o
                                                  /tmp/ccFEEOUj.ltrans12.ltrans.o
endmem.8284                                       /tmp/ccFEEOUj.ltrans12.ltrans.o
                                                  /tmp/ccFEEOUj.ltrans9.ltrans.o
ep0_state.11061                                   /tmp/ccFEEOUj.ltrans12.ltrans.o
ep0config.11060                                   /tmp/ccFEEOUj.ltrans12.ltrans.o
                                                  /tmp/ccFEEOUj.ltrans6.ltrans.o
ep0setup_buffer.11065                             /tmp/ccFEEOUj.ltrans12.ltrans.o
ep1config.15050                                   /tmp/ccFEEOUj.ltrans12.ltrans.o
                                                  /tmp/ccFEEOUj.ltrans0.ltrans.o
ep1instate.15051                                  /tmp/ccFEEOUj.ltrans12.ltrans.o
ep1outstate.15052                                 /tmp/ccFEEOUj.ltrans12.ltrans.o
ep2config.15053                                   /tmp/ccFEEOUj.ltrans12.ltrans.o
                                                  /tmp/ccFEEOUj.ltrans0.ltrans.o
ep2instate.15054                                  /tmp/ccFEEOUj.ltrans12.ltrans.o
es1.12943                                         /tmp/ccFEEOUj.ltrans12.ltrans.o
                                                  /tmp/ccFEEOUj.ltrans3.ltrans.o
es2.12945                                         /tmp/ccFEEOUj.ltrans12.ltrans.o
                                                  /tmp/ccFEEOUj.ltrans3.ltrans.o
evhndl.12944                                      /tmp/ccFEEOUj.ltrans12.ltrans.o
                                                  /tmp/ccFEEOUj.ltrans3.ltrans.o
evt1_execute.12835                                /tmp/ccFEEOUj.ltrans3.ltrans.o
                                                  /tmp/ccFEEOUj.ltrans12.ltrans.o
evt1_setup.12814                                  /tmp/ccFEEOUj.ltrans3.ltrans.o
                                                  /tmp/ccFEEOUj.ltrans12.ltrans.o
evt2_execute.12852                                /tmp/ccFEEOUj.ltrans3.ltrans.o
                                                  /tmp/ccFEEOUj.ltrans12.ltrans.o
evt2_setup.12816                                  /tmp/ccFEEOUj.ltrans3.ltrans.o
                                                  /tmp/ccFEEOUj.ltrans12.ltrans.o
evt3_execute.12854                                /tmp/ccFEEOUj.ltrans3.ltrans.o
                                                  /tmp/ccFEEOUj.ltrans12.ltrans.o
evt3_setup.12818                                  /tmp/ccFEEOUj.ltrans3.ltrans.o
                                                  /tmp/ccFEEOUj.ltrans12.ltrans.o
execute_test.11248                                /tmp/ccFEEOUj.ltrans6.ltrans.o
                                                  /tmp/ccFEEOUj.ltrans5.ltrans.o
failpoint.11421                                   /tmp/ccFEEOUj.ltrans12.ltrans.o
                                                  /tmp/ccFEEOUj.ltrans6.ltrans.o
                                                  /tmp/ccFEEOUj.ltrans5.ltrans.o
fsparams.11057                                    /tmp/ccFEEOUj.ltrans12.ltrans.o
                                                  /tmp/ccFEEOUj.ltrans6.ltrans.o
get.14580                                         /tmp/ccFEEOUj.ltrans0.ltrans.o
                                                  /tmp/ccFEEOUj.ltrans12.ltrans.o
get.9346                                          /tmp/ccFEEOUj.ltrans8.ltrans.o
                                                  /tmp/ccFEEOUj.ltrans12.ltrans.o
get_descriptor.14698                              /tmp/ccFEEOUj.ltrans0.ltrans.o
                                                  /tmp/ccFEEOUj.ltrans12.ltrans.o
get_hword.9773                                    /tmp/ccFEEOUj.ltrans8.ltrans.o
                                                  /tmp/ccFEEOUj.ltrans7.ltrans.o
gett.9349                                         /tmp/ccFEEOUj.ltrans8.ltrans.o
                                                  /tmp/ccFEEOUj.ltrans12.ltrans.o
h1.12820                                          /tmp/ccFEEOUj.ltrans3.ltrans.o
                                                  /tmp/ccFEEOUj.ltrans12.ltrans.o
h2.12824                                          /tmp/ccFEEOUj.ltrans3.ltrans.o
                                                  /tmp/ccFEEOUj.ltrans12.ltrans.o
h3.12827                                          /tmp/ccFEEOUj.ltrans3.ltrans.o
                                                  /tmp/ccFEEOUj.ltrans12.ltrans.o
halInit                                           /tmp/ccFEEOUj.ltrans9.ltrans.o
                                                  build/obj/hal.o (symbol from plugin)
                                                  /tmp/ccFEEOUj.ltrans0.ltrans.o
                                                  build/obj/main.o (symbol from plugin)
hal_lld_init                                      /tmp/ccFEEOUj.ltrans7.ltrans.o
                                                  build/obj/hal_lld.o (symbol from plugin)
                                                  /tmp/ccFEEOUj.ltrans9.ltrans.o
                                                  build/obj/hal.o (symbol from plugin)
halted_status.10188                               /tmp/ccFEEOUj.ltrans12.ltrans.o
                                                  /tmp/ccFEEOUj.ltrans8.ltrans.o
heap1.13372                                       /tmp/ccFEEOUj.ltrans12.ltrans.o
                                                  /tmp/ccFEEOUj.ltrans2.ltrans.o
heap1_execute.12996                               /tmp/ccFEEOUj.ltrans3.ltrans.o
                                                  /tmp/ccFEEOUj.ltrans12.ltrans.o
heap1_setup.12993                                 /tmp/ccFEEOUj.ltrans3.ltrans.o
                                                  /tmp/ccFEEOUj.ltrans12.ltrans.o
hsparams.11059                                    /tmp/ccFEEOUj.ltrans12.ltrans.o
                                                  /tmp/ccFEEOUj.ltrans6.ltrans.o
ib.6758.14215                                     /tmp/ccFEEOUj.ltrans12.ltrans.o
                                                  /tmp/ccFEEOUj.ltrans1.ltrans.o
ibqGetEmptyBufferI                                /tmp/ccFEEOUj.ltrans9.ltrans.o
                                                  build/obj/hal_buffers.o (symbol from plugin)
                                                  /tmp/ccFEEOUj.ltrans8.ltrans.o
                                                  build/obj/serial_usb.o (symbol from plugin)
ibqGetFullBufferTimeout                           build/obj/hal_buffers.o (symbol from plugin)
ibqGetFullBufferTimeoutS                          build/obj/hal_buffers.o (symbol from plugin)
ibqGetTimeout                                     /tmp/ccFEEOUj.ltrans9.ltrans.o
                                                  build/obj/hal_buffers.o (symbol from plugin)
                                                  /tmp/ccFEEOUj.ltrans8.ltrans.o
                                                  build/obj/serial_usb.o (symbol from plugin)
ibqObjectInit                                     /tmp/ccFEEOUj.ltrans9.ltrans.o
                                                  build/obj/hal_buffers.o (symbol from plugin)
                                                  /tmp/ccFEEOUj.ltrans8.ltrans.o
                                                  build/obj/serial_usb.o (symbol from plugin)
ibqPostFullBufferI                                /tmp/ccFEEOUj.ltrans9.ltrans.o
                                                  build/obj/hal_buffers.o (symbol from plugin)
                                                  /tmp/ccFEEOUj.ltrans8.ltrans.o
                                                  build/obj/serial_usb.o (symbol from plugin)
ibqReadTimeout                                    /tmp/ccFEEOUj.ltrans9.ltrans.o
                                                  build/obj/hal_buffers.o (symbol from plugin)
                                                  /tmp/ccFEEOUj.ltrans8.ltrans.o
                                                  build/obj/serial_usb.o (symbol from plugin)
ibqReleaseEmptyBuffer                             build/obj/hal_buffers.o (symbol from plugin)
ibqReleaseEmptyBufferS                            build/obj/hal_buffers.o (symbol from plugin)
ibqResetI                                         /tmp/ccFEEOUj.ltrans9.ltrans.o
                                                  build/obj/hal_buffers.o (symbol from plugin)
                                                  /tmp/ccFEEOUj.ltrans8.ltrans.o
                                                  build/obj/serial_usb.o (symbol from plugin)
iq.13639                                          /tmp/ccFEEOUj.ltrans12.ltrans.o
                                                  /tmp/ccFEEOUj.ltrans2.ltrans.o
iq.6759.14214                                     /tmp/ccFEEOUj.ltrans12.ltrans.o
                                                  /tmp/ccFEEOUj.ltrans1.ltrans.o
linecoding.9717                                   /tmp/ccFEEOUj.ltrans12.ltrans.o
                                                  /tmp/ccFEEOUj.ltrans8.ltrans.o
list_insert.5377                                  /tmp/ccFEEOUj.ltrans12.ltrans.o
                                                  /tmp/ccFEEOUj.ltrans11.ltrans.o
list_notempty.5367                                /tmp/ccFEEOUj.ltrans12.ltrans.o
                                                  /tmp/ccFEEOUj.ltrans11.ltrans.o
list_remove.5381                                  /tmp/ccFEEOUj.ltrans12.ltrans.o
                                                  /tmp/ccFEEOUj.ltrans11.ltrans.o
local_commands.14533                              /tmp/ccFEEOUj.ltrans12.ltrans.o
                                                  /tmp/ccFEEOUj.ltrans1.ltrans.o
local_fail.11420                                  /tmp/ccFEEOUj.ltrans12.ltrans.o
                                                  /tmp/ccFEEOUj.ltrans6.ltrans.o
                                                  /tmp/ccFEEOUj.ltrans5.ltrans.o
m1.12264                                          /tmp/ccFEEOUj.ltrans12.ltrans.o
                                                  /tmp/ccFEEOUj.ltrans5.ltrans.o
                                                  /tmp/ccFEEOUj.ltrans4.ltrans.o
m2.12265                                          /tmp/ccFEEOUj.ltrans12.ltrans.o
                                                  /tmp/ccFEEOUj.ltrans5.ltrans.o
                                                  /tmp/ccFEEOUj.ltrans4.ltrans.o
main                                              /tmp/ccFEEOUj.ltrans0.ltrans.o
                                                  build/obj/main.o (symbol from plugin)
                                                  build/obj/crt0_v7m.o
mb1.12610                                         /tmp/ccFEEOUj.ltrans12.ltrans.o
                                                  /tmp/ccFEEOUj.ltrans4.ltrans.o
mbox1_execute.12589                               /tmp/ccFEEOUj.ltrans4.ltrans.o
                                                  /tmp/ccFEEOUj.ltrans12.ltrans.o
mbox1_setup.12479                                 /tmp/ccFEEOUj.ltrans4.ltrans.o
                                                  /tmp/ccFEEOUj.ltrans12.ltrans.o
memcpy                                            /usr/lib/gcc/arm-none-eabi/4.8.2/../../../arm-none-eabi/lib/armv7e-m/libg.a(lib_a-memcpy.o)
                                                  /tmp/ccFEEOUj.ltrans9.ltrans.o
                                                  /tmp/ccFEEOUj.ltrans8.ltrans.o
                                                  /tmp/ccFEEOUj.ltrans6.ltrans.o
                                                  /tmp/ccFEEOUj.ltrans0.ltrans.o
memset                                            /usr/lib/gcc/arm-none-eabi/4.8.2/../../../arm-none-eabi/lib/armv7e-m/libg.a(lib_a-memset.o)
                                                  /tmp/ccFEEOUj.ltrans7.ltrans.o
mp1.13149                                         /tmp/ccFEEOUj.ltrans12.ltrans.o
                                                  /tmp/ccFEEOUj.ltrans2.ltrans.o
mp1.13384                                         /tmp/ccFEEOUj.ltrans12.ltrans.o
                                                  /tmp/ccFEEOUj.ltrans2.ltrans.o
msObjectInit                                      build/obj/memstreams.o (symbol from plugin)
                                                  build/obj/chprintf.o (symbol from plugin)
msg1_execute.12391                                /tmp/ccFEEOUj.ltrans4.ltrans.o
                                                  /tmp/ccFEEOUj.ltrans12.ltrans.o
mtx1.14218                                        /tmp/ccFEEOUj.ltrans12.ltrans.o
                                                  /tmp/ccFEEOUj.ltrans1.ltrans.o
mtx1_execute.12142                                /tmp/ccFEEOUj.ltrans5.ltrans.o
                                                  /tmp/ccFEEOUj.ltrans12.ltrans.o
mtx1_setup.12130                                  /tmp/ccFEEOUj.ltrans5.ltrans.o
                                                  /tmp/ccFEEOUj.ltrans12.ltrans.o
mtx4_execute.12154                                /tmp/ccFEEOUj.ltrans4.ltrans.o
                                                  /tmp/ccFEEOUj.ltrans12.ltrans.o
mtx4_setup.12132                                  /tmp/ccFEEOUj.ltrans5.ltrans.o
                                                  /tmp/ccFEEOUj.ltrans12.ltrans.o
mtx5_execute.12156                                /tmp/ccFEEOUj.ltrans4.ltrans.o
                                                  /tmp/ccFEEOUj.ltrans12.ltrans.o
mtx5_setup.12134                                  /tmp/ccFEEOUj.ltrans4.ltrans.o
                                                  /tmp/ccFEEOUj.ltrans12.ltrans.o
mtx6_execute.12167                                /tmp/ccFEEOUj.ltrans4.ltrans.o
                                                  /tmp/ccFEEOUj.ltrans12.ltrans.o
mtx6_setup.12158                                  /tmp/ccFEEOUj.ltrans4.ltrans.o
                                                  /tmp/ccFEEOUj.ltrans12.ltrans.o
mtx7_execute.12169                                /tmp/ccFEEOUj.ltrans4.ltrans.o
                                                  /tmp/ccFEEOUj.ltrans12.ltrans.o
mtx7_setup.12160                                  /tmp/ccFEEOUj.ltrans4.ltrans.o
                                                  /tmp/ccFEEOUj.ltrans12.ltrans.o
mtx8_execute.12174                                /tmp/ccFEEOUj.ltrans4.ltrans.o
                                                  /tmp/ccFEEOUj.ltrans12.ltrans.o
mtx8_setup.12162                                  /tmp/ccFEEOUj.ltrans4.ltrans.o
                                                  /tmp/ccFEEOUj.ltrans12.ltrans.o
nextmem.8282                                      /tmp/ccFEEOUj.ltrans12.ltrans.o
                                                  /tmp/ccFEEOUj.ltrans9.ltrans.o
notify.13496                                      /tmp/ccFEEOUj.ltrans2.ltrans.o
                                                  /tmp/ccFEEOUj.ltrans12.ltrans.o
null_provider.13126                               /tmp/ccFEEOUj.ltrans3.ltrans.o
                                                  /tmp/ccFEEOUj.ltrans2.ltrans.o
nvicClearPending                                  build/obj/nvic.o (symbol from plugin)
nvicDisableVector                                 /tmp/ccFEEOUj.ltrans7.ltrans.o
                                                  build/obj/nvic.o (symbol from plugin)
                                                  /tmp/ccFEEOUj.ltrans6.ltrans.o
                                                  build/obj/usb_lld.o (symbol from plugin)
nvicEnableVector                                  /tmp/ccFEEOUj.ltrans7.ltrans.o
                                                  build/obj/nvic.o (symbol from plugin)
                                                  /tmp/ccFEEOUj.ltrans6.ltrans.o
                                                  build/obj/usb_lld.o (symbol from plugin)
                                                  build/obj/st_lld.o (symbol from plugin)
nvicSetSystemHandlerPriority                      build/obj/nvic.o (symbol from plugin)
obqFlush                                          build/obj/hal_buffers.o (symbol from plugin)
obqGetEmptyBufferTimeout                          build/obj/hal_buffers.o (symbol from plugin)
obqGetEmptyBufferTimeoutS                         /tmp/ccFEEOUj.ltrans9.ltrans.o
                                                  build/obj/hal_buffers.o (symbol from plugin)
                                                  /tmp/ccFEEOUj.ltrans8.ltrans.o
obqGetFullBufferI                                 /tmp/ccFEEOUj.ltrans9.ltrans.o
                                                  build/obj/hal_buffers.o (symbol from plugin)
                                                  /tmp/ccFEEOUj.ltrans8.ltrans.o
                                                  build/obj/serial_usb.o (symbol from plugin)
obqObjectInit                                     /tmp/ccFEEOUj.ltrans9.ltrans.o
                                                  build/obj/hal_buffers.o (symbol from plugin)
                                                  /tmp/ccFEEOUj.ltrans8.ltrans.o
                                                  build/obj/serial_usb.o (symbol from plugin)
obqPostFullBuffer                                 build/obj/hal_buffers.o (symbol from plugin)
obqPostFullBufferS                                /tmp/ccFEEOUj.ltrans8.ltrans.o
                                                  build/obj/hal_buffers.o (symbol from plugin)
                                                  /tmp/ccFEEOUj.ltrans9.ltrans.o
obqPutTimeout                                     build/obj/hal_buffers.o (symbol from plugin)
                                                  build/obj/serial_usb.o (symbol from plugin)
obqReleaseEmptyBufferI                            /tmp/ccFEEOUj.ltrans9.ltrans.o
                                                  build/obj/hal_buffers.o (symbol from plugin)
                                                  /tmp/ccFEEOUj.ltrans8.ltrans.o
                                                  build/obj/serial_usb.o (symbol from plugin)
obqResetI                                         /tmp/ccFEEOUj.ltrans9.ltrans.o
                                                  build/obj/hal_buffers.o (symbol from plugin)
                                                  /tmp/ccFEEOUj.ltrans8.ltrans.o
                                                  build/obj/serial_usb.o (symbol from plugin)
obqTryFlushI                                      build/obj/hal_buffers.o (symbol from plugin)
                                                  build/obj/serial_usb.o (symbol from plugin)
obqWriteTimeout                                   build/obj/hal_buffers.o (symbol from plugin)
                                                  build/obj/serial_usb.o (symbol from plugin)
oq.13652                                          /tmp/ccFEEOUj.ltrans12.ltrans.o
                                                  /tmp/ccFEEOUj.ltrans2.ltrans.o
osalOsGetSystemTimeX.8894                         /tmp/ccFEEOUj.ltrans9.ltrans.o
                                                  /tmp/ccFEEOUj.ltrans8.ltrans.o
osalSysLock.10670                                 /tmp/ccFEEOUj.ltrans7.ltrans.o
                                                  /tmp/ccFEEOUj.ltrans6.ltrans.o
osalSysLock.8909                                  /tmp/ccFEEOUj.ltrans9.ltrans.o
                                                  /tmp/ccFEEOUj.ltrans8.ltrans.o
osalSysLockFromISR.10566                          /tmp/ccFEEOUj.ltrans7.ltrans.o
                                                  /tmp/ccFEEOUj.ltrans6.ltrans.o
osalSysLockFromISR.9767                           /tmp/ccFEEOUj.ltrans8.ltrans.o
                                                  /tmp/ccFEEOUj.ltrans7.ltrans.o
osalSysUnlock.10666                               /tmp/ccFEEOUj.ltrans7.ltrans.o
                                                  /tmp/ccFEEOUj.ltrans6.ltrans.o
osalSysUnlock.8913                                /tmp/ccFEEOUj.ltrans9.ltrans.o
                                                  /tmp/ccFEEOUj.ltrans8.ltrans.o
osalSysUnlockFromISR.10656                        /tmp/ccFEEOUj.ltrans7.ltrans.o
                                                  /tmp/ccFEEOUj.ltrans6.ltrans.o
osalSysUnlockFromISR.9771                         /tmp/ccFEEOUj.ltrans8.ltrans.o
                                                  /tmp/ccFEEOUj.ltrans7.ltrans.o
osalThreadResumeI.10568                           /tmp/ccFEEOUj.ltrans7.ltrans.o
                                                  /tmp/ccFEEOUj.ltrans6.ltrans.o
osalThreadSuspendS.10661                          /tmp/ccFEEOUj.ltrans7.ltrans.o
                                                  /tmp/ccFEEOUj.ltrans6.ltrans.o
otg_core_reset.10672                              /tmp/ccFEEOUj.ltrans7.ltrans.o
                                                  /tmp/ccFEEOUj.ltrans6.ltrans.o
otg_disable_ep.10843                              /tmp/ccFEEOUj.ltrans7.ltrans.o
                                                  /tmp/ccFEEOUj.ltrans6.ltrans.o
otg_epin_handler.10935                            /tmp/ccFEEOUj.ltrans7.ltrans.o
                                                  /tmp/ccFEEOUj.ltrans6.ltrans.o
otg_epout_handler.10927                           /tmp/ccFEEOUj.ltrans7.ltrans.o
                                                  /tmp/ccFEEOUj.ltrans6.ltrans.o
otg_ram_alloc.10856                               /tmp/ccFEEOUj.ltrans7.ltrans.o
                                                  /tmp/ccFEEOUj.ltrans6.ltrans.o
otg_ram_reset.10853                               /tmp/ccFEEOUj.ltrans7.ltrans.o
                                                  /tmp/ccFEEOUj.ltrans6.ltrans.o
otg_rxfifo_flush.10846                            /tmp/ccFEEOUj.ltrans7.ltrans.o
                                                  /tmp/ccFEEOUj.ltrans6.ltrans.o
otg_rxfifo_handler.10871                          /tmp/ccFEEOUj.ltrans7.ltrans.o
                                                  /tmp/ccFEEOUj.ltrans6.ltrans.o
otg_txfifo_flush.10849                            /tmp/ccFEEOUj.ltrans7.ltrans.o
                                                  /tmp/ccFEEOUj.ltrans6.ltrans.o
otg_txfifo_handler.10874                          /tmp/ccFEEOUj.ltrans7.ltrans.o
                                                  /tmp/ccFEEOUj.ltrans6.ltrans.o
palReadBus                                        build/obj/pal.o (symbol from plugin)
palSetBusMode                                     build/obj/pal.o (symbol from plugin)
palWriteBus                                       build/obj/pal.o (symbol from plugin)
pal_default_config                                /tmp/ccFEEOUj.ltrans12.ltrans.o
                                                  build/obj/board.o (symbol from plugin)
                                                  /tmp/ccFEEOUj.ltrans9.ltrans.o
                                                  build/obj/hal.o (symbol from plugin)
patternbmk                                        build/obj/testbmk.o (symbol from plugin)
                                                  build/obj/test.o (symbol from plugin)
patterndyn                                        build/obj/testdyn.o (symbol from plugin)
                                                  build/obj/test.o (symbol from plugin)
patternevt                                        build/obj/testevt.o (symbol from plugin)
                                                  build/obj/test.o (symbol from plugin)
patternheap                                       build/obj/testheap.o (symbol from plugin)
                                                  build/obj/test.o (symbol from plugin)
patternmbox                                       build/obj/testmbox.o (symbol from plugin)
                                                  build/obj/test.o (symbol from plugin)
patternmsg                                        build/obj/testmsg.o (symbol from plugin)
                                                  build/obj/test.o (symbol from plugin)
patternmtx                                        build/obj/testmtx.o (symbol from plugin)
                                                  build/obj/test.o (symbol from plugin)
patternpools                                      build/obj/testpools.o (symbol from plugin)
                                                  build/obj/test.o (symbol from plugin)
patternqueues                                     build/obj/testqueues.o (symbol from plugin)
                                                  build/obj/test.o (symbol from plugin)
patterns.11424                                    /tmp/ccFEEOUj.ltrans12.ltrans.o
                                                  /tmp/ccFEEOUj.ltrans5.ltrans.o
patternsem                                        build/obj/testsem.o (symbol from plugin)
                                                  build/obj/test.o (symbol from plugin)
patternsys                                        build/obj/testsys.o (symbol from plugin)
                                                  build/obj/test.o (symbol from plugin)
patternthd                                        build/obj/testthd.o (symbol from plugin)
                                                  build/obj/test.o (symbol from plugin)
pools1_execute.13133                              /tmp/ccFEEOUj.ltrans2.ltrans.o
                                                  /tmp/ccFEEOUj.ltrans12.ltrans.o
pools1_setup.13131                                /tmp/ccFEEOUj.ltrans2.ltrans.o
                                                  /tmp/ccFEEOUj.ltrans12.ltrans.o
print_line.11256                                  /tmp/ccFEEOUj.ltrans6.ltrans.o
                                                  /tmp/ccFEEOUj.ltrans5.ltrans.o
print_tokens.11218                                /tmp/ccFEEOUj.ltrans6.ltrans.o
                                                  /tmp/ccFEEOUj.ltrans5.ltrans.o
put.14570                                         /tmp/ccFEEOUj.ltrans0.ltrans.o
                                                  /tmp/ccFEEOUj.ltrans12.ltrans.o
put.9337                                          /tmp/ccFEEOUj.ltrans8.ltrans.o
                                                  /tmp/ccFEEOUj.ltrans12.ltrans.o
putt.9341                                         /tmp/ccFEEOUj.ltrans8.ltrans.o
                                                  /tmp/ccFEEOUj.ltrans12.ltrans.o
queue_fifo_remove.6775                            /tmp/ccFEEOUj.ltrans11.ltrans.o
                                                  /tmp/ccFEEOUj.ltrans10.ltrans.o
queue_insert.5384                                 /tmp/ccFEEOUj.ltrans12.ltrans.o
                                                  /tmp/ccFEEOUj.ltrans11.ltrans.o
queue_isempty.12036                               /tmp/ccFEEOUj.ltrans5.ltrans.o
                                                  /tmp/ccFEEOUj.ltrans4.ltrans.o
queue_notempty.5374                               /tmp/ccFEEOUj.ltrans12.ltrans.o
                                                  /tmp/ccFEEOUj.ltrans11.ltrans.o
queues1_execute.13544                             /tmp/ccFEEOUj.ltrans2.ltrans.o
                                                  /tmp/ccFEEOUj.ltrans12.ltrans.o
queues1_setup.13511                               /tmp/ccFEEOUj.ltrans2.ltrans.o
                                                  /tmp/ccFEEOUj.ltrans12.ltrans.o
queues2_execute.13555                             /tmp/ccFEEOUj.ltrans2.ltrans.o
                                                  /tmp/ccFEEOUj.ltrans12.ltrans.o
queues2_setup.13546                               /tmp/ccFEEOUj.ltrans2.ltrans.o
                                                  /tmp/ccFEEOUj.ltrans12.ltrans.o
read.9326                                         /tmp/ccFEEOUj.ltrans8.ltrans.o
                                                  /tmp/ccFEEOUj.ltrans12.ltrans.o
reads.14589                                       /tmp/ccFEEOUj.ltrans0.ltrans.o
                                                  /tmp/ccFEEOUj.ltrans12.ltrans.o
readt.9331                                        /tmp/ccFEEOUj.ltrans8.ltrans.o
                                                  /tmp/ccFEEOUj.ltrans12.ltrans.o
sduConfigureHookI                                 /tmp/ccFEEOUj.ltrans8.ltrans.o
                                                  build/obj/serial_usb.o (symbol from plugin)
                                                  /tmp/ccFEEOUj.ltrans0.ltrans.o
                                                  build/obj/usbcfg.o (symbol from plugin)
sduDataReceived                                   /tmp/ccFEEOUj.ltrans8.ltrans.o
                                                  build/obj/serial_usb.o (symbol from plugin)
                                                  /tmp/ccFEEOUj.ltrans12.ltrans.o
                                                  build/obj/usbcfg.o (symbol from plugin)
sduDataTransmitted                                /tmp/ccFEEOUj.ltrans8.ltrans.o
                                                  build/obj/serial_usb.o (symbol from plugin)
                                                  /tmp/ccFEEOUj.ltrans12.ltrans.o
                                                  build/obj/usbcfg.o (symbol from plugin)
sduDisconnectI                                    /tmp/ccFEEOUj.ltrans8.ltrans.o
                                                  build/obj/serial_usb.o (symbol from plugin)
                                                  /tmp/ccFEEOUj.ltrans0.ltrans.o
                                                  build/obj/usbcfg.o (symbol from plugin)
sduInit                                           /tmp/ccFEEOUj.ltrans8.ltrans.o
                                                  build/obj/serial_usb.o (symbol from plugin)
                                                  /tmp/ccFEEOUj.ltrans9.ltrans.o
                                                  build/obj/hal.o (symbol from plugin)
sduInterruptTransmitted                           /tmp/ccFEEOUj.ltrans8.ltrans.o
                                                  build/obj/serial_usb.o (symbol from plugin)
                                                  /tmp/ccFEEOUj.ltrans12.ltrans.o
                                                  build/obj/usbcfg.o (symbol from plugin)
sduObjectInit                                     /tmp/ccFEEOUj.ltrans8.ltrans.o
                                                  build/obj/serial_usb.o (symbol from plugin)
                                                  /tmp/ccFEEOUj.ltrans0.ltrans.o
                                                  build/obj/main.o (symbol from plugin)
sduRequestsHook                                   /tmp/ccFEEOUj.ltrans8.ltrans.o
                                                  build/obj/serial_usb.o (symbol from plugin)
                                                  /tmp/ccFEEOUj.ltrans12.ltrans.o
                                                  build/obj/usbcfg.o (symbol from plugin)
sduSOFHookI                                       /tmp/ccFEEOUj.ltrans8.ltrans.o
                                                  build/obj/serial_usb.o (symbol from plugin)
                                                  /tmp/ccFEEOUj.ltrans0.ltrans.o
                                                  build/obj/usbcfg.o (symbol from plugin)
sduStart                                          /tmp/ccFEEOUj.ltrans8.ltrans.o
                                                  build/obj/serial_usb.o (symbol from plugin)
                                                  /tmp/ccFEEOUj.ltrans0.ltrans.o
                                                  build/obj/main.o (symbol from plugin)
sduStop                                           build/obj/serial_usb.o (symbol from plugin)
sem1.11978                                        /tmp/ccFEEOUj.ltrans12.ltrans.o
                                                  /tmp/ccFEEOUj.ltrans5.ltrans.o
sem1.14213                                        /tmp/ccFEEOUj.ltrans12.ltrans.o
                                                  /tmp/ccFEEOUj.ltrans1.ltrans.o
sem1_execute.11869                                /tmp/ccFEEOUj.ltrans5.ltrans.o
                                                  /tmp/ccFEEOUj.ltrans12.ltrans.o
sem1_setup.11836                                  /tmp/ccFEEOUj.ltrans5.ltrans.o
                                                  /tmp/ccFEEOUj.ltrans12.ltrans.o
sem2_execute.11885                                /tmp/ccFEEOUj.ltrans5.ltrans.o
                                                  /tmp/ccFEEOUj.ltrans12.ltrans.o
sem2_setup.11838                                  /tmp/ccFEEOUj.ltrans5.ltrans.o
                                                  /tmp/ccFEEOUj.ltrans12.ltrans.o
sem3_execute.11887                                /tmp/ccFEEOUj.ltrans5.ltrans.o
                                                  /tmp/ccFEEOUj.ltrans12.ltrans.o
sem3_setup.11840                                  /tmp/ccFEEOUj.ltrans5.ltrans.o
                                                  /tmp/ccFEEOUj.ltrans12.ltrans.o
sem4_execute.11893                                /tmp/ccFEEOUj.ltrans5.ltrans.o
                                                  /tmp/ccFEEOUj.ltrans12.ltrans.o
serusbcfg                                         /tmp/ccFEEOUj.ltrans12.ltrans.o
                                                  build/obj/usbcfg.o (symbol from plugin)
                                                  /tmp/ccFEEOUj.ltrans0.ltrans.o
                                                  build/obj/main.o (symbol from plugin)
shellCreate                                       build/obj/shell.o (symbol from plugin)
                                                  build/obj/main.o (symbol from plugin)
shellCreateStatic                                 build/obj/shell.o (symbol from plugin)
shellExit                                         /tmp/ccFEEOUj.ltrans0.ltrans.o
                                                  build/obj/shell.o (symbol from plugin)
                                                  /tmp/ccFEEOUj.ltrans1.ltrans.o
shellGetLine                                      /tmp/ccFEEOUj.ltrans0.ltrans.o
                                                  build/obj/shell.o (symbol from plugin)
                                                  /tmp/ccFEEOUj.ltrans1.ltrans.o
shellInit                                         build/obj/shell.o (symbol from plugin)
                                                  build/obj/main.o (symbol from plugin)
shell_cfg1.15536                                  /tmp/ccFEEOUj.ltrans12.ltrans.o
                                                  /tmp/ccFEEOUj.ltrans0.ltrans.o
shell_terminated                                  /tmp/ccFEEOUj.ltrans12.ltrans.o
                                                  build/obj/shell.o (symbol from plugin)
                                                  /tmp/ccFEEOUj.ltrans0.ltrans.o
shell_thread.14430                                /tmp/ccFEEOUj.ltrans1.ltrans.o
                                                  /tmp/ccFEEOUj.ltrans0.ltrans.o
sof_handler.14970                                 /tmp/ccFEEOUj.ltrans0.ltrans.o
                                                  /tmp/ccFEEOUj.ltrans12.ltrans.o
stGetAlarm                                        build/obj/st.o (symbol from plugin)
stInit                                            build/obj/st.o (symbol from plugin)
                                                  build/obj/hal.o (symbol from plugin)
stSetAlarm                                        /tmp/ccFEEOUj.ltrans9.ltrans.o
                                                  build/obj/st.o (symbol from plugin)
                                                  /tmp/ccFEEOUj.ltrans12.ltrans.o
                                                  build/obj/chvt.o (symbol from plugin)
                                                  build/obj/chsys.o (symbol from plugin)
stStartAlarm                                      /tmp/ccFEEOUj.ltrans9.ltrans.o
                                                  build/obj/st.o (symbol from plugin)
                                                  /tmp/ccFEEOUj.ltrans12.ltrans.o
                                                  build/obj/chvt.o (symbol from plugin)
stStopAlarm                                       /tmp/ccFEEOUj.ltrans9.ltrans.o
                                                  build/obj/st.o (symbol from plugin)
                                                  /tmp/ccFEEOUj.ltrans12.ltrans.o
                                                  build/obj/chvt.o (symbol from plugin)
                                                  build/obj/chsys.o (symbol from plugin)
st_lld_init                                       /tmp/ccFEEOUj.ltrans7.ltrans.o
                                                  build/obj/st_lld.o (symbol from plugin)
                                                  /tmp/ccFEEOUj.ltrans9.ltrans.o
                                                  build/obj/st.o (symbol from plugin)
states.8586.15532                                 /tmp/ccFEEOUj.ltrans12.ltrans.o
                                                  /tmp/ccFEEOUj.ltrans0.ltrans.o
stm32_clock_init                                  /tmp/ccFEEOUj.ltrans7.ltrans.o
                                                  build/obj/hal_lld.o (symbol from plugin)
                                                  /tmp/ccFEEOUj.ltrans6.ltrans.o
                                                  build/obj/board.o (symbol from plugin)
strcmp                                            /usr/lib/gcc/arm-none-eabi/4.8.2/../../../arm-none-eabi/lib/armv7e-m/libg.a(lib_a-strcmp.o)
                                                  /tmp/ccFEEOUj.ltrans1.ltrans.o
strpbrk                                           /usr/lib/gcc/arm-none-eabi/4.8.2/../../../arm-none-eabi/lib/armv7e-m/libg.a(lib_a-strpbrk.o)
                                                  /tmp/ccFEEOUj.ltrans1.ltrans.o
strspn                                            /usr/lib/gcc/arm-none-eabi/4.8.2/../../../arm-none-eabi/lib/armv7e-m/libg.a(lib_a-strspn.o)
                                                  /tmp/ccFEEOUj.ltrans1.ltrans.o
sys1_execute.13748                                /tmp/ccFEEOUj.ltrans1.ltrans.o
                                                  /tmp/ccFEEOUj.ltrans12.ltrans.o
sys2_execute.13756                                /tmp/ccFEEOUj.ltrans1.ltrans.o
                                                  /tmp/ccFEEOUj.ltrans12.ltrans.o
sys3_execute.13758                                /tmp/ccFEEOUj.ltrans1.ltrans.o
                                                  /tmp/ccFEEOUj.ltrans12.ltrans.o
test                                              /tmp/ccFEEOUj.ltrans12.ltrans.o
                                                  build/obj/test.o (symbol from plugin)
                                                  /tmp/ccFEEOUj.ltrans4.ltrans.o
                                                  /tmp/ccFEEOUj.ltrans3.ltrans.o
                                                  /tmp/ccFEEOUj.ltrans2.ltrans.o
                                                  build/obj/testqueues.o (symbol from plugin)
                                                  build/obj/testdyn.o (symbol from plugin)
                                                  build/obj/testheap.o (symbol from plugin)
                                                  build/obj/testmbox.o (symbol from plugin)
test_emit_token                                   /tmp/ccFEEOUj.ltrans6.ltrans.o
                                                  build/obj/test.o (symbol from plugin)
                                                  /tmp/ccFEEOUj.ltrans5.ltrans.o
                                                  /tmp/ccFEEOUj.ltrans4.ltrans.o
                                                  /tmp/ccFEEOUj.ltrans3.ltrans.o
                                                  /tmp/ccFEEOUj.ltrans2.ltrans.o
                                                  build/obj/testqueues.o (symbol from plugin)
                                                  build/obj/testdyn.o (symbol from plugin)
                                                  build/obj/testevt.o (symbol from plugin)
                                                  build/obj/testmbox.o (symbol from plugin)
                                                  build/obj/testmsg.o (symbol from plugin)
                                                  build/obj/testmtx.o (symbol from plugin)
                                                  build/obj/testsem.o (symbol from plugin)
                                                  build/obj/testthd.o (symbol from plugin)
test_global_fail                                  /tmp/ccFEEOUj.ltrans12.ltrans.o
                                                  build/obj/test.o (symbol from plugin)
                                                  /tmp/ccFEEOUj.ltrans6.ltrans.o
                                                  /tmp/ccFEEOUj.ltrans5.ltrans.o
test_heap.13107                                   /tmp/ccFEEOUj.ltrans12.ltrans.o
                                                  /tmp/ccFEEOUj.ltrans3.ltrans.o
test_print                                        /tmp/ccFEEOUj.ltrans6.ltrans.o
                                                  build/obj/test.o (symbol from plugin)
                                                  /tmp/ccFEEOUj.ltrans5.ltrans.o
                                                  /tmp/ccFEEOUj.ltrans1.ltrans.o
                                                  build/obj/testbmk.o (symbol from plugin)
test_println                                      /tmp/ccFEEOUj.ltrans6.ltrans.o
                                                  build/obj/test.o (symbol from plugin)
                                                  /tmp/ccFEEOUj.ltrans5.ltrans.o
                                                  /tmp/ccFEEOUj.ltrans1.ltrans.o
                                                  build/obj/testbmk.o (symbol from plugin)
test_printn                                       /tmp/ccFEEOUj.ltrans6.ltrans.o
                                                  build/obj/test.o (symbol from plugin)
                                                  /tmp/ccFEEOUj.ltrans5.ltrans.o
                                                  /tmp/ccFEEOUj.ltrans1.ltrans.o
                                                  build/obj/testbmk.o (symbol from plugin)
test_start_timer                                  /tmp/ccFEEOUj.ltrans6.ltrans.o
                                                  build/obj/test.o (symbol from plugin)
                                                  /tmp/ccFEEOUj.ltrans1.ltrans.o
                                                  build/obj/testbmk.o (symbol from plugin)
test_terminate_threads                            /tmp/ccFEEOUj.ltrans6.ltrans.o
                                                  build/obj/test.o (symbol from plugin)
                                                  /tmp/ccFEEOUj.ltrans1.ltrans.o
                                                  build/obj/testbmk.o (symbol from plugin)
test_timer_done                                   /tmp/ccFEEOUj.ltrans12.ltrans.o
                                                  build/obj/test.o (symbol from plugin)
                                                  /tmp/ccFEEOUj.ltrans6.ltrans.o
                                                  /tmp/ccFEEOUj.ltrans1.ltrans.o
                                                  build/obj/testbmk.o (symbol from plugin)
test_wait_threads                                 /tmp/ccFEEOUj.ltrans6.ltrans.o
                                                  build/obj/test.o (symbol from plugin)
                                                  /tmp/ccFEEOUj.ltrans5.ltrans.o
                                                  /tmp/ccFEEOUj.ltrans4.ltrans.o
                                                  /tmp/ccFEEOUj.ltrans3.ltrans.o
                                                  /tmp/ccFEEOUj.ltrans2.ltrans.o
                                                  /tmp/ccFEEOUj.ltrans1.ltrans.o
                                                  build/obj/testbmk.o (symbol from plugin)
                                                  build/obj/testqueues.o (symbol from plugin)
                                                  build/obj/testdyn.o (symbol from plugin)
                                                  build/obj/testevt.o (symbol from plugin)
                                                  build/obj/testmtx.o (symbol from plugin)
                                                  build/obj/testsem.o (symbol from plugin)
                                                  build/obj/testthd.o (symbol from plugin)
test_wait_tick                                    /tmp/ccFEEOUj.ltrans6.ltrans.o
                                                  build/obj/test.o (symbol from plugin)
                                                  /tmp/ccFEEOUj.ltrans5.ltrans.o
                                                  /tmp/ccFEEOUj.ltrans3.ltrans.o
                                                  /tmp/ccFEEOUj.ltrans1.ltrans.o
                                                  build/obj/testbmk.o (symbol from plugin)
                                                  build/obj/testevt.o (symbol from plugin)
                                                  build/obj/testsem.o (symbol from plugin)
                                                  build/obj/testthd.o (symbol from plugin)
testbmk1                                          build/obj/testbmk.o (symbol from plugin)
testbmk10                                         build/obj/testbmk.o (symbol from plugin)
testbmk11                                         build/obj/testbmk.o (symbol from plugin)
testbmk12                                         build/obj/testbmk.o (symbol from plugin)
testbmk13                                         build/obj/testbmk.o (symbol from plugin)
testbmk2                                          build/obj/testbmk.o (symbol from plugin)
testbmk3                                          build/obj/testbmk.o (symbol from plugin)
testbmk4                                          build/obj/testbmk.o (symbol from plugin)
testbmk5                                          build/obj/testbmk.o (symbol from plugin)
testbmk6                                          build/obj/testbmk.o (symbol from plugin)
testbmk7                                          build/obj/testbmk.o (symbol from plugin)
testbmk8                                          build/obj/testbmk.o (symbol from plugin)
testbmk9                                          build/obj/testbmk.o (symbol from plugin)
testdyn1                                          build/obj/testdyn.o (symbol from plugin)
testdyn2                                          build/obj/testdyn.o (symbol from plugin)
testdyn3                                          build/obj/testdyn.o (symbol from plugin)
testevt1                                          build/obj/testevt.o (symbol from plugin)
testevt2                                          build/obj/testevt.o (symbol from plugin)
testevt3                                          build/obj/testevt.o (symbol from plugin)
testheap1                                         build/obj/testheap.o (symbol from plugin)
testmbox1                                         build/obj/testmbox.o (symbol from plugin)
testmsg1                                          build/obj/testmsg.o (symbol from plugin)
testmtx1                                          build/obj/testmtx.o (symbol from plugin)
testmtx4                                          build/obj/testmtx.o (symbol from plugin)
testmtx5                                          build/obj/testmtx.o (symbol from plugin)
testmtx6                                          build/obj/testmtx.o (symbol from plugin)
testmtx7                                          build/obj/testmtx.o (symbol from plugin)
testmtx8                                          build/obj/testmtx.o (symbol from plugin)
testpools1                                        build/obj/testpools.o (symbol from plugin)
testqueues1                                       build/obj/testqueues.o (symbol from plugin)
testqueues2                                       build/obj/testqueues.o (symbol from plugin)
testsem1                                          build/obj/testsem.o (symbol from plugin)
testsem2                                          build/obj/testsem.o (symbol from plugin)
testsem3                                          build/obj/testsem.o (symbol from plugin)
testsem4                                          build/obj/testsem.o (symbol from plugin)
testsys1                                          build/obj/testsys.o (symbol from plugin)
testsys2                                          build/obj/testsys.o (symbol from plugin)
testsys3                                          build/obj/testsys.o (symbol from plugin)
testthd1                                          build/obj/testthd.o (symbol from plugin)
testthd2                                          build/obj/testthd.o (symbol from plugin)
testthd3                                          build/obj/testthd.o (symbol from plugin)
testthd4                                          build/obj/testthd.o (symbol from plugin)
thd1_execute.11590                                /tmp/ccFEEOUj.ltrans5.ltrans.o
                                                  /tmp/ccFEEOUj.ltrans12.ltrans.o
thd2_execute.11596                                /tmp/ccFEEOUj.ltrans5.ltrans.o
                                                  /tmp/ccFEEOUj.ltrans12.ltrans.o
thd3_execute.11600                                /tmp/ccFEEOUj.ltrans5.ltrans.o
                                                  /tmp/ccFEEOUj.ltrans12.ltrans.o
thd4_execute.11602                                /tmp/ccFEEOUj.ltrans5.ltrans.o
                                                  /tmp/ccFEEOUj.ltrans12.ltrans.o
threads                                           /tmp/ccFEEOUj.ltrans12.ltrans.o
                                                  build/obj/test.o (symbol from plugin)
                                                  /tmp/ccFEEOUj.ltrans6.ltrans.o
                                                  /tmp/ccFEEOUj.ltrans5.ltrans.o
                                                  /tmp/ccFEEOUj.ltrans4.ltrans.o
                                                  /tmp/ccFEEOUj.ltrans3.ltrans.o
                                                  /tmp/ccFEEOUj.ltrans2.ltrans.o
                                                  /tmp/ccFEEOUj.ltrans1.ltrans.o
                                                  build/obj/testbmk.o (symbol from plugin)
                                                  build/obj/testqueues.o (symbol from plugin)
                                                  build/obj/testdyn.o (symbol from plugin)
                                                  build/obj/testevt.o (symbol from plugin)
                                                  build/obj/testmsg.o (symbol from plugin)
                                                  build/obj/testmtx.o (symbol from plugin)
                                                  build/obj/testsem.o (symbol from plugin)
                                                  build/obj/testthd.o (symbol from plugin)
tokens_buffer.11418                               /tmp/ccFEEOUj.ltrans12.ltrans.o
                                                  /tmp/ccFEEOUj.ltrans6.ltrans.o
tokp.11417                                        /tmp/ccFEEOUj.ltrans12.ltrans.o
                                                  /tmp/ccFEEOUj.ltrans6.ltrans.o
usbDisableEndpointsI                              build/obj/usb.o (symbol from plugin)
usbInit                                           /tmp/ccFEEOUj.ltrans8.ltrans.o
                                                  build/obj/usb.o (symbol from plugin)
                                                  /tmp/ccFEEOUj.ltrans9.ltrans.o
                                                  build/obj/hal.o (symbol from plugin)
usbInitEndpointI                                  /tmp/ccFEEOUj.ltrans7.ltrans.o
                                                  build/obj/usb.o (symbol from plugin)
                                                  /tmp/ccFEEOUj.ltrans0.ltrans.o
                                                  build/obj/usbcfg.o (symbol from plugin)
usbObjectInit                                     /tmp/ccFEEOUj.ltrans8.ltrans.o
                                                  build/obj/usb.o (symbol from plugin)
                                                  /tmp/ccFEEOUj.ltrans6.ltrans.o
                                                  build/obj/usb_lld.o (symbol from plugin)
usbStallReceiveI                                  build/obj/usb.o (symbol from plugin)
usbStallTransmitI                                 build/obj/usb.o (symbol from plugin)
usbStart                                          /tmp/ccFEEOUj.ltrans8.ltrans.o
                                                  build/obj/usb.o (symbol from plugin)
                                                  /tmp/ccFEEOUj.ltrans0.ltrans.o
                                                  build/obj/main.o (symbol from plugin)
usbStartReceiveI                                  /tmp/ccFEEOUj.ltrans7.ltrans.o
                                                  build/obj/usb.o (symbol from plugin)
                                                  /tmp/ccFEEOUj.ltrans8.ltrans.o
                                                  build/obj/serial_usb.o (symbol from plugin)
usbStartTransmitI                                 /tmp/ccFEEOUj.ltrans7.ltrans.o
                                                  build/obj/usb.o (symbol from plugin)
                                                  /tmp/ccFEEOUj.ltrans8.ltrans.o
                                                  build/obj/serial_usb.o (symbol from plugin)
usbStop                                           build/obj/usb.o (symbol from plugin)
usb_event.14964                                   /tmp/ccFEEOUj.ltrans0.ltrans.o
                                                  /tmp/ccFEEOUj.ltrans12.ltrans.o
usb_lld_clear_in                                  /tmp/ccFEEOUj.ltrans6.ltrans.o
                                                  build/obj/usb_lld.o (symbol from plugin)
                                                  /tmp/ccFEEOUj.ltrans8.ltrans.o
                                                  build/obj/usb.o (symbol from plugin)
usb_lld_clear_out                                 /tmp/ccFEEOUj.ltrans6.ltrans.o
                                                  build/obj/usb_lld.o (symbol from plugin)
                                                  /tmp/ccFEEOUj.ltrans8.ltrans.o
                                                  build/obj/usb.o (symbol from plugin)
usb_lld_disable_endpoints                         /tmp/ccFEEOUj.ltrans6.ltrans.o
                                                  build/obj/usb_lld.o (symbol from plugin)
                                                  /tmp/ccFEEOUj.ltrans7.ltrans.o
                                                  build/obj/usb.o (symbol from plugin)
usb_lld_get_status_in                             /tmp/ccFEEOUj.ltrans6.ltrans.o
                                                  build/obj/usb_lld.o (symbol from plugin)
                                                  /tmp/ccFEEOUj.ltrans8.ltrans.o
                                                  build/obj/usb.o (symbol from plugin)
usb_lld_get_status_out                            /tmp/ccFEEOUj.ltrans6.ltrans.o
                                                  build/obj/usb_lld.o (symbol from plugin)
                                                  /tmp/ccFEEOUj.ltrans8.ltrans.o
                                                  build/obj/usb.o (symbol from plugin)
usb_lld_init                                      /tmp/ccFEEOUj.ltrans6.ltrans.o
                                                  build/obj/usb_lld.o (symbol from plugin)
                                                  /tmp/ccFEEOUj.ltrans8.ltrans.o
                                                  build/obj/usb.o (symbol from plugin)
usb_lld_init_endpoint                             /tmp/ccFEEOUj.ltrans6.ltrans.o
                                                  build/obj/usb_lld.o (symbol from plugin)
                                                  /tmp/ccFEEOUj.ltrans7.ltrans.o
                                                  build/obj/usb.o (symbol from plugin)
usb_lld_pump                                      build/obj/usb_lld.o (symbol from plugin)
usb_lld_read_setup                                /tmp/ccFEEOUj.ltrans6.ltrans.o
                                                  build/obj/usb_lld.o (symbol from plugin)
                                                  /tmp/ccFEEOUj.ltrans7.ltrans.o
                                                  build/obj/usb.o (symbol from plugin)
usb_lld_reset                                     /tmp/ccFEEOUj.ltrans6.ltrans.o
                                                  build/obj/usb_lld.o (symbol from plugin)
                                                  /tmp/ccFEEOUj.ltrans7.ltrans.o
                                                  build/obj/usb.o (symbol from plugin)
usb_lld_set_address                               /tmp/ccFEEOUj.ltrans6.ltrans.o
                                                  build/obj/usb_lld.o (symbol from plugin)
                                                  /tmp/ccFEEOUj.ltrans8.ltrans.o
                                                  build/obj/usb.o (symbol from plugin)
usb_lld_stall_in                                  /tmp/ccFEEOUj.ltrans6.ltrans.o
                                                  build/obj/usb_lld.o (symbol from plugin)
                                                  /tmp/ccFEEOUj.ltrans8.ltrans.o
                                                  /tmp/ccFEEOUj.ltrans7.ltrans.o
                                                  build/obj/usb.o (symbol from plugin)
usb_lld_stall_out                                 /tmp/ccFEEOUj.ltrans6.ltrans.o
                                                  build/obj/usb_lld.o (symbol from plugin)
                                                  /tmp/ccFEEOUj.ltrans8.ltrans.o
                                                  /tmp/ccFEEOUj.ltrans7.ltrans.o
                                                  build/obj/usb.o (symbol from plugin)
usb_lld_start                                     /tmp/ccFEEOUj.ltrans6.ltrans.o
                                                  build/obj/usb_lld.o (symbol from plugin)
                                                  /tmp/ccFEEOUj.ltrans8.ltrans.o
                                                  build/obj/usb.o (symbol from plugin)
usb_lld_start_in                                  /tmp/ccFEEOUj.ltrans6.ltrans.o
                                                  build/obj/usb_lld.o (symbol from plugin)
                                                  /tmp/ccFEEOUj.ltrans7.ltrans.o
                                                  build/obj/usb.o (symbol from plugin)
usb_lld_start_out                                 /tmp/ccFEEOUj.ltrans6.ltrans.o
                                                  build/obj/usb_lld.o (symbol from plugin)
                                                  /tmp/ccFEEOUj.ltrans7.ltrans.o
                                                  build/obj/usb.o (symbol from plugin)
usb_lld_stop                                      /tmp/ccFEEOUj.ltrans6.ltrans.o
                                                  build/obj/usb_lld.o (symbol from plugin)
                                                  /tmp/ccFEEOUj.ltrans8.ltrans.o
                                                  build/obj/usb.o (symbol from plugin)
usbcfg                                            /tmp/ccFEEOUj.ltrans12.ltrans.o
                                                  build/obj/usbcfg.o (symbol from plugin)
                                                  /tmp/ccFEEOUj.ltrans0.ltrans.o
                                                  build/obj/main.o (symbol from plugin)
vcom_configuration_descriptor.15043               /tmp/ccFEEOUj.ltrans12.ltrans.o
                                                  /tmp/ccFEEOUj.ltrans0.ltrans.o
vcom_configuration_descriptor_data.15044          /tmp/ccFEEOUj.ltrans12.ltrans.o
vcom_device_descriptor.15041                      /tmp/ccFEEOUj.ltrans12.ltrans.o
                                                  /tmp/ccFEEOUj.ltrans0.ltrans.o
vcom_device_descriptor_data.15042                 /tmp/ccFEEOUj.ltrans12.ltrans.o
vcom_string0.15046                                /tmp/ccFEEOUj.ltrans12.ltrans.o
vcom_string1.15047                                /tmp/ccFEEOUj.ltrans12.ltrans.o
vcom_string2.15048                                /tmp/ccFEEOUj.ltrans12.ltrans.o
vcom_string3.15049                                /tmp/ccFEEOUj.ltrans12.ltrans.o
vcom_strings.15045                                /tmp/ccFEEOUj.ltrans12.ltrans.o
                                                  /tmp/ccFEEOUj.ltrans0.ltrans.o
vmt.14613                                         /tmp/ccFEEOUj.ltrans12.ltrans.o
                                                  /tmp/ccFEEOUj.ltrans0.ltrans.o
vmt.9713                                          /tmp/ccFEEOUj.ltrans12.ltrans.o
                                                  /tmp/ccFEEOUj.ltrans8.ltrans.o
vt.11423                                          /tmp/ccFEEOUj.ltrans12.ltrans.o
                                                  /tmp/ccFEEOUj.ltrans6.ltrans.o
vt1.6769.14216                                    /tmp/ccFEEOUj.ltrans12.ltrans.o
                                                  /tmp/ccFEEOUj.ltrans1.ltrans.o
vt2.6770.14217                                    /tmp/ccFEEOUj.ltrans12.ltrans.o
                                                  /tmp/ccFEEOUj.ltrans1.ltrans.o
wa                                                /tmp/ccFEEOUj.ltrans12.ltrans.o
                                                  build/obj/test.o (symbol from plugin)
                                                  /tmp/ccFEEOUj.ltrans5.ltrans.o
                                                  /tmp/ccFEEOUj.ltrans4.ltrans.o
                                                  /tmp/ccFEEOUj.ltrans3.ltrans.o
                                                  /tmp/ccFEEOUj.ltrans2.ltrans.o
                                                  /tmp/ccFEEOUj.ltrans1.ltrans.o
                                                  build/obj/testbmk.o (symbol from plugin)
                                                  build/obj/testqueues.o (symbol from plugin)
                                                  build/obj/testdyn.o (symbol from plugin)
                                                  build/obj/testpools.o (symbol from plugin)
                                                  build/obj/testevt.o (symbol from plugin)
                                                  build/obj/testmsg.o (symbol from plugin)
                                                  build/obj/testmtx.o (symbol from plugin)
                                                  build/obj/testsem.o (symbol from plugin)
                                                  build/obj/testthd.o (symbol from plugin)
waThread1.15535                                   /tmp/ccFEEOUj.ltrans12.ltrans.o
                                                  /tmp/ccFEEOUj.ltrans0.ltrans.o
write.9313                                        /tmp/ccFEEOUj.ltrans8.ltrans.o
                                                  /tmp/ccFEEOUj.ltrans12.ltrans.o
writes.14583                                      /tmp/ccFEEOUj.ltrans0.ltrans.o
                                                  /tmp/ccFEEOUj.ltrans12.ltrans.o
writet.9319                                       /tmp/ccFEEOUj.ltrans8.ltrans.o
                                                  /tmp/ccFEEOUj.ltrans12.ltrans.o
zero_status.10187                                 /tmp/ccFEEOUj.ltrans12.ltrans.o
                                                  /tmp/ccFEEOUj.ltrans8.ltrans.o
